                                                                      Page 1
                                                              C:\Users\nhuliyap\AppData\Local\Temp\gh_000014o1.s
Command Line: C:\ghs\comp_201517\ease850.exe -w -elf -b0 -I../source/common -I../source/ProjectCompiler -I../source/ProjectCfg -I../source/SwcApplTpms -I../source/SwcApplEcuM -I../source/SwcServiceBswM -I../source/SwcServiceEcuM -I../source/SwcServiceNvM -I../source/SwcServiceOs -I../source/SwcServiceStartUp -I../source/McalAdc -I../source/McalDio -I../source/McalGpt -I../source/McalMcu -I../source/McalWdg -I../source/wrappers -I../source/wrappers/McalAta -I../source/McalLin -I../source/McalCan -I../source/wrappers/OS -I../source/McalFls -I../source/EcuabFee -I../source/EcuabMemIf -I../source/wrappers/VStdLib -I../source/wrappers/Crc -I../source/wrappers/FBL_APPL -I../source/wrappers/NVM_MANAGER -I../source/wrappers/DEM_MANAGER -I../source/wrappers/RDC_MANAGER -I../source/wrappers/ENV_MANAGER -I../source/wrappers/SYS_MANAGER -I../source/wrappers/EcuabCanIf -I../source/EcuabCanTrcv -I../source/wrappers/SwcServiceCanSM -I../source/wrappers/SwcServiceCanTp -I../source/wrappers/SwcServiceCanTp_PreCompile -I../source/wrappers/SwcServiceCom -I../source/wrappers/SwcServiceComM -I../source/wrappers/SwcServiceDcm -I../source/wrappers/SwcServicePduR -I../source/wrappers/SwcServiceEcuM -I../source/wrappers/Bfx -I../source/wrappers/SwcServiceDem -I../source/SwcServiceCom -I../source/SwcServiceDet -I../source/SwcServiceFiM -I../source/SwcServicePduR -I../source/SwcServiceSchM -I../source/wrappers/LibAutosarDiag -I../source/wrappers/rba_BswSrv -IC:\ghs\comp_201517\lib\rh850 -cg_underscore -cpu=rh850g3k -no_v850_simd -rh850_fpsimd=none -nomacro -patch_dbo=C:\_ECU2\ECU_Rivian_A1\Target\repo_projects\pRealEcu\cR_LATEST\make\output\objects\CanSM_InternalStateTransition.dbo -source=CanSM_InternalStateTransition.c -o output\objects\gh_000014o1.o -list=output\list\CanSM_InternalStateTransition.lst C:\Users\nhuliyap\AppData\Local\Temp\gh_000014o1.s 
Original File: C:\Users\nhuliyap\AppData\Local\Temp\gh_000014o1.s
Source File: CanSM_InternalStateTransition.c
Directory: C:\_ECU2\ECU_Rivian_A1\Target\repo_projects\pRealEcu\cR_LATEST\make
Host OS: Windows
EASE: Copyright (C) 1983-2015 Green Hills Software.  All Rights Reserved.
Release: Compiler v2015.1.7
Build Directory: [Directory] BTOWORKER6:c:/build_2015_1_bto/2015-10-21.2100-2015_1_bto/win32-comp-ecom
Revision: [VCInfo] http://toolsvc/branches/release-branch-70-bto/src@544153 (built by build)
Revision Date: Thu Oct 22 07:50:13 2015

Release Date: Thu Oct 22 09:32:32 2015

                           1 --Driver Command: ccv850
                           2 --		../source/wrappers/SwcServiceCanSM/CanSM_InternalStateTransition.c
                           3 --		-cpu=rh850 -fhard -ignore_callt_state_in_interrupts -large_sda
                           4 --		-misalign_pack -nofarcalls -nofloatio -no_callt -Ogeneral
                           5 --		-Onounroll -prepare_dispose -registermode=32 -reserve_r2 -sda=0
                           6 --		-shorten_loads -Wshadow --brief_diagnostics --no_commons
                           7 --		--no_wrap_diagnostics --prototype_errors --short_enum -list -G
                           8 --		-dual_debug -dwarf -X5523 -lnk=-no_xda_modifications -D
                           9 --		NOT_READY_FOR_TESTING_OR_DEPLOYMENT -D IBTCM_SW_ANPASSUNGEN -D
                          10 --		BUILD_RIVIAN -c -inline_prologue -I../source/common
                          11 --		-I../source/ProjectCompiler -I../source/ProjectCfg
                          12 --		-I../source/SwcApplTpms -I../source/SwcApplEcuM
                          13 --		-I../source/SwcServiceBswM -I../source/SwcServiceEcuM
                          14 --		-I../source/SwcServiceNvM -I../source/SwcServiceOs
                          15 --		-I../source/SwcServiceStartUp -I../source/McalAdc
                          16 --		-I../source/McalDio -I../source/McalGpt -I../source/McalMcu
                          17 --		-I../source/McalWdg -I../source/wrappers
                          18 --		-I../source/wrappers/McalAta -I../source/McalLin
                          19 --		-I../source/McalCan -I../source/wrappers/OS -I../source/McalFls
                          20 --		-I../source/EcuabFee -I../source/EcuabMemIf
                          21 --		-I../source/wrappers/VStdLib -I../source/wrappers
                          22 --		-I../source/wrappers/Crc -I../source/wrappers/FBL_APPL
                          23 --		-I../source/wrappers/NVM_MANAGER -I../source/wrappers/DEM_MANAGER
                          24 --		-I../source/wrappers/RDC_MANAGER -I../source/wrappers/ENV_MANAGER
                          25 --		-I../source/wrappers/SYS_MANAGER -I../source/wrappers/EcuabCanIf
                          26 --		-I../source/EcuabCanTrcv -I../source/wrappers/SwcServiceCanSM
                          27 --		-I../source/wrappers/SwcServiceCanTp
                          28 --		-I../source/wrappers/SwcServiceCanTp_PreCompile
                          29 --		-I../source/wrappers/SwcServiceCom
                          30 --		-I../source/wrappers/SwcServiceComM
                          31 --		-I../source/wrappers/SwcServiceDcm
                          32 --		-I../source/wrappers/SwcServicePduR
                          33 --		-I../source/wrappers/SwcServiceEcuM -I../source/wrappers/Bfx
                          34 --		-I../source/wrappers/SwcServiceDem -I../source/SwcServiceCom
                          35 --		-I../source/SwcServiceDet -I../source/SwcServiceFiM
                          36 --		-I../source/SwcServicePduR -I../source/SwcServiceSchM
                          37 --		-I../source/wrappers/LibAutosarDiag
                          38 --		-I../source/wrappers/rba_BswSrv -object_dir=output/objects
                          39 --		-list_dir=output/list
                          40 --Source File:   ../source/wrappers/SwcServiceCanSM/CanSM_InternalStateTransition.c
                          41 --Directory:     
                          42 --		C:\_ECU2\ECU_Rivian_A1\Target\repo_projects\pRealEcu\cR_LATEST\make
                          43 --Compile Date:  Fri Sep 15 14:00:50 2023
                          44 --Host OS:       Win32
                          45 --Version:       C-RH850 2015.1.7 RELEASE VERSION
                          46 --Release:       Compiler v2015.1.7
                          47 --Revision Date: Thu Oct 22 08:06:12 2015
                          48 --Release Date:  Thu Oct 22 09:34:32 2015
                          49 -- ecom  -g -w -OM
                          50 	.text

                                                                      Page 2
                                                              C:\Users\nhuliyap\AppData\Local\Temp\gh_000014o1.s
                          51 ..bof.C.3A.5C_ECU2.5CECU_Rivian_A1.5CTarget.5Crepo_projects.5CpRealEcu.5CcR_LATEST.5Cmake.5Coutput.5Cobjects.5CCanSM_InternalStateTransition...43.3A.5C_ECU2.5CECU_Rivian_A1.5CTarget.5Crepo_projects.5CpRealEcu.5CcR_LATEST.5Cmake..65044773..0::
                          52 ..gh.beginasm.0:
                          53 	.type	..gh.beginasm.0,@object
                          54 	.size	..gh.beginasm.0,0
                          55 
                          56 
                          57 
                          58 
                          59 
                          60 
                          61 
                          62     .set  regframe, 21
                          63 
                          64 
                          65     .set  framesize, regframe*4
                          66 
                          67 ..gh.endasm.1:
                          68 	.type	..gh.endasm.1,@object
                          69 	.size	..gh.endasm.1,0
                          70 	.text
                          71 	.align	2
                          72 ..gh.f.f.1.e.2:
                          73 	.type	..gh.f.f.1.e.2,@object
                          74 	.size	..gh.f.f.1.e.2,0
                          75 	.global	_CanSM_GetHandle
                          76 _CanSM_GetHandle:
00000000 8600             77 	zxb	r6
                          78 --	    .bf
                          79 .LDW01:
00000002 0052             80 	mov	0,r10
00000004 0a90             81 	mov	r10,r18
00000006 8515*            82 	br	.L42
                          83 .L41:
                          84 --line11
                          85 ..lin.C.3A.5C_ECU2.5CECU_Rivian_A1.5CTarget.5Crepo_projects.5CpRealEcu.5CcR_LATEST.5Cmake.5Coutput.5Cobjects.5CCanSM_InternalStateTransition.1::
                          86 .LDWlin1:
00000008 1248             87 	mov	r18,r9
0000000a f44f4002         88 	mul	20,r9,zero
0000000e 009d             89 	sld.w	0[ep],r19
00000010 1250             90 	mov	r18,r10
00000012 d349             91 	add	r19,r9
00000014 a98f0f00         92 	ld.bu	15[r9],r17
00000018 e689             93 	cmp	r6,r17
0000001a d20d*            94 	be	.L37
                          95 --line16
                          96 ..lin.C.3A.5C_ECU2.5CECU_Rivian_A1.5CTarget.5Crepo_projects.5CpRealEcu.5CcR_LATEST.5Cmake.5Coutput.5Cobjects.5CCanSM_InternalStateTransition.2::
                          97 .LDWlin2:
0000001c 08560100         98 	addi	1,r8,r10
00000020 4192             99 	add	1,r18
00000022 8a00            100 	zxb	r10
00000024 9200            101 	zxb	r18
                         102 .L42:
00000026 40f60000*       103 	movhi	hi(_CfgSwcServiceCanSM_castConfigSet_pcst),zero,ep
0000002a 3ef70100*       104 	ld.w	lo(_CfgSwcServiceCanSM_castConfigSet_pcst)[ep],ep
0000002e 6b40            105 	sld.bu	11[ep],r8
00000030 e891            106 	cmp	r8,r18
                         107 --line19
                         108 ..lin.C.3A.5C_ECU2.5CECU_Rivian_A1.5CTarget.5Crepo_projects.5CpRealEcu.5CcR_LATEST.5Cmake.5Coutput.5Cobjects.5CCanSM_InternalStateTransition.3::
                         109 .LDWlin3:
00000032 b1ed*           110 	bl	.L41
                         111 .L37:

                                                                      Page 3
                                                              C:\Users\nhuliyap\AppData\Local\Temp\gh_000014o1.s
                         112 --	    .ef
                         113 .LDW11:
                         114 --line19
                         115 ..lin.C.3A.5C_ECU2.5CECU_Rivian_A1.5CTarget.5Crepo_projects.5CpRealEcu.5CcR_LATEST.5Cmake.5Coutput.5Cobjects.5CCanSM_InternalStateTransition.4::
                         116 .LDWlin4:
00000034 7f00            117 	jmp	[lp]
                         118 	.global	___ghs_eofn_CanSM_GetHandle
                         119 ___ghs_eofn_CanSM_GetHandle:
                         120 	.type	_CanSM_GetHandle,@function
                         121 	.size	_CanSM_GetHandle,.-_CanSM_GetHandle
                         122 	.align	2
                         123 --_loop_uo	r18	local
                         124 --_CanSM_NetworkIdx_u8	r10	local
                         125 
                         126 --_ComMChannelId	r6	param
                         127 
                         128 	.section ".bss","awb"
                         129 .L104:
                         130 	.type	.L104,@object
                         131 	.size	.L104,0
                         132 	.data
                         133 	.text
                         134 	.align	2
                         135 	.align	2
                         136 ..gh.f.f.1.e.3:
                         137 	.type	..gh.f.f.1.e.3,@object
                         138 	.size	..gh.f.f.1.e.3,0
                         139 	.global	_CanSM_StopCtrl
                         140 _CanSM_StopCtrl:
00000036 8207e1f0        141 	prepare	{r24,r25,r26,r27,r28,r29,r31},1
0000003a 8600            142 	zxb	r6
                         143 --	    .bf
                         144 .LDW21:
0000003c 409e0000*       145 	movhi	hi(_CanSM_Network_pcst),zero,r19
00000040 e6de1400        146 	mulhi	20,r6,r27
00000044 339f0100*       147 	ld.w	lo(_CanSM_Network_pcst)[r19],r19
                         148 --line33
                         149 ..lin.C.3A.5C_ECU2.5CECU_Rivian_A1.5CTarget.5Crepo_projects.5CpRealEcu.5CcR_LATEST.5Cmake.5Coutput.5Cobjects.5CCanSM_InternalStateTransition.5::
                         150 .LDWlin5:
00000048 00d2            151 	mov	0,r26
0000004a 380600000000*   152 	mov	_CanSM_CurrNw_Mode_en,r24
00000050 18ef0000        153 	ld.b	0[r24],r29
00000054 d3d9            154 	add	r19,r27
                         155 --line36
                         156 ..lin.C.3A.5C_ECU2.5CECU_Rivian_A1.5CTarget.5Crepo_projects.5CpRealEcu.5CcR_LATEST.5Cmake.5Coutput.5Cobjects.5CCanSM_InternalStateTransition.6::
                         157 .LDWlin6:
00000056 1ae0            158 	mov	r26,r28
00000058 390600000000*   159 	mov	_CanSM_Num_Unsuccessful_ModeReq_au8,r25
0000005e c51d*           160 	br	.L173
                         161 .L172:
                         162 --line37
                         163 ..lin.C.3A.5C_ECU2.5CECU_Rivian_A1.5CTarget.5Crepo_projects.5CpRealEcu.5CcR_LATEST.5Cmake.5Coutput.5Cobjects.5CCanSM_InternalStateTransition.7::
                         164 .LDWlin7:
00000060 3bf70100        165 	ld.w	0[r27],ep
00000064 408e0000*       166 	movhi	hi(_CanSM_ControllerState_en),zero,r17
00000068 118f0000*       167 	ld.b	lo(_CanSM_ControllerState_en)[r17],r17
0000006c dcf1            168 	add	r28,ep
0000006e 6030            169 	sld.bu	0[ep],r6
00000070 618a            170 	cmp	1,r17
00000072 d20d*           171 	be	.L174
                         172 --line39

                                                                      Page 4
                                                              C:\Users\nhuliyap\AppData\Local\Temp\gh_000014o1.s
                         173 ..lin.C.3A.5C_ECU2.5CECU_Rivian_A1.5CTarget.5Crepo_projects.5CpRealEcu.5CcR_LATEST.5Cmake.5Coutput.5Cobjects.5CCanSM_InternalStateTransition.8::
                         174 .LDWlin8:
00000074 033a            175 	mov	3,r7
                         176 	jarl	_CanIf_SetControllerMode,lp
                         176 <EXPANSION BEGIN>
                         176 jarl22 _CanIf_SetControllerMode , lp 
00000076 80ff0000*       176 <EXPANSION END>
0000007a 6152            177 	cmp	1,r10
0000007c 8a0d*           178 	bne	.L174
                         179 --line41
                         180 ..lin.C.3A.5C_ECU2.5CECU_Rivian_A1.5CTarget.5Crepo_projects.5CpRealEcu.5CcR_LATEST.5Cmake.5Coutput.5Cobjects.5CCanSM_InternalStateTransition.9::
                         181 .LDWlin9:
0000007e 19f0            182 	mov	r25,ep
00000080 6060            183 	sld.bu	0[ep],r12
00000082 43070300        184 	st.b	zero,3[sp]
00000086 4162            185 	add	1,r12
00000088 8063            186 	sst.b	r12,0[ep]
0000008a a50d*           187 	br	.L178
                         188 .L174:
                         189 --line49
                         190 ..lin.C.3A.5C_ECU2.5CECU_Rivian_A1.5CTarget.5Crepo_projects.5CpRealEcu.5CcR_LATEST.5Cmake.5Coutput.5Cobjects.5CCanSM_InternalStateTransition.10::
                         191 .LDWlin10:
0000008c 014a            192 	mov	1,r9
0000008e 41e2            193 	add	1,r28
00000090 434f0300        194 	st.b	r9,3[sp]
00000094 9c00            195 	zxb	r28
                         196 .L173:
00000096 bb470d00        197 	ld.bu	13[r27],r8
0000009a e8e1            198 	cmp	r8,r28
0000009c a1e5*           199 	bl	.L172
                         200 .L178:
                         201 --line52
                         202 ..lin.C.3A.5C_ECU2.5CECU_Rivian_A1.5CTarget.5Crepo_projects.5CpRealEcu.5CcR_LATEST.5Cmake.5Coutput.5Cobjects.5CCanSM_InternalStateTransition.11::
                         203 .LDWlin11:
0000009e bb870d00        204 	ld.bu	13[r27],r16
000000a2 1088            205 	mov	r16,r17
000000a4 e081            206 	cmp	zero,r16
000000a6 920d*           207 	be	.L182
                         208 .L671:
                         209 --line53
                         210 ..lin.C.3A.5C_ECU2.5CECU_Rivian_A1.5CTarget.5Crepo_projects.5CpRealEcu.5CcR_LATEST.5Cmake.5Coutput.5Cobjects.5CCanSM_InternalStateTransition.12::
                         211 .LDWlin12:
000000a8 a35f0300        212 	ld.bu	3[sp],r11
000000ac 615a            213 	cmp	1,r11
000000ae ba05*           214 	bne	.L673
                         215 --line54
                         216 ..lin.C.3A.5C_ECU2.5CECU_Rivian_A1.5CTarget.5Crepo_projects.5CpRealEcu.5CcR_LATEST.5Cmake.5Coutput.5Cobjects.5CCanSM_InternalStateTransition.13::
                         217 .LDWlin13:
000000b0 cbd1            218 	add	r11,r26
000000b2 9a00            219 	zxb	r26
                         220 .L673:
000000b4 f1060d00*       221 	loop	r17,.L671
                         222 .L182:
                         223 --line57
                         224 ..lin.C.3A.5C_ECU2.5CECU_Rivian_A1.5CTarget.5Crepo_projects.5CpRealEcu.5CcR_LATEST.5Cmake.5Coutput.5Cobjects.5CCanSM_InternalStateTransition.14::
                         225 .LDWlin14:
000000b8 320600000000*   226 	mov	_CanSM_PreNoCom_Substates_en,r18
000000be 2f0600000000*   227 	mov	_CanSM_PreFullCom_Substates_en,r15
000000c4 2e0600000000*   228 	mov	_CanSM_WakeUpValidation_Substates_en,r14
000000ca 2d0600000000*   229 	mov	_CanSM_TxTimeoutexception_Substates_en,r13
000000d0 f0d1            230 	cmp	r16,r26

                                                                      Page 5
                                                              C:\Users\nhuliyap\AppData\Local\Temp\gh_000014o1.s
000000d2 9a65*           231 	bne	.L188
                         232 --line58
                         233 ..lin.C.3A.5C_ECU2.5CECU_Rivian_A1.5CTarget.5Crepo_projects.5CpRealEcu.5CcR_LATEST.5Cmake.5Coutput.5Cobjects.5CCanSM_InternalStateTransition.15::
                         234 .LDWlin15:
000000d4 3e0600000000*   235 	mov	_CanSM_Ctrl_ModeInd_ab,ep
000000da 6038            236 	sld.bu	0[ep],r7
000000dc 613a            237 	cmp	1,r7
000000de ca2d*           238 	bne	.L211
                         239 --line59
                         240 ..lin.C.3A.5C_ECU2.5CECU_Rivian_A1.5CTarget.5Crepo_projects.5CpRealEcu.5CcR_LATEST.5Cmake.5Coutput.5Cobjects.5CCanSM_InternalStateTransition.16::
                         241 .LDWlin16:
000000e0 8003            242 	sst.b	zero,0[ep]
000000e2 59070000        243 	st.b	zero,0[r25]
000000e6 64ea            244 	cmp	4,r29
000000e8 aa0d*           245 	bne	.L192
000000ea 12f0            246 	mov	r18,ep
000000ec 0033            247 	sld.b	0[ep],r6
000000ee 6132            248 	cmp	1,r6
000000f0 ea070d01*       249 	bne	.L168
                         250 --line72
                         251 ..lin.C.3A.5C_ECU2.5CECU_Rivian_A1.5CTarget.5Crepo_projects.5CpRealEcu.5CcR_LATEST.5Cmake.5Coutput.5Cobjects.5CCanSM_InternalStateTransition.17::
                         252 .LDWlin17:
000000f4 059a            253 	mov	5,r19
000000f6 809b            254 	sst.b	r19,0[ep]
000000f8 4206fff0        255 	dispose	1,{r24,r25,r26,r27,r28,r29,r31},[lp]
                         256 .L192:
                         257 --line103
                         258 ..lin.C.3A.5C_ECU2.5CECU_Rivian_A1.5CTarget.5Crepo_projects.5CpRealEcu.5CcR_LATEST.5Cmake.5Coutput.5Cobjects.5CCanSM_InternalStateTransition.18::
                         259 .LDWlin18:
000000fc 66ea            260 	cmp	6,r29
000000fe 9a0d*           261 	bne	.L196
00000100 0ff0            262 	mov	r15,ep
00000102 0093            263 	sld.b	0[ep],r18
00000104 6392            264 	cmp	3,r18
00000106 ba7d*           265 	bne	.L168
                         266 --line104
                         267 ..lin.C.3A.5C_ECU2.5CECU_Rivian_A1.5CTarget.5Crepo_projects.5CpRealEcu.5CcR_LATEST.5Cmake.5Coutput.5Cobjects.5CCanSM_InternalStateTransition.19::
                         268 .LDWlin19:
00000108 058a            269 	mov	5,r17
0000010a 808b            270 	sst.b	r17,0[ep]
0000010c 4206fff0        271 	dispose	1,{r24,r25,r26,r27,r28,r29,r31},[lp]
                         272 .L196:
                         273 --line106
                         274 ..lin.C.3A.5C_ECU2.5CECU_Rivian_A1.5CTarget.5Crepo_projects.5CpRealEcu.5CcR_LATEST.5Cmake.5Coutput.5Cobjects.5CCanSM_InternalStateTransition.20::
                         275 .LDWlin20:
00000110 65ea            276 	cmp	5,r29
00000112 8a0d*           277 	bne	.L200
00000114 0ef0            278 	mov	r14,ep
00000116 0083            279 	sld.b	0[ep],r16
00000118 6382            280 	cmp	3,r16
0000011a 9a75*           281 	bne	.L168
                         282 --line107
                         283 ..lin.C.3A.5C_ECU2.5CECU_Rivian_A1.5CTarget.5Crepo_projects.5CpRealEcu.5CcR_LATEST.5Cmake.5Coutput.5Cobjects.5CCanSM_InternalStateTransition.21::
                         284 .LDWlin21:
0000011c 80eb            285 	sst.b	r29,0[ep]
0000011e 4206fff0        286 	dispose	1,{r24,r25,r26,r27,r28,r29,r31},[lp]
                         287 .L200:
                         288 --line109
                         289 ..lin.C.3A.5C_ECU2.5CECU_Rivian_A1.5CTarget.5Crepo_projects.5CpRealEcu.5CcR_LATEST.5Cmake.5Coutput.5Cobjects.5CCanSM_InternalStateTransition.22::
                         290 .LDWlin22:
00000122 69ea            291 	cmp	9,r29

                                                                      Page 6
                                                              C:\Users\nhuliyap\AppData\Local\Temp\gh_000014o1.s
00000124 ca6d*           292 	bne	.L168
00000126 0df0            293 	mov	r13,ep
00000128 0073            294 	sld.b	0[ep],r14
0000012a 6172            295 	cmp	1,r14
0000012c 8a6d*           296 	bne	.L168
                         297 --line110
                         298 ..lin.C.3A.5C_ECU2.5CECU_Rivian_A1.5CTarget.5Crepo_projects.5CpRealEcu.5CcR_LATEST.5Cmake.5Coutput.5Cobjects.5CCanSM_InternalStateTransition.23::
                         299 .LDWlin23:
0000012e 036a            300 	mov	3,r13
00000130 806b            301 	sst.b	r13,0[ep]
00000132 4206fff0        302 	dispose	1,{r24,r25,r26,r27,r28,r29,r31},[lp]
                         303 .L211:
                         304 --line116
                         305 ..lin.C.3A.5C_ECU2.5CECU_Rivian_A1.5CTarget.5Crepo_projects.5CpRealEcu.5CcR_LATEST.5Cmake.5Coutput.5Cobjects.5CCanSM_InternalStateTransition.24::
                         306 .LDWlin24:
00000136 e0076001        307 	di
0000013a 64ea            308 	cmp	4,r29
0000013c 8a0d*           309 	bne	.L213
0000013e 12f0            310 	mov	r18,ep
00000140 0063            311 	sld.b	0[ep],r12
00000142 6162            312 	cmp	1,r12
00000144 ea1d*           313 	bne	.L231
                         314 --line127
                         315 ..lin.C.3A.5C_ECU2.5CECU_Rivian_A1.5CTarget.5Crepo_projects.5CpRealEcu.5CcR_LATEST.5Cmake.5Coutput.5Cobjects.5CCanSM_InternalStateTransition.25::
                         316 .LDWlin25:
00000146 035a            317 	mov	3,r11
00000148 805b            318 	sst.b	r11,0[ep]
0000014a b51d*           319 	br	.L231
                         320 .L213:
                         321 --line137
                         322 ..lin.C.3A.5C_ECU2.5CECU_Rivian_A1.5CTarget.5Crepo_projects.5CpRealEcu.5CcR_LATEST.5Cmake.5Coutput.5Cobjects.5CCanSM_InternalStateTransition.26::
                         323 .LDWlin26:
0000014c 66ea            324 	cmp	6,r29
0000014e 8a0d*           325 	bne	.L217
00000150 0ff0            326 	mov	r15,ep
00000152 0053            327 	sld.b	0[ep],r10
00000154 6352            328 	cmp	3,r10
00000156 da15*           329 	bne	.L231
                         330 --line138
                         331 ..lin.C.3A.5C_ECU2.5CECU_Rivian_A1.5CTarget.5Crepo_projects.5CpRealEcu.5CcR_LATEST.5Cmake.5Coutput.5Cobjects.5CCanSM_InternalStateTransition.27::
                         332 .LDWlin27:
00000158 044a            333 	mov	4,r9
0000015a 804b            334 	sst.b	r9,0[ep]
0000015c a515*           335 	br	.L231
                         336 .L217:
                         337 --line140
                         338 ..lin.C.3A.5C_ECU2.5CECU_Rivian_A1.5CTarget.5Crepo_projects.5CpRealEcu.5CcR_LATEST.5Cmake.5Coutput.5Cobjects.5CCanSM_InternalStateTransition.28::
                         339 .LDWlin28:
0000015e 65ea            340 	cmp	5,r29
00000160 8a0d*           341 	bne	.L221
00000162 0ef0            342 	mov	r14,ep
00000164 0043            343 	sld.b	0[ep],r8
00000166 6342            344 	cmp	3,r8
00000168 ca0d*           345 	bne	.L231
                         346 --line141
                         347 ..lin.C.3A.5C_ECU2.5CECU_Rivian_A1.5CTarget.5Crepo_projects.5CpRealEcu.5CcR_LATEST.5Cmake.5Coutput.5Cobjects.5CCanSM_InternalStateTransition.29::
                         348 .LDWlin29:
0000016a 043a            349 	mov	4,r7
0000016c 803b            350 	sst.b	r7,0[ep]
0000016e 950d*           351 	br	.L231
                         352 .L221:

                                                                      Page 7
                                                              C:\Users\nhuliyap\AppData\Local\Temp\gh_000014o1.s
                         353 --line143
                         354 ..lin.C.3A.5C_ECU2.5CECU_Rivian_A1.5CTarget.5Crepo_projects.5CpRealEcu.5CcR_LATEST.5Cmake.5Coutput.5Cobjects.5CCanSM_InternalStateTransition.30::
                         355 .LDWlin30:
00000170 69ea            356 	cmp	9,r29
00000172 fa05*           357 	bne	.L231
00000174 0df0            358 	mov	r13,ep
00000176 0033            359 	sld.b	0[ep],r6
00000178 6132            360 	cmp	1,r6
0000017a ba05*           361 	bne	.L231
                         362 --line144
                         363 ..lin.C.3A.5C_ECU2.5CECU_Rivian_A1.5CTarget.5Crepo_projects.5CpRealEcu.5CcR_LATEST.5Cmake.5Coutput.5Cobjects.5CCanSM_InternalStateTransition.31::
                         364 .LDWlin31:
0000017c 029a            365 	mov	2,r19
0000017e 809b            366 	sst.b	r19,0[ep]
                         367 .L231:
00000180 e0876001        368 	ei
00000184 3e0600000000*   369 	mov	_CanSM_TimerConfig_ast,ep
0000018a 0292            370 	mov	2,r18
0000018c 8104            371 	sst.h	zero,2[ep]
0000018e 8093            372 	sst.b	r18,0[ep]
00000190 4206fff0        373 	dispose	1,{r24,r25,r26,r27,r28,r29,r31},[lp]
                         374 .L188:
                         375 --line153
                         376 ..lin.C.3A.5C_ECU2.5CECU_Rivian_A1.5CTarget.5Crepo_projects.5CpRealEcu.5CcR_LATEST.5Cmake.5Coutput.5Cobjects.5CCanSM_InternalStateTransition.32::
                         377 .LDWlin32:
00000194 408e0000*       378 	movhi	hi(_CanSM_ModeRepeatReq_Max_u8),zero,r17
00000198 918f0100*       379 	ld.bu	lo(_CanSM_ModeRepeatReq_Max_u8)[r17],r17
0000019c 99870100        380 	ld.bu	0[r25],r16
000001a0 f181            381 	cmp	r17,r16
000001a2 d12d*           382 	bl	.L168
                         383 --line154
                         384 ..lin.C.3A.5C_ECU2.5CECU_Rivian_A1.5CTarget.5Crepo_projects.5CpRealEcu.5CcR_LATEST.5Cmake.5Coutput.5Cobjects.5CCanSM_InternalStateTransition.33::
                         385 .LDWlin33:
000001a4 59070000        386 	st.b	zero,0[r25]
000001a8 64ea            387 	cmp	4,r29
000001aa ea05*           388 	bne	.L239
000001ac 127f0000        389 	ld.b	0[r18],r15
000001b0 617a            390 	cmp	1,r15
000001b2 da25*           391 	bne	.L168
000001b4 851d*           392 	br	.L253
                         393 .L239:
                         394 --line177
                         395 ..lin.C.3A.5C_ECU2.5CECU_Rivian_A1.5CTarget.5Crepo_projects.5CpRealEcu.5CcR_LATEST.5Cmake.5Coutput.5Cobjects.5CCanSM_InternalStateTransition.34::
                         396 .LDWlin34:
000001b6 66ea            397 	cmp	6,r29
000001b8 ea05*           398 	bne	.L243
000001ba 0ff0            399 	mov	r15,ep
000001bc 0073            400 	sld.b	0[ep],r14
000001be 6372            401 	cmp	3,r14
000001c0 ea1d*           402 	bne	.L168
                         403 --line178
                         404 ..lin.C.3A.5C_ECU2.5CECU_Rivian_A1.5CTarget.5Crepo_projects.5CpRealEcu.5CcR_LATEST.5Cmake.5Coutput.5Cobjects.5CCanSM_InternalStateTransition.35::
                         405 .LDWlin35:
000001c2 f505*           406 	br	.L614
                         407 .L243:
                         408 --line199
                         409 ..lin.C.3A.5C_ECU2.5CECU_Rivian_A1.5CTarget.5Crepo_projects.5CpRealEcu.5CcR_LATEST.5Cmake.5Coutput.5Cobjects.5CCanSM_InternalStateTransition.36::
                         410 .LDWlin36:
000001c4 65ea            411 	cmp	5,r29
000001c6 ca15*           412 	bne	.L250
000001c8 0ef0            413 	mov	r14,ep

                                                                      Page 8
                                                              C:\Users\nhuliyap\AppData\Local\Temp\gh_000014o1.s
000001ca 006b            414 	sld.b	0[ep],r13
000001cc 636a            415 	cmp	3,r13
000001ce fa15*           416 	bne	.L168
                         417 .L614:
                         418 --line200
                         419 ..lin.C.3A.5C_ECU2.5CECU_Rivian_A1.5CTarget.5Crepo_projects.5CpRealEcu.5CcR_LATEST.5Cmake.5Coutput.5Cobjects.5CCanSM_InternalStateTransition.37::
                         420 .LDWlin37:
000001d0 8003            421 	sst.b	zero,0[ep]
000001d2 0462            422 	mov	4,r12
000001d4 405e0000*       423 	movhi	hi(_CanSM_ReqComM_Mode_en),zero,r11
                         424 --line200
                         425 ..lin.C.3A.5C_ECU2.5CECU_Rivian_A1.5CTarget.5Crepo_projects.5CpRealEcu.5CcR_LATEST.5Cmake.5Coutput.5Cobjects.5CCanSM_InternalStateTransition.38::
                         426 .LDWlin38:
000001d8 59070000        427 	st.b	zero,0[r25]
000001dc 58670000        428 	st.b	r12,0[r24]
000001e0 4b070000*       429 	st.b	zero,lo(_CanSM_ReqComM_Mode_en)[r11]
                         430 .L253:
000001e4 015a            431 	mov	1,r11
000001e6 525f0000        432 	st.b	r11,0[r18]
000001ea 4206fff0        433 	dispose	1,{r24,r25,r26,r27,r28,r29,r31},[lp]
                         434 .L250:
                         435 --line221
                         436 ..lin.C.3A.5C_ECU2.5CECU_Rivian_A1.5CTarget.5Crepo_projects.5CpRealEcu.5CcR_LATEST.5Cmake.5Coutput.5Cobjects.5CCanSM_InternalStateTransition.39::
                         437 .LDWlin39:
000001ee 69ea            438 	cmp	9,r29
000001f0 ea05*           439 	bne	.L168
000001f2 0df0            440 	mov	r13,ep
000001f4 0053            441 	sld.b	0[ep],r10
000001f6 6152            442 	cmp	1,r10
000001f8 4206fff0        443 	dispose	1,{r24,r25,r26,r27,r28,r29,r31},[lp]
                         444 .L168:
                         445 --	    .ef
                         446 .LDW31:
                         447 --line230
                         448 ..lin.C.3A.5C_ECU2.5CECU_Rivian_A1.5CTarget.5Crepo_projects.5CpRealEcu.5CcR_LATEST.5Cmake.5Coutput.5Cobjects.5CCanSM_InternalStateTransition.40::
                         449 .LDWlin40:
000001fc 4206fff0        450 	dispose	1,{r24,r25,r26,r27,r28,r29,r31},[lp]
                         451 	.global	___ghs_eofn_CanSM_StopCtrl
                         452 ___ghs_eofn_CanSM_StopCtrl:
                         453 	.type	_CanSM_StopCtrl,@function
                         454 	.size	_CanSM_StopCtrl,.-_CanSM_StopCtrl
                         455 	.align	2
                         456 --_CanSM_NetworkConf_ps	r27	local
                         457 --_CanSM_ControllerId_u8	r6	local
                         458 --_CanSM_Ctrl_index_u8	r28	local
                         459 --_CanSM_Ctrl_Status_u8	3[sp]	local
                         460 --_CanSM_CurrNwMode_en	r29	local
                         461 --_CanSM_Controller_Counter_u8	r26	local
                         462 
                         463 --_network	r6	param
                         464 
                         465 	.section ".bss","awb"
                         466 .L2386:
                         467 	.type	.L2386,@object
                         468 	.size	.L2386,0
                         469 	.data
                         470 	.text
                         471 	.align	2
                         472 	.align	2
                         473 ..gh.f.f.1.e.4:
                         474 	.type	..gh.f.f.1.e.4,@object

                                                                      Page 9
                                                              C:\Users\nhuliyap\AppData\Local\Temp\gh_000014o1.s
                         475 	.size	..gh.f.f.1.e.4,0
                         476 	.global	_CanSM_StartCtrl
                         477 _CanSM_StartCtrl:
00000200 8207e1f0        478 	prepare	{r24,r25,r26,r27,r28,r29,r31},1
00000204 8600            479 	zxb	r6
                         480 --	    .bf
                         481 .LDW41:
00000206 409e0000*       482 	movhi	hi(_CanSM_Network_pcst),zero,r19
0000020a e6de1400        483 	mulhi	20,r6,r27
0000020e 339f0100*       484 	ld.w	lo(_CanSM_Network_pcst)[r19],r19
                         485 --line238
                         486 ..lin.C.3A.5C_ECU2.5CECU_Rivian_A1.5CTarget.5Crepo_projects.5CpRealEcu.5CcR_LATEST.5Cmake.5Coutput.5Cobjects.5CCanSM_InternalStateTransition.41::
                         487 .LDWlin41:
00000212 00d2            488 	mov	0,r26
00000214 380600000000*   489 	mov	_CanSM_CurrNw_Mode_en,r24
0000021a 18e70000        490 	ld.b	0[r24],r28
0000021e d3d9            491 	add	r19,r27
                         492 --line241
                         493 ..lin.C.3A.5C_ECU2.5CECU_Rivian_A1.5CTarget.5Crepo_projects.5CpRealEcu.5CcR_LATEST.5Cmake.5Coutput.5Cobjects.5CCanSM_InternalStateTransition.42::
                         494 .LDWlin42:
00000220 1ae8            495 	mov	r26,r29
00000222 390600000000*   496 	mov	_CanSM_Num_Unsuccessful_ModeReq_au8,r25
00000228 c51d*           497 	br	.L2882
                         498 .L2881:
                         499 --line242
                         500 ..lin.C.3A.5C_ECU2.5CECU_Rivian_A1.5CTarget.5Crepo_projects.5CpRealEcu.5CcR_LATEST.5Cmake.5Coutput.5Cobjects.5CCanSM_InternalStateTransition.43::
                         501 .LDWlin43:
0000022a 3bf70100        502 	ld.w	0[r27],ep
0000022e 408e0000*       503 	movhi	hi(_CanSM_ControllerState_en),zero,r17
00000232 118f0000*       504 	ld.b	lo(_CanSM_ControllerState_en)[r17],r17
00000236 ddf1            505 	add	r29,ep
00000238 6030            506 	sld.bu	0[ep],r6
0000023a 628a            507 	cmp	2,r17
0000023c d20d*           508 	be	.L2883
                         509 --line244
                         510 ..lin.C.3A.5C_ECU2.5CECU_Rivian_A1.5CTarget.5Crepo_projects.5CpRealEcu.5CcR_LATEST.5Cmake.5Coutput.5Cobjects.5CCanSM_InternalStateTransition.44::
                         511 .LDWlin44:
0000023e 023a            512 	mov	2,r7
                         513 	jarl	_CanIf_SetControllerMode,lp
                         513 <EXPANSION BEGIN>
                         513 jarl22 _CanIf_SetControllerMode , lp 
00000240 80ff0000*       513 <EXPANSION END>
00000244 6152            514 	cmp	1,r10
00000246 8a0d*           515 	bne	.L2883
                         516 --line246
                         517 ..lin.C.3A.5C_ECU2.5CECU_Rivian_A1.5CTarget.5Crepo_projects.5CpRealEcu.5CcR_LATEST.5Cmake.5Coutput.5Cobjects.5CCanSM_InternalStateTransition.45::
                         518 .LDWlin45:
00000248 19f0            519 	mov	r25,ep
0000024a 6060            520 	sld.bu	0[ep],r12
0000024c 43070300        521 	st.b	zero,3[sp]
00000250 4162            522 	add	1,r12
00000252 8063            523 	sst.b	r12,0[ep]
00000254 a50d*           524 	br	.L2887
                         525 .L2883:
                         526 --line254
                         527 ..lin.C.3A.5C_ECU2.5CECU_Rivian_A1.5CTarget.5Crepo_projects.5CpRealEcu.5CcR_LATEST.5Cmake.5Coutput.5Cobjects.5CCanSM_InternalStateTransition.46::
                         528 .LDWlin46:
00000256 014a            529 	mov	1,r9
00000258 41ea            530 	add	1,r29
0000025a 434f0300        531 	st.b	r9,3[sp]
0000025e 9d00            532 	zxb	r29

                                                                      Page 10
                                                              C:\Users\nhuliyap\AppData\Local\Temp\gh_000014o1.s
                         533 .L2882:
00000260 bb470d00        534 	ld.bu	13[r27],r8
00000264 e8e9            535 	cmp	r8,r29
00000266 a1e5*           536 	bl	.L2881
                         537 .L2887:
                         538 --line257
                         539 ..lin.C.3A.5C_ECU2.5CECU_Rivian_A1.5CTarget.5Crepo_projects.5CpRealEcu.5CcR_LATEST.5Cmake.5Coutput.5Cobjects.5CCanSM_InternalStateTransition.47::
                         540 .LDWlin47:
00000268 bb870d00        541 	ld.bu	13[r27],r16
0000026c 1090            542 	mov	r16,r18
0000026e e081            543 	cmp	zero,r16
00000270 920d*           544 	be	.L2891
                         545 .L3299:
                         546 --line258
                         547 ..lin.C.3A.5C_ECU2.5CECU_Rivian_A1.5CTarget.5Crepo_projects.5CpRealEcu.5CcR_LATEST.5Cmake.5Coutput.5Cobjects.5CCanSM_InternalStateTransition.48::
                         548 .LDWlin48:
00000272 a35f0300        549 	ld.bu	3[sp],r11
00000276 615a            550 	cmp	1,r11
00000278 ba05*           551 	bne	.L3301
                         552 --line259
                         553 ..lin.C.3A.5C_ECU2.5CECU_Rivian_A1.5CTarget.5Crepo_projects.5CpRealEcu.5CcR_LATEST.5Cmake.5Coutput.5Cobjects.5CCanSM_InternalStateTransition.49::
                         554 .LDWlin49:
0000027a cbd1            555 	add	r11,r26
0000027c 9a00            556 	zxb	r26
                         557 .L3301:
0000027e f2060d00*       558 	loop	r18,.L3299
                         559 .L2891:
                         560 --line262
                         561 ..lin.C.3A.5C_ECU2.5CECU_Rivian_A1.5CTarget.5Crepo_projects.5CpRealEcu.5CcR_LATEST.5Cmake.5Coutput.5Cobjects.5CCanSM_InternalStateTransition.50::
                         562 .LDWlin50:
00000282 2f0600000000*   563 	mov	_CanSM_PreFullCom_Substates_en,r15
00000288 2e0600000000*   564 	mov	_CanSM_WakeUpValidation_Substates_en,r14
0000028e 2d0600000000*   565 	mov	_CanSM_TxTimeoutexception_Substates_en,r13
00000294 f0d1            566 	cmp	r16,r26
00000296 aa4d*           567 	bne	.L2897
                         568 --line263
                         569 ..lin.C.3A.5C_ECU2.5CECU_Rivian_A1.5CTarget.5Crepo_projects.5CpRealEcu.5CcR_LATEST.5Cmake.5Coutput.5Cobjects.5CCanSM_InternalStateTransition.51::
                         570 .LDWlin51:
00000298 3e0600000000*   571 	mov	_CanSM_Ctrl_ModeInd_ab,ep
0000029e 6038            572 	sld.bu	0[ep],r7
000002a0 613a            573 	cmp	1,r7
000002a2 fa1d*           574 	bne	.L2916
                         575 --line265
                         576 ..lin.C.3A.5C_ECU2.5CECU_Rivian_A1.5CTarget.5Crepo_projects.5CpRealEcu.5CcR_LATEST.5Cmake.5Coutput.5Cobjects.5CCanSM_InternalStateTransition.52::
                         577 .LDWlin52:
000002a4 8003            578 	sst.b	zero,0[ep]
000002a6 59070000        579 	st.b	zero,0[r25]
000002aa 66e2            580 	cmp	6,r28
000002ac 8a0d*           581 	bne	.L2901
000002ae 0ff0            582 	mov	r15,ep
000002b0 0033            583 	sld.b	0[ep],r6
000002b2 6532            584 	cmp	5,r6
000002b4 da6d*           585 	bne	.L2877
                         586 --line268
                         587 ..lin.C.3A.5C_ECU2.5CECU_Rivian_A1.5CTarget.5Crepo_projects.5CpRealEcu.5CcR_LATEST.5Cmake.5Coutput.5Cobjects.5CCanSM_InternalStateTransition.53::
                         588 .LDWlin53:
000002b6 8003            589 	sst.b	zero,0[ep]
000002b8 4206fff0        590 	dispose	1,{r24,r25,r26,r27,r28,r29,r31},[lp]
                         591 .L2901:
                         592 --line278
                         593 ..lin.C.3A.5C_ECU2.5CECU_Rivian_A1.5CTarget.5Crepo_projects.5CpRealEcu.5CcR_LATEST.5Cmake.5Coutput.5Cobjects.5CCanSM_InternalStateTransition.54::

                                                                      Page 11
                                                              C:\Users\nhuliyap\AppData\Local\Temp\gh_000014o1.s
                         594 .LDWlin54:
000002bc 65e2            595 	cmp	5,r28
000002be 8a0d*           596 	bne	.L2905
000002c0 0ef0            597 	mov	r14,ep
000002c2 009b            598 	sld.b	0[ep],r19
000002c4 659a            599 	cmp	5,r19
000002c6 ca65*           600 	bne	.L2877
                         601 --line279
                         602 ..lin.C.3A.5C_ECU2.5CECU_Rivian_A1.5CTarget.5Crepo_projects.5CpRealEcu.5CcR_LATEST.5Cmake.5Coutput.5Cobjects.5CCanSM_InternalStateTransition.55::
                         603 .LDWlin55:
000002c8 8003            604 	sst.b	zero,0[ep]
000002ca 4206fff0        605 	dispose	1,{r24,r25,r26,r27,r28,r29,r31},[lp]
                         606 .L2905:
                         607 --line281
                         608 ..lin.C.3A.5C_ECU2.5CECU_Rivian_A1.5CTarget.5Crepo_projects.5CpRealEcu.5CcR_LATEST.5Cmake.5Coutput.5Cobjects.5CCanSM_InternalStateTransition.56::
                         609 .LDWlin56:
000002ce 69e2            610 	cmp	9,r28
000002d0 fa5d*           611 	bne	.L2877
000002d2 0df0            612 	mov	r13,ep
000002d4 0093            613 	sld.b	0[ep],r18
000002d6 6392            614 	cmp	3,r18
000002d8 ba5d*           615 	bne	.L2877
                         616 --line282
                         617 ..lin.C.3A.5C_ECU2.5CECU_Rivian_A1.5CTarget.5Crepo_projects.5CpRealEcu.5CcR_LATEST.5Cmake.5Coutput.5Cobjects.5CCanSM_InternalStateTransition.57::
                         618 .LDWlin57:
000002da 8003            619 	sst.b	zero,0[ep]
000002dc 4206fff0        620 	dispose	1,{r24,r25,r26,r27,r28,r29,r31},[lp]
                         621 .L2916:
                         622 --line288
                         623 ..lin.C.3A.5C_ECU2.5CECU_Rivian_A1.5CTarget.5Crepo_projects.5CpRealEcu.5CcR_LATEST.5Cmake.5Coutput.5Cobjects.5CCanSM_InternalStateTransition.58::
                         624 .LDWlin58:
000002e0 e0076001        625 	di
000002e4 66e2            626 	cmp	6,r28
000002e6 fa05*           627 	bne	.L2918
000002e8 0ff0            628 	mov	r15,ep
000002ea 008b            629 	sld.b	0[ep],r17
000002ec 658a            630 	cmp	5,r17
000002ee ca15*           631 	bne	.L2932
                         632 --line290
                         633 ..lin.C.3A.5C_ECU2.5CECU_Rivian_A1.5CTarget.5Crepo_projects.5CpRealEcu.5CcR_LATEST.5Cmake.5Coutput.5Cobjects.5CCanSM_InternalStateTransition.59::
                         634 .LDWlin59:
000002f0 80e3            635 	sst.b	r28,0[ep]
000002f2 a515*           636 	br	.L2932
                         637 .L2918:
                         638 --line299
                         639 ..lin.C.3A.5C_ECU2.5CECU_Rivian_A1.5CTarget.5Crepo_projects.5CpRealEcu.5CcR_LATEST.5Cmake.5Coutput.5Cobjects.5CCanSM_InternalStateTransition.60::
                         640 .LDWlin60:
000002f4 65e2            641 	cmp	5,r28
000002f6 8a0d*           642 	bne	.L2922
000002f8 0ef0            643 	mov	r14,ep
000002fa 007b            644 	sld.b	0[ep],r15
000002fc 657a            645 	cmp	5,r15
000002fe ca0d*           646 	bne	.L2932
                         647 --line300
                         648 ..lin.C.3A.5C_ECU2.5CECU_Rivian_A1.5CTarget.5Crepo_projects.5CpRealEcu.5CcR_LATEST.5Cmake.5Coutput.5Cobjects.5CCanSM_InternalStateTransition.61::
                         649 .LDWlin61:
00000300 0672            650 	mov	6,r14
00000302 8073            651 	sst.b	r14,0[ep]
00000304 950d*           652 	br	.L2932
                         653 .L2922:
                         654 --line302

                                                                      Page 12
                                                              C:\Users\nhuliyap\AppData\Local\Temp\gh_000014o1.s
                         655 ..lin.C.3A.5C_ECU2.5CECU_Rivian_A1.5CTarget.5Crepo_projects.5CpRealEcu.5CcR_LATEST.5Cmake.5Coutput.5Cobjects.5CCanSM_InternalStateTransition.62::
                         656 .LDWlin62:
00000306 69e2            657 	cmp	9,r28
00000308 fa05*           658 	bne	.L2932
0000030a 0df0            659 	mov	r13,ep
0000030c 006b            660 	sld.b	0[ep],r13
0000030e 636a            661 	cmp	3,r13
00000310 ba05*           662 	bne	.L2932
                         663 --line303
                         664 ..lin.C.3A.5C_ECU2.5CECU_Rivian_A1.5CTarget.5Crepo_projects.5CpRealEcu.5CcR_LATEST.5Cmake.5Coutput.5Cobjects.5CCanSM_InternalStateTransition.63::
                         665 .LDWlin63:
00000312 0462            666 	mov	4,r12
00000314 8063            667 	sst.b	r12,0[ep]
                         668 .L2932:
00000316 e0876001        669 	ei
0000031a 3e0600000000*   670 	mov	_CanSM_TimerConfig_ast,ep
00000320 025a            671 	mov	2,r11
00000322 8104            672 	sst.h	zero,2[ep]
00000324 805b            673 	sst.b	r11,0[ep]
00000326 4206fff0        674 	dispose	1,{r24,r25,r26,r27,r28,r29,r31},[lp]
                         675 .L2897:
                         676 --line312
                         677 ..lin.C.3A.5C_ECU2.5CECU_Rivian_A1.5CTarget.5Crepo_projects.5CpRealEcu.5CcR_LATEST.5Cmake.5Coutput.5Cobjects.5CCanSM_InternalStateTransition.64::
                         678 .LDWlin64:
0000032a 40560000*       679 	movhi	hi(_CanSM_ModeRepeatReq_Max_u8),zero,r10
0000032e 8a570100*       680 	ld.bu	lo(_CanSM_ModeRepeatReq_Max_u8)[r10],r10
00000332 994f0100        681 	ld.bu	0[r25],r9
00000336 ea49            682 	cmp	r10,r9
00000338 b12d*           683 	bl	.L2877
                         684 --line314
                         685 ..lin.C.3A.5C_ECU2.5CECU_Rivian_A1.5CTarget.5Crepo_projects.5CpRealEcu.5CcR_LATEST.5Cmake.5Coutput.5Cobjects.5CCanSM_InternalStateTransition.65::
                         686 .LDWlin65:
0000033a 188f0000        687 	ld.b	0[r24],r17
0000033e 59070000        688 	st.b	zero,0[r25]
00000342 668a            689 	cmp	6,r17
00000344 ea05*           690 	bne	.L2940
00000346 0ff0            691 	mov	r15,ep
00000348 0043            692 	sld.b	0[ep],r8
0000034a 6542            693 	cmp	5,r8
0000034c 9a25*           694 	bne	.L2877
                         695 --line315
                         696 ..lin.C.3A.5C_ECU2.5CECU_Rivian_A1.5CTarget.5Crepo_projects.5CpRealEcu.5CcR_LATEST.5Cmake.5Coutput.5Cobjects.5CCanSM_InternalStateTransition.66::
                         697 .LDWlin66:
0000034e f505*           698 	br	.L2950
                         699 .L2940:
                         700 --line346
                         701 ..lin.C.3A.5C_ECU2.5CECU_Rivian_A1.5CTarget.5Crepo_projects.5CpRealEcu.5CcR_LATEST.5Cmake.5Coutput.5Cobjects.5CCanSM_InternalStateTransition.67::
                         702 .LDWlin67:
00000350 658a            703 	cmp	5,r17
00000352 ea15*           704 	bne	.L2947
00000354 0ef0            705 	mov	r14,ep
00000356 003b            706 	sld.b	0[ep],r7
00000358 653a            707 	cmp	5,r7
0000035a aa1d*           708 	bne	.L2877
                         709 .L2950:
                         710 --line347
                         711 ..lin.C.3A.5C_ECU2.5CECU_Rivian_A1.5CTarget.5Crepo_projects.5CpRealEcu.5CcR_LATEST.5Cmake.5Coutput.5Cobjects.5CCanSM_InternalStateTransition.68::
                         712 .LDWlin68:
0000035c 8003            713 	sst.b	zero,0[ep]
0000035e 0432            714 	mov	4,r6
00000360 405e0000*       715 	movhi	hi(_CanSM_ReqComM_Mode_en),zero,r11

                                                                      Page 13
                                                              C:\Users\nhuliyap\AppData\Local\Temp\gh_000014o1.s
                         716 --line347
                         717 ..lin.C.3A.5C_ECU2.5CECU_Rivian_A1.5CTarget.5Crepo_projects.5CpRealEcu.5CcR_LATEST.5Cmake.5Coutput.5Cobjects.5CCanSM_InternalStateTransition.69::
                         718 .LDWlin69:
00000364 019a            719 	mov	1,r19
00000366 40660000*       720 	movhi	hi(_CanSM_PreNoCom_Substates_en),zero,r12
                         721 --line365
                         722 ..lin.C.3A.5C_ECU2.5CECU_Rivian_A1.5CTarget.5Crepo_projects.5CpRealEcu.5CcR_LATEST.5Cmake.5Coutput.5Cobjects.5CCanSM_InternalStateTransition.70::
                         723 .LDWlin70:
0000036a 59070000        724 	st.b	zero,0[r25]
0000036e 58370000        725 	st.b	r6,0[r24]
00000372 4b070000*       726 	st.b	zero,lo(_CanSM_ReqComM_Mode_en)[r11]
00000376 4c9f0000*       727 	st.b	r19,lo(_CanSM_PreNoCom_Substates_en)[r12]
0000037a 4206fff0        728 	dispose	1,{r24,r25,r26,r27,r28,r29,r31},[lp]
                         729 .L2947:
                         730 --line368
                         731 ..lin.C.3A.5C_ECU2.5CECU_Rivian_A1.5CTarget.5Crepo_projects.5CpRealEcu.5CcR_LATEST.5Cmake.5Coutput.5Cobjects.5CCanSM_InternalStateTransition.71::
                         732 .LDWlin71:
0000037e 698a            733 	cmp	9,r17
00000380 fa05*           734 	bne	.L2877
00000382 0df0            735 	mov	r13,ep
00000384 0093            736 	sld.b	0[ep],r18
00000386 6392            737 	cmp	3,r18
00000388 ba05*           738 	bne	.L2877
                         739 --line369
                         740 ..lin.C.3A.5C_ECU2.5CECU_Rivian_A1.5CTarget.5Crepo_projects.5CpRealEcu.5CcR_LATEST.5Cmake.5Coutput.5Cobjects.5CCanSM_InternalStateTransition.72::
                         741 .LDWlin72:
0000038a 018a            742 	mov	1,r17
0000038c 808b            743 	sst.b	r17,0[ep]
                         744 .L2877:
                         745 --	    .ef
                         746 .LDW51:
0000038e 4206fff0        747 	dispose	1,{r24,r25,r26,r27,r28,r29,r31},[lp]
                         748 	.global	___ghs_eofn_CanSM_StartCtrl
                         749 ___ghs_eofn_CanSM_StartCtrl:
                         750 	.type	_CanSM_StartCtrl,@function
                         751 	.size	_CanSM_StartCtrl,.-_CanSM_StartCtrl
                         752 	.align	2
                         753 --_CanSM_NetworkConf_ps	r27	local
                         754 --_CanSM_ControllerId_u8	r6	local
                         755 --_CanSM_Ctrl_index_u8	r29	local
                         756 --_CanSM_Ctrl_Status_u8	3[sp]	local
                         757 --_CanSM_CurrNwMode_en	r28	local
                         758 --_CanSM_Controller_Counter_u8	r26	local
                         759 
                         760 --_network	r6	param
                         761 
                         762 	.section ".bss","awb"
                         763 .L4744:
                         764 	.type	.L4744,@object
                         765 	.size	.L4744,0
                         766 	.data
                         767 	.text
                         768 	.align	2
                         769 	.align	2
                         770 ..gh.f.f.1.e.5:
                         771 	.type	..gh.f.f.1.e.5,@object
                         772 	.size	..gh.f.f.1.e.5,0
                         773 	.global	_CanSM_SleepCtrl
                         774 _CanSM_SleepCtrl:
00000392 8207e130        775 	prepare	{r26,r27,r28,r29,r31},1
00000396 8600            776 	zxb	r6

                                                                      Page 14
                                                              C:\Users\nhuliyap\AppData\Local\Temp\gh_000014o1.s
                         777 --	    .bf
                         778 .LDW61:
00000398 409e0000*       779 	movhi	hi(_CanSM_Network_pcst),zero,r19
0000039c e6e61400        780 	mulhi	20,r6,r28
000003a0 339f0100*       781 	ld.w	lo(_CanSM_Network_pcst)[r19],r19
                         782 --line384
                         783 ..lin.C.3A.5C_ECU2.5CECU_Rivian_A1.5CTarget.5Crepo_projects.5CpRealEcu.5CcR_LATEST.5Cmake.5Coutput.5Cobjects.5CCanSM_InternalStateTransition.73::
                         784 .LDWlin73:
000003a4 00da            785 	mov	0,r27
000003a6 1be8            786 	mov	r27,r29
000003a8 3a0600000000*   787 	mov	_CanSM_Num_Unsuccessful_ModeReq_au8,r26
000003ae d3e1            788 	add	r19,r28
000003b0 c51d*           789 	br	.L5160
                         790 .L5159:
                         791 --line387
                         792 ..lin.C.3A.5C_ECU2.5CECU_Rivian_A1.5CTarget.5Crepo_projects.5CpRealEcu.5CcR_LATEST.5Cmake.5Coutput.5Cobjects.5CCanSM_InternalStateTransition.74::
                         793 .LDWlin74:
000003b2 3cf70100        794 	ld.w	0[r28],ep
000003b6 408e0000*       795 	movhi	hi(_CanSM_ControllerState_en),zero,r17
000003ba 118f0000*       796 	ld.b	lo(_CanSM_ControllerState_en)[r17],r17
000003be ddf1            797 	add	r29,ep
000003c0 6030            798 	sld.bu	0[ep],r6
000003c2 638a            799 	cmp	3,r17
000003c4 d20d*           800 	be	.L5161
                         801 --line389
                         802 ..lin.C.3A.5C_ECU2.5CECU_Rivian_A1.5CTarget.5Crepo_projects.5CpRealEcu.5CcR_LATEST.5Cmake.5Coutput.5Cobjects.5CCanSM_InternalStateTransition.75::
                         803 .LDWlin75:
000003c6 013a            804 	mov	1,r7
                         805 	jarl	_CanIf_SetControllerMode,lp
                         805 <EXPANSION BEGIN>
                         805 jarl22 _CanIf_SetControllerMode , lp 
000003c8 80ff0000*       805 <EXPANSION END>
000003cc 6152            806 	cmp	1,r10
000003ce 8a0d*           807 	bne	.L5161
                         808 --line391
                         809 ..lin.C.3A.5C_ECU2.5CECU_Rivian_A1.5CTarget.5Crepo_projects.5CpRealEcu.5CcR_LATEST.5Cmake.5Coutput.5Cobjects.5CCanSM_InternalStateTransition.76::
                         810 .LDWlin76:
000003d0 1af0            811 	mov	r26,ep
000003d2 6078            812 	sld.bu	0[ep],r15
000003d4 43070300        813 	st.b	zero,3[sp]
000003d8 417a            814 	add	1,r15
000003da 807b            815 	sst.b	r15,0[ep]
000003dc a50d*           816 	br	.L5165
                         817 .L5161:
                         818 --line399
                         819 ..lin.C.3A.5C_ECU2.5CECU_Rivian_A1.5CTarget.5Crepo_projects.5CpRealEcu.5CcR_LATEST.5Cmake.5Coutput.5Cobjects.5CCanSM_InternalStateTransition.77::
                         820 .LDWlin77:
000003de 014a            821 	mov	1,r9
000003e0 41ea            822 	add	1,r29
000003e2 434f0300        823 	st.b	r9,3[sp]
000003e6 9d00            824 	zxb	r29
                         825 .L5160:
000003e8 bc470d00        826 	ld.bu	13[r28],r8
000003ec e8e9            827 	cmp	r8,r29
000003ee a1e5*           828 	bl	.L5159
                         829 .L5165:
                         830 --line402
                         831 ..lin.C.3A.5C_ECU2.5CECU_Rivian_A1.5CTarget.5Crepo_projects.5CpRealEcu.5CcR_LATEST.5Cmake.5Coutput.5Cobjects.5CCanSM_InternalStateTransition.78::
                         832 .LDWlin78:
000003f0 bc8f0d00        833 	ld.bu	13[r28],r17
000003f4 1190            834 	mov	r17,r18

                                                                      Page 15
                                                              C:\Users\nhuliyap\AppData\Local\Temp\gh_000014o1.s
000003f6 e089            835 	cmp	zero,r17
000003f8 920d*           836 	be	.L5169
                         837 .L5284:
                         838 --line403
                         839 ..lin.C.3A.5C_ECU2.5CECU_Rivian_A1.5CTarget.5Crepo_projects.5CpRealEcu.5CcR_LATEST.5Cmake.5Coutput.5Cobjects.5CCanSM_InternalStateTransition.79::
                         840 .LDWlin79:
000003fa a3770300        841 	ld.bu	3[sp],r14
000003fe 6172            842 	cmp	1,r14
00000400 ba05*           843 	bne	.L5286
                         844 --line404
                         845 ..lin.C.3A.5C_ECU2.5CECU_Rivian_A1.5CTarget.5Crepo_projects.5CpRealEcu.5CcR_LATEST.5Cmake.5Coutput.5Cobjects.5CCanSM_InternalStateTransition.80::
                         846 .LDWlin80:
00000402 ced9            847 	add	r14,r27
00000404 9b00            848 	zxb	r27
                         849 .L5286:
00000406 f2060d00*       850 	loop	r18,.L5284
                         851 .L5169:
                         852 --line407
                         853 ..lin.C.3A.5C_ECU2.5CECU_Rivian_A1.5CTarget.5Crepo_projects.5CpRealEcu.5CcR_LATEST.5Cmake.5Coutput.5Cobjects.5CCanSM_InternalStateTransition.81::
                         854 .LDWlin81:
0000040a 300600000000*   855 	mov	_CanSM_PreNoCom_Substates_en,r16
00000410 f1d9            856 	cmp	r17,r27
00000412 aa1d*           857 	bne	.L5175
                         858 --line408
                         859 ..lin.C.3A.5C_ECU2.5CECU_Rivian_A1.5CTarget.5Crepo_projects.5CpRealEcu.5CcR_LATEST.5Cmake.5Coutput.5Cobjects.5CCanSM_InternalStateTransition.82::
                         860 .LDWlin82:
00000414 3e0600000000*   861 	mov	_CanSM_Ctrl_ModeInd_ab,ep
0000041a 6038            862 	sld.bu	0[ep],r7
0000041c 613a            863 	cmp	1,r7
0000041e 9a0d*           864 	bne	.L5177
                         865 --line420
                         866 ..lin.C.3A.5C_ECU2.5CECU_Rivian_A1.5CTarget.5Crepo_projects.5CpRealEcu.5CcR_LATEST.5Cmake.5Coutput.5Cobjects.5CCanSM_InternalStateTransition.83::
                         867 .LDWlin83:
00000420 0932            868 	mov	9,r6
00000422 8003            869 	sst.b	zero,0[ep]
00000424 50370000        870 	st.b	r6,0[r16]
00000428 5a070000        871 	st.b	zero,0[r26]
0000042c 4206ff30        872 	dispose	1,{r26,r27,r28,r29,r31},[lp]
                         873 .L5177:
                         874 --line435
                         875 ..lin.C.3A.5C_ECU2.5CECU_Rivian_A1.5CTarget.5Crepo_projects.5CpRealEcu.5CcR_LATEST.5Cmake.5Coutput.5Cobjects.5CCanSM_InternalStateTransition.84::
                         876 .LDWlin84:
00000430 079a            877 	mov	7,r19
00000432 3e0600000000*   878 	mov	_CanSM_TimerConfig_ast,ep
00000438 0292            879 	mov	2,r18
0000043a 509f0000        880 	st.b	r19,0[r16]
0000043e 8104            881 	sst.h	zero,2[ep]
00000440 8093            882 	sst.b	r18,0[ep]
00000442 4206ff30        883 	dispose	1,{r26,r27,r28,r29,r31},[lp]
                         884 .L5175:
                         885 --line441
                         886 ..lin.C.3A.5C_ECU2.5CECU_Rivian_A1.5CTarget.5Crepo_projects.5CpRealEcu.5CcR_LATEST.5Cmake.5Coutput.5Cobjects.5CCanSM_InternalStateTransition.85::
                         887 .LDWlin85:
00000446 1af0            888 	mov	r26,ep
00000448 408e0000*       889 	movhi	hi(_CanSM_ModeRepeatReq_Max_u8),zero,r17
0000044c 918f0100*       890 	ld.bu	lo(_CanSM_ModeRepeatReq_Max_u8)[r17],r17
00000450 6078            891 	sld.bu	0[ep],r15
00000452 f179            892 	cmp	r17,r15
00000454 d105*           893 	bl	.L5155
                         894 --line454
                         895 ..lin.C.3A.5C_ECU2.5CECU_Rivian_A1.5CTarget.5Crepo_projects.5CpRealEcu.5CcR_LATEST.5Cmake.5Coutput.5Cobjects.5CCanSM_InternalStateTransition.86::

                                                                      Page 16
                                                              C:\Users\nhuliyap\AppData\Local\Temp\gh_000014o1.s
                         896 .LDWlin86:
00000456 0172            897 	mov	1,r14
00000458 8003            898 	sst.b	zero,0[ep]
0000045a 50770000        899 	st.b	r14,0[r16]
                         900 .L5155:
                         901 --	    .ef
                         902 .LDW71:
0000045e 4206ff30        903 	dispose	1,{r26,r27,r28,r29,r31},[lp]
                         904 	.global	___ghs_eofn_CanSM_SleepCtrl
                         905 ___ghs_eofn_CanSM_SleepCtrl:
                         906 	.type	_CanSM_SleepCtrl,@function
                         907 	.size	_CanSM_SleepCtrl,.-_CanSM_SleepCtrl
                         908 	.align	2
                         909 --_CanSM_NetworkConf_ps	r28	local
                         910 --_CanSM_ControllerId_u8	r6	local
                         911 --_CanSM_Ctrl_index_u8	r29	local
                         912 --_CanSM_Ctrl_Status_u8	3[sp]	local
                         913 --_CanSM_Controller_Counter_u8	r27	local
                         914 
                         915 --_network	r6	param
                         916 
                         917 	.section ".bss","awb"
                         918 .L5919:
                         919 	.type	.L5919,@object
                         920 	.size	.L5919,0
                         921 	.data
                         922 	.text
                         923 	.align	2
                         924 	.align	2
                         925 ..gh.f.f.1.e.6:
                         926 	.type	..gh.f.f.1.e.6,@object
                         927 	.size	..gh.f.f.1.e.6,0
                         928 	.global	_CanSM_NO2FULL_COM
                         929 _CanSM_NO2FULL_COM:
00000462 8207e1ff        930 	prepare	{r20,r21,r22,r23,r24,r25,r26,r27,r28,r29,r31},1
                         931 --	    .bf
                         932 .LDW81:
00000466 3c0600000000*   933 	mov	_CanSM_Num_Unsuccessful_ModeReq_au8,r28
0000046c 40560000*       934 	movhi	hi(_CanSM_ModeRepeatReq_Max_u8),zero,r10
00000470 8a570100*       935 	ld.bu	lo(_CanSM_ModeRepeatReq_Max_u8)[r10],r10
00000474 9c4f0100        936 	ld.bu	0[r28],r9
                         937 --line856
                         938 ..lin.C.3A.5C_ECU2.5CECU_Rivian_A1.5CTarget.5Crepo_projects.5CpRealEcu.5CcR_LATEST.5Cmake.5Coutput.5Cobjects.5CCanSM_InternalStateTransition.87::
                         939 .LDWlin87:
00000478 3d0600000000*   940 	mov	_CanSM_PreFullCom_Substates_en,r29
0000047e 390600000000*   941 	mov	_CanSM_CurrNw_Mode_en,r25
00000484 ea49            942 	cmp	r10,r9
00000486 e907cd01*       943 	bnl	.L6096
0000048a 06b8            944 	mov	r6,r23
0000048c 9700            945 	zxb	r23
0000048e 380600000000*   946 	mov	_CanSM_Network_pcst,r24
00000494 f7d61400        947 	mulhi	20,r23,r26
00000498 38f70100        948 	ld.w	0[r24],ep
0000049c 1d970000        949 	ld.b	0[r29],r18
                         950 --line858
                         951 ..lin.C.3A.5C_ECU2.5CECU_Rivian_A1.5CTarget.5Crepo_projects.5CpRealEcu.5CcR_LATEST.5Cmake.5Coutput.5Cobjects.5CCanSM_InternalStateTransition.88::
                         952 .LDWlin88:
000004a0 3b0600000000*   953 	mov	_CanSM_TimerConfig_ast,r27
000004a6 330600000000*   954 	mov	_CanSM_ModeRepeatReq_Time_u16,r19
000004ac daf1            955 	add	r26,ep
000004ae 1eb0            956 	mov	ep,r22

                                                                      Page 17
                                                              C:\Users\nhuliyap\AppData\Local\Temp\gh_000014o1.s
000004b0 350600000000*   957 	mov	_CanSM_BusOff_Cntr_au8,r21
000004b6 340600000000*   958 	mov	_CanSM_currBOR_State_en,r20
000004bc 6292            959 	cmp	2,r18
000004be a245*           960 	be	.L6100
000004c0 6492            961 	cmp	4,r18
000004c2 826d*           962 	be	.L6108
000004c4 6692            963 	cmp	6,r18
000004c6 e2070901*       964 	be	.L6114
                         965 .L6125:
                         966 --line964
                         967 ..lin.C.3A.5C_ECU2.5CECU_Rivian_A1.5CTarget.5Crepo_projects.5CpRealEcu.5CcR_LATEST.5Cmake.5Coutput.5Cobjects.5CCanSM_InternalStateTransition.89::
                         968 .LDWlin89:
000004ca 6192            969 	cmp	1,r18
000004cc ca0d*           970 	bne	.L6129
                         971 .L6130:
                         972 --line965
                         973 ..lin.C.3A.5C_ECU2.5CECU_Rivian_A1.5CTarget.5Crepo_projects.5CpRealEcu.5CcR_LATEST.5Cmake.5Coutput.5Cobjects.5CCanSM_InternalStateTransition.90::
                         974 .LDWlin90:
000004ce 6c58            975 	sld.bu	12[ep],r11
000004d0 0b0601ff        976 	addi	-255,r11,zero
000004d4 8a0d*           977 	bne	.L6129
                         978 --line966
                         979 ..lin.C.3A.5C_ECU2.5CECU_Rivian_A1.5CTarget.5Crepo_projects.5CpRealEcu.5CcR_LATEST.5Cmake.5Coutput.5Cobjects.5CCanSM_InternalStateTransition.91::
                         980 .LDWlin91:
000004d6 405e0000*       981 	movhi	hi(_CanSM_Trcv_ModeInd_ab),zero,r11
000004da 4b970000*       982 	st.b	r18,lo(_CanSM_Trcv_ModeInd_ab)[r11]
                         983 --line967
                         984 ..lin.C.3A.5C_ECU2.5CECU_Rivian_A1.5CTarget.5Crepo_projects.5CpRealEcu.5CcR_LATEST.5Cmake.5Coutput.5Cobjects.5CCanSM_InternalStateTransition.92::
                         985 .LDWlin92:
000004de 0392            986 	mov	3,r18
000004e0 5d970000        987 	st.b	r18,0[r29]
                         988 .L6129:
000004e4 6392            989 	cmp	3,r18
000004e6 ea05*           990 	bne	.L6134
                         991 .L6135:
                         992 --line979
                         993 ..lin.C.3A.5C_ECU2.5CECU_Rivian_A1.5CTarget.5Crepo_projects.5CpRealEcu.5CcR_LATEST.5Cmake.5Coutput.5Cobjects.5CCanSM_InternalStateTransition.93::
                         994 .LDWlin93:
000004e8 1730            995 	mov	r23,r6
                         996 	jarl	_CanSM_StopCtrl,lp
                         996 <EXPANSION BEGIN>
                         996 jarl22 _CanSM_StopCtrl , lp 
000004ea bfff4cfb*       996 <EXPANSION END>
                         997 --line980
                         998 ..lin.C.3A.5C_ECU2.5CECU_Rivian_A1.5CTarget.5Crepo_projects.5CpRealEcu.5CcR_LATEST.5Cmake.5Coutput.5Cobjects.5CCanSM_InternalStateTransition.94::
                         999 .LDWlin94:
000004ee 1d970000       1000 	ld.b	0[r29],r18
                        1001 .L6134:
000004f2 6592           1002 	cmp	5,r18
000004f4 ea07af01*      1003 	bne	.L6094
                        1004 .L6137:
                        1005 --line983
                        1006 ..lin.C.3A.5C_ECU2.5CECU_Rivian_A1.5CTarget.5Crepo_projects.5CpRealEcu.5CcR_LATEST.5Cmake.5Coutput.5Cobjects.5CCanSM_InternalStateTransition.95::
                        1007 .LDWlin95:
000004f8 1730           1008 	mov	r23,r6
                        1009 	jarl	_CanSM_StartCtrl,lp
                        1009 <EXPANSION BEGIN>
                        1009 jarl22 _CanSM_StartCtrl , lp 
000004fa bfff06fd*      1009 <EXPANSION END>
                        1010 --line984
                        1011 ..lin.C.3A.5C_ECU2.5CECU_Rivian_A1.5CTarget.5Crepo_projects.5CpRealEcu.5CcR_LATEST.5Cmake.5Coutput.5Cobjects.5CCanSM_InternalStateTransition.96::

                                                                      Page 18
                                                              C:\Users\nhuliyap\AppData\Local\Temp\gh_000014o1.s
                        1012 .LDWlin96:
000004fe 1d970000       1013 	ld.b	0[r29],r18
00000502 e091           1014 	cmp	zero,r18
00000504 ea079f01*      1015 	bne	.L6094
                        1016 --line986
                        1017 ..lin.C.3A.5C_ECU2.5CECU_Rivian_A1.5CTarget.5Crepo_projects.5CpRealEcu.5CcR_LATEST.5Cmake.5Coutput.5Cobjects.5CCanSM_InternalStateTransition.97::
                        1018 .LDWlin97:
00000508 5c070000       1019 	st.b	zero,0[r28]
0000050c b6370f00       1020 	ld.bu	15[r22],r6
00000510 023a           1021 	mov	2,r7
                        1022 	jarl	_BswM_CanSM_CurrentState,lp
                        1022 <EXPANSION BEGIN>
                        1022 jarl22 _BswM_CanSM_CurrentState , lp 
00000512 80ff0000*      1022 <EXPANSION END>
                        1023 --line989
                        1024 ..lin.C.3A.5C_ECU2.5CECU_Rivian_A1.5CTarget.5Crepo_projects.5CpRealEcu.5CcR_LATEST.5Cmake.5Coutput.5Cobjects.5CCanSM_InternalStateTransition.98::
                        1025 .LDWlin98:
00000516 0282           1026 	mov	2,r16
00000518 1bf0           1027 	mov	r27,ep
0000051a 018a           1028 	mov	1,r17
0000051c 405e0000*      1029 	movhi	hi(_CanSM_BORMode_au8),zero,r11
                        1030 --line994
                        1031 ..lin.C.3A.5C_ECU2.5CECU_Rivian_A1.5CTarget.5Crepo_projects.5CpRealEcu.5CcR_LATEST.5Cmake.5Coutput.5Cobjects.5CCanSM_InternalStateTransition.99::
                        1032 .LDWlin99:
00000520 40660000*      1033 	movhi	hi(_CanSM_BusSMMode_au8),zero,r12
00000524 59870000       1034 	st.b	r16,0[r25]
                        1035 --line990
                        1036 ..lin.C.3A.5C_ECU2.5CECU_Rivian_A1.5CTarget.5Crepo_projects.5CpRealEcu.5CcR_LATEST.5Cmake.5Coutput.5Cobjects.5CCanSM_InternalStateTransition.100::
                        1037 .LDWlin100:
00000528 55070000       1038 	st.b	zero,0[r21]
0000052c 8104           1039 	sst.h	zero,2[ep]
0000052e 8083           1040 	sst.b	r16,0[ep]
00000530 54870000       1041 	st.b	r16,0[r20]
00000534 4b8f0000*      1042 	st.b	r17,lo(_CanSM_BORMode_au8)[r11]
00000538 4c870000*      1043 	st.b	r16,lo(_CanSM_BusSMMode_au8)[r12]
0000053c 00ea           1044 	mov	0,r29
0000053e 80074801*      1045 	br	.L6146
                        1046 .L6100:
                        1047 --line860
                        1048 ..lin.C.3A.5C_ECU2.5CECU_Rivian_A1.5CTarget.5Crepo_projects.5CpRealEcu.5CcR_LATEST.5Cmake.5Coutput.5Cobjects.5CCanSM_InternalStateTransition.101::
                        1049 .LDWlin101:
00000542 2f0600000000*  1050 	mov	_CanSM_Trcv_ModeInd_ab,r15
00000548 8f470100       1051 	ld.bu	0[r15],r8
0000054c 6142           1052 	cmp	1,r8
0000054e da15*          1053 	bne	.L6101
                        1054 --line861
                        1055 ..lin.C.3A.5C_ECU2.5CECU_Rivian_A1.5CTarget.5Crepo_projects.5CpRealEcu.5CcR_LATEST.5Cmake.5Coutput.5Cobjects.5CCanSM_InternalStateTransition.102::
                        1056 .LDWlin102:
00000550 40f60000*      1057 	movhi	hi(_CfgSwcServiceCanSM_castConfigSet_pcst),zero,ep
00000554 3ef70100*      1058 	ld.w	lo(_CfgSwcServiceCanSM_castConfigSet_pcst)[ep],ep
00000558 00f5           1059 	sld.w	0[ep],ep
0000055a daf1           1060 	add	r26,ep
0000055c 6c70           1061 	sld.bu	12[ep],r14
0000055e 0e0601ff       1062 	addi	-255,r14,zero
00000562 b205*          1063 	be	.L6103
                        1064 --line862
                        1065 ..lin.C.3A.5C_ECU2.5CECU_Rivian_A1.5CTarget.5Crepo_projects.5CpRealEcu.5CcR_LATEST.5Cmake.5Coutput.5Cobjects.5CCanSM_InternalStateTransition.103::
                        1066 .LDWlin103:
00000564 4f070000       1067 	st.b	zero,0[r15]
                        1068 .L6103:
00000568 036a           1069 	mov	3,r13

                                                                      Page 19
                                                              C:\Users\nhuliyap\AppData\Local\Temp\gh_000014o1.s
0000056a 5b6f0000       1070 	st.b	r13,0[r27]
0000056e 5d6f0000       1071 	st.b	r13,0[r29]
00000572 5c070000       1072 	st.b	zero,0[r28]
00000576 95bd*          1073 	br	.L6135
                        1074 .L6101:
                        1075 --line870
                        1076 ..lin.C.3A.5C_ECU2.5CECU_Rivian_A1.5CTarget.5Crepo_projects.5CpRealEcu.5CcR_LATEST.5Cmake.5Coutput.5Cobjects.5CCanSM_InternalStateTransition.104::
                        1077 .LDWlin104:
00000578 f33f0100       1078 	ld.hu	0[r19],r7
0000057c fb370300       1079 	ld.hu	2[r27],r6
00000580 e731           1080 	cmp	r7,r6
00000582 c1a5*          1081 	bl	.L6125
                        1082 --line871
                        1083 ..lin.C.3A.5C_ECU2.5CECU_Rivian_A1.5CTarget.5Crepo_projects.5CpRealEcu.5CcR_LATEST.5Cmake.5Coutput.5Cobjects.5CCanSM_InternalStateTransition.105::
                        1084 .LDWlin105:
00000584 039a           1085 	mov	3,r19
00000586 0192           1086 	mov	1,r18
00000588 5b9f0000       1087 	st.b	r19,0[r27]
0000058c 5d970000       1088 	st.b	r18,0[r29]
00000590 f59d*          1089 	br	.L6130
                        1090 .L6108:
                        1091 --line880
                        1092 ..lin.C.3A.5C_ECU2.5CECU_Rivian_A1.5CTarget.5Crepo_projects.5CpRealEcu.5CcR_LATEST.5Cmake.5Coutput.5Cobjects.5CCanSM_InternalStateTransition.106::
                        1093 .LDWlin106:
00000592 310600000000*  1094 	mov	_CanSM_Ctrl_ModeInd_ab,r17
00000598 91870100       1095 	ld.bu	0[r17],r16
0000059c 6182           1096 	cmp	1,r16
0000059e ca0d*          1097 	bne	.L6109
                        1098 --line881
                        1099 ..lin.C.3A.5C_ECU2.5CECU_Rivian_A1.5CTarget.5Crepo_projects.5CpRealEcu.5CcR_LATEST.5Cmake.5Coutput.5Cobjects.5CCanSM_InternalStateTransition.107::
                        1100 .LDWlin107:
000005a0 037a           1101 	mov	3,r15
000005a2 0572           1102 	mov	5,r14
000005a4 5b7f0000       1103 	st.b	r15,0[r27]
000005a8 51070000       1104 	st.b	zero,0[r17]
000005ac 5d770000       1105 	st.b	r14,0[r29]
000005b0 5c070000       1106 	st.b	zero,0[r28]
000005b4 a5a5*          1107 	br	.L6137
                        1108 .L6109:
                        1109 --line888
                        1110 ..lin.C.3A.5C_ECU2.5CECU_Rivian_A1.5CTarget.5Crepo_projects.5CpRealEcu.5CcR_LATEST.5Cmake.5Coutput.5Cobjects.5CCanSM_InternalStateTransition.108::
                        1111 .LDWlin108:
000005b6 f36f0100       1112 	ld.hu	0[r19],r13
000005ba fb670300       1113 	ld.hu	2[r27],r12
000005be ed61           1114 	cmp	r13,r12
000005c0 d185*          1115 	bl	.L6125
                        1116 --line889
                        1117 ..lin.C.3A.5C_ECU2.5CECU_Rivian_A1.5CTarget.5Crepo_projects.5CpRealEcu.5CcR_LATEST.5Cmake.5Coutput.5Cobjects.5CCanSM_InternalStateTransition.109::
                        1118 .LDWlin109:
000005c2 0362           1119 	mov	3,r12
000005c4 5b670000       1120 	st.b	r12,0[r27]
000005c8 5d670000       1121 	st.b	r12,0[r29]
000005cc e58d*          1122 	br	.L6135
                        1123 .L6114:
                        1124 --line898
                        1125 ..lin.C.3A.5C_ECU2.5CECU_Rivian_A1.5CTarget.5Crepo_projects.5CpRealEcu.5CcR_LATEST.5Cmake.5Coutput.5Cobjects.5CCanSM_InternalStateTransition.110::
                        1126 .LDWlin110:
000005ce 310600000000*  1127 	mov	_CanSM_Ctrl_ModeInd_ab,r17
000005d4 915f0100       1128 	ld.bu	0[r17],r11
000005d8 615a           1129 	cmp	1,r11
000005da da2d*          1130 	bne	.L6115

                                                                      Page 20
                                                              C:\Users\nhuliyap\AppData\Local\Temp\gh_000014o1.s
                        1131 --line899
                        1132 ..lin.C.3A.5C_ECU2.5CECU_Rivian_A1.5CTarget.5Crepo_projects.5CpRealEcu.5CcR_LATEST.5Cmake.5Coutput.5Cobjects.5CCanSM_InternalStateTransition.111::
                        1133 .LDWlin111:
000005dc 51070000       1134 	st.b	zero,0[r17]
000005e0 5d070000       1135 	st.b	zero,0[r29]
000005e4 5c070000       1136 	st.b	zero,0[r28]
000005e8 6f30           1137 	sld.bu	15[ep],r6
000005ea 023a           1138 	mov	2,r7
                        1139 	jarl	_BswM_CanSM_CurrentState,lp
                        1139 <EXPANSION BEGIN>
                        1139 jarl22 _BswM_CanSM_CurrentState , lp 
000005ec 80ff0000*      1139 <EXPANSION END>
                        1140 --line905
                        1141 ..lin.C.3A.5C_ECU2.5CECU_Rivian_A1.5CTarget.5Crepo_projects.5CpRealEcu.5CcR_LATEST.5Cmake.5Coutput.5Cobjects.5CCanSM_InternalStateTransition.112::
                        1142 .LDWlin112:
000005f0 0282           1143 	mov	2,r16
000005f2 0152           1144 	mov	1,r10
000005f4 405e0000*      1145 	movhi	hi(_CanSM_BORMode_au8),zero,r11
                        1146 --line910
                        1147 ..lin.C.3A.5C_ECU2.5CECU_Rivian_A1.5CTarget.5Crepo_projects.5CpRealEcu.5CcR_LATEST.5Cmake.5Coutput.5Cobjects.5CCanSM_InternalStateTransition.113::
                        1148 .LDWlin113:
000005f8 40660000*      1149 	movhi	hi(_CanSM_BusSMMode_au8),zero,r12
000005fc 59870000       1150 	st.b	r16,0[r25]
                        1151 --line906
                        1152 ..lin.C.3A.5C_ECU2.5CECU_Rivian_A1.5CTarget.5Crepo_projects.5CpRealEcu.5CcR_LATEST.5Cmake.5Coutput.5Cobjects.5CCanSM_InternalStateTransition.114::
                        1153 .LDWlin114:
00000600 5c070000       1154 	st.b	zero,0[r28]
00000604 55070000       1155 	st.b	zero,0[r21]
00000608 54870000       1156 	st.b	r16,0[r20]
0000060c 4b570000*      1157 	st.b	r10,lo(_CanSM_BORMode_au8)[r11]
00000610 4c870000*      1158 	st.b	r16,lo(_CanSM_BusSMMode_au8)[r12]
00000614 00ea           1159 	mov	0,r29
                        1160 .L6120:
00000616 38f70100       1161 	ld.w	0[r24],ep
0000061a daf1           1162 	add	r26,ep
0000061c 6d40           1163 	sld.bu	13[ep],r8
0000061e e8e9           1164 	cmp	r8,r29
00000620 993d*          1165 	bnl	.L6143
                        1166 --line912
                        1167 ..lin.C.3A.5C_ECU2.5CECU_Rivian_A1.5CTarget.5Crepo_projects.5CpRealEcu.5CcR_LATEST.5Cmake.5Coutput.5Cobjects.5CCanSM_InternalStateTransition.115::
                        1168 .LDWlin115:
00000622 00f5           1169 	sld.w	0[ep],ep
00000624 033a           1170 	mov	3,r7
00000626 ddf1           1171 	add	r29,ep
00000628 6030           1172 	sld.bu	0[ep],r6
                        1173 	jarl	_CanIf_SetPduMode,lp
                        1173 <EXPANSION BEGIN>
                        1173 jarl22 _CanIf_SetPduMode , lp 
0000062a 80ff0000*      1173 <EXPANSION END>
                        1174 --line911
                        1175 ..lin.C.3A.5C_ECU2.5CECU_Rivian_A1.5CTarget.5Crepo_projects.5CpRealEcu.5CcR_LATEST.5Cmake.5Coutput.5Cobjects.5CCanSM_InternalStateTransition.116::
                        1176 .LDWlin116:
0000062e 41ea           1177 	add	1,r29
00000630 9d00           1178 	zxb	r29
00000632 a5f5*          1179 	br	.L6120
                        1180 .L6115:
                        1181 --line928
                        1182 ..lin.C.3A.5C_ECU2.5CECU_Rivian_A1.5CTarget.5Crepo_projects.5CpRealEcu.5CcR_LATEST.5Cmake.5Coutput.5Cobjects.5CCanSM_InternalStateTransition.117::
                        1183 .LDWlin117:
00000634 f33f0100       1184 	ld.hu	0[r19],r7
00000638 fb370300       1185 	ld.hu	2[r27],r6

                                                                      Page 21
                                                              C:\Users\nhuliyap\AppData\Local\Temp\gh_000014o1.s
0000063c e731           1186 	cmp	r7,r6
0000063e f1078dfe*      1187 	bl	.L6125
                        1188 --line929
                        1189 ..lin.C.3A.5C_ECU2.5CECU_Rivian_A1.5CTarget.5Crepo_projects.5CpRealEcu.5CcR_LATEST.5Cmake.5Coutput.5Cobjects.5CCanSM_InternalStateTransition.118::
                        1190 .LDWlin118:
00000642 039a           1191 	mov	3,r19
00000644 0592           1192 	mov	5,r18
00000646 5b9f0000       1193 	st.b	r19,0[r27]
0000064a 5d970000       1194 	st.b	r18,0[r29]
0000064e bf07aafe*      1195 	br	.L6137
                        1196 .L6096:
                        1197 --line946
                        1198 ..lin.C.3A.5C_ECU2.5CECU_Rivian_A1.5CTarget.5Crepo_projects.5CpRealEcu.5CcR_LATEST.5Cmake.5Coutput.5Cobjects.5CCanSM_InternalStateTransition.119::
                        1199 .LDWlin119:
00000652 405e0000*      1200 	movhi	hi(_CanSM_ReqComM_Mode_en),zero,r11
00000656 4b070000*      1201 	st.b	zero,lo(_CanSM_ReqComM_Mode_en)[r11]
                        1202 --line945
                        1203 ..lin.C.3A.5C_ECU2.5CECU_Rivian_A1.5CTarget.5Crepo_projects.5CpRealEcu.5CcR_LATEST.5Cmake.5Coutput.5Cobjects.5CCanSM_InternalStateTransition.120::
                        1204 .LDWlin120:
0000065a 048a           1205 	mov	4,r17
0000065c 0182           1206 	mov	1,r16
0000065e 405e0000*      1207 	movhi	hi(_CanSM_PreNoCom_Substates_en),zero,r11
                        1208 --line942
                        1209 ..lin.C.3A.5C_ECU2.5CECU_Rivian_A1.5CTarget.5Crepo_projects.5CpRealEcu.5CcR_LATEST.5Cmake.5Coutput.5Cobjects.5CCanSM_InternalStateTransition.121::
                        1210 .LDWlin121:
00000662 5d070000       1211 	st.b	zero,0[r29]
00000666 5c070000       1212 	st.b	zero,0[r28]
0000066a 598f0000       1213 	st.b	r17,0[r25]
0000066e 4b870000*      1214 	st.b	r16,lo(_CanSM_PreNoCom_Substates_en)[r11]
00000672 4206ffff       1215 	dispose	1,{r20,r21,r22,r23,r24,r25,r26,r27,r28,r29,r31},[lp]
                        1216 .L6145:
                        1217 --line996
                        1218 ..lin.C.3A.5C_ECU2.5CECU_Rivian_A1.5CTarget.5Crepo_projects.5CpRealEcu.5CcR_LATEST.5Cmake.5Coutput.5Cobjects.5CCanSM_InternalStateTransition.122::
                        1219 .LDWlin122:
00000676 00f5           1220 	sld.w	0[ep],ep
00000678 033a           1221 	mov	3,r7
0000067a ddf1           1222 	add	r29,ep
0000067c 6030           1223 	sld.bu	0[ep],r6
                        1224 	jarl	_CanIf_SetPduMode,lp
                        1224 <EXPANSION BEGIN>
                        1224 jarl22 _CanIf_SetPduMode , lp 
0000067e 80ff0000*      1224 <EXPANSION END>
                        1225 --line995
                        1226 ..lin.C.3A.5C_ECU2.5CECU_Rivian_A1.5CTarget.5Crepo_projects.5CpRealEcu.5CcR_LATEST.5Cmake.5Coutput.5Cobjects.5CCanSM_InternalStateTransition.123::
                        1227 .LDWlin123:
00000682 41ea           1228 	add	1,r29
00000684 9d00           1229 	zxb	r29
                        1230 .L6146:
00000686 38f70100       1231 	ld.w	0[r24],ep
0000068a daf1           1232 	add	r26,ep
0000068c 6d78           1233 	sld.bu	13[ep],r15
0000068e efe9           1234 	cmp	r15,r29
00000690 b1f5*          1235 	bl	.L6145
                        1236 .L6143:
                        1237 --line1009
                        1238 ..lin.C.3A.5C_ECU2.5CECU_Rivian_A1.5CTarget.5Crepo_projects.5CpRealEcu.5CcR_LATEST.5Cmake.5Coutput.5Cobjects.5CCanSM_InternalStateTransition.124::
                        1239 .LDWlin124:
00000692 6f30           1240 	sld.bu	15[ep],r6
00000694 0272           1241 	mov	2,r14
00000696 43770300       1242 	st.b	r14,3[sp]
0000069a 233e0300       1243 	movea	3,sp,r7

                                                                      Page 22
                                                              C:\Users\nhuliyap\AppData\Local\Temp\gh_000014o1.s
                        1244 	jarl	_ComM_BusSM_ModeIndication,lp
                        1244 <EXPANSION BEGIN>
                        1244 jarl22 _ComM_BusSM_ModeIndication , lp 
0000069e 80ff0000*      1244 <EXPANSION END>
                        1245 .L6094:
                        1246 --	    .ef
                        1247 .LDW91:
                        1248 --line1012
                        1249 ..lin.C.3A.5C_ECU2.5CECU_Rivian_A1.5CTarget.5Crepo_projects.5CpRealEcu.5CcR_LATEST.5Cmake.5Coutput.5Cobjects.5CCanSM_InternalStateTransition.125::
                        1250 .LDWlin125:
000006a2 4206ffff       1251 	dispose	1,{r20,r21,r22,r23,r24,r25,r26,r27,r28,r29,r31},[lp]
                        1252 	.global	___ghs_eofn_CanSM_NO2FULL_COM
                        1253 ___ghs_eofn_CanSM_NO2FULL_COM:
                        1254 	.type	_CanSM_NO2FULL_COM,@function
                        1255 	.size	_CanSM_NO2FULL_COM,.-_CanSM_NO2FULL_COM
                        1256 	.align	2
                        1257 --_CanSM_PreFullCom_Substates	r18	local
                        1258 --_NetworkConf_ps	r22	local
                        1259 --_CanSM_Ctrl_index_u8	r29	local
                        1260 --_CanSM_ControllerId_u8	r6	local
                        1261 --_CanSM_reqComM_Mode_uo	3[sp]	local
                        1262 
                        1263 --_network	r23	param
                        1264 
                        1265 	.section ".bss","awb"
                        1266 .L7019:
                        1267 	.type	.L7019,@object
                        1268 	.size	.L7019,0
                        1269 	.data
                        1270 	.text
                        1271 	.align	2
                        1272 	.align	2
                        1273 ..gh.f.f.1.e.7:
                        1274 	.type	..gh.f.f.1.e.7,@object
                        1275 	.size	..gh.f.f.1.e.7,0
                        1276 	.global	_CanSM_FULL2SILENT_COM
                        1277 _CanSM_FULL2SILENT_COM:
000006a6 8207e110       1278 	prepare	{r27,r28,r29,r31},1
000006aa 8600           1279 	zxb	r6
                        1280 --	    .bf
                        1281 .LDW02:
000006ac 3b0600000000*  1282 	mov	_CanSM_Network_pcst,r27
000006b2 e6e61400       1283 	mulhi	20,r6,r28
000006b6 3bf70100       1284 	ld.w	0[r27],ep
                        1285 --line1021
                        1286 ..lin.C.3A.5C_ECU2.5CECU_Rivian_A1.5CTarget.5Crepo_projects.5CpRealEcu.5CcR_LATEST.5Cmake.5Coutput.5Cobjects.5CCanSM_InternalStateTransition.126::
                        1287 .LDWlin126:
000006ba 029a           1288 	mov	2,r19
000006bc 405e0000*      1289 	movhi	hi(_CanSM_BORMode_au8),zero,r11
                        1290 --line1022
                        1291 ..lin.C.3A.5C_ECU2.5CECU_Rivian_A1.5CTarget.5Crepo_projects.5CpRealEcu.5CcR_LATEST.5Cmake.5Coutput.5Cobjects.5CCanSM_InternalStateTransition.127::
                        1292 .LDWlin127:
000006c0 013a           1293 	mov	1,r7
000006c2 40660000*      1294 	movhi	hi(_CanSM_currBOR_State_en),zero,r12
                        1295 --line1023
                        1296 ..lin.C.3A.5C_ECU2.5CECU_Rivian_A1.5CTarget.5Crepo_projects.5CpRealEcu.5CcR_LATEST.5Cmake.5Coutput.5Cobjects.5CCanSM_InternalStateTransition.128::
                        1297 .LDWlin128:
000006c6 406e0000*      1298 	movhi	hi(_CanSM_Num_Unsuccessful_ModeReq_au8),zero,r13
                        1299 --line1024
                        1300 ..lin.C.3A.5C_ECU2.5CECU_Rivian_A1.5CTarget.5Crepo_projects.5CpRealEcu.5CcR_LATEST.5Cmake.5Coutput.5Cobjects.5CCanSM_InternalStateTransition.129::
                        1301 .LDWlin129:

                                                                      Page 23
                                                              C:\Users\nhuliyap\AppData\Local\Temp\gh_000014o1.s
000006ca 40760000*      1302 	movhi	hi(_CanSM_CurrNw_Mode_en),zero,r14
                        1303 --line1025
                        1304 ..lin.C.3A.5C_ECU2.5CECU_Rivian_A1.5CTarget.5Crepo_projects.5CpRealEcu.5CcR_LATEST.5Cmake.5Coutput.5Cobjects.5CCanSM_InternalStateTransition.130::
                        1305 .LDWlin130:
000006ce 407e0000*      1306 	movhi	hi(_CanSM_BusSMMode_au8),zero,r15
000006d2 dcf1           1307 	add	r28,ep
000006d4 4b9f0000*      1308 	st.b	r19,lo(_CanSM_BORMode_au8)[r11]
000006d8 4c3f0000*      1309 	st.b	r7,lo(_CanSM_currBOR_State_en)[r12]
000006dc 4d070000*      1310 	st.b	zero,lo(_CanSM_Num_Unsuccessful_ModeReq_au8)[r13]
000006e0 4e3f0000*      1311 	st.b	r7,lo(_CanSM_CurrNw_Mode_en)[r14]
000006e4 4f3f0000*      1312 	st.b	r7,lo(_CanSM_BusSMMode_au8)[r15]
                        1313 --line1027
                        1314 ..lin.C.3A.5C_ECU2.5CECU_Rivian_A1.5CTarget.5Crepo_projects.5CpRealEcu.5CcR_LATEST.5Cmake.5Coutput.5Cobjects.5CCanSM_InternalStateTransition.131::
                        1315 .LDWlin131:
000006e8 6f30           1316 	sld.bu	15[ep],r6
                        1317 	jarl	_BswM_CanSM_CurrentState,lp
                        1317 <EXPANSION BEGIN>
                        1317 jarl22 _BswM_CanSM_CurrentState , lp 
000006ea 80ff0000*      1317 <EXPANSION END>
                        1318 --line1028
                        1319 ..lin.C.3A.5C_ECU2.5CECU_Rivian_A1.5CTarget.5Crepo_projects.5CpRealEcu.5CcR_LATEST.5Cmake.5Coutput.5Cobjects.5CCanSM_InternalStateTransition.132::
                        1320 .LDWlin132:
000006ee 00ea           1321 	mov	0,r29
000006f0 950d*          1322 	br	.L7349
                        1323 .L7348:
                        1324 --line1030
                        1325 ..lin.C.3A.5C_ECU2.5CECU_Rivian_A1.5CTarget.5Crepo_projects.5CpRealEcu.5CcR_LATEST.5Cmake.5Coutput.5Cobjects.5CCanSM_InternalStateTransition.133::
                        1326 .LDWlin133:
000006f2 00f5           1327 	sld.w	0[ep],ep
000006f4 1038           1328 	mov	r16,r7
000006f6 ddf1           1329 	add	r29,ep
000006f8 6030           1330 	sld.bu	0[ep],r6
                        1331 	jarl	_CanIf_SetPduMode,lp
                        1331 <EXPANSION BEGIN>
                        1331 jarl22 _CanIf_SetPduMode , lp 
000006fa 80ff0000*      1331 <EXPANSION END>
                        1332 --line1028
                        1333 ..lin.C.3A.5C_ECU2.5CECU_Rivian_A1.5CTarget.5Crepo_projects.5CpRealEcu.5CcR_LATEST.5Cmake.5Coutput.5Cobjects.5CCanSM_InternalStateTransition.134::
                        1334 .LDWlin134:
000006fe 41ea           1335 	add	1,r29
00000700 9d00           1336 	zxb	r29
                        1337 .L7349:
00000702 3bf70100       1338 	ld.w	0[r27],ep
00000706 0182           1339 	mov	1,r16
00000708 dcf1           1340 	add	r28,ep
0000070a 6d88           1341 	sld.bu	13[ep],r17
0000070c f1e9           1342 	cmp	r17,r29
0000070e a1f5*          1343 	bl	.L7348
                        1344 --line1033
                        1345 ..lin.C.3A.5C_ECU2.5CECU_Rivian_A1.5CTarget.5Crepo_projects.5CpRealEcu.5CcR_LATEST.5Cmake.5Coutput.5Cobjects.5CCanSM_InternalStateTransition.135::
                        1346 .LDWlin135:
00000710 6f30           1347 	sld.bu	15[ep],r6
00000712 43870300       1348 	st.b	r16,3[sp]
00000716 233e0300       1349 	movea	3,sp,r7
                        1350 	jarl	_ComM_BusSM_ModeIndication,lp
                        1350 <EXPANSION BEGIN>
                        1350 jarl22 _ComM_BusSM_ModeIndication , lp 
0000071a 80ff0000*      1350 <EXPANSION END>
                        1351 --	    .ef
                        1352 .LDW12:
                        1353 --line1034

                                                                      Page 24
                                                              C:\Users\nhuliyap\AppData\Local\Temp\gh_000014o1.s
                        1354 ..lin.C.3A.5C_ECU2.5CECU_Rivian_A1.5CTarget.5Crepo_projects.5CpRealEcu.5CcR_LATEST.5Cmake.5Coutput.5Cobjects.5CCanSM_InternalStateTransition.136::
                        1355 .LDWlin136:
0000071e 4206ff10       1356 	dispose	1,{r27,r28,r29,r31},[lp]
                        1357 	.global	___ghs_eofn_CanSM_FULL2SILENT_COM
                        1358 ___ghs_eofn_CanSM_FULL2SILENT_COM:
                        1359 	.type	_CanSM_FULL2SILENT_COM,@function
                        1360 	.size	_CanSM_FULL2SILENT_COM,.-_CanSM_FULL2SILENT_COM
                        1361 	.align	2
                        1362 --_NetworkConf_ps	ep	local
                        1363 --_CanSM_Ctrl_index_u8	r29	local
                        1364 --_CanSM_reqComM_Mode_uo	3[sp]	local
                        1365 
                        1366 --_network	r6	param
                        1367 
                        1368 	.section ".bss","awb"
                        1369 .L7392:
                        1370 	.type	.L7392,@object
                        1371 	.size	.L7392,0
                        1372 	.data
                        1373 	.text
                        1374 	.align	2
                        1375 	.align	2
                        1376 ..gh.f.f.1.e.8:
                        1377 	.type	..gh.f.f.1.e.8,@object
                        1378 	.size	..gh.f.f.1.e.8,0
                        1379 	.global	_CanSM_SILENT2FULL_COM
                        1380 _CanSM_SILENT2FULL_COM:
00000722 8207e130       1381 	prepare	{r26,r27,r28,r29,r31},1
00000726 8600           1382 	zxb	r6
                        1383 --	    .bf
                        1384 .LDW22:
00000728 3a0600000000*  1385 	mov	_CanSM_Network_pcst,r26
0000072e e6de1400       1386 	mulhi	20,r6,r27
00000732 3ae70100       1387 	ld.w	0[r26],r28
                        1388 --line1043
                        1389 ..lin.C.3A.5C_ECU2.5CECU_Rivian_A1.5CTarget.5Crepo_projects.5CpRealEcu.5CcR_LATEST.5Cmake.5Coutput.5Cobjects.5CCanSM_InternalStateTransition.137::
                        1390 .LDWlin137:
00000736 00ea           1391 	mov	0,r29
00000738 dbe1           1392 	add	r27,r28
0000073a 950d*          1393 	br	.L7442
                        1394 .L7441:
                        1395 --line1054
                        1396 ..lin.C.3A.5C_ECU2.5CECU_Rivian_A1.5CTarget.5Crepo_projects.5CpRealEcu.5CcR_LATEST.5Cmake.5Coutput.5Cobjects.5CCanSM_InternalStateTransition.138::
                        1397 .LDWlin138:
0000073c 00f5           1398 	sld.w	0[ep],ep
0000073e 033a           1399 	mov	3,r7
00000740 ddf1           1400 	add	r29,ep
00000742 6030           1401 	sld.bu	0[ep],r6
                        1402 	jarl	_CanIf_SetPduMode,lp
                        1402 <EXPANSION BEGIN>
                        1402 jarl22 _CanIf_SetPduMode , lp 
00000744 80ff0000*      1402 <EXPANSION END>
                        1403 --line1043
                        1404 ..lin.C.3A.5C_ECU2.5CECU_Rivian_A1.5CTarget.5Crepo_projects.5CpRealEcu.5CcR_LATEST.5Cmake.5Coutput.5Cobjects.5CCanSM_InternalStateTransition.139::
                        1405 .LDWlin139:
00000748 41ea           1406 	add	1,r29
0000074a 9d00           1407 	zxb	r29
                        1408 .L7442:
0000074c 3af70100       1409 	ld.w	0[r26],ep
00000750 dbf1           1410 	add	r27,ep
00000752 6d90           1411 	sld.bu	13[ep],r18

                                                                      Page 25
                                                              C:\Users\nhuliyap\AppData\Local\Temp\gh_000014o1.s
00000754 f2e9           1412 	cmp	r18,r29
00000756 b1f5*          1413 	bl	.L7441
                        1414 --line1058
                        1415 ..lin.C.3A.5C_ECU2.5CECU_Rivian_A1.5CTarget.5Crepo_projects.5CpRealEcu.5CcR_LATEST.5Cmake.5Coutput.5Cobjects.5CCanSM_InternalStateTransition.140::
                        1416 .LDWlin140:
00000758 0292           1417 	mov	2,r18
0000075a 310600000000*  1418 	mov	_CanSM_TimerConfig_ast,r17
00000760 71070200       1419 	st.h	zero,2[r17]
00000764 51970000       1420 	st.b	r18,0[r17]
00000768 405e0000*      1421 	movhi	hi(_CanSM_CurrNw_Mode_en),zero,r11
                        1422 --line1059
                        1423 ..lin.C.3A.5C_ECU2.5CECU_Rivian_A1.5CTarget.5Crepo_projects.5CpRealEcu.5CcR_LATEST.5Cmake.5Coutput.5Cobjects.5CCanSM_InternalStateTransition.141::
                        1424 .LDWlin141:
0000076c 40660000*      1425 	movhi	hi(_CanSM_BusOff_Cntr_au8),zero,r12
                        1426 --line1061
                        1427 ..lin.C.3A.5C_ECU2.5CECU_Rivian_A1.5CTarget.5Crepo_projects.5CpRealEcu.5CcR_LATEST.5Cmake.5Coutput.5Cobjects.5CCanSM_InternalStateTransition.142::
                        1428 .LDWlin142:
00000770 406e0000*      1429 	movhi	hi(_CanSM_currBOR_State_en),zero,r13
                        1430 --line1062
                        1431 ..lin.C.3A.5C_ECU2.5CECU_Rivian_A1.5CTarget.5Crepo_projects.5CpRealEcu.5CcR_LATEST.5Cmake.5Coutput.5Cobjects.5CCanSM_InternalStateTransition.143::
                        1432 .LDWlin143:
00000774 018a           1433 	mov	1,r17
00000776 40760000*      1434 	movhi	hi(_CanSM_BORMode_au8),zero,r14
                        1435 --line1063
                        1436 ..lin.C.3A.5C_ECU2.5CECU_Rivian_A1.5CTarget.5Crepo_projects.5CpRealEcu.5CcR_LATEST.5Cmake.5Coutput.5Cobjects.5CCanSM_InternalStateTransition.144::
                        1437 .LDWlin144:
0000077a 407e0000*      1438 	movhi	hi(_CanSM_BusSMMode_au8),zero,r15
0000077e 4b970000*      1439 	st.b	r18,lo(_CanSM_CurrNw_Mode_en)[r11]
00000782 4c070000*      1440 	st.b	zero,lo(_CanSM_BusOff_Cntr_au8)[r12]
00000786 4d970000*      1441 	st.b	r18,lo(_CanSM_currBOR_State_en)[r13]
0000078a 4e8f0000*      1442 	st.b	r17,lo(_CanSM_BORMode_au8)[r14]
0000078e 4f970000*      1443 	st.b	r18,lo(_CanSM_BusSMMode_au8)[r15]
                        1444 --line1065
                        1445 ..lin.C.3A.5C_ECU2.5CECU_Rivian_A1.5CTarget.5Crepo_projects.5CpRealEcu.5CcR_LATEST.5Cmake.5Coutput.5Cobjects.5CCanSM_InternalStateTransition.145::
                        1446 .LDWlin145:
00000792 6f30           1447 	sld.bu	15[ep],r6
00000794 43970300       1448 	st.b	r18,3[sp]
00000798 233e0300       1449 	movea	3,sp,r7
                        1450 	jarl	_ComM_BusSM_ModeIndication,lp
                        1450 <EXPANSION BEGIN>
                        1450 jarl22 _ComM_BusSM_ModeIndication , lp 
0000079c 80ff0000*      1450 <EXPANSION END>
                        1451 --line1067
                        1452 ..lin.C.3A.5C_ECU2.5CECU_Rivian_A1.5CTarget.5Crepo_projects.5CpRealEcu.5CcR_LATEST.5Cmake.5Coutput.5Cobjects.5CCanSM_InternalStateTransition.146::
                        1453 .LDWlin146:
000007a0 bc370f00       1454 	ld.bu	15[r28],r6
000007a4 023a           1455 	mov	2,r7
                        1456 	jarl	_BswM_CanSM_CurrentState,lp
                        1456 <EXPANSION BEGIN>
                        1456 jarl22 _BswM_CanSM_CurrentState , lp 
000007a6 80ff0000*      1456 <EXPANSION END>
                        1457 --	    .ef
                        1458 .LDW32:
                        1459 --line1068
                        1460 ..lin.C.3A.5C_ECU2.5CECU_Rivian_A1.5CTarget.5Crepo_projects.5CpRealEcu.5CcR_LATEST.5Cmake.5Coutput.5Cobjects.5CCanSM_InternalStateTransition.147::
                        1461 .LDWlin147:
000007aa 4206ff30       1462 	dispose	1,{r26,r27,r28,r29,r31},[lp]
                        1463 	.global	___ghs_eofn_CanSM_SILENT2FULL_COM
                        1464 ___ghs_eofn_CanSM_SILENT2FULL_COM:
                        1465 	.type	_CanSM_SILENT2FULL_COM,@function
                        1466 	.size	_CanSM_SILENT2FULL_COM,.-_CanSM_SILENT2FULL_COM

                                                                      Page 26
                                                              C:\Users\nhuliyap\AppData\Local\Temp\gh_000014o1.s
                        1467 	.align	2
                        1468 --_NetworkConf_ps	r28	local
                        1469 --_CanSM_Ctrl_index_u8	r29	local
                        1470 --_CanSM_reqComM_Mode_uo	3[sp]	local
                        1471 
                        1472 --_network	r6	param
                        1473 
                        1474 	.section ".bss","awb"
                        1475 .L7488:
                        1476 	.type	.L7488,@object
                        1477 	.size	.L7488,0
                        1478 	.data
                        1479 	.text
                        1480 	.align	2
                        1481 	.align	2
                        1482 ..gh.f.f.1.e.9:
                        1483 	.type	..gh.f.f.1.e.9,@object
                        1484 	.size	..gh.f.f.1.e.9,0
                        1485 	.global	_CanSM_TxTimeoutException_StateMachine
                        1486 _CanSM_TxTimeoutException_StateMachine:
000007ae 8007fb300000*  1487 	prepare	{r26,r27,r28,r29,r31},0,_CanSM_Num_Unsuccessful_ModeReq_au8
000007b4 0000*
000007b6 06d8           1488 	mov	r6,r27
000007b8 9b00           1489 	zxb	r27
                        1490 --	    .bf
                        1491 .LDW42:
000007ba 406e0000*      1492 	movhi	hi(_CanSM_ModeRepeatReq_Max_u8),zero,r13
000007be 8d6f0100*      1493 	ld.bu	lo(_CanSM_ModeRepeatReq_Max_u8)[r13],r13
000007c2 6060           1494 	sld.bu	0[ep],r12
                        1495 --line1074
                        1496 ..lin.C.3A.5C_ECU2.5CECU_Rivian_A1.5CTarget.5Crepo_projects.5CpRealEcu.5CcR_LATEST.5Cmake.5Coutput.5Cobjects.5CCanSM_InternalStateTransition.148::
                        1497 .LDWlin148:
000007c4 3c0600000000*  1498 	mov	_CanSM_TxTimeoutexception_Substates_en,r28
000007ca 3a0600000000*  1499 	mov	_CanSM_Network_pcst,r26
000007d0 ed61           1500 	cmp	r13,r12
000007d2 a955*          1501 	bnl	.L7535
000007d4 1cef0000       1502 	ld.b	0[r28],r29
                        1503 --line1076
                        1504 ..lin.C.3A.5C_ECU2.5CECU_Rivian_A1.5CTarget.5Crepo_projects.5CpRealEcu.5CcR_LATEST.5Cmake.5Coutput.5Cobjects.5CCanSM_InternalStateTransition.149::
                        1505 .LDWlin149:
000007d8 310600000000*  1506 	mov	_CanSM_TimerConfig_ast,r17
000007de 330600000000*  1507 	mov	_CanSM_ModeRepeatReq_Time_u16,r19
000007e4 320600000000*  1508 	mov	_CanSM_Ctrl_ModeInd_ab,r18
000007ea 62ea           1509 	cmp	2,r29
000007ec e205*          1510 	be	.L7539
000007ee 64ea           1511 	cmp	4,r29
000007f0 a21d*          1512 	be	.L7545
                        1513 .L7556:
                        1514 --line1138
                        1515 ..lin.C.3A.5C_ECU2.5CECU_Rivian_A1.5CTarget.5Crepo_projects.5CpRealEcu.5CcR_LATEST.5Cmake.5Coutput.5Cobjects.5CCanSM_InternalStateTransition.150::
                        1516 .LDWlin150:
000007f2 61ea           1517 	cmp	1,r29
000007f4 aa4d*          1518 	bne	.L7557
000007f6 c545*          1519 	br	.L7558
                        1520 .L7539:
                        1521 --line1078
                        1522 ..lin.C.3A.5C_ECU2.5CECU_Rivian_A1.5CTarget.5Crepo_projects.5CpRealEcu.5CcR_LATEST.5Cmake.5Coutput.5Cobjects.5CCanSM_InternalStateTransition.151::
                        1523 .LDWlin151:
000007f8 925f0100       1524 	ld.bu	0[r18],r11
000007fc 615a           1525 	cmp	1,r11
000007fe aa0d*          1526 	bne	.L7540

                                                                      Page 27
                                                              C:\Users\nhuliyap\AppData\Local\Temp\gh_000014o1.s
                        1527 --line1079
                        1528 ..lin.C.3A.5C_ECU2.5CECU_Rivian_A1.5CTarget.5Crepo_projects.5CpRealEcu.5CcR_LATEST.5Cmake.5Coutput.5Cobjects.5CCanSM_InternalStateTransition.152::
                        1529 .LDWlin152:
00000800 037a           1530 	mov	3,r15
00000802 517f0000       1531 	st.b	r15,0[r17]
00000806 52070000       1532 	st.b	zero,0[r18]
0000080a 5c7f0000       1533 	st.b	r15,0[r28]
0000080e 8003           1534 	sst.b	zero,0[ep]
00000810 e53d*          1535 	br	.L7560
                        1536 .L7540:
                        1537 --line1086
                        1538 ..lin.C.3A.5C_ECU2.5CECU_Rivian_A1.5CTarget.5Crepo_projects.5CpRealEcu.5CcR_LATEST.5Cmake.5Coutput.5Cobjects.5CCanSM_InternalStateTransition.153::
                        1539 .LDWlin153:
00000812 11f0           1540 	mov	r17,ep
00000814 f3570100       1541 	ld.hu	0[r19],r10
00000818 7148           1542 	sld.hu	2[ep],r9
0000081a ea49           1543 	cmp	r10,r9
0000081c b1ed*          1544 	bl	.L7556
                        1545 --line1087
                        1546 ..lin.C.3A.5C_ECU2.5CECU_Rivian_A1.5CTarget.5Crepo_projects.5CpRealEcu.5CcR_LATEST.5Cmake.5Coutput.5Cobjects.5CCanSM_InternalStateTransition.154::
                        1547 .LDWlin154:
0000081e 0342           1548 	mov	3,r8
00000820 8043           1549 	sst.b	r8,0[ep]
00000822 b52d*          1550 	br	.L7786
                        1551 .L7545:
                        1552 --line1096
                        1553 ..lin.C.3A.5C_ECU2.5CECU_Rivian_A1.5CTarget.5Crepo_projects.5CpRealEcu.5CcR_LATEST.5Cmake.5Coutput.5Cobjects.5CCanSM_InternalStateTransition.155::
                        1554 .LDWlin155:
00000824 923f0100       1555 	ld.bu	0[r18],r7
00000828 613a           1556 	cmp	1,r7
0000082a ba1d*          1557 	bne	.L7546
                        1558 --line1097
                        1559 ..lin.C.3A.5C_ECU2.5CECU_Rivian_A1.5CTarget.5Crepo_projects.5CpRealEcu.5CcR_LATEST.5Cmake.5Coutput.5Cobjects.5CCanSM_InternalStateTransition.156::
                        1560 .LDWlin156:
0000082c 0332           1561 	mov	3,r6
0000082e 51370000       1562 	st.b	r6,0[r17]
00000832 52070000       1563 	st.b	zero,0[r18]
00000836 5c070000       1564 	st.b	zero,0[r28]
0000083a 8003           1565 	sst.b	zero,0[ep]
0000083c 00ea           1566 	mov	0,r29
                        1567 .L7551:
0000083e fbf61400       1568 	mulhi	20,r27,ep
00000842 3a970100       1569 	ld.w	0[r26],r18
00000846 d2f1           1570 	add	r18,ep
00000848 6d88           1571 	sld.bu	13[ep],r17
0000084a f1e9           1572 	cmp	r17,r29
0000084c 893d*          1573 	bnl	.L7563
                        1574 --line1103
                        1575 ..lin.C.3A.5C_ECU2.5CECU_Rivian_A1.5CTarget.5Crepo_projects.5CpRealEcu.5CcR_LATEST.5Cmake.5Coutput.5Cobjects.5CCanSM_InternalStateTransition.157::
                        1576 .LDWlin157:
0000084e 00f5           1577 	sld.w	0[ep],ep
00000850 033a           1578 	mov	3,r7
00000852 ddf1           1579 	add	r29,ep
00000854 6030           1580 	sld.bu	0[ep],r6
                        1581 	jarl	_CanIf_SetPduMode,lp
                        1581 <EXPANSION BEGIN>
                        1581 jarl22 _CanIf_SetPduMode , lp 
00000856 80ff0000*      1581 <EXPANSION END>
                        1582 --line1102
                        1583 ..lin.C.3A.5C_ECU2.5CECU_Rivian_A1.5CTarget.5Crepo_projects.5CpRealEcu.5CcR_LATEST.5Cmake.5Coutput.5Cobjects.5CCanSM_InternalStateTransition.158::
                        1584 .LDWlin158:

                                                                      Page 28
                                                              C:\Users\nhuliyap\AppData\Local\Temp\gh_000014o1.s
0000085a 41ea           1585 	add	1,r29
0000085c 9d00           1586 	zxb	r29
0000085e 85f5*          1587 	br	.L7551
                        1588 .L7546:
                        1589 --line1120
                        1590 ..lin.C.3A.5C_ECU2.5CECU_Rivian_A1.5CTarget.5Crepo_projects.5CpRealEcu.5CcR_LATEST.5Cmake.5Coutput.5Cobjects.5CCanSM_InternalStateTransition.159::
                        1591 .LDWlin159:
00000860 11f0           1592 	mov	r17,ep
00000862 f3870100       1593 	ld.hu	0[r19],r16
00000866 7178           1594 	sld.hu	2[ep],r15
00000868 f079           1595 	cmp	r16,r15
0000086a c1c5*          1596 	bl	.L7556
                        1597 --line1121
                        1598 ..lin.C.3A.5C_ECU2.5CECU_Rivian_A1.5CTarget.5Crepo_projects.5CpRealEcu.5CcR_LATEST.5Cmake.5Coutput.5Cobjects.5CCanSM_InternalStateTransition.160::
                        1599 .LDWlin160:
0000086c 0372           1600 	mov	3,r14
0000086e 8073           1601 	sst.b	r14,0[ep]
00000870 5c770000       1602 	st.b	r14,0[r28]
00000874 c50d*          1603 	br	.L7560
                        1604 .L7535:
                        1605 --line1134
                        1606 ..lin.C.3A.5C_ECU2.5CECU_Rivian_A1.5CTarget.5Crepo_projects.5CpRealEcu.5CcR_LATEST.5Cmake.5Coutput.5Cobjects.5CCanSM_InternalStateTransition.161::
                        1607 .LDWlin161:
00000876 8003           1608 	sst.b	zero,0[ep]
                        1609 .L7786:
00000878 0172           1610 	mov	1,r14
0000087a 5c770000       1611 	st.b	r14,0[r28]
                        1612 .L7558:
0000087e 1b30           1613 	mov	r27,r6
                        1614 	jarl	_CanSM_StopCtrl,lp
                        1614 <EXPANSION BEGIN>
                        1614 jarl22 _CanSM_StopCtrl , lp 
00000880 bfffb6f7*      1614 <EXPANSION END>
                        1615 --line1140
                        1616 ..lin.C.3A.5C_ECU2.5CECU_Rivian_A1.5CTarget.5Crepo_projects.5CpRealEcu.5CcR_LATEST.5Cmake.5Coutput.5Cobjects.5CCanSM_InternalStateTransition.162::
                        1617 .LDWlin162:
00000884 1cef0000       1618 	ld.b	0[r28],r29
                        1619 .L7557:
00000888 63ea           1620 	cmp	3,r29
0000088a ba25*          1621 	bne	.L7533
                        1622 .L7560:
                        1623 --line1143
                        1624 ..lin.C.3A.5C_ECU2.5CECU_Rivian_A1.5CTarget.5Crepo_projects.5CpRealEcu.5CcR_LATEST.5Cmake.5Coutput.5Cobjects.5CCanSM_InternalStateTransition.163::
                        1625 .LDWlin163:
0000088c 1b30           1626 	mov	r27,r6
                        1627 	jarl	_CanSM_StartCtrl,lp
                        1627 <EXPANSION BEGIN>
                        1627 jarl22 _CanSM_StartCtrl , lp 
0000088e bfff72f9*      1627 <EXPANSION END>
                        1628 --line1144
                        1629 ..lin.C.3A.5C_ECU2.5CECU_Rivian_A1.5CTarget.5Crepo_projects.5CpRealEcu.5CcR_LATEST.5Cmake.5Coutput.5Cobjects.5CCanSM_InternalStateTransition.164::
                        1630 .LDWlin164:
00000892 1cef0000       1631 	ld.b	0[r28],r29
00000896 e0e9           1632 	cmp	zero,r29
00000898 ca1d*          1633 	bne	.L7533
                        1634 --line1146
                        1635 ..lin.C.3A.5C_ECU2.5CECU_Rivian_A1.5CTarget.5Crepo_projects.5CpRealEcu.5CcR_LATEST.5Cmake.5Coutput.5Cobjects.5CCanSM_InternalStateTransition.165::
                        1636 .LDWlin165:
0000089a 950d*          1637 	br	.L7566
                        1638 .L7565:
                        1639 --line1147

                                                                      Page 29
                                                              C:\Users\nhuliyap\AppData\Local\Temp\gh_000014o1.s
                        1640 ..lin.C.3A.5C_ECU2.5CECU_Rivian_A1.5CTarget.5Crepo_projects.5CpRealEcu.5CcR_LATEST.5Cmake.5Coutput.5Cobjects.5CCanSM_InternalStateTransition.166::
                        1641 .LDWlin166:
0000089c 00f5           1642 	sld.w	0[ep],ep
0000089e 033a           1643 	mov	3,r7
000008a0 ddf1           1644 	add	r29,ep
000008a2 6030           1645 	sld.bu	0[ep],r6
                        1646 	jarl	_CanIf_SetPduMode,lp
                        1646 <EXPANSION BEGIN>
                        1646 jarl22 _CanIf_SetPduMode , lp 
000008a4 80ff0000*      1646 <EXPANSION END>
                        1647 --line1146
                        1648 ..lin.C.3A.5C_ECU2.5CECU_Rivian_A1.5CTarget.5Crepo_projects.5CpRealEcu.5CcR_LATEST.5Cmake.5Coutput.5Cobjects.5CCanSM_InternalStateTransition.167::
                        1649 .LDWlin167:
000008a8 41ea           1650 	add	1,r29
000008aa 9d00           1651 	zxb	r29
                        1652 .L7566:
000008ac fbf61400       1653 	mulhi	20,r27,ep
000008b0 3a670100       1654 	ld.w	0[r26],r12
000008b4 ccf1           1655 	add	r12,ep
000008b6 6d58           1656 	sld.bu	13[ep],r11
000008b8 ebe9           1657 	cmp	r11,r29
000008ba 91f5*          1658 	bl	.L7565
                        1659 .L7563:
                        1660 --line1160
                        1661 ..lin.C.3A.5C_ECU2.5CECU_Rivian_A1.5CTarget.5Crepo_projects.5CpRealEcu.5CcR_LATEST.5Cmake.5Coutput.5Cobjects.5CCanSM_InternalStateTransition.168::
                        1662 .LDWlin168:
000008bc 0352           1663 	mov	3,r10
000008be 405e0000*      1664 	movhi	hi(_CanSM_currBOR_State_en),zero,r11
                        1665 --line1161
                        1666 ..lin.C.3A.5C_ECU2.5CECU_Rivian_A1.5CTarget.5Crepo_projects.5CpRealEcu.5CcR_LATEST.5Cmake.5Coutput.5Cobjects.5CCanSM_InternalStateTransition.169::
                        1667 .LDWlin169:
000008c2 024a           1668 	mov	2,r9
000008c4 40660000*      1669 	movhi	hi(_CanSM_CurrNw_Mode_en),zero,r12
000008c8 4b570000*      1670 	st.b	r10,lo(_CanSM_currBOR_State_en)[r11]
000008cc 4c4f0000*      1671 	st.b	r9,lo(_CanSM_CurrNw_Mode_en)[r12]
                        1672 .L7533:
                        1673 --	    .ef
                        1674 .LDW52:
                        1675 --line1164
                        1676 ..lin.C.3A.5C_ECU2.5CECU_Rivian_A1.5CTarget.5Crepo_projects.5CpRealEcu.5CcR_LATEST.5Cmake.5Coutput.5Cobjects.5CCanSM_InternalStateTransition.170::
                        1677 .LDWlin170:
000008d0 4006ff30       1678 	dispose	0,{r26,r27,r28,r29,r31},[lp]
                        1679 	.global	___ghs_eofn_CanSM_TxTimeoutException_StateMachine
                        1680 ___ghs_eofn_CanSM_TxTimeoutException_StateMachine:
                        1681 	.type	_CanSM_TxTimeoutException_StateMachine,@function
                        1682 	.size	_CanSM_TxTimeoutException_StateMachine,.-_CanSM_TxTimeoutException_StateMachine
                        1683 	.align	2
                        1684 --_CanSM_TxTimeoutException_en	r29	local
                        1685 --_CanSM_Ctrl_index_u8	r29	local
                        1686 --_CanSM_ControllerId_u8	r6	local
                        1687 
                        1688 --_Channel	r27	param
                        1689 
                        1690 	.section ".bss","awb"
                        1691 .L8291:
                        1692 	.type	.L8291,@object
                        1693 	.size	.L8291,0
                        1694 	.data
                        1695 	.text
                        1696 	.align	2
                        1697 	.align	2

                                                                      Page 30
                                                              C:\Users\nhuliyap\AppData\Local\Temp\gh_000014o1.s
                        1698 ..gh.f.f.1.e.10:
                        1699 	.type	..gh.f.f.1.e.10,@object
                        1700 	.size	..gh.f.f.1.e.10,0
                        1701 	.global	_CanSM_WakeUpValidation_StateMachine
                        1702 _CanSM_WakeUpValidation_StateMachine:
000008d4 8007fb300000*  1703 	prepare	{r26,r27,r28,r29,r31},0,_CanSM_Ctrl_ModeInd_ab
000008da 0000*
                        1704 --	    .bf
                        1705 .LDW62:
000008dc 3c0600000000*  1706 	mov	_CanSM_Num_Unsuccessful_ModeReq_au8,r28
000008e2 40460000*      1707 	movhi	hi(_CanSM_ModeRepeatReq_Max_u8),zero,r8
000008e6 88470100*      1708 	ld.bu	lo(_CanSM_ModeRepeatReq_Max_u8)[r8],r8
000008ea 9c3f0100       1709 	ld.bu	0[r28],r7
                        1710 --line1229
                        1711 ..lin.C.3A.5C_ECU2.5CECU_Rivian_A1.5CTarget.5Crepo_projects.5CpRealEcu.5CcR_LATEST.5Cmake.5Coutput.5Cobjects.5CCanSM_InternalStateTransition.171::
                        1712 .LDWlin171:
000008ee 3d0600000000*  1713 	mov	_CanSM_WakeUpValidation_Substates_en,r29
000008f4 3a0600000000*  1714 	mov	_CanSM_Wuvalidation_Start_ab,r26
000008fa e839           1715 	cmp	r8,r7
000008fc d96d*          1716 	bnl	.L8525
000008fe 1d970000       1717 	ld.b	0[r29],r18
00000902 06d8           1718 	mov	r6,r27
00000904 9b00           1719 	zxb	r27
                        1720 --line1231
                        1721 ..lin.C.3A.5C_ECU2.5CECU_Rivian_A1.5CTarget.5Crepo_projects.5CpRealEcu.5CcR_LATEST.5Cmake.5Coutput.5Cobjects.5CCanSM_InternalStateTransition.172::
                        1722 .LDWlin172:
00000906 310600000000*  1723 	mov	_CanSM_TimerConfig_ast,r17
0000090c 2f0600000000*  1724 	mov	_CanSM_ModeRepeatReq_Time_u16,r15
00000912 2d0600000000*  1725 	mov	_CanSM_Trcv_ModeInd_ab,r13
00000918 6292           1726 	cmp	2,r18
0000091a e205*          1727 	be	.L8529
0000091c 6492           1728 	cmp	4,r18
0000091e c22d*          1729 	be	.L8537
00000920 6692           1730 	cmp	6,r18
00000922 a245*          1731 	be	.L8543
00000924 f56d*          1732 	br	.L8550
                        1733 .L8529:
                        1734 --line1233
                        1735 ..lin.C.3A.5C_ECU2.5CECU_Rivian_A1.5CTarget.5Crepo_projects.5CpRealEcu.5CcR_LATEST.5Cmake.5Coutput.5Cobjects.5CCanSM_InternalStateTransition.173::
                        1736 .LDWlin173:
00000926 8d370100       1737 	ld.bu	0[r13],r6
0000092a 6132           1738 	cmp	1,r6
0000092c 9a1d*          1739 	bne	.L8530
                        1740 --line1234
                        1741 ..lin.C.3A.5C_ECU2.5CECU_Rivian_A1.5CTarget.5Crepo_projects.5CpRealEcu.5CcR_LATEST.5Cmake.5Coutput.5Cobjects.5CCanSM_InternalStateTransition.174::
                        1742 .LDWlin174:
0000092e 40f60000*      1743 	movhi	hi(_CfgSwcServiceCanSM_castConfigSet_pcst),zero,ep
00000932 3ef70100*      1744 	ld.w	lo(_CfgSwcServiceCanSM_castConfigSet_pcst)[ep],ep
00000936 1b80           1745 	mov	r27,r16
00000938 f4874002       1746 	mul	20,r16,zero
0000093c 009d           1747 	sld.w	0[ep],r19
0000093e d381           1748 	add	r19,r16
00000940 90670d00       1749 	ld.bu	12[r16],r12
00000944 0c0601ff       1750 	addi	-255,r12,zero
00000948 b205*          1751 	be	.L8532
                        1752 --line1235
                        1753 ..lin.C.3A.5C_ECU2.5CECU_Rivian_A1.5CTarget.5Crepo_projects.5CpRealEcu.5CcR_LATEST.5Cmake.5Coutput.5Cobjects.5CCanSM_InternalStateTransition.175::
                        1754 .LDWlin175:
0000094a 4d070000       1755 	st.b	zero,0[r13]
                        1756 .L8532:
0000094e 035a           1757 	mov	3,r11

                                                                      Page 31
                                                              C:\Users\nhuliyap\AppData\Local\Temp\gh_000014o1.s
00000950 515f0000       1758 	st.b	r11,0[r17]
00000954 5d5f0000       1759 	st.b	r11,0[r29]
00000958 5c070000       1760 	st.b	zero,0[r28]
0000095c 856d*          1761 	br	.L8560
                        1762 .L8530:
                        1763 --line1243
                        1764 ..lin.C.3A.5C_ECU2.5CECU_Rivian_A1.5CTarget.5Crepo_projects.5CpRealEcu.5CcR_LATEST.5Cmake.5Coutput.5Cobjects.5CCanSM_InternalStateTransition.176::
                        1765 .LDWlin176:
0000095e 11f0           1766 	mov	r17,ep
00000960 ef8f0100       1767 	ld.hu	0[r15],r17
00000964 7180           1768 	sld.hu	2[ep],r16
00000966 f181           1769 	cmp	r17,r16
00000968 d14d*          1770 	bl	.L8550
                        1771 --line1244
                        1772 ..lin.C.3A.5C_ECU2.5CECU_Rivian_A1.5CTarget.5Crepo_projects.5CpRealEcu.5CcR_LATEST.5Cmake.5Coutput.5Cobjects.5CCanSM_InternalStateTransition.177::
                        1773 .LDWlin177:
0000096a 037a           1774 	mov	3,r15
0000096c 0192           1775 	mov	1,r18
0000096e 807b           1776 	sst.b	r15,0[ep]
00000970 5d970000       1777 	st.b	r18,0[r29]
00000974 954d*          1778 	br	.L8555
                        1779 .L8537:
                        1780 --line1253
                        1781 ..lin.C.3A.5C_ECU2.5CECU_Rivian_A1.5CTarget.5Crepo_projects.5CpRealEcu.5CcR_LATEST.5Cmake.5Coutput.5Cobjects.5CCanSM_InternalStateTransition.178::
                        1782 .LDWlin178:
00000976 6070           1783 	sld.bu	0[ep],r14
00000978 6172           1784 	cmp	1,r14
0000097a ba0d*          1785 	bne	.L8538
                        1786 --line1254
                        1787 ..lin.C.3A.5C_ECU2.5CECU_Rivian_A1.5CTarget.5Crepo_projects.5CpRealEcu.5CcR_LATEST.5Cmake.5Coutput.5Cobjects.5CCanSM_InternalStateTransition.179::
                        1788 .LDWlin179:
0000097c 036a           1789 	mov	3,r13
0000097e 0562           1790 	mov	5,r12
00000980 516f0000       1791 	st.b	r13,0[r17]
00000984 8003           1792 	sst.b	zero,0[ep]
00000986 5d670000       1793 	st.b	r12,0[r29]
0000098a 5c070000       1794 	st.b	zero,0[r28]
0000098e e555*          1795 	br	.L8562
                        1796 .L8538:
                        1797 --line1261
                        1798 ..lin.C.3A.5C_ECU2.5CECU_Rivian_A1.5CTarget.5Crepo_projects.5CpRealEcu.5CcR_LATEST.5Cmake.5Coutput.5Cobjects.5CCanSM_InternalStateTransition.180::
                        1799 .LDWlin180:
00000990 11f0           1800 	mov	r17,ep
00000992 ef5f0100       1801 	ld.hu	0[r15],r11
00000996 7150           1802 	sld.hu	2[ep],r10
00000998 eb51           1803 	cmp	r11,r10
0000099a c135*          1804 	bl	.L8550
                        1805 --line1262
                        1806 ..lin.C.3A.5C_ECU2.5CECU_Rivian_A1.5CTarget.5Crepo_projects.5CpRealEcu.5CcR_LATEST.5Cmake.5Coutput.5Cobjects.5CCanSM_InternalStateTransition.181::
                        1807 .LDWlin181:
0000099c 0352           1808 	mov	3,r10
0000099e 8053           1809 	sst.b	r10,0[ep]
000009a0 5d570000       1810 	st.b	r10,0[r29]
000009a4 c545*          1811 	br	.L8560
                        1812 .L8543:
                        1813 --line1271
                        1814 ..lin.C.3A.5C_ECU2.5CECU_Rivian_A1.5CTarget.5Crepo_projects.5CpRealEcu.5CcR_LATEST.5Cmake.5Coutput.5Cobjects.5CCanSM_InternalStateTransition.182::
                        1815 .LDWlin182:
000009a6 6048           1816 	sld.bu	0[ep],r9
000009a8 614a           1817 	cmp	1,r9
000009aa aa0d*          1818 	bne	.L8544

                                                                      Page 32
                                                              C:\Users\nhuliyap\AppData\Local\Temp\gh_000014o1.s
                        1819 --line1272
                        1820 ..lin.C.3A.5C_ECU2.5CECU_Rivian_A1.5CTarget.5Crepo_projects.5CpRealEcu.5CcR_LATEST.5Cmake.5Coutput.5Cobjects.5CCanSM_InternalStateTransition.183::
                        1821 .LDWlin183:
000009ac 8003           1822 	sst.b	zero,0[ep]
000009ae 5d070000       1823 	st.b	zero,0[r29]
000009b2 5a070000       1824 	st.b	zero,0[r26]
000009b6 5c070000       1825 	st.b	zero,0[r28]
000009ba 4006ff30       1826 	dispose	0,{r26,r27,r28,r29,r31},[lp]
                        1827 .L8544:
                        1828 --line1279
                        1829 ..lin.C.3A.5C_ECU2.5CECU_Rivian_A1.5CTarget.5Crepo_projects.5CpRealEcu.5CcR_LATEST.5Cmake.5Coutput.5Cobjects.5CCanSM_InternalStateTransition.184::
                        1830 .LDWlin184:
000009be 11f0           1831 	mov	r17,ep
000009c0 ef470100       1832 	ld.hu	0[r15],r8
000009c4 7138           1833 	sld.hu	2[ep],r7
000009c6 e839           1834 	cmp	r8,r7
000009c8 d11d*          1835 	bl	.L8550
                        1836 --line1280
                        1837 ..lin.C.3A.5C_ECU2.5CECU_Rivian_A1.5CTarget.5Crepo_projects.5CpRealEcu.5CcR_LATEST.5Cmake.5Coutput.5Cobjects.5CCanSM_InternalStateTransition.185::
                        1838 .LDWlin185:
000009ca 0332           1839 	mov	3,r6
000009cc 059a           1840 	mov	5,r19
000009ce 8033           1841 	sst.b	r6,0[ep]
000009d0 5d9f0000       1842 	st.b	r19,0[r29]
000009d4 b535*          1843 	br	.L8562
                        1844 .L8525:
                        1845 --line1297
                        1846 ..lin.C.3A.5C_ECU2.5CECU_Rivian_A1.5CTarget.5Crepo_projects.5CpRealEcu.5CcR_LATEST.5Cmake.5Coutput.5Cobjects.5CCanSM_InternalStateTransition.186::
                        1847 .LDWlin186:
000009d6 0492           1848 	mov	4,r18
000009d8 405e0000*      1849 	movhi	hi(_CanSM_CurrNw_Mode_en),zero,r11
000009dc 4b970000*      1850 	st.b	r18,lo(_CanSM_CurrNw_Mode_en)[r11]
                        1851 --line1298
                        1852 ..lin.C.3A.5C_ECU2.5CECU_Rivian_A1.5CTarget.5Crepo_projects.5CpRealEcu.5CcR_LATEST.5Cmake.5Coutput.5Cobjects.5CCanSM_InternalStateTransition.187::
                        1853 .LDWlin187:
000009e0 40660000*      1854 	movhi	hi(_CanSM_ReqComM_Mode_en),zero,r12
                        1855 --line1313
                        1856 ..lin.C.3A.5C_ECU2.5CECU_Rivian_A1.5CTarget.5Crepo_projects.5CpRealEcu.5CcR_LATEST.5Cmake.5Coutput.5Cobjects.5CCanSM_InternalStateTransition.188::
                        1857 .LDWlin188:
000009e4 018a           1858 	mov	1,r17
000009e6 405e0000*      1859 	movhi	hi(_CanSM_PreNoCom_Substates_en),zero,r11
                        1860 --line1293
                        1861 ..lin.C.3A.5C_ECU2.5CECU_Rivian_A1.5CTarget.5Crepo_projects.5CpRealEcu.5CcR_LATEST.5Cmake.5Coutput.5Cobjects.5CCanSM_InternalStateTransition.189::
                        1862 .LDWlin189:
000009ea 5d070000       1863 	st.b	zero,0[r29]
000009ee 5a070000       1864 	st.b	zero,0[r26]
000009f2 5c070000       1865 	st.b	zero,0[r28]
000009f6 4c070000*      1866 	st.b	zero,lo(_CanSM_ReqComM_Mode_en)[r12]
000009fa 4b8f0000*      1867 	st.b	r17,lo(_CanSM_PreNoCom_Substates_en)[r11]
000009fe 4006ff30       1868 	dispose	0,{r26,r27,r28,r29,r31},[lp]
                        1869 .L8550:
                        1870 --line1316
                        1871 ..lin.C.3A.5C_ECU2.5CECU_Rivian_A1.5CTarget.5Crepo_projects.5CpRealEcu.5CcR_LATEST.5Cmake.5Coutput.5Cobjects.5CCanSM_InternalStateTransition.190::
                        1872 .LDWlin190:
00000a02 6192           1873 	cmp	1,r18
00000a04 aa15*          1874 	bne	.L8554
                        1875 .L8555:
                        1876 --line1317
                        1877 ..lin.C.3A.5C_ECU2.5CECU_Rivian_A1.5CTarget.5Crepo_projects.5CpRealEcu.5CcR_LATEST.5Cmake.5Coutput.5Cobjects.5CCanSM_InternalStateTransition.191::
                        1878 .LDWlin191:
00000a06 1bf0           1879 	mov	r27,ep

                                                                      Page 33
                                                              C:\Users\nhuliyap\AppData\Local\Temp\gh_000014o1.s
00000a08 40860000*      1880 	movhi	hi(_CanSM_Network_pcst),zero,r16
00000a0c f4f74002       1881 	mul	20,ep,zero
00000a10 30870100*      1882 	ld.w	lo(_CanSM_Network_pcst)[r16],r16
00000a14 d0f1           1883 	add	r16,ep
00000a16 6c48           1884 	sld.bu	12[ep],r9
00000a18 090601ff       1885 	addi	-255,r9,zero
00000a1c ea05*          1886 	bne	.L8554
                        1887 --line1318
                        1888 ..lin.C.3A.5C_ECU2.5CECU_Rivian_A1.5CTarget.5Crepo_projects.5CpRealEcu.5CcR_LATEST.5Cmake.5Coutput.5Cobjects.5CCanSM_InternalStateTransition.192::
                        1889 .LDWlin192:
00000a1e 4d970000       1890 	st.b	r18,0[r13]
00000a22 0392           1891 	mov	3,r18
00000a24 5d970000       1892 	st.b	r18,0[r29]
                        1893 .L8554:
00000a28 6392           1894 	cmp	3,r18
00000a2a ea05*          1895 	bne	.L8559
                        1896 .L8560:
                        1897 --line1331
                        1898 ..lin.C.3A.5C_ECU2.5CECU_Rivian_A1.5CTarget.5Crepo_projects.5CpRealEcu.5CcR_LATEST.5Cmake.5Coutput.5Cobjects.5CCanSM_InternalStateTransition.193::
                        1899 .LDWlin193:
00000a2c 1b30           1900 	mov	r27,r6
                        1901 	jarl	_CanSM_StopCtrl,lp
                        1901 <EXPANSION BEGIN>
                        1901 jarl22 _CanSM_StopCtrl , lp 
00000a2e bfff08f6*      1901 <EXPANSION END>
                        1902 --line1332
                        1903 ..lin.C.3A.5C_ECU2.5CECU_Rivian_A1.5CTarget.5Crepo_projects.5CpRealEcu.5CcR_LATEST.5Cmake.5Coutput.5Cobjects.5CCanSM_InternalStateTransition.194::
                        1904 .LDWlin194:
00000a32 1d970000       1905 	ld.b	0[r29],r18
                        1906 .L8559:
00000a36 6592           1907 	cmp	5,r18
00000a38 ca0d*          1908 	bne	.L8523
                        1909 .L8562:
                        1910 --line1335
                        1911 ..lin.C.3A.5C_ECU2.5CECU_Rivian_A1.5CTarget.5Crepo_projects.5CpRealEcu.5CcR_LATEST.5Cmake.5Coutput.5Cobjects.5CCanSM_InternalStateTransition.195::
                        1912 .LDWlin195:
00000a3a 1b30           1913 	mov	r27,r6
                        1914 	jarl	_CanSM_StartCtrl,lp
                        1914 <EXPANSION BEGIN>
                        1914 jarl22 _CanSM_StartCtrl , lp 
00000a3c bfffc4f7*      1914 <EXPANSION END>
                        1915 --line1336
                        1916 ..lin.C.3A.5C_ECU2.5CECU_Rivian_A1.5CTarget.5Crepo_projects.5CpRealEcu.5CcR_LATEST.5Cmake.5Coutput.5Cobjects.5CCanSM_InternalStateTransition.196::
                        1917 .LDWlin196:
00000a40 1d970000       1918 	ld.b	0[r29],r18
00000a44 e091           1919 	cmp	zero,r18
00000a46 da05*          1920 	bne	.L8523
                        1921 --line1338
                        1922 ..lin.C.3A.5C_ECU2.5CECU_Rivian_A1.5CTarget.5Crepo_projects.5CpRealEcu.5CcR_LATEST.5Cmake.5Coutput.5Cobjects.5CCanSM_InternalStateTransition.197::
                        1923 .LDWlin197:
00000a48 5c070000       1924 	st.b	zero,0[r28]
00000a4c 5a070000       1925 	st.b	zero,0[r26]
                        1926 .L8523:
                        1927 --	    .ef
                        1928 .LDW72:
00000a50 4006ff30       1929 	dispose	0,{r26,r27,r28,r29,r31},[lp]
                        1930 	.global	___ghs_eofn_CanSM_WakeUpValidation_StateMachine
                        1931 ___ghs_eofn_CanSM_WakeUpValidation_StateMachine:
                        1932 	.type	_CanSM_WakeUpValidation_StateMachine,@function
                        1933 	.size	_CanSM_WakeUpValidation_StateMachine,.-_CanSM_WakeUpValidation_StateMachine
                        1934 	.align	2

                                                                      Page 34
                                                              C:\Users\nhuliyap\AppData\Local\Temp\gh_000014o1.s
                        1935 --_CanSM_WakeUpValidation_Substates	r18	local
                        1936 
                        1937 --_network	r27	param
                        1938 
                        1939 	.section ".bss","awb"
                        1940 .L9306:
                        1941 	.type	.L9306,@object
                        1942 	.size	.L9306,0
                        1943 	.data
                        1944 	.text
                        1945 	.align	2
                        1946 	.align	2
                        1947 ..gh.f.f.1.e.11:
                        1948 	.type	..gh.f.f.1.e.11,@object
                        1949 	.size	..gh.f.f.1.e.11,0
                        1950 	.global	_CanSM_PreNoCom_Exit
                        1951 _CanSM_PreNoCom_Exit:
00000a54 80072100       1952 	prepare	{r31},0
00000a58 06f0           1953 	mov	r6,ep
00000a5a 9e00           1954 	zxb	ep
                        1955 --	    .bf
                        1956 .LDW82:
00000a5c 40960000*      1957 	movhi	hi(_CanSM_Network_pcst),zero,r18
00000a60 f4f74002       1958 	mul	20,ep,zero
00000a64 32970100*      1959 	ld.w	lo(_CanSM_Network_pcst)[r18],r18
                        1960 --line1346
                        1961 ..lin.C.3A.5C_ECU2.5CECU_Rivian_A1.5CTarget.5Crepo_projects.5CpRealEcu.5CcR_LATEST.5Cmake.5Coutput.5Cobjects.5CCanSM_InternalStateTransition.198::
                        1962 .LDWlin198:
00000a68 019a           1963 	mov	1,r19
00000a6a 405e0000*      1964 	movhi	hi(_CanSM_Network_Init_ab),zero,r11
00000a6e 4b9f0000*      1965 	st.b	r19,lo(_CanSM_Network_Init_ab)[r11]
00000a72 d2f1           1966 	add	r18,ep
00000a74 6f30           1967 	sld.bu	15[ep],r6
00000a76 003a           1968 	mov	0,r7
                        1969 	jarl	_BswM_CanSM_CurrentState,lp
                        1969 <EXPANSION BEGIN>
                        1969 jarl22 _BswM_CanSM_CurrentState , lp 
00000a78 80ff0000*      1969 <EXPANSION END>
                        1970 --line1349
                        1971 ..lin.C.3A.5C_ECU2.5CECU_Rivian_A1.5CTarget.5Crepo_projects.5CpRealEcu.5CcR_LATEST.5Cmake.5Coutput.5Cobjects.5CCanSM_InternalStateTransition.199::
                        1972 .LDWlin199:
00000a7c 408e0000*      1973 	movhi	hi(_CanSM_Wuvalidation_Start_ab),zero,r17
00000a80 918f0100*      1974 	ld.bu	lo(_CanSM_Wuvalidation_Start_ab)[r17],r17
00000a84 3e0600000000*  1975 	mov	_CanSM_CurrNw_Mode_en,ep
00000a8a 618a           1976 	cmp	1,r17
00000a8c fa05*          1977 	bne	.L9589
                        1978 --line1351
                        1979 ..lin.C.3A.5C_ECU2.5CECU_Rivian_A1.5CTarget.5Crepo_projects.5CpRealEcu.5CcR_LATEST.5Cmake.5Coutput.5Cobjects.5CCanSM_InternalStateTransition.200::
                        1980 .LDWlin200:
00000a8e 405e0000*      1981 	movhi	hi(_CanSM_WakeUpValidation_Substates_en),zero,r11
                        1982 --line1350
                        1983 ..lin.C.3A.5C_ECU2.5CECU_Rivian_A1.5CTarget.5Crepo_projects.5CpRealEcu.5CcR_LATEST.5Cmake.5Coutput.5Cobjects.5CCanSM_InternalStateTransition.201::
                        1984 .LDWlin201:
00000a92 0592           1985 	mov	5,r18
00000a94 4b8f0000*      1986 	st.b	r17,lo(_CanSM_WakeUpValidation_Substates_en)[r11]
00000a98 a505*          1987 	br	.L9587
                        1988 .L9589:
                        1989 --line1354
                        1990 ..lin.C.3A.5C_ECU2.5CECU_Rivian_A1.5CTarget.5Crepo_projects.5CpRealEcu.5CcR_LATEST.5Cmake.5Coutput.5Cobjects.5CCanSM_InternalStateTransition.202::
                        1991 .LDWlin202:
00000a9a 0092           1992 	mov	0,r18

                                                                      Page 35
                                                              C:\Users\nhuliyap\AppData\Local\Temp\gh_000014o1.s
                        1993 .L9587:
00000a9c 8093           1994 	sst.b	r18,0[ep]
                        1995 --	    .ef
                        1996 .LDW92:
00000a9e 40063f00       1997 	dispose	0,{r31},[lp]
                        1998 	.global	___ghs_eofn_CanSM_PreNoCom_Exit
                        1999 ___ghs_eofn_CanSM_PreNoCom_Exit:
                        2000 	.type	_CanSM_PreNoCom_Exit,@function
                        2001 	.size	_CanSM_PreNoCom_Exit,.-_CanSM_PreNoCom_Exit
                        2002 	.align	2
                        2003 
                        2004 --_network	r6	param
                        2005 
                        2006 	.section ".bss","awb"
                        2007 .L9627:
                        2008 	.type	.L9627,@object
                        2009 	.size	.L9627,0
                        2010 	.data
                        2011 	.text
                        2012 	.align	2
                        2013 	.align	2
                        2014 ..gh.f.f.1.e.12:
                        2015 	.type	..gh.f.f.1.e.12,@object
                        2016 	.size	..gh.f.f.1.e.12,0
                        2017 	.global	_CanSM_BOR_SilentCom_Exit
                        2018 _CanSM_BOR_SilentCom_Exit:
00000aa2 8207e100       2019 	prepare	{r28,r29,r31},1
                        2020 --	    .bf
                        2021 .LDW03:
00000aa6 40960000*      2022 	movhi	hi(_CanSM_ReqComM_Mode_en),zero,r18
00000aaa 92970100*      2023 	ld.bu	lo(_CanSM_ReqComM_Mode_en)[r18],r18
                        2024 --line1362
                        2025 ..lin.C.3A.5C_ECU2.5CECU_Rivian_A1.5CTarget.5Crepo_projects.5CpRealEcu.5CcR_LATEST.5Cmake.5Coutput.5Cobjects.5CCanSM_InternalStateTransition.203::
                        2026 .LDWlin203:
00000aae 3c0600000000*  2027 	mov	_CanSM_Network_pcst,r28
                        2028 --line1363
                        2029 ..lin.C.3A.5C_ECU2.5CECU_Rivian_A1.5CTarget.5Crepo_projects.5CpRealEcu.5CcR_LATEST.5Cmake.5Coutput.5Cobjects.5CCanSM_InternalStateTransition.204::
                        2030 .LDWlin204:
00000ab4 405e0000*      2031 	movhi	hi(_CanSM_Ctrl_ModeInd_ab),zero,r11
                        2032 --line1364
                        2033 ..lin.C.3A.5C_ECU2.5CECU_Rivian_A1.5CTarget.5Crepo_projects.5CpRealEcu.5CcR_LATEST.5Cmake.5Coutput.5Cobjects.5CCanSM_InternalStateTransition.205::
                        2034 .LDWlin205:
00000ab8 40660000*      2035 	movhi	hi(_CanSM_Num_Unsuccessful_ModeReq_au8),zero,r12
                        2036 --line1365
                        2037 ..lin.C.3A.5C_ECU2.5CECU_Rivian_A1.5CTarget.5Crepo_projects.5CpRealEcu.5CcR_LATEST.5Cmake.5Coutput.5Cobjects.5CCanSM_InternalStateTransition.206::
                        2038 .LDWlin206:
00000abc 406e0000*      2039 	movhi	hi(_CanSM_BOR_SilentCom_ab),zero,r13
                        2040 --line1366
                        2041 ..lin.C.3A.5C_ECU2.5CECU_Rivian_A1.5CTarget.5Crepo_projects.5CpRealEcu.5CcR_LATEST.5Cmake.5Coutput.5Cobjects.5CCanSM_InternalStateTransition.207::
                        2042 .LDWlin207:
00000ac0 039a           2043 	mov	3,r19
00000ac2 40760000*      2044 	movhi	hi(_CanSM_TimerConfig_ast),zero,r14
00000ac6 3cf70100       2045 	ld.w	0[r28],ep
00000aca 4b070000*      2046 	st.b	zero,lo(_CanSM_Ctrl_ModeInd_ab)[r11]
00000ace 4c070000*      2047 	st.b	zero,lo(_CanSM_Num_Unsuccessful_ModeReq_au8)[r12]
00000ad2 4d070000*      2048 	st.b	zero,lo(_CanSM_BOR_SilentCom_ab)[r13]
00000ad6 4e9f0000*      2049 	st.b	r19,lo(_CanSM_TimerConfig_ast)[r14]
00000ada 013a           2050 	mov	1,r7
00000adc e091           2051 	cmp	zero,r18
00000ade 8a15*          2052 	bne	.L9671
                        2053 --line1368

                                                                      Page 36
                                                              C:\Users\nhuliyap\AppData\Local\Temp\gh_000014o1.s
                        2054 ..lin.C.3A.5C_ECU2.5CECU_Rivian_A1.5CTarget.5Crepo_projects.5CpRealEcu.5CcR_LATEST.5Cmake.5Coutput.5Cobjects.5CCanSM_InternalStateTransition.208::
                        2055 .LDWlin208:
00000ae0 048a           2056 	mov	4,r17
00000ae2 405e0000*      2057 	movhi	hi(_CanSM_CurrNw_Mode_en),zero,r11
00000ae6 4b8f0000*      2058 	st.b	r17,lo(_CanSM_CurrNw_Mode_en)[r11]
                        2059 --line1369
                        2060 ..lin.C.3A.5C_ECU2.5CECU_Rivian_A1.5CTarget.5Crepo_projects.5CpRealEcu.5CcR_LATEST.5Cmake.5Coutput.5Cobjects.5CCanSM_InternalStateTransition.209::
                        2061 .LDWlin209:
00000aea 40660000*      2062 	movhi	hi(_CanSM_currBOR_State_en),zero,r12
                        2063 --line1384
                        2064 ..lin.C.3A.5C_ECU2.5CECU_Rivian_A1.5CTarget.5Crepo_projects.5CpRealEcu.5CcR_LATEST.5Cmake.5Coutput.5Cobjects.5CCanSM_InternalStateTransition.210::
                        2065 .LDWlin210:
00000aee 405e0000*      2066 	movhi	hi(_CanSM_PreNoCom_Substates_en),zero,r11
00000af2 4c3f0000*      2067 	st.b	r7,lo(_CanSM_currBOR_State_en)[r12]
00000af6 4b3f0000*      2068 	st.b	r7,lo(_CanSM_PreNoCom_Substates_en)[r11]
00000afa 4206ff00       2069 	dispose	1,{r28,r29,r31},[lp]
                        2070 .L9671:
00000afe 8600           2071 	zxb	r6
00000b00 e6ee1400       2072 	mulhi	20,r6,r29
00000b04 ddf1           2073 	add	r29,ep
                        2074 --line1389
                        2075 ..lin.C.3A.5C_ECU2.5CECU_Rivian_A1.5CTarget.5Crepo_projects.5CpRealEcu.5CcR_LATEST.5Cmake.5Coutput.5Cobjects.5CCanSM_InternalStateTransition.211::
                        2076 .LDWlin211:
00000b06 6f30           2077 	sld.bu	15[ep],r6
                        2078 	jarl	_BswM_CanSM_CurrentState,lp
                        2078 <EXPANSION BEGIN>
                        2078 jarl22 _BswM_CanSM_CurrentState , lp 
00000b08 80ff0000*      2078 <EXPANSION END>
                        2079 --line1392
                        2080 ..lin.C.3A.5C_ECU2.5CECU_Rivian_A1.5CTarget.5Crepo_projects.5CpRealEcu.5CcR_LATEST.5Cmake.5Coutput.5Cobjects.5CCanSM_InternalStateTransition.212::
                        2081 .LDWlin212:
00000b0c 3cf70100       2082 	ld.w	0[r28],ep
00000b10 0192           2083 	mov	1,r18
00000b12 405e0000*      2084 	movhi	hi(_CanSM_BusSMMode_au8),zero,r11
00000b16 4b970000*      2085 	st.b	r18,lo(_CanSM_BusSMMode_au8)[r11]
00000b1a ddf1           2086 	add	r29,ep
00000b1c 6f30           2087 	sld.bu	15[ep],r6
                        2088 --line1391
                        2089 ..lin.C.3A.5C_ECU2.5CECU_Rivian_A1.5CTarget.5Crepo_projects.5CpRealEcu.5CcR_LATEST.5Cmake.5Coutput.5Cobjects.5CCanSM_InternalStateTransition.213::
                        2090 .LDWlin213:
00000b1e 43970300       2091 	st.b	r18,3[sp]
00000b22 233e0300       2092 	movea	3,sp,r7
                        2093 	jarl	_ComM_BusSM_ModeIndication,lp
                        2093 <EXPANSION BEGIN>
                        2093 jarl22 _ComM_BusSM_ModeIndication , lp 
00000b26 80ff0000*      2093 <EXPANSION END>
                        2094 --	    .ef
                        2095 .LDW13:
                        2096 --line1394
                        2097 ..lin.C.3A.5C_ECU2.5CECU_Rivian_A1.5CTarget.5Crepo_projects.5CpRealEcu.5CcR_LATEST.5Cmake.5Coutput.5Cobjects.5CCanSM_InternalStateTransition.214::
                        2098 .LDWlin214:
00000b2a 4206ff00       2099 	dispose	1,{r28,r29,r31},[lp]
                        2100 	.global	___ghs_eofn_CanSM_BOR_SilentCom_Exit
                        2101 ___ghs_eofn_CanSM_BOR_SilentCom_Exit:
                        2102 	.type	_CanSM_BOR_SilentCom_Exit,@function
                        2103 	.size	_CanSM_BOR_SilentCom_Exit,.-_CanSM_BOR_SilentCom_Exit
                        2104 	.align	2
                        2105 --_CanSM_NetworkConf_ps	ep	local
                        2106 --_CanSM_ComM_Mode_uo	3[sp]	local
                        2107 
                        2108 --_network	r6	param

                                                                      Page 37
                                                              C:\Users\nhuliyap\AppData\Local\Temp\gh_000014o1.s
                        2109 
                        2110 	.section ".bss","awb"
                        2111 .L9720:
                        2112 	.type	.L9720,@object
                        2113 	.size	.L9720,0
                        2114 	.data
                        2115 	.text
                        2116 	.align	2
                        2117 --_CfgSwcServiceCanSM_castConfigSet_pcst	_CfgSwcServiceCanSM_castConfigSet_pcst	import
                        2118 --_CanSM_Network_pcst	_CanSM_Network_pcst	import
                        2119 --_CanSM_TimerConfig_ast	_CanSM_TimerConfig_ast	import
                        2120 --_CanSM_CurrNw_Mode_en	_CanSM_CurrNw_Mode_en	import
                        2121 --_CanSM_currBOR_State_en	_CanSM_currBOR_State_en	import
                        2122 --_CanSM_BusOff_Cntr_au8	_CanSM_BusOff_Cntr_au8	import
                        2123 --_CanSM_BORMode_au8	_CanSM_BORMode_au8	import
                        2124 --_CanSM_ReqComM_Mode_en	_CanSM_ReqComM_Mode_en	import
                        2125 --_CanSM_Wuvalidation_Start_ab	_CanSM_Wuvalidation_Start_ab	import
                        2126 --_CanSM_Num_Unsuccessful_ModeReq_au8	_CanSM_Num_Unsuccessful_ModeReq_au8	import
                        2127 --_CanSM_Trcv_ModeInd_ab	_CanSM_Trcv_ModeInd_ab	import
                        2128 --_CanSM_Ctrl_ModeInd_ab	_CanSM_Ctrl_ModeInd_ab	import
                        2129 --_CanSM_PreNoCom_Substates_en	_CanSM_PreNoCom_Substates_en	import
                        2130 --_CanSM_BusSMMode_au8	_CanSM_BusSMMode_au8	import
                        2131 --_CanSM_PreFullCom_Substates_en	_CanSM_PreFullCom_Substates_en	import
                        2132 --_CanSM_WakeUpValidation_Substates_en	_CanSM_WakeUpValidation_Substates_en	import
                        2133 --_CanSM_TxTimeoutexception_Substates_en	_CanSM_TxTimeoutexception_Substates_en	import
                        2134 --_CanSM_ModeRepeatReq_Time_u16	_CanSM_ModeRepeatReq_Time_u16	import
                        2135 --_CanSM_ModeRepeatReq_Max_u8	_CanSM_ModeRepeatReq_Max_u8	import
                        2136 --_CanSM_ControllerState_en	_CanSM_ControllerState_en	import
                        2137 --_CanSM_Network_Init_ab	_CanSM_Network_Init_ab	import
                        2138 --_CanSM_BOR_SilentCom_ab	_CanSM_BOR_SilentCom_ab	import
                        2139 
                        2140 	.data
                        2141 	.ghsnote version,17
                        2142 	.ghsnote tools,8195
                        2143 	.ghsnote options,144
                        2144 	.text
                        2145 	.align	2
                        2146 ..eof.C.3A.5C_ECU2.5CECU_Rivian_A1.5CTarget.5Crepo_projects.5CpRealEcu.5CcR_LATEST.5Cmake.5Coutput.5Cobjects.5CCanSM_InternalStateTransition...43.3A.5C_ECU2.5CECU_Rivian_A1.5CTarget.5Crepo_projects.5CpRealEcu.5CcR_LATEST.5Cmake..65044773..0::
                        2147 	.section	.debug_info
                        2148 .Ldw_begin:
00000000 2b200000       2149 	.word	.Ldw_end-.Ldw_begin-4
00000004 0200           2150 	.byte	2,0
00000006 00000000*      2151 	.word	.Ldw_abbr_begin
0000000a 04             2152 	.byte	4
                        2153 	.section	.debug_abbrev
                        2154 .Ldw_abbr_begin:
                        2155 	.section	.debug_info
0000000b 01             2156 	.byte	1
0000000c 00000000*      2157 	.word	..bof.C.3A.5C_ECU2.5CECU_Rivian_A1.5CTarget.5Crepo_projects.5CpRealEcu.5CcR_LATEST.5Cmake.5Coutput.5Cobjects.5CCanSM_InternalStateTransition...43.3A.5C_ECU2.5CECU_Rivian_A1.5CTarget.5Crepo_projects.5CpRealEcu.5CcR_LATEST.5Cmake..65044773..0
00000010 00000000*      2158 	.word	..eof.C.3A.5C_ECU2.5CECU_Rivian_A1.5CTarget.5Crepo_projects.5CpRealEcu.5CcR_LATEST.5Cmake.5Coutput.5Cobjects.5CCanSM_InternalStateTransition...43.3A.5C_ECU2.5CECU_Rivian_A1.5CTarget.5Crepo_projects.5CpRealEcu.5CcR_LATEST.5Cmake..65044773..0
00000014 2e2e2f736f75   2159 	.strz	"../source/wrappers/SwcServiceCanSM/CanSM_InternalStateTransition.c"
0000001a 7263652f7772 
00000020 617070657273 
00000026 2f5377635365 
0000002c 727669636543 
00000032 616e534d2f43 
00000038 616e534d5f49 
0000003e 6e7465726e61 
00000044 6c5374617465 
0000004a 5472616e7369 
00000050 74696f6e2e63 

                                                                      Page 38
                                                              C:\Users\nhuliyap\AppData\Local\Temp\gh_000014o1.s
00000056 00 
00000057 433a5c5f4543   2160 	.strz	"C:\\_ECU2\\ECU_Rivian_A1\\Target\\repo_projects\\pRealEcu\\cR_LATEST\\make"
0000005d 55325c454355 
00000063 5f5269766961 
00000069 6e5f41315c54 
0000006f 61726765745c 
00000075 7265706f5f70 
0000007b 726f6a656374 
00000081 735c70526561 
00000087 6c4563755c63 
0000008d 525f4c415445 
00000093 53545c6d616b 
00000099 6500 
0000009b 474853204320   2161 	.strz	"GHS C 2015.1.7 [dual]"
000000a1 323031352e31 
000000a7 2e37205b6475 
000000ad 616c5d00 
000000b1 0100           2162 	.byte	1,0
000000b3 00000000*      2163 	.word	.Ldw_line_begin
000000b7 00000000*      2164 	.word	.Ldw_macinfo_begin
000000bb 00             2165 	.byte	0
                        2166 
                        2167 	.section	.debug_abbrev
00000000 01             2168 	.byte	1
00000001 11             2169 	.byte	17
00000002 01             2170 	.byte	1
00000003 1101           2171 	.byte	17,1
00000005 1201           2172 	.byte	18,1
00000007 0308           2173 	.byte	3,8
00000009 1b08           2174 	.byte	27,8
0000000b 2508           2175 	.byte	37,8
0000000d 1305           2176 	.byte	19,5
0000000f 1006           2177 	.byte	16,6
00000011 4306           2178 	.byte	67,6
00000013 420b           2179 	.byte	66,11
00000015 0000           2180 	.byte	0,0
                        2181 
                        2182 	.section	.debug_line
                        2183 .Ldw_line_begin:
00000000 291e0000       2184 	.word	.Ldw_line_end-.Ldw_line_begin-4
00000004 0200           2185 	.byte	2,0
00000006 00000000*      2186 	.word	.Ldw_lpro_end-.Ldw_lpro_begin
                        2187 .Ldw_lpro_begin:
0000000a 01             2188 	.byte	1
0000000b 00             2189 	.byte	0
0000000c 00             2190 	.byte	0
0000000d 04             2191 	.byte	4
0000000e 0a             2192 	.byte	10
0000000f 000101         2193 	.byte	0,1,1
00000012 010100         2194 	.byte	1,1,0
00000015 000001         2195 	.byte	0,0,1
00000018 00             2196 	.byte	0
00000019 2e2e2f736f75   2197 	.strz	"../source/wrappers/SwcServiceCanSM/CanSM_InternalStateTransition.c"
0000001f 7263652f7772 
00000025 617070657273 
0000002b 2f5377635365 
00000031 727669636543 
00000037 616e534d2f43 
0000003d 616e534d5f49 
00000043 6e7465726e61 
00000049 6c5374617465 

                                                                      Page 39
                                                              C:\Users\nhuliyap\AppData\Local\Temp\gh_000014o1.s
0000004f 5472616e7369 
00000055 74696f6e2e63 
0000005b 00 
0000005c 000000         2198 	.byte	0,0,0
0000005f 2e2e2f736f75   2199 	.strz	"../source/common/Std_Types.hpp"
00000065 7263652f636f 
0000006b 6d6d6f6e2f53 
00000071 74645f547970 
00000077 65732e687070 
0000007d 00 
0000007e 000000         2200 	.byte	0,0,0
00000081 2e2e2f736f75   2201 	.strz	"../source/common/Platform_Types.hpp"
00000087 7263652f636f 
0000008d 6d6d6f6e2f50 
00000093 6c6174666f72 
00000099 6d5f54797065 
0000009f 732e68707000 
000000a5 000000         2202 	.byte	0,0,0
000000a8 2e2e2f736f75   2203 	.strz	"../source/common/Compiler.hpp"
000000ae 7263652f636f 
000000b4 6d6d6f6e2f43 
000000ba 6f6d70696c65 
000000c0 722e68707000 
000000c6 000000         2204 	.byte	0,0,0
000000c9 2e2e2f736f75   2205 	.strz	"../source/ProjectCompiler/Compiler_Cfg.hpp"
000000cf 7263652f5072 
000000d5 6f6a65637443 
000000db 6f6d70696c65 
000000e1 722f436f6d70 
000000e7 696c65725f43 
000000ed 66672e687070 
000000f3 00 
000000f4 000000         2206 	.byte	0,0,0
000000f7 2e2e2f736f75   2207 	.strz	"../source/ProjectCompiler/CompilerCfg_SwcServiceOs.hpp"
000000fd 7263652f5072 
00000103 6f6a65637443 
00000109 6f6d70696c65 
0000010f 722f436f6d70 
00000115 696c65724366 
0000011b 675f53776353 
00000121 657276696365 
00000127 4f732e687070 
0000012d 00 
0000012e 000000         2208 	.byte	0,0,0
00000131 2e2e2f736f75   2209 	.strz	"../source/wrappers/SwcServiceCanSM/CanSM_Prv.hpp"
00000137 7263652f7772 
0000013d 617070657273 
00000143 2f5377635365 
00000149 727669636543 
0000014f 616e534d2f43 
00000155 616e534d5f50 
0000015b 72762e687070 
00000161 00 
00000162 000000         2210 	.byte	0,0,0
00000165 2e2e2f736f75   2211 	.strz	"../source/ProjectCfg/CanSM_Cfg_SchM.hpp"
0000016b 7263652f5072 
00000171 6f6a65637443 
00000177 66672f43616e 
0000017d 534d5f436667 
00000183 5f5363684d2e 
00000189 68707000 

                                                                      Page 40
                                                              C:\Users\nhuliyap\AppData\Local\Temp\gh_000014o1.s
0000018d 000000         2212 	.byte	0,0,0
00000190 2e2e2f736f75   2213 	.strz	"../source/SwcServiceSchM/SchM.hpp"
00000196 7263652f5377 
0000019c 635365727669 
000001a2 63655363684d 
000001a8 2f5363684d2e 
000001ae 68707000 
000001b2 000000         2214 	.byte	0,0,0
000001b5 2e2e2f736f75   2215 	.strz	"../source/wrappers/OS/Os.hpp"
000001bb 7263652f7772 
000001c1 617070657273 
000001c7 2f4f532f4f73 
000001cd 2e68707000 
000001d2 000000         2216 	.byte	0,0,0
000001d5 2e2e2f736f75   2217 	.strz	"../source/SwcServiceOs/Types_SwcServiceOs.hpp"
000001db 7263652f5377 
000001e1 635365727669 
000001e7 63654f732f54 
000001ed 797065735f53 
000001f3 776353657276 
000001f9 6963654f732e 
000001ff 68707000 
00000203 000000         2218 	.byte	0,0,0
00000206 2e2e2f736f75   2219 	.strz	"../source/ProjectCompiler/Os_MemMap.hpp"
0000020c 7263652f5072 
00000212 6f6a65637443 
00000218 6f6d70696c65 
0000021e 722f4f735f4d 
00000224 656d4d61702e 
0000022a 68707000 
0000022e 000000         2220 	.byte	0,0,0
00000231 2e2e2f736f75   2221 	.strz	"../source/ProjectCfg/Os_Cfg.hpp"
00000237 7263652f5072 
0000023d 6f6a65637443 
00000243 66672f4f735f 
00000249 4366672e6870 
0000024f 7000 
00000251 000000         2222 	.byte	0,0,0
00000254 2e2e2f736f75   2223 	.strz	"../source/ProjectCfg/CanSM_Cfg.hpp"
0000025a 7263652f5072 
00000260 6f6a65637443 
00000266 66672f43616e 
0000026c 534d5f436667 
00000272 2e68707000 
00000277 000000         2224 	.byte	0,0,0
0000027a 2e2e2f736f75   2225 	.strz	"../source/wrappers/SwcServiceDem/Dem.hpp"
00000280 7263652f7772 
00000286 617070657273 
0000028c 2f5377635365 
00000292 727669636544 
00000298 656d2f44656d 
0000029e 2e68707000 
000002a3 000000         2226 	.byte	0,0,0
000002a6 2e2e2f736f75   2227 	.strz	"../source/wrappers/SwcServiceDem/Dem_Types.hpp"
000002ac 7263652f7772 
000002b2 617070657273 
000002b8 2f5377635365 
000002be 727669636544 
000002c4 656d2f44656d 
000002ca 5f5479706573 
000002d0 2e68707000 

                                                                      Page 41
                                                              C:\Users\nhuliyap\AppData\Local\Temp\gh_000014o1.s
000002d5 000000         2228 	.byte	0,0,0
000002d8 2e2e2f736f75   2229 	.strz	"../source/ProjectCfg/Dem_Cfg.hpp"
000002de 7263652f5072 
000002e4 6f6a65637443 
000002ea 66672f44656d 
000002f0 5f4366672e68 
000002f6 707000 
000002f9 000000         2230 	.byte	0,0,0
000002fc 2e2e2f736f75   2231 	.strz	"../source/ProjectCfg/Dem_Cfg_Client.hpp"
00000302 7263652f5072 
00000308 6f6a65637443 
0000030e 66672f44656d 
00000314 5f4366675f43 
0000031a 6c69656e742e 
00000320 68707000 
00000324 000000         2232 	.byte	0,0,0
00000327 2e2e2f736f75   2233 	.strz	"../source/wrappers/SwcServiceDem/Dem_ClientHandlingTypes.hpp"
0000032d 7263652f7772 
00000333 617070657273 
00000339 2f5377635365 
0000033f 727669636544 
00000345 656d2f44656d 
0000034b 5f436c69656e 
00000351 7448616e646c 
00000357 696e67547970 
0000035d 65732e687070 
00000363 00 
00000364 000000         2234 	.byte	0,0,0
00000367 2e2e2f736f75   2235 	.strz	"../source/ProjectCfg/Dem_Cfg_NodeId.hpp"
0000036d 7263652f5072 
00000373 6f6a65637443 
00000379 66672f44656d 
0000037f 5f4366675f4e 
00000385 6f646549642e 
0000038b 68707000 
0000038f 000000         2236 	.byte	0,0,0
00000392 2e2e2f736f75   2237 	.strz	"../source/ProjectCfg/Dem_Cfg_Version.hpp"
00000398 7263652f5072 
0000039e 6f6a65637443 
000003a4 66672f44656d 
000003aa 5f4366675f56 
000003b0 657273696f6e 
000003b6 2e68707000 
000003bb 000000         2238 	.byte	0,0,0
000003be 2e2e2f736f75   2239 	.strz	"../source/wrappers/Rte_Dem_Type.hpp"
000003c4 7263652f7772 
000003ca 617070657273 
000003d0 2f5274655f44 
000003d6 656d5f547970 
000003dc 652e68707000 
000003e2 000000         2240 	.byte	0,0,0
000003e5 2e2e2f736f75   2241 	.strz	"../source/McalMcu/types.hpp"
000003eb 7263652f4d63 
000003f1 616c4d63752f 
000003f7 74797065732e 
000003fd 68707000 
00000401 000000         2242 	.byte	0,0,0
00000404 2e2e2f736f75   2243 	.strz	"../source/ProjectCfg/Dem_Cfg_EventId.hpp"
0000040a 7263652f5072 
00000410 6f6a65637443 
00000416 66672f44656d 

                                                                      Page 42
                                                              C:\Users\nhuliyap\AppData\Local\Temp\gh_000014o1.s
0000041c 5f4366675f45 
00000422 76656e744964 
00000428 2e68707000 
0000042d 000000         2244 	.byte	0,0,0
00000430 2e2e2f736f75   2245 	.strz	"../source/ProjectCfg/Dem_Cfg_DtcId.hpp"
00000436 7263652f5072 
0000043c 6f6a65637443 
00000442 66672f44656d 
00000448 5f4366675f44 
0000044e 746349642e68 
00000454 707000 
00000457 000000         2246 	.byte	0,0,0
0000045a 2e2e2f736f75   2247 	.strz	"../source/ProjectCfg/Dem_Cfg_Main.hpp"
00000460 7263652f5072 
00000466 6f6a65637443 
0000046c 66672f44656d 
00000472 5f4366675f4d 
00000478 61696e2e6870 
0000047e 7000 
00000480 000000         2248 	.byte	0,0,0
00000483 2e2e2f736f75   2249 	.strz	"../source/ProjectCfg/Dem_Cfg_Deb.hpp"
00000489 7263652f5072 
0000048f 6f6a65637443 
00000495 66672f44656d 
0000049b 5f4366675f44 
000004a1 65622e687070 
000004a7 00 
000004a8 000000         2250 	.byte	0,0,0
000004ab 2e2e2f736f75   2251 	.strz	"../source/ProjectCfg/Dem_Cfg_EnableCondition.hpp"
000004b1 7263652f5072 
000004b7 6f6a65637443 
000004bd 66672f44656d 
000004c3 5f4366675f45 
000004c9 6e61626c6543 
000004cf 6f6e64697469 
000004d5 6f6e2e687070 
000004db 00 
000004dc 000000         2252 	.byte	0,0,0
000004df 2e2e2f736f75   2253 	.strz	"../source/ProjectCfg/Dem_Cfg_EventCategory.hpp"
000004e5 7263652f5072 
000004eb 6f6a65637443 
000004f1 66672f44656d 
000004f7 5f4366675f45 
000004fd 76656e744361 
00000503 7465676f7279 
00000509 2e68707000 
0000050e 000000         2254 	.byte	0,0,0
00000511 2e2e2f736f75   2255 	.strz	"../source/ProjectCfg/Dem_Cfg_EventIndicators.hpp"
00000517 7263652f5072 
0000051d 6f6a65637443 
00000523 66672f44656d 
00000529 5f4366675f45 
0000052f 76656e74496e 
00000535 64696361746f 
0000053b 72732e687070 
00000541 00 
00000542 000000         2256 	.byte	0,0,0
00000545 2e2e2f736f75   2257 	.strz	"../source/ProjectCfg/Dem_Cfg_OperationCycle.hpp"
0000054b 7263652f5072 
00000551 6f6a65637443 
00000557 66672f44656d 

                                                                      Page 43
                                                              C:\Users\nhuliyap\AppData\Local\Temp\gh_000014o1.s
0000055d 5f4366675f4f 
00000563 706572617469 
00000569 6f6e4379636c 
0000056f 652e68707000 
00000575 000000         2258 	.byte	0,0,0
00000578 2e2e2f736f75   2259 	.strz	"../source/wrappers/LibAutosarDiag/rba_DiagLib_Bits8.hpp"
0000057e 7263652f7772 
00000584 617070657273 
0000058a 2f4c69624175 
00000590 746f73617244 
00000596 6961672f7262 
0000059c 615f44696167 
000005a2 4c69625f4269 
000005a8 7473382e6870 
000005ae 7000 
000005b0 000000         2260 	.byte	0,0,0
000005b3 2e2e2f736f75   2261 	.strz	"../source/wrappers/LibAutosarDiag/rba_DiagLib_Bits16.hpp"
000005b9 7263652f7772 
000005bf 617070657273 
000005c5 2f4c69624175 
000005cb 746f73617244 
000005d1 6961672f7262 
000005d7 615f44696167 
000005dd 4c69625f4269 
000005e3 747331362e68 
000005e9 707000 
000005ec 000000         2262 	.byte	0,0,0
000005ef 2e2e2f736f75   2263 	.strz	"../source/wrappers/LibAutosarDiag/rba_DiagLib_Bits32.hpp"
000005f5 7263652f7772 
000005fb 617070657273 
00000601 2f4c69624175 
00000607 746f73617244 
0000060d 6961672f7262 
00000613 615f44696167 
00000619 4c69625f4269 
0000061f 747333322e68 
00000625 707000 
00000628 000000         2264 	.byte	0,0,0
0000062b 2e2e2f736f75   2265 	.strz	"../source/ProjectCfg/Dem_Cfg_StorageCondition.hpp"
00000631 7263652f5072 
00000637 6f6a65637443 
0000063d 66672f44656d 
00000643 5f4366675f53 
00000649 746f72616765 
0000064f 436f6e646974 
00000655 696f6e2e6870 
0000065b 7000 
0000065d 000000         2266 	.byte	0,0,0
00000660 2e2e2f736f75   2267 	.strz	"../source/wrappers/SwcServiceDem/Dem_Dlt.hpp"
00000666 7263652f7772 
0000066c 617070657273 
00000672 2f5377635365 
00000678 727669636544 
0000067e 656d2f44656d 
00000684 5f446c742e68 
0000068a 707000 
0000068d 000000         2268 	.byte	0,0,0
00000690 2e2e2f736f75   2269 	.strz	"../source/ProjectCompiler/Dem_Cfg_MemMap.hpp"
00000696 7263652f5072 
0000069c 6f6a65637443 
000006a2 6f6d70696c65 

                                                                      Page 44
                                                              C:\Users\nhuliyap\AppData\Local\Temp\gh_000014o1.s
000006a8 722f44656d5f 
000006ae 4366675f4d65 
000006b4 6d4d61702e68 
000006ba 707000 
000006bd 000000         2270 	.byte	0,0,0
000006c0 2e2e2f736f75   2271 	.strz	"../source/ProjectCompiler/Bsw_MemMap.hpp"
000006c6 7263652f5072 
000006cc 6f6a65637443 
000006d2 6f6d70696c65 
000006d8 722f4273775f 
000006de 4d656d4d6170 
000006e4 2e68707000 
000006e9 000000         2272 	.byte	0,0,0
000006ec 2e2e2f736f75   2273 	.strz	"../source/ProjectCompiler/MemMap_Common.hpp"
000006f2 7263652f5072 
000006f8 6f6a65637443 
000006fe 6f6d70696c65 
00000704 722f4d656d4d 
0000070a 61705f436f6d 
00000710 6d6f6e2e6870 
00000716 7000 
00000718 000000         2274 	.byte	0,0,0
0000071b 2e2e2f736f75   2275 	.strz	"../source/wrappers/SwcServiceDem/Dem_Dcm.hpp"
00000721 7263652f7772 
00000727 617070657273 
0000072d 2f5377635365 
00000733 727669636544 
00000739 656d2f44656d 
0000073f 5f44636d2e68 
00000745 707000 
00000748 000000         2276 	.byte	0,0,0
0000074b 2e2e2f736f75   2277 	.strz	"../source/wrappers/SwcServiceDcm/Dcm_Types.hpp"
00000751 7263652f7772 
00000757 617070657273 
0000075d 2f5377635365 
00000763 727669636544 
00000769 636d2f44636d 
0000076f 5f5479706573 
00000775 2e68707000 
0000077a 000000         2278 	.byte	0,0,0
0000077d 2e2e2f736f75   2279 	.strz	"../source/wrappers/Rte_Dcm_Type.hpp"
00000783 7263652f7772 
00000789 617070657273 
0000078f 2f5274655f44 
00000795 636d5f547970 
0000079b 652e68707000 
000007a1 000000         2280 	.byte	0,0,0
000007a4 2e2e2f736f75   2281 	.strz	"../source/wrappers/SwcServiceDem/Dem_J1939Dcm.hpp"
000007aa 7263652f7772 
000007b0 617070657273 
000007b6 2f5377635365 
000007bc 727669636544 
000007c2 656d2f44656d 
000007c8 5f4a31393339 
000007ce 44636d2e6870 
000007d4 7000 
000007d6 000000         2282 	.byte	0,0,0
000007d9 2e2e2f736f75   2283 	.strz	"../source/ProjectCompiler/CanSM_MemMap.hpp"
000007df 7263652f5072 
000007e5 6f6a65637443 
000007eb 6f6d70696c65 

                                                                      Page 45
                                                              C:\Users\nhuliyap\AppData\Local\Temp\gh_000014o1.s
000007f1 722f43616e53 
000007f7 4d5f4d656d4d 
000007fd 61702e687070 
00000803 00 
00000804 000000         2284 	.byte	0,0,0
00000807 2e2e2f736f75   2285 	.strz	"../source/wrappers/SwcServiceCanSM/CanSM.hpp"
0000080d 7263652f7772 
00000813 617070657273 
00000819 2f5377635365 
0000081f 727669636543 
00000825 616e534d2f43 
0000082b 616e534d2e68 
00000831 707000 
00000834 000000         2286 	.byte	0,0,0
00000837 2e2e2f736f75   2287 	.strz	"../source/ProjectCfg/CfgSwcServiceCanSM.hpp"
0000083d 7263652f5072 
00000843 6f6a65637443 
00000849 66672f436667 
0000084f 537763536572 
00000855 766963654361 
0000085b 6e534d2e6870 
00000861 7000 
00000863 000000         2288 	.byte	0,0,0
00000866 2e2e2f736f75   2289 	.strz	"../source/SwcServiceCom/ComStack_Types.hpp"
0000086c 7263652f5377 
00000872 635365727669 
00000878 6365436f6d2f 
0000087e 436f6d537461 
00000884 636b5f547970 
0000088a 65732e687070 
00000890 00 
00000891 000000         2290 	.byte	0,0,0
00000894 2e2e2f736f75   2291 	.strz	"../source/ProjectCfg/ComStack_Cfg.hpp"
0000089a 7263652f5072 
000008a0 6f6a65637443 
000008a6 66672f436f6d 
000008ac 537461636b5f 
000008b2 4366672e6870 
000008b8 7000 
000008ba 000000         2292 	.byte	0,0,0
000008bd 2e2e2f736f75   2293 	.strz	"../source/wrappers/SwcServiceComM/ComM.hpp"
000008c3 7263652f7772 
000008c9 617070657273 
000008cf 2f5377635365 
000008d5 727669636543 
000008db 6f6d4d2f436f 
000008e1 6d4d2e687070 
000008e7 00 
000008e8 000000         2294 	.byte	0,0,0
000008eb 2e2e2f736f75   2295 	.strz	"../source/ProjectCfg/ComM_Cfg.hpp"
000008f1 7263652f5072 
000008f7 6f6a65637443 
000008fd 66672f436f6d 
00000903 4d5f4366672e 
00000909 68707000 
0000090d 000000         2296 	.byte	0,0,0
00000910 2e2e2f736f75   2297 	.strz	"../source/wrappers/SwcServiceComM/ComM_Types.hpp"
00000916 7263652f7772 
0000091c 617070657273 
00000922 2f5377635365 
00000928 727669636543 

                                                                      Page 46
                                                              C:\Users\nhuliyap\AppData\Local\Temp\gh_000014o1.s
0000092e 6f6d4d2f436f 
00000934 6d4d5f547970 
0000093a 65732e687070 
00000940 00 
00000941 000000         2298 	.byte	0,0,0
00000944 2e2e2f736f75   2299 	.strz	"../source/wrappers/Rte_ComM_Type.hpp"
0000094a 7263652f7772 
00000950 617070657273 
00000956 2f5274655f43 
0000095c 6f6d4d5f5479 
00000962 70652e687070 
00000968 00 
00000969 000000         2300 	.byte	0,0,0
0000096c 2e2e2f736f75   2301 	.strz	"../source/wrappers/SwcServiceComM/ComM_Dcm.hpp"
00000972 7263652f7772 
00000978 617070657273 
0000097e 2f5377635365 
00000984 727669636543 
0000098a 6f6d4d2f436f 
00000990 6d4d5f44636d 
00000996 2e68707000 
0000099b 000000         2302 	.byte	0,0,0
0000099e 2e2e2f736f75   2303 	.strz	"../source/ProjectCompiler/ComM_Cfg_MemMap.hpp"
000009a4 7263652f5072 
000009aa 6f6a65637443 
000009b0 6f6d70696c65 
000009b6 722f436f6d4d 
000009bc 5f4366675f4d 
000009c2 656d4d61702e 
000009c8 68707000 
000009cc 000000         2304 	.byte	0,0,0
000009cf 2e2e2f736f75   2305 	.strz	"../source/wrappers/SwcServiceComM/ComM_BusSM.hpp"
000009d5 7263652f7772 
000009db 617070657273 
000009e1 2f5377635365 
000009e7 727669636543 
000009ed 6f6d4d2f436f 
000009f3 6d4d5f427573 
000009f9 534d2e687070 
000009ff 00 
00000a00 000000         2306 	.byte	0,0,0
00000a03 2e2e2f736f75   2307 	.strz	"../source/wrappers/SwcServiceComM/ComM_EcuMBswM.hpp"
00000a09 7263652f7772 
00000a0f 617070657273 
00000a15 2f5377635365 
00000a1b 727669636543 
00000a21 6f6d4d2f436f 
00000a27 6d4d5f456375 
00000a2d 4d4273774d2e 
00000a33 68707000 
00000a37 000000         2308 	.byte	0,0,0
00000a3a 2e2e2f736f75   2309 	.strz	"../source/wrappers/SwcServiceComM/ComM_Nm.hpp"
00000a40 7263652f7772 
00000a46 617070657273 
00000a4c 2f5377635365 
00000a52 727669636543 
00000a58 6f6d4d2f436f 
00000a5e 6d4d5f4e6d2e 
00000a64 68707000 
00000a68 000000         2310 	.byte	0,0,0
00000a6b 2e2e2f736f75   2311 	.strz	"../source/wrappers/SwcServiceComM/ComM_Main.hpp"

                                                                      Page 47
                                                              C:\Users\nhuliyap\AppData\Local\Temp\gh_000014o1.s
00000a71 7263652f7772 
00000a77 617070657273 
00000a7d 2f5377635365 
00000a83 727669636543 
00000a89 6f6d4d2f436f 
00000a8f 6d4d5f4d6169 
00000a95 6e2e68707000 
00000a9b 000000         2312 	.byte	0,0,0
00000a9e 2e2e2f736f75   2313 	.strz	"../source/ProjectCfg/CfgSwcServiceComM.hpp"
00000aa4 7263652f5072 
00000aaa 6f6a65637443 
00000ab0 66672f436667 
00000ab6 537763536572 
00000abc 76696365436f 
00000ac2 6d4d2e687070 
00000ac8 00 
00000ac9 000000         2314 	.byte	0,0,0
00000acc 2e2e2f736f75   2315 	.strz	"../source/SwcServiceBswM/BswM_CanSM.hpp"
00000ad2 7263652f5377 
00000ad8 635365727669 
00000ade 63654273774d 
00000ae4 2f4273774d5f 
00000aea 43616e534d2e 
00000af0 68707000 
00000af4 000000         2316 	.byte	0,0,0
00000af7 2e2e2f736f75   2317 	.strz	"../source/wrappers/SwcServiceCanSM/CanSM_Bswm.hpp"
00000afd 7263652f7772 
00000b03 617070657273 
00000b09 2f5377635365 
00000b0f 727669636543 
00000b15 616e534d2f43 
00000b1b 616e534d5f42 
00000b21 73776d2e6870 
00000b27 7000 
00000b29 000000         2318 	.byte	0,0,0
00000b2c 2e2e2f736f75   2319 	.strz	"../source/wrappers/SwcServiceCanSM/CanSM_Cbk.hpp"
00000b32 7263652f7772 
00000b38 617070657273 
00000b3e 2f5377635365 
00000b44 727669636543 
00000b4a 616e534d2f43 
00000b50 616e534d5f43 
00000b56 626b2e687070 
00000b5c 00 
00000b5d 000000         2320 	.byte	0,0,0
00000b60 2e2e2f736f75   2321 	.strz	"../source/wrappers/EcuabCanIf/CanIf.hpp"
00000b66 7263652f7772 
00000b6c 617070657273 
00000b72 2f4563756162 
00000b78 43616e49662f 
00000b7e 43616e49662e 
00000b84 68707000 
00000b88 000000         2322 	.byte	0,0,0
00000b8b 2e2e2f736f75   2323 	.strz	"../source/wrappers/EcuabCanIf/CanIf_Types.hpp"
00000b91 7263652f7772 
00000b97 617070657273 
00000b9d 2f4563756162 
00000ba3 43616e49662f 
00000ba9 43616e49665f 
00000baf 54797065732e 
00000bb5 68707000 

                                                                      Page 48
                                                              C:\Users\nhuliyap\AppData\Local\Temp\gh_000014o1.s
00000bb9 000000         2324 	.byte	0,0,0
00000bbc 2e2e2f736f75   2325 	.strz	"../source/wrappers/EcuabCanIf/Can_GeneralTypes.hpp"
00000bc2 7263652f7772 
00000bc8 617070657273 
00000bce 2f4563756162 
00000bd4 43616e49662f 
00000bda 43616e5f4765 
00000be0 6e6572616c54 
00000be6 797065732e68 
00000bec 707000 
00000bef 000000         2326 	.byte	0,0,0
00000bf2 2e2e2f736f75   2327 	.strz	"../source/ProjectCfg/CanIf_Cfg.hpp"
00000bf8 7263652f5072 
00000bfe 6f6a65637443 
00000c04 66672f43616e 
00000c0a 49665f436667 
00000c10 2e68707000 
00000c15 000000         2328 	.byte	0,0,0
00000c18 2e2e2f736f75   2329 	.strz	"../source/ProjectCfg/CfgEcuabCanIf.hpp"
00000c1e 7263652f5072 
00000c24 6f6a65637443 
00000c2a 66672f436667 
00000c30 456375616243 
00000c36 616e49662e68 
00000c3c 707000 
00000c3f 000000         2330 	.byte	0,0,0
00000c42 2e2e2f736f75   2331 	.strz	"../source/wrappers/SwcServiceEcuM/EcuM_Cbk.hpp"
00000c48 7263652f7772 
00000c4e 617070657273 
00000c54 2f5377635365 
00000c5a 727669636545 
00000c60 63754d2f4563 
00000c66 754d5f43626b 
00000c6c 2e68707000 
00000c71 000000         2332 	.byte	0,0,0
00000c74 2e2e2f736f75   2333 	.strz	"../source/wrappers/SwcServiceEcuM/EcuM_Types.hpp"
00000c7a 7263652f7772 
00000c80 617070657273 
00000c86 2f5377635365 
00000c8c 727669636545 
00000c92 63754d2f4563 
00000c98 754d5f547970 
00000c9e 65732e687070 
00000ca4 00 
00000ca5 000000         2334 	.byte	0,0,0
00000ca8 2e2e2f736f75   2335 	.strz	"../source/ProjectCfg/EcuM_Cfg.hpp"
00000cae 7263652f5072 
00000cb4 6f6a65637443 
00000cba 66672f456375 
00000cc0 4d5f4366672e 
00000cc6 68707000 
00000cca 000000         2336 	.byte	0,0,0
00000ccd 2e2e2f736f75   2337 	.strz	"../source/ProjectCfg/CfgMcalMcu.hpp"
00000cd3 7263652f5072 
00000cd9 6f6a65637443 
00000cdf 66672f436667 
00000ce5 4d63616c4d63 
00000ceb 752e68707000 
00000cf1 000000         2338 	.byte	0,0,0
00000cf4 2e2e2f736f75   2339 	.strz	"../source/ProjectCfg/CfgSwcServiceEcuM.hpp"
00000cfa 7263652f5072 

                                                                      Page 49
                                                              C:\Users\nhuliyap\AppData\Local\Temp\gh_000014o1.s
00000d00 6f6a65637443 
00000d06 66672f436667 
00000d0c 537763536572 
00000d12 766963654563 
00000d18 754d2e687070 
00000d1e 00 
00000d1f 000000         2340 	.byte	0,0,0
00000d22 2e2e2f736f75   2341 	.strz	"../source/ProjectCompiler/CompilerCfg_SwcServiceEcuM.hpp"
00000d28 7263652f5072 
00000d2e 6f6a65637443 
00000d34 6f6d70696c65 
00000d3a 722f436f6d70 
00000d40 696c65724366 
00000d46 675f53776353 
00000d4c 657276696365 
00000d52 4563754d2e68 
00000d58 707000 
00000d5b 000000         2342 	.byte	0,0,0
00000d5e 2e2e2f736f75   2343 	.strz	"../source/SwcServiceEcuM/Types_SwcServiceEcuM.hpp"
00000d64 7263652f5377 
00000d6a 635365727669 
00000d70 63654563754d 
00000d76 2f5479706573 
00000d7c 5f5377635365 
00000d82 727669636545 
00000d88 63754d2e6870 
00000d8e 7000 
00000d90 000000         2344 	.byte	0,0,0
00000d93 2e2e2f736f75   2345 	.strz	"../source/ProjectCfg/CfgSwcServiceBswM.hpp"
00000d99 7263652f5072 
00000d9f 6f6a65637443 
00000da5 66672f436667 
00000dab 537763536572 
00000db1 766963654273 
00000db7 774d2e687070 
00000dbd 00 
00000dbe 000000         2346 	.byte	0,0,0
00000dc1 2e2e2f736f75   2347 	.strz	"../source/ProjectCfg/CfgSwcServiceCanTp.hpp"
00000dc7 7263652f5072 
00000dcd 6f6a65637443 
00000dd3 66672f436667 
00000dd9 537763536572 
00000ddf 766963654361 
00000de5 6e54702e6870 
00000deb 7000 
00000ded 000000         2348 	.byte	0,0,0
00000df0 2e2e2f736f75   2349 	.strz	"../source/wrappers/SwcServiceCanTp_PreCompile/CanTp_Types.hpp"
00000df6 7263652f7772 
00000dfc 617070657273 
00000e02 2f5377635365 
00000e08 727669636543 
00000e0e 616e54705f50 
00000e14 7265436f6d70 
00000e1a 696c652f4361 
00000e20 6e54705f5479 
00000e26 7065732e6870 
00000e2c 7000 
00000e2e 000000         2350 	.byte	0,0,0
00000e31 2e2e2f736f75   2351 	.strz	"../source/ProjectCfg/CfgSwcServiceCom.hpp"
00000e37 7263652f5072 
00000e3d 6f6a65637443 

                                                                      Page 50
                                                              C:\Users\nhuliyap\AppData\Local\Temp\gh_000014o1.s
00000e43 66672f436667 
00000e49 537763536572 
00000e4f 76696365436f 
00000e55 6d2e68707000 
00000e5b 000000         2352 	.byte	0,0,0
00000e5e 2e2e2f736f75   2353 	.strz	"../source/ProjectCfg/CfgSwcServiceFiM.hpp"
00000e64 7263652f5072 
00000e6a 6f6a65637443 
00000e70 66672f436667 
00000e76 537763536572 
00000e7c 766963654669 
00000e82 4d2e68707000 
00000e88 000000         2354 	.byte	0,0,0
00000e8b 2e2e2f736f75   2355 	.strz	"../source/SwcServiceFiM/FiM_Types.hpp"
00000e91 7263652f5377 
00000e97 635365727669 
00000e9d 636546694d2f 
00000ea3 46694d5f5479 
00000ea9 7065732e6870 
00000eaf 7000 
00000eb1 000000         2356 	.byte	0,0,0
00000eb4 2e2e2f736f75   2357 	.strz	"../source/wrappers/Rte_FiM_Type.hpp"
00000eba 7263652f7772 
00000ec0 617070657273 
00000ec6 2f5274655f46 
00000ecc 694d5f547970 
00000ed2 652e68707000 
00000ed8 000000         2358 	.byte	0,0,0
00000edb 2e2e2f736f75   2359 	.strz	"../source/ProjectCfg/CfgSwcServiceOs.hpp"
00000ee1 7263652f5072 
00000ee7 6f6a65637443 
00000eed 66672f436667 
00000ef3 537763536572 
00000ef9 766963654f73 
00000eff 2e68707000 
00000f04 000000         2360 	.byte	0,0,0
00000f07 2e2e2f736f75   2361 	.strz	"../source/ProjectCfg/CfgSwcServicePduR.hpp"
00000f0d 7263652f5072 
00000f13 6f6a65637443 
00000f19 66672f436667 
00000f1f 537763536572 
00000f25 766963655064 
00000f2b 75522e687070 
00000f31 00 
00000f32 000000         2362 	.byte	0,0,0
00000f35 2e2e2f736f75   2363 	.strz	"../source/McalMcu/infMcalMcuSwcApplEcuM.hpp"
00000f3b 7263652f4d63 
00000f41 616c4d63752f 
00000f47 696e664d6361 
00000f4d 6c4d63755377 
00000f53 634170706c45 
00000f59 63754d2e6870 
00000f5f 7000 
00000f61 000000         2364 	.byte	0,0,0
00000f64 2e2e2f736f75   2365 	.strz	"../source/ProjectCompiler/CompilerCfg_McalMcu.hpp"
00000f6a 7263652f5072 
00000f70 6f6a65637443 
00000f76 6f6d70696c65 
00000f7c 722f436f6d70 
00000f82 696c65724366 
00000f88 675f4d63616c 

                                                                      Page 51
                                                              C:\Users\nhuliyap\AppData\Local\Temp\gh_000014o1.s
00000f8e 4d63752e6870 
00000f94 7000 
00000f96 000000         2366 	.byte	0,0,0
00000f99 2e2e2f736f75   2367 	.strz	"../source/ProjectCompiler/EcuM_Cfg_MemMap.hpp"
00000f9f 7263652f5072 
00000fa5 6f6a65637443 
00000fab 6f6d70696c65 
00000fb1 722f4563754d 
00000fb7 5f4366675f4d 
00000fbd 656d4d61702e 
00000fc3 68707000 
00000fc7 000000         2368 	.byte	0,0,0
00000fca 2e2e2f736f75   2369 	.strz	"../source/wrappers/SwcServiceEcuM/EcuM_RunTime.hpp"
00000fd0 7263652f7772 
00000fd6 617070657273 
00000fdc 2f5377635365 
00000fe2 727669636545 
00000fe8 63754d2f4563 
00000fee 754d5f52756e 
00000ff4 54696d652e68 
00000ffa 707000 
00000ffd 000000         2370 	.byte	0,0,0
00001000 2e2e2f736f75   2371 	.strz	"../source/wrappers/rba_BswSrv/rba_BswSrv.hpp"
00001006 7263652f7772 
0000100c 617070657273 
00001012 2f7262615f42 
00001018 73775372762f 
0000101e 7262615f4273 
00001024 775372762e68 
0000102a 707000 
0000102d 000000         2372 	.byte	0,0,0
00001030 2e2e2f736f75   2373 	.strz	"../source/ProjectCompiler/rba_BswSrv_MemMap.hpp"
00001036 7263652f5072 
0000103c 6f6a65637443 
00001042 6f6d70696c65 
00001048 722f7262615f 
0000104e 427377537276 
00001054 5f4d656d4d61 
0000105a 702e68707000 
00001060 000000         2374 	.byte	0,0,0
00001063 2e2e2f736f75   2375 	.strz	"../source/wrappers/SwcServiceEcuM/EcuM_Generated_Types.hpp"
00001069 7263652f7772 
0000106f 617070657273 
00001075 2f5377635365 
0000107b 727669636545 
00001081 63754d2f4563 
00001087 754d5f47656e 
0000108d 657261746564 
00001093 5f5479706573 
00001099 2e68707000 
0000109e 000000         2376 	.byte	0,0,0
000010a1 2e2e2f736f75   2377 	.strz	"../source/ProjectCfg/EcuM_Cfg_Version.hpp"
000010a7 7263652f5072 
000010ad 6f6a65637443 
000010b3 66672f456375 
000010b9 4d5f4366675f 
000010bf 56657273696f 
000010c5 6e2e68707000 
000010cb 000000         2378 	.byte	0,0,0
000010ce 2e2e2f736f75   2379 	.strz	"../source/ProjectCompiler/CanIf_MemMap.hpp"
000010d4 7263652f5072 

                                                                      Page 52
                                                              C:\Users\nhuliyap\AppData\Local\Temp\gh_000014o1.s
000010da 6f6a65637443 
000010e0 6f6d70696c65 
000010e6 722f43616e49 
000010ec 665f4d656d4d 
000010f2 61702e687070 
000010f8 00 
000010f9 000000         2380 	.byte	0,0,0
000010fc 2e2e2f736f75   2381 	.strz	"../source/wrappers/SwcServiceCanSM/CanSM_ComM.hpp"
00001102 7263652f7772 
00001108 617070657273 
0000110e 2f5377635365 
00001114 727669636543 
0000111a 616e534d2f43 
00001120 616e534d5f43 
00001126 6f6d4d2e6870 
0000112c 7000 
0000112e 000000         2382 	.byte	0,0,0
00001131 2e2e2f736f75   2383 	.strz	"../source/wrappers/SwcServiceCanSM/CanSM_TxTimeoutException.hpp"
00001137 7263652f7772 
0000113d 617070657273 
00001143 2f5377635365 
00001149 727669636543 
0000114f 616e534d2f43 
00001155 616e534d5f54 
0000115b 7854696d656f 
00001161 757445786365 
00001167 7074696f6e2e 
0000116d 68707000 
00001171 000000         2384 	.byte	0,0,0
00001174 00             2385 	.byte	0
                        2386 .Ldw_lpro_end:
                        2387 	.section	.debug_macinfo
                        2388 .Ldw_macinfo_begin:
                        2389 	.section	.debug_frame
                        2390 .LDW_4ea4258:
00000000 00000000*      2391 	.word	.LDW_unq_2-.LDW_unq_1
                        2392 .LDW_unq_1:
00000004 ffffffff       2393 	.byte	255,255,255,255
00000008 01             2394 	.byte	1
00000009 00             2395 	.byte	0
0000000a 01             2396 	.byte	1
0000000b 01             2397 	.byte	1
0000000c 1f             2398 	.byte	31
0000000d 0c             2399 	.byte	12
0000000e 03             2400 	.byte	3
0000000f 00             2401 	.byte	0
00000010 07             2402 	.byte	7
00000011 00             2403 	.byte	0
00000012 07             2404 	.byte	7
00000013 01             2405 	.byte	1
00000014 07             2406 	.byte	7
00000015 02             2407 	.byte	2
00000016 07             2408 	.byte	7
00000017 03             2409 	.byte	3
00000018 07             2410 	.byte	7
00000019 04             2411 	.byte	4
0000001a 07             2412 	.byte	7
0000001b 05             2413 	.byte	5
0000001c 07             2414 	.byte	7
0000001d 06             2415 	.byte	6
0000001e 07             2416 	.byte	7

                                                                      Page 53
                                                              C:\Users\nhuliyap\AppData\Local\Temp\gh_000014o1.s
0000001f 07             2417 	.byte	7
00000020 07             2418 	.byte	7
00000021 08             2419 	.byte	8
00000022 07             2420 	.byte	7
00000023 09             2421 	.byte	9
00000024 07             2422 	.byte	7
00000025 0a             2423 	.byte	10
00000026 07             2424 	.byte	7
00000027 0b             2425 	.byte	11
00000028 07             2426 	.byte	7
00000029 0c             2427 	.byte	12
0000002a 07             2428 	.byte	7
0000002b 0d             2429 	.byte	13
0000002c 07             2430 	.byte	7
0000002d 0e             2431 	.byte	14
0000002e 07             2432 	.byte	7
0000002f 0f             2433 	.byte	15
00000030 07             2434 	.byte	7
00000031 10             2435 	.byte	16
00000032 07             2436 	.byte	7
00000033 11             2437 	.byte	17
00000034 07             2438 	.byte	7
00000035 12             2439 	.byte	18
00000036 07             2440 	.byte	7
00000037 13             2441 	.byte	19
00000038 08             2442 	.byte	8
00000039 14             2443 	.byte	20
0000003a 08             2444 	.byte	8
0000003b 15             2445 	.byte	21
0000003c 08             2446 	.byte	8
0000003d 16             2447 	.byte	22
0000003e 08             2448 	.byte	8
0000003f 17             2449 	.byte	23
00000040 08             2450 	.byte	8
00000041 18             2451 	.byte	24
00000042 08             2452 	.byte	8
00000043 19             2453 	.byte	25
00000044 08             2454 	.byte	8
00000045 1a             2455 	.byte	26
00000046 08             2456 	.byte	8
00000047 1b             2457 	.byte	27
00000048 08             2458 	.byte	8
00000049 1c             2459 	.byte	28
0000004a 08             2460 	.byte	8
0000004b 1d             2461 	.byte	29
0000004c 07             2462 	.byte	7
0000004d 1e             2463 	.byte	30
0000004e 08             2464 	.byte	8
0000004f 1f             2465 	.byte	31
00000050 07             2466 	.byte	7
00000051 20             2467 	.byte	32
00000052 07             2468 	.byte	7
00000053 21             2469 	.byte	33
00000054 07             2470 	.byte	7
00000055 22             2471 	.byte	34
00000056 07             2472 	.byte	7
00000057 23             2473 	.byte	35
00000058 07             2474 	.byte	7
00000059 24             2475 	.byte	36
0000005a 07             2476 	.byte	7
0000005b 25             2477 	.byte	37

                                                                      Page 54
                                                              C:\Users\nhuliyap\AppData\Local\Temp\gh_000014o1.s
0000005c 07             2478 	.byte	7
0000005d 26             2479 	.byte	38
0000005e 07             2480 	.byte	7
0000005f 27             2481 	.byte	39
00000060 07             2482 	.byte	7
00000061 28             2483 	.byte	40
00000062 07             2484 	.byte	7
00000063 29             2485 	.byte	41
00000064 07             2486 	.byte	7
00000065 2a             2487 	.byte	42
00000066 07             2488 	.byte	7
00000067 2b             2489 	.byte	43
00000068 07             2490 	.byte	7
00000069 2c             2491 	.byte	44
0000006a 07             2492 	.byte	7
0000006b 2d             2493 	.byte	45
0000006c 07             2494 	.byte	7
0000006d 2e             2495 	.byte	46
0000006e 07             2496 	.byte	7
0000006f 2f             2497 	.byte	47
00000070 07             2498 	.byte	7
00000071 30             2499 	.byte	48
00000072 07             2500 	.byte	7
00000073 31             2501 	.byte	49
00000074 07             2502 	.byte	7
00000075 32             2503 	.byte	50
00000076 07             2504 	.byte	7
00000077 33             2505 	.byte	51
00000078 07             2506 	.byte	7
00000079 34             2507 	.byte	52
0000007a 07             2508 	.byte	7
0000007b 35             2509 	.byte	53
0000007c 07             2510 	.byte	7
0000007d 36             2511 	.byte	54
0000007e 07             2512 	.byte	7
0000007f 37             2513 	.byte	55
00000080 07             2514 	.byte	7
00000081 38             2515 	.byte	56
00000082 07             2516 	.byte	7
00000083 39             2517 	.byte	57
00000084 07             2518 	.byte	7
00000085 3a             2519 	.byte	58
00000086 07             2520 	.byte	7
00000087 3b             2521 	.byte	59
00000088 07             2522 	.byte	7
00000089 3c             2523 	.byte	60
0000008a 07             2524 	.byte	7
0000008b 3d             2525 	.byte	61
0000008c 07             2526 	.byte	7
0000008d 3e             2527 	.byte	62
0000008e 07             2528 	.byte	7
0000008f 3f             2529 	.byte	63
                        2530 .LDW_unq_2:
                        2531 	.section	.debug_info
                        2532 .LDW_4097028:
000000bc 25             2533 	.byte	37
000000bd 756e7369676e   2534 	.strz	"unsigned char"
000000c3 656420636861 
000000c9 7200 
000000cb 08             2535 	.byte	8
000000cc 01             2536 	.byte	1

                                                                      Page 55
                                                              C:\Users\nhuliyap\AppData\Local\Temp\gh_000014o1.s
                        2537 
                        2538 	.section	.debug_abbrev
00000017 25             2539 	.byte	37
00000018 24             2540 	.byte	36
00000019 00             2541 	.byte	0
0000001a 0308           2542 	.byte	3,8
0000001c 3e0b           2543 	.byte	62,11
0000001e 0b0b           2544 	.byte	11,11
00000020 0000           2545 	.byte	0,0
                        2546 
                        2547 	.section	.debug_info
                        2548 .LDW_4097140:
000000cd 2f             2549 	.byte	47
000000ce 00000000*      2550 	.word	.LDW_4c40190
                        2551 
                        2552 	.section	.debug_abbrev
00000022 2f             2553 	.byte	47
00000023 0f             2554 	.byte	15
00000024 00             2555 	.byte	0
00000025 4910           2556 	.byte	73,16
00000027 0000           2557 	.byte	0,0
                        2558 
                        2559 	.section	.debug_info
                        2560 .LDW_4097060:
000000d2 25             2561 	.byte	37
000000d3 756e7369676e   2562 	.strz	"unsigned short"
000000d9 65642073686f 
000000df 727400 
000000e2 07             2563 	.byte	7
000000e3 02             2564 	.byte	2
                        2565 
                        2566 .LDW_4ccb7e8:
000000e4 45             2567 	.byte	69
000000e5 01             2568 	.byte	1
                        2569 
                        2570 	.section	.debug_abbrev
00000029 45             2571 	.byte	69
0000002a 15             2572 	.byte	21
0000002b 01             2573 	.byte	1
0000002c 270c           2574 	.byte	39,12
0000002e 0000           2575 	.byte	0,0
                        2576 
                        2577 	.section	.debug_info
000000e6 00             2578 	.byte	0
                        2579 
                        2580 .LDW_4ccbe78:
000000e7 45             2581 	.byte	69
000000e8 01             2582 	.byte	1
                        2583 
000000e9 00             2584 	.byte	0
                        2585 
                        2586 .LDW_4cd5588:
000000ea 29             2587 	.byte	41
000000eb 00000000*      2588 	.word	.LDW_4cc9070
                        2589 
                        2590 	.section	.debug_abbrev
00000030 29             2591 	.byte	41
00000031 26             2592 	.byte	38
00000032 00             2593 	.byte	0
00000033 4910           2594 	.byte	73,16
00000035 0000           2595 	.byte	0,0

                                                                      Page 56
                                                              C:\Users\nhuliyap\AppData\Local\Temp\gh_000014o1.s
                        2596 
                        2597 	.section	.debug_info
                        2598 .LDW_4d4af60:
000000ef 29             2599 	.byte	41
000000f0 00000000*      2600 	.word	.LDW_4c40190
                        2601 
                        2602 .LDW_4e00540:
000000f4 2f             2603 	.byte	47
000000f5 00000000*      2604 	.word	.LDW_4d4af60
                        2605 
                        2606 .LDW_4e006c8:
000000f9 44             2607 	.byte	68
000000fa 00000000*      2608 	.word	.LDW_4d4b328
000000fe 01             2609 	.byte	1
                        2610 
                        2611 	.section	.debug_abbrev
00000037 44             2612 	.byte	68
00000038 15             2613 	.byte	21
00000039 01             2614 	.byte	1
0000003a 4910           2615 	.byte	73,16
0000003c 270c           2616 	.byte	39,12
0000003e 0000           2617 	.byte	0,0
                        2618 
                        2619 	.section	.debug_info
                        2620 .LDW_4b87078:
000000ff 12             2621 	.byte	18
00000100 00000000*      2622 	.word	.LDW_4d4b328
00000104 00             2623 	.byte	0
                        2624 
                        2625 	.section	.debug_abbrev
00000040 12             2626 	.byte	18
00000041 05             2627 	.byte	5
00000042 00             2628 	.byte	0
00000043 4910           2629 	.byte	73,16
00000045 4b0c           2630 	.byte	75,12
00000047 0000           2631 	.byte	0,0
                        2632 
                        2633 	.section	.debug_info
00000105 00             2634 	.byte	0
                        2635 
                        2636 .LDW_4e00118:
00000106 45             2637 	.byte	69
00000107 01             2638 	.byte	1
                        2639 
                        2640 .LDW_4b87018:
00000108 12             2641 	.byte	18
00000109 00000000*      2642 	.word	.LDW_4d4b328
0000010d 00             2643 	.byte	0
                        2644 
0000010e 00             2645 	.byte	0
                        2646 
                        2647 .LDW_40dd410:
0000010f 29             2648 	.byte	41
00000110 00000000*      2649 	.word	.LDW_40dd258
                        2650 
                        2651 .LDW_4e00700:
00000114 2f             2652 	.byte	47
00000115 00000000*      2653 	.word	.LDW_40dd410
                        2654 
                        2655 .LDW_4e00460:
00000119 25             2656 	.byte	37

                                                                      Page 57
                                                              C:\Users\nhuliyap\AppData\Local\Temp\gh_000014o1.s
0000011a 696e7400       2657 	.strz	"int"
0000011e 05             2658 	.byte	5
0000011f 04             2659 	.byte	4
                        2660 
                        2661 .LDW_407fe48:
00000120 3a             2662 	.byte	58
00000121 00             2663 	.byte	0
00000122 01             2664 	.byte	1
00000123 00000000*      2665 	.word	.LDW_4c40190
                        2666 
                        2667 	.section	.debug_abbrev
00000049 3a             2668 	.byte	58
0000004a 01             2669 	.byte	1
0000004b 01             2670 	.byte	1
0000004c 090b           2671 	.byte	9,11
0000004e 0b0f           2672 	.byte	11,15
00000050 4910           2673 	.byte	73,16
00000052 0000           2674 	.byte	0,0
                        2675 
                        2676 	.section	.debug_info
00000127 32             2677 	.byte	50
00000128 00000000*      2678 	.word	.LDW_4e00460
0000012c 04             2679 	.byte	4
0000012d 00             2680 	.byte	0
0000012e 00             2681 	.byte	0
                        2682 
                        2683 	.section	.debug_abbrev
00000054 32             2684 	.byte	50
00000055 21             2685 	.byte	33
00000056 00             2686 	.byte	0
00000057 4910           2687 	.byte	73,16
00000059 0b0f           2688 	.byte	11,15
0000005b 220d           2689 	.byte	34,13
0000005d 2f0d           2690 	.byte	47,13
0000005f 0000           2691 	.byte	0,0
                        2692 
                        2693 	.section	.debug_info
0000012f 00             2694 	.byte	0
                        2695 
                        2696 .LDW_4e00230:
00000130 45             2697 	.byte	69
00000131 01             2698 	.byte	1
                        2699 
                        2700 .LDW_4b86f58:
00000132 12             2701 	.byte	18
00000133 00000000*      2702 	.word	.LDW_4d4b328
00000137 00             2703 	.byte	0
                        2704 
00000138 00             2705 	.byte	0
                        2706 
                        2707 .LDW_407ff20:
00000139 3a             2708 	.byte	58
0000013a 00             2709 	.byte	0
0000013b 01             2710 	.byte	1
0000013c 00000000*      2711 	.word	.LDW_4c40190
                        2712 
00000140 32             2713 	.byte	50
00000141 00000000*      2714 	.word	.LDW_4e00460
00000145 04             2715 	.byte	4
00000146 00             2716 	.byte	0
00000147 00             2717 	.byte	0

                                                                      Page 58
                                                              C:\Users\nhuliyap\AppData\Local\Temp\gh_000014o1.s
                        2718 
00000148 00             2719 	.byte	0
                        2720 
                        2721 .LDW_4e00498:
00000149 45             2722 	.byte	69
0000014a 01             2723 	.byte	1
                        2724 
                        2725 .LDW_4b86fb8:
0000014b 12             2726 	.byte	18
0000014c 00000000*      2727 	.word	.LDW_4d4b328
00000150 00             2728 	.byte	0
                        2729 
00000151 00             2730 	.byte	0
                        2731 
                        2732 .LDW_407ffa8:
00000152 3a             2733 	.byte	58
00000153 00             2734 	.byte	0
00000154 01             2735 	.byte	1
00000155 00000000*      2736 	.word	.LDW_4c40190
                        2737 
00000159 32             2738 	.byte	50
0000015a 00000000*      2739 	.word	.LDW_4e00460
0000015e 04             2740 	.byte	4
0000015f 00             2741 	.byte	0
00000160 00             2742 	.byte	0
                        2743 
00000161 00             2744 	.byte	0
                        2745 
                        2746 .LDW_4e00690:
00000162 45             2747 	.byte	69
00000163 01             2748 	.byte	1
                        2749 
                        2750 .LDW_4b870d8:
00000164 12             2751 	.byte	18
00000165 00000000*      2752 	.word	.LDW_4d4b328
00000169 00             2753 	.byte	0
                        2754 
0000016a 00             2755 	.byte	0
                        2756 
                        2757 .LDW_4e000e0:
0000016b 45             2758 	.byte	69
0000016c 01             2759 	.byte	1
                        2760 
                        2761 .LDW_4b86da8:
0000016d 12             2762 	.byte	18
0000016e 00000000*      2763 	.word	.LDW_4d4b328
00000172 00             2764 	.byte	0
                        2765 
00000173 00             2766 	.byte	0
                        2767 
                        2768 .LDW_4e00150:
00000174 45             2769 	.byte	69
00000175 01             2770 	.byte	1
                        2771 
                        2772 .LDW_4b86e08:
00000176 12             2773 	.byte	18
00000177 00000000*      2774 	.word	.LDW_4d4b328
0000017b 00             2775 	.byte	0
                        2776 
0000017c 00             2777 	.byte	0
                        2778 

                                                                      Page 59
                                                              C:\Users\nhuliyap\AppData\Local\Temp\gh_000014o1.s
                        2779 .LDW_4e002a0:
0000017d 45             2780 	.byte	69
0000017e 01             2781 	.byte	1
                        2782 
                        2783 .LDW_40d5120:
0000017f 12             2784 	.byte	18
00000180 00000000*      2785 	.word	.LDW_4d4b328
00000184 00             2786 	.byte	0
                        2787 
00000185 00             2788 	.byte	0
                        2789 
                        2790 .LDW_4e00188:
00000186 45             2791 	.byte	69
00000187 01             2792 	.byte	1
                        2793 
                        2794 .LDW_40d52a0:
00000188 12             2795 	.byte	18
00000189 00000000*      2796 	.word	.LDW_4d4b328
0000018d 00             2797 	.byte	0
                        2798 
0000018e 00             2799 	.byte	0
                        2800 
                        2801 .LDW_4e001c0:
0000018f 45             2802 	.byte	69
00000190 01             2803 	.byte	1
                        2804 
                        2805 .LDW_40d53f0:
00000191 12             2806 	.byte	18
00000192 00000000*      2807 	.word	.LDW_4d4b328
00000196 00             2808 	.byte	0
                        2809 
00000197 00             2810 	.byte	0
                        2811 
                        2812 .LDW_4e002d8:
00000198 45             2813 	.byte	69
00000199 01             2814 	.byte	1
                        2815 
                        2816 .LDW_40d5390:
0000019a 12             2817 	.byte	18
0000019b 00000000*      2818 	.word	.LDW_4d4b328
0000019f 00             2819 	.byte	0
                        2820 
000001a0 00             2821 	.byte	0
                        2822 
                        2823 .LDW_4e00770:
000001a1 25             2824 	.byte	37
000001a2 756e7369676e   2825 	.strz	"unsigned int"
000001a8 656420696e74 
000001ae 00 
000001af 07             2826 	.byte	7
000001b0 04             2827 	.byte	4
                        2828 
                        2829 .LDW_4f06290:
000001b1 29             2830 	.byte	41
000001b2 00000000*      2831 	.word	.LDW_4effdd0
                        2832 
                        2833 .LDW_4f10da0:
000001b6 2f             2834 	.byte	47
000001b7 00000000*      2835 	.word	.LDW_4f06290
                        2836 
                        2837 .LDW_4f16d08:

                                                                      Page 60
                                                              C:\Users\nhuliyap\AppData\Local\Temp\gh_000014o1.s
000001bb 3a             2838 	.byte	58
000001bc 00             2839 	.byte	0
000001bd 04             2840 	.byte	4
000001be 00000000*      2841 	.word	.LDW_4f13e08
                        2842 
000001c2 32             2843 	.byte	50
000001c3 00000000*      2844 	.word	.LDW_4e00460
000001c7 04             2845 	.byte	4
000001c8 00             2846 	.byte	0
000001c9 00             2847 	.byte	0
                        2848 
000001ca 00             2849 	.byte	0
                        2850 
                        2851 .LDW_4f161e0:
000001cb 3a             2852 	.byte	58
000001cc 00             2853 	.byte	0
000001cd 01             2854 	.byte	1
000001ce 00000000*      2855 	.word	.LDW_40dd7d8
                        2856 
000001d2 32             2857 	.byte	50
000001d3 00000000*      2858 	.word	.LDW_4e00460
000001d7 04             2859 	.byte	4
000001d8 00             2860 	.byte	0
000001d9 00             2861 	.byte	0
                        2862 
000001da 00             2863 	.byte	0
                        2864 
                        2865 .LDW_4f16400:
000001db 3a             2866 	.byte	58
000001dc 00             2867 	.byte	0
000001dd 01             2868 	.byte	1
000001de 00000000*      2869 	.word	.LDW_4effed8
                        2870 
000001e2 32             2871 	.byte	50
000001e3 00000000*      2872 	.word	.LDW_4e00460
000001e7 04             2873 	.byte	4
000001e8 00             2874 	.byte	0
000001e9 00             2875 	.byte	0
                        2876 
000001ea 00             2877 	.byte	0
                        2878 
                        2879 .LDW_4f16268:
000001eb 3a             2880 	.byte	58
000001ec 00             2881 	.byte	0
000001ed 01             2882 	.byte	1
000001ee 00000000*      2883 	.word	.LDW_4c40190
                        2884 
000001f2 32             2885 	.byte	50
000001f3 00000000*      2886 	.word	.LDW_4e00460
000001f7 04             2887 	.byte	4
000001f8 00             2888 	.byte	0
000001f9 00             2889 	.byte	0
                        2890 
000001fa 00             2891 	.byte	0
                        2892 
                        2893 .LDW_4f16950:
000001fb 3a             2894 	.byte	58
000001fc 00             2895 	.byte	0
000001fd 01             2896 	.byte	1
000001fe 00000000*      2897 	.word	.LDW_4c40190
                        2898 

                                                                      Page 61
                                                              C:\Users\nhuliyap\AppData\Local\Temp\gh_000014o1.s
00000202 32             2899 	.byte	50
00000203 00000000*      2900 	.word	.LDW_4e00460
00000207 04             2901 	.byte	4
00000208 00             2902 	.byte	0
00000209 00             2903 	.byte	0
                        2904 
0000020a 00             2905 	.byte	0
                        2906 
                        2907 .LDW_4f16488:
0000020b 3a             2908 	.byte	58
0000020c 00             2909 	.byte	0
0000020d 01             2910 	.byte	1
0000020e 00000000*      2911 	.word	.LDW_40ddb48
                        2912 
00000212 32             2913 	.byte	50
00000213 00000000*      2914 	.word	.LDW_4e00460
00000217 04             2915 	.byte	4
00000218 00             2916 	.byte	0
00000219 00             2917 	.byte	0
                        2918 
0000021a 00             2919 	.byte	0
                        2920 
                        2921 .LDW_4f16598:
0000021b 3a             2922 	.byte	58
0000021c 00             2923 	.byte	0
0000021d 01             2924 	.byte	1
0000021e 00000000*      2925 	.word	.LDW_4cc0598
                        2926 
00000222 32             2927 	.byte	50
00000223 00000000*      2928 	.word	.LDW_4e00460
00000227 04             2929 	.byte	4
00000228 00             2930 	.byte	0
00000229 00             2931 	.byte	0
                        2932 
0000022a 00             2933 	.byte	0
                        2934 
                        2935 .LDW_4f16ae8:
0000022b 3a             2936 	.byte	58
0000022c 00             2937 	.byte	0
0000022d 01             2938 	.byte	1
0000022e 00000000*      2939 	.word	.LDW_4c40190
                        2940 
00000232 32             2941 	.byte	50
00000233 00000000*      2942 	.word	.LDW_4e00460
00000237 04             2943 	.byte	4
00000238 00             2944 	.byte	0
00000239 00             2945 	.byte	0
                        2946 
0000023a 00             2947 	.byte	0
                        2948 
                        2949 .LDW_4f16b70:
0000023b 3a             2950 	.byte	58
0000023c 00             2951 	.byte	0
0000023d 01             2952 	.byte	1
0000023e 00000000*      2953 	.word	.LDW_4cc0598
                        2954 
00000242 32             2955 	.byte	50
00000243 00000000*      2956 	.word	.LDW_4e00460
00000247 04             2957 	.byte	4
00000248 00             2958 	.byte	0
00000249 00             2959 	.byte	0

                                                                      Page 62
                                                              C:\Users\nhuliyap\AppData\Local\Temp\gh_000014o1.s
                        2960 
0000024a 00             2961 	.byte	0
                        2962 
                        2963 .LDW_4f19308:
0000024b 3a             2964 	.byte	58
0000024c 00             2965 	.byte	0
0000024d 01             2966 	.byte	1
0000024e 00000000*      2967 	.word	.LDW_4cc0598
                        2968 
00000252 32             2969 	.byte	50
00000253 00000000*      2970 	.word	.LDW_4e00460
00000257 04             2971 	.byte	4
00000258 00             2972 	.byte	0
00000259 00             2973 	.byte	0
                        2974 
0000025a 00             2975 	.byte	0
                        2976 
                        2977 .LDW_4f19fc8:
0000025b 3a             2978 	.byte	58
0000025c 00             2979 	.byte	0
0000025d 01             2980 	.byte	1
0000025e 00000000*      2981 	.word	.LDW_4f13728
                        2982 
00000262 32             2983 	.byte	50
00000263 00000000*      2984 	.word	.LDW_4e00460
00000267 04             2985 	.byte	4
00000268 00             2986 	.byte	0
00000269 00             2987 	.byte	0
                        2988 
0000026a 00             2989 	.byte	0
                        2990 
                        2991 .LDW_4f19968:
0000026b 3a             2992 	.byte	58
0000026c 00             2993 	.byte	0
0000026d 01             2994 	.byte	1
0000026e 00000000*      2995 	.word	.LDW_40ddb48
                        2996 
00000272 32             2997 	.byte	50
00000273 00000000*      2998 	.word	.LDW_4e00460
00000277 04             2999 	.byte	4
00000278 00             3000 	.byte	0
00000279 00             3001 	.byte	0
                        3002 
0000027a 00             3003 	.byte	0
                        3004 
                        3005 .LDW_4f199f0:
0000027b 3a             3006 	.byte	58
0000027c 00             3007 	.byte	0
0000027d 01             3008 	.byte	1
0000027e 00000000*      3009 	.word	.LDW_40dcff0
                        3010 
00000282 32             3011 	.byte	50
00000283 00000000*      3012 	.word	.LDW_4e00460
00000287 04             3013 	.byte	4
00000288 00             3014 	.byte	0
00000289 00             3015 	.byte	0
                        3016 
0000028a 00             3017 	.byte	0
                        3018 
                        3019 .LDW_4f1a050:
0000028b 3a             3020 	.byte	58

                                                                      Page 63
                                                              C:\Users\nhuliyap\AppData\Local\Temp\gh_000014o1.s
0000028c 00             3021 	.byte	0
0000028d 01             3022 	.byte	1
0000028e 00000000*      3023 	.word	.LDW_4dab998
                        3024 
00000292 32             3025 	.byte	50
00000293 00000000*      3026 	.word	.LDW_4e00460
00000297 04             3027 	.byte	4
00000298 00             3028 	.byte	0
00000299 00             3029 	.byte	0
                        3030 
0000029a 00             3031 	.byte	0
                        3032 
                        3033 .LDW_4f19d20:
0000029b 3a             3034 	.byte	58
0000029c 00             3035 	.byte	0
0000029d 01             3036 	.byte	1
0000029e 00000000*      3037 	.word	.LDW_4dab050
                        3038 
000002a2 32             3039 	.byte	50
000002a3 00000000*      3040 	.word	.LDW_4e00460
000002a7 04             3041 	.byte	4
000002a8 00             3042 	.byte	0
000002a9 00             3043 	.byte	0
                        3044 
000002aa 00             3045 	.byte	0
                        3046 
                        3047 .LDW_4f196c0:
000002ab 3a             3048 	.byte	58
000002ac 00             3049 	.byte	0
000002ad 01             3050 	.byte	1
000002ae 00000000*      3051 	.word	.LDW_4f138e0
                        3052 
000002b2 32             3053 	.byte	50
000002b3 00000000*      3054 	.word	.LDW_4e00460
000002b7 04             3055 	.byte	4
000002b8 00             3056 	.byte	0
000002b9 00             3057 	.byte	0
                        3058 
000002ba 00             3059 	.byte	0
                        3060 
                        3061 .LDW_4f19748:
000002bb 3a             3062 	.byte	58
000002bc 00             3063 	.byte	0
000002bd 01             3064 	.byte	1
000002be 00000000*      3065 	.word	.LDW_4cc0598
                        3066 
000002c2 32             3067 	.byte	50
000002c3 00000000*      3068 	.word	.LDW_4e00460
000002c7 04             3069 	.byte	4
000002c8 00             3070 	.byte	0
000002c9 00             3071 	.byte	0
                        3072 
000002ca 00             3073 	.byte	0
                        3074 
                        3075 .LDW_4f195b0:
000002cb 3a             3076 	.byte	58
000002cc 00             3077 	.byte	0
000002cd 01             3078 	.byte	1
000002ce 00000000*      3079 	.word	.LDW_4cc0598
                        3080 
000002d2 32             3081 	.byte	50

                                                                      Page 64
                                                              C:\Users\nhuliyap\AppData\Local\Temp\gh_000014o1.s
000002d3 00000000*      3082 	.word	.LDW_4e00460
000002d7 04             3083 	.byte	4
000002d8 00             3084 	.byte	0
000002d9 00             3085 	.byte	0
                        3086 
000002da 00             3087 	.byte	0
                        3088 
                        3089 .LDW_4f11008:
000002db 45             3090 	.byte	69
000002dc 01             3091 	.byte	1
                        3092 
000002dd 00             3093 	.byte	0
                        3094 
                        3095 .LDW_4f10b70:
000002de 45             3096 	.byte	69
000002df 01             3097 	.byte	1
                        3098 
000002e0 00             3099 	.byte	0
                        3100 
                        3101 .LDW_4f24250:
000002e1 2f             3102 	.byte	47
000002e2 00000000*      3103 	.word	.LDW_4cc0598
                        3104 
                        3105 .LDW_4f295b0:
000002e6 2f             3106 	.byte	47
000002e7 00000000*      3107 	.word	.LDW_40ddb48
                        3108 
                        3109 .LDW_4f29498:
000002eb 45             3110 	.byte	69
000002ec 01             3111 	.byte	1
                        3112 
                        3113 .LDW_4f2b918:
000002ed 12             3114 	.byte	18
000002ee 00000000*      3115 	.word	.LDW_4d4b328
000002f2 00             3116 	.byte	0
                        3117 
                        3118 .LDW_4f2bf48:
000002f3 12             3119 	.byte	18
000002f4 00000000*      3120 	.word	.LDW_4f295b0
000002f8 00             3121 	.byte	0
                        3122 
000002f9 00             3123 	.byte	0
                        3124 
                        3125 .LDW_4f2f168:
000002fa 2f             3126 	.byte	47
000002fb 00000000*      3127 	.word	.LDW_40dd7d8
                        3128 
                        3129 .LDW_4f2f600:
000002ff 2f             3130 	.byte	47
00000300 00000000*      3131 	.word	.LDW_4effed8
                        3132 
                        3133 .LDW_4f2f360:
00000304 45             3134 	.byte	69
00000305 01             3135 	.byte	1
                        3136 
                        3137 .LDW_4f2a628:
00000306 12             3138 	.byte	18
00000307 00000000*      3139 	.word	.LDW_4c40190
0000030b 00             3140 	.byte	0
                        3141 
                        3142 .LDW_4f2a388:

                                                                      Page 65
                                                              C:\Users\nhuliyap\AppData\Local\Temp\gh_000014o1.s
0000030c 12             3143 	.byte	18
0000030d 00000000*      3144 	.word	.LDW_40dd2b0
00000311 00             3145 	.byte	0
                        3146 
00000312 00             3147 	.byte	0
                        3148 
                        3149 .LDW_4f2f478:
00000313 44             3150 	.byte	68
00000314 00000000*      3151 	.word	.LDW_4dab680
00000318 01             3152 	.byte	1
                        3153 
                        3154 .LDW_4f2a778:
00000319 12             3155 	.byte	18
0000031a 00000000*      3156 	.word	.LDW_4c40190
0000031e 00             3157 	.byte	0
                        3158 
                        3159 .LDW_4f2a328:
0000031f 12             3160 	.byte	18
00000320 00000000*      3161 	.word	.LDW_4effbc0
00000324 00             3162 	.byte	0
                        3163 
00000325 00             3164 	.byte	0
                        3165 
                        3166 .LDW_4f2f210:
00000326 44             3167 	.byte	68
00000327 00000000*      3168 	.word	.LDW_4dab680
0000032b 01             3169 	.byte	1
                        3170 
                        3171 .LDW_4f2a5c8:
0000032c 12             3172 	.byte	18
0000032d 00000000*      3173 	.word	.LDW_4c40190
00000331 00             3174 	.byte	0
                        3175 
                        3176 .LDW_4f2a748:
00000332 12             3177 	.byte	18
00000333 00000000*      3178 	.word	.LDW_4f002f8
00000337 00             3179 	.byte	0
                        3180 
00000338 00             3181 	.byte	0
                        3182 
                        3183 .LDW_4cc0598:
00000339 28             3184 	.byte	40
0000033a 626f6f6c6561   3185 	.strz	"boolean"
00000340 6e00 
00000342 4e             3186 	.byte	78
00000343 49             3187 	.byte	73
00000344 03             3188 	.byte	3
00000345 00000000*      3189 	.word	.LDW_4097028
                        3190 
                        3191 	.section	.debug_abbrev
00000061 28             3192 	.byte	40
00000062 16             3193 	.byte	22
00000063 00             3194 	.byte	0
00000064 0308           3195 	.byte	3,8
00000066 3b0f           3196 	.byte	59,15
00000068 390f           3197 	.byte	57,15
0000006a 3a0f           3198 	.byte	58,15
0000006c 4910           3199 	.byte	73,16
0000006e 0000           3200 	.byte	0,0
                        3201 
                        3202 	.section	.debug_info

                                                                      Page 66
                                                              C:\Users\nhuliyap\AppData\Local\Temp\gh_000014o1.s
                        3203 .LDW_4c40190:
00000349 28             3204 	.byte	40
0000034a 75696e743800   3205 	.strz	"uint8"
00000350 50             3206 	.byte	80
00000351 4b             3207 	.byte	75
00000352 03             3208 	.byte	3
00000353 00000000*      3209 	.word	.LDW_4097028
                        3210 
                        3211 .LDW_4cc9070:
00000357 28             3212 	.byte	40
00000358 75696e743136   3213 	.strz	"uint16"
0000035e 00 
0000035f 52             3214 	.byte	82
00000360 4a             3215 	.byte	74
00000361 03             3216 	.byte	3
00000362 00000000*      3217 	.word	.LDW_4097060
                        3218 
                        3219 .LDW_4dab680:
00000366 28             3220 	.byte	40
00000367 5374645f5265   3221 	.strz	"Std_ReturnType"
0000036d 7475726e5479 
00000373 706500 
00000376 4e             3222 	.byte	78
00000377 0f             3223 	.byte	15
00000378 02             3224 	.byte	2
00000379 00000000*      3225 	.word	.LDW_4c40190
                        3226 
                        3227 .LDW_40ddb48:
0000037d 28             3228 	.byte	40
0000037e 436f6d4d5f4d   3229 	.strz	"ComM_ModeType"
00000384 6f6465547970 
0000038a 6500 
0000038c 59             3230 	.byte	89
0000038d 0f             3231 	.byte	15
0000038e 02             3232 	.byte	2
0000038f 00000000*      3233 	.word	.LDW_4c40190
                        3234 
                        3235 .LDW_4efdea8:
00000393 28             3236 	.byte	40
00000394 44656d5f4576   3237 	.strz	"Dem_EventIdType"
0000039a 656e74496454 
000003a0 79706500 
000003a4 59             3238 	.byte	89
000003a5 10             3239 	.byte	16
000003a6 16             3240 	.byte	22
000003a7 00000000*      3241 	.word	.LDW_4cc9070
                        3242 
                        3243 .LDW_4d4b328:
000003ab 28             3244 	.byte	40
000003ac 4e6574776f72   3245 	.strz	"NetworkHandleType"
000003b2 6b48616e646c 
000003b8 655479706500 
000003be 49             3246 	.byte	73
000003bf 11             3247 	.byte	17
000003c0 2f             3248 	.byte	47
000003c1 00000000*      3249 	.word	.LDW_4c40190
                        3250 
                        3251 .LDW_40dd308:
000003c5 41             3252 	.byte	65
000003c6 29             3253 	.byte	41
000003c7 0f             3254 	.byte	15

                                                                      Page 67
                                                              C:\Users\nhuliyap\AppData\Local\Temp\gh_000014o1.s
000003c8 2e             3255 	.byte	46
000003c9 14             3256 	.byte	20
000003ca 01             3257 	.byte	1
                        3258 
                        3259 	.section	.debug_abbrev
00000070 41             3260 	.byte	65
00000071 13             3261 	.byte	19
00000072 01             3262 	.byte	1
00000073 3b0f           3263 	.byte	59,15
00000075 390f           3264 	.byte	57,15
00000077 3a0f           3265 	.byte	58,15
00000079 0b0f           3266 	.byte	11,15
0000007b 320b           3267 	.byte	50,11
0000007d 0000           3268 	.byte	0,0
                        3269 
                        3270 	.section	.debug_info
                        3271 .LDW_4efc070:
000003cb 23             3272 	.byte	35
000003cc 436e74726c5f   3273 	.strz	"Cntrl_startidx_pu8"
000003d2 737461727469 
000003d8 64785f707538 
000003de 00 
000003df 2a             3274 	.byte	42
000003e0 31             3275 	.byte	49
000003e1 2e             3276 	.byte	46
000003e2 00000000*      3277 	.word	.LDW_4e00540
000003e6 0223           3278 	.byte	2,35
000003e8 00             3279 	.byte	0
000003e9 01             3280 	.byte	1
                        3281 
                        3282 	.section	.debug_abbrev
0000007f 23             3283 	.byte	35
00000080 0d             3284 	.byte	13
00000081 00             3285 	.byte	0
00000082 0308           3286 	.byte	3,8
00000084 3b0f           3287 	.byte	59,15
00000086 390f           3288 	.byte	57,15
00000088 3a0f           3289 	.byte	58,15
0000008a 4910           3290 	.byte	73,16
0000008c 380a           3291 	.byte	56,10
0000008e 320b           3292 	.byte	50,11
00000090 0000           3293 	.byte	0,0
                        3294 
                        3295 	.section	.debug_info
                        3296 .LDW_4efbc80:
000003ea 23             3297 	.byte	35
000003eb 426f7254696d   3298 	.strz	"BorTimeL1_u16"
000003f1 654c315f7531 
000003f7 3600 
000003f9 2b             3299 	.byte	43
000003fa 2e             3300 	.byte	46
000003fb 2e             3301 	.byte	46
000003fc 00000000*      3302 	.word	.LDW_4cc9070
00000400 0223           3303 	.byte	2,35
00000402 04             3304 	.byte	4
00000403 01             3305 	.byte	1
                        3306 
                        3307 .LDW_4efbe78:
00000404 23             3308 	.byte	35
00000405 426f7254696d   3309 	.strz	"BorTimeL2_u16"
0000040b 654c325f7531 

                                                                      Page 68
                                                              C:\Users\nhuliyap\AppData\Local\Temp\gh_000014o1.s
00000411 3600 
00000413 2c             3310 	.byte	44
00000414 2e             3311 	.byte	46
00000415 2e             3312 	.byte	46
00000416 00000000*      3313 	.word	.LDW_4cc9070
0000041a 0223           3314 	.byte	2,35
0000041c 06             3315 	.byte	6
0000041d 01             3316 	.byte	1
                        3317 
                        3318 .LDW_4efc0b8:
0000041e 23             3319 	.byte	35
0000041f 426f7254696d   3320 	.strz	"BorTimeTxEnsured_u16"
00000425 655478456e73 
0000042b 757265645f75 
00000431 313600 
00000434 2d             3321 	.byte	45
00000435 2e             3322 	.byte	46
00000436 2e             3323 	.byte	46
00000437 00000000*      3324 	.word	.LDW_4cc9070
0000043b 0223           3325 	.byte	2,35
0000043d 08             3326 	.byte	8
0000043e 01             3327 	.byte	1
                        3328 
                        3329 .LDW_4efbfe0:
0000043f 23             3330 	.byte	35
00000440 4275734f6666   3331 	.strz	"BusOffEventId_uo"
00000446 4576656e7449 
0000044c 645f756f00 
00000451 2e             3332 	.byte	46
00000452 35             3333 	.byte	53
00000453 2e             3334 	.byte	46
00000454 00000000*      3335 	.word	.LDW_4efdea8
00000458 0223           3336 	.byte	2,35
0000045a 0a             3337 	.byte	10
0000045b 01             3338 	.byte	1
                        3339 
                        3340 .LDW_4efb920:
0000045c 23             3341 	.byte	35
0000045d 547263765f68   3342 	.strz	"Trcv_hndle_u8"
00000463 6e646c655f75 
00000469 3800 
0000046b 2f             3343 	.byte	47
0000046c 2d             3344 	.byte	45
0000046d 2e             3345 	.byte	46
0000046e 00000000*      3346 	.word	.LDW_4c40190
00000472 0223           3347 	.byte	2,35
00000474 0c             3348 	.byte	12
00000475 01             3349 	.byte	1
                        3350 
                        3351 .LDW_4efc148:
00000476 23             3352 	.byte	35
00000477 53697a656f66   3353 	.strz	"SizeofController_u8"
0000047d 436f6e74726f 
00000483 6c6c65725f75 
00000489 3800 
0000048b 30             3354 	.byte	48
0000048c 2d             3355 	.byte	45
0000048d 2e             3356 	.byte	46
0000048e 00000000*      3357 	.word	.LDW_4c40190
00000492 0223           3358 	.byte	2,35
00000494 0d             3359 	.byte	13

                                                                      Page 69
                                                              C:\Users\nhuliyap\AppData\Local\Temp\gh_000014o1.s
00000495 01             3360 	.byte	1
                        3361 
                        3362 .LDW_4efbcc8:
00000496 23             3363 	.byte	35
00000497 426f72436e74   3364 	.strz	"BorCntL1L2_u8"
0000049d 4c314c325f75 
000004a3 3800 
000004a5 31             3365 	.byte	49
000004a6 2d             3366 	.byte	45
000004a7 2e             3367 	.byte	46
000004a8 00000000*      3368 	.word	.LDW_4c40190
000004ac 0223           3369 	.byte	2,35
000004ae 0e             3370 	.byte	14
000004af 01             3371 	.byte	1
                        3372 
                        3373 .LDW_4efbd58:
000004b0 23             3374 	.byte	35
000004b1 436f6d4d5f63   3375 	.strz	"ComM_channelId_uo"
000004b7 68616e6e656c 
000004bd 49645f756f00 
000004c3 32             3376 	.byte	50
000004c4 35             3377 	.byte	53
000004c5 2e             3378 	.byte	46
000004c6 00000000*      3379 	.word	.LDW_4d4b328
000004ca 0223           3380 	.byte	2,35
000004cc 0f             3381 	.byte	15
000004cd 01             3382 	.byte	1
                        3383 
                        3384 .LDW_4efbda0:
000004ce 23             3385 	.byte	35
000004cf 4275734f6666   3386 	.strz	"BusOffDelayConfig_b"
000004d5 44656c617943 
000004db 6f6e6669675f 
000004e1 6200 
000004e3 33             3387 	.byte	51
000004e4 2f             3388 	.byte	47
000004e5 2e             3389 	.byte	46
000004e6 00000000*      3390 	.word	.LDW_4cc0598
000004ea 0223           3391 	.byte	2,35
000004ec 10             3392 	.byte	16
000004ed 01             3393 	.byte	1
                        3394 
                        3395 .LDW_4efbe30:
000004ee 23             3396 	.byte	35
000004ef 54726376506e   3397 	.strz	"TrcvPnConfig_b"
000004f5 436f6e666967 
000004fb 5f6200 
000004fe 34             3398 	.byte	52
000004ff 2f             3399 	.byte	47
00000500 2e             3400 	.byte	46
00000501 00000000*      3401 	.word	.LDW_4cc0598
00000505 0223           3402 	.byte	2,35
00000507 11             3403 	.byte	17
00000508 01             3404 	.byte	1
                        3405 
00000509 00             3406 	.byte	0
                        3407 
                        3408 .LDW_40dd258:
0000050a 28             3409 	.byte	40
0000050b 43616e534d5f   3410 	.strz	"CanSM_NetworkConf_tst"
00000511 4e6574776f72 

                                                                      Page 70
                                                              C:\Users\nhuliyap\AppData\Local\Temp\gh_000014o1.s
00000517 6b436f6e665f 
0000051d 74737400 
00000521 35             3411 	.byte	53
00000522 02             3412 	.byte	2
00000523 2e             3413 	.byte	46
00000524 00000000*      3414 	.word	.LDW_40dd308
                        3415 
                        3416 .LDW_4f001f0:
00000528 41             3417 	.byte	65
00000529 37             3418 	.byte	55
0000052a 0f             3419 	.byte	15
0000052b 2e             3420 	.byte	46
0000052c 10             3421 	.byte	16
0000052d 01             3422 	.byte	1
                        3423 
                        3424 .LDW_4efb968:
0000052e 23             3425 	.byte	35
0000052f 43616e534d5f   3426 	.strz	"CanSM_NetworkConf_pcst"
00000535 4e6574776f72 
0000053b 6b436f6e665f 
00000541 7063737400 
00000546 38             3427 	.byte	56
00000547 45             3428 	.byte	69
00000548 2e             3429 	.byte	46
00000549 00000000*      3430 	.word	.LDW_4e00700
0000054d 0223           3431 	.byte	2,35
0000054f 00             3432 	.byte	0
00000550 01             3433 	.byte	1
                        3434 
                        3435 .LDW_4efc190:
00000551 23             3436 	.byte	35
00000552 43616e534d5f   3437 	.strz	"CanSM_NetworktoCtrlConf_pcu8"
00000558 4e6574776f72 
0000055e 6b746f437472 
00000564 6c436f6e665f 
0000056a 7063753800 
0000056f 39             3438 	.byte	57
00000570 39             3439 	.byte	57
00000571 2e             3440 	.byte	46
00000572 00000000*      3441 	.word	.LDW_4e00540
00000576 0223           3442 	.byte	2,35
00000578 04             3443 	.byte	4
00000579 01             3444 	.byte	1
                        3445 
                        3446 .LDW_4f02640:
0000057a 23             3447 	.byte	35
0000057b 43616e534d4d   3448 	.strz	"CanSMModeRequestRepetitionTime_u16"
00000581 6f6465526571 
00000587 756573745265 
0000058d 706574697469 
00000593 6f6e54696d65 
00000599 5f75313600 
0000059e 3a             3449 	.byte	58
0000059f 2f             3450 	.byte	47
000005a0 2e             3451 	.byte	46
000005a1 00000000*      3452 	.word	.LDW_4cd5588
000005a5 0223           3453 	.byte	2,35
000005a7 08             3454 	.byte	8
000005a8 01             3455 	.byte	1
                        3456 
                        3457 .LDW_4f025f8:

                                                                      Page 71
                                                              C:\Users\nhuliyap\AppData\Local\Temp\gh_000014o1.s
000005a9 23             3458 	.byte	35
000005aa 43616e534d4d   3459 	.strz	"CanSMModeRequestRepetitionMax_u8"
000005b0 6f6465526571 
000005b6 756573745265 
000005bc 706574697469 
000005c2 6f6e4d61785f 
000005c8 753800 
000005cb 3b             3460 	.byte	59
000005cc 2e             3461 	.byte	46
000005cd 2e             3462 	.byte	46
000005ce 00000000*      3463 	.word	.LDW_4d4af60
000005d2 0223           3464 	.byte	2,35
000005d4 0a             3465 	.byte	10
000005d5 01             3466 	.byte	1
                        3467 
                        3468 .LDW_4f02688:
000005d6 23             3469 	.byte	35
000005d7 43616e534d5f   3470 	.strz	"CanSM_SizeOfCanSMNetworks_u8"
000005dd 53697a654f66 
000005e3 43616e534d4e 
000005e9 6574776f726b 
000005ef 735f753800 
000005f4 3c             3471 	.byte	60
000005f5 2e             3472 	.byte	46
000005f6 2e             3473 	.byte	46
000005f7 00000000*      3474 	.word	.LDW_4c40190
000005fb 0223           3475 	.byte	2,35
000005fd 0b             3476 	.byte	11
000005fe 01             3477 	.byte	1
                        3478 
                        3479 .LDW_4f02328:
000005ff 23             3480 	.byte	35
00000600 43616e534d5f   3481 	.strz	"CanSM_ActiveConfigset_u8"
00000606 416374697665 
0000060c 436f6e666967 
00000612 7365745f7538 
00000618 00 
00000619 3d             3482 	.byte	61
0000061a 2e             3483 	.byte	46
0000061b 2e             3484 	.byte	46
0000061c 00000000*      3485 	.word	.LDW_4c40190
00000620 0223           3486 	.byte	2,35
00000622 0c             3487 	.byte	12
00000623 01             3488 	.byte	1
                        3489 
00000624 00             3490 	.byte	0
                        3491 
                        3492 .LDW_4effdd0:
00000625 28             3493 	.byte	40
00000626 547970655f43   3494 	.strz	"Type_CfgSwcServiceCanSM_st"
0000062c 666753776353 
00000632 657276696365 
00000638 43616e534d5f 
0000063e 737400 
00000641 3e             3495 	.byte	62
00000642 02             3496 	.byte	2
00000643 2e             3497 	.byte	46
00000644 00000000*      3498 	.word	.LDW_4f001f0
                        3499 
                        3500 .LDW_407fed0:
00000648 2e             3501 	.byte	46

                                                                      Page 72
                                                              C:\Users\nhuliyap\AppData\Local\Temp\gh_000014o1.s
00000649 00             3502 	.byte	0
0000064a 45             3503 	.byte	69
0000064b 0d             3504 	.byte	13
0000064c 2d             3505 	.byte	45
0000064d 01             3506 	.byte	1
0000064e 01             3507 	.byte	1
                        3508 
                        3509 	.section	.debug_abbrev
00000092 2e             3510 	.byte	46
00000093 04             3511 	.byte	4
00000094 01             3512 	.byte	1
00000095 0308           3513 	.byte	3,8
00000097 3b0f           3514 	.byte	59,15
00000099 390f           3515 	.byte	57,15
0000009b 3a0f           3516 	.byte	58,15
0000009d 0b0f           3517 	.byte	11,15
0000009f 320b           3518 	.byte	50,11
000000a1 0000           3519 	.byte	0,0
                        3520 
                        3521 	.section	.debug_info
                        3522 .LDW_4d4a680:
0000064f 2d             3523 	.byte	45
00000650 43414e534d5f   3524 	.strz	"CANSM_BSM_S_NOCOM"
00000656 42534d5f535f 
0000065c 4e4f434f4d00 
00000662 46             3525 	.byte	70
00000663 07             3526 	.byte	7
00000664 2d             3527 	.byte	45
00000665 00             3528 	.byte	0
                        3529 
                        3530 	.section	.debug_abbrev
000000a3 2d             3531 	.byte	45
000000a4 28             3532 	.byte	40
000000a5 00             3533 	.byte	0
000000a6 0308           3534 	.byte	3,8
000000a8 3b0f           3535 	.byte	59,15
000000aa 390f           3536 	.byte	57,15
000000ac 3a0f           3537 	.byte	58,15
000000ae 1c0d           3538 	.byte	28,13
000000b0 0000           3539 	.byte	0,0
                        3540 
                        3541 	.section	.debug_info
                        3542 .LDW_4d4a580:
00000666 2d             3543 	.byte	45
00000667 43414e534d5f   3544 	.strz	"CANSM_BSM_S_SILENTCOM"
0000066d 42534d5f535f 
00000673 53494c454e54 
00000679 434f4d00 
0000067d 47             3545 	.byte	71
0000067e 07             3546 	.byte	7
0000067f 2d             3547 	.byte	45
00000680 01             3548 	.byte	1
                        3549 
                        3550 .LDW_4d4a100:
00000681 2d             3551 	.byte	45
00000682 43414e534d5f   3552 	.strz	"CANSM_BSM_S_FULLCOM"
00000688 42534d5f535f 
0000068e 46554c4c434f 
00000694 4d00 
00000696 48             3553 	.byte	72
00000697 07             3554 	.byte	7

                                                                      Page 73
                                                              C:\Users\nhuliyap\AppData\Local\Temp\gh_000014o1.s
00000698 2d             3555 	.byte	45
00000699 02             3556 	.byte	2
                        3557 
                        3558 .LDW_4d4a080:
0000069a 2d             3559 	.byte	45
0000069b 43414e534d5f   3560 	.strz	"CANSM_BSM_S_NOT_INITIALIZED"
000006a1 42534d5f535f 
000006a7 4e4f545f494e 
000006ad 495449414c49 
000006b3 5a454400 
000006b7 49             3561 	.byte	73
000006b8 07             3562 	.byte	7
000006b9 2d             3563 	.byte	45
000006ba 03             3564 	.byte	3
                        3565 
                        3566 .LDW_4d4a700:
000006bb 2d             3567 	.byte	45
000006bc 43414e534d5f   3568 	.strz	"CANSM_BSM_S_PRE_NOCOM"
000006c2 42534d5f535f 
000006c8 5052455f4e4f 
000006ce 434f4d00 
000006d2 4a             3569 	.byte	74
000006d3 07             3570 	.byte	7
000006d4 2d             3571 	.byte	45
000006d5 04             3572 	.byte	4
                        3573 
                        3574 .LDW_4d4a600:
000006d6 2d             3575 	.byte	45
000006d7 43414e534d5f   3576 	.strz	"CANSM_BSM_WUVALIDATION"
000006dd 42534d5f5755 
000006e3 56414c494441 
000006e9 54494f4e00 
000006ee 4b             3577 	.byte	75
000006ef 07             3578 	.byte	7
000006f0 2d             3579 	.byte	45
000006f1 05             3580 	.byte	5
                        3581 
                        3582 .LDW_4d4a180:
000006f2 2d             3583 	.byte	45
000006f3 43414e534d5f   3584 	.strz	"CANSM_BSM_S_PRE_FULLCOM"
000006f9 42534d5f535f 
000006ff 5052455f4655 
00000705 4c4c434f4d00 
0000070b 4c             3585 	.byte	76
0000070c 07             3586 	.byte	7
0000070d 2d             3587 	.byte	45
0000070e 06             3588 	.byte	6
                        3589 
                        3590 .LDW_4d4a2c0:
0000070f 2d             3591 	.byte	45
00000710 43414e534d5f   3592 	.strz	"CANSM_BSM_S_CHANGE_BAUDRATE"
00000716 42534d5f535f 
0000071c 4348414e4745 
00000722 5f4241554452 
00000728 41544500 
0000072c 4d             3593 	.byte	77
0000072d 07             3594 	.byte	7
0000072e 2d             3595 	.byte	45
0000072f 07             3596 	.byte	7
                        3597 
                        3598 .LDW_4d4a740:

                                                                      Page 74
                                                              C:\Users\nhuliyap\AppData\Local\Temp\gh_000014o1.s
00000730 2d             3599 	.byte	45
00000731 43414e534d5f   3600 	.strz	"CANSM_BSM_S_SILENTCOM_BOR"
00000737 42534d5f535f 
0000073d 53494c454e54 
00000743 434f4d5f424f 
00000749 5200 
0000074b 4e             3601 	.byte	78
0000074c 07             3602 	.byte	7
0000074d 2d             3603 	.byte	45
0000074e 08             3604 	.byte	8
                        3605 
                        3606 .LDW_4d4a040:
0000074f 2d             3607 	.byte	45
00000750 43414e534d5f   3608 	.strz	"CANSM_BSM_S_TX_TIMEOUT_EXCEPTION"
00000756 42534d5f535f 
0000075c 54585f54494d 
00000762 454f55545f45 
00000768 584345505449 
0000076e 4f4e00 
00000771 4f             3609 	.byte	79
00000772 07             3610 	.byte	7
00000773 2d             3611 	.byte	45
00000774 09             3612 	.byte	9
                        3613 
00000775 00             3614 	.byte	0
                        3615 
                        3616 .LDW_40dd7d8:
00000776 28             3617 	.byte	40
00000777 43616e534d5f   3618 	.strz	"CanSM_NetworkModeStateType_ten"
0000077d 4e6574776f72 
00000783 6b4d6f646553 
00000789 746174655479 
0000078f 70655f74656e 
00000795 00 
00000796 50             3619 	.byte	80
00000797 02             3620 	.byte	2
00000798 2d             3621 	.byte	45
00000799 00000000*      3622 	.word	.LDW_407fed0
                        3623 
                        3624 .LDW_4efe688:
0000079d 2e             3625 	.byte	46
0000079e 00             3626 	.byte	0
0000079f 52             3627 	.byte	82
000007a0 0d             3628 	.byte	13
000007a1 2d             3629 	.byte	45
000007a2 01             3630 	.byte	1
000007a3 01             3631 	.byte	1
                        3632 
                        3633 .LDW_4f02950:
000007a4 2d             3634 	.byte	45
000007a5 43414e534d5f   3635 	.strz	"CANSM_BOR_IDLE"
000007ab 424f525f4944 
000007b1 4c4500 
000007b4 53             3636 	.byte	83
000007b5 07             3637 	.byte	7
000007b6 2d             3638 	.byte	45
000007b7 01             3639 	.byte	1
                        3640 
                        3641 .LDW_4f029d0:
000007b8 2d             3642 	.byte	45
000007b9 43414e534d5f   3643 	.strz	"CANSM_S_BUS_OFF_CHECK"

                                                                      Page 75
                                                              C:\Users\nhuliyap\AppData\Local\Temp\gh_000014o1.s
000007bf 535f4255535f 
000007c5 4f46465f4348 
000007cb 45434b00 
000007cf 54             3644 	.byte	84
000007d0 07             3645 	.byte	7
000007d1 2d             3646 	.byte	45
000007d2 02             3647 	.byte	2
                        3648 
                        3649 .LDW_4f03010:
000007d3 2d             3650 	.byte	45
000007d4 43414e534d5f   3651 	.strz	"CANSM_S_NO_BUS_OFF"
000007da 535f4e4f5f42 
000007e0 55535f4f4646 
000007e6 00 
000007e7 55             3652 	.byte	85
000007e8 07             3653 	.byte	7
000007e9 2d             3654 	.byte	45
000007ea 03             3655 	.byte	3
                        3656 
                        3657 .LDW_4f03050:
000007eb 2d             3658 	.byte	45
000007ec 43414e534d5f   3659 	.strz	"CANSM_S_BUS_OFF_RECOVERY_L1"
000007f2 535f4255535f 
000007f8 4f46465f5245 
000007fe 434f56455259 
00000804 5f4c3100 
00000808 56             3660 	.byte	86
00000809 07             3661 	.byte	7
0000080a 2d             3662 	.byte	45
0000080b 04             3663 	.byte	4
                        3664 
                        3665 .LDW_4f02b90:
0000080c 2d             3666 	.byte	45
0000080d 43414e534d5f   3667 	.strz	"CANSM_S_RESTART_CC"
00000813 535f52455354 
00000819 4152545f4343 
0000081f 00 
00000820 57             3668 	.byte	87
00000821 07             3669 	.byte	7
00000822 2d             3670 	.byte	45
00000823 05             3671 	.byte	5
                        3672 
                        3673 .LDW_4f02910:
00000824 2d             3674 	.byte	45
00000825 43414e534d5f   3675 	.strz	"CANSM_S_RESTART_CC_WAIT"
0000082b 535f52455354 
00000831 4152545f4343 
00000837 5f5741495400 
0000083d 58             3676 	.byte	88
0000083e 07             3677 	.byte	7
0000083f 2d             3678 	.byte	45
00000840 06             3679 	.byte	6
                        3680 
                        3681 .LDW_4f02ed0:
00000841 2d             3682 	.byte	45
00000842 43414e534d5f   3683 	.strz	"CANSM_S_BUS_OFF_RECOVERY_L2"
00000848 535f4255535f 
0000084e 4f46465f5245 
00000854 434f56455259 
0000085a 5f4c3200 
0000085e 59             3684 	.byte	89

                                                                      Page 76
                                                              C:\Users\nhuliyap\AppData\Local\Temp\gh_000014o1.s
0000085f 07             3685 	.byte	7
00000860 2d             3686 	.byte	45
00000861 07             3687 	.byte	7
                        3688 
00000862 00             3689 	.byte	0
                        3690 
                        3691 .LDW_4effed8:
00000863 28             3692 	.byte	40
00000864 43616e534d5f   3693 	.strz	"CanSM_BusOffRecoveryStateType_ten"
0000086a 4275734f6666 
00000870 5265636f7665 
00000876 727953746174 
0000087c 65547970655f 
00000882 74656e00 
00000886 5a             3694 	.byte	90
00000887 02             3695 	.byte	2
00000888 2d             3696 	.byte	45
00000889 00000000*      3697 	.word	.LDW_4efe688
                        3698 
                        3699 .LDW_4ce7798:
0000088d 2e             3700 	.byte	46
0000088e 00             3701 	.byte	0
0000088f 06             3702 	.byte	6
00000890 0d             3703 	.byte	13
00000891 3d             3704 	.byte	61
00000892 01             3705 	.byte	1
00000893 01             3706 	.byte	1
                        3707 
                        3708 .LDW_4d4a400:
00000894 2d             3709 	.byte	45
00000895 43414e534d5f   3710 	.strz	"CANSM_BSWM_NO_COMMUNICATION"
0000089b 4253574d5f4e 
000008a1 4f5f434f4d4d 
000008a7 554e49434154 
000008ad 494f4e00 
000008b1 07             3711 	.byte	7
000008b2 01             3712 	.byte	1
000008b3 3d             3713 	.byte	61
000008b4 00             3714 	.byte	0
                        3715 
                        3716 .LDW_4d4a440:
000008b5 2d             3717 	.byte	45
000008b6 43414e534d5f   3718 	.strz	"CANSM_BSWM_SILENT_COMMUNICATION"
000008bc 4253574d5f53 
000008c2 494c454e545f 
000008c8 434f4d4d554e 
000008ce 49434154494f 
000008d4 4e00 
000008d6 08             3719 	.byte	8
000008d7 01             3720 	.byte	1
000008d8 3d             3721 	.byte	61
000008d9 01             3722 	.byte	1
                        3723 
                        3724 .LDW_4d4a340:
000008da 2d             3725 	.byte	45
000008db 43414e534d5f   3726 	.strz	"CANSM_BSWM_FULL_COMMUNICATION"
000008e1 4253574d5f46 
000008e7 554c4c5f434f 
000008ed 4d4d554e4943 
000008f3 4154494f4e00 
000008f9 09             3727 	.byte	9

                                                                      Page 77
                                                              C:\Users\nhuliyap\AppData\Local\Temp\gh_000014o1.s
000008fa 01             3728 	.byte	1
000008fb 3d             3729 	.byte	61
000008fc 02             3730 	.byte	2
                        3731 
                        3732 .LDW_4d4a500:
000008fd 2d             3733 	.byte	45
000008fe 43414e534d5f   3734 	.strz	"CANSM_BSWM_BUS_OFF"
00000904 4253574d5f42 
0000090a 55535f4f4646 
00000910 00 
00000911 0a             3735 	.byte	10
00000912 01             3736 	.byte	1
00000913 3d             3737 	.byte	61
00000914 03             3738 	.byte	3
                        3739 
                        3740 .LDW_4d4a540:
00000915 2d             3741 	.byte	45
00000916 43414e534d5f   3742 	.strz	"CANSM_BSWM_CHANGE_BAUDRATE"
0000091c 4253574d5f43 
00000922 48414e47455f 
00000928 424155445241 
0000092e 544500 
00000931 0b             3743 	.byte	11
00000932 01             3744 	.byte	1
00000933 3d             3745 	.byte	61
00000934 04             3746 	.byte	4
                        3747 
00000935 00             3748 	.byte	0
                        3749 
                        3750 .LDW_40dd2b0:
00000936 28             3751 	.byte	40
00000937 43616e534d5f   3752 	.strz	"CanSM_BswMCurrentStateType"
0000093d 4273774d4375 
00000943 7272656e7453 
00000949 746174655479 
0000094f 706500 
00000952 0c             3753 	.byte	12
00000953 02             3754 	.byte	2
00000954 3d             3755 	.byte	61
00000955 00000000*      3756 	.word	.LDW_4ce7798
                        3757 
                        3758 .LDW_4f03fa8:
00000959 2e             3759 	.byte	46
0000095a 00             3760 	.byte	0
0000095b 07             3761 	.byte	7
0000095c 0d             3762 	.byte	13
0000095d 40             3763 	.byte	64
0000095e 01             3764 	.byte	1
0000095f 01             3765 	.byte	1
                        3766 
                        3767 .LDW_4f03350:
00000960 2d             3768 	.byte	45
00000961 43414e49465f   3769 	.strz	"CANIF_OFFLINE"
00000967 4f46464c494e 
0000096d 4500 
0000096f 08             3770 	.byte	8
00000970 07             3771 	.byte	7
00000971 40             3772 	.byte	64
00000972 00             3773 	.byte	0
                        3774 
                        3775 .LDW_4f03710:

                                                                      Page 78
                                                              C:\Users\nhuliyap\AppData\Local\Temp\gh_000014o1.s
00000973 2d             3776 	.byte	45
00000974 43414e49465f   3777 	.strz	"CANIF_TX_OFFLINE"
0000097a 54585f4f4646 
00000980 4c494e4500 
00000985 09             3778 	.byte	9
00000986 07             3779 	.byte	7
00000987 40             3780 	.byte	64
00000988 01             3781 	.byte	1
                        3782 
                        3783 .LDW_4f03790:
00000989 2d             3784 	.byte	45
0000098a 43414e49465f   3785 	.strz	"CANIF_TX_OFFLINE_ACTIVE"
00000990 54585f4f4646 
00000996 4c494e455f41 
0000099c 435449564500 
000009a2 0a             3786 	.byte	10
000009a3 07             3787 	.byte	7
000009a4 40             3788 	.byte	64
000009a5 02             3789 	.byte	2
                        3790 
                        3791 .LDW_4f03890:
000009a6 2d             3792 	.byte	45
000009a7 43414e49465f   3793 	.strz	"CANIF_ONLINE"
000009ad 4f4e4c494e45 
000009b3 00 
000009b4 0b             3794 	.byte	11
000009b5 07             3795 	.byte	7
000009b6 40             3796 	.byte	64
000009b7 03             3797 	.byte	3
                        3798 
                        3799 .LDW_4f03410:
000009b8 2d             3800 	.byte	45
000009b9 43414e49465f   3801 	.strz	"CANIF_TX_TP_ONLINE"
000009bf 54585f54505f 
000009c5 4f4e4c494e45 
000009cb 00 
000009cc 0c             3802 	.byte	12
000009cd 07             3803 	.byte	7
000009ce 40             3804 	.byte	64
000009cf 04             3805 	.byte	4
                        3806 
                        3807 .LDW_4f03690:
000009d0 2d             3808 	.byte	45
000009d1 43414e49465f   3809 	.strz	"CANIF_TX_USER_TP_ONLINE"
000009d7 54585f555345 
000009dd 525f54505f4f 
000009e3 4e4c494e4500 
000009e9 0d             3810 	.byte	13
000009ea 07             3811 	.byte	7
000009eb 40             3812 	.byte	64
000009ec 05             3813 	.byte	5
                        3814 
000009ed 00             3815 	.byte	0
                        3816 
                        3817 .LDW_4f002f8:
000009ee 28             3818 	.byte	40
000009ef 43616e49665f   3819 	.strz	"CanIf_PduModeType"
000009f5 5064754d6f64 
000009fb 655479706500 
00000a01 0e             3820 	.byte	14
00000a02 02             3821 	.byte	2

                                                                      Page 79
                                                              C:\Users\nhuliyap\AppData\Local\Temp\gh_000014o1.s
00000a03 40             3822 	.byte	64
00000a04 00000000*      3823 	.word	.LDW_4f03fa8
                        3824 
                        3825 .LDW_4f03f58:
00000a08 2e             3826 	.byte	46
00000a09 00             3827 	.byte	0
00000a0a 10             3828 	.byte	16
00000a0b 0d             3829 	.byte	13
00000a0c 40             3830 	.byte	64
00000a0d 01             3831 	.byte	1
00000a0e 01             3832 	.byte	1
                        3833 
                        3834 .LDW_4f031d0:
00000a0f 2d             3835 	.byte	45
00000a10 43414e49465f   3836 	.strz	"CANIF_CS_UNINIT"
00000a16 43535f554e49 
00000a1c 4e495400 
00000a20 11             3837 	.byte	17
00000a21 07             3838 	.byte	7
00000a22 40             3839 	.byte	64
00000a23 00             3840 	.byte	0
                        3841 
                        3842 .LDW_4f03110:
00000a24 2d             3843 	.byte	45
00000a25 43414e49465f   3844 	.strz	"CANIF_CS_SLEEP"
00000a2b 43535f534c45 
00000a31 455000 
00000a34 12             3845 	.byte	18
00000a35 07             3846 	.byte	7
00000a36 40             3847 	.byte	64
00000a37 01             3848 	.byte	1
                        3849 
                        3850 .LDW_4f03650:
00000a38 2d             3851 	.byte	45
00000a39 43414e49465f   3852 	.strz	"CANIF_CS_STARTED"
00000a3f 43535f535441 
00000a45 5254454400 
00000a4a 13             3853 	.byte	19
00000a4b 07             3854 	.byte	7
00000a4c 40             3855 	.byte	64
00000a4d 02             3856 	.byte	2
                        3857 
                        3858 .LDW_4f03590:
00000a4e 2d             3859 	.byte	45
00000a4f 43414e49465f   3860 	.strz	"CANIF_CS_STOPPED"
00000a55 43535f53544f 
00000a5b 5050454400 
00000a60 14             3861 	.byte	20
00000a61 07             3862 	.byte	7
00000a62 40             3863 	.byte	64
00000a63 03             3864 	.byte	3
                        3865 
00000a64 00             3866 	.byte	0
                        3867 
                        3868 .LDW_4effbc0:
00000a65 28             3869 	.byte	40
00000a66 43616e49665f   3870 	.strz	"CanIf_ControllerModeType"
00000a6c 436f6e74726f 
00000a72 6c6c65724d6f 
00000a78 646554797065 
00000a7e 00 

                                                                      Page 80
                                                              C:\Users\nhuliyap\AppData\Local\Temp\gh_000014o1.s
00000a7f 15             3871 	.byte	21
00000a80 02             3872 	.byte	2
00000a81 40             3873 	.byte	64
00000a82 00000000*      3874 	.word	.LDW_4f03f58
                        3875 
                        3876 .LDW_4f03cd8:
00000a86 2e             3877 	.byte	46
00000a87 00             3878 	.byte	0
00000a88 29             3879 	.byte	41
00000a89 0d             3880 	.byte	13
00000a8a 07             3881 	.byte	7
00000a8b 01             3882 	.byte	1
00000a8c 01             3883 	.byte	1
                        3884 
                        3885 .LDW_4f07368:
00000a8d 2d             3886 	.byte	45
00000a8e 43414e534d5f   3887 	.strz	"CANSM_DEFAULT"
00000a94 44454641554c 
00000a9a 5400 
00000a9c 2a             3888 	.byte	42
00000a9d 07             3889 	.byte	7
00000a9e 07             3890 	.byte	7
00000a9f 00             3891 	.byte	0
                        3892 
                        3893 .LDW_4f076e8:
00000aa0 2d             3894 	.byte	45
00000aa1 43414e534d5f   3895 	.strz	"CANSM_S_CC_STOPPED"
00000aa7 535f43435f53 
00000aad 544f50504544 
00000ab3 00 
00000ab4 2b             3896 	.byte	43
00000ab5 07             3897 	.byte	7
00000ab6 07             3898 	.byte	7
00000ab7 01             3899 	.byte	1
                        3900 
                        3901 .LDW_4f07668:
00000ab8 2d             3902 	.byte	45
00000ab9 43414e534d5f   3903 	.strz	"CANSM_S_PN_CC_STOPPED"
00000abf 535f504e5f43 
00000ac5 435f53544f50 
00000acb 50454400 
00000acf 2c             3904 	.byte	44
00000ad0 07             3905 	.byte	7
00000ad1 07             3906 	.byte	7
00000ad2 02             3907 	.byte	2
                        3908 
                        3909 .LDW_4f07128:
00000ad3 2d             3910 	.byte	45
00000ad4 43414e534d5f   3911 	.strz	"CANSM_S_CC_STOPPED_WAIT"
00000ada 535f43435f53 
00000ae0 544f50504544 
00000ae6 5f5741495400 
00000aec 2d             3912 	.byte	45
00000aed 07             3913 	.byte	7
00000aee 07             3914 	.byte	7
00000aef 03             3915 	.byte	3
                        3916 
                        3917 .LDW_4f072e8:
00000af0 2d             3918 	.byte	45
00000af1 43414e534d5f   3919 	.strz	"CANSM_S_PN_CC_STOPPED_WAIT"
00000af7 535f504e5f43 

                                                                      Page 81
                                                              C:\Users\nhuliyap\AppData\Local\Temp\gh_000014o1.s
00000afd 435f53544f50 
00000b03 5045445f5741 
00000b09 495400 
00000b0c 2e             3920 	.byte	46
00000b0d 07             3921 	.byte	7
00000b0e 07             3922 	.byte	7
00000b0f 04             3923 	.byte	4
                        3924 
                        3925 .LDW_4f07628:
00000b10 2d             3926 	.byte	45
00000b11 43414e534d5f   3927 	.strz	"CANSM_S_CC_SLEEP"
00000b17 535f43435f53 
00000b1d 4c45455000 
00000b22 2f             3928 	.byte	47
00000b23 07             3929 	.byte	7
00000b24 07             3930 	.byte	7
00000b25 05             3931 	.byte	5
                        3932 
                        3933 .LDW_4f077a8:
00000b26 2d             3934 	.byte	45
00000b27 43414e534d5f   3935 	.strz	"CANSM_S_PN_CC_SLEEP"
00000b2d 535f504e5f43 
00000b33 435f534c4545 
00000b39 5000 
00000b3b 30             3936 	.byte	48
00000b3c 07             3937 	.byte	7
00000b3d 07             3938 	.byte	7
00000b3e 06             3939 	.byte	6
                        3940 
                        3941 .LDW_4f071e8:
00000b3f 2d             3942 	.byte	45
00000b40 43414e534d5f   3943 	.strz	"CANSM_S_CC_SLEEP_WAIT"
00000b46 535f43435f53 
00000b4c 4c4545505f57 
00000b52 41495400 
00000b56 31             3944 	.byte	49
00000b57 07             3945 	.byte	7
00000b58 07             3946 	.byte	7
00000b59 07             3947 	.byte	7
                        3948 
                        3949 .LDW_4f07868:
00000b5a 2d             3950 	.byte	45
00000b5b 43414e534d5f   3951 	.strz	"CANSM_S_PN_CC_SLEEP_WAIT"
00000b61 535f504e5f43 
00000b67 435f534c4545 
00000b6d 505f57414954 
00000b73 00 
00000b74 32             3952 	.byte	50
00000b75 07             3953 	.byte	7
00000b76 07             3954 	.byte	7
00000b77 08             3955 	.byte	8
                        3956 
                        3957 .LDW_4f074e8:
00000b78 2d             3958 	.byte	45
00000b79 43414e534d5f   3959 	.strz	"CANSM_S_TRCV_NORMAL"
00000b7f 535f54524356 
00000b85 5f4e4f524d41 
00000b8b 4c00 
00000b8d 33             3960 	.byte	51
00000b8e 07             3961 	.byte	7
00000b8f 07             3962 	.byte	7

                                                                      Page 82
                                                              C:\Users\nhuliyap\AppData\Local\Temp\gh_000014o1.s
00000b90 09             3963 	.byte	9
                        3964 
                        3965 .LDW_4f07268:
00000b91 2d             3966 	.byte	45
00000b92 43414e534d5f   3967 	.strz	"CANSM_S_PN_TRCV_NORMAL"
00000b98 535f504e5f54 
00000b9e 5243565f4e4f 
00000ba4 524d414c00 
00000ba9 34             3968 	.byte	52
00000baa 07             3969 	.byte	7
00000bab 07             3970 	.byte	7
00000bac 0a             3971 	.byte	10
                        3972 
                        3973 .LDW_4f073a8:
00000bad 2d             3974 	.byte	45
00000bae 43414e534d5f   3975 	.strz	"CANSM_S_TRCV_NORMAL_WAIT"
00000bb4 535f54524356 
00000bba 5f4e4f524d41 
00000bc0 4c5f57414954 
00000bc6 00 
00000bc7 35             3976 	.byte	53
00000bc8 07             3977 	.byte	7
00000bc9 07             3978 	.byte	7
00000bca 0b             3979 	.byte	11
                        3980 
                        3981 .LDW_4f073e8:
00000bcb 2d             3982 	.byte	45
00000bcc 43414e534d5f   3983 	.strz	"CANSM_S_PN_TRCV_NORMAL_WAIT"
00000bd2 535f504e5f54 
00000bd8 5243565f4e4f 
00000bde 524d414c5f57 
00000be4 41495400 
00000be8 36             3984 	.byte	54
00000be9 07             3985 	.byte	7
00000bea 07             3986 	.byte	7
00000beb 0c             3987 	.byte	12
                        3988 
                        3989 .LDW_4f07728:
00000bec 2d             3990 	.byte	45
00000bed 43414e534d5f   3991 	.strz	"CANSM_S_TRCV_STANDBY"
00000bf3 535f54524356 
00000bf9 5f5354414e44 
00000bff 425900 
00000c02 37             3992 	.byte	55
00000c03 07             3993 	.byte	7
00000c04 07             3994 	.byte	7
00000c05 0d             3995 	.byte	13
                        3996 
                        3997 .LDW_4f07568:
00000c06 2d             3998 	.byte	45
00000c07 43414e534d5f   3999 	.strz	"CANSM_S_PN_TRCV_STANDBY"
00000c0d 535f504e5f54 
00000c13 5243565f5354 
00000c19 414e44425900 
00000c1f 38             4000 	.byte	56
00000c20 07             4001 	.byte	7
00000c21 07             4002 	.byte	7
00000c22 0e             4003 	.byte	14
                        4004 
                        4005 .LDW_4f07768:
00000c23 2d             4006 	.byte	45

                                                                      Page 83
                                                              C:\Users\nhuliyap\AppData\Local\Temp\gh_000014o1.s
00000c24 43414e534d5f   4007 	.strz	"CANSM_S_TRCV_STANDBY_WAIT"
00000c2a 535f54524356 
00000c30 5f5354414e44 
00000c36 42595f574149 
00000c3c 5400 
00000c3e 39             4008 	.byte	57
00000c3f 07             4009 	.byte	7
00000c40 07             4010 	.byte	7
00000c41 0f             4011 	.byte	15
                        4012 
                        4013 .LDW_4f078a8:
00000c42 2d             4014 	.byte	45
00000c43 43414e534d5f   4015 	.strz	"CANSM_S_PN_TRCV_STANDBY_WAIT"
00000c49 535f504e5f54 
00000c4f 5243565f5354 
00000c55 414e4442595f 
00000c5b 5741495400 
00000c60 3a             4016 	.byte	58
00000c61 07             4017 	.byte	7
00000c62 07             4018 	.byte	7
00000c63 10             4019 	.byte	16
                        4020 
                        4021 .LDW_4f07168:
00000c64 2d             4022 	.byte	45
00000c65 43414e534d5f   4023 	.strz	"CANSM_S_PN_CLEAR_WUF"
00000c6b 535f504e5f43 
00000c71 4c4541525f57 
00000c77 554600 
00000c7a 3b             4024 	.byte	59
00000c7b 07             4025 	.byte	7
00000c7c 07             4026 	.byte	7
00000c7d 11             4027 	.byte	17
                        4028 
                        4029 .LDW_4f07428:
00000c7e 2d             4030 	.byte	45
00000c7f 43414e534d5f   4031 	.strz	"CANSM_S_PN_CLEAR_WUF_WAIT"
00000c85 535f504e5f43 
00000c8b 4c4541525f57 
00000c91 55465f574149 
00000c97 5400 
00000c99 3c             4032 	.byte	60
00000c9a 07             4033 	.byte	7
00000c9b 07             4034 	.byte	7
00000c9c 12             4035 	.byte	18
                        4036 
                        4037 .LDW_4f07228:
00000c9d 2d             4038 	.byte	45
00000c9e 43414e534d5f   4039 	.strz	"CANSM_S_CHECK_WFLAG_IN_CC_SLEEP"
00000ca4 535f43484543 
00000caa 4b5f57464c41 
00000cb0 475f494e5f43 
00000cb6 435f534c4545 
00000cbc 5000 
00000cbe 3d             4040 	.byte	61
00000cbf 07             4041 	.byte	7
00000cc0 07             4042 	.byte	7
00000cc1 13             4043 	.byte	19
                        4044 
                        4045 .LDW_4f072a8:
00000cc2 2d             4046 	.byte	45
00000cc3 43414e534d5f   4047 	.strz	"CANSM_S_CHECK_WFLAG_IN_CC_SLEEP_WAIT"

                                                                      Page 84
                                                              C:\Users\nhuliyap\AppData\Local\Temp\gh_000014o1.s
00000cc9 535f43484543 
00000ccf 4b5f57464c41 
00000cd5 475f494e5f43 
00000cdb 435f534c4545 
00000ce1 505f57414954 
00000ce7 00 
00000ce8 3e             4048 	.byte	62
00000ce9 07             4049 	.byte	7
00000cea 07             4050 	.byte	7
00000ceb 14             4051 	.byte	20
                        4052 
                        4053 .LDW_4f07468:
00000cec 2d             4054 	.byte	45
00000ced 43414e534d5f   4055 	.strz	"CANSM_S_CHECK_WFLAG_IN_NOT_CC_SLEEP"
00000cf3 535f43484543 
00000cf9 4b5f57464c41 
00000cff 475f494e5f4e 
00000d05 4f545f43435f 
00000d0b 534c45455000 
00000d11 3f             4056 	.byte	63
00000d12 07             4057 	.byte	7
00000d13 07             4058 	.byte	7
00000d14 15             4059 	.byte	21
                        4060 
                        4061 .LDW_4f075a8:
00000d15 2d             4062 	.byte	45
00000d16 43414e534d5f   4063 	.strz	"CANSM_S_CHECK_WFLAG_IN_NOT_CC_SLEEP_WAIT"
00000d1c 535f43484543 
00000d22 4b5f57464c41 
00000d28 475f494e5f4e 
00000d2e 4f545f43435f 
00000d34 534c4545505f 
00000d3a 5741495400 
00000d3f 40             4064 	.byte	64
00000d40 07             4065 	.byte	7
00000d41 07             4066 	.byte	7
00000d42 16             4067 	.byte	22
                        4068 
00000d43 00             4069 	.byte	0
                        4070 
                        4071 .LDW_4f13728:
00000d44 28             4072 	.byte	40
00000d45 43616e534d5f   4073 	.strz	"CanSM_PreNoCom_Substates_ten"
00000d4b 5072654e6f43 
00000d51 6f6d5f537562 
00000d57 737461746573 
00000d5d 5f74656e00 
00000d62 41             4074 	.byte	65
00000d63 02             4075 	.byte	2
00000d64 07             4076 	.byte	7
00000d65 00000000*      4077 	.word	.LDW_4f03cd8
                        4078 
                        4079 .LDW_4ce7748:
00000d69 2e             4080 	.byte	46
00000d6a 00             4081 	.byte	0
00000d6b 49             4082 	.byte	73
00000d6c 0d             4083 	.byte	13
00000d6d 07             4084 	.byte	7
00000d6e 01             4085 	.byte	1
00000d6f 01             4086 	.byte	1
                        4087 

                                                                      Page 85
                                                              C:\Users\nhuliyap\AppData\Local\Temp\gh_000014o1.s
                        4088 .LDW_4d49fc0:
00000d70 2d             4089 	.byte	45
00000d71 43414e534d5f   4090 	.strz	"CANSM_PRE_FULLCOM_DEFAULT"
00000d77 5052455f4655 
00000d7d 4c4c434f4d5f 
00000d83 44454641554c 
00000d89 5400 
00000d8b 4a             4091 	.byte	74
00000d8c 07             4092 	.byte	7
00000d8d 07             4093 	.byte	7
00000d8e 00             4094 	.byte	0
                        4095 
                        4096 .LDW_4d4a480:
00000d8f 2d             4097 	.byte	45
00000d90 43414e534d5f   4098 	.strz	"CANSM_PRE_FULLCOM_S_TRCV_NORMAL"
00000d96 5052455f4655 
00000d9c 4c4c434f4d5f 
00000da2 535f54524356 
00000da8 5f4e4f524d41 
00000dae 4c00 
00000db0 4b             4099 	.byte	75
00000db1 07             4100 	.byte	7
00000db2 07             4101 	.byte	7
00000db3 01             4102 	.byte	1
                        4103 
                        4104 .LDW_4d4a280:
00000db4 2d             4105 	.byte	45
00000db5 43414e534d5f   4106 	.strz	"CANSM_PRE_FULLCOM_S_TRCV_NORMAL_WAIT"
00000dbb 5052455f4655 
00000dc1 4c4c434f4d5f 
00000dc7 535f54524356 
00000dcd 5f4e4f524d41 
00000dd3 4c5f57414954 
00000dd9 00 
00000dda 4c             4107 	.byte	76
00000ddb 07             4108 	.byte	7
00000ddc 07             4109 	.byte	7
00000ddd 02             4110 	.byte	2
                        4111 
                        4112 .LDW_4d4a000:
00000dde 2d             4113 	.byte	45
00000ddf 43414e534d5f   4114 	.strz	"CANSM_PRE_FULLCOM_S_CC_STOPPED"
00000de5 5052455f4655 
00000deb 4c4c434f4d5f 
00000df1 535f43435f53 
00000df7 544f50504544 
00000dfd 00 
00000dfe 4d             4115 	.byte	77
00000dff 07             4116 	.byte	7
00000e00 07             4117 	.byte	7
00000e01 03             4118 	.byte	3
                        4119 
                        4120 .LDW_4d4a4c0:
00000e02 2d             4121 	.byte	45
00000e03 43414e534d5f   4122 	.strz	"CANSM_PRE_FULLCOM_S_CC_STOPPED_WAIT"
00000e09 5052455f4655 
00000e0f 4c4c434f4d5f 
00000e15 535f43435f53 
00000e1b 544f50504544 
00000e21 5f5741495400 
00000e27 4e             4123 	.byte	78

                                                                      Page 86
                                                              C:\Users\nhuliyap\AppData\Local\Temp\gh_000014o1.s
00000e28 07             4124 	.byte	7
00000e29 07             4125 	.byte	7
00000e2a 04             4126 	.byte	4
                        4127 
                        4128 .LDW_4d4a5c0:
00000e2b 2d             4129 	.byte	45
00000e2c 43414e534d5f   4130 	.strz	"CANSM_PRE_FULLCOM_S_CC_STARTED"
00000e32 5052455f4655 
00000e38 4c4c434f4d5f 
00000e3e 535f43435f53 
00000e44 544152544544 
00000e4a 00 
00000e4b 4f             4131 	.byte	79
00000e4c 07             4132 	.byte	7
00000e4d 07             4133 	.byte	7
00000e4e 05             4134 	.byte	5
                        4135 
                        4136 .LDW_4d4a300:
00000e4f 2d             4137 	.byte	45
00000e50 43414e534d5f   4138 	.strz	"CANSM_PRE_FULLCOM_S_CC_STARTED_WAIT"
00000e56 5052455f4655 
00000e5c 4c4c434f4d5f 
00000e62 535f43435f53 
00000e68 544152544544 
00000e6e 5f5741495400 
00000e74 50             4139 	.byte	80
00000e75 07             4140 	.byte	7
00000e76 07             4141 	.byte	7
00000e77 06             4142 	.byte	6
                        4143 
00000e78 00             4144 	.byte	0
                        4145 
                        4146 .LDW_40dcff0:
00000e79 28             4147 	.byte	40
00000e7a 43616e534d5f   4148 	.strz	"CanSM_PreFullCom_Substates_ten"
00000e80 50726546756c 
00000e86 6c436f6d5f53 
00000e8c 756273746174 
00000e92 65735f74656e 
00000e98 00 
00000e99 51             4149 	.byte	81
00000e9a 02             4150 	.byte	2
00000e9b 07             4151 	.byte	7
00000e9c 00000000*      4152 	.word	.LDW_4ce7748
                        4153 
                        4154 .LDW_4ce7838:
00000ea0 2e             4155 	.byte	46
00000ea1 00             4156 	.byte	0
00000ea2 53             4157 	.byte	83
00000ea3 0d             4158 	.byte	13
00000ea4 07             4159 	.byte	7
00000ea5 01             4160 	.byte	1
00000ea6 01             4161 	.byte	1
                        4162 
                        4163 .LDW_4d4e568:
00000ea7 2d             4164 	.byte	45
00000ea8 43414e534d5f   4165 	.strz	"CANSM_WAKEUP_VALIDATION_DEFAULT"
00000eae 57414b455550 
00000eb4 5f56414c4944 
00000eba 4154494f4e5f 
00000ec0 44454641554c 

                                                                      Page 87
                                                              C:\Users\nhuliyap\AppData\Local\Temp\gh_000014o1.s
00000ec6 5400 
00000ec8 54             4166 	.byte	84
00000ec9 07             4167 	.byte	7
00000eca 07             4168 	.byte	7
00000ecb 00             4169 	.byte	0
                        4170 
                        4171 .LDW_4d4e2a8:
00000ecc 2d             4172 	.byte	45
00000ecd 43414e534d5f   4173 	.strz	"CANSM_WAKEUP_VALIDATION_S_TRCV_NORMAL"
00000ed3 57414b455550 
00000ed9 5f56414c4944 
00000edf 4154494f4e5f 
00000ee5 535f54524356 
00000eeb 5f4e4f524d41 
00000ef1 4c00 
00000ef3 55             4174 	.byte	85
00000ef4 07             4175 	.byte	7
00000ef5 07             4176 	.byte	7
00000ef6 01             4177 	.byte	1
                        4178 
                        4179 .LDW_4d4e1e8:
00000ef7 2d             4180 	.byte	45
00000ef8 43414e534d5f   4181 	.strz	"CANSM_WAKEUP_VALIDATION_S_TRCV_NORMAL_WAIT"
00000efe 57414b455550 
00000f04 5f56414c4944 
00000f0a 4154494f4e5f 
00000f10 535f54524356 
00000f16 5f4e4f524d41 
00000f1c 4c5f57414954 
00000f22 00 
00000f23 56             4182 	.byte	86
00000f24 07             4183 	.byte	7
00000f25 07             4184 	.byte	7
00000f26 02             4185 	.byte	2
                        4186 
                        4187 .LDW_4d4e768:
00000f27 2d             4188 	.byte	45
00000f28 43414e534d5f   4189 	.strz	"CANSM_WAKEUP_VALIDATION_S_CC_STOPPED"
00000f2e 57414b455550 
00000f34 5f56414c4944 
00000f3a 4154494f4e5f 
00000f40 535f43435f53 
00000f46 544f50504544 
00000f4c 00 
00000f4d 57             4190 	.byte	87
00000f4e 07             4191 	.byte	7
00000f4f 07             4192 	.byte	7
00000f50 03             4193 	.byte	3
                        4194 
                        4195 .LDW_4d4e2e8:
00000f51 2d             4196 	.byte	45
00000f52 43414e534d5f   4197 	.strz	"CANSM_WAKEUP_VALIDATION_S_CC_STOPPED_WAIT"
00000f58 57414b455550 
00000f5e 5f56414c4944 
00000f64 4154494f4e5f 
00000f6a 535f43435f53 
00000f70 544f50504544 
00000f76 5f5741495400 
00000f7c 58             4198 	.byte	88
00000f7d 07             4199 	.byte	7
00000f7e 07             4200 	.byte	7

                                                                      Page 88
                                                              C:\Users\nhuliyap\AppData\Local\Temp\gh_000014o1.s
00000f7f 04             4201 	.byte	4
                        4202 
                        4203 .LDW_4d4e3e8:
00000f80 2d             4204 	.byte	45
00000f81 43414e534d5f   4205 	.strz	"CANSM_WAKEUP_VALIDATION_S_CC_STARTED"
00000f87 57414b455550 
00000f8d 5f56414c4944 
00000f93 4154494f4e5f 
00000f99 535f43435f53 
00000f9f 544152544544 
00000fa5 00 
00000fa6 59             4206 	.byte	89
00000fa7 07             4207 	.byte	7
00000fa8 07             4208 	.byte	7
00000fa9 05             4209 	.byte	5
                        4210 
                        4211 .LDW_4d4e4a8:
00000faa 2d             4212 	.byte	45
00000fab 43414e534d5f   4213 	.strz	"CANSM_WAKEUP_VALIDATION_S_CC_STARTED_WAIT"
00000fb1 57414b455550 
00000fb7 5f56414c4944 
00000fbd 4154494f4e5f 
00000fc3 535f43435f53 
00000fc9 544152544544 
00000fcf 5f5741495400 
00000fd5 5a             4214 	.byte	90
00000fd6 07             4215 	.byte	7
00000fd7 07             4216 	.byte	7
00000fd8 06             4217 	.byte	6
                        4218 
00000fd9 00             4219 	.byte	0
                        4220 
                        4221 .LDW_4dab998:
00000fda 28             4222 	.byte	40
00000fdb 43616e534d5f   4223 	.strz	"CanSM_WakeUpValidation_Substates_ten"
00000fe1 57616b655570 
00000fe7 56616c696461 
00000fed 74696f6e5f53 
00000ff3 756273746174 
00000ff9 65735f74656e 
00000fff 00 
00001000 5b             4224 	.byte	91
00001001 02             4225 	.byte	2
00001002 07             4226 	.byte	7
00001003 00000000*      4227 	.word	.LDW_4ce7838
                        4228 
                        4229 .LDW_4ce77e8:
00001007 2e             4230 	.byte	46
00001008 00             4231 	.byte	0
00001009 69             4232 	.byte	105
0000100a 0d             4233 	.byte	13
0000100b 07             4234 	.byte	7
0000100c 01             4235 	.byte	1
0000100d 01             4236 	.byte	1
                        4237 
                        4238 .LDW_4d4e468:
0000100e 2d             4239 	.byte	45
0000100f 43414e534d5f   4240 	.strz	"CANSM_TxTimeoutException_DEFAULT"
00001015 547854696d65 
0000101b 6f7574457863 
00001021 657074696f6e 

                                                                      Page 89
                                                              C:\Users\nhuliyap\AppData\Local\Temp\gh_000014o1.s
00001027 5f4445464155 
0000102d 4c5400 
00001030 6a             4241 	.byte	106
00001031 07             4242 	.byte	7
00001032 07             4243 	.byte	7
00001033 00             4244 	.byte	0
                        4245 
                        4246 .LDW_4d4e428:
00001034 2d             4247 	.byte	45
00001035 43414e534d5f   4248 	.strz	"CANSM_TxTimeoutException_S_CC_STOPPED"
0000103b 547854696d65 
00001041 6f7574457863 
00001047 657074696f6e 
0000104d 5f535f43435f 
00001053 53544f505045 
00001059 4400 
0000105b 6b             4249 	.byte	107
0000105c 07             4250 	.byte	7
0000105d 07             4251 	.byte	7
0000105e 01             4252 	.byte	1
                        4253 
                        4254 .LDW_4d4e0e8:
0000105f 2d             4255 	.byte	45
00001060 43414e534d5f   4256 	.strz	"CANSM_TxTimeoutException_S_CC_STOPPED_WAIT"
00001066 547854696d65 
0000106c 6f7574457863 
00001072 657074696f6e 
00001078 5f535f43435f 
0000107e 53544f505045 
00001084 445f57414954 
0000108a 00 
0000108b 6c             4257 	.byte	108
0000108c 07             4258 	.byte	7
0000108d 07             4259 	.byte	7
0000108e 02             4260 	.byte	2
                        4261 
                        4262 .LDW_4d4e5a8:
0000108f 2d             4263 	.byte	45
00001090 43414e534d5f   4264 	.strz	"CANSM_TxTimeoutException_S_CC_STARTED"
00001096 547854696d65 
0000109c 6f7574457863 
000010a2 657074696f6e 
000010a8 5f535f43435f 
000010ae 535441525445 
000010b4 4400 
000010b6 6d             4265 	.byte	109
000010b7 07             4266 	.byte	7
000010b8 07             4267 	.byte	7
000010b9 03             4268 	.byte	3
                        4269 
                        4270 .LDW_4d4e1a8:
000010ba 2d             4271 	.byte	45
000010bb 43414e534d5f   4272 	.strz	"CANSM_TxTimeoutException_S_CC_STARTED_WAIT"
000010c1 547854696d65 
000010c7 6f7574457863 
000010cd 657074696f6e 
000010d3 5f535f43435f 
000010d9 535441525445 
000010df 445f57414954 
000010e5 00 
000010e6 6e             4273 	.byte	110

                                                                      Page 90
                                                              C:\Users\nhuliyap\AppData\Local\Temp\gh_000014o1.s
000010e7 07             4274 	.byte	7
000010e8 07             4275 	.byte	7
000010e9 04             4276 	.byte	4
                        4277 
000010ea 00             4278 	.byte	0
                        4279 
                        4280 .LDW_4dab050:
000010eb 28             4281 	.byte	40
000010ec 43616e534d5f   4282 	.strz	"CanSM_TxTimeoutException_Substates_ten"
000010f2 547854696d65 
000010f8 6f7574457863 
000010fe 657074696f6e 
00001104 5f5375627374 
0000110a 617465735f74 
00001110 656e00 
00001113 6f             4283 	.byte	111
00001114 02             4284 	.byte	2
00001115 07             4285 	.byte	7
00001116 00000000*      4286 	.word	.LDW_4ce77e8
                        4287 
                        4288 .LDW_4f03ff8:
0000111a 2e             4289 	.byte	46
0000111b 00             4290 	.byte	0
0000111c 71             4291 	.byte	113
0000111d 0d             4292 	.byte	13
0000111e 07             4293 	.byte	7
0000111f 01             4294 	.byte	1
00001120 01             4295 	.byte	1
                        4296 
                        4297 .LDW_4f07328:
00001121 2d             4298 	.byte	45
00001122 43414e534d5f   4299 	.strz	"CANSM_ControllerState_UNINIT"
00001128 436f6e74726f 
0000112e 6c6c65725374 
00001134 6174655f554e 
0000113a 494e495400 
0000113f 72             4300 	.byte	114
00001140 07             4301 	.byte	7
00001141 07             4302 	.byte	7
00001142 00             4303 	.byte	0
                        4304 
                        4305 .LDW_4f15758:
00001143 2d             4306 	.byte	45
00001144 43414e534d5f   4307 	.strz	"CANSM_ControllerState_STOPPED"
0000114a 436f6e74726f 
00001150 6c6c65725374 
00001156 6174655f5354 
0000115c 4f5050454400 
00001162 73             4308 	.byte	115
00001163 07             4309 	.byte	7
00001164 07             4310 	.byte	7
00001165 01             4311 	.byte	1
                        4312 
                        4313 .LDW_4f157d8:
00001166 2d             4314 	.byte	45
00001167 43414e534d5f   4315 	.strz	"CANSM_ControllerState_STARTED"
0000116d 436f6e74726f 
00001173 6c6c65725374 
00001179 6174655f5354 
0000117f 415254454400 
00001185 74             4316 	.byte	116

                                                                      Page 91
                                                              C:\Users\nhuliyap\AppData\Local\Temp\gh_000014o1.s
00001186 07             4317 	.byte	7
00001187 07             4318 	.byte	7
00001188 02             4319 	.byte	2
                        4320 
                        4321 .LDW_4f158d8:
00001189 2d             4322 	.byte	45
0000118a 43414e534d5f   4323 	.strz	"CANSM_ControllerState_SLEEP"
00001190 436f6e74726f 
00001196 6c6c65725374 
0000119c 6174655f534c 
000011a2 45455000 
000011a6 75             4324 	.byte	117
000011a7 07             4325 	.byte	7
000011a8 07             4326 	.byte	7
000011a9 03             4327 	.byte	3
                        4328 
000011aa 00             4329 	.byte	0
                        4330 
                        4331 .LDW_4f138e0:
000011ab 28             4332 	.byte	40
000011ac 43616e534d5f   4333 	.strz	"CanSM_CANControllerStateType_ten"
000011b2 43414e436f6e 
000011b8 74726f6c6c65 
000011be 725374617465 
000011c4 547970655f74 
000011ca 656e00 
000011cd 76             4334 	.byte	118
000011ce 02             4335 	.byte	2
000011cf 07             4336 	.byte	7
000011d0 00000000*      4337 	.word	.LDW_4f03ff8
                        4338 
                        4339 .LDW_4f03d78:
000011d4 2e             4340 	.byte	46
000011d5 00             4341 	.byte	0
000011d6 78             4342 	.byte	120
000011d7 0d             4343 	.byte	13
000011d8 07             4344 	.byte	7
000011d9 01             4345 	.byte	1
000011da 01             4346 	.byte	1
                        4347 
                        4348 .LDW_4f15558:
000011db 2d             4349 	.byte	45
000011dc 43414e534d5f   4350 	.strz	"CANSM_TIMER_INIT"
000011e2 54494d45525f 
000011e8 494e495400 
000011ed 79             4351 	.byte	121
000011ee 07             4352 	.byte	7
000011ef 07             4353 	.byte	7
000011f0 01             4354 	.byte	1
                        4355 
                        4356 .LDW_4f15518:
000011f1 2d             4357 	.byte	45
000011f2 43414e534d5f   4358 	.strz	"CANSM_TIMER_RUNNING"
000011f8 54494d45525f 
000011fe 52554e4e494e 
00001204 4700 
00001206 7a             4359 	.byte	122
00001207 07             4360 	.byte	7
00001208 07             4361 	.byte	7
00001209 02             4362 	.byte	2
                        4363 

                                                                      Page 92
                                                              C:\Users\nhuliyap\AppData\Local\Temp\gh_000014o1.s
                        4364 .LDW_4f151d8:
0000120a 2d             4365 	.byte	45
0000120b 43414e534d5f   4366 	.strz	"CANSM_TIMER_ELAPSED"
00001211 54494d45525f 
00001217 454c41505345 
0000121d 4400 
0000121f 7b             4367 	.byte	123
00001220 07             4368 	.byte	7
00001221 07             4369 	.byte	7
00001222 03             4370 	.byte	3
                        4371 
                        4372 .LDW_4f15918:
00001223 2d             4373 	.byte	45
00001224 43414e534d5f   4374 	.strz	"CANSM_TIMER_CANCELLED"
0000122a 54494d45525f 
00001230 43414e43454c 
00001236 4c454400 
0000123a 7c             4375 	.byte	124
0000123b 07             4376 	.byte	7
0000123c 07             4377 	.byte	7
0000123d 04             4378 	.byte	4
                        4379 
0000123e 00             4380 	.byte	0
                        4381 
                        4382 .LDW_4f13938:
0000123f 28             4383 	.byte	40
00001240 43616e534d5f   4384 	.strz	"CanSM_TimerStateType_ten"
00001246 54696d657253 
0000124c 746174655479 
00001252 70655f74656e 
00001258 00 
00001259 7d             4385 	.byte	125
0000125a 02             4386 	.byte	2
0000125b 07             4387 	.byte	7
0000125c 00000000*      4388 	.word	.LDW_4f03d78
                        4389 
                        4390 .LDW_4f13c50:
00001260 41             4391 	.byte	65
00001261 7f             4392 	.byte	127
00001262 0f             4393 	.byte	15
00001263 07             4394 	.byte	7
00001264 04             4395 	.byte	4
00001265 01             4396 	.byte	1
                        4397 
                        4398 .LDW_4f130d0:
00001266 23             4399 	.byte	35
00001267 737454696d65   4400 	.strz	"stTimer"
0000126d 7200 
0000126f 8001           4401 	.byte	128,1
00001271 2d             4402 	.byte	45
00001272 07             4403 	.byte	7
00001273 00000000*      4404 	.word	.LDW_4f13938
00001277 0223           4405 	.byte	2,35
00001279 00             4406 	.byte	0
0000127a 01             4407 	.byte	1
                        4408 
                        4409 .LDW_4f12f20:
0000127b 23             4410 	.byte	35
0000127c 636e74546963   4411 	.strz	"cntTick_u16"
00001282 6b5f75313600 
00001288 8101           4412 	.byte	129,1

                                                                      Page 93
                                                              C:\Users\nhuliyap\AppData\Local\Temp\gh_000014o1.s
0000128a 29             4413 	.byte	41
0000128b 07             4414 	.byte	7
0000128c 00000000*      4415 	.word	.LDW_4cc9070
00001290 0223           4416 	.byte	2,35
00001292 02             4417 	.byte	2
00001293 01             4418 	.byte	1
                        4419 
00001294 00             4420 	.byte	0
                        4421 
                        4422 .LDW_4f13e08:
00001295 28             4423 	.byte	40
00001296 43616e534d5f   4424 	.strz	"CanSM_TimerConfig_tst"
0000129c 54696d657243 
000012a2 6f6e6669675f 
000012a8 74737400 
000012ac 8201           4425 	.byte	130,1
000012ae 02             4426 	.byte	2
000012af 07             4427 	.byte	7
000012b0 00000000*      4428 	.word	.LDW_4f13c50
                        4429 
                        4430 .LDW_4f14cd0:
000012b4 05             4431 	.byte	5
000012b5 436667537763   4432 	.strz	"CfgSwcServiceCanSM_castConfigSet_pcst"
000012bb 536572766963 
000012c1 6543616e534d 
000012c7 5f6361737443 
000012cd 6f6e66696753 
000012d3 65745f706373 
000012d9 7400 
000012db 4c             4433 	.byte	76
000012dc 49             4434 	.byte	73
000012dd 2e             4435 	.byte	46
000012de 00000000*      4436 	.word	.LDW_4f10da0
000012e2 01             4437 	.byte	1
000012e3 01             4438 	.byte	1
                        4439 
                        4440 	.section	.debug_abbrev
000000b2 05             4441 	.byte	5
000000b3 34             4442 	.byte	52
000000b4 00             4443 	.byte	0
000000b5 0308           4444 	.byte	3,8
000000b7 3b0f           4445 	.byte	59,15
000000b9 390f           4446 	.byte	57,15
000000bb 3a0f           4447 	.byte	58,15
000000bd 4910           4448 	.byte	73,16
000000bf 3f0c           4449 	.byte	63,12
000000c1 3c0c           4450 	.byte	60,12
000000c3 0000           4451 	.byte	0,0
                        4452 
                        4453 	.section	.debug_info
                        4454 .LDW_4f17690:
000012e4 05             4455 	.byte	5
000012e5 43616e534d5f   4456 	.strz	"CanSM_Network_pcst"
000012eb 4e6574776f72 
000012f1 6b5f70637374 
000012f7 00 
000012f8 a501           4457 	.byte	165,1
000012fa 44             4458 	.byte	68
000012fb 07             4459 	.byte	7
000012fc 00000000*      4460 	.word	.LDW_4e00700
00001300 01             4461 	.byte	1

                                                                      Page 94
                                                              C:\Users\nhuliyap\AppData\Local\Temp\gh_000014o1.s
00001301 01             4462 	.byte	1
                        4463 
                        4464 .LDW_4f178a0:
00001302 05             4465 	.byte	5
00001303 43616e534d5f   4466 	.strz	"CanSM_TimerConfig_ast"
00001309 54696d657243 
0000130f 6f6e6669675f 
00001315 61737400 
00001319 ab01           4467 	.byte	171,1
0000131b 2f             4468 	.byte	47
0000131c 07             4469 	.byte	7
0000131d 00000000*      4470 	.word	.LDW_4f16d08
00001321 01             4471 	.byte	1
00001322 01             4472 	.byte	1
                        4473 
                        4474 .LDW_4f17168:
00001323 05             4475 	.byte	5
00001324 43616e534d5f   4476 	.strz	"CanSM_CurrNw_Mode_en"
0000132a 437572724e77 
00001330 5f4d6f64655f 
00001336 656e00 
00001339 b701           4477 	.byte	183,1
0000133b 37             4478 	.byte	55
0000133c 07             4479 	.byte	7
0000133d 00000000*      4480 	.word	.LDW_4f161e0
00001341 01             4481 	.byte	1
00001342 01             4482 	.byte	1
                        4483 
                        4484 .LDW_4f17a00:
00001343 05             4485 	.byte	5
00001344 43616e534d5f   4486 	.strz	"CanSM_currBOR_State_en"
0000134a 63757272424f 
00001350 525f53746174 
00001356 655f656e00 
0000135b bd01           4487 	.byte	189,1
0000135d 3a             4488 	.byte	58
0000135e 07             4489 	.byte	7
0000135f 00000000*      4490 	.word	.LDW_4f16400
00001363 01             4491 	.byte	1
00001364 01             4492 	.byte	1
                        4493 
                        4494 .LDW_4f17a58:
00001365 05             4495 	.byte	5
00001366 43616e534d5f   4496 	.strz	"CanSM_BusOff_Cntr_au8"
0000136c 4275734f6666 
00001372 5f436e74725f 
00001378 61753800 
0000137c c301           4497 	.byte	195,1
0000137e 1e             4498 	.byte	30
0000137f 07             4499 	.byte	7
00001380 00000000*      4500 	.word	.LDW_4f16268
00001384 01             4501 	.byte	1
00001385 01             4502 	.byte	1
                        4503 
                        4504 .LDW_4f17740:
00001386 05             4505 	.byte	5
00001387 43616e534d5f   4506 	.strz	"CanSM_BORMode_au8"
0000138d 424f524d6f64 
00001393 655f61753800 
00001399 c901           4507 	.byte	201,1
0000139b 1e             4508 	.byte	30

                                                                      Page 95
                                                              C:\Users\nhuliyap\AppData\Local\Temp\gh_000014o1.s
0000139c 07             4509 	.byte	7
0000139d 00000000*      4510 	.word	.LDW_4f16950
000013a1 01             4511 	.byte	1
000013a2 01             4512 	.byte	1
                        4513 
                        4514 .LDW_4f17798:
000013a3 05             4515 	.byte	5
000013a4 43616e534d5f   4516 	.strz	"CanSM_ReqComM_Mode_en"
000013aa 526571436f6d 
000013b0 4d5f4d6f6465 
000013b6 5f656e00 
000013ba db01           4517 	.byte	219,1
000013bc 26             4518 	.byte	38
000013bd 07             4519 	.byte	7
000013be 00000000*      4520 	.word	.LDW_4f16488
000013c2 01             4521 	.byte	1
000013c3 01             4522 	.byte	1
                        4523 
                        4524 .LDW_4f17848:
000013c4 05             4525 	.byte	5
000013c5 43616e534d5f   4526 	.strz	"CanSM_Wuvalidation_Start_ab"
000013cb 577576616c69 
000013d1 646174696f6e 
000013d7 5f5374617274 
000013dd 5f616200 
000013e1 e101           4527 	.byte	225,1
000013e3 20             4528 	.byte	32
000013e4 07             4529 	.byte	7
000013e5 00000000*      4530 	.word	.LDW_4f16598
000013e9 01             4531 	.byte	1
000013ea 01             4532 	.byte	1
                        4533 
                        4534 .LDW_4f178f8:
000013eb 05             4535 	.byte	5
000013ec 43616e534d5f   4536 	.strz	"CanSM_Num_Unsuccessful_ModeReq_au8"
000013f2 4e756d5f556e 
000013f8 737563636573 
000013fe 7366756c5f4d 
00001404 6f6465526571 
0000140a 5f61753800 
0000140f 8102           4537 	.byte	129,2
00001411 1e             4538 	.byte	30
00001412 07             4539 	.byte	7
00001413 00000000*      4540 	.word	.LDW_4f16ae8
00001417 01             4541 	.byte	1
00001418 01             4542 	.byte	1
                        4543 
                        4544 .LDW_4f17480:
00001419 05             4545 	.byte	5
0000141a 43616e534d5f   4546 	.strz	"CanSM_Trcv_ModeInd_ab"
00001420 547263765f4d 
00001426 6f6465496e64 
0000142c 5f616200 
00001430 8702           4547 	.byte	135,2
00001432 20             4548 	.byte	32
00001433 07             4549 	.byte	7
00001434 00000000*      4550 	.word	.LDW_4f16b70
00001438 01             4551 	.byte	1
00001439 01             4552 	.byte	1
                        4553 
                        4554 .LDW_4f171c0:

                                                                      Page 96
                                                              C:\Users\nhuliyap\AppData\Local\Temp\gh_000014o1.s
0000143a 05             4555 	.byte	5
0000143b 43616e534d5f   4556 	.strz	"CanSM_Ctrl_ModeInd_ab"
00001441 4374726c5f4d 
00001447 6f6465496e64 
0000144d 5f616200 
00001451 8d02           4557 	.byte	141,2
00001453 20             4558 	.byte	32
00001454 07             4559 	.byte	7
00001455 00000000*      4560 	.word	.LDW_4f19308
00001459 01             4561 	.byte	1
0000145a 01             4562 	.byte	1
                        4563 
                        4564 .LDW_4f17428:
0000145b 05             4565 	.byte	5
0000145c 43616e534d5f   4566 	.strz	"CanSM_PreNoCom_Substates_en"
00001462 5072654e6f43 
00001468 6f6d5f537562 
0000146e 737461746573 
00001474 5f656e00 
00001478 9302           4567 	.byte	147,2
0000147a 35             4568 	.byte	53
0000147b 07             4569 	.byte	7
0000147c 00000000*      4570 	.word	.LDW_4f19fc8
00001480 01             4571 	.byte	1
00001481 01             4572 	.byte	1
                        4573 
                        4574 .LDW_4f17ab0:
00001482 05             4575 	.byte	5
00001483 43616e534d5f   4576 	.strz	"CanSM_BusSMMode_au8"
00001489 427573534d4d 
0000148f 6f64655f6175 
00001495 3800 
00001497 a202           4577 	.byte	162,2
00001499 26             4578 	.byte	38
0000149a 07             4579 	.byte	7
0000149b 00000000*      4580 	.word	.LDW_4f19968
0000149f 01             4581 	.byte	1
000014a0 01             4582 	.byte	1
                        4583 
                        4584 .LDW_4f17530:
000014a1 05             4585 	.byte	5
000014a2 43616e534d5f   4586 	.strz	"CanSM_PreFullCom_Substates_en"
000014a8 50726546756c 
000014ae 6c436f6d5f53 
000014b4 756273746174 
000014ba 65735f656e00 
000014c0 a802           4587 	.byte	168,2
000014c2 37             4588 	.byte	55
000014c3 07             4589 	.byte	7
000014c4 00000000*      4590 	.word	.LDW_4f199f0
000014c8 01             4591 	.byte	1
000014c9 01             4592 	.byte	1
                        4593 
                        4594 .LDW_4f17950:
000014ca 05             4595 	.byte	5
000014cb 43616e534d5f   4596 	.strz	"CanSM_WakeUpValidation_Substates_en"
000014d1 57616b655570 
000014d7 56616c696461 
000014dd 74696f6e5f53 
000014e3 756273746174 
000014e9 65735f656e00 

                                                                      Page 97
                                                              C:\Users\nhuliyap\AppData\Local\Temp\gh_000014o1.s
000014ef ae02           4597 	.byte	174,2
000014f1 3d             4598 	.byte	61
000014f2 07             4599 	.byte	7
000014f3 00000000*      4600 	.word	.LDW_4f1a050
000014f7 01             4601 	.byte	1
000014f8 01             4602 	.byte	1
                        4603 
                        4604 .LDW_4f17588:
000014f9 05             4605 	.byte	5
000014fa 43616e534d5f   4606 	.strz	"CanSM_TxTimeoutexception_Substates_en"
00001500 547854696d65 
00001506 6f7574657863 
0000150c 657074696f6e 
00001512 5f5375627374 
00001518 617465735f65 
0000151e 6e00 
00001520 b402           4607 	.byte	180,2
00001522 3f             4608 	.byte	63
00001523 07             4609 	.byte	7
00001524 00000000*      4610 	.word	.LDW_4f19d20
00001528 01             4611 	.byte	1
00001529 01             4612 	.byte	1
                        4613 
                        4614 .LDW_4f17b60:
0000152a 05             4615 	.byte	5
0000152b 43616e534d5f   4616 	.strz	"CanSM_ModeRepeatReq_Time_u16"
00001531 4d6f64655265 
00001537 706561745265 
0000153d 715f54696d65 
00001543 5f75313600 
00001548 ba02           4617 	.byte	186,2
0000154a 20             4618 	.byte	32
0000154b 07             4619 	.byte	7
0000154c 00000000*      4620 	.word	.LDW_4cc9070
00001550 01             4621 	.byte	1
00001551 01             4622 	.byte	1
                        4623 
                        4624 .LDW_4f179a8:
00001552 05             4625 	.byte	5
00001553 43616e534d5f   4626 	.strz	"CanSM_ModeRepeatReq_Max_u8"
00001559 4d6f64655265 
0000155f 706561745265 
00001565 715f4d61785f 
0000156b 753800 
0000156e c002           4627 	.byte	192,2
00001570 20             4628 	.byte	32
00001571 07             4629 	.byte	7
00001572 00000000*      4630 	.word	.LDW_4c40190
00001576 01             4631 	.byte	1
00001577 01             4632 	.byte	1
                        4633 
                        4634 .LDW_4f17218:
00001578 05             4635 	.byte	5
00001579 43616e534d5f   4636 	.strz	"CanSM_ControllerState_en"
0000157f 436f6e74726f 
00001585 6c6c65725374 
0000158b 6174655f656e 
00001591 00 
00001592 c602           4637 	.byte	198,2
00001594 38             4638 	.byte	56
00001595 07             4639 	.byte	7

                                                                      Page 98
                                                              C:\Users\nhuliyap\AppData\Local\Temp\gh_000014o1.s
00001596 00000000*      4640 	.word	.LDW_4f196c0
0000159a 01             4641 	.byte	1
0000159b 01             4642 	.byte	1
                        4643 
                        4644 .LDW_4f17638:
0000159c 05             4645 	.byte	5
0000159d 43616e534d5f   4646 	.strz	"CanSM_Network_Init_ab"
000015a3 4e6574776f72 
000015a9 6b5f496e6974 
000015af 5f616200 
000015b3 cc02           4647 	.byte	204,2
000015b5 20             4648 	.byte	32
000015b6 07             4649 	.byte	7
000015b7 00000000*      4650 	.word	.LDW_4f19748
000015bb 01             4651 	.byte	1
000015bc 01             4652 	.byte	1
                        4653 
                        4654 .LDW_4f17c10:
000015bd 05             4655 	.byte	5
000015be 43616e534d5f   4656 	.strz	"CanSM_BOR_SilentCom_ab"
000015c4 424f525f5369 
000015ca 6c656e74436f 
000015d0 6d5f616200 
000015d5 ed02           4657 	.byte	237,2
000015d7 20             4658 	.byte	32
000015d8 07             4659 	.byte	7
000015d9 00000000*      4660 	.word	.LDW_4f195b0
000015dd 01             4661 	.byte	1
000015de 01             4662 	.byte	1
                        4663 
                        4664 .LDW_4d3d180:
000015df 15             4665 	.byte	21
000015e0 5f5f444900     4666 	.strz	"__DI"
000015e5 2e             4667 	.byte	46
000015e6 0d             4668 	.byte	13
000015e7 0a             4669 	.byte	10
000015e8 01             4670 	.byte	1
000015e9 00             4671 	.byte	0
000015ea 01             4672 	.byte	1
000015eb 01             4673 	.byte	1
000015ec 00             4674 	.byte	0
000015ed 01             4675 	.byte	1
                        4676 
                        4677 	.section	.debug_abbrev
000000c5 15             4678 	.byte	21
000000c6 2e             4679 	.byte	46
000000c7 01             4680 	.byte	1
000000c8 0308           4681 	.byte	3,8
000000ca 3b0f           4682 	.byte	59,15
000000cc 390f           4683 	.byte	57,15
000000ce 3a0f           4684 	.byte	58,15
000000d0 3c0c           4685 	.byte	60,12
000000d2 200b           4686 	.byte	32,11
000000d4 3f0c           4687 	.byte	63,12
000000d6 320b           4688 	.byte	50,11
000000d8 4c0b           4689 	.byte	76,11
000000da 270c           4690 	.byte	39,12
000000dc 0000           4691 	.byte	0,0
                        4692 
                        4693 	.section	.debug_info
000015ee 00             4694 	.byte	0

                                                                      Page 99
                                                              C:\Users\nhuliyap\AppData\Local\Temp\gh_000014o1.s
                        4695 
                        4696 .LDW_4d3d218:
000015ef 15             4697 	.byte	21
000015f0 5f5f454900     4698 	.strz	"__EI"
000015f5 2f             4699 	.byte	47
000015f6 0d             4700 	.byte	13
000015f7 0a             4701 	.byte	10
000015f8 01             4702 	.byte	1
000015f9 00             4703 	.byte	0
000015fa 01             4704 	.byte	1
000015fb 01             4705 	.byte	1
000015fc 00             4706 	.byte	0
000015fd 01             4707 	.byte	1
                        4708 
000015fe 00             4709 	.byte	0
                        4710 
                        4711 .LDW_4ccab58:
000015ff 15             4712 	.byte	21
00001600 5363684d5f45   4713 	.strz	"SchM_Enter_CanSM_BOR_Nw_ModesNoNest"
00001606 6e7465725f43 
0000160c 616e534d5f42 
00001612 4f525f4e775f 
00001618 4d6f6465734e 
0000161e 6f4e65737400 
00001624 1a             4714 	.byte	26
00001625 25             4715 	.byte	37
00001626 08             4716 	.byte	8
00001627 00             4717 	.byte	0
00001628 03             4718 	.byte	3
00001629 00             4719 	.byte	0
0000162a 01             4720 	.byte	1
0000162b 00             4721 	.byte	0
0000162c 01             4722 	.byte	1
                        4723 
                        4724 .LDW_4cca480:
0000162d 20             4725 	.byte	32
                        4726 
                        4727 	.section	.debug_abbrev
000000de 20             4728 	.byte	32
000000df 0b             4729 	.byte	11
000000e0 01             4730 	.byte	1
000000e1 0000           4731 	.byte	0,0
                        4732 
                        4733 	.section	.debug_info
0000162e 00             4734 	.byte	0
                        4735 
0000162f 00             4736 	.byte	0
                        4737 
                        4738 .LDW_4ccac88:
00001630 15             4739 	.byte	21
00001631 5363684d5f45   4740 	.strz	"SchM_Exit_CanSM_BOR_Nw_ModesNoNest"
00001637 7869745f4361 
0000163d 6e534d5f424f 
00001643 525f4e775f4d 
00001649 6f6465734e6f 
0000164f 4e65737400 
00001654 1e             4741 	.byte	30
00001655 25             4742 	.byte	37
00001656 08             4743 	.byte	8
00001657 00             4744 	.byte	0
00001658 03             4745 	.byte	3

                                                                      Page 100
                                                              C:\Users\nhuliyap\AppData\Local\Temp\gh_000014o1.s
00001659 00             4746 	.byte	0
0000165a 01             4747 	.byte	1
0000165b 00             4748 	.byte	0
0000165c 01             4749 	.byte	1
                        4750 
                        4751 .LDW_4cca4b0:
0000165d 20             4752 	.byte	32
                        4753 
0000165e 00             4754 	.byte	0
                        4755 
0000165f 00             4756 	.byte	0
                        4757 
                        4758 .LDW_4f2d568:
00001660 15             4759 	.byte	21
00001661 436f6d4d5f42   4760 	.strz	"ComM_BusSM_ModeIndication"
00001667 7573534d5f4d 
0000166d 6f6465496e64 
00001673 69636174696f 
00001679 6e00 
0000167b 0d             4761 	.byte	13
0000167c 1d             4762 	.byte	29
0000167d 37             4763 	.byte	55
0000167e 01             4764 	.byte	1
0000167f 00             4765 	.byte	0
00001680 01             4766 	.byte	1
00001681 01             4767 	.byte	1
00001682 00             4768 	.byte	0
00001683 01             4769 	.byte	1
                        4770 
00001684 00             4771 	.byte	0
                        4772 
                        4773 .LDW_4f2cd18:
00001685 15             4774 	.byte	21
00001686 4273774d5f43   4775 	.strz	"BswM_CanSM_CurrentState"
0000168c 616e534d5f43 
00001692 757272656e74 
00001698 537461746500 
0000169e 09             4776 	.byte	9
0000169f 06             4777 	.byte	6
000016a0 3c             4778 	.byte	60
000016a1 01             4779 	.byte	1
000016a2 00             4780 	.byte	0
000016a3 01             4781 	.byte	1
000016a4 01             4782 	.byte	1
000016a5 00             4783 	.byte	0
000016a6 01             4784 	.byte	1
                        4785 
000016a7 00             4786 	.byte	0
                        4787 
                        4788 .LDW_4f30570:
000016a8 16             4789 	.byte	22
000016a9 43616e49665f   4790 	.strz	"CanIf_SetControllerMode"
000016af 536574436f6e 
000016b5 74726f6c6c65 
000016bb 724d6f646500 
000016c1 14             4791 	.byte	20
000016c2 29             4792 	.byte	41
000016c3 3f             4793 	.byte	63
000016c4 00000000*      4794 	.word	.LDW_4dab680
000016c8 01             4795 	.byte	1
000016c9 00             4796 	.byte	0

                                                                      Page 101
                                                              C:\Users\nhuliyap\AppData\Local\Temp\gh_000014o1.s
000016ca 01             4797 	.byte	1
000016cb 01             4798 	.byte	1
000016cc 00             4799 	.byte	0
000016cd 01             4800 	.byte	1
                        4801 
                        4802 	.section	.debug_abbrev
000000e3 16             4803 	.byte	22
000000e4 2e             4804 	.byte	46
000000e5 01             4805 	.byte	1
000000e6 0308           4806 	.byte	3,8
000000e8 3b0f           4807 	.byte	59,15
000000ea 390f           4808 	.byte	57,15
000000ec 3a0f           4809 	.byte	58,15
000000ee 4910           4810 	.byte	73,16
000000f0 3c0c           4811 	.byte	60,12
000000f2 200b           4812 	.byte	32,11
000000f4 3f0c           4813 	.byte	63,12
000000f6 320b           4814 	.byte	50,11
000000f8 4c0b           4815 	.byte	76,11
000000fa 270c           4816 	.byte	39,12
000000fc 0000           4817 	.byte	0,0
                        4818 
                        4819 	.section	.debug_info
000016ce 00             4820 	.byte	0
                        4821 
                        4822 .LDW_4f30e58:
000016cf 16             4823 	.byte	22
000016d0 43616e49665f   4824 	.strz	"CanIf_SetPduMode"
000016d6 536574506475 
000016dc 4d6f646500 
000016e1 31             4825 	.byte	49
000016e2 29             4826 	.byte	41
000016e3 3f             4827 	.byte	63
000016e4 00000000*      4828 	.word	.LDW_4dab680
000016e8 01             4829 	.byte	1
000016e9 00             4830 	.byte	0
000016ea 01             4831 	.byte	1
000016eb 01             4832 	.byte	1
000016ec 00             4833 	.byte	0
000016ed 01             4834 	.byte	1
                        4835 
000016ee 00             4836 	.byte	0
                        4837 
                        4838 .LDW_4d3c800:
000016ef 14             4839 	.byte	20
000016f0 43616e534d5f   4840 	.strz	"CanSM_GetHandle"
000016f6 47657448616e 
000016fc 646c6500 
00001700 07             4841 	.byte	7
00001701 25             4842 	.byte	37
00001702 01             4843 	.byte	1
00001703 00000000*      4844 	.word	.LDW_4d4b328
00001707 00000000*      4845 	.word	_CanSM_GetHandle
0000170b 00000000*      4846 	.word	___ghs_eofn_CanSM_GetHandle
0000170f 0153           4847 	.byte	1,83
00001711 02             4848 	.byte	2
00001712 00             4849 	.byte	0
00001713 02             4850 	.byte	2
00001714 00             4851 	.byte	0
00001715 00             4852 	.byte	0
00001716 00             4853 	.byte	0

                                                                      Page 102
                                                              C:\Users\nhuliyap\AppData\Local\Temp\gh_000014o1.s
00001717 00             4854 	.byte	0
00001718 01             4855 	.byte	1
00001719 01             4856 	.byte	1
0000171a 00             4857 	.byte	0
0000171b 01             4858 	.byte	1
                        4859 
                        4860 	.section	.debug_abbrev
000000fe 14             4861 	.byte	20
000000ff 2e             4862 	.byte	46
00000100 01             4863 	.byte	1
00000101 0308           4864 	.byte	3,8
00000103 3b0f           4865 	.byte	59,15
00000105 390f           4866 	.byte	57,15
00000107 3a0f           4867 	.byte	58,15
00000109 4910           4868 	.byte	73,16
0000010b 1101           4869 	.byte	17,1
0000010d 1201           4870 	.byte	18,1
0000010f 400a           4871 	.byte	64,10
00000111 8341           4872 	.byte	131,65
00000113 0f             4873 	.byte	15
00000114 8741           4874 	.byte	135,65
00000116 0d             4875 	.byte	13
00000117 8541           4876 	.byte	133,65
00000119 0f             4877 	.byte	15
0000011a 8641           4878 	.byte	134,65
0000011c 0d             4879 	.byte	13
0000011d 9241           4880 	.byte	146,65
0000011f 0f             4881 	.byte	15
00000120 3c0c           4882 	.byte	60,12
00000122 200b           4883 	.byte	32,11
00000124 3f0c           4884 	.byte	63,12
00000126 320b           4885 	.byte	50,11
00000128 4c0b           4886 	.byte	76,11
0000012a 270c           4887 	.byte	39,12
0000012c 0000           4888 	.byte	0,0
                        4889 
                        4890 	.section	.debug_frame
                        4891 .LDW_4f153d8:
00000090 00000000*      4892 	.word	.LDW_unq_4-.LDW_unq_3
                        4893 .LDW_unq_3:
00000094 00000000*      4894 	.word	.LDW_4ea4258
00000098 00000000*      4895 	.word	_CanSM_GetHandle
0000009c 00000000*      4896 	.word	___ghs_eofn_CanSM_GetHandle-_CanSM_GetHandle
000000a0 01             4897 	.byte	1
000000a1 00000000*      4898 	.word	.LDW11
000000a5 00             4899 	.byte	0
000000a6 00             4900 	.byte	0
000000a7 00             4901 	.byte	0
                        4902 .LDW_unq_4:
                        4903 	.section	.debug_line
00001175 000502         4904 	.byte	0,5,2
00001178 00000000*      4905 	.word	_CanSM_GetHandle
0000117c 03             4906 	.byte	3
0000117d 06             4907 	.byte	6
0000117e 02             4908 	.byte	2
0000117f 00             4909 	.byte	0
00001180 01             4910 	.byte	1
00001181 06             4911 	.byte	6
00001182 14             4912 	.byte	20
00001183 13             4913 	.byte	19
00001184 02             4914 	.byte	2

                                                                      Page 103
                                                              C:\Users\nhuliyap\AppData\Local\Temp\gh_000014o1.s
00001185 02             4915 	.byte	2
00001186 000502         4916 	.byte	0,5,2
00001189 00000000*      4917 	.word	.LDWlin1
0000118d 0b             4918 	.byte	11
0000118e 02             4919 	.byte	2
0000118f 08             4920 	.byte	8
00001190 0b             4921 	.byte	11
00001191 33             4922 	.byte	51
00001192 000502         4923 	.byte	0,5,2
00001195 00000000*      4924 	.word	.LDWlin2
00001199 0b             4925 	.byte	11
0000119a 0b             4926 	.byte	11
0000119b 0b             4927 	.byte	11
0000119c 1b             4928 	.byte	27
0000119d 02             4929 	.byte	2
0000119e 00             4930 	.byte	0
0000119f 03             4931 	.byte	3
000011a0 79             4932 	.byte	121
000011a1 02             4933 	.byte	2
000011a2 00             4934 	.byte	0
000011a3 01             4935 	.byte	1
000011a4 000502         4936 	.byte	0,5,2
000011a7 00000000*      4937 	.word	.LDWlin3
000011ab 03             4938 	.byte	3
000011ac 08             4939 	.byte	8
000011ad 02             4940 	.byte	2
000011ae 00             4941 	.byte	0
000011af 01             4942 	.byte	1
000011b0 0b             4943 	.byte	11
000011b1 06             4944 	.byte	6
000011b2 000502         4945 	.byte	0,5,2
000011b5 00000000*      4946 	.word	.LDWlin4
000011b9 02             4947 	.byte	2
000011ba 00             4948 	.byte	0
000011bb 02             4949 	.byte	2
000011bc 02             4950 	.byte	2
000011bd 000101         4951 	.byte	0,1,1
                        4952 	.section	.debug_info
                        4953 .LDW_4d4b4e0:
0000171c 0f             4954 	.byte	15
0000171d 436f6d4d4368   4955 	.strz	"ComMChannelId"
00001723 616e6e656c49 
00001729 6400 
0000172b 07             4956 	.byte	7
0000172c 57             4957 	.byte	87
0000172d 01             4958 	.byte	1
0000172e 00000000*      4959 	.word	.LDW_4d4b328
00001732 00             4960 	.byte	0
00001733 0156           4961 	.byte	1,86
                        4962 
                        4963 	.section	.debug_abbrev
0000012e 0f             4964 	.byte	15
0000012f 05             4965 	.byte	5
00000130 00             4966 	.byte	0
00000131 0308           4967 	.byte	3,8
00000133 3b0f           4968 	.byte	59,15
00000135 390f           4969 	.byte	57,15
00000137 3a0f           4970 	.byte	58,15
00000139 4910           4971 	.byte	73,16
0000013b 4b0c           4972 	.byte	75,12
0000013d 020a           4973 	.byte	2,10

                                                                      Page 104
                                                              C:\Users\nhuliyap\AppData\Local\Temp\gh_000014o1.s
0000013f 0000           4974 	.byte	0,0
                        4975 
                        4976 	.section	.debug_info
                        4977 .LDW_4b86ef8:
00001735 1d             4978 	.byte	29
00001736 00000000*      4979 	.word	.LDW01
0000173a 00000000*      4980 	.word	.LDW11
                        4981 
                        4982 	.section	.debug_abbrev
00000141 1d             4983 	.byte	29
00000142 0b             4984 	.byte	11
00000143 01             4985 	.byte	1
00000144 1101           4986 	.byte	17,1
00000146 1201           4987 	.byte	18,1
00000148 0000           4988 	.byte	0,0
                        4989 
                        4990 	.section	.debug_info
                        4991 .LDW_4d4b380:
0000173e 04             4992 	.byte	4
0000173f 6c6f6f705f75   4993 	.strz	"loop_uo"
00001745 6f00 
00001747 08             4994 	.byte	8
00001748 1a             4995 	.byte	26
00001749 01             4996 	.byte	1
0000174a 00000000*      4997 	.word	.LDW_4c40190
0000174e 00             4998 	.byte	0
0000174f 00             4999 	.byte	0
00001750 0162           5000 	.byte	1,98
                        5001 
                        5002 	.section	.debug_abbrev
0000014a 04             5003 	.byte	4
0000014b 34             5004 	.byte	52
0000014c 00             5005 	.byte	0
0000014d 0308           5006 	.byte	3,8
0000014f 3b0f           5007 	.byte	59,15
00000151 390f           5008 	.byte	57,15
00000153 3a0f           5009 	.byte	58,15
00000155 4910           5010 	.byte	73,16
00000157 3f0c           5011 	.byte	63,12
00000159 3c0c           5012 	.byte	60,12
0000015b 020a           5013 	.byte	2,10
0000015d 0000           5014 	.byte	0,0
                        5015 
                        5016 	.section	.debug_info
                        5017 .LDW_40dd938:
00001752 04             5018 	.byte	4
00001753 43616e534d5f   5019 	.strz	"CanSM_NetworkIdx_u8"
00001759 4e6574776f72 
0000175f 6b4964785f75 
00001765 3800 
00001767 09             5020 	.byte	9
00001768 1a             5021 	.byte	26
00001769 01             5022 	.byte	1
0000176a 00000000*      5023 	.word	.LDW_4c40190
0000176e 00             5024 	.byte	0
0000176f 00             5025 	.byte	0
00001770 015a           5026 	.byte	1,90
                        5027 
00001772 00             5028 	.byte	0
                        5029 
00001773 00             5030 	.byte	0

                                                                      Page 105
                                                              C:\Users\nhuliyap\AppData\Local\Temp\gh_000014o1.s
                        5031 
                        5032 .LDW_4d3cfb8:
00001774 13             5033 	.byte	19
00001775 43616e534d5f   5034 	.strz	"CanSM_StopCtrl"
0000177b 53746f704374 
00001781 726c00 
00001784 16             5035 	.byte	22
00001785 18             5036 	.byte	24
00001786 01             5037 	.byte	1
00001787 00000000*      5038 	.word	_CanSM_StopCtrl
0000178b 00000000*      5039 	.word	___ghs_eofn_CanSM_StopCtrl
0000178f 0153           5040 	.byte	1,83
00001791 828080f80b     5041 	.byte	130,128,128,248,11
00001796 1c             5042 	.byte	28
00001797 03             5043 	.byte	3
00001798 20             5044 	.byte	32
00001799 00             5045 	.byte	0
0000179a 00             5046 	.byte	0
0000179b 00             5047 	.byte	0
0000179c 01             5048 	.byte	1
0000179d 01             5049 	.byte	1
0000179e 00             5050 	.byte	0
0000179f 01             5051 	.byte	1
                        5052 
                        5053 	.section	.debug_abbrev
0000015f 13             5054 	.byte	19
00000160 2e             5055 	.byte	46
00000161 01             5056 	.byte	1
00000162 0308           5057 	.byte	3,8
00000164 3b0f           5058 	.byte	59,15
00000166 390f           5059 	.byte	57,15
00000168 3a0f           5060 	.byte	58,15
0000016a 1101           5061 	.byte	17,1
0000016c 1201           5062 	.byte	18,1
0000016e 400a           5063 	.byte	64,10
00000170 8341           5064 	.byte	131,65
00000172 0f             5065 	.byte	15
00000173 8741           5066 	.byte	135,65
00000175 0d             5067 	.byte	13
00000176 8541           5068 	.byte	133,65
00000178 0f             5069 	.byte	15
00000179 8641           5070 	.byte	134,65
0000017b 0d             5071 	.byte	13
0000017c 9241           5072 	.byte	146,65
0000017e 0f             5073 	.byte	15
0000017f 3c0c           5074 	.byte	60,12
00000181 200b           5075 	.byte	32,11
00000183 3f0c           5076 	.byte	63,12
00000185 320b           5077 	.byte	50,11
00000187 4c0b           5078 	.byte	76,11
00000189 270c           5079 	.byte	39,12
0000018b 0000           5080 	.byte	0,0
                        5081 
                        5082 	.section	.debug_frame
                        5083 .LDW_4f15858:
000000a8 00000000*      5084 	.word	.LDW_unq_6-.LDW_unq_5
                        5085 .LDW_unq_5:
000000ac 00000000*      5086 	.word	.LDW_4ea4258
000000b0 00000000*      5087 	.word	_CanSM_StopCtrl
000000b4 00000000*      5088 	.word	___ghs_eofn_CanSM_StopCtrl-_CanSM_StopCtrl
000000b8 44             5089 	.byte	68

                                                                      Page 106
                                                              C:\Users\nhuliyap\AppData\Local\Temp\gh_000014o1.s
000000b9 9f             5090 	.byte	159
000000ba 03             5091 	.byte	3
000000bb 40             5092 	.byte	64
000000bc 9d             5093 	.byte	157
000000bd 07             5094 	.byte	7
000000be 40             5095 	.byte	64
000000bf 9c             5096 	.byte	156
000000c0 0b             5097 	.byte	11
000000c1 40             5098 	.byte	64
000000c2 9b             5099 	.byte	155
000000c3 0f             5100 	.byte	15
000000c4 40             5101 	.byte	64
000000c5 9a             5102 	.byte	154
000000c6 13             5103 	.byte	19
000000c7 40             5104 	.byte	64
000000c8 99             5105 	.byte	153
000000c9 17             5106 	.byte	23
000000ca 40             5107 	.byte	64
000000cb 98             5108 	.byte	152
000000cc 1b             5109 	.byte	27
000000cd 01             5110 	.byte	1
000000ce 00000000*      5111 	.word	.LDW31
000000d2 00             5112 	.byte	0
000000d3 00             5113 	.byte	0
                        5114 .LDW_unq_6:
                        5115 	.section	.debug_line
000011c0 000502         5116 	.byte	0,5,2
000011c3 00000000*      5117 	.word	_CanSM_StopCtrl
000011c7 03             5118 	.byte	3
000011c8 15             5119 	.byte	21
000011c9 02             5120 	.byte	2
000011ca 00             5121 	.byte	0
000011cb 01             5122 	.byte	1
000011cc 06             5123 	.byte	6
000011cd 03             5124 	.byte	3
000011ce 0c             5125 	.byte	12
000011cf 02             5126 	.byte	2
000011d0 06             5127 	.byte	6
000011d1 01             5128 	.byte	1
000011d2 000502         5129 	.byte	0,5,2
000011d5 00000000*      5130 	.word	.LDWlin5
000011d9 03             5131 	.byte	3
000011da 7f             5132 	.byte	127
000011db 02             5133 	.byte	2
000011dc 00             5134 	.byte	0
000011dd 01             5135 	.byte	1
000011de 14             5136 	.byte	20
000011df 000502         5137 	.byte	0,5,2
000011e2 00000000*      5138 	.word	.LDWlin6
000011e6 0b             5139 	.byte	11
000011e7 02             5140 	.byte	2
000011e8 02             5141 	.byte	2
000011e9 000502         5142 	.byte	0,5,2
000011ec 00000000*      5143 	.word	.LDWlin7
000011f0 0b             5144 	.byte	11
000011f1 1b             5145 	.byte	27
000011f2 000502         5146 	.byte	0,5,2
000011f5 00000000*      5147 	.word	.LDWlin8
000011f9 02             5148 	.byte	2
000011fa 00             5149 	.byte	0
000011fb 0b             5150 	.byte	11

                                                                      Page 107
                                                              C:\Users\nhuliyap\AppData\Local\Temp\gh_000014o1.s
000011fc 000502         5151 	.byte	0,5,2
000011ff 00000000*      5152 	.word	.LDWlin9
00001203 0c             5153 	.byte	12
00001204 03             5154 	.byte	3
00001205 7e             5155 	.byte	126
00001206 02             5156 	.byte	2
00001207 04             5157 	.byte	4
00001208 01             5158 	.byte	1
00001209 0b             5159 	.byte	11
0000120a 2c             5160 	.byte	44
0000120b 06             5161 	.byte	6
0000120c 000502         5162 	.byte	0,5,2
0000120f 00000000*      5163 	.word	.LDWlin10
00001213 0d             5164 	.byte	13
00001214 06             5165 	.byte	6
00001215 0b             5166 	.byte	11
00001216 02             5167 	.byte	2
00001217 00             5168 	.byte	0
00001218 0b             5169 	.byte	11
00001219 0b             5170 	.byte	11
0000121a 0b             5171 	.byte	11
0000121b 13             5172 	.byte	19
0000121c 02             5173 	.byte	2
0000121d 00             5174 	.byte	0
0000121e 03             5175 	.byte	3
0000121f 72             5176 	.byte	114
00001220 02             5177 	.byte	2
00001221 00             5178 	.byte	0
00001222 01             5179 	.byte	1
00001223 000502         5180 	.byte	0,5,2
00001226 00000000*      5181 	.word	.LDWlin11
0000122a 03             5182 	.byte	3
0000122b 0f             5183 	.byte	15
0000122c 02             5184 	.byte	2
0000122d 00             5185 	.byte	0
0000122e 01             5186 	.byte	1
0000122f 0b             5187 	.byte	11
00001230 000502         5188 	.byte	0,5,2
00001233 00000000*      5189 	.word	.LDWlin12
00001237 0b             5190 	.byte	11
00001238 000502         5191 	.byte	0,5,2
0000123b 00000000*      5192 	.word	.LDWlin13
0000123f 02             5193 	.byte	2
00001240 00             5194 	.byte	0
00001241 0b             5195 	.byte	11
00001242 1b             5196 	.byte	27
00001243 02             5197 	.byte	2
00001244 00             5198 	.byte	0
00001245 03             5199 	.byte	3
00001246 7d             5200 	.byte	125
00001247 02             5201 	.byte	2
00001248 00             5202 	.byte	0
00001249 01             5203 	.byte	1
0000124a 000502         5204 	.byte	0,5,2
0000124d 00000000*      5205 	.word	.LDWlin14
00001251 03             5206 	.byte	3
00001252 04             5207 	.byte	4
00001253 02             5208 	.byte	2
00001254 00             5209 	.byte	0
00001255 01             5210 	.byte	1
00001256 0b             5211 	.byte	11

                                                                      Page 108
                                                              C:\Users\nhuliyap\AppData\Local\Temp\gh_000014o1.s
00001257 000502         5212 	.byte	0,5,2
0000125a 00000000*      5213 	.word	.LDWlin15
0000125e 02             5214 	.byte	2
0000125f 00             5215 	.byte	0
00001260 0b             5216 	.byte	11
00001261 000502         5217 	.byte	0,5,2
00001264 00000000*      5218 	.word	.LDWlin16
00001268 02             5219 	.byte	2
00001269 00             5220 	.byte	0
0000126a 0b             5221 	.byte	11
0000126b 13             5222 	.byte	19
0000126c 03             5223 	.byte	3
0000126d 0b             5224 	.byte	11
0000126e 02             5225 	.byte	2
0000126f 04             5226 	.byte	4
00001270 01             5227 	.byte	1
00001271 000502         5228 	.byte	0,5,2
00001274 00000000*      5229 	.word	.LDWlin17
00001278 02             5230 	.byte	2
00001279 00             5231 	.byte	0
0000127a 0b             5232 	.byte	11
0000127b 000502         5233 	.byte	0,5,2
0000127e 00000000*      5234 	.word	.LDWlin18
00001282 0b             5235 	.byte	11
00001283 03             5236 	.byte	3
00001284 1e             5237 	.byte	30
00001285 02             5238 	.byte	2
00001286 00             5239 	.byte	0
00001287 01             5240 	.byte	1
00001288 02             5241 	.byte	2
00001289 00             5242 	.byte	0
0000128a 000502         5243 	.byte	0,5,2
0000128d 00000000*      5244 	.word	.LDWlin19
00001291 02             5245 	.byte	2
00001292 00             5246 	.byte	0
00001293 0b             5247 	.byte	11
00001294 000502         5248 	.byte	0,5,2
00001297 00000000*      5249 	.word	.LDWlin20
0000129b 0b             5250 	.byte	11
0000129c 0b             5251 	.byte	11
0000129d 02             5252 	.byte	2
0000129e 00             5253 	.byte	0
0000129f 000502         5254 	.byte	0,5,2
000012a2 00000000*      5255 	.word	.LDWlin21
000012a6 02             5256 	.byte	2
000012a7 00             5257 	.byte	0
000012a8 0b             5258 	.byte	11
000012a9 000502         5259 	.byte	0,5,2
000012ac 00000000*      5260 	.word	.LDWlin22
000012b0 0b             5261 	.byte	11
000012b1 0b             5262 	.byte	11
000012b2 02             5263 	.byte	2
000012b3 00             5264 	.byte	0
000012b4 000502         5265 	.byte	0,5,2
000012b7 00000000*      5266 	.word	.LDWlin23
000012bb 02             5267 	.byte	2
000012bc 00             5268 	.byte	0
000012bd 0b             5269 	.byte	11
000012be 000502         5270 	.byte	0,5,2
000012c1 00000000*      5271 	.word	.LDWlin24
000012c5 0b             5272 	.byte	11

                                                                      Page 109
                                                              C:\Users\nhuliyap\AppData\Local\Temp\gh_000014o1.s
000012c6 0b             5273 	.byte	11
000012c7 0b             5274 	.byte	11
000012c8 02             5275 	.byte	2
000012c9 00             5276 	.byte	0
000012ca 02             5277 	.byte	2
000012cb 00             5278 	.byte	0
000012cc 02             5279 	.byte	2
000012cd 00             5280 	.byte	0
000012ce 02             5281 	.byte	2
000012cf 00             5282 	.byte	0
000012d0 02             5283 	.byte	2
000012d1 00             5284 	.byte	0
000012d2 02             5285 	.byte	2
000012d3 00             5286 	.byte	0
000012d4 02             5287 	.byte	2
000012d5 00             5288 	.byte	0
000012d6 0b             5289 	.byte	11
000012d7 0b             5290 	.byte	11
000012d8 0b             5291 	.byte	11
000012d9 03             5292 	.byte	3
000012da 0a             5293 	.byte	10
000012db 02             5294 	.byte	2
000012dc 04             5295 	.byte	4
000012dd 01             5296 	.byte	1
000012de 000502         5297 	.byte	0,5,2
000012e1 00000000*      5298 	.word	.LDWlin25
000012e5 02             5299 	.byte	2
000012e6 00             5300 	.byte	0
000012e7 0b             5301 	.byte	11
000012e8 000502         5302 	.byte	0,5,2
000012eb 00000000*      5303 	.word	.LDWlin26
000012ef 0b             5304 	.byte	11
000012f0 03             5305 	.byte	3
000012f1 09             5306 	.byte	9
000012f2 02             5307 	.byte	2
000012f3 00             5308 	.byte	0
000012f4 01             5309 	.byte	1
000012f5 02             5310 	.byte	2
000012f6 00             5311 	.byte	0
000012f7 000502         5312 	.byte	0,5,2
000012fa 00000000*      5313 	.word	.LDWlin27
000012fe 02             5314 	.byte	2
000012ff 00             5315 	.byte	0
00001300 0b             5316 	.byte	11
00001301 000502         5317 	.byte	0,5,2
00001304 00000000*      5318 	.word	.LDWlin28
00001308 0b             5319 	.byte	11
00001309 0b             5320 	.byte	11
0000130a 02             5321 	.byte	2
0000130b 00             5322 	.byte	0
0000130c 000502         5323 	.byte	0,5,2
0000130f 00000000*      5324 	.word	.LDWlin29
00001313 02             5325 	.byte	2
00001314 00             5326 	.byte	0
00001315 0b             5327 	.byte	11
00001316 000502         5328 	.byte	0,5,2
00001319 00000000*      5329 	.word	.LDWlin30
0000131d 0b             5330 	.byte	11
0000131e 0b             5331 	.byte	11
0000131f 02             5332 	.byte	2
00001320 00             5333 	.byte	0

                                                                      Page 110
                                                              C:\Users\nhuliyap\AppData\Local\Temp\gh_000014o1.s
00001321 000502         5334 	.byte	0,5,2
00001324 00000000*      5335 	.word	.LDWlin31
00001328 02             5336 	.byte	2
00001329 00             5337 	.byte	0
0000132a 0b             5338 	.byte	11
0000132b 1b             5339 	.byte	27
0000132c 0b             5340 	.byte	11
0000132d 0b             5341 	.byte	11
0000132e 02             5342 	.byte	2
0000132f 00             5343 	.byte	0
00001330 02             5344 	.byte	2
00001331 00             5345 	.byte	0
00001332 02             5346 	.byte	2
00001333 00             5347 	.byte	0
00001334 02             5348 	.byte	2
00001335 00             5349 	.byte	0
00001336 02             5350 	.byte	2
00001337 00             5351 	.byte	0
00001338 02             5352 	.byte	2
00001339 00             5353 	.byte	0
0000133a 02             5354 	.byte	2
0000133b 00             5355 	.byte	0
0000133c 0b             5356 	.byte	11
0000133d 1b             5357 	.byte	27
0000133e 000502         5358 	.byte	0,5,2
00001341 00000000*      5359 	.word	.LDWlin32
00001345 02             5360 	.byte	2
00001346 00             5361 	.byte	0
00001347 0b             5362 	.byte	11
00001348 02             5363 	.byte	2
00001349 00             5364 	.byte	0
0000134a 0b             5365 	.byte	11
0000134b 0b             5366 	.byte	11
0000134c 0b             5367 	.byte	11
0000134d 000502         5368 	.byte	0,5,2
00001350 00000000*      5369 	.word	.LDWlin33
00001354 02             5370 	.byte	2
00001355 00             5371 	.byte	0
00001356 0b             5372 	.byte	11
00001357 03             5373 	.byte	3
00001358 09             5374 	.byte	9
00001359 02             5375 	.byte	2
0000135a 04             5376 	.byte	4
0000135b 01             5377 	.byte	1
0000135c 000502         5378 	.byte	0,5,2
0000135f 00000000*      5379 	.word	.LDWlin34
00001363 0c             5380 	.byte	12
00001364 03             5381 	.byte	3
00001365 0c             5382 	.byte	12
00001366 02             5383 	.byte	2
00001367 00             5384 	.byte	0
00001368 01             5385 	.byte	1
00001369 02             5386 	.byte	2
0000136a 00             5387 	.byte	0
0000136b 000502         5388 	.byte	0,5,2
0000136e 00000000*      5389 	.word	.LDWlin35
00001372 02             5390 	.byte	2
00001373 00             5391 	.byte	0
00001374 0b             5392 	.byte	11
00001375 000502         5393 	.byte	0,5,2
00001378 00000000*      5394 	.word	.LDWlin36

                                                                      Page 111
                                                              C:\Users\nhuliyap\AppData\Local\Temp\gh_000014o1.s
0000137c 03             5395 	.byte	3
0000137d 13             5396 	.byte	19
0000137e 02             5397 	.byte	2
0000137f 00             5398 	.byte	0
00001380 01             5399 	.byte	1
00001381 02             5400 	.byte	2
00001382 00             5401 	.byte	0
00001383 0b             5402 	.byte	11
00001384 0b             5403 	.byte	11
00001385 02             5404 	.byte	2
00001386 00             5405 	.byte	0
00001387 000502         5406 	.byte	0,5,2
0000138a 00000000*      5407 	.word	.LDWlin37
0000138e 02             5408 	.byte	2
0000138f 00             5409 	.byte	0
00001390 0b             5410 	.byte	11
00001391 06             5411 	.byte	6
00001392 03             5412 	.byte	3
00001393 6c             5413 	.byte	108
00001394 02             5414 	.byte	2
00001395 02             5415 	.byte	2
00001396 01             5416 	.byte	1
00001397 03             5417 	.byte	3
00001398 16             5418 	.byte	22
00001399 02             5419 	.byte	2
0000139a 00             5420 	.byte	0
0000139b 01             5421 	.byte	1
0000139c 03             5422 	.byte	3
0000139d 7e             5423 	.byte	126
0000139e 02             5424 	.byte	2
0000139f 00             5425 	.byte	0
000013a0 01             5426 	.byte	1
000013a1 03             5427 	.byte	3
000013a2 6d             5428 	.byte	109
000013a3 02             5429 	.byte	2
000013a4 02             5430 	.byte	2
000013a5 01             5431 	.byte	1
000013a6 03             5432 	.byte	3
000013a7 16             5433 	.byte	22
000013a8 02             5434 	.byte	2
000013a9 00             5435 	.byte	0
000013aa 01             5436 	.byte	1
000013ab 03             5437 	.byte	3
000013ac 7d             5438 	.byte	125
000013ad 02             5439 	.byte	2
000013ae 00             5440 	.byte	0
000013af 01             5441 	.byte	1
000013b0 000502         5442 	.byte	0,5,2
000013b3 00000000*      5443 	.word	.LDWlin38
000013b7 03             5444 	.byte	3
000013b8 6b             5445 	.byte	107
000013b9 02             5446 	.byte	2
000013ba 00             5447 	.byte	0
000013bb 01             5448 	.byte	1
000013bc 03             5449 	.byte	3
000013bd 16             5450 	.byte	22
000013be 02             5451 	.byte	2
000013bf 00             5452 	.byte	0
000013c0 01             5453 	.byte	1
000013c1 03             5454 	.byte	3
000013c2 7f             5455 	.byte	127

                                                                      Page 112
                                                              C:\Users\nhuliyap\AppData\Local\Temp\gh_000014o1.s
000013c3 02             5456 	.byte	2
000013c4 00             5457 	.byte	0
000013c5 01             5458 	.byte	1
000013c6 03             5459 	.byte	3
000013c7 6e             5460 	.byte	110
000013c8 02             5461 	.byte	2
000013c9 0c             5462 	.byte	12
000013ca 01             5463 	.byte	1
000013cb 03             5464 	.byte	3
000013cc 16             5465 	.byte	22
000013cd 02             5466 	.byte	2
000013ce 00             5467 	.byte	0
000013cf 01             5468 	.byte	1
000013d0 03             5469 	.byte	3
000013d1 58             5470 	.byte	88
000013d2 02             5471 	.byte	2
000013d3 00             5472 	.byte	0
000013d4 01             5473 	.byte	1
000013d5 03             5474 	.byte	3
000013d6 1c             5475 	.byte	28
000013d7 02             5476 	.byte	2
000013d8 00             5477 	.byte	0
000013d9 01             5478 	.byte	1
000013da 03             5479 	.byte	3
000013db 04             5480 	.byte	4
000013dc 02             5481 	.byte	2
000013dd 00             5482 	.byte	0
000013de 01             5483 	.byte	1
000013df 03             5484 	.byte	3
000013e0 12             5485 	.byte	18
000013e1 02             5486 	.byte	2
000013e2 00             5487 	.byte	0
000013e3 01             5488 	.byte	1
000013e4 06             5489 	.byte	6
000013e5 0c             5490 	.byte	12
000013e6 0b             5491 	.byte	11
000013e7 0b             5492 	.byte	11
000013e8 000502         5493 	.byte	0,5,2
000013eb 00000000*      5494 	.word	.LDWlin39
000013ef 0b             5495 	.byte	11
000013f0 02             5496 	.byte	2
000013f1 00             5497 	.byte	0
000013f2 0b             5498 	.byte	11
000013f3 0b             5499 	.byte	11
000013f4 02             5500 	.byte	2
000013f5 00             5501 	.byte	0
000013f6 000502         5502 	.byte	0,5,2
000013f9 00000000*      5503 	.word	.LDWlin40
000013fd 02             5504 	.byte	2
000013fe 00             5505 	.byte	0
000013ff 0c             5506 	.byte	12
00001400 0b             5507 	.byte	11
00001401 0b             5508 	.byte	11
00001402 02             5509 	.byte	2
00001403 00             5510 	.byte	0
00001404 02             5511 	.byte	2
00001405 00             5512 	.byte	0
00001406 02             5513 	.byte	2
00001407 00             5514 	.byte	0
00001408 02             5515 	.byte	2
00001409 00             5516 	.byte	0

                                                                      Page 113
                                                              C:\Users\nhuliyap\AppData\Local\Temp\gh_000014o1.s
0000140a 02             5517 	.byte	2
0000140b 00             5518 	.byte	0
0000140c 02             5519 	.byte	2
0000140d 00             5520 	.byte	0
0000140e 02             5521 	.byte	2
0000140f 00             5522 	.byte	0
00001410 0b             5523 	.byte	11
00001411 0b             5524 	.byte	11
00001412 0b             5525 	.byte	11
00001413 02             5526 	.byte	2
00001414 00             5527 	.byte	0
00001415 0b             5528 	.byte	11
00001416 02             5529 	.byte	2
00001417 00             5530 	.byte	0
00001418 0b             5531 	.byte	11
00001419 02             5532 	.byte	2
0000141a 04             5533 	.byte	4
0000141b 000101         5534 	.byte	0,1,1
                        5535 	.section	.debug_info
                        5536 .LDW_40dda40:
000017a0 0f             5537 	.byte	15
000017a1 6e6574776f72   5538 	.strz	"network"
000017a7 6b00 
000017a9 16             5539 	.byte	22
000017aa 49             5540 	.byte	73
000017ab 01             5541 	.byte	1
000017ac 00000000*      5542 	.word	.LDW_4d4b328
000017b0 00             5543 	.byte	0
000017b1 0156           5544 	.byte	1,86
                        5545 
                        5546 .LDW_4b86f28:
000017b3 1d             5547 	.byte	29
000017b4 00000000*      5548 	.word	.LDW21
000017b8 00000000*      5549 	.word	.LDW31
                        5550 
                        5551 .LDW_40dd990:
000017bc 04             5552 	.byte	4
000017bd 43616e534d5f   5553 	.strz	"CanSM_NetworkConf_ps"
000017c3 4e6574776f72 
000017c9 6b436f6e665f 
000017cf 707300 
000017d2 17             5554 	.byte	23
000017d3 3b             5555 	.byte	59
000017d4 01             5556 	.byte	1
000017d5 00000000*      5557 	.word	.LDW_4e00700
000017d9 00             5558 	.byte	0
000017da 00             5559 	.byte	0
000017db 016b           5560 	.byte	1,107
                        5561 
                        5562 .LDW_40dd3b8:
000017dd 04             5563 	.byte	4
000017de 43616e534d5f   5564 	.strz	"CanSM_ControllerId_u8"
000017e4 436f6e74726f 
000017ea 6c6c65724964 
000017f0 5f753800 
000017f4 18             5565 	.byte	24
000017f5 1a             5566 	.byte	26
000017f6 01             5567 	.byte	1
000017f7 00000000*      5568 	.word	.LDW_4c40190
000017fb 00             5569 	.byte	0
000017fc 00             5570 	.byte	0

                                                                      Page 114
                                                              C:\Users\nhuliyap\AppData\Local\Temp\gh_000014o1.s
000017fd 0156           5571 	.byte	1,86
                        5572 
                        5573 .LDW_40dd830:
000017ff 04             5574 	.byte	4
00001800 43616e534d5f   5575 	.strz	"CanSM_Ctrl_index_u8"
00001806 4374726c5f69 
0000180c 6e6465785f75 
00001812 3800 
00001814 19             5576 	.byte	25
00001815 1a             5577 	.byte	26
00001816 01             5578 	.byte	1
00001817 00000000*      5579 	.word	.LDW_4c40190
0000181b 00             5580 	.byte	0
0000181c 00             5581 	.byte	0
0000181d 016c           5582 	.byte	1,108
                        5583 
                        5584 .LDW_40dd518:
0000181f 04             5585 	.byte	4
00001820 43616e534d5f   5586 	.strz	"CanSM_Ctrl_Status_u8"
00001826 4374726c5f53 
0000182c 74617475735f 
00001832 753800 
00001835 1a             5587 	.byte	26
00001836 1a             5588 	.byte	26
00001837 01             5589 	.byte	1
00001838 00000000*      5590 	.word	.LDW_407fe48
0000183c 00             5591 	.byte	0
0000183d 00             5592 	.byte	0
0000183e 0273           5593 	.byte	2,115
00001840 03             5594 	.byte	3
                        5595 
                        5596 .LDW_40dd8e0:
00001841 04             5597 	.byte	4
00001842 43616e534d5f   5598 	.strz	"CanSM_CurrNwMode_en"
00001848 437572724e77 
0000184e 4d6f64655f65 
00001854 6e00 
00001856 20             5599 	.byte	32
00001857 33             5600 	.byte	51
00001858 01             5601 	.byte	1
00001859 00000000*      5602 	.word	.LDW_40dd7d8
0000185d 00             5603 	.byte	0
0000185e 00             5604 	.byte	0
0000185f 016d           5605 	.byte	1,109
                        5606 
                        5607 .LDW_40dd1a8:
00001861 04             5608 	.byte	4
00001862 43616e534d5f   5609 	.strz	"CanSM_Controller_Counter_u8"
00001868 436f6e74726f 
0000186e 6c6c65725f43 
00001874 6f756e746572 
0000187a 5f753800 
0000187e 21             5610 	.byte	33
0000187f 1a             5611 	.byte	26
00001880 01             5612 	.byte	1
00001881 00000000*      5613 	.word	.LDW_4c40190
00001885 00             5614 	.byte	0
00001886 00             5615 	.byte	0
00001887 016a           5616 	.byte	1,106
                        5617 
00001889 00             5618 	.byte	0

                                                                      Page 115
                                                              C:\Users\nhuliyap\AppData\Local\Temp\gh_000014o1.s
                        5619 
0000188a 00             5620 	.byte	0
                        5621 
                        5622 .LDW_4d3d0e8:
0000188b 13             5623 	.byte	19
0000188c 43616e534d5f   5624 	.strz	"CanSM_StartCtrl"
00001892 537461727443 
00001898 74726c00 
0000189c e801           5625 	.byte	232,1
0000189e 18             5626 	.byte	24
0000189f 01             5627 	.byte	1
000018a0 00000000*      5628 	.word	_CanSM_StartCtrl
000018a4 00000000*      5629 	.word	___ghs_eofn_CanSM_StartCtrl
000018a8 0153           5630 	.byte	1,83
000018aa 828080f80b     5631 	.byte	130,128,128,248,11
000018af 1c             5632 	.byte	28
000018b0 03             5633 	.byte	3
000018b1 20             5634 	.byte	32
000018b2 00             5635 	.byte	0
000018b3 00             5636 	.byte	0
000018b4 00             5637 	.byte	0
000018b5 01             5638 	.byte	1
000018b6 01             5639 	.byte	1
000018b7 00             5640 	.byte	0
000018b8 01             5641 	.byte	1
                        5642 
                        5643 	.section	.debug_frame
                        5644 .LDW_4f15258:
000000d4 00000000*      5645 	.word	.LDW_unq_8-.LDW_unq_7
                        5646 .LDW_unq_7:
000000d8 00000000*      5647 	.word	.LDW_4ea4258
000000dc 00000000*      5648 	.word	_CanSM_StartCtrl
000000e0 00000000*      5649 	.word	___ghs_eofn_CanSM_StartCtrl-_CanSM_StartCtrl
000000e4 44             5650 	.byte	68
000000e5 9f             5651 	.byte	159
000000e6 03             5652 	.byte	3
000000e7 40             5653 	.byte	64
000000e8 9d             5654 	.byte	157
000000e9 07             5655 	.byte	7
000000ea 40             5656 	.byte	64
000000eb 9c             5657 	.byte	156
000000ec 0b             5658 	.byte	11
000000ed 40             5659 	.byte	64
000000ee 9b             5660 	.byte	155
000000ef 0f             5661 	.byte	15
000000f0 40             5662 	.byte	64
000000f1 9a             5663 	.byte	154
000000f2 13             5664 	.byte	19
000000f3 40             5665 	.byte	64
000000f4 99             5666 	.byte	153
000000f5 17             5667 	.byte	23
000000f6 40             5668 	.byte	64
000000f7 98             5669 	.byte	152
000000f8 1b             5670 	.byte	27
000000f9 01             5671 	.byte	1
000000fa 00000000*      5672 	.word	.LDW51
000000fe 00             5673 	.byte	0
000000ff 00             5674 	.byte	0
                        5675 .LDW_unq_8:
                        5676 	.section	.debug_line
0000141e 000502         5677 	.byte	0,5,2

                                                                      Page 116
                                                              C:\Users\nhuliyap\AppData\Local\Temp\gh_000014o1.s
00001421 00000000*      5678 	.word	_CanSM_StartCtrl
00001425 03             5679 	.byte	3
00001426 e701           5680 	.byte	231,1
00001428 02             5681 	.byte	2
00001429 00             5682 	.byte	0
0000142a 01             5683 	.byte	1
0000142b 06             5684 	.byte	6
0000142c 03             5685 	.byte	3
0000142d 07             5686 	.byte	7
0000142e 02             5687 	.byte	2
0000142f 06             5688 	.byte	6
00001430 01             5689 	.byte	1
00001431 000502         5690 	.byte	0,5,2
00001434 00000000*      5691 	.word	.LDWlin41
00001438 03             5692 	.byte	3
00001439 7f             5693 	.byte	127
0000143a 02             5694 	.byte	2
0000143b 00             5695 	.byte	0
0000143c 01             5696 	.byte	1
0000143d 14             5697 	.byte	20
0000143e 000502         5698 	.byte	0,5,2
00001441 00000000*      5699 	.word	.LDWlin42
00001445 0b             5700 	.byte	11
00001446 02             5701 	.byte	2
00001447 02             5702 	.byte	2
00001448 000502         5703 	.byte	0,5,2
0000144b 00000000*      5704 	.word	.LDWlin43
0000144f 0b             5705 	.byte	11
00001450 1b             5706 	.byte	27
00001451 000502         5707 	.byte	0,5,2
00001454 00000000*      5708 	.word	.LDWlin44
00001458 02             5709 	.byte	2
00001459 00             5710 	.byte	0
0000145a 0b             5711 	.byte	11
0000145b 000502         5712 	.byte	0,5,2
0000145e 00000000*      5713 	.word	.LDWlin45
00001462 0c             5714 	.byte	12
00001463 03             5715 	.byte	3
00001464 7e             5716 	.byte	126
00001465 02             5717 	.byte	2
00001466 04             5718 	.byte	4
00001467 01             5719 	.byte	1
00001468 0b             5720 	.byte	11
00001469 2c             5721 	.byte	44
0000146a 06             5722 	.byte	6
0000146b 000502         5723 	.byte	0,5,2
0000146e 00000000*      5724 	.word	.LDWlin46
00001472 0d             5725 	.byte	13
00001473 06             5726 	.byte	6
00001474 0b             5727 	.byte	11
00001475 02             5728 	.byte	2
00001476 00             5729 	.byte	0
00001477 0b             5730 	.byte	11
00001478 0b             5731 	.byte	11
00001479 0b             5732 	.byte	11
0000147a 13             5733 	.byte	19
0000147b 02             5734 	.byte	2
0000147c 00             5735 	.byte	0
0000147d 03             5736 	.byte	3
0000147e 72             5737 	.byte	114
0000147f 02             5738 	.byte	2

                                                                      Page 117
                                                              C:\Users\nhuliyap\AppData\Local\Temp\gh_000014o1.s
00001480 00             5739 	.byte	0
00001481 01             5740 	.byte	1
00001482 000502         5741 	.byte	0,5,2
00001485 00000000*      5742 	.word	.LDWlin47
00001489 03             5743 	.byte	3
0000148a 0f             5744 	.byte	15
0000148b 02             5745 	.byte	2
0000148c 00             5746 	.byte	0
0000148d 01             5747 	.byte	1
0000148e 0b             5748 	.byte	11
0000148f 000502         5749 	.byte	0,5,2
00001492 00000000*      5750 	.word	.LDWlin48
00001496 0b             5751 	.byte	11
00001497 000502         5752 	.byte	0,5,2
0000149a 00000000*      5753 	.word	.LDWlin49
0000149e 02             5754 	.byte	2
0000149f 00             5755 	.byte	0
000014a0 0b             5756 	.byte	11
000014a1 1b             5757 	.byte	27
000014a2 02             5758 	.byte	2
000014a3 00             5759 	.byte	0
000014a4 03             5760 	.byte	3
000014a5 7d             5761 	.byte	125
000014a6 02             5762 	.byte	2
000014a7 00             5763 	.byte	0
000014a8 01             5764 	.byte	1
000014a9 000502         5765 	.byte	0,5,2
000014ac 00000000*      5766 	.word	.LDWlin50
000014b0 03             5767 	.byte	3
000014b1 04             5768 	.byte	4
000014b2 02             5769 	.byte	2
000014b3 00             5770 	.byte	0
000014b4 01             5771 	.byte	1
000014b5 0b             5772 	.byte	11
000014b6 000502         5773 	.byte	0,5,2
000014b9 00000000*      5774 	.word	.LDWlin51
000014bd 02             5775 	.byte	2
000014be 00             5776 	.byte	0
000014bf 0b             5777 	.byte	11
000014c0 000502         5778 	.byte	0,5,2
000014c3 00000000*      5779 	.word	.LDWlin52
000014c7 0b             5780 	.byte	11
000014c8 0b             5781 	.byte	11
000014c9 13             5782 	.byte	19
000014ca 1b             5783 	.byte	27
000014cb 000502         5784 	.byte	0,5,2
000014ce 00000000*      5785 	.word	.LDWlin53
000014d2 02             5786 	.byte	2
000014d3 00             5787 	.byte	0
000014d4 0b             5788 	.byte	11
000014d5 000502         5789 	.byte	0,5,2
000014d8 00000000*      5790 	.word	.LDWlin54
000014dc 0b             5791 	.byte	11
000014dd 03             5792 	.byte	3
000014de 09             5793 	.byte	9
000014df 02             5794 	.byte	2
000014e0 00             5795 	.byte	0
000014e1 01             5796 	.byte	1
000014e2 02             5797 	.byte	2
000014e3 00             5798 	.byte	0
000014e4 000502         5799 	.byte	0,5,2

                                                                      Page 118
                                                              C:\Users\nhuliyap\AppData\Local\Temp\gh_000014o1.s
000014e7 00000000*      5800 	.word	.LDWlin55
000014eb 02             5801 	.byte	2
000014ec 00             5802 	.byte	0
000014ed 0b             5803 	.byte	11
000014ee 000502         5804 	.byte	0,5,2
000014f1 00000000*      5805 	.word	.LDWlin56
000014f5 0b             5806 	.byte	11
000014f6 0b             5807 	.byte	11
000014f7 02             5808 	.byte	2
000014f8 00             5809 	.byte	0
000014f9 000502         5810 	.byte	0,5,2
000014fc 00000000*      5811 	.word	.LDWlin57
00001500 02             5812 	.byte	2
00001501 00             5813 	.byte	0
00001502 0b             5814 	.byte	11
00001503 000502         5815 	.byte	0,5,2
00001506 00000000*      5816 	.word	.LDWlin58
0000150a 0b             5817 	.byte	11
0000150b 0b             5818 	.byte	11
0000150c 0b             5819 	.byte	11
0000150d 02             5820 	.byte	2
0000150e 00             5821 	.byte	0
0000150f 02             5822 	.byte	2
00001510 00             5823 	.byte	0
00001511 02             5824 	.byte	2
00001512 00             5825 	.byte	0
00001513 02             5826 	.byte	2
00001514 00             5827 	.byte	0
00001515 02             5828 	.byte	2
00001516 00             5829 	.byte	0
00001517 0b             5830 	.byte	11
00001518 0b             5831 	.byte	11
00001519 0b             5832 	.byte	11
0000151a 1b             5833 	.byte	27
0000151b 000502         5834 	.byte	0,5,2
0000151e 00000000*      5835 	.word	.LDWlin59
00001522 02             5836 	.byte	2
00001523 00             5837 	.byte	0
00001524 0b             5838 	.byte	11
00001525 000502         5839 	.byte	0,5,2
00001528 00000000*      5840 	.word	.LDWlin60
0000152c 0b             5841 	.byte	11
0000152d 03             5842 	.byte	3
0000152e 08             5843 	.byte	8
0000152f 02             5844 	.byte	2
00001530 00             5845 	.byte	0
00001531 01             5846 	.byte	1
00001532 02             5847 	.byte	2
00001533 00             5848 	.byte	0
00001534 000502         5849 	.byte	0,5,2
00001537 00000000*      5850 	.word	.LDWlin61
0000153b 02             5851 	.byte	2
0000153c 00             5852 	.byte	0
0000153d 0b             5853 	.byte	11
0000153e 000502         5854 	.byte	0,5,2
00001541 00000000*      5855 	.word	.LDWlin62
00001545 0b             5856 	.byte	11
00001546 0b             5857 	.byte	11
00001547 02             5858 	.byte	2
00001548 00             5859 	.byte	0
00001549 000502         5860 	.byte	0,5,2

                                                                      Page 119
                                                              C:\Users\nhuliyap\AppData\Local\Temp\gh_000014o1.s
0000154c 00000000*      5861 	.word	.LDWlin63
00001550 02             5862 	.byte	2
00001551 00             5863 	.byte	0
00001552 0b             5864 	.byte	11
00001553 1b             5865 	.byte	27
00001554 0b             5866 	.byte	11
00001555 0b             5867 	.byte	11
00001556 02             5868 	.byte	2
00001557 00             5869 	.byte	0
00001558 02             5870 	.byte	2
00001559 00             5871 	.byte	0
0000155a 02             5872 	.byte	2
0000155b 00             5873 	.byte	0
0000155c 02             5874 	.byte	2
0000155d 00             5875 	.byte	0
0000155e 02             5876 	.byte	2
0000155f 00             5877 	.byte	0
00001560 0b             5878 	.byte	11
00001561 1b             5879 	.byte	27
00001562 000502         5880 	.byte	0,5,2
00001565 00000000*      5881 	.word	.LDWlin64
00001569 02             5882 	.byte	2
0000156a 00             5883 	.byte	0
0000156b 0b             5884 	.byte	11
0000156c 02             5885 	.byte	2
0000156d 00             5886 	.byte	0
0000156e 0b             5887 	.byte	11
0000156f 0b             5888 	.byte	11
00001570 0b             5889 	.byte	11
00001571 000502         5890 	.byte	0,5,2
00001574 00000000*      5891 	.word	.LDWlin65
00001578 0c             5892 	.byte	12
00001579 03             5893 	.byte	3
0000157a 7e             5894 	.byte	126
0000157b 02             5895 	.byte	2
0000157c 04             5896 	.byte	4
0000157d 01             5897 	.byte	1
0000157e 0b             5898 	.byte	11
0000157f 000502         5899 	.byte	0,5,2
00001582 00000000*      5900 	.word	.LDWlin66
00001586 0b             5901 	.byte	11
00001587 0b             5902 	.byte	11
00001588 000502         5903 	.byte	0,5,2
0000158b 00000000*      5904 	.word	.LDWlin67
0000158f 03             5905 	.byte	3
00001590 13             5906 	.byte	19
00001591 02             5907 	.byte	2
00001592 00             5908 	.byte	0
00001593 01             5909 	.byte	1
00001594 02             5910 	.byte	2
00001595 00             5911 	.byte	0
00001596 0b             5912 	.byte	11
00001597 03             5913 	.byte	3
00001598 0b             5914 	.byte	11
00001599 02             5915 	.byte	2
0000159a 00             5916 	.byte	0
0000159b 01             5917 	.byte	1
0000159c 02             5918 	.byte	2
0000159d 00             5919 	.byte	0
0000159e 000502         5920 	.byte	0,5,2
000015a1 00000000*      5921 	.word	.LDWlin68

                                                                      Page 120
                                                              C:\Users\nhuliyap\AppData\Local\Temp\gh_000014o1.s
000015a5 02             5922 	.byte	2
000015a6 00             5923 	.byte	0
000015a7 0b             5924 	.byte	11
000015a8 06             5925 	.byte	6
000015a9 14             5926 	.byte	20
000015aa 03             5927 	.byte	3
000015ab 60             5928 	.byte	96
000015ac 02             5929 	.byte	2
000015ad 00             5930 	.byte	0
000015ae 01             5931 	.byte	1
000015af 03             5932 	.byte	3
000015b0 1e             5933 	.byte	30
000015b1 02             5934 	.byte	2
000015b2 00             5935 	.byte	0
000015b3 01             5936 	.byte	1
000015b4 15             5937 	.byte	21
000015b5 03             5938 	.byte	3
000015b6 60             5939 	.byte	96
000015b7 02             5940 	.byte	2
000015b8 00             5941 	.byte	0
000015b9 01             5942 	.byte	1
000015ba 03             5943 	.byte	3
000015bb 1d             5944 	.byte	29
000015bc 02             5945 	.byte	2
000015bd 00             5946 	.byte	0
000015be 01             5947 	.byte	1
000015bf 000502         5948 	.byte	0,5,2
000015c2 00000000*      5949 	.word	.LDWlin69
000015c6 03             5950 	.byte	3
000015c7 04             5951 	.byte	4
000015c8 02             5952 	.byte	2
000015c9 00             5953 	.byte	0
000015ca 01             5954 	.byte	1
000015cb 03             5955 	.byte	3
000015cc 60             5956 	.byte	96
000015cd 02             5957 	.byte	2
000015ce 00             5958 	.byte	0
000015cf 01             5959 	.byte	1
000015d0 03             5960 	.byte	3
000015d1 1c             5961 	.byte	28
000015d2 02             5962 	.byte	2
000015d3 00             5963 	.byte	0
000015d4 01             5964 	.byte	1
000015d5 000502         5965 	.byte	0,5,2
000015d8 00000000*      5966 	.word	.LDWlin70
000015dc 03             5967 	.byte	3
000015dd 6e             5968 	.byte	110
000015de 02             5969 	.byte	2
000015df 00             5970 	.byte	0
000015e0 01             5971 	.byte	1
000015e1 03             5972 	.byte	3
000015e2 04             5973 	.byte	4
000015e3 02             5974 	.byte	2
000015e4 00             5975 	.byte	0
000015e5 01             5976 	.byte	1
000015e6 03             5977 	.byte	3
000015e7 1c             5978 	.byte	28
000015e8 02             5979 	.byte	2
000015e9 00             5980 	.byte	0
000015ea 01             5981 	.byte	1
000015eb 06             5982 	.byte	6

                                                                      Page 121
                                                              C:\Users\nhuliyap\AppData\Local\Temp\gh_000014o1.s
000015ec 0c             5983 	.byte	12
000015ed 0b             5984 	.byte	11
000015ee 03             5985 	.byte	3
000015ef 70             5986 	.byte	112
000015f0 02             5987 	.byte	2
000015f1 00             5988 	.byte	0
000015f2 01             5989 	.byte	1
000015f3 06             5990 	.byte	6
000015f4 03             5991 	.byte	3
000015f5 60             5992 	.byte	96
000015f6 02             5993 	.byte	2
000015f7 00             5994 	.byte	0
000015f8 01             5995 	.byte	1
000015f9 03             5996 	.byte	3
000015fa 31             5997 	.byte	49
000015fb 02             5998 	.byte	2
000015fc 00             5999 	.byte	0
000015fd 01             6000 	.byte	1
000015fe 06             6001 	.byte	6
000015ff 000502         6002 	.byte	0,5,2
00001602 00000000*      6003 	.word	.LDWlin71
00001606 0b             6004 	.byte	11
00001607 02             6005 	.byte	2
00001608 00             6006 	.byte	0
00001609 0b             6007 	.byte	11
0000160a 0b             6008 	.byte	11
0000160b 02             6009 	.byte	2
0000160c 00             6010 	.byte	0
0000160d 000502         6011 	.byte	0,5,2
00001610 00000000*      6012 	.word	.LDWlin72
00001614 02             6013 	.byte	2
00001615 00             6014 	.byte	0
00001616 0b             6015 	.byte	11
00001617 1b             6016 	.byte	27
00001618 0b             6017 	.byte	11
00001619 0b             6018 	.byte	11
0000161a 02             6019 	.byte	2
0000161b 00             6020 	.byte	0
0000161c 02             6021 	.byte	2
0000161d 00             6022 	.byte	0
0000161e 02             6023 	.byte	2
0000161f 00             6024 	.byte	0
00001620 02             6025 	.byte	2
00001621 00             6026 	.byte	0
00001622 02             6027 	.byte	2
00001623 00             6028 	.byte	0
00001624 0b             6029 	.byte	11
00001625 0b             6030 	.byte	11
00001626 0b             6031 	.byte	11
00001627 02             6032 	.byte	2
00001628 00             6033 	.byte	0
00001629 0b             6034 	.byte	11
0000162a 02             6035 	.byte	2
0000162b 00             6036 	.byte	0
0000162c 0b             6037 	.byte	11
0000162d 02             6038 	.byte	2
0000162e 04             6039 	.byte	4
0000162f 000101         6040 	.byte	0,1,1
                        6041 	.section	.debug_info
                        6042 .LDW_40dd360:
000018b9 0f             6043 	.byte	15

                                                                      Page 122
                                                              C:\Users\nhuliyap\AppData\Local\Temp\gh_000014o1.s
000018ba 6e6574776f72   6044 	.strz	"network"
000018c0 6b00 
000018c2 e801           6045 	.byte	232,1
000018c4 4a             6046 	.byte	74
000018c5 01             6047 	.byte	1
000018c6 00000000*      6048 	.word	.LDW_4d4b328
000018ca 00             6049 	.byte	0
000018cb 0156           6050 	.byte	1,86
                        6051 
                        6052 .LDW_4b86f88:
000018cd 1d             6053 	.byte	29
000018ce 00000000*      6054 	.word	.LDW41
000018d2 00000000*      6055 	.word	.LDW51
                        6056 
                        6057 .LDW_40dd780:
000018d6 04             6058 	.byte	4
000018d7 43616e534d5f   6059 	.strz	"CanSM_NetworkConf_ps"
000018dd 4e6574776f72 
000018e3 6b436f6e665f 
000018e9 707300 
000018ec e901           6060 	.byte	233,1
000018ee 3b             6061 	.byte	59
000018ef 01             6062 	.byte	1
000018f0 00000000*      6063 	.word	.LDW_4e00700
000018f4 00             6064 	.byte	0
000018f5 00             6065 	.byte	0
000018f6 016b           6066 	.byte	1,107
                        6067 
                        6068 .LDW_40dd5c8:
000018f8 04             6069 	.byte	4
000018f9 43616e534d5f   6070 	.strz	"CanSM_ControllerId_u8"
000018ff 436f6e74726f 
00001905 6c6c65724964 
0000190b 5f753800 
0000190f ea01           6071 	.byte	234,1
00001911 1a             6072 	.byte	26
00001912 01             6073 	.byte	1
00001913 00000000*      6074 	.word	.LDW_4c40190
00001917 00             6075 	.byte	0
00001918 00             6076 	.byte	0
00001919 0156           6077 	.byte	1,86
                        6078 
                        6079 .LDW_40dd620:
0000191b 04             6080 	.byte	4
0000191c 43616e534d5f   6081 	.strz	"CanSM_Ctrl_index_u8"
00001922 4374726c5f69 
00001928 6e6465785f75 
0000192e 3800 
00001930 eb01           6082 	.byte	235,1
00001932 1a             6083 	.byte	26
00001933 01             6084 	.byte	1
00001934 00000000*      6085 	.word	.LDW_4c40190
00001938 00             6086 	.byte	0
00001939 00             6087 	.byte	0
0000193a 016d           6088 	.byte	1,109
                        6089 
                        6090 .LDW_40dd468:
0000193c 04             6091 	.byte	4
0000193d 43616e534d5f   6092 	.strz	"CanSM_Ctrl_Status_u8"
00001943 4374726c5f53 
00001949 74617475735f 

                                                                      Page 123
                                                              C:\Users\nhuliyap\AppData\Local\Temp\gh_000014o1.s
0000194f 753800 
00001952 ec01           6093 	.byte	236,1
00001954 1a             6094 	.byte	26
00001955 01             6095 	.byte	1
00001956 00000000*      6096 	.word	.LDW_407ff20
0000195a 00             6097 	.byte	0
0000195b 00             6098 	.byte	0
0000195c 0273           6099 	.byte	2,115
0000195e 03             6100 	.byte	3
                        6101 
                        6102 .LDW_40dd048:
0000195f 04             6103 	.byte	4
00001960 43616e534d5f   6104 	.strz	"CanSM_CurrNwMode_en"
00001966 437572724e77 
0000196c 4d6f64655f65 
00001972 6e00 
00001974 ed01           6105 	.byte	237,1
00001976 33             6106 	.byte	51
00001977 01             6107 	.byte	1
00001978 00000000*      6108 	.word	.LDW_40dd7d8
0000197c 00             6109 	.byte	0
0000197d 00             6110 	.byte	0
0000197e 016c           6111 	.byte	1,108
                        6112 
                        6113 .LDW_40dd9e8:
00001980 04             6114 	.byte	4
00001981 43616e534d5f   6115 	.strz	"CanSM_Controller_Counter_u8"
00001987 436f6e74726f 
0000198d 6c6c65725f43 
00001993 6f756e746572 
00001999 5f753800 
0000199d ee01           6116 	.byte	238,1
0000199f 1a             6117 	.byte	26
000019a0 01             6118 	.byte	1
000019a1 00000000*      6119 	.word	.LDW_4c40190
000019a5 00             6120 	.byte	0
000019a6 00             6121 	.byte	0
000019a7 016a           6122 	.byte	1,106
                        6123 
000019a9 00             6124 	.byte	0
                        6125 
000019aa 00             6126 	.byte	0
                        6127 
                        6128 .LDW_4d3c470:
000019ab 13             6129 	.byte	19
000019ac 43616e534d5f   6130 	.strz	"CanSM_SleepCtrl"
000019b2 536c65657043 
000019b8 74726c00 
000019bc fb02           6131 	.byte	251,2
000019be 18             6132 	.byte	24
000019bf 01             6133 	.byte	1
000019c0 00000000*      6134 	.word	_CanSM_SleepCtrl
000019c4 00000000*      6135 	.word	___ghs_eofn_CanSM_SleepCtrl
000019c8 0153           6136 	.byte	1,83
000019ca 828080e00b     6137 	.byte	130,128,128,224,11
000019cf 14             6138 	.byte	20
000019d0 03             6139 	.byte	3
000019d1 18             6140 	.byte	24
000019d2 00             6141 	.byte	0
000019d3 00             6142 	.byte	0
000019d4 00             6143 	.byte	0

                                                                      Page 124
                                                              C:\Users\nhuliyap\AppData\Local\Temp\gh_000014o1.s
000019d5 01             6144 	.byte	1
000019d6 01             6145 	.byte	1
000019d7 00             6146 	.byte	0
000019d8 01             6147 	.byte	1
                        6148 
                        6149 	.section	.debug_frame
                        6150 .LDW_4f15458:
00000100 00000000*      6151 	.word	.LDW_unq_a-.LDW_unq_9
                        6152 .LDW_unq_9:
00000104 00000000*      6153 	.word	.LDW_4ea4258
00000108 00000000*      6154 	.word	_CanSM_SleepCtrl
0000010c 00000000*      6155 	.word	___ghs_eofn_CanSM_SleepCtrl-_CanSM_SleepCtrl
00000110 44             6156 	.byte	68
00000111 9f             6157 	.byte	159
00000112 03             6158 	.byte	3
00000113 40             6159 	.byte	64
00000114 9d             6160 	.byte	157
00000115 07             6161 	.byte	7
00000116 40             6162 	.byte	64
00000117 9c             6163 	.byte	156
00000118 0b             6164 	.byte	11
00000119 40             6165 	.byte	64
0000011a 9b             6166 	.byte	155
0000011b 0f             6167 	.byte	15
0000011c 40             6168 	.byte	64
0000011d 9a             6169 	.byte	154
0000011e 13             6170 	.byte	19
0000011f 01             6171 	.byte	1
00000120 00000000*      6172 	.word	.LDW71
                        6173 .LDW_unq_a:
                        6174 	.section	.debug_line
00001632 000502         6175 	.byte	0,5,2
00001635 00000000*      6176 	.word	_CanSM_SleepCtrl
00001639 03             6177 	.byte	3
0000163a fa02           6178 	.byte	250,2
0000163c 02             6179 	.byte	2
0000163d 00             6180 	.byte	0
0000163e 01             6181 	.byte	1
0000163f 06             6182 	.byte	6
00001640 03             6183 	.byte	3
00001641 06             6184 	.byte	6
00001642 02             6185 	.byte	2
00001643 06             6186 	.byte	6
00001644 01             6187 	.byte	1
00001645 000502         6188 	.byte	0,5,2
00001648 00000000*      6189 	.word	.LDWlin73
0000164c 03             6190 	.byte	3
0000164d 7f             6191 	.byte	127
0000164e 02             6192 	.byte	2
0000164f 00             6193 	.byte	0
00001650 01             6194 	.byte	1
00001651 14             6195 	.byte	20
00001652 02             6196 	.byte	2
00001653 02             6197 	.byte	2
00001654 000502         6198 	.byte	0,5,2
00001657 00000000*      6199 	.word	.LDWlin74
0000165b 0b             6200 	.byte	11
0000165c 1b             6201 	.byte	27
0000165d 000502         6202 	.byte	0,5,2
00001660 00000000*      6203 	.word	.LDWlin75
00001664 02             6204 	.byte	2

                                                                      Page 125
                                                              C:\Users\nhuliyap\AppData\Local\Temp\gh_000014o1.s
00001665 00             6205 	.byte	0
00001666 0b             6206 	.byte	11
00001667 000502         6207 	.byte	0,5,2
0000166a 00000000*      6208 	.word	.LDWlin76
0000166e 0c             6209 	.byte	12
0000166f 03             6210 	.byte	3
00001670 7e             6211 	.byte	126
00001671 02             6212 	.byte	2
00001672 04             6213 	.byte	4
00001673 01             6214 	.byte	1
00001674 0b             6215 	.byte	11
00001675 2c             6216 	.byte	44
00001676 06             6217 	.byte	6
00001677 000502         6218 	.byte	0,5,2
0000167a 00000000*      6219 	.word	.LDWlin77
0000167e 0d             6220 	.byte	13
0000167f 06             6221 	.byte	6
00001680 0b             6222 	.byte	11
00001681 02             6223 	.byte	2
00001682 00             6224 	.byte	0
00001683 0b             6225 	.byte	11
00001684 0b             6226 	.byte	11
00001685 0b             6227 	.byte	11
00001686 13             6228 	.byte	19
00001687 02             6229 	.byte	2
00001688 00             6230 	.byte	0
00001689 03             6231 	.byte	3
0000168a 72             6232 	.byte	114
0000168b 02             6233 	.byte	2
0000168c 00             6234 	.byte	0
0000168d 01             6235 	.byte	1
0000168e 000502         6236 	.byte	0,5,2
00001691 00000000*      6237 	.word	.LDWlin78
00001695 03             6238 	.byte	3
00001696 0f             6239 	.byte	15
00001697 02             6240 	.byte	2
00001698 00             6241 	.byte	0
00001699 01             6242 	.byte	1
0000169a 0b             6243 	.byte	11
0000169b 000502         6244 	.byte	0,5,2
0000169e 00000000*      6245 	.word	.LDWlin79
000016a2 0b             6246 	.byte	11
000016a3 000502         6247 	.byte	0,5,2
000016a6 00000000*      6248 	.word	.LDWlin80
000016aa 02             6249 	.byte	2
000016ab 00             6250 	.byte	0
000016ac 0b             6251 	.byte	11
000016ad 1b             6252 	.byte	27
000016ae 02             6253 	.byte	2
000016af 00             6254 	.byte	0
000016b0 03             6255 	.byte	3
000016b1 7d             6256 	.byte	125
000016b2 02             6257 	.byte	2
000016b3 00             6258 	.byte	0
000016b4 01             6259 	.byte	1
000016b5 000502         6260 	.byte	0,5,2
000016b8 00000000*      6261 	.word	.LDWlin81
000016bc 03             6262 	.byte	3
000016bd 04             6263 	.byte	4
000016be 02             6264 	.byte	2
000016bf 00             6265 	.byte	0

                                                                      Page 126
                                                              C:\Users\nhuliyap\AppData\Local\Temp\gh_000014o1.s
000016c0 01             6266 	.byte	1
000016c1 0b             6267 	.byte	11
000016c2 000502         6268 	.byte	0,5,2
000016c5 00000000*      6269 	.word	.LDWlin82
000016c9 02             6270 	.byte	2
000016ca 00             6271 	.byte	0
000016cb 0b             6272 	.byte	11
000016cc 000502         6273 	.byte	0,5,2
000016cf 00000000*      6274 	.word	.LDWlin83
000016d3 03             6275 	.byte	3
000016d4 0c             6276 	.byte	12
000016d5 02             6277 	.byte	2
000016d6 00             6278 	.byte	0
000016d7 01             6279 	.byte	1
000016d8 03             6280 	.byte	3
000016d9 74             6281 	.byte	116
000016da 02             6282 	.byte	2
000016db 02             6283 	.byte	2
000016dc 01             6284 	.byte	1
000016dd 0b             6285 	.byte	11
000016de 03             6286 	.byte	3
000016df 0d             6287 	.byte	13
000016e0 02             6288 	.byte	2
000016e1 06             6289 	.byte	6
000016e2 01             6290 	.byte	1
000016e3 000502         6291 	.byte	0,5,2
000016e6 00000000*      6292 	.word	.LDWlin84
000016ea 0b             6293 	.byte	11
000016eb 0b             6294 	.byte	11
000016ec 03             6295 	.byte	3
000016ed 0b             6296 	.byte	11
000016ee 02             6297 	.byte	2
000016ef 00             6298 	.byte	0
000016f0 01             6299 	.byte	1
000016f1 14             6300 	.byte	20
000016f2 000502         6301 	.byte	0,5,2
000016f5 00000000*      6302 	.word	.LDWlin85
000016f9 02             6303 	.byte	2
000016fa 00             6304 	.byte	0
000016fb 0b             6305 	.byte	11
000016fc 02             6306 	.byte	2
000016fd 00             6307 	.byte	0
000016fe 0b             6308 	.byte	11
000016ff 0b             6309 	.byte	11
00001700 0b             6310 	.byte	11
00001701 000502         6311 	.byte	0,5,2
00001704 00000000*      6312 	.word	.LDWlin86
00001708 03             6313 	.byte	3
00001709 0d             6314 	.byte	13
0000170a 02             6315 	.byte	2
0000170b 00             6316 	.byte	0
0000170c 01             6317 	.byte	1
0000170d 03             6318 	.byte	3
0000170e 73             6319 	.byte	115
0000170f 02             6320 	.byte	2
00001710 02             6321 	.byte	2
00001711 01             6322 	.byte	1
00001712 0b             6323 	.byte	11
00001713 03             6324 	.byte	3
00001714 0e             6325 	.byte	14
00001715 02             6326 	.byte	2

                                                                      Page 127
                                                              C:\Users\nhuliyap\AppData\Local\Temp\gh_000014o1.s
00001716 06             6327 	.byte	6
00001717 01             6328 	.byte	1
00001718 0b             6329 	.byte	11
00001719 02             6330 	.byte	2
0000171a 00             6331 	.byte	0
0000171b 02             6332 	.byte	2
0000171c 00             6333 	.byte	0
0000171d 0b             6334 	.byte	11
0000171e 02             6335 	.byte	2
0000171f 00             6336 	.byte	0
00001720 0b             6337 	.byte	11
00001721 02             6338 	.byte	2
00001722 04             6339 	.byte	4
00001723 000101         6340 	.byte	0,1,1
                        6341 	.section	.debug_info
                        6342 .LDW_40dd6d0:
000019d9 0f             6343 	.byte	15
000019da 6e6574776f72   6344 	.strz	"network"
000019e0 6b00 
000019e2 fb02           6345 	.byte	251,2
000019e4 4a             6346 	.byte	74
000019e5 01             6347 	.byte	1
000019e6 00000000*      6348 	.word	.LDW_4d4b328
000019ea 00             6349 	.byte	0
000019eb 0156           6350 	.byte	1,86
                        6351 
                        6352 .LDW_4b87048:
000019ed 1d             6353 	.byte	29
000019ee 00000000*      6354 	.word	.LDW61
000019f2 00000000*      6355 	.word	.LDW71
                        6356 
                        6357 .LDW_40dd4c0:
000019f6 04             6358 	.byte	4
000019f7 43616e534d5f   6359 	.strz	"CanSM_NetworkConf_ps"
000019fd 4e6574776f72 
00001a03 6b436f6e665f 
00001a09 707300 
00001a0c fc02           6360 	.byte	252,2
00001a0e 3b             6361 	.byte	59
00001a0f 01             6362 	.byte	1
00001a10 00000000*      6363 	.word	.LDW_4e00700
00001a14 00             6364 	.byte	0
00001a15 00             6365 	.byte	0
00001a16 016c           6366 	.byte	1,108
                        6367 
                        6368 .LDW_40dda98:
00001a18 04             6369 	.byte	4
00001a19 43616e534d5f   6370 	.strz	"CanSM_ControllerId_u8"
00001a1f 436f6e74726f 
00001a25 6c6c65724964 
00001a2b 5f753800 
00001a2f fd02           6371 	.byte	253,2
00001a31 1a             6372 	.byte	26
00001a32 01             6373 	.byte	1
00001a33 00000000*      6374 	.word	.LDW_4c40190
00001a37 00             6375 	.byte	0
00001a38 00             6376 	.byte	0
00001a39 0156           6377 	.byte	1,86
                        6378 
                        6379 .LDW_40dd570:
00001a3b 04             6380 	.byte	4

                                                                      Page 128
                                                              C:\Users\nhuliyap\AppData\Local\Temp\gh_000014o1.s
00001a3c 43616e534d5f   6381 	.strz	"CanSM_Ctrl_index_u8"
00001a42 4374726c5f69 
00001a48 6e6465785f75 
00001a4e 3800 
00001a50 fe02           6382 	.byte	254,2
00001a52 1a             6383 	.byte	26
00001a53 01             6384 	.byte	1
00001a54 00000000*      6385 	.word	.LDW_4c40190
00001a58 00             6386 	.byte	0
00001a59 00             6387 	.byte	0
00001a5a 016d           6388 	.byte	1,109
                        6389 
                        6390 .LDW_40dd728:
00001a5c 04             6391 	.byte	4
00001a5d 43616e534d5f   6392 	.strz	"CanSM_Ctrl_Status_u8"
00001a63 4374726c5f53 
00001a69 74617475735f 
00001a6f 753800 
00001a72 ff02           6393 	.byte	255,2
00001a74 1a             6394 	.byte	26
00001a75 01             6395 	.byte	1
00001a76 00000000*      6396 	.word	.LDW_407ffa8
00001a7a 00             6397 	.byte	0
00001a7b 00             6398 	.byte	0
00001a7c 0273           6399 	.byte	2,115
00001a7e 03             6400 	.byte	3
                        6401 
                        6402 .LDW_40dd678:
00001a7f 04             6403 	.byte	4
00001a80 43616e534d5f   6404 	.strz	"CanSM_Controller_Counter_u8"
00001a86 436f6e74726f 
00001a8c 6c6c65725f43 
00001a92 6f756e746572 
00001a98 5f753800 
00001a9c 8003           6405 	.byte	128,3
00001a9e 1a             6406 	.byte	26
00001a9f 01             6407 	.byte	1
00001aa0 00000000*      6408 	.word	.LDW_4c40190
00001aa4 00             6409 	.byte	0
00001aa5 00             6410 	.byte	0
00001aa6 016b           6411 	.byte	1,107
                        6412 
00001aa8 00             6413 	.byte	0
                        6414 
00001aa9 00             6415 	.byte	0
                        6416 
                        6417 .LDW_4d3c6d0:
00001aaa 13             6418 	.byte	19
00001aab 43616e534d5f   6419 	.strz	"CanSM_NO2FULL_COM"
00001ab1 4e4f3246554c 
00001ab7 4c5f434f4d00 
00001abd d006           6420 	.byte	208,6
00001abf 18             6421 	.byte	24
00001ac0 01             6422 	.byte	1
00001ac1 00000000*      6423 	.word	_CanSM_NO2FULL_COM
00001ac5 00000000*      6424 	.word	___ghs_eofn_CanSM_NO2FULL_COM
00001ac9 0153           6425 	.byte	1,83
00001acb 8280c0ff0b     6426 	.byte	130,128,192,255,11
00001ad0 2c             6427 	.byte	44
00001ad1 03             6428 	.byte	3
00001ad2 30             6429 	.byte	48

                                                                      Page 129
                                                              C:\Users\nhuliyap\AppData\Local\Temp\gh_000014o1.s
00001ad3 00             6430 	.byte	0
00001ad4 00             6431 	.byte	0
00001ad5 00             6432 	.byte	0
00001ad6 01             6433 	.byte	1
00001ad7 01             6434 	.byte	1
00001ad8 00             6435 	.byte	0
00001ad9 01             6436 	.byte	1
                        6437 
                        6438 	.section	.debug_frame
                        6439 .LDW_4f152d8:
00000124 00000000*      6440 	.word	.LDW_unq_c-.LDW_unq_b
                        6441 .LDW_unq_b:
00000128 00000000*      6442 	.word	.LDW_4ea4258
0000012c 00000000*      6443 	.word	_CanSM_NO2FULL_COM
00000130 00000000*      6444 	.word	___ghs_eofn_CanSM_NO2FULL_COM-_CanSM_NO2FULL_COM
00000134 44             6445 	.byte	68
00000135 9f             6446 	.byte	159
00000136 03             6447 	.byte	3
00000137 40             6448 	.byte	64
00000138 9d             6449 	.byte	157
00000139 07             6450 	.byte	7
0000013a 40             6451 	.byte	64
0000013b 9c             6452 	.byte	156
0000013c 0b             6453 	.byte	11
0000013d 40             6454 	.byte	64
0000013e 9b             6455 	.byte	155
0000013f 0f             6456 	.byte	15
00000140 40             6457 	.byte	64
00000141 9a             6458 	.byte	154
00000142 13             6459 	.byte	19
00000143 40             6460 	.byte	64
00000144 99             6461 	.byte	153
00000145 17             6462 	.byte	23
00000146 40             6463 	.byte	64
00000147 98             6464 	.byte	152
00000148 1b             6465 	.byte	27
00000149 40             6466 	.byte	64
0000014a 97             6467 	.byte	151
0000014b 1f             6468 	.byte	31
0000014c 40             6469 	.byte	64
0000014d 96             6470 	.byte	150
0000014e 23             6471 	.byte	35
0000014f 40             6472 	.byte	64
00000150 95             6473 	.byte	149
00000151 27             6474 	.byte	39
00000152 40             6475 	.byte	64
00000153 94             6476 	.byte	148
00000154 2b             6477 	.byte	43
00000155 01             6478 	.byte	1
00000156 00000000*      6479 	.word	.LDW91
0000015a 00             6480 	.byte	0
0000015b 00             6481 	.byte	0
                        6482 .LDW_unq_c:
                        6483 	.section	.debug_line
00001726 000502         6484 	.byte	0,5,2
00001729 00000000*      6485 	.word	_CanSM_NO2FULL_COM
0000172d 03             6486 	.byte	3
0000172e cf06           6487 	.byte	207,6
00001730 02             6488 	.byte	2
00001731 00             6489 	.byte	0
00001732 01             6490 	.byte	1

                                                                      Page 130
                                                              C:\Users\nhuliyap\AppData\Local\Temp\gh_000014o1.s
00001733 06             6491 	.byte	6
00001734 03             6492 	.byte	3
00001735 09             6493 	.byte	9
00001736 02             6494 	.byte	2
00001737 04             6495 	.byte	4
00001738 01             6496 	.byte	1
00001739 000502         6497 	.byte	0,5,2
0000173c 00000000*      6498 	.word	.LDWlin87
00001740 03             6499 	.byte	3
00001741 7f             6500 	.byte	127
00001742 02             6501 	.byte	2
00001743 00             6502 	.byte	0
00001744 01             6503 	.byte	1
00001745 000502         6504 	.byte	0,5,2
00001748 00000000*      6505 	.word	.LDWlin88
0000174c 0b             6506 	.byte	11
0000174d 0b             6507 	.byte	11
0000174e 000502         6508 	.byte	0,5,2
00001751 00000000*      6509 	.word	.LDWlin89
00001755 03             6510 	.byte	3
00001756 e800           6511 	.byte	232,0
00001758 02             6512 	.byte	2
00001759 00             6513 	.byte	0
0000175a 01             6514 	.byte	1
0000175b 02             6515 	.byte	2
0000175c 00             6516 	.byte	0
0000175d 0b             6517 	.byte	11
0000175e 02             6518 	.byte	2
0000175f 00             6519 	.byte	0
00001760 0b             6520 	.byte	11
00001761 000502         6521 	.byte	0,5,2
00001764 00000000*      6522 	.word	.LDWlin90
00001768 02             6523 	.byte	2
00001769 00             6524 	.byte	0
0000176a 0b             6525 	.byte	11
0000176b 000502         6526 	.byte	0,5,2
0000176e 00000000*      6527 	.word	.LDWlin91
00001772 02             6528 	.byte	2
00001773 00             6529 	.byte	0
00001774 0b             6530 	.byte	11
00001775 000502         6531 	.byte	0,5,2
00001778 00000000*      6532 	.word	.LDWlin92
0000177c 0b             6533 	.byte	11
0000177d 06             6534 	.byte	6
0000177e 23             6535 	.byte	35
0000177f 03             6536 	.byte	3
00001780 07             6537 	.byte	7
00001781 02             6538 	.byte	2
00001782 00             6539 	.byte	0
00001783 01             6540 	.byte	1
00001784 06             6541 	.byte	6
00001785 0b             6542 	.byte	11
00001786 02             6543 	.byte	2
00001787 00             6544 	.byte	0
00001788 0b             6545 	.byte	11
00001789 02             6546 	.byte	2
0000178a 00             6547 	.byte	0
0000178b 0b             6548 	.byte	11
0000178c 000502         6549 	.byte	0,5,2
0000178f 00000000*      6550 	.word	.LDWlin93
00001793 02             6551 	.byte	2

                                                                      Page 131
                                                              C:\Users\nhuliyap\AppData\Local\Temp\gh_000014o1.s
00001794 00             6552 	.byte	0
00001795 0b             6553 	.byte	11
00001796 000502         6554 	.byte	0,5,2
00001799 00000000*      6555 	.word	.LDWlin94
0000179d 0b             6556 	.byte	11
0000179e 1b             6557 	.byte	27
0000179f 02             6558 	.byte	2
000017a0 00             6559 	.byte	0
000017a1 0b             6560 	.byte	11
000017a2 000502         6561 	.byte	0,5,2
000017a5 00000000*      6562 	.word	.LDWlin95
000017a9 02             6563 	.byte	2
000017aa 00             6564 	.byte	0
000017ab 0b             6565 	.byte	11
000017ac 000502         6566 	.byte	0,5,2
000017af 00000000*      6567 	.word	.LDWlin96
000017b3 0b             6568 	.byte	11
000017b4 1b             6569 	.byte	27
000017b5 000502         6570 	.byte	0,5,2
000017b8 00000000*      6571 	.word	.LDWlin97
000017bc 02             6572 	.byte	2
000017bd 00             6573 	.byte	0
000017be 0b             6574 	.byte	11
000017bf 1c             6575 	.byte	28
000017c0 000502         6576 	.byte	0,5,2
000017c3 00000000*      6577 	.word	.LDWlin98
000017c7 0b             6578 	.byte	11
000017c8 14             6579 	.byte	20
000017c9 14             6580 	.byte	20
000017ca 000502         6581 	.byte	0,5,2
000017cd 00000000*      6582 	.word	.LDWlin99
000017d1 0b             6583 	.byte	11
000017d2 000502         6584 	.byte	0,5,2
000017d5 00000000*      6585 	.word	.LDWlin100
000017d9 03             6586 	.byte	3
000017da 7c             6587 	.byte	124
000017db 02             6588 	.byte	2
000017dc 00             6589 	.byte	0
000017dd 01             6590 	.byte	1
000017de 2b             6591 	.byte	43
000017df 0b             6592 	.byte	11
000017e0 3d             6593 	.byte	61
000017e1 02             6594 	.byte	2
000017e2 02             6595 	.byte	2
000017e3 000502         6596 	.byte	0,5,2
000017e6 00000000*      6597 	.word	.LDWlin101
000017ea 03             6598 	.byte	3
000017eb f87e           6599 	.byte	248,126
000017ed 02             6600 	.byte	2
000017ee 00             6601 	.byte	0
000017ef 01             6602 	.byte	1
000017f0 0b             6603 	.byte	11
000017f1 000502         6604 	.byte	0,5,2
000017f4 00000000*      6605 	.word	.LDWlin102
000017f8 02             6606 	.byte	2
000017f9 00             6607 	.byte	0
000017fa 0b             6608 	.byte	11
000017fb 000502         6609 	.byte	0,5,2
000017fe 00000000*      6610 	.word	.LDWlin103
00001802 02             6611 	.byte	2
00001803 00             6612 	.byte	0

                                                                      Page 132
                                                              C:\Users\nhuliyap\AppData\Local\Temp\gh_000014o1.s
00001804 0b             6613 	.byte	11
00001805 1b             6614 	.byte	27
00001806 02             6615 	.byte	2
00001807 00             6616 	.byte	0
00001808 0b             6617 	.byte	11
00001809 23             6618 	.byte	35
0000180a 1c             6619 	.byte	28
0000180b 000502         6620 	.byte	0,5,2
0000180e 00000000*      6621 	.word	.LDWlin104
00001812 0b             6622 	.byte	11
00001813 0b             6623 	.byte	11
00001814 0b             6624 	.byte	11
00001815 000502         6625 	.byte	0,5,2
00001818 00000000*      6626 	.word	.LDWlin105
0000181c 02             6627 	.byte	2
0000181d 00             6628 	.byte	0
0000181e 0b             6629 	.byte	11
0000181f 13             6630 	.byte	19
00001820 33             6631 	.byte	51
00001821 000502         6632 	.byte	0,5,2
00001824 00000000*      6633 	.word	.LDWlin106
00001828 0b             6634 	.byte	11
00001829 02             6635 	.byte	2
0000182a 00             6636 	.byte	0
0000182b 0b             6637 	.byte	11
0000182c 02             6638 	.byte	2
0000182d 00             6639 	.byte	0
0000182e 0c             6640 	.byte	12
0000182f 0c             6641 	.byte	12
00001830 0b             6642 	.byte	11
00001831 000502         6643 	.byte	0,5,2
00001834 00000000*      6644 	.word	.LDWlin107
00001838 02             6645 	.byte	2
00001839 00             6646 	.byte	0
0000183a 0b             6647 	.byte	11
0000183b 14             6648 	.byte	20
0000183c 03             6649 	.byte	3
0000183d 7f             6650 	.byte	127
0000183e 02             6651 	.byte	2
0000183f 06             6652 	.byte	6
00001840 01             6653 	.byte	1
00001841 2d             6654 	.byte	45
00001842 000502         6655 	.byte	0,5,2
00001845 00000000*      6656 	.word	.LDWlin108
00001849 0b             6657 	.byte	11
0000184a 0b             6658 	.byte	11
0000184b 0b             6659 	.byte	11
0000184c 000502         6660 	.byte	0,5,2
0000184f 00000000*      6661 	.word	.LDWlin109
00001853 02             6662 	.byte	2
00001854 00             6663 	.byte	0
00001855 0b             6664 	.byte	11
00001856 23             6665 	.byte	35
00001857 1b             6666 	.byte	27
00001858 000502         6667 	.byte	0,5,2
0000185b 00000000*      6668 	.word	.LDWlin110
0000185f 0b             6669 	.byte	11
00001860 02             6670 	.byte	2
00001861 00             6671 	.byte	0
00001862 0b             6672 	.byte	11
00001863 02             6673 	.byte	2

                                                                      Page 133
                                                              C:\Users\nhuliyap\AppData\Local\Temp\gh_000014o1.s
00001864 00             6674 	.byte	0
00001865 0c             6675 	.byte	12
00001866 0c             6676 	.byte	12
00001867 0b             6677 	.byte	11
00001868 000502         6678 	.byte	0,5,2
0000186b 00000000*      6679 	.word	.LDWlin111
0000186f 02             6680 	.byte	2
00001870 00             6681 	.byte	0
00001871 0b             6682 	.byte	11
00001872 1b             6683 	.byte	27
00001873 1c             6684 	.byte	28
00001874 1c             6685 	.byte	28
00001875 000502         6686 	.byte	0,5,2
00001878 00000000*      6687 	.word	.LDWlin112
0000187c 0b             6688 	.byte	11
0000187d 03             6689 	.byte	3
0000187e 04             6690 	.byte	4
0000187f 02             6691 	.byte	2
00001880 02             6692 	.byte	2
00001881 01             6693 	.byte	1
00001882 000502         6694 	.byte	0,5,2
00001885 00000000*      6695 	.word	.LDWlin113
00001889 0b             6696 	.byte	11
0000188a 000502         6697 	.byte	0,5,2
0000188d 00000000*      6698 	.word	.LDWlin114
00001891 03             6699 	.byte	3
00001892 7c             6700 	.byte	124
00001893 02             6701 	.byte	2
00001894 00             6702 	.byte	0
00001895 01             6703 	.byte	1
00001896 1b             6704 	.byte	27
00001897 1b             6705 	.byte	27
00001898 3d             6706 	.byte	61
00001899 02             6707 	.byte	2
0000189a 02             6708 	.byte	2
0000189b 000502         6709 	.byte	0,5,2
0000189e 00000000*      6710 	.word	.LDWlin115
000018a2 0b             6711 	.byte	11
000018a3 03             6712 	.byte	3
000018a4 09             6713 	.byte	9
000018a5 02             6714 	.byte	2
000018a6 02             6715 	.byte	2
000018a7 01             6716 	.byte	1
000018a8 000502         6717 	.byte	0,5,2
000018ab 00000000*      6718 	.word	.LDWlin116
000018af 03             6719 	.byte	3
000018b0 76             6720 	.byte	118
000018b1 02             6721 	.byte	2
000018b2 00             6722 	.byte	0
000018b3 01             6723 	.byte	1
000018b4 000502         6724 	.byte	0,5,2
000018b7 00000000*      6725 	.word	.LDWlin117
000018bb 03             6726 	.byte	3
000018bc 0f             6727 	.byte	15
000018bd 02             6728 	.byte	2
000018be 00             6729 	.byte	0
000018bf 01             6730 	.byte	1
000018c0 0b             6731 	.byte	11
000018c1 0b             6732 	.byte	11
000018c2 000502         6733 	.byte	0,5,2
000018c5 00000000*      6734 	.word	.LDWlin118

                                                                      Page 134
                                                              C:\Users\nhuliyap\AppData\Local\Temp\gh_000014o1.s
000018c9 02             6735 	.byte	2
000018ca 00             6736 	.byte	0
000018cb 0b             6737 	.byte	11
000018cc 13             6738 	.byte	19
000018cd 33             6739 	.byte	51
000018ce 000502         6740 	.byte	0,5,2
000018d1 00000000*      6741 	.word	.LDWlin119
000018d5 03             6742 	.byte	3
000018d6 0f             6743 	.byte	15
000018d7 02             6744 	.byte	2
000018d8 00             6745 	.byte	0
000018d9 01             6746 	.byte	1
000018da 000502         6747 	.byte	0,5,2
000018dd 00000000*      6748 	.word	.LDWlin120
000018e1 03             6749 	.byte	3
000018e2 7f             6750 	.byte	127
000018e3 02             6751 	.byte	2
000018e4 00             6752 	.byte	0
000018e5 01             6753 	.byte	1
000018e6 14             6754 	.byte	20
000018e7 06             6755 	.byte	6
000018e8 03             6756 	.byte	3
000018e9 0a             6757 	.byte	10
000018ea 02             6758 	.byte	2
000018eb 00             6759 	.byte	0
000018ec 01             6760 	.byte	1
000018ed 06             6761 	.byte	6
000018ee 0c             6762 	.byte	12
000018ef 0b             6763 	.byte	11
000018f0 0b             6764 	.byte	11
000018f1 000502         6765 	.byte	0,5,2
000018f4 00000000*      6766 	.word	.LDWlin121
000018f8 03             6767 	.byte	3
000018f9 63             6768 	.byte	99
000018fa 02             6769 	.byte	2
000018fb 00             6770 	.byte	0
000018fc 01             6771 	.byte	1
000018fd 02             6772 	.byte	2
000018fe 00             6773 	.byte	0
000018ff 0b             6774 	.byte	11
00001900 02             6775 	.byte	2
00001901 00             6776 	.byte	0
00001902 0c             6777 	.byte	12
00001903 0c             6778 	.byte	12
00001904 0b             6779 	.byte	11
00001905 0b             6780 	.byte	11
00001906 0b             6781 	.byte	11
00001907 0b             6782 	.byte	11
00001908 0b             6783 	.byte	11
00001909 1c             6784 	.byte	28
0000190a 000502         6785 	.byte	0,5,2
0000190d 00000000*      6786 	.word	.LDWlin122
00001911 03             6787 	.byte	3
00001912 34             6788 	.byte	52
00001913 02             6789 	.byte	2
00001914 00             6790 	.byte	0
00001915 01             6791 	.byte	1
00001916 03             6792 	.byte	3
00001917 09             6793 	.byte	9
00001918 02             6794 	.byte	2
00001919 02             6795 	.byte	2

                                                                      Page 135
                                                              C:\Users\nhuliyap\AppData\Local\Temp\gh_000014o1.s
0000191a 01             6796 	.byte	1
0000191b 000502         6797 	.byte	0,5,2
0000191e 00000000*      6798 	.word	.LDWlin123
00001922 03             6799 	.byte	3
00001923 76             6800 	.byte	118
00001924 02             6801 	.byte	2
00001925 00             6802 	.byte	0
00001926 01             6803 	.byte	1
00001927 06             6804 	.byte	6
00001928 000502         6805 	.byte	0,5,2
0000192b 00000000*      6806 	.word	.LDWlin124
0000192f 03             6807 	.byte	3
00001930 ba7f           6808 	.byte	186,127
00001932 02             6809 	.byte	2
00001933 00             6810 	.byte	0
00001934 01             6811 	.byte	1
00001935 06             6812 	.byte	6
00001936 03             6813 	.byte	3
00001937 d400           6814 	.byte	212,0
00001939 02             6815 	.byte	2
0000193a 00             6816 	.byte	0
0000193b 01             6817 	.byte	1
0000193c 06             6818 	.byte	6
0000193d 03             6819 	.byte	3
0000193e ab7f           6820 	.byte	171,127
00001940 02             6821 	.byte	2
00001941 02             6822 	.byte	2
00001942 01             6823 	.byte	1
00001943 06             6824 	.byte	6
00001944 03             6825 	.byte	3
00001945 d300           6826 	.byte	211,0
00001947 02             6827 	.byte	2
00001948 00             6828 	.byte	0
00001949 01             6829 	.byte	1
0000194a 0b             6830 	.byte	11
0000194b 000502         6831 	.byte	0,5,2
0000194e 00000000*      6832 	.word	.LDWlin125
00001952 0c             6833 	.byte	12
00001953 02             6834 	.byte	2
00001954 00             6835 	.byte	0
00001955 0b             6836 	.byte	11
00001956 02             6837 	.byte	2
00001957 00             6838 	.byte	0
00001958 0b             6839 	.byte	11
00001959 02             6840 	.byte	2
0000195a 04             6841 	.byte	4
0000195b 000101         6842 	.byte	0,1,1
                        6843 	.section	.debug_info
                        6844 .LDW_40dd888:
00001ada 0f             6845 	.byte	15
00001adb 6e6574776f72   6846 	.strz	"network"
00001ae1 6b00 
00001ae3 d006           6847 	.byte	208,6
00001ae5 4c             6848 	.byte	76
00001ae6 01             6849 	.byte	1
00001ae7 00000000*      6850 	.word	.LDW_4d4b328
00001aeb 00             6851 	.byte	0
00001aec 0167           6852 	.byte	1,103
                        6853 
                        6854 .LDW_4b86d78:
00001aee 1d             6855 	.byte	29

                                                                      Page 136
                                                              C:\Users\nhuliyap\AppData\Local\Temp\gh_000014o1.s
00001aef 00000000*      6856 	.word	.LDW81
00001af3 00000000*      6857 	.word	.LDW91
                        6858 
                        6859 .LDW_40dd0f8:
00001af7 04             6860 	.byte	4
00001af8 43616e534d5f   6861 	.strz	"CanSM_PreFullCom_Substates"
00001afe 50726546756c 
00001b04 6c436f6d5f53 
00001b0a 756273746174 
00001b10 657300 
00001b13 d106           6862 	.byte	209,6
00001b15 33             6863 	.byte	51
00001b16 01             6864 	.byte	1
00001b17 00000000*      6865 	.word	.LDW_40dcff0
00001b1b 00             6866 	.byte	0
00001b1c 00             6867 	.byte	0
00001b1d 0162           6868 	.byte	1,98
                        6869 
                        6870 .LDW_40dd0a0:
00001b1f 05             6871 	.byte	5
00001b20 43616e534d5f   6872 	.strz	"CanSM_BswM_Mode_en"
00001b26 4273774d5f4d 
00001b2c 6f64655f656e 
00001b32 00 
00001b33 d206           6873 	.byte	210,6
00001b35 2f             6874 	.byte	47
00001b36 01             6875 	.byte	1
00001b37 00000000*      6876 	.word	.LDW_40dd2b0
00001b3b 00             6877 	.byte	0
00001b3c 00             6878 	.byte	0
                        6879 
                        6880 .LDW_40dd150:
00001b3d 04             6881 	.byte	4
00001b3e 4e6574776f72   6882 	.strz	"NetworkConf_ps"
00001b44 6b436f6e665f 
00001b4a 707300 
00001b4d d306           6883 	.byte	211,6
00001b4f 3f             6884 	.byte	63
00001b50 01             6885 	.byte	1
00001b51 00000000*      6886 	.word	.LDW_4e00700
00001b55 00             6887 	.byte	0
00001b56 00             6888 	.byte	0
00001b57 0166           6889 	.byte	1,102
                        6890 
                        6891 .LDW_40dd200:
00001b59 04             6892 	.byte	4
00001b5a 43616e534d5f   6893 	.strz	"CanSM_Ctrl_index_u8"
00001b60 4374726c5f69 
00001b66 6e6465785f75 
00001b6c 3800 
00001b6e d406           6894 	.byte	212,6
00001b70 1a             6895 	.byte	26
00001b71 01             6896 	.byte	1
00001b72 00000000*      6897 	.word	.LDW_4c40190
00001b76 00             6898 	.byte	0
00001b77 00             6899 	.byte	0
00001b78 016d           6900 	.byte	1,109
                        6901 
                        6902 .LDW_40dde60:
00001b7a 04             6903 	.byte	4
00001b7b 43616e534d5f   6904 	.strz	"CanSM_ControllerId_u8"

                                                                      Page 137
                                                              C:\Users\nhuliyap\AppData\Local\Temp\gh_000014o1.s
00001b81 436f6e74726f 
00001b87 6c6c65724964 
00001b8d 5f753800 
00001b91 d506           6905 	.byte	213,6
00001b93 1a             6906 	.byte	26
00001b94 01             6907 	.byte	1
00001b95 00000000*      6908 	.word	.LDW_4c40190
00001b99 00             6909 	.byte	0
00001b9a 00             6910 	.byte	0
00001b9b 0156           6911 	.byte	1,86
                        6912 
                        6913 .LDW_40ddeb8:
00001b9d 04             6914 	.byte	4
00001b9e 43616e534d5f   6915 	.strz	"CanSM_reqComM_Mode_uo"
00001ba4 726571436f6d 
00001baa 4d5f4d6f6465 
00001bb0 5f756f00 
00001bb4 d606           6916 	.byte	214,6
00001bb6 22             6917 	.byte	34
00001bb7 01             6918 	.byte	1
00001bb8 00000000*      6919 	.word	.LDW_40ddb48
00001bbc 00             6920 	.byte	0
00001bbd 00             6921 	.byte	0
00001bbe 0273           6922 	.byte	2,115
00001bc0 03             6923 	.byte	3
                        6924 
00001bc1 00             6925 	.byte	0
                        6926 
00001bc2 00             6927 	.byte	0
                        6928 
                        6929 .LDW_4d3c508:
00001bc3 13             6930 	.byte	19
00001bc4 43616e534d5f   6931 	.strz	"CanSM_FULL2SILENT_COM"
00001bca 46554c4c3253 
00001bd0 494c454e545f 
00001bd6 434f4d00 
00001bda f607           6932 	.byte	246,7
00001bdc 18             6933 	.byte	24
00001bdd 01             6934 	.byte	1
00001bde 00000000*      6935 	.word	_CanSM_FULL2SILENT_COM
00001be2 00000000*      6936 	.word	___ghs_eofn_CanSM_FULL2SILENT_COM
00001be6 0153           6937 	.byte	1,83
00001be8 828080c00b     6938 	.byte	130,128,128,192,11
00001bed 10             6939 	.byte	16
00001bee 03             6940 	.byte	3
00001bef 14             6941 	.byte	20
00001bf0 00             6942 	.byte	0
00001bf1 00             6943 	.byte	0
00001bf2 00             6944 	.byte	0
00001bf3 01             6945 	.byte	1
00001bf4 01             6946 	.byte	1
00001bf5 00             6947 	.byte	0
00001bf6 01             6948 	.byte	1
                        6949 
                        6950 	.section	.debug_frame
                        6951 .LDW_4f15718:
0000015c 00000000*      6952 	.word	.LDW_unq_e-.LDW_unq_d
                        6953 .LDW_unq_d:
00000160 00000000*      6954 	.word	.LDW_4ea4258
00000164 00000000*      6955 	.word	_CanSM_FULL2SILENT_COM
00000168 00000000*      6956 	.word	___ghs_eofn_CanSM_FULL2SILENT_COM-_CanSM_FULL2SILENT_COM

                                                                      Page 138
                                                              C:\Users\nhuliyap\AppData\Local\Temp\gh_000014o1.s
0000016c 44             6957 	.byte	68
0000016d 9f             6958 	.byte	159
0000016e 03             6959 	.byte	3
0000016f 40             6960 	.byte	64
00000170 9d             6961 	.byte	157
00000171 07             6962 	.byte	7
00000172 40             6963 	.byte	64
00000173 9c             6964 	.byte	156
00000174 0b             6965 	.byte	11
00000175 40             6966 	.byte	64
00000176 9b             6967 	.byte	155
00000177 0f             6968 	.byte	15
00000178 01             6969 	.byte	1
00000179 00000000*      6970 	.word	.LDW12
0000017d 00             6971 	.byte	0
0000017e 00             6972 	.byte	0
0000017f 00             6973 	.byte	0
                        6974 .LDW_unq_e:
                        6975 	.section	.debug_line
0000195e 000502         6976 	.byte	0,5,2
00001961 00000000*      6977 	.word	_CanSM_FULL2SILENT_COM
00001965 03             6978 	.byte	3
00001966 f507           6979 	.byte	245,7
00001968 02             6980 	.byte	2
00001969 00             6981 	.byte	0
0000196a 01             6982 	.byte	1
0000196b 06             6983 	.byte	6
0000196c 03             6984 	.byte	3
0000196d 06             6985 	.byte	6
0000196e 02             6986 	.byte	2
0000196f 06             6987 	.byte	6
00001970 01             6988 	.byte	1
00001971 000502         6989 	.byte	0,5,2
00001974 00000000*      6990 	.word	.LDWlin126
00001978 0b             6991 	.byte	11
00001979 000502         6992 	.byte	0,5,2
0000197c 00000000*      6993 	.word	.LDWlin127
00001980 0b             6994 	.byte	11
00001981 000502         6995 	.byte	0,5,2
00001984 00000000*      6996 	.word	.LDWlin128
00001988 0b             6997 	.byte	11
00001989 000502         6998 	.byte	0,5,2
0000198c 00000000*      6999 	.word	.LDWlin129
00001990 0b             7000 	.byte	11
00001991 000502         7001 	.byte	0,5,2
00001994 00000000*      7002 	.word	.LDWlin130
00001998 0b             7003 	.byte	11
00001999 000502         7004 	.byte	0,5,2
0000199c 00000000*      7005 	.word	.LDWlin131
000019a0 0c             7006 	.byte	12
000019a1 000502         7007 	.byte	0,5,2
000019a4 00000000*      7008 	.word	.LDWlin132
000019a8 0b             7009 	.byte	11
000019a9 02             7010 	.byte	2
000019aa 02             7011 	.byte	2
000019ab 000502         7012 	.byte	0,5,2
000019ae 00000000*      7013 	.word	.LDWlin133
000019b2 0c             7014 	.byte	12
000019b3 000502         7015 	.byte	0,5,2
000019b6 00000000*      7016 	.word	.LDWlin134
000019ba 03             7017 	.byte	3

                                                                      Page 139
                                                              C:\Users\nhuliyap\AppData\Local\Temp\gh_000014o1.s
000019bb 7e             7018 	.byte	126
000019bc 02             7019 	.byte	2
000019bd 00             7020 	.byte	0
000019be 01             7021 	.byte	1
000019bf 000502         7022 	.byte	0,5,2
000019c2 00000000*      7023 	.word	.LDWlin135
000019c6 03             7024 	.byte	3
000019c7 05             7025 	.byte	5
000019c8 02             7026 	.byte	2
000019c9 00             7027 	.byte	0
000019ca 01             7028 	.byte	1
000019cb 03             7029 	.byte	3
000019cc 7e             7030 	.byte	126
000019cd 02             7031 	.byte	2
000019ce 02             7032 	.byte	2
000019cf 01             7033 	.byte	1
000019d0 0b             7034 	.byte	11
000019d1 000502         7035 	.byte	0,5,2
000019d4 00000000*      7036 	.word	.LDWlin136
000019d8 0c             7037 	.byte	12
000019d9 02             7038 	.byte	2
000019da 04             7039 	.byte	4
000019db 000101         7040 	.byte	0,1,1
                        7041 	.section	.debug_info
                        7042 .LDW_40dde08:
00001bf7 0f             7043 	.byte	15
00001bf8 6e6574776f72   7044 	.strz	"network"
00001bfe 6b00 
00001c00 f607           7045 	.byte	246,7
00001c02 50             7046 	.byte	80
00001c03 01             7047 	.byte	1
00001c04 00000000*      7048 	.word	.LDW_4d4b328
00001c08 00             7049 	.byte	0
00001c09 0156           7050 	.byte	1,86
                        7051 
                        7052 .LDW_4b86dd8:
00001c0b 1d             7053 	.byte	29
00001c0c 00000000*      7054 	.word	.LDW02
00001c10 00000000*      7055 	.word	.LDW12
                        7056 
                        7057 .LDW_40ddd00:
00001c14 05             7058 	.byte	5
00001c15 43616e534d5f   7059 	.strz	"CanSM_BswM_Mode_en"
00001c1b 4273774d5f4d 
00001c21 6f64655f656e 
00001c27 00 
00001c28 f707           7060 	.byte	247,7
00001c2a 2f             7061 	.byte	47
00001c2b 01             7062 	.byte	1
00001c2c 00000000*      7063 	.word	.LDW_40dd2b0
00001c30 00             7064 	.byte	0
00001c31 00             7065 	.byte	0
                        7066 
                        7067 .LDW_40ddbf8:
00001c32 04             7068 	.byte	4
00001c33 4e6574776f72   7069 	.strz	"NetworkConf_ps"
00001c39 6b436f6e665f 
00001c3f 707300 
00001c42 f807           7070 	.byte	248,7
00001c44 3f             7071 	.byte	63
00001c45 01             7072 	.byte	1

                                                                      Page 140
                                                              C:\Users\nhuliyap\AppData\Local\Temp\gh_000014o1.s
00001c46 00000000*      7073 	.word	.LDW_4e00700
00001c4a 00             7074 	.byte	0
00001c4b 00             7075 	.byte	0
00001c4c 016e           7076 	.byte	1,110
                        7077 
                        7078 .LDW_40ddc50:
00001c4e 04             7079 	.byte	4
00001c4f 43616e534d5f   7080 	.strz	"CanSM_Ctrl_index_u8"
00001c55 4374726c5f69 
00001c5b 6e6465785f75 
00001c61 3800 
00001c63 f907           7081 	.byte	249,7
00001c65 1a             7082 	.byte	26
00001c66 01             7083 	.byte	1
00001c67 00000000*      7084 	.word	.LDW_4c40190
00001c6b 00             7085 	.byte	0
00001c6c 00             7086 	.byte	0
00001c6d 016d           7087 	.byte	1,109
                        7088 
                        7089 .LDW_40ddba0:
00001c6f 05             7090 	.byte	5
00001c70 43616e534d5f   7091 	.strz	"CanSM_ControllerId_u8"
00001c76 436f6e74726f 
00001c7c 6c6c65724964 
00001c82 5f753800 
00001c86 fa07           7092 	.byte	250,7
00001c88 1a             7093 	.byte	26
00001c89 01             7094 	.byte	1
00001c8a 00000000*      7095 	.word	.LDW_4c40190
00001c8e 00             7096 	.byte	0
00001c8f 00             7097 	.byte	0
                        7098 
                        7099 .LDW_40ddd58:
00001c90 04             7100 	.byte	4
00001c91 43616e534d5f   7101 	.strz	"CanSM_reqComM_Mode_uo"
00001c97 726571436f6d 
00001c9d 4d5f4d6f6465 
00001ca3 5f756f00 
00001ca7 fb07           7102 	.byte	251,7
00001ca9 22             7103 	.byte	34
00001caa 01             7104 	.byte	1
00001cab 00000000*      7105 	.word	.LDW_40ddb48
00001caf 00             7106 	.byte	0
00001cb0 00             7107 	.byte	0
00001cb1 0273           7108 	.byte	2,115
00001cb3 03             7109 	.byte	3
                        7110 
00001cb4 00             7111 	.byte	0
                        7112 
00001cb5 00             7113 	.byte	0
                        7114 
                        7115 .LDW_4d3c9c8:
00001cb6 13             7116 	.byte	19
00001cb7 43616e534d5f   7117 	.strz	"CanSM_SILENT2FULL_COM"
00001cbd 53494c454e54 
00001cc3 3246554c4c5f 
00001cc9 434f4d00 
00001ccd 8c08           7118 	.byte	140,8
00001ccf 18             7119 	.byte	24
00001cd0 01             7120 	.byte	1
00001cd1 00000000*      7121 	.word	_CanSM_SILENT2FULL_COM

                                                                      Page 141
                                                              C:\Users\nhuliyap\AppData\Local\Temp\gh_000014o1.s
00001cd5 00000000*      7122 	.word	___ghs_eofn_CanSM_SILENT2FULL_COM
00001cd9 0153           7123 	.byte	1,83
00001cdb 828080e00b     7124 	.byte	130,128,128,224,11
00001ce0 14             7125 	.byte	20
00001ce1 03             7126 	.byte	3
00001ce2 18             7127 	.byte	24
00001ce3 00             7128 	.byte	0
00001ce4 00             7129 	.byte	0
00001ce5 00             7130 	.byte	0
00001ce6 01             7131 	.byte	1
00001ce7 01             7132 	.byte	1
00001ce8 00             7133 	.byte	0
00001ce9 01             7134 	.byte	1
                        7135 
                        7136 	.section	.debug_frame
                        7137 .LDW_4f15ed8:
00000180 00000000*      7138 	.word	.LDW_unq_10-.LDW_unq_f
                        7139 .LDW_unq_f:
00000184 00000000*      7140 	.word	.LDW_4ea4258
00000188 00000000*      7141 	.word	_CanSM_SILENT2FULL_COM
0000018c 00000000*      7142 	.word	___ghs_eofn_CanSM_SILENT2FULL_COM-_CanSM_SILENT2FULL_COM
00000190 44             7143 	.byte	68
00000191 9f             7144 	.byte	159
00000192 03             7145 	.byte	3
00000193 40             7146 	.byte	64
00000194 9d             7147 	.byte	157
00000195 07             7148 	.byte	7
00000196 40             7149 	.byte	64
00000197 9c             7150 	.byte	156
00000198 0b             7151 	.byte	11
00000199 40             7152 	.byte	64
0000019a 9b             7153 	.byte	155
0000019b 0f             7154 	.byte	15
0000019c 40             7155 	.byte	64
0000019d 9a             7156 	.byte	154
0000019e 13             7157 	.byte	19
0000019f 01             7158 	.byte	1
000001a0 00000000*      7159 	.word	.LDW32
                        7160 .LDW_unq_10:
                        7161 	.section	.debug_line
000019de 000502         7162 	.byte	0,5,2
000019e1 00000000*      7163 	.word	_CanSM_SILENT2FULL_COM
000019e5 03             7164 	.byte	3
000019e6 8b08           7165 	.byte	139,8
000019e8 02             7166 	.byte	2
000019e9 00             7167 	.byte	0
000019ea 01             7168 	.byte	1
000019eb 06             7169 	.byte	6
000019ec 03             7170 	.byte	3
000019ed 06             7171 	.byte	6
000019ee 02             7172 	.byte	2
000019ef 06             7173 	.byte	6
000019f0 01             7174 	.byte	1
000019f1 000502         7175 	.byte	0,5,2
000019f4 00000000*      7176 	.word	.LDWlin137
000019f8 0b             7177 	.byte	11
000019f9 02             7178 	.byte	2
000019fa 04             7179 	.byte	4
000019fb 000502         7180 	.byte	0,5,2
000019fe 00000000*      7181 	.word	.LDWlin138
00001a02 03             7182 	.byte	3

                                                                      Page 142
                                                              C:\Users\nhuliyap\AppData\Local\Temp\gh_000014o1.s
00001a03 0b             7183 	.byte	11
00001a04 02             7184 	.byte	2
00001a05 00             7185 	.byte	0
00001a06 01             7186 	.byte	1
00001a07 000502         7187 	.byte	0,5,2
00001a0a 00000000*      7188 	.word	.LDWlin139
00001a0e 03             7189 	.byte	3
00001a0f 75             7190 	.byte	117
00001a10 02             7191 	.byte	2
00001a11 00             7192 	.byte	0
00001a12 01             7193 	.byte	1
00001a13 000502         7194 	.byte	0,5,2
00001a16 00000000*      7195 	.word	.LDWlin140
00001a1a 03             7196 	.byte	3
00001a1b 0d             7197 	.byte	13
00001a1c 02             7198 	.byte	2
00001a1d 00             7199 	.byte	0
00001a1e 01             7200 	.byte	1
00001a1f 0c             7201 	.byte	12
00001a20 14             7202 	.byte	20
00001a21 000502         7203 	.byte	0,5,2
00001a24 00000000*      7204 	.word	.LDWlin141
00001a28 03             7205 	.byte	3
00001a29 7f             7206 	.byte	127
00001a2a 02             7207 	.byte	2
00001a2b 00             7208 	.byte	0
00001a2c 01             7209 	.byte	1
00001a2d 000502         7210 	.byte	0,5,2
00001a30 00000000*      7211 	.word	.LDWlin142
00001a34 0b             7212 	.byte	11
00001a35 0b             7213 	.byte	11
00001a36 000502         7214 	.byte	0,5,2
00001a39 00000000*      7215 	.word	.LDWlin143
00001a3d 0b             7216 	.byte	11
00001a3e 000502         7217 	.byte	0,5,2
00001a41 00000000*      7218 	.word	.LDWlin144
00001a45 0b             7219 	.byte	11
00001a46 000502         7220 	.byte	0,5,2
00001a49 00000000*      7221 	.word	.LDWlin145
00001a4d 0c             7222 	.byte	12
00001a4e 03             7223 	.byte	3
00001a4f 7f             7224 	.byte	127
00001a50 02             7225 	.byte	2
00001a51 02             7226 	.byte	2
00001a52 01             7227 	.byte	1
00001a53 000502         7228 	.byte	0,5,2
00001a56 00000000*      7229 	.word	.LDWlin146
00001a5a 0d             7230 	.byte	13
00001a5b 000502         7231 	.byte	0,5,2
00001a5e 00000000*      7232 	.word	.LDWlin147
00001a62 0b             7233 	.byte	11
00001a63 02             7234 	.byte	2
00001a64 04             7235 	.byte	4
00001a65 000101         7236 	.byte	0,1,1
                        7237 	.section	.debug_info
                        7238 .LDW_40ddf68:
00001cea 0f             7239 	.byte	15
00001ceb 6e6574776f72   7240 	.strz	"network"
00001cf1 6b00 
00001cf3 8c08           7241 	.byte	140,8
00001cf5 50             7242 	.byte	80

                                                                      Page 143
                                                              C:\Users\nhuliyap\AppData\Local\Temp\gh_000014o1.s
00001cf6 01             7243 	.byte	1
00001cf7 00000000*      7244 	.word	.LDW_4d4b328
00001cfb 00             7245 	.byte	0
00001cfc 0156           7246 	.byte	1,86
                        7247 
                        7248 .LDW_4b86e38:
00001cfe 1d             7249 	.byte	29
00001cff 00000000*      7250 	.word	.LDW22
00001d03 00000000*      7251 	.word	.LDW32
                        7252 
                        7253 .LDW_40ddca8:
00001d07 05             7254 	.byte	5
00001d08 43616e534d5f   7255 	.strz	"CanSM_BswM_Mode_en"
00001d0e 4273774d5f4d 
00001d14 6f64655f656e 
00001d1a 00 
00001d1b 8d08           7256 	.byte	141,8
00001d1d 2f             7257 	.byte	47
00001d1e 01             7258 	.byte	1
00001d1f 00000000*      7259 	.word	.LDW_40dd2b0
00001d23 00             7260 	.byte	0
00001d24 00             7261 	.byte	0
                        7262 
                        7263 .LDW_40dddb0:
00001d25 04             7264 	.byte	4
00001d26 4e6574776f72   7265 	.strz	"NetworkConf_ps"
00001d2c 6b436f6e665f 
00001d32 707300 
00001d35 8e08           7266 	.byte	142,8
00001d37 3f             7267 	.byte	63
00001d38 01             7268 	.byte	1
00001d39 00000000*      7269 	.word	.LDW_4e00700
00001d3d 00             7270 	.byte	0
00001d3e 00             7271 	.byte	0
00001d3f 016c           7272 	.byte	1,108
                        7273 
                        7274 .LDW_40ddf10:
00001d41 04             7275 	.byte	4
00001d42 43616e534d5f   7276 	.strz	"CanSM_Ctrl_index_u8"
00001d48 4374726c5f69 
00001d4e 6e6465785f75 
00001d54 3800 
00001d56 8f08           7277 	.byte	143,8
00001d58 1a             7278 	.byte	26
00001d59 01             7279 	.byte	1
00001d5a 00000000*      7280 	.word	.LDW_4c40190
00001d5e 00             7281 	.byte	0
00001d5f 00             7282 	.byte	0
00001d60 016d           7283 	.byte	1,109
                        7284 
                        7285 .LDW_40ddaf0:
00001d62 05             7286 	.byte	5
00001d63 43616e534d5f   7287 	.strz	"CanSM_ControllerId_u8"
00001d69 436f6e74726f 
00001d6f 6c6c65724964 
00001d75 5f753800 
00001d79 9008           7288 	.byte	144,8
00001d7b 1a             7289 	.byte	26
00001d7c 01             7290 	.byte	1
00001d7d 00000000*      7291 	.word	.LDW_4c40190
00001d81 00             7292 	.byte	0

                                                                      Page 144
                                                              C:\Users\nhuliyap\AppData\Local\Temp\gh_000014o1.s
00001d82 00             7293 	.byte	0
                        7294 
                        7295 .LDW_4dab7e0:
00001d83 04             7296 	.byte	4
00001d84 43616e534d5f   7297 	.strz	"CanSM_reqComM_Mode_uo"
00001d8a 726571436f6d 
00001d90 4d5f4d6f6465 
00001d96 5f756f00 
00001d9a 9108           7298 	.byte	145,8
00001d9c 22             7299 	.byte	34
00001d9d 01             7300 	.byte	1
00001d9e 00000000*      7301 	.word	.LDW_40ddb48
00001da2 00             7302 	.byte	0
00001da3 00             7303 	.byte	0
00001da4 0273           7304 	.byte	2,115
00001da6 03             7305 	.byte	3
                        7306 
00001da7 00             7307 	.byte	0
                        7308 
00001da8 00             7309 	.byte	0
                        7310 
                        7311 .LDW_4d3bfb0:
00001da9 13             7312 	.byte	19
00001daa 43616e534d5f   7313 	.strz	"CanSM_TxTimeoutException_StateMachine"
00001db0 547854696d65 
00001db6 6f7574457863 
00001dbc 657074696f6e 
00001dc2 5f5374617465 
00001dc8 4d616368696e 
00001dce 6500 
00001dd0 ae08           7314 	.byte	174,8
00001dd2 18             7315 	.byte	24
00001dd3 01             7316 	.byte	1
00001dd4 00000000*      7317 	.word	_CanSM_TxTimeoutException_StateMachine
00001dd8 00000000*      7318 	.word	___ghs_eofn_CanSM_TxTimeoutException_StateMachine
00001ddc 0153           7319 	.byte	1,83
00001dde 828080e00b     7320 	.byte	130,128,128,224,11
00001de3 14             7321 	.byte	20
00001de4 03             7322 	.byte	3
00001de5 14             7323 	.byte	20
00001de6 00             7324 	.byte	0
00001de7 00             7325 	.byte	0
00001de8 00             7326 	.byte	0
00001de9 01             7327 	.byte	1
00001dea 01             7328 	.byte	1
00001deb 00             7329 	.byte	0
00001dec 01             7330 	.byte	1
                        7331 
                        7332 	.section	.debug_frame
                        7333 .LDW_4f15e98:
000001a4 00000000*      7334 	.word	.LDW_unq_12-.LDW_unq_11
                        7335 .LDW_unq_11:
000001a8 00000000*      7336 	.word	.LDW_4ea4258
000001ac 00000000*      7337 	.word	_CanSM_TxTimeoutException_StateMachine
000001b0 00000000*      7338 	.word	___ghs_eofn_CanSM_TxTimeoutException_StateMachine-_CanSM_TxTimeoutException_StateMachine
000001b4 48             7339 	.byte	72
000001b5 9f             7340 	.byte	159
000001b6 00             7341 	.byte	0
000001b7 40             7342 	.byte	64
000001b8 9d             7343 	.byte	157
000001b9 04             7344 	.byte	4

                                                                      Page 145
                                                              C:\Users\nhuliyap\AppData\Local\Temp\gh_000014o1.s
000001ba 40             7345 	.byte	64
000001bb 9c             7346 	.byte	156
000001bc 08             7347 	.byte	8
000001bd 40             7348 	.byte	64
000001be 9b             7349 	.byte	155
000001bf 0c             7350 	.byte	12
000001c0 40             7351 	.byte	64
000001c1 9a             7352 	.byte	154
000001c2 10             7353 	.byte	16
000001c3 01             7354 	.byte	1
000001c4 00000000*      7355 	.word	.LDW52
                        7356 .LDW_unq_12:
                        7357 	.section	.debug_line
00001a68 000502         7358 	.byte	0,5,2
00001a6b 00000000*      7359 	.word	_CanSM_TxTimeoutException_StateMachine
00001a6f 03             7360 	.byte	3
00001a70 ad08           7361 	.byte	173,8
00001a72 02             7362 	.byte	2
00001a73 00             7363 	.byte	0
00001a74 01             7364 	.byte	1
00001a75 06             7365 	.byte	6
00001a76 03             7366 	.byte	3
00001a77 05             7367 	.byte	5
00001a78 02             7368 	.byte	2
00001a79 0c             7369 	.byte	12
00001a7a 01             7370 	.byte	1
00001a7b 000502         7371 	.byte	0,5,2
00001a7e 00000000*      7372 	.word	.LDWlin148
00001a82 03             7373 	.byte	3
00001a83 7f             7374 	.byte	127
00001a84 02             7375 	.byte	2
00001a85 00             7376 	.byte	0
00001a86 01             7377 	.byte	1
00001a87 000502         7378 	.byte	0,5,2
00001a8a 00000000*      7379 	.word	.LDWlin149
00001a8e 0b             7380 	.byte	11
00001a8f 0b             7381 	.byte	11
00001a90 000502         7382 	.byte	0,5,2
00001a93 00000000*      7383 	.word	.LDWlin150
00001a97 03             7384 	.byte	3
00001a98 3d             7385 	.byte	61
00001a99 02             7386 	.byte	2
00001a9a 00             7387 	.byte	0
00001a9b 01             7388 	.byte	1
00001a9c 02             7389 	.byte	2
00001a9d 00             7390 	.byte	0
00001a9e 0b             7391 	.byte	11
00001a9f 000502         7392 	.byte	0,5,2
00001aa2 00000000*      7393 	.word	.LDWlin151
00001aa6 03             7394 	.byte	3
00001aa7 43             7395 	.byte	67
00001aa8 02             7396 	.byte	2
00001aa9 00             7397 	.byte	0
00001aaa 01             7398 	.byte	1
00001aab 0b             7399 	.byte	11
00001aac 000502         7400 	.byte	0,5,2
00001aaf 00000000*      7401 	.word	.LDWlin152
00001ab3 02             7402 	.byte	2
00001ab4 00             7403 	.byte	0
00001ab5 0b             7404 	.byte	11
00001ab6 23             7405 	.byte	35

                                                                      Page 146
                                                              C:\Users\nhuliyap\AppData\Local\Temp\gh_000014o1.s
00001ab7 1b             7406 	.byte	27
00001ab8 1c             7407 	.byte	28
00001ab9 000502         7408 	.byte	0,5,2
00001abc 00000000*      7409 	.word	.LDWlin153
00001ac0 0b             7410 	.byte	11
00001ac1 0b             7411 	.byte	11
00001ac2 0b             7412 	.byte	11
00001ac3 000502         7413 	.byte	0,5,2
00001ac6 00000000*      7414 	.word	.LDWlin154
00001aca 02             7415 	.byte	2
00001acb 00             7416 	.byte	0
00001acc 0b             7417 	.byte	11
00001acd 000502         7418 	.byte	0,5,2
00001ad0 00000000*      7419 	.word	.LDWlin155
00001ad4 0d             7420 	.byte	13
00001ad5 02             7421 	.byte	2
00001ad6 00             7422 	.byte	0
00001ad7 0b             7423 	.byte	11
00001ad8 02             7424 	.byte	2
00001ad9 00             7425 	.byte	0
00001ada 0c             7426 	.byte	12
00001adb 0c             7427 	.byte	12
00001adc 0b             7428 	.byte	11
00001add 000502         7429 	.byte	0,5,2
00001ae0 00000000*      7430 	.word	.LDWlin156
00001ae4 02             7431 	.byte	2
00001ae5 00             7432 	.byte	0
00001ae6 0b             7433 	.byte	11
00001ae7 23             7434 	.byte	35
00001ae8 1b             7435 	.byte	27
00001ae9 1c             7436 	.byte	28
00001aea 13             7437 	.byte	19
00001aeb 02             7438 	.byte	2
00001aec 02             7439 	.byte	2
00001aed 000502         7440 	.byte	0,5,2
00001af0 00000000*      7441 	.word	.LDWlin157
00001af4 0b             7442 	.byte	11
00001af5 03             7443 	.byte	3
00001af6 0a             7444 	.byte	10
00001af7 02             7445 	.byte	2
00001af8 02             7446 	.byte	2
00001af9 01             7447 	.byte	1
00001afa 000502         7448 	.byte	0,5,2
00001afd 00000000*      7449 	.word	.LDWlin158
00001b01 03             7450 	.byte	3
00001b02 75             7451 	.byte	117
00001b03 02             7452 	.byte	2
00001b04 00             7453 	.byte	0
00001b05 01             7454 	.byte	1
00001b06 000502         7455 	.byte	0,5,2
00001b09 00000000*      7456 	.word	.LDWlin159
00001b0d 03             7457 	.byte	3
00001b0e 10             7458 	.byte	16
00001b0f 02             7459 	.byte	2
00001b10 00             7460 	.byte	0
00001b11 01             7461 	.byte	1
00001b12 0b             7462 	.byte	11
00001b13 0b             7463 	.byte	11
00001b14 000502         7464 	.byte	0,5,2
00001b17 00000000*      7465 	.word	.LDWlin160
00001b1b 02             7466 	.byte	2

                                                                      Page 147
                                                              C:\Users\nhuliyap\AppData\Local\Temp\gh_000014o1.s
00001b1c 00             7467 	.byte	0
00001b1d 0b             7468 	.byte	11
00001b1e 1b             7469 	.byte	27
00001b1f 1b             7470 	.byte	27
00001b20 000502         7471 	.byte	0,5,2
00001b23 00000000*      7472 	.word	.LDWlin161
00001b27 0b             7473 	.byte	11
00001b28 02             7474 	.byte	2
00001b29 00             7475 	.byte	0
00001b2a 0b             7476 	.byte	11
00001b2b 02             7477 	.byte	2
00001b2c 00             7478 	.byte	0
00001b2d 0c             7479 	.byte	12
00001b2e 0c             7480 	.byte	12
00001b2f 0b             7481 	.byte	11
00001b30 0b             7482 	.byte	11
00001b31 0b             7483 	.byte	11
00001b32 0b             7484 	.byte	11
00001b33 0b             7485 	.byte	11
00001b34 06             7486 	.byte	6
00001b35 03             7487 	.byte	3
00001b36 52             7488 	.byte	82
00001b37 02             7489 	.byte	2
00001b38 02             7490 	.byte	2
00001b39 01             7491 	.byte	1
00001b3a 03             7492 	.byte	3
00001b3b 2f             7493 	.byte	47
00001b3c 02             7494 	.byte	2
00001b3d 00             7495 	.byte	0
00001b3e 01             7496 	.byte	1
00001b3f 03             7497 	.byte	3
00001b40 7f             7498 	.byte	127
00001b41 02             7499 	.byte	2
00001b42 00             7500 	.byte	0
00001b43 01             7501 	.byte	1
00001b44 03             7502 	.byte	3
00001b45 53             7503 	.byte	83
00001b46 02             7504 	.byte	2
00001b47 06             7505 	.byte	6
00001b48 01             7506 	.byte	1
00001b49 03             7507 	.byte	3
00001b4a 2f             7508 	.byte	47
00001b4b 02             7509 	.byte	2
00001b4c 00             7510 	.byte	0
00001b4d 01             7511 	.byte	1
00001b4e 06             7512 	.byte	6
00001b4f 0c             7513 	.byte	12
00001b50 0b             7514 	.byte	11
00001b51 000502         7515 	.byte	0,5,2
00001b54 00000000*      7516 	.word	.LDWlin162
00001b58 0b             7517 	.byte	11
00001b59 1b             7518 	.byte	27
00001b5a 02             7519 	.byte	2
00001b5b 00             7520 	.byte	0
00001b5c 0b             7521 	.byte	11
00001b5d 000502         7522 	.byte	0,5,2
00001b60 00000000*      7523 	.word	.LDWlin163
00001b64 02             7524 	.byte	2
00001b65 00             7525 	.byte	0
00001b66 0b             7526 	.byte	11
00001b67 000502         7527 	.byte	0,5,2

                                                                      Page 148
                                                              C:\Users\nhuliyap\AppData\Local\Temp\gh_000014o1.s
00001b6a 00000000*      7528 	.word	.LDWlin164
00001b6e 0b             7529 	.byte	11
00001b6f 1b             7530 	.byte	27
00001b70 000502         7531 	.byte	0,5,2
00001b73 00000000*      7532 	.word	.LDWlin165
00001b77 02             7533 	.byte	2
00001b78 00             7534 	.byte	0
00001b79 0b             7535 	.byte	11
00001b7a 000502         7536 	.byte	0,5,2
00001b7d 00000000*      7537 	.word	.LDWlin166
00001b81 0b             7538 	.byte	11
00001b82 03             7539 	.byte	3
00001b83 0a             7540 	.byte	10
00001b84 02             7541 	.byte	2
00001b85 02             7542 	.byte	2
00001b86 01             7543 	.byte	1
00001b87 000502         7544 	.byte	0,5,2
00001b8a 00000000*      7545 	.word	.LDWlin167
00001b8e 03             7546 	.byte	3
00001b8f 75             7547 	.byte	117
00001b90 02             7548 	.byte	2
00001b91 00             7549 	.byte	0
00001b92 01             7550 	.byte	1
00001b93 06             7551 	.byte	6
00001b94 000502         7552 	.byte	0,5,2
00001b97 00000000*      7553 	.word	.LDWlin168
00001b9b 03             7554 	.byte	3
00001b9c 62             7555 	.byte	98
00001b9d 02             7556 	.byte	2
00001b9e 00             7557 	.byte	0
00001b9f 01             7558 	.byte	1
00001ba0 06             7559 	.byte	6
00001ba1 03             7560 	.byte	3
00001ba2 2b             7561 	.byte	43
00001ba3 02             7562 	.byte	2
00001ba4 00             7563 	.byte	0
00001ba5 01             7564 	.byte	1
00001ba6 0b             7565 	.byte	11
00001ba7 06             7566 	.byte	6
00001ba8 000502         7567 	.byte	0,5,2
00001bab 00000000*      7568 	.word	.LDWlin169
00001baf 03             7569 	.byte	3
00001bb0 55             7570 	.byte	85
00001bb1 02             7571 	.byte	2
00001bb2 00             7572 	.byte	0
00001bb3 01             7573 	.byte	1
00001bb4 06             7574 	.byte	6
00001bb5 03             7575 	.byte	3
00001bb6 2c             7576 	.byte	44
00001bb7 02             7577 	.byte	2
00001bb8 00             7578 	.byte	0
00001bb9 01             7579 	.byte	1
00001bba 000502         7580 	.byte	0,5,2
00001bbd 00000000*      7581 	.word	.LDWlin170
00001bc1 0b             7582 	.byte	11
00001bc2 02             7583 	.byte	2
00001bc3 00             7584 	.byte	0
00001bc4 0b             7585 	.byte	11
00001bc5 02             7586 	.byte	2
00001bc6 00             7587 	.byte	0
00001bc7 0b             7588 	.byte	11

                                                                      Page 149
                                                              C:\Users\nhuliyap\AppData\Local\Temp\gh_000014o1.s
00001bc8 02             7589 	.byte	2
00001bc9 04             7590 	.byte	4
00001bca 000101         7591 	.byte	0,1,1
                        7592 	.section	.debug_info
                        7593 .LDW_4dabaf8:
00001ded 0f             7594 	.byte	15
00001dee 4368616e6e65   7595 	.strz	"Channel"
00001df4 6c00 
00001df6 ae08           7596 	.byte	174,8
00001df8 60             7597 	.byte	96
00001df9 01             7598 	.byte	1
00001dfa 00000000*      7599 	.word	.LDW_4d4b328
00001dfe 00             7600 	.byte	0
00001dff 016b           7601 	.byte	1,107
                        7602 
                        7603 .LDW_40d54b0:
00001e01 1d             7604 	.byte	29
00001e02 00000000*      7605 	.word	.LDW42
00001e06 00000000*      7606 	.word	.LDW52
                        7607 
                        7608 .LDW_4dab100:
00001e0a 04             7609 	.byte	4
00001e0b 43616e534d5f   7610 	.strz	"CanSM_TxTimeoutException_en"
00001e11 547854696d65 
00001e17 6f7574457863 
00001e1d 657074696f6e 
00001e23 5f656e00 
00001e27 af08           7611 	.byte	175,8
00001e29 3b             7612 	.byte	59
00001e2a 01             7613 	.byte	1
00001e2b 00000000*      7614 	.word	.LDW_4dab050
00001e2f 00             7615 	.byte	0
00001e30 00             7616 	.byte	0
00001e31 016d           7617 	.byte	1,109
                        7618 
                        7619 .LDW_4dab158:
00001e33 04             7620 	.byte	4
00001e34 43616e534d5f   7621 	.strz	"CanSM_Ctrl_index_u8"
00001e3a 4374726c5f69 
00001e40 6e6465785f75 
00001e46 3800 
00001e48 b008           7622 	.byte	176,8
00001e4a 1a             7623 	.byte	26
00001e4b 01             7624 	.byte	1
00001e4c 00000000*      7625 	.word	.LDW_4c40190
00001e50 00             7626 	.byte	0
00001e51 00             7627 	.byte	0
00001e52 016d           7628 	.byte	1,109
                        7629 
                        7630 .LDW_4dab890:
00001e54 04             7631 	.byte	4
00001e55 43616e534d5f   7632 	.strz	"CanSM_ControllerId_u8"
00001e5b 436f6e74726f 
00001e61 6c6c65724964 
00001e67 5f753800 
00001e6b b108           7633 	.byte	177,8
00001e6d 1a             7634 	.byte	26
00001e6e 01             7635 	.byte	1
00001e6f 00000000*      7636 	.word	.LDW_4c40190
00001e73 00             7637 	.byte	0
00001e74 00             7638 	.byte	0

                                                                      Page 150
                                                              C:\Users\nhuliyap\AppData\Local\Temp\gh_000014o1.s
00001e75 0156           7639 	.byte	1,86
                        7640 
00001e77 00             7641 	.byte	0
                        7642 
00001e78 00             7643 	.byte	0
                        7644 
                        7645 .LDW_4d3ca60:
00001e79 13             7646 	.byte	19
00001e7a 43616e534d5f   7647 	.strz	"CanSM_WakeUpValidation_StateMachine"
00001e80 57616b655570 
00001e86 56616c696461 
00001e8c 74696f6e5f53 
00001e92 746174654d61 
00001e98 6368696e6500 
00001e9e cb09           7648 	.byte	203,9
00001ea0 18             7649 	.byte	24
00001ea1 01             7650 	.byte	1
00001ea2 00000000*      7651 	.word	_CanSM_WakeUpValidation_StateMachine
00001ea6 00000000*      7652 	.word	___ghs_eofn_CanSM_WakeUpValidation_StateMachine
00001eaa 0153           7653 	.byte	1,83
00001eac 828080e00b     7654 	.byte	130,128,128,224,11
00001eb1 14             7655 	.byte	20
00001eb2 03             7656 	.byte	3
00001eb3 14             7657 	.byte	20
00001eb4 00             7658 	.byte	0
00001eb5 00             7659 	.byte	0
00001eb6 00             7660 	.byte	0
00001eb7 01             7661 	.byte	1
00001eb8 01             7662 	.byte	1
00001eb9 00             7663 	.byte	0
00001eba 01             7664 	.byte	1
                        7665 
                        7666 	.section	.debug_frame
                        7667 .LDW_4f15a98:
000001c8 00000000*      7668 	.word	.LDW_unq_14-.LDW_unq_13
                        7669 .LDW_unq_13:
000001cc 00000000*      7670 	.word	.LDW_4ea4258
000001d0 00000000*      7671 	.word	_CanSM_WakeUpValidation_StateMachine
000001d4 00000000*      7672 	.word	___ghs_eofn_CanSM_WakeUpValidation_StateMachine-_CanSM_WakeUpValidation_StateMachine
000001d8 48             7673 	.byte	72
000001d9 9f             7674 	.byte	159
000001da 00             7675 	.byte	0
000001db 40             7676 	.byte	64
000001dc 9d             7677 	.byte	157
000001dd 04             7678 	.byte	4
000001de 40             7679 	.byte	64
000001df 9c             7680 	.byte	156
000001e0 08             7681 	.byte	8
000001e1 40             7682 	.byte	64
000001e2 9b             7683 	.byte	155
000001e3 0c             7684 	.byte	12
000001e4 40             7685 	.byte	64
000001e5 9a             7686 	.byte	154
000001e6 10             7687 	.byte	16
000001e7 01             7688 	.byte	1
000001e8 00000000*      7689 	.word	.LDW72
                        7690 .LDW_unq_14:
                        7691 	.section	.debug_line
00001bcd 000502         7692 	.byte	0,5,2
00001bd0 00000000*      7693 	.word	_CanSM_WakeUpValidation_StateMachine
00001bd4 03             7694 	.byte	3

                                                                      Page 151
                                                              C:\Users\nhuliyap\AppData\Local\Temp\gh_000014o1.s
00001bd5 ca09           7695 	.byte	202,9
00001bd7 02             7696 	.byte	2
00001bd8 00             7697 	.byte	0
00001bd9 01             7698 	.byte	1
00001bda 06             7699 	.byte	6
00001bdb 2d             7700 	.byte	45
00001bdc 000502         7701 	.byte	0,5,2
00001bdf 00000000*      7702 	.word	.LDWlin171
00001be3 03             7703 	.byte	3
00001be4 7f             7704 	.byte	127
00001be5 02             7705 	.byte	2
00001be6 00             7706 	.byte	0
00001be7 01             7707 	.byte	1
00001be8 000502         7708 	.byte	0,5,2
00001beb 00000000*      7709 	.word	.LDWlin172
00001bef 0b             7710 	.byte	11
00001bf0 0b             7711 	.byte	11
00001bf1 000502         7712 	.byte	0,5,2
00001bf4 00000000*      7713 	.word	.LDWlin173
00001bf8 0b             7714 	.byte	11
00001bf9 0b             7715 	.byte	11
00001bfa 000502         7716 	.byte	0,5,2
00001bfd 00000000*      7717 	.word	.LDWlin174
00001c01 02             7718 	.byte	2
00001c02 00             7719 	.byte	0
00001c03 0b             7720 	.byte	11
00001c04 000502         7721 	.byte	0,5,2
00001c07 00000000*      7722 	.word	.LDWlin175
00001c0b 02             7723 	.byte	2
00001c0c 00             7724 	.byte	0
00001c0d 0b             7725 	.byte	11
00001c0e 1b             7726 	.byte	27
00001c0f 02             7727 	.byte	2
00001c10 00             7728 	.byte	0
00001c11 0b             7729 	.byte	11
00001c12 23             7730 	.byte	35
00001c13 1c             7731 	.byte	28
00001c14 000502         7732 	.byte	0,5,2
00001c17 00000000*      7733 	.word	.LDWlin176
00001c1b 0b             7734 	.byte	11
00001c1c 0b             7735 	.byte	11
00001c1d 0b             7736 	.byte	11
00001c1e 000502         7737 	.byte	0,5,2
00001c21 00000000*      7738 	.word	.LDWlin177
00001c25 02             7739 	.byte	2
00001c26 00             7740 	.byte	0
00001c27 0b             7741 	.byte	11
00001c28 13             7742 	.byte	19
00001c29 2b             7743 	.byte	43
00001c2a 000502         7744 	.byte	0,5,2
00001c2d 00000000*      7745 	.word	.LDWlin178
00001c31 0b             7746 	.byte	11
00001c32 02             7747 	.byte	2
00001c33 00             7748 	.byte	0
00001c34 0b             7749 	.byte	11
00001c35 02             7750 	.byte	2
00001c36 00             7751 	.byte	0
00001c37 0c             7752 	.byte	12
00001c38 0c             7753 	.byte	12
00001c39 0b             7754 	.byte	11
00001c3a 000502         7755 	.byte	0,5,2

                                                                      Page 152
                                                              C:\Users\nhuliyap\AppData\Local\Temp\gh_000014o1.s
00001c3d 00000000*      7756 	.word	.LDWlin179
00001c41 02             7757 	.byte	2
00001c42 00             7758 	.byte	0
00001c43 0b             7759 	.byte	11
00001c44 14             7760 	.byte	20
00001c45 03             7761 	.byte	3
00001c46 7f             7762 	.byte	127
00001c47 02             7763 	.byte	2
00001c48 06             7764 	.byte	6
00001c49 01             7765 	.byte	1
00001c4a 25             7766 	.byte	37
00001c4b 000502         7767 	.byte	0,5,2
00001c4e 00000000*      7768 	.word	.LDWlin180
00001c52 0b             7769 	.byte	11
00001c53 0b             7770 	.byte	11
00001c54 0b             7771 	.byte	11
00001c55 000502         7772 	.byte	0,5,2
00001c58 00000000*      7773 	.word	.LDWlin181
00001c5c 02             7774 	.byte	2
00001c5d 00             7775 	.byte	0
00001c5e 0b             7776 	.byte	11
00001c5f 1b             7777 	.byte	27
00001c60 1b             7778 	.byte	27
00001c61 000502         7779 	.byte	0,5,2
00001c64 00000000*      7780 	.word	.LDWlin182
00001c68 0b             7781 	.byte	11
00001c69 02             7782 	.byte	2
00001c6a 00             7783 	.byte	0
00001c6b 0b             7784 	.byte	11
00001c6c 02             7785 	.byte	2
00001c6d 00             7786 	.byte	0
00001c6e 0c             7787 	.byte	12
00001c6f 0c             7788 	.byte	12
00001c70 0b             7789 	.byte	11
00001c71 000502         7790 	.byte	0,5,2
00001c74 00000000*      7791 	.word	.LDWlin183
00001c78 02             7792 	.byte	2
00001c79 00             7793 	.byte	0
00001c7a 0b             7794 	.byte	11
00001c7b 13             7795 	.byte	19
00001c7c 1b             7796 	.byte	27
00001c7d 1c             7797 	.byte	28
00001c7e 000502         7798 	.byte	0,5,2
00001c81 00000000*      7799 	.word	.LDWlin184
00001c85 0b             7800 	.byte	11
00001c86 0b             7801 	.byte	11
00001c87 0b             7802 	.byte	11
00001c88 000502         7803 	.byte	0,5,2
00001c8b 00000000*      7804 	.word	.LDWlin185
00001c8f 02             7805 	.byte	2
00001c90 00             7806 	.byte	0
00001c91 0b             7807 	.byte	11
00001c92 13             7808 	.byte	19
00001c93 2b             7809 	.byte	43
00001c94 000502         7810 	.byte	0,5,2
00001c97 00000000*      7811 	.word	.LDWlin186
00001c9b 03             7812 	.byte	3
00001c9c 0f             7813 	.byte	15
00001c9d 02             7814 	.byte	2
00001c9e 00             7815 	.byte	0
00001c9f 01             7816 	.byte	1

                                                                      Page 153
                                                              C:\Users\nhuliyap\AppData\Local\Temp\gh_000014o1.s
00001ca0 000502         7817 	.byte	0,5,2
00001ca3 00000000*      7818 	.word	.LDWlin187
00001ca7 0b             7819 	.byte	11
00001ca8 000502         7820 	.byte	0,5,2
00001cab 00000000*      7821 	.word	.LDWlin188
00001caf 0b             7822 	.byte	11
00001cb0 06             7823 	.byte	6
00001cb1 03             7824 	.byte	3
00001cb2 0a             7825 	.byte	10
00001cb3 02             7826 	.byte	2
00001cb4 00             7827 	.byte	0
00001cb5 01             7828 	.byte	1
00001cb6 06             7829 	.byte	6
00001cb7 0c             7830 	.byte	12
00001cb8 0b             7831 	.byte	11
00001cb9 0b             7832 	.byte	11
00001cba 000502         7833 	.byte	0,5,2
00001cbd 00000000*      7834 	.word	.LDWlin189
00001cc1 03             7835 	.byte	3
00001cc2 62             7836 	.byte	98
00001cc3 02             7837 	.byte	2
00001cc4 00             7838 	.byte	0
00001cc5 01             7839 	.byte	1
00001cc6 02             7840 	.byte	2
00001cc7 00             7841 	.byte	0
00001cc8 0b             7842 	.byte	11
00001cc9 02             7843 	.byte	2
00001cca 00             7844 	.byte	0
00001ccb 0c             7845 	.byte	12
00001ccc 0c             7846 	.byte	12
00001ccd 0b             7847 	.byte	11
00001cce 0b             7848 	.byte	11
00001ccf 0b             7849 	.byte	11
00001cd0 0b             7850 	.byte	11
00001cd1 0b             7851 	.byte	11
00001cd2 1b             7852 	.byte	27
00001cd3 1c             7853 	.byte	28
00001cd4 000502         7854 	.byte	0,5,2
00001cd7 00000000*      7855 	.word	.LDWlin190
00001cdb 03             7856 	.byte	3
00001cdc 12             7857 	.byte	18
00001cdd 02             7858 	.byte	2
00001cde 00             7859 	.byte	0
00001cdf 01             7860 	.byte	1
00001ce0 02             7861 	.byte	2
00001ce1 00             7862 	.byte	0
00001ce2 0b             7863 	.byte	11
00001ce3 02             7864 	.byte	2
00001ce4 00             7865 	.byte	0
00001ce5 0b             7866 	.byte	11
00001ce6 000502         7867 	.byte	0,5,2
00001ce9 00000000*      7868 	.word	.LDWlin191
00001ced 02             7869 	.byte	2
00001cee 00             7870 	.byte	0
00001cef 0b             7871 	.byte	11
00001cf0 000502         7872 	.byte	0,5,2
00001cf3 00000000*      7873 	.word	.LDWlin192
00001cf7 02             7874 	.byte	2
00001cf8 00             7875 	.byte	0
00001cf9 0b             7876 	.byte	11
00001cfa 1b             7877 	.byte	27

                                                                      Page 154
                                                              C:\Users\nhuliyap\AppData\Local\Temp\gh_000014o1.s
00001cfb 06             7878 	.byte	6
00001cfc 23             7879 	.byte	35
00001cfd 03             7880 	.byte	3
00001cfe 07             7881 	.byte	7
00001cff 02             7882 	.byte	2
00001d00 00             7883 	.byte	0
00001d01 01             7884 	.byte	1
00001d02 06             7885 	.byte	6
00001d03 0b             7886 	.byte	11
00001d04 02             7887 	.byte	2
00001d05 00             7888 	.byte	0
00001d06 0b             7889 	.byte	11
00001d07 02             7890 	.byte	2
00001d08 00             7891 	.byte	0
00001d09 0b             7892 	.byte	11
00001d0a 000502         7893 	.byte	0,5,2
00001d0d 00000000*      7894 	.word	.LDWlin193
00001d11 02             7895 	.byte	2
00001d12 00             7896 	.byte	0
00001d13 0b             7897 	.byte	11
00001d14 000502         7898 	.byte	0,5,2
00001d17 00000000*      7899 	.word	.LDWlin194
00001d1b 0b             7900 	.byte	11
00001d1c 1b             7901 	.byte	27
00001d1d 02             7902 	.byte	2
00001d1e 00             7903 	.byte	0
00001d1f 0b             7904 	.byte	11
00001d20 000502         7905 	.byte	0,5,2
00001d23 00000000*      7906 	.word	.LDWlin195
00001d27 02             7907 	.byte	2
00001d28 00             7908 	.byte	0
00001d29 0b             7909 	.byte	11
00001d2a 000502         7910 	.byte	0,5,2
00001d2d 00000000*      7911 	.word	.LDWlin196
00001d31 0b             7912 	.byte	11
00001d32 1b             7913 	.byte	27
00001d33 000502         7914 	.byte	0,5,2
00001d36 00000000*      7915 	.word	.LDWlin197
00001d3a 02             7916 	.byte	2
00001d3b 00             7917 	.byte	0
00001d3c 0b             7918 	.byte	11
00001d3d 1b             7919 	.byte	27
00001d3e 1b             7920 	.byte	27
00001d3f 02             7921 	.byte	2
00001d40 00             7922 	.byte	0
00001d41 0b             7923 	.byte	11
00001d42 02             7924 	.byte	2
00001d43 00             7925 	.byte	0
00001d44 0b             7926 	.byte	11
00001d45 02             7927 	.byte	2
00001d46 04             7928 	.byte	4
00001d47 000101         7929 	.byte	0,1,1
                        7930 	.section	.debug_info
                        7931 .LDW_4dab1b0:
00001ebb 0f             7932 	.byte	15
00001ebc 6e6574776f72   7933 	.strz	"network"
00001ec2 6b00 
00001ec4 cb09           7934 	.byte	203,9
00001ec6 5e             7935 	.byte	94
00001ec7 01             7936 	.byte	1
00001ec8 00000000*      7937 	.word	.LDW_4d4b328

                                                                      Page 155
                                                              C:\Users\nhuliyap\AppData\Local\Temp\gh_000014o1.s
00001ecc 00             7938 	.byte	0
00001ecd 016b           7939 	.byte	1,107
                        7940 
                        7941 .LDW_40d5570:
00001ecf 1d             7942 	.byte	29
00001ed0 00000000*      7943 	.word	.LDW62
00001ed4 00000000*      7944 	.word	.LDW72
                        7945 
                        7946 .LDW_4dab6d8:
00001ed8 04             7947 	.byte	4
00001ed9 43616e534d5f   7948 	.strz	"CanSM_WakeUpValidation_Substates"
00001edf 57616b655570 
00001ee5 56616c696461 
00001eeb 74696f6e5f53 
00001ef1 756273746174 
00001ef7 657300 
00001efa cc09           7949 	.byte	204,9
00001efc 39             7950 	.byte	57
00001efd 01             7951 	.byte	1
00001efe 00000000*      7952 	.word	.LDW_4dab998
00001f02 00             7953 	.byte	0
00001f03 00             7954 	.byte	0
00001f04 0162           7955 	.byte	1,98
                        7956 
00001f06 00             7957 	.byte	0
                        7958 
00001f07 00             7959 	.byte	0
                        7960 
                        7961 .LDW_4d3caf8:
00001f08 13             7962 	.byte	19
00001f09 43616e534d5f   7963 	.strz	"CanSM_PreNoCom_Exit"
00001f0f 5072654e6f43 
00001f15 6f6d5f457869 
00001f1b 7400 
00001f1d c00a           7964 	.byte	192,10
00001f1f 18             7965 	.byte	24
00001f20 01             7966 	.byte	1
00001f21 00000000*      7967 	.word	_CanSM_PreNoCom_Exit
00001f25 00000000*      7968 	.word	___ghs_eofn_CanSM_PreNoCom_Exit
00001f29 0153           7969 	.byte	1,83
00001f2b 8280808008     7970 	.byte	130,128,128,128,8
00001f30 04             7971 	.byte	4
00001f31 03             7972 	.byte	3
00001f32 04             7973 	.byte	4
00001f33 00             7974 	.byte	0
00001f34 00             7975 	.byte	0
00001f35 00             7976 	.byte	0
00001f36 01             7977 	.byte	1
00001f37 01             7978 	.byte	1
00001f38 00             7979 	.byte	0
00001f39 01             7980 	.byte	1
                        7981 
                        7982 	.section	.debug_frame
                        7983 .LDW_4f15998:
000001ec 00000000*      7984 	.word	.LDW_unq_16-.LDW_unq_15
                        7985 .LDW_unq_15:
000001f0 00000000*      7986 	.word	.LDW_4ea4258
000001f4 00000000*      7987 	.word	_CanSM_PreNoCom_Exit
000001f8 00000000*      7988 	.word	___ghs_eofn_CanSM_PreNoCom_Exit-_CanSM_PreNoCom_Exit
000001fc 44             7989 	.byte	68
000001fd 9f             7990 	.byte	159

                                                                      Page 156
                                                              C:\Users\nhuliyap\AppData\Local\Temp\gh_000014o1.s
000001fe 00             7991 	.byte	0
000001ff 01             7992 	.byte	1
00000200 00000000*      7993 	.word	.LDW92
                        7994 .LDW_unq_16:
                        7995 	.section	.debug_line
00001d4a 000502         7996 	.byte	0,5,2
00001d4d 00000000*      7997 	.word	_CanSM_PreNoCom_Exit
00001d51 03             7998 	.byte	3
00001d52 bf0a           7999 	.byte	191,10
00001d54 02             8000 	.byte	2
00001d55 00             8001 	.byte	0
00001d56 01             8002 	.byte	1
00001d57 06             8003 	.byte	6
00001d58 03             8004 	.byte	3
00001d59 04             8005 	.byte	4
00001d5a 02             8006 	.byte	2
00001d5b 08             8007 	.byte	8
00001d5c 01             8008 	.byte	1
00001d5d 000502         8009 	.byte	0,5,2
00001d60 00000000*      8010 	.word	.LDWlin198
00001d64 03             8011 	.byte	3
00001d65 7e             8012 	.byte	126
00001d66 02             8013 	.byte	2
00001d67 00             8014 	.byte	0
00001d68 01             8015 	.byte	1
00001d69 000502         8016 	.byte	0,5,2
00001d6c 00000000*      8017 	.word	.LDWlin199
00001d70 0d             8018 	.byte	13
00001d71 000502         8019 	.byte	0,5,2
00001d74 00000000*      8020 	.word	.LDWlin200
00001d78 0c             8021 	.byte	12
00001d79 000502         8022 	.byte	0,5,2
00001d7c 00000000*      8023 	.word	.LDWlin201
00001d80 03             8024 	.byte	3
00001d81 7e             8025 	.byte	126
00001d82 02             8026 	.byte	2
00001d83 00             8027 	.byte	0
00001d84 01             8028 	.byte	1
00001d85 0b             8029 	.byte	11
00001d86 000502         8030 	.byte	0,5,2
00001d89 00000000*      8031 	.word	.LDWlin202
00001d8d 0c             8032 	.byte	12
00001d8e 0b             8033 	.byte	11
00001d8f 0b             8034 	.byte	11
00001d90 1b             8035 	.byte	27
00001d91 02             8036 	.byte	2
00001d92 00             8037 	.byte	0
00001d93 0b             8038 	.byte	11
00001d94 02             8039 	.byte	2
00001d95 04             8040 	.byte	4
00001d96 000101         8041 	.byte	0,1,1
                        8042 	.section	.debug_info
                        8043 .LDW_4dab730:
00001f3a 0f             8044 	.byte	15
00001f3b 6e6574776f72   8045 	.strz	"network"
00001f41 6b00 
00001f43 c00a           8046 	.byte	192,10
00001f45 4e             8047 	.byte	78
00001f46 01             8048 	.byte	1
00001f47 00000000*      8049 	.word	.LDW_4d4b328
00001f4b 00             8050 	.byte	0

                                                                      Page 157
                                                              C:\Users\nhuliyap\AppData\Local\Temp\gh_000014o1.s
00001f4c 0156           8051 	.byte	1,86
                        8052 
                        8053 .LDW_40d5630:
00001f4e 1d             8054 	.byte	29
00001f4f 00000000*      8055 	.word	.LDW82
00001f53 00000000*      8056 	.word	.LDW92
                        8057 
                        8058 .LDW_4dab2b8:
00001f57 05             8059 	.byte	5
00001f58 43616e534d5f   8060 	.strz	"CanSM_BswM_Mode_en"
00001f5e 4273774d5f4d 
00001f64 6f64655f656e 
00001f6a 00 
00001f6b c10a           8061 	.byte	193,10
00001f6d 2f             8062 	.byte	47
00001f6e 01             8063 	.byte	1
00001f6f 00000000*      8064 	.word	.LDW_40dd2b0
00001f73 00             8065 	.byte	0
00001f74 00             8066 	.byte	0
                        8067 
00001f75 00             8068 	.byte	0
                        8069 
00001f76 00             8070 	.byte	0
                        8071 
                        8072 .LDW_4d3c178:
00001f77 13             8073 	.byte	19
00001f78 43616e534d5f   8074 	.strz	"CanSM_BOR_SilentCom_Exit"
00001f7e 424f525f5369 
00001f84 6c656e74436f 
00001f8a 6d5f45786974 
00001f90 00 
00001f91 ce0a           8075 	.byte	206,10
00001f93 18             8076 	.byte	24
00001f94 01             8077 	.byte	1
00001f95 00000000*      8078 	.word	_CanSM_BOR_SilentCom_Exit
00001f99 00000000*      8079 	.word	___ghs_eofn_CanSM_BOR_SilentCom_Exit
00001f9d 0153           8080 	.byte	1,83
00001f9f 828080800b     8081 	.byte	130,128,128,128,11
00001fa4 0c             8082 	.byte	12
00001fa5 03             8083 	.byte	3
00001fa6 10             8084 	.byte	16
00001fa7 00             8085 	.byte	0
00001fa8 00             8086 	.byte	0
00001fa9 00             8087 	.byte	0
00001faa 01             8088 	.byte	1
00001fab 01             8089 	.byte	1
00001fac 00             8090 	.byte	0
00001fad 01             8091 	.byte	1
                        8092 
                        8093 	.section	.debug_frame
                        8094 .LDW_4f15f58:
00000204 00000000*      8095 	.word	.LDW_unq_18-.LDW_unq_17
                        8096 .LDW_unq_17:
00000208 00000000*      8097 	.word	.LDW_4ea4258
0000020c 00000000*      8098 	.word	_CanSM_BOR_SilentCom_Exit
00000210 00000000*      8099 	.word	___ghs_eofn_CanSM_BOR_SilentCom_Exit-_CanSM_BOR_SilentCom_Exit
00000214 44             8100 	.byte	68
00000215 9f             8101 	.byte	159
00000216 03             8102 	.byte	3
00000217 40             8103 	.byte	64
00000218 9d             8104 	.byte	157

                                                                      Page 158
                                                              C:\Users\nhuliyap\AppData\Local\Temp\gh_000014o1.s
00000219 07             8105 	.byte	7
0000021a 40             8106 	.byte	64
0000021b 9c             8107 	.byte	156
0000021c 0b             8108 	.byte	11
0000021d 01             8109 	.byte	1
0000021e 00000000*      8110 	.word	.LDW13
00000222 00             8111 	.byte	0
00000223 00             8112 	.byte	0
                        8113 .LDW_unq_18:
                        8114 	.section	.debug_line
00001d99 000502         8115 	.byte	0,5,2
00001d9c 00000000*      8116 	.word	_CanSM_BOR_SilentCom_Exit
00001da0 03             8117 	.byte	3
00001da1 cd0a           8118 	.byte	205,10
00001da3 02             8119 	.byte	2
00001da4 00             8120 	.byte	0
00001da5 01             8121 	.byte	1
00001da6 06             8122 	.byte	6
00001da7 03             8123 	.byte	3
00001da8 09             8124 	.byte	9
00001da9 02             8125 	.byte	2
00001daa 04             8126 	.byte	4
00001dab 01             8127 	.byte	1
00001dac 000502         8128 	.byte	0,5,2
00001daf 00000000*      8129 	.word	.LDWlin203
00001db3 03             8130 	.byte	3
00001db4 7b             8131 	.byte	123
00001db5 02             8132 	.byte	2
00001db6 00             8133 	.byte	0
00001db7 01             8134 	.byte	1
00001db8 000502         8135 	.byte	0,5,2
00001dbb 00000000*      8136 	.word	.LDWlin204
00001dbf 0b             8137 	.byte	11
00001dc0 000502         8138 	.byte	0,5,2
00001dc3 00000000*      8139 	.word	.LDWlin205
00001dc7 0b             8140 	.byte	11
00001dc8 000502         8141 	.byte	0,5,2
00001dcb 00000000*      8142 	.word	.LDWlin206
00001dcf 0b             8143 	.byte	11
00001dd0 000502         8144 	.byte	0,5,2
00001dd3 00000000*      8145 	.word	.LDWlin207
00001dd7 0b             8146 	.byte	11
00001dd8 000502         8147 	.byte	0,5,2
00001ddb 00000000*      8148 	.word	.LDWlin208
00001ddf 0b             8149 	.byte	11
00001de0 0b             8150 	.byte	11
00001de1 000502         8151 	.byte	0,5,2
00001de4 00000000*      8152 	.word	.LDWlin209
00001de8 0b             8153 	.byte	11
00001de9 000502         8154 	.byte	0,5,2
00001dec 00000000*      8155 	.word	.LDWlin210
00001df0 0b             8156 	.byte	11
00001df1 06             8157 	.byte	6
00001df2 03             8158 	.byte	3
00001df3 0a             8159 	.byte	10
00001df4 02             8160 	.byte	2
00001df5 00             8161 	.byte	0
00001df6 01             8162 	.byte	1
00001df7 06             8163 	.byte	6
00001df8 0c             8164 	.byte	12
00001df9 0b             8165 	.byte	11

                                                                      Page 159
                                                              C:\Users\nhuliyap\AppData\Local\Temp\gh_000014o1.s
00001dfa 0b             8166 	.byte	11
00001dfb 000502         8167 	.byte	0,5,2
00001dfe 00000000*      8168 	.word	.LDWlin211
00001e02 0b             8169 	.byte	11
00001e03 02             8170 	.byte	2
00001e04 00             8171 	.byte	0
00001e05 0b             8172 	.byte	11
00001e06 0b             8173 	.byte	11
00001e07 0c             8174 	.byte	12
00001e08 000502         8175 	.byte	0,5,2
00001e0b 00000000*      8176 	.word	.LDWlin212
00001e0f 0d             8177 	.byte	13
00001e10 03             8178 	.byte	3
00001e11 7e             8179 	.byte	126
00001e12 02             8180 	.byte	2
00001e13 04             8181 	.byte	4
00001e14 01             8182 	.byte	1
00001e15 000502         8183 	.byte	0,5,2
00001e18 00000000*      8184 	.word	.LDWlin213
00001e1c 0b             8185 	.byte	11
00001e1d 000502         8186 	.byte	0,5,2
00001e20 00000000*      8187 	.word	.LDWlin214
00001e24 0c             8188 	.byte	12
00001e25 02             8189 	.byte	2
00001e26 00             8190 	.byte	0
00001e27 0b             8191 	.byte	11
00001e28 02             8192 	.byte	2
00001e29 04             8193 	.byte	4
00001e2a 000101         8194 	.byte	0,1,1
                        8195 	.section	.debug_info
                        8196 .LDW_4dab208:
00001fae 0f             8197 	.byte	15
00001faf 6e6574776f72   8198 	.strz	"network"
00001fb5 6b00 
00001fb7 ce0a           8199 	.byte	206,10
00001fb9 53             8200 	.byte	83
00001fba 01             8201 	.byte	1
00001fbb 00000000*      8202 	.word	.LDW_4d4b328
00001fbf 00             8203 	.byte	0
00001fc0 0156           8204 	.byte	1,86
                        8205 
                        8206 .LDW_40d51b0:
00001fc2 1d             8207 	.byte	29
00001fc3 00000000*      8208 	.word	.LDW03
00001fc7 00000000*      8209 	.word	.LDW13
                        8210 
                        8211 .LDW_4dab418:
00001fcb 04             8212 	.byte	4
00001fcc 43616e534d5f   8213 	.strz	"CanSM_NetworkConf_ps"
00001fd2 4e6574776f72 
00001fd8 6b436f6e665f 
00001fde 707300 
00001fe1 cf0a           8214 	.byte	207,10
00001fe3 3b             8215 	.byte	59
00001fe4 01             8216 	.byte	1
00001fe5 00000000*      8217 	.word	.LDW_4e00700
00001fe9 00             8218 	.byte	0
00001fea 00             8219 	.byte	0
00001feb 016e           8220 	.byte	1,110
                        8221 
                        8222 .LDW_4dab9f0:

                                                                      Page 160
                                                              C:\Users\nhuliyap\AppData\Local\Temp\gh_000014o1.s
00001fed 05             8223 	.byte	5
00001fee 43616e534d5f   8224 	.strz	"CanSM_BswM_Mode_en"
00001ff4 4273774d5f4d 
00001ffa 6f64655f656e 
00002000 00 
00002001 d00a           8225 	.byte	208,10
00002003 2f             8226 	.byte	47
00002004 01             8227 	.byte	1
00002005 00000000*      8228 	.word	.LDW_40dd2b0
00002009 00             8229 	.byte	0
0000200a 00             8230 	.byte	0
                        8231 
                        8232 .LDW_4dab940:
0000200b 04             8233 	.byte	4
0000200c 43616e534d5f   8234 	.strz	"CanSM_ComM_Mode_uo"
00002012 436f6d4d5f4d 
00002018 6f64655f756f 
0000201e 00 
0000201f d10a           8235 	.byte	209,10
00002021 22             8236 	.byte	34
00002022 01             8237 	.byte	1
00002023 00000000*      8238 	.word	.LDW_40ddb48
00002027 00             8239 	.byte	0
00002028 00             8240 	.byte	0
00002029 0273           8241 	.byte	2,115
0000202b 03             8242 	.byte	3
                        8243 
0000202c 00             8244 	.byte	0
                        8245 
0000202d 00             8246 	.byte	0
                        8247 
0000202e 00             8248 	.byte	0
                        8249 
                        8250 	.section	.debug_line
                        8251 .Ldw_line_end:
                        8252 	.section	.debug_macinfo
00000000 01             8253 	.byte	1
00000001 00             8254 	.byte	0
00000002 5f5f4748535f   8255 	.strz	"__GHS_VERSION_NUMBER 201517"
00000008 56455253494f 
0000000e 4e5f4e554d42 
00000014 455220323031 
0000001a 35313700 
0000001e 01             8256 	.byte	1
0000001f 00             8257 	.byte	0
00000020 5f5f6768735f   8258 	.strz	"__ghs__ 1"
00000026 5f203100 
0000002a 01             8259 	.byte	1
0000002b 00             8260 	.byte	0
0000002c 5f5f56383030   8261 	.strz	"__V800_registermode 32"
00000032 5f7265676973 
00000038 7465726d6f64 
0000003e 6520333200 
00000043 01             8262 	.byte	1
00000044 00             8263 	.byte	0
00000045 5f5f4c4c4f4e   8264 	.strz	"__LLONG_BIT 64"
0000004b 475f42495420 
00000051 363400 
00000054 01             8265 	.byte	1
00000055 00             8266 	.byte	0
00000056 4e4f545f5245   8267 	.strz	"NOT_READY_FOR_TESTING_OR_DEPLOYMENT 1"

                                                                      Page 161
                                                              C:\Users\nhuliyap\AppData\Local\Temp\gh_000014o1.s
0000005c 4144595f464f 
00000062 525f54455354 
00000068 494e475f4f52 
0000006e 5f4445504c4f 
00000074 594d454e5420 
0000007a 3100 
0000007c 03             8268 	.byte	3
0000007d 00             8269 	.byte	0
0000007e 01             8270 	.byte	1
0000007f 03             8271 	.byte	3
00000080 01             8272 	.byte	1
00000081 02             8273 	.byte	2
00000082 01             8274 	.byte	1
00000083 02             8275 	.byte	2
00000084 5354445f5459   8276 	.strz	"STD_TYPES_H "
0000008a 5045535f4820 
00000090 00 
00000091 03             8277 	.byte	3
00000092 1c             8278 	.byte	28
00000093 03             8279 	.byte	3
00000094 01             8280 	.byte	1
00000095 3c             8281 	.byte	60
00000096 545255452031   8282 	.strz	"TRUE 1u"
0000009c 7500 
0000009e 01             8283 	.byte	1
0000009f 40             8284 	.byte	64
000000a0 46414c534520   8285 	.strz	"FALSE 0u"
000000a6 307500 
000000a9 04             8286 	.byte	4
000000aa 03             8287 	.byte	3
000000ab 1d             8288 	.byte	29
000000ac 04             8289 	.byte	4
000000ad 03             8290 	.byte	3
000000ae 1b             8291 	.byte	27
000000af 05             8292 	.byte	5
000000b0 03             8293 	.byte	3
000000b1 54             8294 	.byte	84
000000b2 06             8295 	.byte	6
000000b3 01             8296 	.byte	1
000000b4 32             8297 	.byte	50
000000b5 4f535f434f4e   8298 	.strz	"OS_CONST "
000000bb 53542000 
000000bf 01             8299 	.byte	1
000000c0 35             8300 	.byte	53
000000c1 4f535f415050   8301 	.strz	"OS_APPL_CODE "
000000c7 4c5f434f4445 
000000cd 2000 
000000cf 04             8302 	.byte	4
000000d0 04             8303 	.byte	4
000000d1 01             8304 	.byte	1
000000d2 33             8305 	.byte	51
000000d3 4c4f43414c5f   8306 	.strz	"LOCAL_INLINE static inline"
000000d9 494e4c494e45 
000000df 207374617469 
000000e5 6320696e6c69 
000000eb 6e6500 
000000ee 01             8307 	.byte	1
000000ef 34             8308 	.byte	52
000000f0 46554e432872   8309 	.strz	"FUNC(rettype,memclass) rettype"
000000f6 657474797065 
000000fc 2c6d656d636c 

                                                                      Page 162
                                                              C:\Users\nhuliyap\AppData\Local\Temp\gh_000014o1.s
00000102 617373292072 
00000108 657474797065 
0000010e 00 
0000010f 01             8310 	.byte	1
00000110 37             8311 	.byte	55
00000111 503256415228   8312 	.strz	"P2VAR(ptrtype,memclass,ptrclass) ptrtype*"
00000117 707472747970 
0000011d 652c6d656d63 
00000123 6c6173732c70 
00000129 7472636c6173 
0000012f 732920707472 
00000135 747970652a00 
0000013b 01             8313 	.byte	1
0000013c 38             8314 	.byte	56
0000013d 5032434f4e53   8315 	.strz	"P2CONST(ptrtype,memclass,ptrclass) const ptrtype*"
00000143 542870747274 
00000149 7970652c6d65 
0000014f 6d636c617373 
00000155 2c707472636c 
0000015b 617373292063 
00000161 6f6e73742070 
00000167 747274797065 
0000016d 2a00 
0000016f 01             8316 	.byte	1
00000170 39             8317 	.byte	57
00000171 434f4e535450   8318 	.strz	"CONSTP2VAR(ptrtype,memclass,ptrclass) ptrtype *const"
00000177 325641522870 
0000017d 747274797065 
00000183 2c6d656d636c 
00000189 6173732c7074 
0000018f 72636c617373 
00000195 292070747274 
0000019b 797065202a63 
000001a1 6f6e737400 
000001a6 01             8319 	.byte	1
000001a7 3a             8320 	.byte	58
000001a8 434f4e535450   8321 	.strz	"CONSTP2CONST(ptrtype,memclass,ptrclass) const ptrtype *const"
000001ae 32434f4e5354 
000001b4 287074727479 
000001ba 70652c6d656d 
000001c0 636c6173732c 
000001c6 707472636c61 
000001cc 73732920636f 
000001d2 6e7374207074 
000001d8 727479706520 
000001de 2a636f6e7374 
000001e4 00 
000001e5 01             8322 	.byte	1
000001e6 3b             8323 	.byte	59
000001e7 503246554e43   8324 	.strz	"P2FUNC(rettype,ptrclass,fctname) rettype (*fctname)"
000001ed 287265747479 
000001f3 70652c707472 
000001f9 636c6173732c 
000001ff 6663746e616d 
00000205 652920726574 
0000020b 747970652028 
00000211 2a6663746e61 
00000217 6d652900 
0000021b 01             8325 	.byte	1
0000021c 3d             8326 	.byte	61
0000021d 434f4e535428   8327 	.strz	"CONST(type,memclass) const type"

                                                                      Page 163
                                                              C:\Users\nhuliyap\AppData\Local\Temp\gh_000014o1.s
00000223 747970652c6d 
00000229 656d636c6173 
0000022f 732920636f6e 
00000235 737420747970 
0000023b 6500 
0000023d 01             8328 	.byte	1
0000023e 3e             8329 	.byte	62
0000023f 564152287661   8330 	.strz	"VAR(vartype,memclass) vartype"
00000245 72747970652c 
0000024b 6d656d636c61 
00000251 737329207661 
00000257 727479706500 
0000025d 04             8331 	.byte	4
0000025e 01             8332 	.byte	1
0000025f 3c             8333 	.byte	60
00000260 5354445f4f4e   8334 	.strz	"STD_ON 1u"
00000266 20317500 
0000026a 01             8335 	.byte	1
0000026b 3d             8336 	.byte	61
0000026c 5354445f4f46   8337 	.strz	"STD_OFF 0u"
00000272 4620307500 
00000277 01             8338 	.byte	1
00000278 3f             8339 	.byte	63
00000279 455f4e4f545f   8340 	.strz	"E_NOT_OK 1u"
0000027f 4f4b20317500 
00000285 01             8341 	.byte	1
00000286 4a             8342 	.byte	74
00000287 535441545553   8343 	.strz	"STATUSTYPEDEFINED "
0000028d 545950454445 
00000293 46494e454420 
00000299 00 
0000029a 04             8344 	.byte	4
0000029b 03             8345 	.byte	3
0000029c 03             8346 	.byte	3
0000029d 07             8347 	.byte	7
0000029e 03             8348 	.byte	3
0000029f 04             8349 	.byte	4
000002a0 08             8350 	.byte	8
000002a1 03             8351 	.byte	3
000002a2 08             8352 	.byte	8
000002a3 09             8353 	.byte	9
000002a4 04             8354 	.byte	4
000002a5 03             8355 	.byte	3
000002a6 09             8356 	.byte	9
000002a7 0a             8357 	.byte	10
000002a8 01             8358 	.byte	1
000002a9 09             8359 	.byte	9
000002aa 4f535f41525f   8360 	.strz	"OS_AR_RELEASE_MAJOR_VERSION (4U)"
000002b0 52454c454153 
000002b6 455f4d414a4f 
000002bc 525f56455253 
000002c2 494f4e202834 
000002c8 552900 
000002cb 01             8361 	.byte	1
000002cc 0a             8362 	.byte	10
000002cd 4f535f41525f   8363 	.strz	"OS_AR_RELEASE_MINOR_VERSION (2U)"
000002d3 52454c454153 
000002d9 455f4d494e4f 
000002df 525f56455253 
000002e5 494f4e202832 
000002eb 552900 

                                                                      Page 164
                                                              C:\Users\nhuliyap\AppData\Local\Temp\gh_000014o1.s
000002ee 03             8364 	.byte	3
000002ef 15             8365 	.byte	21
000002f0 0b             8366 	.byte	11
000002f1 04             8367 	.byte	4
000002f2 01             8368 	.byte	1
000002f3 e401           8369 	.byte	228,1
000002f5 4f535f535441   8370 	.strz	"OS_START_SEC_CODE_LIB "
000002fb 52545f534543 
00000301 5f434f44455f 
00000307 4c49422000 
0000030c 03             8371 	.byte	3
0000030d e501           8372 	.byte	229,1
0000030f 0c             8373 	.byte	12
00000310 04             8374 	.byte	4
00000311 01             8375 	.byte	1
00000312 ea01           8376 	.byte	234,1
00000314 4f535f53544f   8377 	.strz	"OS_STOP_SEC_CODE_LIB "
0000031a 505f5345435f 
00000320 434f44455f4c 
00000326 49422000 
0000032a 03             8378 	.byte	3
0000032b eb01           8379 	.byte	235,1
0000032d 0c             8380 	.byte	12
0000032e 04             8381 	.byte	4
0000032f 01             8382 	.byte	1
00000330 ee01           8383 	.byte	238,1
00000332 4f535f564f4c   8384 	.strz	"OS_VOLATILE volatile"
00000338 4154494c4520 
0000033e 766f6c617469 
00000344 6c6500 
00000347 01             8385 	.byte	1
00000348 a003           8386 	.byte	160,3
0000034a 4465636c6172   8387 	.strz	"DeclareISR(x) "
00000350 654953522878 
00000356 292000 
00000359 01             8388 	.byte	1
0000035a c803           8389 	.byte	200,3
0000035c 4465636c6172   8390 	.strz	"DeclareTask(x) "
00000362 655461736b28 
00000368 78292000 
0000036c 01             8391 	.byte	1
0000036d ee03           8392 	.byte	238,3
0000036f 4465636c6172   8393 	.strz	"DeclareAlarm(x) "
00000375 65416c61726d 
0000037b 2878292000 
00000380 01             8394 	.byte	1
00000381 9104           8395 	.byte	145,4
00000383 4465636c6172   8396 	.strz	"DeclareCounter(x) "
00000389 65436f756e74 
0000038f 657228782920 
00000395 00 
00000396 01             8397 	.byte	1
00000397 a206           8398 	.byte	162,6
00000399 4f535f535441   8399 	.strz	"OS_START_SEC_OS_CBK_TRACECOMMDATAREADY_CODE "
0000039f 52545f534543 
000003a5 5f4f535f4342 
000003ab 4b5f54524143 
000003b1 45434f4d4d44 
000003b7 415441524541 
000003bd 44595f434f44 
000003c3 452000 

                                                                      Page 165
                                                              C:\Users\nhuliyap\AppData\Local\Temp\gh_000014o1.s
000003c6 03             8400 	.byte	3
000003c7 a306           8401 	.byte	163,6
000003c9 0c             8402 	.byte	12
000003ca 04             8403 	.byte	4
000003cb 01             8404 	.byte	1
000003cc a506           8405 	.byte	165,6
000003ce 4f535f53544f   8406 	.strz	"OS_STOP_SEC_OS_CBK_TRACECOMMDATAREADY_CODE "
000003d4 505f5345435f 
000003da 4f535f43424b 
000003e0 5f5452414345 
000003e6 434f4d4d4441 
000003ec 544152454144 
000003f2 595f434f4445 
000003f8 2000 
000003fa 03             8407 	.byte	3
000003fb a606           8408 	.byte	166,6
000003fd 0c             8409 	.byte	12
000003fe 04             8410 	.byte	4
000003ff 01             8411 	.byte	1
00000400 a806           8412 	.byte	168,6
00000402 4f535f535441   8413 	.strz	"OS_START_SEC_OS_CBK_TRACECOMMINITTARGET_CODE "
00000408 52545f534543 
0000040e 5f4f535f4342 
00000414 4b5f54524143 
0000041a 45434f4d4d49 
00000420 4e4954544152 
00000426 4745545f434f 
0000042c 44452000 
00000430 03             8414 	.byte	3
00000431 a906           8415 	.byte	169,6
00000433 0c             8416 	.byte	12
00000434 04             8417 	.byte	4
00000435 01             8418 	.byte	1
00000436 ab06           8419 	.byte	171,6
00000438 4f535f53544f   8420 	.strz	"OS_STOP_SEC_OS_CBK_TRACECOMMINITTARGET_CODE "
0000043e 505f5345435f 
00000444 4f535f43424b 
0000044a 5f5452414345 
00000450 434f4d4d494e 
00000456 495454415247 
0000045c 45545f434f44 
00000462 452000 
00000465 03             8421 	.byte	3
00000466 ac06           8422 	.byte	172,6
00000468 0c             8423 	.byte	12
00000469 04             8424 	.byte	4
0000046a 01             8425 	.byte	1
0000046b ae06           8426 	.byte	174,6
0000046d 4f535f535441   8427 	.strz	"OS_START_SEC_OS_CBK_TRACECOMMTXBYTE_CODE "
00000473 52545f534543 
00000479 5f4f535f4342 
0000047f 4b5f54524143 
00000485 45434f4d4d54 
0000048b 58425954455f 
00000491 434f44452000 
00000497 03             8428 	.byte	3
00000498 af06           8429 	.byte	175,6
0000049a 0c             8430 	.byte	12
0000049b 04             8431 	.byte	4
0000049c 01             8432 	.byte	1
0000049d b106           8433 	.byte	177,6

                                                                      Page 166
                                                              C:\Users\nhuliyap\AppData\Local\Temp\gh_000014o1.s
0000049f 4f535f53544f   8434 	.strz	"OS_STOP_SEC_OS_CBK_TRACECOMMTXBYTE_CODE "
000004a5 505f5345435f 
000004ab 4f535f43424b 
000004b1 5f5452414345 
000004b7 434f4d4d5458 
000004bd 425954455f43 
000004c3 4f44452000 
000004c8 03             8435 	.byte	3
000004c9 b206           8436 	.byte	178,6
000004cb 0c             8437 	.byte	12
000004cc 04             8438 	.byte	4
000004cd 01             8439 	.byte	1
000004ce b406           8440 	.byte	180,6
000004d0 4f535f535441   8441 	.strz	"OS_START_SEC_OS_CBK_TRACECOMMTXEND_CODE "
000004d6 52545f534543 
000004dc 5f4f535f4342 
000004e2 4b5f54524143 
000004e8 45434f4d4d54 
000004ee 58454e445f43 
000004f4 4f44452000 
000004f9 03             8442 	.byte	3
000004fa b506           8443 	.byte	181,6
000004fc 0c             8444 	.byte	12
000004fd 04             8445 	.byte	4
000004fe 01             8446 	.byte	1
000004ff b706           8447 	.byte	183,6
00000501 4f535f53544f   8448 	.strz	"OS_STOP_SEC_OS_CBK_TRACECOMMTXEND_CODE "
00000507 505f5345435f 
0000050d 4f535f43424b 
00000513 5f5452414345 
00000519 434f4d4d5458 
0000051f 454e445f434f 
00000525 44452000 
00000529 03             8449 	.byte	3
0000052a b806           8450 	.byte	184,6
0000052c 0c             8451 	.byte	12
0000052d 04             8452 	.byte	4
0000052e 01             8453 	.byte	1
0000052f ba06           8454 	.byte	186,6
00000531 4f535f535441   8455 	.strz	"OS_START_SEC_OS_CBK_TRACECOMMTXREADY_CODE "
00000537 52545f534543 
0000053d 5f4f535f4342 
00000543 4b5f54524143 
00000549 45434f4d4d54 
0000054f 585245414459 
00000555 5f434f444520 
0000055b 00 
0000055c 03             8456 	.byte	3
0000055d bb06           8457 	.byte	187,6
0000055f 0c             8458 	.byte	12
00000560 04             8459 	.byte	4
00000561 01             8460 	.byte	1
00000562 bd06           8461 	.byte	189,6
00000564 4f535f53544f   8462 	.strz	"OS_STOP_SEC_OS_CBK_TRACECOMMTXREADY_CODE "
0000056a 505f5345435f 
00000570 4f535f43424b 
00000576 5f5452414345 
0000057c 434f4d4d5458 
00000582 52454144595f 
00000588 434f44452000 
0000058e 03             8463 	.byte	3

                                                                      Page 167
                                                              C:\Users\nhuliyap\AppData\Local\Temp\gh_000014o1.s
0000058f be06           8464 	.byte	190,6
00000591 0c             8465 	.byte	12
00000592 04             8466 	.byte	4
00000593 01             8467 	.byte	1
00000594 c006           8468 	.byte	192,6
00000596 4f535f535441   8469 	.strz	"OS_START_SEC_OS_CBK_TRACECOMMTXSTART_CODE "
0000059c 52545f534543 
000005a2 5f4f535f4342 
000005a8 4b5f54524143 
000005ae 45434f4d4d54 
000005b4 585354415254 
000005ba 5f434f444520 
000005c0 00 
000005c1 03             8470 	.byte	3
000005c2 c106           8471 	.byte	193,6
000005c4 0c             8472 	.byte	12
000005c5 04             8473 	.byte	4
000005c6 01             8474 	.byte	1
000005c7 c306           8475 	.byte	195,6
000005c9 4f535f53544f   8476 	.strz	"OS_STOP_SEC_OS_CBK_TRACECOMMTXSTART_CODE "
000005cf 505f5345435f 
000005d5 4f535f43424b 
000005db 5f5452414345 
000005e1 434f4d4d5458 
000005e7 53544152545f 
000005ed 434f44452000 
000005f3 03             8477 	.byte	3
000005f4 c406           8478 	.byte	196,6
000005f6 0c             8479 	.byte	12
000005f7 04             8480 	.byte	4
000005f8 01             8481 	.byte	1
000005f9 c606           8482 	.byte	198,6
000005fb 4f535f535441   8483 	.strz	"OS_START_SEC_CODE_LIB "
00000601 52545f534543 
00000607 5f434f44455f 
0000060d 4c49422000 
00000612 03             8484 	.byte	3
00000613 c706           8485 	.byte	199,6
00000615 0c             8486 	.byte	12
00000616 04             8487 	.byte	4
00000617 01             8488 	.byte	1
00000618 9307           8489 	.byte	147,7
0000061a 4f535f53544f   8490 	.strz	"OS_STOP_SEC_CODE_LIB "
00000620 505f5345435f 
00000626 434f44455f4c 
0000062c 49422000 
00000630 03             8491 	.byte	3
00000631 9407           8492 	.byte	148,7
00000633 0c             8493 	.byte	12
00000634 04             8494 	.byte	4
00000635 01             8495 	.byte	1
00000636 9607           8496 	.byte	150,7
00000638 4f535f535441   8497 	.strz	"OS_START_SEC_CONST_FAST_UNSPECIFIED "
0000063e 52545f534543 
00000644 5f434f4e5354 
0000064a 5f464153545f 
00000650 554e53504543 
00000656 494649454420 
0000065c 00 
0000065d 03             8498 	.byte	3
0000065e 9707           8499 	.byte	151,7

                                                                      Page 168
                                                              C:\Users\nhuliyap\AppData\Local\Temp\gh_000014o1.s
00000660 0c             8500 	.byte	12
00000661 04             8501 	.byte	4
00000662 01             8502 	.byte	1
00000663 9f07           8503 	.byte	159,7
00000665 4f535f53544f   8504 	.strz	"OS_STOP_SEC_CONST_FAST_UNSPECIFIED "
0000066b 505f5345435f 
00000671 434f4e53545f 
00000677 464153545f55 
0000067d 4e5350454349 
00000683 464945442000 
00000689 03             8505 	.byte	3
0000068a a007           8506 	.byte	160,7
0000068c 0c             8507 	.byte	12
0000068d 04             8508 	.byte	4
0000068e 01             8509 	.byte	1
0000068f a207           8510 	.byte	162,7
00000691 4f535f535441   8511 	.strz	"OS_START_SEC_CONST_UNSPECIFIED "
00000697 52545f534543 
0000069d 5f434f4e5354 
000006a3 5f554e535045 
000006a9 434946494544 
000006af 2000 
000006b1 03             8512 	.byte	3
000006b2 a307           8513 	.byte	163,7
000006b4 0c             8514 	.byte	12
000006b5 04             8515 	.byte	4
000006b6 01             8516 	.byte	1
000006b7 a507           8517 	.byte	165,7
000006b9 4f535f53544f   8518 	.strz	"OS_STOP_SEC_CONST_UNSPECIFIED "
000006bf 505f5345435f 
000006c5 434f4e53545f 
000006cb 554e53504543 
000006d1 494649454420 
000006d7 00 
000006d8 03             8519 	.byte	3
000006d9 a607           8520 	.byte	166,7
000006db 0c             8521 	.byte	12
000006dc 04             8522 	.byte	4
000006dd 01             8523 	.byte	1
000006de a807           8524 	.byte	168,7
000006e0 4f535f535441   8525 	.strz	"OS_START_SEC_ERRORHOOK_CODE "
000006e6 52545f534543 
000006ec 5f4552524f52 
000006f2 484f4f4b5f43 
000006f8 4f44452000 
000006fd 03             8526 	.byte	3
000006fe a907           8527 	.byte	169,7
00000700 0c             8528 	.byte	12
00000701 04             8529 	.byte	4
00000702 01             8530 	.byte	1
00000703 ab07           8531 	.byte	171,7
00000705 4f535f53544f   8532 	.strz	"OS_STOP_SEC_ERRORHOOK_CODE "
0000070b 505f5345435f 
00000711 4552524f5248 
00000717 4f4f4b5f434f 
0000071d 44452000 
00000721 03             8533 	.byte	3
00000722 ac07           8534 	.byte	172,7
00000724 0c             8535 	.byte	12
00000725 04             8536 	.byte	4
00000726 01             8537 	.byte	1

                                                                      Page 169
                                                              C:\Users\nhuliyap\AppData\Local\Temp\gh_000014o1.s
00000727 ae07           8538 	.byte	174,7
00000729 4f535f535441   8539 	.strz	"OS_START_SEC_OS_CBK_CHECKMEMORYACCESS_CODE "
0000072f 52545f534543 
00000735 5f4f535f4342 
0000073b 4b5f43484543 
00000741 4b4d454d4f52 
00000747 594143434553 
0000074d 535f434f4445 
00000753 2000 
00000755 03             8540 	.byte	3
00000756 af07           8541 	.byte	175,7
00000758 0c             8542 	.byte	12
00000759 04             8543 	.byte	4
0000075a 01             8544 	.byte	1
0000075b b107           8545 	.byte	177,7
0000075d 4f535f53544f   8546 	.strz	"OS_STOP_SEC_OS_CBK_CHECKMEMORYACCESS_CODE "
00000763 505f5345435f 
00000769 4f535f43424b 
0000076f 5f434845434b 
00000775 4d454d4f5259 
0000077b 414343455353 
00000781 5f434f444520 
00000787 00 
00000788 03             8547 	.byte	3
00000789 b207           8548 	.byte	178,7
0000078b 0c             8549 	.byte	12
0000078c 04             8550 	.byte	4
0000078d 01             8551 	.byte	1
0000078e b407           8552 	.byte	180,7
00000790 4f535f535441   8553 	.strz	"OS_START_SEC_OS_CBK_CHECKSTACKDEPTH_CODE "
00000796 52545f534543 
0000079c 5f4f535f4342 
000007a2 4b5f43484543 
000007a8 4b535441434b 
000007ae 44455054485f 
000007b4 434f44452000 
000007ba 03             8554 	.byte	3
000007bb b507           8555 	.byte	181,7
000007bd 0c             8556 	.byte	12
000007be 04             8557 	.byte	4
000007bf 01             8558 	.byte	1
000007c0 b707           8559 	.byte	183,7
000007c2 4f535f53544f   8560 	.strz	"OS_STOP_SEC_OS_CBK_CHECKSTACKDEPTH_CODE "
000007c8 505f5345435f 
000007ce 4f535f43424b 
000007d4 5f434845434b 
000007da 535441434b44 
000007e0 455054485f43 
000007e6 4f44452000 
000007eb 03             8561 	.byte	3
000007ec b807           8562 	.byte	184,7
000007ee 0c             8563 	.byte	12
000007ef 04             8564 	.byte	4
000007f0 01             8565 	.byte	1
000007f1 ba07           8566 	.byte	186,7
000007f3 4f535f535441   8567 	.strz	"OS_START_SEC_OS_CBK_GETSTOPWATCH_CODE "
000007f9 52545f534543 
000007ff 5f4f535f4342 
00000805 4b5f47455453 
0000080b 544f50574154 
00000811 43485f434f44 

                                                                      Page 170
                                                              C:\Users\nhuliyap\AppData\Local\Temp\gh_000014o1.s
00000817 452000 
0000081a 03             8568 	.byte	3
0000081b bb07           8569 	.byte	187,7
0000081d 0c             8570 	.byte	12
0000081e 04             8571 	.byte	4
0000081f 01             8572 	.byte	1
00000820 bf07           8573 	.byte	191,7
00000822 4f535f53544f   8574 	.strz	"OS_STOP_SEC_OS_CBK_GETSTOPWATCH_CODE "
00000828 505f5345435f 
0000082e 4f535f43424b 
00000834 5f4745545354 
0000083a 4f5057415443 
00000840 485f434f4445 
00000846 2000 
00000848 03             8575 	.byte	3
00000849 c007           8576 	.byte	192,7
0000084b 0c             8577 	.byte	12
0000084c 04             8578 	.byte	4
0000084d 01             8579 	.byte	1
0000084e c207           8580 	.byte	194,7
00000850 4f535f535441   8581 	.strz	"OS_START_SEC_OS_CBK_IDLE_CODE "
00000856 52545f534543 
0000085c 5f4f535f4342 
00000862 4b5f49444c45 
00000868 5f434f444520 
0000086e 00 
0000086f 03             8582 	.byte	3
00000870 c307           8583 	.byte	195,7
00000872 0c             8584 	.byte	12
00000873 04             8585 	.byte	4
00000874 01             8586 	.byte	1
00000875 c507           8587 	.byte	197,7
00000877 4f535f53544f   8588 	.strz	"OS_STOP_SEC_OS_CBK_IDLE_CODE "
0000087d 505f5345435f 
00000883 4f535f43424b 
00000889 5f49444c455f 
0000088f 434f44452000 
00000895 03             8589 	.byte	3
00000896 c607           8590 	.byte	198,7
00000898 0c             8591 	.byte	12
00000899 04             8592 	.byte	4
0000089a 01             8593 	.byte	1
0000089b c807           8594 	.byte	200,7
0000089d 4f535f535441   8595 	.strz	"OS_START_SEC_OS_CBK_INSHUTDOWN_CODE "
000008a3 52545f534543 
000008a9 5f4f535f4342 
000008af 4b5f494e5348 
000008b5 5554444f574e 
000008bb 5f434f444520 
000008c1 00 
000008c2 03             8596 	.byte	3
000008c3 c907           8597 	.byte	201,7
000008c5 0c             8598 	.byte	12
000008c6 04             8599 	.byte	4
000008c7 01             8600 	.byte	1
000008c8 cb07           8601 	.byte	203,7
000008ca 4f535f53544f   8602 	.strz	"OS_STOP_SEC_OS_CBK_INSHUTDOWN_CODE "
000008d0 505f5345435f 
000008d6 4f535f43424b 
000008dc 5f494e534855 
000008e2 54444f574e5f 

                                                                      Page 171
                                                              C:\Users\nhuliyap\AppData\Local\Temp\gh_000014o1.s
000008e8 434f44452000 
000008ee 03             8603 	.byte	3
000008ef cc07           8604 	.byte	204,7
000008f1 0c             8605 	.byte	12
000008f2 04             8606 	.byte	4
000008f3 01             8607 	.byte	1
000008f4 ce07           8608 	.byte	206,7
000008f6 4f535f535441   8609 	.strz	"OS_START_SEC_OS_CBK_STACKOVERRUNHOOK_CODE "
000008fc 52545f534543 
00000902 5f4f535f4342 
00000908 4b5f53544143 
0000090e 4b4f56455252 
00000914 554e484f4f4b 
0000091a 5f434f444520 
00000920 00 
00000921 03             8610 	.byte	3
00000922 cf07           8611 	.byte	207,7
00000924 0c             8612 	.byte	12
00000925 04             8613 	.byte	4
00000926 01             8614 	.byte	1
00000927 d107           8615 	.byte	209,7
00000929 4f535f53544f   8616 	.strz	"OS_STOP_SEC_OS_CBK_STACKOVERRUNHOOK_CODE "
0000092f 505f5345435f 
00000935 4f535f43424b 
0000093b 5f535441434b 
00000941 4f5645525255 
00000947 4e484f4f4b5f 
0000094d 434f44452000 
00000953 03             8617 	.byte	3
00000954 d207           8618 	.byte	210,7
00000956 0c             8619 	.byte	12
00000957 04             8620 	.byte	4
00000958 01             8621 	.byte	1
00000959 d407           8622 	.byte	212,7
0000095b 4f535f535441   8623 	.strz	"OS_START_SEC_OS_CBK_TIMEOVERRUNHOOK_CODE "
00000961 52545f534543 
00000967 5f4f535f4342 
0000096d 4b5f54494d45 
00000973 4f5645525255 
00000979 4e484f4f4b5f 
0000097f 434f44452000 
00000985 03             8624 	.byte	3
00000986 d507           8625 	.byte	213,7
00000988 0c             8626 	.byte	12
00000989 04             8627 	.byte	4
0000098a 01             8628 	.byte	1
0000098b d707           8629 	.byte	215,7
0000098d 4f535f53544f   8630 	.strz	"OS_STOP_SEC_OS_CBK_TIMEOVERRUNHOOK_CODE "
00000993 505f5345435f 
00000999 4f535f43424b 
0000099f 5f54494d454f 
000009a5 56455252554e 
000009ab 484f4f4b5f43 
000009b1 4f44452000 
000009b6 03             8631 	.byte	3
000009b7 d807           8632 	.byte	216,7
000009b9 0c             8633 	.byte	12
000009ba 04             8634 	.byte	4
000009bb 01             8635 	.byte	1
000009bc da07           8636 	.byte	218,7
000009be 4f535f535441   8637 	.strz	"OS_START_SEC_POSTTASKHOOK_CODE "

                                                                      Page 172
                                                              C:\Users\nhuliyap\AppData\Local\Temp\gh_000014o1.s
000009c4 52545f534543 
000009ca 5f504f535454 
000009d0 41534b484f4f 
000009d6 4b5f434f4445 
000009dc 2000 
000009de 03             8638 	.byte	3
000009df db07           8639 	.byte	219,7
000009e1 0c             8640 	.byte	12
000009e2 04             8641 	.byte	4
000009e3 01             8642 	.byte	1
000009e4 dd07           8643 	.byte	221,7
000009e6 4f535f53544f   8644 	.strz	"OS_STOP_SEC_POSTTASKHOOK_CODE "
000009ec 505f5345435f 
000009f2 504f53545441 
000009f8 534b484f4f4b 
000009fe 5f434f444520 
00000a04 00 
00000a05 03             8645 	.byte	3
00000a06 de07           8646 	.byte	222,7
00000a08 0c             8647 	.byte	12
00000a09 04             8648 	.byte	4
00000a0a 01             8649 	.byte	1
00000a0b e007           8650 	.byte	224,7
00000a0d 4f535f535441   8651 	.strz	"OS_START_SEC_PRETASKHOOK_CODE "
00000a13 52545f534543 
00000a19 5f5052455441 
00000a1f 534b484f4f4b 
00000a25 5f434f444520 
00000a2b 00 
00000a2c 03             8652 	.byte	3
00000a2d e107           8653 	.byte	225,7
00000a2f 0c             8654 	.byte	12
00000a30 04             8655 	.byte	4
00000a31 01             8656 	.byte	1
00000a32 e307           8657 	.byte	227,7
00000a34 4f535f53544f   8658 	.strz	"OS_STOP_SEC_PRETASKHOOK_CODE "
00000a3a 505f5345435f 
00000a40 505245544153 
00000a46 4b484f4f4b5f 
00000a4c 434f44452000 
00000a52 03             8659 	.byte	3
00000a53 e407           8660 	.byte	228,7
00000a55 0c             8661 	.byte	12
00000a56 04             8662 	.byte	4
00000a57 01             8663 	.byte	1
00000a58 e607           8664 	.byte	230,7
00000a5a 4f535f535441   8665 	.strz	"OS_START_SEC_PROTECTIONHOOK_CODE "
00000a60 52545f534543 
00000a66 5f50524f5445 
00000a6c 4354494f4e48 
00000a72 4f4f4b5f434f 
00000a78 44452000 
00000a7c 03             8666 	.byte	3
00000a7d e707           8667 	.byte	231,7
00000a7f 0c             8668 	.byte	12
00000a80 04             8669 	.byte	4
00000a81 01             8670 	.byte	1
00000a82 e907           8671 	.byte	233,7
00000a84 4f535f53544f   8672 	.strz	"OS_STOP_SEC_PROTECTIONHOOK_CODE "
00000a8a 505f5345435f 
00000a90 50524f544543 

                                                                      Page 173
                                                              C:\Users\nhuliyap\AppData\Local\Temp\gh_000014o1.s
00000a96 54494f4e484f 
00000a9c 4f4b5f434f44 
00000aa2 452000 
00000aa5 03             8673 	.byte	3
00000aa6 ea07           8674 	.byte	234,7
00000aa8 0c             8675 	.byte	12
00000aa9 04             8676 	.byte	4
00000aaa 01             8677 	.byte	1
00000aab ec07           8678 	.byte	236,7
00000aad 4f535f535441   8679 	.strz	"OS_START_SEC_SHUTDOWNHOOK_CODE "
00000ab3 52545f534543 
00000ab9 5f5348555444 
00000abf 4f574e484f4f 
00000ac5 4b5f434f4445 
00000acb 2000 
00000acd 03             8680 	.byte	3
00000ace ed07           8681 	.byte	237,7
00000ad0 0c             8682 	.byte	12
00000ad1 04             8683 	.byte	4
00000ad2 01             8684 	.byte	1
00000ad3 ef07           8685 	.byte	239,7
00000ad5 4f535f53544f   8686 	.strz	"OS_STOP_SEC_SHUTDOWNHOOK_CODE "
00000adb 505f5345435f 
00000ae1 53485554444f 
00000ae7 574e484f4f4b 
00000aed 5f434f444520 
00000af3 00 
00000af4 03             8687 	.byte	3
00000af5 f007           8688 	.byte	240,7
00000af7 0c             8689 	.byte	12
00000af8 04             8690 	.byte	4
00000af9 01             8691 	.byte	1
00000afa f207           8692 	.byte	242,7
00000afc 4f535f535441   8693 	.strz	"OS_START_SEC_STARTUPHOOK_CODE "
00000b02 52545f534543 
00000b08 5f5354415254 
00000b0e 5550484f4f4b 
00000b14 5f434f444520 
00000b1a 00 
00000b1b 03             8694 	.byte	3
00000b1c f307           8695 	.byte	243,7
00000b1e 0c             8696 	.byte	12
00000b1f 04             8697 	.byte	4
00000b20 01             8698 	.byte	1
00000b21 f507           8699 	.byte	245,7
00000b23 4f535f53544f   8700 	.strz	"OS_STOP_SEC_STARTUPHOOK_CODE "
00000b29 505f5345435f 
00000b2f 535441525455 
00000b35 50484f4f4b5f 
00000b3b 434f44452000 
00000b41 03             8701 	.byte	3
00000b42 f607           8702 	.byte	246,7
00000b44 0c             8703 	.byte	12
00000b45 04             8704 	.byte	4
00000b46 01             8705 	.byte	1
00000b47 f807           8706 	.byte	248,7
00000b49 4f535f535441   8707 	.strz	"OS_START_SEC_VAR_CLEARED_UNSPECIFIED "
00000b4f 52545f534543 
00000b55 5f5641525f43 
00000b5b 4c4541524544 
00000b61 5f554e535045 

                                                                      Page 174
                                                              C:\Users\nhuliyap\AppData\Local\Temp\gh_000014o1.s
00000b67 434946494544 
00000b6d 2000 
00000b6f 03             8708 	.byte	3
00000b70 f907           8709 	.byte	249,7
00000b72 0c             8710 	.byte	12
00000b73 04             8711 	.byte	4
00000b74 01             8712 	.byte	1
00000b75 ff07           8713 	.byte	255,7
00000b77 4f535f53544f   8714 	.strz	"OS_STOP_SEC_VAR_CLEARED_UNSPECIFIED "
00000b7d 505f5345435f 
00000b83 5641525f434c 
00000b89 45415245445f 
00000b8f 554e53504543 
00000b95 494649454420 
00000b9b 00 
00000b9c 03             8715 	.byte	3
00000b9d 8008           8716 	.byte	128,8
00000b9f 0c             8717 	.byte	12
00000ba0 04             8718 	.byte	4
00000ba1 01             8719 	.byte	1
00000ba2 8208           8720 	.byte	130,8
00000ba4 4f535f535441   8721 	.strz	"OS_START_SEC_VAR_NO_INIT_UNSPECIFIED "
00000baa 52545f534543 
00000bb0 5f5641525f4e 
00000bb6 4f5f494e4954 
00000bbc 5f554e535045 
00000bc2 434946494544 
00000bc8 2000 
00000bca 03             8722 	.byte	3
00000bcb 8308           8723 	.byte	131,8
00000bcd 0c             8724 	.byte	12
00000bce 04             8725 	.byte	4
00000bcf 01             8726 	.byte	1
00000bd0 9308           8727 	.byte	147,8
00000bd2 4f535f53544f   8728 	.strz	"OS_STOP_SEC_VAR_NO_INIT_UNSPECIFIED "
00000bd8 505f5345435f 
00000bde 5641525f4e4f 
00000be4 5f494e49545f 
00000bea 554e53504543 
00000bf0 494649454420 
00000bf6 00 
00000bf7 03             8729 	.byte	3
00000bf8 9408           8730 	.byte	148,8
00000bfa 0c             8731 	.byte	12
00000bfb 04             8732 	.byte	4
00000bfc 03             8733 	.byte	3
00000bfd 9608           8734 	.byte	150,8
00000bff 0d             8735 	.byte	13
00000c00 01             8736 	.byte	1
00000c01 2e             8737 	.byte	46
00000c02 4f535f535441   8738 	.strz	"OS_START_SEC_CODE_LIB "
00000c08 52545f534543 
00000c0e 5f434f44455f 
00000c14 4c49422000 
00000c19 03             8739 	.byte	3
00000c1a 2f             8740 	.byte	47
00000c1b 0c             8741 	.byte	12
00000c1c 04             8742 	.byte	4
00000c1d 01             8743 	.byte	1
00000c1e 47             8744 	.byte	71
00000c1f 4f535f53544f   8745 	.strz	"OS_STOP_SEC_CODE_LIB "

                                                                      Page 175
                                                              C:\Users\nhuliyap\AppData\Local\Temp\gh_000014o1.s
00000c25 505f5345435f 
00000c2b 434f44455f4c 
00000c31 49422000 
00000c35 03             8746 	.byte	3
00000c36 48             8747 	.byte	72
00000c37 0c             8748 	.byte	12
00000c38 04             8749 	.byte	4
00000c39 01             8750 	.byte	1
00000c3a 4a             8751 	.byte	74
00000c3b 4f535f535441   8752 	.strz	"OS_START_SEC_ERRORHOOK_HUFTPMS_CODE "
00000c41 52545f534543 
00000c47 5f4552524f52 
00000c4d 484f4f4b5f48 
00000c53 554654504d53 
00000c59 5f434f444520 
00000c5f 00 
00000c60 03             8753 	.byte	3
00000c61 4b             8754 	.byte	75
00000c62 0c             8755 	.byte	12
00000c63 04             8756 	.byte	4
00000c64 01             8757 	.byte	1
00000c65 4f             8758 	.byte	79
00000c66 4f535f53544f   8759 	.strz	"OS_STOP_SEC_ERRORHOOK_HUFTPMS_CODE "
00000c6c 505f5345435f 
00000c72 4552524f5248 
00000c78 4f4f4b5f4855 
00000c7e 4654504d535f 
00000c84 434f44452000 
00000c8a 03             8760 	.byte	3
00000c8b 50             8761 	.byte	80
00000c8c 0c             8762 	.byte	12
00000c8d 04             8763 	.byte	4
00000c8e 01             8764 	.byte	1
00000c8f 52             8765 	.byte	82
00000c90 4f535f535441   8766 	.strz	"OS_START_SEC_OS_CBK_ALARM_CB_ALARM10MS_CODE "
00000c96 52545f534543 
00000c9c 5f4f535f4342 
00000ca2 4b5f414c4152 
00000ca8 4d5f43425f41 
00000cae 4c41524d3130 
00000cb4 4d535f434f44 
00000cba 452000 
00000cbd 03             8767 	.byte	3
00000cbe 53             8768 	.byte	83
00000cbf 0c             8769 	.byte	12
00000cc0 04             8770 	.byte	4
00000cc1 01             8771 	.byte	1
00000cc2 57             8772 	.byte	87
00000cc3 4f535f53544f   8773 	.strz	"OS_STOP_SEC_OS_CBK_ALARM_CB_ALARM10MS_CODE "
00000cc9 505f5345435f 
00000ccf 4f535f43424b 
00000cd5 5f414c41524d 
00000cdb 5f43425f414c 
00000ce1 41524d31304d 
00000ce7 535f434f4445 
00000ced 2000 
00000cef 03             8774 	.byte	3
00000cf0 58             8775 	.byte	88
00000cf1 0c             8776 	.byte	12
00000cf2 04             8777 	.byte	4
00000cf3 01             8778 	.byte	1

                                                                      Page 176
                                                              C:\Users\nhuliyap\AppData\Local\Temp\gh_000014o1.s
00000cf4 5a             8779 	.byte	90
00000cf5 4f535f535441   8780 	.strz	"OS_START_SEC_OS_CBK_ALARM_CB_ALARM200MS_CODE "
00000cfb 52545f534543 
00000d01 5f4f535f4342 
00000d07 4b5f414c4152 
00000d0d 4d5f43425f41 
00000d13 4c41524d3230 
00000d19 304d535f434f 
00000d1f 44452000 
00000d23 03             8781 	.byte	3
00000d24 5b             8782 	.byte	91
00000d25 0c             8783 	.byte	12
00000d26 04             8784 	.byte	4
00000d27 01             8785 	.byte	1
00000d28 5f             8786 	.byte	95
00000d29 4f535f53544f   8787 	.strz	"OS_STOP_SEC_OS_CBK_ALARM_CB_ALARM200MS_CODE "
00000d2f 505f5345435f 
00000d35 4f535f43424b 
00000d3b 5f414c41524d 
00000d41 5f43425f414c 
00000d47 41524d323030 
00000d4d 4d535f434f44 
00000d53 452000 
00000d56 03             8788 	.byte	3
00000d57 60             8789 	.byte	96
00000d58 0c             8790 	.byte	12
00000d59 04             8791 	.byte	4
00000d5a 01             8792 	.byte	1
00000d5b 62             8793 	.byte	98
00000d5c 4f535f535441   8794 	.strz	"OS_START_SEC_OS_CBK_ALARM_CB_ALARM50MS_CODE "
00000d62 52545f534543 
00000d68 5f4f535f4342 
00000d6e 4b5f414c4152 
00000d74 4d5f43425f41 
00000d7a 4c41524d3530 
00000d80 4d535f434f44 
00000d86 452000 
00000d89 03             8795 	.byte	3
00000d8a 63             8796 	.byte	99
00000d8b 0c             8797 	.byte	12
00000d8c 04             8798 	.byte	4
00000d8d 01             8799 	.byte	1
00000d8e 67             8800 	.byte	103
00000d8f 4f535f53544f   8801 	.strz	"OS_STOP_SEC_OS_CBK_ALARM_CB_ALARM50MS_CODE "
00000d95 505f5345435f 
00000d9b 4f535f43424b 
00000da1 5f414c41524d 
00000da7 5f43425f414c 
00000dad 41524d35304d 
00000db3 535f434f4445 
00000db9 2000 
00000dbb 03             8802 	.byte	3
00000dbc 68             8803 	.byte	104
00000dbd 0c             8804 	.byte	12
00000dbe 04             8805 	.byte	4
00000dbf 01             8806 	.byte	1
00000dc0 6a             8807 	.byte	106
00000dc1 4f535f535441   8808 	.strz	"OS_START_SEC_OS_CBK_ALARM_CB_ALARMONESECOND_CODE "
00000dc7 52545f534543 
00000dcd 5f4f535f4342 
00000dd3 4b5f414c4152 

                                                                      Page 177
                                                              C:\Users\nhuliyap\AppData\Local\Temp\gh_000014o1.s
00000dd9 4d5f43425f41 
00000ddf 4c41524d4f4e 
00000de5 455345434f4e 
00000deb 445f434f4445 
00000df1 2000 
00000df3 03             8809 	.byte	3
00000df4 6b             8810 	.byte	107
00000df5 0c             8811 	.byte	12
00000df6 04             8812 	.byte	4
00000df7 01             8813 	.byte	1
00000df8 6f             8814 	.byte	111
00000df9 4f535f53544f   8815 	.strz	"OS_STOP_SEC_OS_CBK_ALARM_CB_ALARMONESECOND_CODE "
00000dff 505f5345435f 
00000e05 4f535f43424b 
00000e0b 5f414c41524d 
00000e11 5f43425f414c 
00000e17 41524d4f4e45 
00000e1d 5345434f4e44 
00000e23 5f434f444520 
00000e29 00 
00000e2a 03             8816 	.byte	3
00000e2b 70             8817 	.byte	112
00000e2c 0c             8818 	.byte	12
00000e2d 04             8819 	.byte	4
00000e2e 01             8820 	.byte	1
00000e2f 72             8821 	.byte	114
00000e30 4f535f535441   8822 	.strz	"OS_START_SEC_SHUTDOWNHOOK_HUFTPMS_CODE "
00000e36 52545f534543 
00000e3c 5f5348555444 
00000e42 4f574e484f4f 
00000e48 4b5f48554654 
00000e4e 504d535f434f 
00000e54 44452000 
00000e58 03             8823 	.byte	3
00000e59 73             8824 	.byte	115
00000e5a 0c             8825 	.byte	12
00000e5b 04             8826 	.byte	4
00000e5c 01             8827 	.byte	1
00000e5d 77             8828 	.byte	119
00000e5e 4f535f53544f   8829 	.strz	"OS_STOP_SEC_SHUTDOWNHOOK_HUFTPMS_CODE "
00000e64 505f5345435f 
00000e6a 53485554444f 
00000e70 574e484f4f4b 
00000e76 5f4855465450 
00000e7c 4d535f434f44 
00000e82 452000 
00000e85 03             8830 	.byte	3
00000e86 78             8831 	.byte	120
00000e87 0c             8832 	.byte	12
00000e88 04             8833 	.byte	4
00000e89 01             8834 	.byte	1
00000e8a 7a             8835 	.byte	122
00000e8b 4f535f535441   8836 	.strz	"OS_START_SEC_STARTUPHOOK_HUFTPMS_CODE "
00000e91 52545f534543 
00000e97 5f5354415254 
00000e9d 5550484f4f4b 
00000ea3 5f4855465450 
00000ea9 4d535f434f44 
00000eaf 452000 
00000eb2 03             8837 	.byte	3
00000eb3 7b             8838 	.byte	123

                                                                      Page 178
                                                              C:\Users\nhuliyap\AppData\Local\Temp\gh_000014o1.s
00000eb4 0c             8839 	.byte	12
00000eb5 04             8840 	.byte	4
00000eb6 01             8841 	.byte	1
00000eb7 7f             8842 	.byte	127
00000eb8 4f535f53544f   8843 	.strz	"OS_STOP_SEC_STARTUPHOOK_HUFTPMS_CODE "
00000ebe 505f5345435f 
00000ec4 535441525455 
00000eca 50484f4f4b5f 
00000ed0 48554654504d 
00000ed6 535f434f4445 
00000edc 2000 
00000ede 03             8844 	.byte	3
00000edf 8001           8845 	.byte	128,1
00000ee1 0c             8846 	.byte	12
00000ee2 04             8847 	.byte	4
00000ee3 04             8848 	.byte	4
00000ee4 04             8849 	.byte	4
00000ee5 03             8850 	.byte	3
00000ee6 0b             8851 	.byte	11
00000ee7 0e             8852 	.byte	14
00000ee8 03             8853 	.byte	3
00000ee9 28             8854 	.byte	40
00000eea 0f             8855 	.byte	15
00000eeb 03             8856 	.byte	3
00000eec 04             8857 	.byte	4
00000eed 10             8858 	.byte	16
00000eee 01             8859 	.byte	1
00000eef 02             8860 	.byte	2
00000ef0 44454d5f5459   8861 	.strz	"DEM_TYPES_H "
00000ef6 5045535f4820 
00000efc 00 
00000efd 03             8862 	.byte	3
00000efe 04             8863 	.byte	4
00000eff 11             8864 	.byte	17
00000f00 01             8865 	.byte	1
00000f01 04             8866 	.byte	4
00000f02 44454d5f4346   8867 	.strz	"DEM_CFG_OBD_OFF 0"
00000f08 475f4f42445f 
00000f0e 4f4646203000 
00000f14 01             8868 	.byte	1
00000f15 05             8869 	.byte	5
00000f16 44454d5f4346   8870 	.strz	"DEM_CFG_OBD_ON 1"
00000f1c 475f4f42445f 
00000f22 4f4e203100 
00000f27 01             8871 	.byte	1
00000f28 06             8872 	.byte	6
00000f29 44454d5f4346   8873 	.strz	"DEM_CFG_OBD DEM_CFG_OBD_OFF"
00000f2f 475f4f424420 
00000f35 44454d5f4346 
00000f3b 475f4f42445f 
00000f41 4f464600 
00000f45 01             8874 	.byte	1
00000f46 07             8875 	.byte	7
00000f47 44454d5f4346   8876 	.strz	"DEM_CFG_J1939DCM_OFF 0"
00000f4d 475f4a313933 
00000f53 3944434d5f4f 
00000f59 4646203000 
00000f5e 01             8877 	.byte	1
00000f5f 09             8878 	.byte	9
00000f60 44454d5f4346   8879 	.strz	"DEM_CFG_J1939DCM DEM_CFG_J1939DCM_OFF"
00000f66 475f4a313933 

                                                                      Page 179
                                                              C:\Users\nhuliyap\AppData\Local\Temp\gh_000014o1.s
00000f6c 3944434d2044 
00000f72 454d5f434647 
00000f78 5f4a31393339 
00000f7e 44434d5f4f46 
00000f84 4600 
00000f86 01             8880 	.byte	1
00000f87 20             8881 	.byte	32
00000f88 44454d5f4346   8882 	.strz	"DEM_CFG_TRIGGER_TO_STORE_NVM_SUPPORTED FALSE"
00000f8e 475f54524947 
00000f94 4745525f544f 
00000f9a 5f53544f5245 
00000fa0 5f4e564d5f53 
00000fa6 5550504f5254 
00000fac 45442046414c 
00000fb2 534500 
00000fb5 01             8883 	.byte	1
00000fb6 21             8884 	.byte	33
00000fb7 44454d5f4346   8885 	.strz	"DEM_CFG_SUSPICIOUS_SUPPORT FALSE"
00000fbd 475f53555350 
00000fc3 4943494f5553 
00000fc9 5f535550504f 
00000fcf 52542046414c 
00000fd5 534500 
00000fd8 01             8886 	.byte	1
00000fd9 22             8887 	.byte	34
00000fda 44454d5f4346   8888 	.strz	"DEM_CFG_DEBTIMEBASED_CONFIGURED_CYCLICTASKTIME TRUE"
00000fe0 475f44454254 
00000fe6 494d45424153 
00000fec 45445f434f4e 
00000ff2 464947555245 
00000ff8 445f4359434c 
00000ffe 49435441534b 
00001004 54494d452054 
0000100a 52554500 
0000100e 01             8889 	.byte	1
0000100f 23             8890 	.byte	35
00001010 44454d5f4346   8891 	.strz	"DEM_CFG_EVMEMGENERIC_SUPPORTED TRUE"
00001016 475f45564d45 
0000101c 4d47454e4552 
00001022 49435f535550 
00001028 504f52544544 
0000102e 205452554500 
00001034 01             8892 	.byte	1
00001035 24             8893 	.byte	36
00001036 44454d5f4346   8894 	.strz	"DEM_CFG_VERSION_INFO_API_OFF STD_OFF"
0000103c 475f56455253 
00001042 494f4e5f494e 
00001048 464f5f415049 
0000104e 5f4f46462053 
00001054 54445f4f4646 
0000105a 00 
0000105b 01             8895 	.byte	1
0000105c 25             8896 	.byte	37
0000105d 44454d5f4346   8897 	.strz	"DEM_CFG_VERSION_INFO_API_ON STD_ON"
00001063 475f56455253 
00001069 494f4e5f494e 
0000106f 464f5f415049 
00001075 5f4f4e205354 
0000107b 445f4f4e00 
00001080 01             8898 	.byte	1
00001081 26             8899 	.byte	38

                                                                      Page 180
                                                              C:\Users\nhuliyap\AppData\Local\Temp\gh_000014o1.s
00001082 44454d5f4346   8900 	.strz	"DEM_CFG_VERSION_INFO_API DEM_CFG_VERSION_INFO_API_OFF"
00001088 475f56455253 
0000108e 494f4e5f494e 
00001094 464f5f415049 
0000109a 2044454d5f43 
000010a0 46475f564552 
000010a6 53494f4e5f49 
000010ac 4e464f5f4150 
000010b2 495f4f464600 
000010b8 01             8901 	.byte	1
000010b9 27             8902 	.byte	39
000010ba 44454d5f4346   8903 	.strz	"DEM_CFG_ALTERNATIVEDTC_OFF STD_OFF"
000010c0 475f414c5445 
000010c6 524e41544956 
000010cc 454454435f4f 
000010d2 464620535444 
000010d8 5f4f464600 
000010dd 01             8904 	.byte	1
000010de 28             8905 	.byte	40
000010df 44454d5f4346   8906 	.strz	"DEM_CFG_ALTERNATIVEDTC_ON STD_ON"
000010e5 475f414c5445 
000010eb 524e41544956 
000010f1 454454435f4f 
000010f7 4e205354445f 
000010fd 4f4e00 
00001100 01             8907 	.byte	1
00001101 29             8908 	.byte	41
00001102 44454d5f4346   8909 	.strz	"DEM_CFG_ALTERNATIVEDTC DEM_CFG_ALTERNATIVEDTC_OFF"
00001108 475f414c5445 
0000110e 524e41544956 
00001114 454454432044 
0000111a 454d5f434647 
00001120 5f414c544552 
00001126 4e4154495645 
0000112c 4454435f4f46 
00001132 4600 
00001134 01             8910 	.byte	1
00001135 2a             8911 	.byte	42
00001136 44454d5f4346   8912 	.strz	"DEM_CFG_ERASE_ALL_OFF 0u"
0000113c 475f45524153 
00001142 455f414c4c5f 
00001148 4f4646203075 
0000114e 00 
0000114f 01             8913 	.byte	1
00001150 2d             8914 	.byte	45
00001151 44454d5f4346   8915 	.strz	"DEM_CFG_ERASE_ALL_DATA_SUPPORTED DEM_CFG_ERASE_ALL_OFF"
00001157 475f45524153 
0000115d 455f414c4c5f 
00001163 444154415f53 
00001169 5550504f5254 
0000116f 45442044454d 
00001175 5f4346475f45 
0000117b 524153455f41 
00001181 4c4c5f4f4646 
00001187 00 
00001188 01             8916 	.byte	1
00001189 2e             8917 	.byte	46
0000118a 44454d5f4346   8918 	.strz	"DEM_CFG_DEPENDENCY_OFF STD_OFF"
00001190 475f44455045 
00001196 4e44454e4359 
0000119c 5f4f46462053 

                                                                      Page 181
                                                              C:\Users\nhuliyap\AppData\Local\Temp\gh_000014o1.s
000011a2 54445f4f4646 
000011a8 00 
000011a9 01             8919 	.byte	1
000011aa 2f             8920 	.byte	47
000011ab 44454d5f4346   8921 	.strz	"DEM_CFG_DEPENDENCY_ON STD_ON"
000011b1 475f44455045 
000011b7 4e44454e4359 
000011bd 5f4f4e205354 
000011c3 445f4f4e00 
000011c8 01             8922 	.byte	1
000011c9 30             8923 	.byte	48
000011ca 44454d5f4346   8924 	.strz	"DEM_CFG_DEPENDENCY DEM_CFG_DEPENDENCY_OFF"
000011d0 475f44455045 
000011d6 4e44454e4359 
000011dc 2044454d5f43 
000011e2 46475f444550 
000011e8 454e44454e43 
000011ee 595f4f464600 
000011f4 01             8925 	.byte	1
000011f5 31             8926 	.byte	49
000011f6 44454d5f4346   8927 	.strz	"DEM_CFG_TESTMODE_SUPPORT_ON STD_ON"
000011fc 475f54455354 
00001202 4d4f44455f53 
00001208 5550504f5254 
0000120e 5f4f4e205354 
00001214 445f4f4e00 
00001219 01             8928 	.byte	1
0000121a 32             8929 	.byte	50
0000121b 44454d5f4346   8930 	.strz	"DEM_CFG_TESTMODE_SUPPORT_OFF STD_OFF"
00001221 475f54455354 
00001227 4d4f44455f53 
0000122d 5550504f5254 
00001233 5f4f46462053 
00001239 54445f4f4646 
0000123f 00 
00001240 01             8931 	.byte	1
00001241 33             8932 	.byte	51
00001242 44454d5f4346   8933 	.strz	"DEM_CFG_TESTMODE_SUPPORT DEM_CFG_TESTMODE_SUPPORT_OFF"
00001248 475f54455354 
0000124e 4d4f44455f53 
00001254 5550504f5254 
0000125a 2044454d5f43 
00001260 46475f544553 
00001266 544d4f44455f 
0000126c 535550504f52 
00001272 545f4f464600 
00001278 01             8934 	.byte	1
00001279 34             8935 	.byte	52
0000127a 44454d5f4346   8936 	.strz	"DEM_CFG_CHECKAPICONSISTENCY TRUE"
00001280 475f43484543 
00001286 4b415049434f 
0000128c 4e5349535445 
00001292 4e4359205452 
00001298 554500 
0000129b 01             8937 	.byte	1
0000129c 35             8938 	.byte	53
0000129d 44454d5f4346   8939 	.strz	"DEM_CFG_DEBUGDATA_OFF 0"
000012a3 475f44454255 
000012a9 47444154415f 
000012af 4f4646203000 
000012b5 01             8940 	.byte	1

                                                                      Page 182
                                                              C:\Users\nhuliyap\AppData\Local\Temp\gh_000014o1.s
000012b6 37             8941 	.byte	55
000012b7 44454d5f4346   8942 	.strz	"DEM_CFG_DEBUGDATA_32BIT (0+4)"
000012bd 475f44454255 
000012c3 47444154415f 
000012c9 333242495420 
000012cf 28302b342900 
000012d5 01             8943 	.byte	1
000012d6 38             8944 	.byte	56
000012d7 44454d5f4346   8945 	.strz	"DEM_CFG_DEBUGDATA DEM_CFG_DEBUGDATA_32BIT"
000012dd 475f44454255 
000012e3 474441544120 
000012e9 44454d5f4346 
000012ef 475f44454255 
000012f5 47444154415f 
000012fb 333242495400 
00001301 04             8946 	.byte	4
00001302 03             8947 	.byte	3
00001303 05             8948 	.byte	5
00001304 12             8949 	.byte	18
00001305 03             8950 	.byte	3
00001306 04             8951 	.byte	4
00001307 13             8952 	.byte	19
00001308 03             8953 	.byte	3
00001309 06             8954 	.byte	6
0000130a 10             8955 	.byte	16
0000130b 04             8956 	.byte	4
0000130c 04             8957 	.byte	4
0000130d 04             8958 	.byte	4
0000130e 03             8959 	.byte	3
0000130f 06             8960 	.byte	6
00001310 14             8961 	.byte	20
00001311 01             8962 	.byte	1
00001312 05             8963 	.byte	5
00001313 44454d5f4e4f   8964 	.strz	"DEM_NODEID_COUNT 6u"
00001319 444549445f43 
0000131f 4f554e542036 
00001325 7500 
00001327 01             8965 	.byte	1
00001328 06             8966 	.byte	6
00001329 44454d5f4e4f   8967 	.strz	"DEM_NODEID_ARRAYLENGTH (DEM_NODEID_COUNT+1u)"
0000132f 444549445f41 
00001335 525241594c45 
0000133b 4e4754482028 
00001341 44454d5f4e4f 
00001347 444549445f43 
0000134d 4f554e542b31 
00001353 752900 
00001356 04             8968 	.byte	4
00001357 03             8969 	.byte	3
00001358 07             8970 	.byte	7
00001359 15             8971 	.byte	21
0000135a 04             8972 	.byte	4
0000135b 03             8973 	.byte	3
0000135c 08             8974 	.byte	8
0000135d 16             8975 	.byte	22
0000135e 03             8976 	.byte	3
0000135f 06             8977 	.byte	6
00001360 17             8978 	.byte	23
00001361 04             8979 	.byte	4
00001362 04             8980 	.byte	4
00001363 01             8981 	.byte	1

                                                                      Page 183
                                                              C:\Users\nhuliyap\AppData\Local\Temp\gh_000014o1.s
00001364 10             8982 	.byte	16
00001365 44454d5f455f   8983 	.strz	"DEM_E_NO_DTC_AVAILABLE 2"
0000136b 4e4f5f445443 
00001371 5f415641494c 
00001377 41424c452032 
0000137d 00 
0000137e 01             8984 	.byte	1
0000137f 12             8985 	.byte	18
00001380 455f4e4f5f44   8986 	.strz	"E_NO_DTC_AVAILABLE DEM_E_NO_DTC_AVAILABLE"
00001386 54435f415641 
0000138c 494c41424c45 
00001392 2044454d5f45 
00001398 5f4e4f5f4454 
0000139e 435f41564149 
000013a4 4c41424c4500 
000013aa 01             8987 	.byte	1
000013ab 19             8988 	.byte	25
000013ac 44454d5f455f   8989 	.strz	"DEM_E_NO_FDC_AVAILABLE 3"
000013b2 4e4f5f464443 
000013b8 5f415641494c 
000013be 41424c452033 
000013c4 00 
000013c5 01             8990 	.byte	1
000013c6 1b             8991 	.byte	27
000013c7 455f4e4f5f46   8992 	.strz	"E_NO_FDC_AVAILABLE DEM_E_NO_FDC_AVAILABLE"
000013cd 44435f415641 
000013d3 494c41424c45 
000013d9 2044454d5f45 
000013df 5f4e4f5f4644 
000013e5 435f41564149 
000013eb 4c41424c4500 
000013f1 04             8993 	.byte	4
000013f2 03             8994 	.byte	3
000013f3 07             8995 	.byte	7
000013f4 18             8996 	.byte	24
000013f5 04             8997 	.byte	4
000013f6 03             8998 	.byte	3
000013f7 08             8999 	.byte	8
000013f8 19             9000 	.byte	25
000013f9 01             9001 	.byte	1
000013fa 08             9002 	.byte	8
000013fb 44454d5f4346   9003 	.strz	"DEM_CFG_EVCOMB_DISABLED 1u"
00001401 475f4556434f 
00001407 4d425f444953 
0000140d 41424c454420 
00001413 317500 
00001416 01             9004 	.byte	1
00001417 0b             9005 	.byte	11
00001418 44454d5f4346   9006 	.strz	"DEM_CFG_EVCOMB DEM_CFG_EVCOMB_DISABLED"
0000141e 475f4556434f 
00001424 4d422044454d 
0000142a 5f4346475f45 
00001430 56434f4d425f 
00001436 44495341424c 
0000143c 454400 
0000143f 04             9007 	.byte	4
00001440 03             9008 	.byte	3
00001441 0a             9009 	.byte	10
00001442 1a             9010 	.byte	26
00001443 01             9011 	.byte	1
00001444 1b             9012 	.byte	27

                                                                      Page 184
                                                              C:\Users\nhuliyap\AppData\Local\Temp\gh_000014o1.s
00001445 44454d5f4556   9013 	.strz	"DEM_EVENT_SUPPRESSION STD_ON"
0000144b 454e545f5355 
00001451 505052455353 
00001457 494f4e205354 
0000145d 445f4f4e00 
00001462 01             9014 	.byte	1
00001463 1c             9015 	.byte	28
00001464 44454d5f4454   9016 	.strz	"DEM_DTC_SUPPRESSION (STD_ON+STD_OFF+1)"
0000146a 435f53555050 
00001470 52455353494f 
00001476 4e2028535444 
0000147c 5f4f4e2b5354 
00001482 445f4f46462b 
00001488 312900 
0000148b 01             9017 	.byte	1
0000148c 1d             9018 	.byte	29
0000148d 44454d5f4556   9019 	.strz	"DEM_EVENT_AND_DTC_SUPPRESSION (DEM_DTC_SUPPRESSION+1)"
00001493 454e545f414e 
00001499 445f4454435f 
0000149f 535550505245 
000014a5 5353494f4e20 
000014ab 2844454d5f44 
000014b1 54435f535550 
000014b7 505245535349 
000014bd 4f4e2b312900 
000014c3 01             9020 	.byte	1
000014c4 1e             9021 	.byte	30
000014c5 44454d5f4346   9022 	.strz	"DEM_CFG_SUPPRESSION DEM_EVENT_SUPPRESSION"
000014cb 475f53555050 
000014d1 52455353494f 
000014d7 4e2044454d5f 
000014dd 4556454e545f 
000014e3 535550505245 
000014e9 5353494f4e00 
000014ef 04             9023 	.byte	4
000014f0 03             9024 	.byte	3
000014f1 0b             9025 	.byte	11
000014f2 1b             9026 	.byte	27
000014f3 04             9027 	.byte	4
000014f4 03             9028 	.byte	3
000014f5 0c             9029 	.byte	12
000014f6 1c             9030 	.byte	28
000014f7 01             9031 	.byte	1
000014f8 04             9032 	.byte	4
000014f9 44454d5f4346   9033 	.strz	"DEM_CFG_ENABLECONDITION_ON STD_ON"
000014ff 475f454e4142 
00001505 4c45434f4e44 
0000150b 4954494f4e5f 
00001511 4f4e20535444 
00001517 5f4f4e00 
0000151b 01             9034 	.byte	1
0000151c 05             9035 	.byte	5
0000151d 44454d5f4346   9036 	.strz	"DEM_CFG_ENABLECONDITION_OFF STD_OFF"
00001523 475f454e4142 
00001529 4c45434f4e44 
0000152f 4954494f4e5f 
00001535 4f4646205354 
0000153b 445f4f464600 
00001541 01             9037 	.byte	1
00001542 06             9038 	.byte	6
00001543 44454d5f4346   9039 	.strz	"DEM_CFG_ENABLECONDITION DEM_CFG_ENABLECONDITION_OFF"

                                                                      Page 185
                                                              C:\Users\nhuliyap\AppData\Local\Temp\gh_000014o1.s
00001549 475f454e4142 
0000154f 4c45434f4e44 
00001555 4954494f4e20 
0000155b 44454d5f4346 
00001561 475f454e4142 
00001567 4c45434f4e44 
0000156d 4954494f4e5f 
00001573 4f464600 
00001577 01             9040 	.byte	1
00001578 07             9041 	.byte	7
00001579 44454d5f454e   9042 	.strz	"DEM_ENABLECONDITION_COUNT 0u"
0000157f 41424c45434f 
00001585 4e444954494f 
0000158b 4e5f434f554e 
00001591 5420307500 
00001596 01             9043 	.byte	1
00001597 08             9044 	.byte	8
00001598 44454d5f454e   9045 	.strz	"DEM_ENABLECONDITION_ARRAYLENGTH (DEM_ENABLECONDITION_COUNT)"
0000159e 41424c45434f 
000015a4 4e444954494f 
000015aa 4e5f41525241 
000015b0 594c454e4754 
000015b6 48202844454d 
000015bc 5f454e41424c 
000015c2 45434f4e4449 
000015c8 54494f4e5f43 
000015ce 4f554e542900 
000015d4 04             9046 	.byte	4
000015d5 03             9047 	.byte	3
000015d6 0d             9048 	.byte	13
000015d7 1d             9049 	.byte	29
000015d8 01             9050 	.byte	1
000015d9 04             9051 	.byte	4
000015da 44454d5f4346   9052 	.strz	"DEM_CFG_EVTCATEGORY_OFF STD_OFF"
000015e0 475f45565443 
000015e6 415445474f52 
000015ec 595f4f464620 
000015f2 5354445f4f46 
000015f8 4600 
000015fa 01             9053 	.byte	1
000015fb 05             9054 	.byte	5
000015fc 44454d5f4346   9055 	.strz	"DEM_CFG_EVTCATEGORY_ON STD_ON"
00001602 475f45565443 
00001608 415445474f52 
0000160e 595f4f4e2053 
00001614 54445f4f4e00 
0000161a 01             9056 	.byte	1
0000161b 06             9057 	.byte	6
0000161c 44454d5f4346   9058 	.strz	"DEM_CFG_EVTCATEGORY DEM_CFG_EVTCATEGORY_OFF"
00001622 475f45565443 
00001628 415445474f52 
0000162e 592044454d5f 
00001634 4346475f4556 
0000163a 544341544547 
00001640 4f52595f4f46 
00001646 4600 
00001648 04             9059 	.byte	4
00001649 03             9060 	.byte	3
0000164a 0e             9061 	.byte	14
0000164b 1e             9062 	.byte	30
0000164c 01             9063 	.byte	1

                                                                      Page 186
                                                              C:\Users\nhuliyap\AppData\Local\Temp\gh_000014o1.s
0000164d 06             9064 	.byte	6
0000164e 44454d5f4346   9065 	.strz	"DEM_CFG_EVT_INDICATOR_OFF 0u"
00001654 475f4556545f 
0000165a 494e44494341 
00001660 544f525f4f46 
00001666 4620307500 
0000166b 01             9066 	.byte	1
0000166c 09             9067 	.byte	9
0000166d 44454d5f4346   9068 	.strz	"DEM_CFG_EVT_INDICATOR DEM_CFG_EVT_INDICATOR_OFF"
00001673 475f4556545f 
00001679 494e44494341 
0000167f 544f52204445 
00001685 4d5f4346475f 
0000168b 4556545f494e 
00001691 44494341544f 
00001697 525f4f464600 
0000169d 04             9069 	.byte	4
0000169e 03             9070 	.byte	3
0000169f 0f             9071 	.byte	15
000016a0 1f             9072 	.byte	31
000016a1 03             9073 	.byte	3
000016a2 06             9074 	.byte	6
000016a3 20             9075 	.byte	32
000016a4 04             9076 	.byte	4
000016a5 03             9077 	.byte	3
000016a6 07             9078 	.byte	7
000016a7 21             9079 	.byte	33
000016a8 04             9080 	.byte	4
000016a9 03             9081 	.byte	3
000016aa 08             9082 	.byte	8
000016ab 22             9083 	.byte	34
000016ac 04             9084 	.byte	4
000016ad 01             9085 	.byte	1
000016ae 10             9086 	.byte	16
000016af 44454d5f4f50   9087 	.strz	"DEM_OPERATIONCYCLE_COUNT 3"
000016b5 45524154494f 
000016bb 4e4359434c45 
000016c1 5f434f554e54 
000016c7 203300 
000016ca 04             9088 	.byte	4
000016cb 03             9089 	.byte	3
000016cc 10             9090 	.byte	16
000016cd 23             9091 	.byte	35
000016ce 01             9092 	.byte	1
000016cf 04             9093 	.byte	4
000016d0 44454d5f4346   9094 	.strz	"DEM_CFG_STORAGECONDITION_ON STD_ON"
000016d6 475f53544f52 
000016dc 414745434f4e 
000016e2 444954494f4e 
000016e8 5f4f4e205354 
000016ee 445f4f4e00 
000016f3 01             9095 	.byte	1
000016f4 05             9096 	.byte	5
000016f5 44454d5f4346   9097 	.strz	"DEM_CFG_STORAGECONDITION_OFF STD_OFF"
000016fb 475f53544f52 
00001701 414745434f4e 
00001707 444954494f4e 
0000170d 5f4f46462053 
00001713 54445f4f4646 
00001719 00 
0000171a 01             9098 	.byte	1

                                                                      Page 187
                                                              C:\Users\nhuliyap\AppData\Local\Temp\gh_000014o1.s
0000171b 06             9099 	.byte	6
0000171c 44454d5f4346   9100 	.strz	"DEM_CFG_STORAGECONDITION DEM_CFG_STORAGECONDITION_OFF"
00001722 475f53544f52 
00001728 414745434f4e 
0000172e 444954494f4e 
00001734 2044454d5f43 
0000173a 46475f53544f 
00001740 52414745434f 
00001746 4e444954494f 
0000174c 4e5f4f464600 
00001752 01             9101 	.byte	1
00001753 07             9102 	.byte	7
00001754 44454d5f5354   9103 	.strz	"DEM_STORAGECONDITION_COUNT 0u"
0000175a 4f5241474543 
00001760 4f4e44495449 
00001766 4f4e5f434f55 
0000176c 4e5420307500 
00001772 01             9104 	.byte	1
00001773 08             9105 	.byte	8
00001774 44454d5f5354   9106 	.strz	"DEM_STORAGECONDITION_ARRAYLENGTH (DEM_STORAGECONDITION_COUNT)"
0000177a 4f5241474543 
00001780 4f4e44495449 
00001786 4f4e5f415252 
0000178c 41594c454e47 
00001792 544820284445 
00001798 4d5f53544f52 
0000179e 414745434f4e 
000017a4 444954494f4e 
000017aa 5f434f554e54 
000017b0 2900 
000017b2 04             9107 	.byte	4
000017b3 03             9108 	.byte	3
000017b4 11             9109 	.byte	17
000017b5 24             9110 	.byte	36
000017b6 01             9111 	.byte	1
000017b7 08             9112 	.byte	8
000017b8 44454d5f5354   9113 	.strz	"DEM_START_SEC_ROM_CODE "
000017be 4152545f5345 
000017c4 435f524f4d5f 
000017ca 434f44452000 
000017d0 03             9114 	.byte	3
000017d1 09             9115 	.byte	9
000017d2 25             9116 	.byte	37
000017d3 01             9117 	.byte	1
000017d4 06             9118 	.byte	6
000017d5 44454d5f4d45   9119 	.strz	"DEM_MEMMAP_ERROR "
000017db 4d4d41505f45 
000017e1 52524f522000 
000017e7 01             9120 	.byte	1
000017e8 51             9121 	.byte	81
000017e9 4253575f5354   9122 	.strz	"BSW_START_SEC_CODE "
000017ef 4152545f5345 
000017f5 435f434f4445 
000017fb 2000 
000017fd 03             9123 	.byte	3
000017fe 52             9124 	.byte	82
000017ff 26             9125 	.byte	38
00001800 01             9126 	.byte	1
00001801 da08           9127 	.byte	218,8
00001803 53544152545f   9128 	.strz	"START_SEC_CODE "
00001809 5345435f434f 

                                                                      Page 188
                                                              C:\Users\nhuliyap\AppData\Local\Temp\gh_000014o1.s
0000180f 44452000 
00001813 03             9129 	.byte	3
00001814 bb09           9130 	.byte	187,9
00001816 27             9131 	.byte	39
00001817 01             9132 	.byte	1
00001818 f307           9133 	.byte	243,7
0000181a 434f44455f53   9134 	.strz	"CODE_SEC_OPEN "
00001820 45435f4f5045 
00001826 4e2000 
00001829 04             9135 	.byte	4
0000182a 04             9136 	.byte	4
0000182b 01             9137 	.byte	1
0000182c 56             9138 	.byte	86
0000182d 44454d5f5741   9139 	.strz	"DEM_WAS_STARTED_SEC_ROM_CODE "
00001833 535f53544152 
00001839 5445445f5345 
0000183f 435f524f4d5f 
00001845 434f44452000 
0000184b 04             9140 	.byte	4
0000184c 01             9141 	.byte	1
0000184d 0f             9142 	.byte	15
0000184e 44454d5f5354   9143 	.strz	"DEM_STOP_SEC_ROM_CODE "
00001854 4f505f534543 
0000185a 5f524f4d5f43 
00001860 4f44452000 
00001865 03             9144 	.byte	3
00001866 10             9145 	.byte	16
00001867 25             9146 	.byte	37
00001868 01             9147 	.byte	1
00001869 06             9148 	.byte	6
0000186a 44454d5f4d45   9149 	.strz	"DEM_MEMMAP_ERROR "
00001870 4d4d41505f45 
00001876 52524f522000 
0000187c 01             9150 	.byte	1
0000187d 5e             9151 	.byte	94
0000187e 4253575f5354   9152 	.strz	"BSW_STOP_SEC_CODE "
00001884 4f505f534543 
0000188a 5f434f444520 
00001890 00 
00001891 03             9153 	.byte	3
00001892 5f             9154 	.byte	95
00001893 26             9155 	.byte	38
00001894 01             9156 	.byte	1
00001895 de08           9157 	.byte	222,8
00001897 53544f505f53   9158 	.strz	"STOP_SEC_CODE "
0000189d 45435f434f44 
000018a3 452000 
000018a6 03             9159 	.byte	3
000018a7 bb09           9160 	.byte	187,9
000018a9 27             9161 	.byte	39
000018aa 04             9162 	.byte	4
000018ab 04             9163 	.byte	4
000018ac 04             9164 	.byte	4
000018ad 04             9165 	.byte	4
000018ae 03             9166 	.byte	3
000018af 12             9167 	.byte	18
000018b0 28             9168 	.byte	40
000018b1 03             9169 	.byte	3
000018b2 05             9170 	.byte	5
000018b3 29             9171 	.byte	41
000018b4 03             9172 	.byte	3

                                                                      Page 189
                                                              C:\Users\nhuliyap\AppData\Local\Temp\gh_000014o1.s
000018b5 06             9173 	.byte	6
000018b6 2a             9174 	.byte	42
000018b7 04             9175 	.byte	4
000018b8 04             9176 	.byte	4
000018b9 01             9177 	.byte	1
000018ba 07             9178 	.byte	7
000018bb 44454d5f5354   9179 	.strz	"DEM_START_SEC_ROM_CODE "
000018c1 4152545f5345 
000018c7 435f524f4d5f 
000018cd 434f44452000 
000018d3 03             9180 	.byte	3
000018d4 08             9181 	.byte	8
000018d5 25             9182 	.byte	37
000018d6 01             9183 	.byte	1
000018d7 06             9184 	.byte	6
000018d8 44454d5f4d45   9185 	.strz	"DEM_MEMMAP_ERROR "
000018de 4d4d41505f45 
000018e4 52524f522000 
000018ea 01             9186 	.byte	1
000018eb 51             9187 	.byte	81
000018ec 4253575f5354   9188 	.strz	"BSW_START_SEC_CODE "
000018f2 4152545f5345 
000018f8 435f434f4445 
000018fe 2000 
00001900 03             9189 	.byte	3
00001901 52             9190 	.byte	82
00001902 26             9191 	.byte	38
00001903 01             9192 	.byte	1
00001904 da08           9193 	.byte	218,8
00001906 53544152545f   9194 	.strz	"START_SEC_CODE "
0000190c 5345435f434f 
00001912 44452000 
00001916 03             9195 	.byte	3
00001917 bb09           9196 	.byte	187,9
00001919 27             9197 	.byte	39
0000191a 01             9198 	.byte	1
0000191b f307           9199 	.byte	243,7
0000191d 434f44455f53   9200 	.strz	"CODE_SEC_OPEN "
00001923 45435f4f5045 
00001929 4e2000 
0000192c 04             9201 	.byte	4
0000192d 04             9202 	.byte	4
0000192e 01             9203 	.byte	1
0000192f 56             9204 	.byte	86
00001930 44454d5f5741   9205 	.strz	"DEM_WAS_STARTED_SEC_ROM_CODE "
00001936 535f53544152 
0000193c 5445445f5345 
00001942 435f524f4d5f 
00001948 434f44452000 
0000194e 04             9206 	.byte	4
0000194f 01             9207 	.byte	1
00001950 53             9208 	.byte	83
00001951 44454d5f5354   9209 	.strz	"DEM_STOP_SEC_ROM_CODE "
00001957 4f505f534543 
0000195d 5f524f4d5f43 
00001963 4f44452000 
00001968 03             9210 	.byte	3
00001969 54             9211 	.byte	84
0000196a 25             9212 	.byte	37
0000196b 01             9213 	.byte	1
0000196c 06             9214 	.byte	6

                                                                      Page 190
                                                              C:\Users\nhuliyap\AppData\Local\Temp\gh_000014o1.s
0000196d 44454d5f4d45   9215 	.strz	"DEM_MEMMAP_ERROR "
00001973 4d4d41505f45 
00001979 52524f522000 
0000197f 01             9216 	.byte	1
00001980 5e             9217 	.byte	94
00001981 4253575f5354   9218 	.strz	"BSW_STOP_SEC_CODE "
00001987 4f505f534543 
0000198d 5f434f444520 
00001993 00 
00001994 03             9219 	.byte	3
00001995 5f             9220 	.byte	95
00001996 26             9221 	.byte	38
00001997 01             9222 	.byte	1
00001998 de08           9223 	.byte	222,8
0000199a 53544f505f53   9224 	.strz	"STOP_SEC_CODE "
000019a0 45435f434f44 
000019a6 452000 
000019a9 03             9225 	.byte	3
000019aa bb09           9226 	.byte	187,9
000019ac 27             9227 	.byte	39
000019ad 04             9228 	.byte	4
000019ae 04             9229 	.byte	4
000019af 04             9230 	.byte	4
000019b0 04             9231 	.byte	4
000019b1 03             9232 	.byte	3
000019b2 13             9233 	.byte	19
000019b3 2b             9234 	.byte	43
000019b4 04             9235 	.byte	4
000019b5 01             9236 	.byte	1
000019b6 19             9237 	.byte	25
000019b7 44454d5f5354   9238 	.strz	"DEM_START_SEC_ROM_CODE "
000019bd 4152545f5345 
000019c3 435f524f4d5f 
000019c9 434f44452000 
000019cf 03             9239 	.byte	3
000019d0 1a             9240 	.byte	26
000019d1 25             9241 	.byte	37
000019d2 01             9242 	.byte	1
000019d3 06             9243 	.byte	6
000019d4 44454d5f4d45   9244 	.strz	"DEM_MEMMAP_ERROR "
000019da 4d4d41505f45 
000019e0 52524f522000 
000019e6 01             9245 	.byte	1
000019e7 51             9246 	.byte	81
000019e8 4253575f5354   9247 	.strz	"BSW_START_SEC_CODE "
000019ee 4152545f5345 
000019f4 435f434f4445 
000019fa 2000 
000019fc 03             9248 	.byte	3
000019fd 52             9249 	.byte	82
000019fe 26             9250 	.byte	38
000019ff 01             9251 	.byte	1
00001a00 da08           9252 	.byte	218,8
00001a02 53544152545f   9253 	.strz	"START_SEC_CODE "
00001a08 5345435f434f 
00001a0e 44452000 
00001a12 03             9254 	.byte	3
00001a13 bb09           9255 	.byte	187,9
00001a15 27             9256 	.byte	39
00001a16 01             9257 	.byte	1
00001a17 f307           9258 	.byte	243,7

                                                                      Page 191
                                                              C:\Users\nhuliyap\AppData\Local\Temp\gh_000014o1.s
00001a19 434f44455f53   9259 	.strz	"CODE_SEC_OPEN "
00001a1f 45435f4f5045 
00001a25 4e2000 
00001a28 04             9260 	.byte	4
00001a29 04             9261 	.byte	4
00001a2a 01             9262 	.byte	1
00001a2b 56             9263 	.byte	86
00001a2c 44454d5f5741   9264 	.strz	"DEM_WAS_STARTED_SEC_ROM_CODE "
00001a32 535f53544152 
00001a38 5445445f5345 
00001a3e 435f524f4d5f 
00001a44 434f44452000 
00001a4a 04             9265 	.byte	4
00001a4b 01             9266 	.byte	1
00001a4c c401           9267 	.byte	196,1
00001a4e 44454d5f5354   9268 	.strz	"DEM_STOP_SEC_ROM_CODE "
00001a54 4f505f534543 
00001a5a 5f524f4d5f43 
00001a60 4f44452000 
00001a65 03             9269 	.byte	3
00001a66 c501           9270 	.byte	197,1
00001a68 25             9271 	.byte	37
00001a69 01             9272 	.byte	1
00001a6a 06             9273 	.byte	6
00001a6b 44454d5f4d45   9274 	.strz	"DEM_MEMMAP_ERROR "
00001a71 4d4d41505f45 
00001a77 52524f522000 
00001a7d 01             9275 	.byte	1
00001a7e 5e             9276 	.byte	94
00001a7f 4253575f5354   9277 	.strz	"BSW_STOP_SEC_CODE "
00001a85 4f505f534543 
00001a8b 5f434f444520 
00001a91 00 
00001a92 03             9278 	.byte	3
00001a93 5f             9279 	.byte	95
00001a94 26             9280 	.byte	38
00001a95 01             9281 	.byte	1
00001a96 de08           9282 	.byte	222,8
00001a98 53544f505f53   9283 	.strz	"STOP_SEC_CODE "
00001a9e 45435f434f44 
00001aa4 452000 
00001aa7 03             9284 	.byte	3
00001aa8 bb09           9285 	.byte	187,9
00001aaa 27             9286 	.byte	39
00001aab 04             9287 	.byte	4
00001aac 04             9288 	.byte	4
00001aad 04             9289 	.byte	4
00001aae 01             9290 	.byte	1
00001aaf c701           9291 	.byte	199,1
00001ab1 44454d5f5354   9292 	.strz	"DEM_START_SEC_ROM_CONST "
00001ab7 4152545f5345 
00001abd 435f524f4d5f 
00001ac3 434f4e535420 
00001ac9 00 
00001aca 03             9293 	.byte	3
00001acb c801           9294 	.byte	200,1
00001acd 25             9295 	.byte	37
00001ace 01             9296 	.byte	1
00001acf 06             9297 	.byte	6
00001ad0 44454d5f4d45   9298 	.strz	"DEM_MEMMAP_ERROR "
00001ad6 4d4d41505f45 

                                                                      Page 192
                                                              C:\Users\nhuliyap\AppData\Local\Temp\gh_000014o1.s
00001adc 52524f522000 
00001ae2 01             9299 	.byte	1
00001ae3 3a             9300 	.byte	58
00001ae4 4253575f5354   9301 	.strz	"BSW_START_SEC_CONST_UNSPECIFIED "
00001aea 4152545f5345 
00001af0 435f434f4e53 
00001af6 545f554e5350 
00001afc 454349464945 
00001b02 442000 
00001b05 03             9302 	.byte	3
00001b06 3b             9303 	.byte	59
00001b07 26             9304 	.byte	38
00001b08 01             9305 	.byte	1
00001b09 f005           9306 	.byte	240,5
00001b0b 53544152545f   9307 	.strz	"START_SEC_CONST_UNSPECIFIED "
00001b11 5345435f434f 
00001b17 4e53545f554e 
00001b1d 535045434946 
00001b23 4945442000 
00001b28 03             9308 	.byte	3
00001b29 bb09           9309 	.byte	187,9
00001b2b 27             9310 	.byte	39
00001b2c 01             9311 	.byte	1
00001b2d b408           9312 	.byte	180,8
00001b2f 434f4e53545f   9313 	.strz	"CONST_SEC_OPEN "
00001b35 5345435f4f50 
00001b3b 454e2000 
00001b3f 04             9314 	.byte	4
00001b40 04             9315 	.byte	4
00001b41 01             9316 	.byte	1
00001b42 3f             9317 	.byte	63
00001b43 44454d5f5741   9318 	.strz	"DEM_WAS_STARTED_SEC_ROM_CONST "
00001b49 535f53544152 
00001b4f 5445445f5345 
00001b55 435f524f4d5f 
00001b5b 434f4e535420 
00001b61 00 
00001b62 04             9319 	.byte	4
00001b63 01             9320 	.byte	1
00001b64 ca01           9321 	.byte	202,1
00001b66 44454d5f5354   9322 	.strz	"DEM_STOP_SEC_ROM_CONST "
00001b6c 4f505f534543 
00001b72 5f524f4d5f43 
00001b78 4f4e53542000 
00001b7e 03             9323 	.byte	3
00001b7f cb01           9324 	.byte	203,1
00001b81 25             9325 	.byte	37
00001b82 01             9326 	.byte	1
00001b83 06             9327 	.byte	6
00001b84 44454d5f4d45   9328 	.strz	"DEM_MEMMAP_ERROR "
00001b8a 4d4d41505f45 
00001b90 52524f522000 
00001b96 01             9329 	.byte	1
00001b97 47             9330 	.byte	71
00001b98 4253575f5354   9331 	.strz	"BSW_STOP_SEC_CONST_UNSPECIFIED "
00001b9e 4f505f534543 
00001ba4 5f434f4e5354 
00001baa 5f554e535045 
00001bb0 434946494544 
00001bb6 2000 
00001bb8 03             9332 	.byte	3

                                                                      Page 193
                                                              C:\Users\nhuliyap\AppData\Local\Temp\gh_000014o1.s
00001bb9 48             9333 	.byte	72
00001bba 26             9334 	.byte	38
00001bbb 01             9335 	.byte	1
00001bbc f405           9336 	.byte	244,5
00001bbe 53544f505f53   9337 	.strz	"STOP_SEC_CONST "
00001bc4 45435f434f4e 
00001bca 53542000 
00001bce 03             9338 	.byte	3
00001bcf bb09           9339 	.byte	187,9
00001bd1 27             9340 	.byte	39
00001bd2 04             9341 	.byte	4
00001bd3 04             9342 	.byte	4
00001bd4 04             9343 	.byte	4
00001bd5 01             9344 	.byte	1
00001bd6 cd01           9345 	.byte	205,1
00001bd8 44454d5f5354   9346 	.strz	"DEM_START_SEC_ROM_CODE "
00001bde 4152545f5345 
00001be4 435f524f4d5f 
00001bea 434f44452000 
00001bf0 03             9347 	.byte	3
00001bf1 ce01           9348 	.byte	206,1
00001bf3 25             9349 	.byte	37
00001bf4 01             9350 	.byte	1
00001bf5 06             9351 	.byte	6
00001bf6 44454d5f4d45   9352 	.strz	"DEM_MEMMAP_ERROR "
00001bfc 4d4d41505f45 
00001c02 52524f522000 
00001c08 01             9353 	.byte	1
00001c09 51             9354 	.byte	81
00001c0a 4253575f5354   9355 	.strz	"BSW_START_SEC_CODE "
00001c10 4152545f5345 
00001c16 435f434f4445 
00001c1c 2000 
00001c1e 03             9356 	.byte	3
00001c1f 52             9357 	.byte	82
00001c20 26             9358 	.byte	38
00001c21 01             9359 	.byte	1
00001c22 da08           9360 	.byte	218,8
00001c24 53544152545f   9361 	.strz	"START_SEC_CODE "
00001c2a 5345435f434f 
00001c30 44452000 
00001c34 03             9362 	.byte	3
00001c35 bb09           9363 	.byte	187,9
00001c37 27             9364 	.byte	39
00001c38 01             9365 	.byte	1
00001c39 f307           9366 	.byte	243,7
00001c3b 434f44455f53   9367 	.strz	"CODE_SEC_OPEN "
00001c41 45435f4f5045 
00001c47 4e2000 
00001c4a 04             9368 	.byte	4
00001c4b 04             9369 	.byte	4
00001c4c 01             9370 	.byte	1
00001c4d 56             9371 	.byte	86
00001c4e 44454d5f5741   9372 	.strz	"DEM_WAS_STARTED_SEC_ROM_CODE "
00001c54 535f53544152 
00001c5a 5445445f5345 
00001c60 435f524f4d5f 
00001c66 434f44452000 
00001c6c 04             9373 	.byte	4
00001c6d 01             9374 	.byte	1
00001c6e d201           9375 	.byte	210,1

                                                                      Page 194
                                                              C:\Users\nhuliyap\AppData\Local\Temp\gh_000014o1.s
00001c70 44454d5f5354   9376 	.strz	"DEM_STOP_SEC_ROM_CODE "
00001c76 4f505f534543 
00001c7c 5f524f4d5f43 
00001c82 4f44452000 
00001c87 03             9377 	.byte	3
00001c88 d301           9378 	.byte	211,1
00001c8a 25             9379 	.byte	37
00001c8b 01             9380 	.byte	1
00001c8c 06             9381 	.byte	6
00001c8d 44454d5f4d45   9382 	.strz	"DEM_MEMMAP_ERROR "
00001c93 4d4d41505f45 
00001c99 52524f522000 
00001c9f 01             9383 	.byte	1
00001ca0 5e             9384 	.byte	94
00001ca1 4253575f5354   9385 	.strz	"BSW_STOP_SEC_CODE "
00001ca7 4f505f534543 
00001cad 5f434f444520 
00001cb3 00 
00001cb4 03             9386 	.byte	3
00001cb5 5f             9387 	.byte	95
00001cb6 26             9388 	.byte	38
00001cb7 01             9389 	.byte	1
00001cb8 de08           9390 	.byte	222,8
00001cba 53544f505f53   9391 	.strz	"STOP_SEC_CODE "
00001cc0 45435f434f44 
00001cc6 452000 
00001cc9 03             9392 	.byte	3
00001cca bb09           9393 	.byte	187,9
00001ccc 27             9394 	.byte	39
00001ccd 04             9395 	.byte	4
00001cce 04             9396 	.byte	4
00001ccf 04             9397 	.byte	4
00001cd0 04             9398 	.byte	4
00001cd1 01             9399 	.byte	1
00001cd2 2b             9400 	.byte	43
00001cd3 43414e534d5f   9401 	.strz	"CANSM_VERSION_INFO_API STD_OFF"
00001cd9 56455253494f 
00001cdf 4e5f494e464f 
00001ce5 5f4150492053 
00001ceb 54445f4f4646 
00001cf1 00 
00001cf2 01             9402 	.byte	1
00001cf3 2d             9403 	.byte	45
00001cf4 43414e534d5f   9404 	.strz	"CANSM_SET_BAUDRATE_API STD_OFF"
00001cfa 5345545f4241 
00001d00 554452415445 
00001d06 5f4150492053 
00001d0c 54445f4f4646 
00001d12 00 
00001d13 01             9405 	.byte	1
00001d14 2e             9406 	.byte	46
00001d15 43414e534d5f   9407 	.strz	"CANSM_BOR_TX_CONFIRMATION_POLLING STD_OFF"
00001d1b 424f525f5458 
00001d21 5f434f4e4649 
00001d27 524d4154494f 
00001d2d 4e5f504f4c4c 
00001d33 494e47205354 
00001d39 445f4f464600 
00001d3f 01             9408 	.byte	1
00001d40 2f             9409 	.byte	47
00001d41 43414e534d5f   9410 	.strz	"CANSM_VARIANT_PRE_COMPILE 1"

                                                                      Page 195
                                                              C:\Users\nhuliyap\AppData\Local\Temp\gh_000014o1.s
00001d47 56415249414e 
00001d4d 545f5052455f 
00001d53 434f4d50494c 
00001d59 45203100 
00001d5d 01             9411 	.byte	1
00001d5e 31             9412 	.byte	49
00001d5f 43414e534d5f   9413 	.strz	"CANSM_VARIANT_INFO CANSM_VARIANT_PRE_COMPILE"
00001d65 56415249414e 
00001d6b 545f494e464f 
00001d71 2043414e534d 
00001d77 5f5641524941 
00001d7d 4e545f505245 
00001d83 5f434f4d5049 
00001d89 4c4500 
00001d8c 01             9414 	.byte	1
00001d8d 34             9415 	.byte	52
00001d8e 43414e534d5f   9416 	.strz	"CANSM_TX_OFFLINE_ACTIVE_SUPPORT STD_OFF"
00001d94 54585f4f4646 
00001d9a 4c494e455f41 
00001da0 43544956455f 
00001da6 535550504f52 
00001dac 54205354445f 
00001db2 4f464600 
00001db6 01             9417 	.byte	1
00001db7 35             9418 	.byte	53
00001db8 43414e534d5f   9419 	.strz	"CANSM_DSM_REINIT_ENABLED STD_OFF"
00001dbe 44534d5f5245 
00001dc4 494e49545f45 
00001dca 4e41424c4544 
00001dd0 205354445f4f 
00001dd6 464600 
00001dd9 01             9420 	.byte	1
00001dda 36             9421 	.byte	54
00001ddb 43414e534d5f   9422 	.strz	"CANSM_NUM_CAN_NETWORKS 1u"
00001de1 4e554d5f4341 
00001de7 4e5f4e455457 
00001ded 4f524b532031 
00001df3 7500 
00001df5 01             9423 	.byte	1
00001df6 37             9424 	.byte	55
00001df7 43414e534d5f   9425 	.strz	"CANSM_NUM_CAN_CONTROLLERS 1u"
00001dfd 4e554d5f4341 
00001e03 4e5f434f4e54 
00001e09 524f4c4c4552 
00001e0f 5320317500 
00001e14 01             9426 	.byte	1
00001e15 38             9427 	.byte	56
00001e16 43414e534d5f   9428 	.strz	"CANSM_PN_SUPPORT_CONFIGD STD_OFF"
00001e1c 504e5f535550 
00001e22 504f52545f43 
00001e28 4f4e46494744 
00001e2e 205354445f4f 
00001e34 464600 
00001e37 01             9429 	.byte	1
00001e38 39             9430 	.byte	57
00001e39 43414e534d5f   9431 	.strz	"CANSM_CFG_TRCV_CANIF_SUPPORT STD_OFF"
00001e3f 4346475f5452 
00001e45 43565f43414e 
00001e4b 49465f535550 
00001e51 504f52542053 
00001e57 54445f4f4646 

                                                                      Page 196
                                                              C:\Users\nhuliyap\AppData\Local\Temp\gh_000014o1.s
00001e5d 00 
00001e5e 01             9432 	.byte	1
00001e5f 3c             9433 	.byte	60
00001e60 43414e534d5f   9434 	.strz	"CANSM_START_SEC_CONST_8 "
00001e66 53544152545f 
00001e6c 5345435f434f 
00001e72 4e53545f3820 
00001e78 00 
00001e79 03             9435 	.byte	3
00001e7a 3d             9436 	.byte	61
00001e7b 2c             9437 	.byte	44
00001e7c 01             9438 	.byte	1
00001e7d 05             9439 	.byte	5
00001e7e 4d454d4d4150   9440 	.strz	"MEMMAP_ERROR "
00001e84 5f4552524f52 
00001e8a 2000 
00001e8c 01             9441 	.byte	1
00001e8d 31             9442 	.byte	49
00001e8e 4253575f5354   9443 	.strz	"BSW_START_SEC_CONST_8 "
00001e94 4152545f5345 
00001e9a 435f434f4e53 
00001ea0 545f382000 
00001ea5 03             9444 	.byte	3
00001ea6 32             9445 	.byte	50
00001ea7 26             9446 	.byte	38
00001ea8 01             9447 	.byte	1
00001ea9 dc05           9448 	.byte	220,5
00001eab 53544152545f   9449 	.strz	"START_SEC_CONST_8 "
00001eb1 5345435f434f 
00001eb7 4e53545f3820 
00001ebd 00 
00001ebe 03             9450 	.byte	3
00001ebf bb09           9451 	.byte	187,9
00001ec1 27             9452 	.byte	39
00001ec2 01             9453 	.byte	1
00001ec3 02             9454 	.byte	2
00001ec4 53544152545f   9455 	.strz	"START_SEC_CONST_8BIT "
00001eca 5345435f434f 
00001ed0 4e53545f3842 
00001ed6 49542000 
00001eda 01             9456 	.byte	1
00001edb 8f08           9457 	.byte	143,8
00001edd 434f4e53545f   9458 	.strz	"CONST_SEC_OPEN "
00001ee3 5345435f4f50 
00001ee9 454e2000 
00001eed 04             9459 	.byte	4
00001eee 04             9460 	.byte	4
00001eef 04             9461 	.byte	4
00001ef0 01             9462 	.byte	1
00001ef1 3f             9463 	.byte	63
00001ef2 43414e534d5f   9464 	.strz	"CANSM_STOP_SEC_CONST_8 "
00001ef8 53544f505f53 
00001efe 45435f434f4e 
00001f04 53545f382000 
00001f0a 03             9465 	.byte	3
00001f0b 40             9466 	.byte	64
00001f0c 2c             9467 	.byte	44
00001f0d 01             9468 	.byte	1
00001f0e 05             9469 	.byte	5
00001f0f 4d454d4d4150   9470 	.strz	"MEMMAP_ERROR "
00001f15 5f4552524f52 

                                                                      Page 197
                                                              C:\Users\nhuliyap\AppData\Local\Temp\gh_000014o1.s
00001f1b 2000 
00001f1d 01             9471 	.byte	1
00001f1e 36             9472 	.byte	54
00001f1f 4253575f5354   9473 	.strz	"BSW_STOP_SEC_CONST_8 "
00001f25 4f505f534543 
00001f2b 5f434f4e5354 
00001f31 5f382000 
00001f35 03             9474 	.byte	3
00001f36 37             9475 	.byte	55
00001f37 26             9476 	.byte	38
00001f38 01             9477 	.byte	1
00001f39 e005           9478 	.byte	224,5
00001f3b 53544f505f53   9479 	.strz	"STOP_SEC_CONST "
00001f41 45435f434f4e 
00001f47 53542000 
00001f4b 03             9480 	.byte	3
00001f4c bb09           9481 	.byte	187,9
00001f4e 27             9482 	.byte	39
00001f4f 04             9483 	.byte	4
00001f50 04             9484 	.byte	4
00001f51 04             9485 	.byte	4
00001f52 04             9486 	.byte	4
00001f53 01             9487 	.byte	1
00001f54 0d             9488 	.byte	13
00001f55 43414e534d5f   9489 	.strz	"CANSM_START_SEC_CODE "
00001f5b 53544152545f 
00001f61 5345435f434f 
00001f67 44452000 
00001f6b 03             9490 	.byte	3
00001f6c 0e             9491 	.byte	14
00001f6d 2c             9492 	.byte	44
00001f6e 01             9493 	.byte	1
00001f6f 05             9494 	.byte	5
00001f70 4d454d4d4150   9495 	.strz	"MEMMAP_ERROR "
00001f76 5f4552524f52 
00001f7c 2000 
00001f7e 01             9496 	.byte	1
00001f7f 9a01           9497 	.byte	154,1
00001f81 4253575f5354   9498 	.strz	"BSW_START_SEC_CODE "
00001f87 4152545f5345 
00001f8d 435f434f4445 
00001f93 2000 
00001f95 03             9499 	.byte	3
00001f96 9b01           9500 	.byte	155,1
00001f98 26             9501 	.byte	38
00001f99 01             9502 	.byte	1
00001f9a da08           9503 	.byte	218,8
00001f9c 53544152545f   9504 	.strz	"START_SEC_CODE "
00001fa2 5345435f434f 
00001fa8 44452000 
00001fac 03             9505 	.byte	3
00001fad bb09           9506 	.byte	187,9
00001faf 27             9507 	.byte	39
00001fb0 01             9508 	.byte	1
00001fb1 f307           9509 	.byte	243,7
00001fb3 434f44455f53   9510 	.strz	"CODE_SEC_OPEN "
00001fb9 45435f4f5045 
00001fbf 4e2000 
00001fc2 04             9511 	.byte	4
00001fc3 04             9512 	.byte	4
00001fc4 04             9513 	.byte	4

                                                                      Page 198
                                                              C:\Users\nhuliyap\AppData\Local\Temp\gh_000014o1.s
00001fc5 01             9514 	.byte	1
00001fc6 15             9515 	.byte	21
00001fc7 43414e534d5f   9516 	.strz	"CANSM_STOP_SEC_CODE "
00001fcd 53544f505f53 
00001fd3 45435f434f44 
00001fd9 452000 
00001fdc 03             9517 	.byte	3
00001fdd 16             9518 	.byte	22
00001fde 2c             9519 	.byte	44
00001fdf 01             9520 	.byte	1
00001fe0 05             9521 	.byte	5
00001fe1 4d454d4d4150   9522 	.strz	"MEMMAP_ERROR "
00001fe7 5f4552524f52 
00001fed 2000 
00001fef 01             9523 	.byte	1
00001ff0 9f01           9524 	.byte	159,1
00001ff2 4253575f5354   9525 	.strz	"BSW_STOP_SEC_CODE "
00001ff8 4f505f534543 
00001ffe 5f434f444520 
00002004 00 
00002005 03             9526 	.byte	3
00002006 a001           9527 	.byte	160,1
00002008 26             9528 	.byte	38
00002009 01             9529 	.byte	1
0000200a de08           9530 	.byte	222,8
0000200c 53544f505f53   9531 	.strz	"STOP_SEC_CODE "
00002012 45435f434f44 
00002018 452000 
0000201b 03             9532 	.byte	3
0000201c bb09           9533 	.byte	187,9
0000201e 27             9534 	.byte	39
0000201f 04             9535 	.byte	4
00002020 04             9536 	.byte	4
00002021 04             9537 	.byte	4
00002022 01             9538 	.byte	1
00002023 18             9539 	.byte	24
00002024 43414e534d5f   9540 	.strz	"CANSM_START_SEC_CODE "
0000202a 53544152545f 
00002030 5345435f434f 
00002036 44452000 
0000203a 03             9541 	.byte	3
0000203b 19             9542 	.byte	25
0000203c 2c             9543 	.byte	44
0000203d 01             9544 	.byte	1
0000203e 05             9545 	.byte	5
0000203f 4d454d4d4150   9546 	.strz	"MEMMAP_ERROR "
00002045 5f4552524f52 
0000204b 2000 
0000204d 01             9547 	.byte	1
0000204e 9a01           9548 	.byte	154,1
00002050 4253575f5354   9549 	.strz	"BSW_START_SEC_CODE "
00002056 4152545f5345 
0000205c 435f434f4445 
00002062 2000 
00002064 03             9550 	.byte	3
00002065 9b01           9551 	.byte	155,1
00002067 26             9552 	.byte	38
00002068 01             9553 	.byte	1
00002069 da08           9554 	.byte	218,8
0000206b 53544152545f   9555 	.strz	"START_SEC_CODE "
00002071 5345435f434f 

                                                                      Page 199
                                                              C:\Users\nhuliyap\AppData\Local\Temp\gh_000014o1.s
00002077 44452000 
0000207b 03             9556 	.byte	3
0000207c bb09           9557 	.byte	187,9
0000207e 27             9558 	.byte	39
0000207f 01             9559 	.byte	1
00002080 f307           9560 	.byte	243,7
00002082 434f44455f53   9561 	.strz	"CODE_SEC_OPEN "
00002088 45435f4f5045 
0000208e 4e2000 
00002091 04             9562 	.byte	4
00002092 04             9563 	.byte	4
00002093 04             9564 	.byte	4
00002094 01             9565 	.byte	1
00002095 31             9566 	.byte	49
00002096 43414e534d5f   9567 	.strz	"CANSM_STOP_SEC_CODE "
0000209c 53544f505f53 
000020a2 45435f434f44 
000020a8 452000 
000020ab 03             9568 	.byte	3
000020ac 32             9569 	.byte	50
000020ad 2c             9570 	.byte	44
000020ae 01             9571 	.byte	1
000020af 05             9572 	.byte	5
000020b0 4d454d4d4150   9573 	.strz	"MEMMAP_ERROR "
000020b6 5f4552524f52 
000020bc 2000 
000020be 01             9574 	.byte	1
000020bf 9f01           9575 	.byte	159,1
000020c1 4253575f5354   9576 	.strz	"BSW_STOP_SEC_CODE "
000020c7 4f505f534543 
000020cd 5f434f444520 
000020d3 00 
000020d4 03             9577 	.byte	3
000020d5 a001           9578 	.byte	160,1
000020d7 26             9579 	.byte	38
000020d8 01             9580 	.byte	1
000020d9 de08           9581 	.byte	222,8
000020db 53544f505f53   9582 	.strz	"STOP_SEC_CODE "
000020e1 45435f434f44 
000020e7 452000 
000020ea 03             9583 	.byte	3
000020eb bb09           9584 	.byte	187,9
000020ed 27             9585 	.byte	39
000020ee 04             9586 	.byte	4
000020ef 04             9587 	.byte	4
000020f0 04             9588 	.byte	4
000020f1 04             9589 	.byte	4
000020f2 03             9590 	.byte	3
000020f3 05             9591 	.byte	5
000020f4 2d             9592 	.byte	45
000020f5 03             9593 	.byte	3
000020f6 04             9594 	.byte	4
000020f7 2e             9595 	.byte	46
000020f8 03             9596 	.byte	3
000020f9 1b             9597 	.byte	27
000020fa 2f             9598 	.byte	47
000020fb 03             9599 	.byte	3
000020fc 04             9600 	.byte	4
000020fd 30             9601 	.byte	48
000020fe 04             9602 	.byte	4
000020ff 04             9603 	.byte	4

                                                                      Page 200
                                                              C:\Users\nhuliyap\AppData\Local\Temp\gh_000014o1.s
00002100 04             9604 	.byte	4
00002101 03             9605 	.byte	3
00002102 05             9606 	.byte	5
00002103 31             9607 	.byte	49
00002104 03             9608 	.byte	3
00002105 04             9609 	.byte	4
00002106 32             9610 	.byte	50
00002107 03             9611 	.byte	3
00002108 04             9612 	.byte	4
00002109 33             9613 	.byte	51
0000210a 01             9614 	.byte	1
0000210b 15             9615 	.byte	21
0000210c 434f4d4d5f4e   9616 	.strz	"COMM_NO_COMMUNICATION (uint8)(0)"
00002112 4f5f434f4d4d 
00002118 554e49434154 
0000211e 494f4e202875 
00002124 696e74382928 
0000212a 302900 
0000212d 01             9617 	.byte	1
0000212e 16             9618 	.byte	22
0000212f 434f4d4d5f53   9619 	.strz	"COMM_SILENT_COMMUNICATION (uint8)(1)"
00002135 494c454e545f 
0000213b 434f4d4d554e 
00002141 49434154494f 
00002147 4e202875696e 
0000214d 743829283129 
00002153 00 
00002154 01             9620 	.byte	1
00002155 17             9621 	.byte	23
00002156 434f4d4d5f46   9622 	.strz	"COMM_FULL_COMMUNICATION (uint8)(2)"
0000215c 554c4c5f434f 
00002162 4d4d554e4943 
00002168 4154494f4e20 
0000216e 2875696e7438 
00002174 2928322900 
00002179 04             9623 	.byte	4
0000217a 03             9624 	.byte	3
0000217b 05             9625 	.byte	5
0000217c 34             9626 	.byte	52
0000217d 04             9627 	.byte	4
0000217e 01             9628 	.byte	1
0000217f 0f             9629 	.byte	15
00002180 434f4d4d5f56   9630 	.strz	"COMM_VARIANT_PRECOMPILE 0x00"
00002186 415249414e54 
0000218c 5f505245434f 
00002192 4d50494c4520 
00002198 3078303000 
0000219d 01             9631 	.byte	1
0000219e 11             9632 	.byte	17
0000219f 434f4d4d5f43   9633 	.strz	"COMM_CONFIGURATION_VARIANT COMM_VARIANT_PRECOMPILE"
000021a5 4f4e46494755 
000021ab 524154494f4e 
000021b1 5f5641524941 
000021b7 4e5420434f4d 
000021bd 4d5f56415249 
000021c3 414e545f5052 
000021c9 45434f4d5049 
000021cf 4c4500 
000021d2 01             9634 	.byte	1
000021d3 12             9635 	.byte	18
000021d4 434f4d4d5f45   9636 	.strz	"COMM_ECUC_RB_RTE_IN_USE STD_OFF"

                                                                      Page 201
                                                              C:\Users\nhuliyap\AppData\Local\Temp\gh_000014o1.s
000021da 4355435f5242 
000021e0 5f5254455f49 
000021e6 4e5f55534520 
000021ec 5354445f4f46 
000021f2 4600 
000021f4 04             9637 	.byte	4
000021f5 03             9638 	.byte	3
000021f6 05             9639 	.byte	5
000021f7 35             9640 	.byte	53
000021f8 01             9641 	.byte	1
000021f9 09             9642 	.byte	9
000021fa 434f4d4d5f53   9643 	.strz	"COMM_START_SEC_CODE "
00002200 544152545f53 
00002206 45435f434f44 
0000220c 452000 
0000220f 03             9644 	.byte	3
00002210 0a             9645 	.byte	10
00002211 36             9646 	.byte	54
00002212 01             9647 	.byte	1
00002213 07             9648 	.byte	7
00002214 4d454d4d4150   9649 	.strz	"MEMMAP_ERROR "
0000221a 5f4552524f52 
00002220 2000 
00002222 01             9650 	.byte	1
00002223 50             9651 	.byte	80
00002224 4253575f5354   9652 	.strz	"BSW_START_SEC_CODE "
0000222a 4152545f5345 
00002230 435f434f4445 
00002236 2000 
00002238 03             9653 	.byte	3
00002239 51             9654 	.byte	81
0000223a 26             9655 	.byte	38
0000223b 01             9656 	.byte	1
0000223c da08           9657 	.byte	218,8
0000223e 53544152545f   9658 	.strz	"START_SEC_CODE "
00002244 5345435f434f 
0000224a 44452000 
0000224e 03             9659 	.byte	3
0000224f bb09           9660 	.byte	187,9
00002251 27             9661 	.byte	39
00002252 01             9662 	.byte	1
00002253 f307           9663 	.byte	243,7
00002255 434f44455f53   9664 	.strz	"CODE_SEC_OPEN "
0000225b 45435f4f5045 
00002261 4e2000 
00002264 04             9665 	.byte	4
00002265 04             9666 	.byte	4
00002266 04             9667 	.byte	4
00002267 01             9668 	.byte	1
00002268 10             9669 	.byte	16
00002269 434f4d4d5f53   9670 	.strz	"COMM_STOP_SEC_CODE "
0000226f 544f505f5345 
00002275 435f434f4445 
0000227b 2000 
0000227d 03             9671 	.byte	3
0000227e 11             9672 	.byte	17
0000227f 36             9673 	.byte	54
00002280 01             9674 	.byte	1
00002281 07             9675 	.byte	7
00002282 4d454d4d4150   9676 	.strz	"MEMMAP_ERROR "
00002288 5f4552524f52 

                                                                      Page 202
                                                              C:\Users\nhuliyap\AppData\Local\Temp\gh_000014o1.s
0000228e 2000 
00002290 01             9677 	.byte	1
00002291 55             9678 	.byte	85
00002292 4253575f5354   9679 	.strz	"BSW_STOP_SEC_CODE "
00002298 4f505f534543 
0000229e 5f434f444520 
000022a4 00 
000022a5 03             9680 	.byte	3
000022a6 56             9681 	.byte	86
000022a7 26             9682 	.byte	38
000022a8 01             9683 	.byte	1
000022a9 de08           9684 	.byte	222,8
000022ab 53544f505f53   9685 	.strz	"STOP_SEC_CODE "
000022b1 45435f434f44 
000022b7 452000 
000022ba 03             9686 	.byte	3
000022bb bb09           9687 	.byte	187,9
000022bd 27             9688 	.byte	39
000022be 04             9689 	.byte	4
000022bf 04             9690 	.byte	4
000022c0 04             9691 	.byte	4
000022c1 04             9692 	.byte	4
000022c2 03             9693 	.byte	3
000022c3 06             9694 	.byte	6
000022c4 37             9695 	.byte	55
000022c5 01             9696 	.byte	1
000022c6 0a             9697 	.byte	10
000022c7 434f4d4d5f53   9698 	.strz	"COMM_START_SEC_CODE "
000022cd 544152545f53 
000022d3 45435f434f44 
000022d9 452000 
000022dc 03             9699 	.byte	3
000022dd 0b             9700 	.byte	11
000022de 36             9701 	.byte	54
000022df 01             9702 	.byte	1
000022e0 07             9703 	.byte	7
000022e1 4d454d4d4150   9704 	.strz	"MEMMAP_ERROR "
000022e7 5f4552524f52 
000022ed 2000 
000022ef 01             9705 	.byte	1
000022f0 50             9706 	.byte	80
000022f1 4253575f5354   9707 	.strz	"BSW_START_SEC_CODE "
000022f7 4152545f5345 
000022fd 435f434f4445 
00002303 2000 
00002305 03             9708 	.byte	3
00002306 51             9709 	.byte	81
00002307 26             9710 	.byte	38
00002308 01             9711 	.byte	1
00002309 da08           9712 	.byte	218,8
0000230b 53544152545f   9713 	.strz	"START_SEC_CODE "
00002311 5345435f434f 
00002317 44452000 
0000231b 03             9714 	.byte	3
0000231c bb09           9715 	.byte	187,9
0000231e 27             9716 	.byte	39
0000231f 01             9717 	.byte	1
00002320 f307           9718 	.byte	243,7
00002322 434f44455f53   9719 	.strz	"CODE_SEC_OPEN "
00002328 45435f4f5045 
0000232e 4e2000 

                                                                      Page 203
                                                              C:\Users\nhuliyap\AppData\Local\Temp\gh_000014o1.s
00002331 04             9720 	.byte	4
00002332 04             9721 	.byte	4
00002333 04             9722 	.byte	4
00002334 01             9723 	.byte	1
00002335 13             9724 	.byte	19
00002336 434f4d4d5f53   9725 	.strz	"COMM_STOP_SEC_CODE "
0000233c 544f505f5345 
00002342 435f434f4445 
00002348 2000 
0000234a 03             9726 	.byte	3
0000234b 14             9727 	.byte	20
0000234c 36             9728 	.byte	54
0000234d 01             9729 	.byte	1
0000234e 07             9730 	.byte	7
0000234f 4d454d4d4150   9731 	.strz	"MEMMAP_ERROR "
00002355 5f4552524f52 
0000235b 2000 
0000235d 01             9732 	.byte	1
0000235e 55             9733 	.byte	85
0000235f 4253575f5354   9734 	.strz	"BSW_STOP_SEC_CODE "
00002365 4f505f534543 
0000236b 5f434f444520 
00002371 00 
00002372 03             9735 	.byte	3
00002373 56             9736 	.byte	86
00002374 26             9737 	.byte	38
00002375 01             9738 	.byte	1
00002376 de08           9739 	.byte	222,8
00002378 53544f505f53   9740 	.strz	"STOP_SEC_CODE "
0000237e 45435f434f44 
00002384 452000 
00002387 03             9741 	.byte	3
00002388 bb09           9742 	.byte	187,9
0000238a 27             9743 	.byte	39
0000238b 04             9744 	.byte	4
0000238c 04             9745 	.byte	4
0000238d 04             9746 	.byte	4
0000238e 04             9747 	.byte	4
0000238f 03             9748 	.byte	3
00002390 07             9749 	.byte	7
00002391 38             9750 	.byte	56
00002392 01             9751 	.byte	1
00002393 09             9752 	.byte	9
00002394 434f4d4d5f53   9753 	.strz	"COMM_START_SEC_CODE "
0000239a 544152545f53 
000023a0 45435f434f44 
000023a6 452000 
000023a9 03             9754 	.byte	3
000023aa 0a             9755 	.byte	10
000023ab 36             9756 	.byte	54
000023ac 01             9757 	.byte	1
000023ad 07             9758 	.byte	7
000023ae 4d454d4d4150   9759 	.strz	"MEMMAP_ERROR "
000023b4 5f4552524f52 
000023ba 2000 
000023bc 01             9760 	.byte	1
000023bd 50             9761 	.byte	80
000023be 4253575f5354   9762 	.strz	"BSW_START_SEC_CODE "
000023c4 4152545f5345 
000023ca 435f434f4445 
000023d0 2000 

                                                                      Page 204
                                                              C:\Users\nhuliyap\AppData\Local\Temp\gh_000014o1.s
000023d2 03             9763 	.byte	3
000023d3 51             9764 	.byte	81
000023d4 26             9765 	.byte	38
000023d5 01             9766 	.byte	1
000023d6 da08           9767 	.byte	218,8
000023d8 53544152545f   9768 	.strz	"START_SEC_CODE "
000023de 5345435f434f 
000023e4 44452000 
000023e8 03             9769 	.byte	3
000023e9 bb09           9770 	.byte	187,9
000023eb 27             9771 	.byte	39
000023ec 01             9772 	.byte	1
000023ed f307           9773 	.byte	243,7
000023ef 434f44455f53   9774 	.strz	"CODE_SEC_OPEN "
000023f5 45435f4f5045 
000023fb 4e2000 
000023fe 04             9775 	.byte	4
000023ff 04             9776 	.byte	4
00002400 04             9777 	.byte	4
00002401 01             9778 	.byte	1
00002402 1c             9779 	.byte	28
00002403 434f4d4d5f53   9780 	.strz	"COMM_STOP_SEC_CODE "
00002409 544f505f5345 
0000240f 435f434f4445 
00002415 2000 
00002417 03             9781 	.byte	3
00002418 1d             9782 	.byte	29
00002419 36             9783 	.byte	54
0000241a 01             9784 	.byte	1
0000241b 07             9785 	.byte	7
0000241c 4d454d4d4150   9786 	.strz	"MEMMAP_ERROR "
00002422 5f4552524f52 
00002428 2000 
0000242a 01             9787 	.byte	1
0000242b 55             9788 	.byte	85
0000242c 4253575f5354   9789 	.strz	"BSW_STOP_SEC_CODE "
00002432 4f505f534543 
00002438 5f434f444520 
0000243e 00 
0000243f 03             9790 	.byte	3
00002440 56             9791 	.byte	86
00002441 26             9792 	.byte	38
00002442 01             9793 	.byte	1
00002443 de08           9794 	.byte	222,8
00002445 53544f505f53   9795 	.strz	"STOP_SEC_CODE "
0000244b 45435f434f44 
00002451 452000 
00002454 03             9796 	.byte	3
00002455 bb09           9797 	.byte	187,9
00002457 27             9798 	.byte	39
00002458 04             9799 	.byte	4
00002459 04             9800 	.byte	4
0000245a 04             9801 	.byte	4
0000245b 04             9802 	.byte	4
0000245c 03             9803 	.byte	3
0000245d 08             9804 	.byte	8
0000245e 39             9805 	.byte	57
0000245f 01             9806 	.byte	1
00002460 09             9807 	.byte	9
00002461 434f4d4d5f53   9808 	.strz	"COMM_START_SEC_CODE "
00002467 544152545f53 

                                                                      Page 205
                                                              C:\Users\nhuliyap\AppData\Local\Temp\gh_000014o1.s
0000246d 45435f434f44 
00002473 452000 
00002476 03             9809 	.byte	3
00002477 0a             9810 	.byte	10
00002478 36             9811 	.byte	54
00002479 01             9812 	.byte	1
0000247a 07             9813 	.byte	7
0000247b 4d454d4d4150   9814 	.strz	"MEMMAP_ERROR "
00002481 5f4552524f52 
00002487 2000 
00002489 01             9815 	.byte	1
0000248a 50             9816 	.byte	80
0000248b 4253575f5354   9817 	.strz	"BSW_START_SEC_CODE "
00002491 4152545f5345 
00002497 435f434f4445 
0000249d 2000 
0000249f 03             9818 	.byte	3
000024a0 51             9819 	.byte	81
000024a1 26             9820 	.byte	38
000024a2 01             9821 	.byte	1
000024a3 da08           9822 	.byte	218,8
000024a5 53544152545f   9823 	.strz	"START_SEC_CODE "
000024ab 5345435f434f 
000024b1 44452000 
000024b5 03             9824 	.byte	3
000024b6 bb09           9825 	.byte	187,9
000024b8 27             9826 	.byte	39
000024b9 01             9827 	.byte	1
000024ba f307           9828 	.byte	243,7
000024bc 434f44455f53   9829 	.strz	"CODE_SEC_OPEN "
000024c2 45435f4f5045 
000024c8 4e2000 
000024cb 04             9830 	.byte	4
000024cc 04             9831 	.byte	4
000024cd 04             9832 	.byte	4
000024ce 01             9833 	.byte	1
000024cf 34             9834 	.byte	52
000024d0 434f4d4d5f53   9835 	.strz	"COMM_STOP_SEC_CODE "
000024d6 544f505f5345 
000024dc 435f434f4445 
000024e2 2000 
000024e4 03             9836 	.byte	3
000024e5 35             9837 	.byte	53
000024e6 36             9838 	.byte	54
000024e7 01             9839 	.byte	1
000024e8 07             9840 	.byte	7
000024e9 4d454d4d4150   9841 	.strz	"MEMMAP_ERROR "
000024ef 5f4552524f52 
000024f5 2000 
000024f7 01             9842 	.byte	1
000024f8 55             9843 	.byte	85
000024f9 4253575f5354   9844 	.strz	"BSW_STOP_SEC_CODE "
000024ff 4f505f534543 
00002505 5f434f444520 
0000250b 00 
0000250c 03             9845 	.byte	3
0000250d 56             9846 	.byte	86
0000250e 26             9847 	.byte	38
0000250f 01             9848 	.byte	1
00002510 de08           9849 	.byte	222,8
00002512 53544f505f53   9850 	.strz	"STOP_SEC_CODE "

                                                                      Page 206
                                                              C:\Users\nhuliyap\AppData\Local\Temp\gh_000014o1.s
00002518 45435f434f44 
0000251e 452000 
00002521 03             9851 	.byte	3
00002522 bb09           9852 	.byte	187,9
00002524 27             9853 	.byte	39
00002525 04             9854 	.byte	4
00002526 04             9855 	.byte	4
00002527 04             9856 	.byte	4
00002528 04             9857 	.byte	4
00002529 03             9858 	.byte	3
0000252a 09             9859 	.byte	9
0000252b 3a             9860 	.byte	58
0000252c 01             9861 	.byte	1
0000252d 08             9862 	.byte	8
0000252e 434f4d4d5f53   9863 	.strz	"COMM_START_SEC_CODE "
00002534 544152545f53 
0000253a 45435f434f44 
00002540 452000 
00002543 03             9864 	.byte	3
00002544 09             9865 	.byte	9
00002545 36             9866 	.byte	54
00002546 01             9867 	.byte	1
00002547 07             9868 	.byte	7
00002548 4d454d4d4150   9869 	.strz	"MEMMAP_ERROR "
0000254e 5f4552524f52 
00002554 2000 
00002556 01             9870 	.byte	1
00002557 50             9871 	.byte	80
00002558 4253575f5354   9872 	.strz	"BSW_START_SEC_CODE "
0000255e 4152545f5345 
00002564 435f434f4445 
0000256a 2000 
0000256c 03             9873 	.byte	3
0000256d 51             9874 	.byte	81
0000256e 26             9875 	.byte	38
0000256f 01             9876 	.byte	1
00002570 da08           9877 	.byte	218,8
00002572 53544152545f   9878 	.strz	"START_SEC_CODE "
00002578 5345435f434f 
0000257e 44452000 
00002582 03             9879 	.byte	3
00002583 bb09           9880 	.byte	187,9
00002585 27             9881 	.byte	39
00002586 01             9882 	.byte	1
00002587 f307           9883 	.byte	243,7
00002589 434f44455f53   9884 	.strz	"CODE_SEC_OPEN "
0000258f 45435f4f5045 
00002595 4e2000 
00002598 04             9885 	.byte	4
00002599 04             9886 	.byte	4
0000259a 04             9887 	.byte	4
0000259b 01             9888 	.byte	1
0000259c 0f             9889 	.byte	15
0000259d 434f4d4d5f53   9890 	.strz	"COMM_STOP_SEC_CODE "
000025a3 544f505f5345 
000025a9 435f434f4445 
000025af 2000 
000025b1 03             9891 	.byte	3
000025b2 10             9892 	.byte	16
000025b3 36             9893 	.byte	54
000025b4 01             9894 	.byte	1

                                                                      Page 207
                                                              C:\Users\nhuliyap\AppData\Local\Temp\gh_000014o1.s
000025b5 07             9895 	.byte	7
000025b6 4d454d4d4150   9896 	.strz	"MEMMAP_ERROR "
000025bc 5f4552524f52 
000025c2 2000 
000025c4 01             9897 	.byte	1
000025c5 55             9898 	.byte	85
000025c6 4253575f5354   9899 	.strz	"BSW_STOP_SEC_CODE "
000025cc 4f505f534543 
000025d2 5f434f444520 
000025d8 00 
000025d9 03             9900 	.byte	3
000025da 56             9901 	.byte	86
000025db 26             9902 	.byte	38
000025dc 01             9903 	.byte	1
000025dd de08           9904 	.byte	222,8
000025df 53544f505f53   9905 	.strz	"STOP_SEC_CODE "
000025e5 45435f434f44 
000025eb 452000 
000025ee 03             9906 	.byte	3
000025ef bb09           9907 	.byte	187,9
000025f1 27             9908 	.byte	39
000025f2 04             9909 	.byte	4
000025f3 04             9910 	.byte	4
000025f4 04             9911 	.byte	4
000025f5 04             9912 	.byte	4
000025f6 03             9913 	.byte	3
000025f7 0a             9914 	.byte	10
000025f8 3b             9915 	.byte	59
000025f9 04             9916 	.byte	4
000025fa 01             9917 	.byte	1
000025fb 0c             9918 	.byte	12
000025fc 434f4d4d5f53   9919 	.strz	"COMM_START_SEC_CODE "
00002602 544152545f53 
00002608 45435f434f44 
0000260e 452000 
00002611 03             9920 	.byte	3
00002612 0d             9921 	.byte	13
00002613 36             9922 	.byte	54
00002614 01             9923 	.byte	1
00002615 07             9924 	.byte	7
00002616 4d454d4d4150   9925 	.strz	"MEMMAP_ERROR "
0000261c 5f4552524f52 
00002622 2000 
00002624 01             9926 	.byte	1
00002625 50             9927 	.byte	80
00002626 4253575f5354   9928 	.strz	"BSW_START_SEC_CODE "
0000262c 4152545f5345 
00002632 435f434f4445 
00002638 2000 
0000263a 03             9929 	.byte	3
0000263b 51             9930 	.byte	81
0000263c 26             9931 	.byte	38
0000263d 01             9932 	.byte	1
0000263e da08           9933 	.byte	218,8
00002640 53544152545f   9934 	.strz	"START_SEC_CODE "
00002646 5345435f434f 
0000264c 44452000 
00002650 03             9935 	.byte	3
00002651 bb09           9936 	.byte	187,9
00002653 27             9937 	.byte	39
00002654 01             9938 	.byte	1

                                                                      Page 208
                                                              C:\Users\nhuliyap\AppData\Local\Temp\gh_000014o1.s
00002655 f307           9939 	.byte	243,7
00002657 434f44455f53   9940 	.strz	"CODE_SEC_OPEN "
0000265d 45435f4f5045 
00002663 4e2000 
00002666 04             9941 	.byte	4
00002667 04             9942 	.byte	4
00002668 04             9943 	.byte	4
00002669 01             9944 	.byte	1
0000266a 62             9945 	.byte	98
0000266b 434f4d4d5f53   9946 	.strz	"COMM_STOP_SEC_CODE "
00002671 544f505f5345 
00002677 435f434f4445 
0000267d 2000 
0000267f 03             9947 	.byte	3
00002680 63             9948 	.byte	99
00002681 36             9949 	.byte	54
00002682 01             9950 	.byte	1
00002683 07             9951 	.byte	7
00002684 4d454d4d4150   9952 	.strz	"MEMMAP_ERROR "
0000268a 5f4552524f52 
00002690 2000 
00002692 01             9953 	.byte	1
00002693 55             9954 	.byte	85
00002694 4253575f5354   9955 	.strz	"BSW_STOP_SEC_CODE "
0000269a 4f505f534543 
000026a0 5f434f444520 
000026a6 00 
000026a7 03             9956 	.byte	3
000026a8 56             9957 	.byte	86
000026a9 26             9958 	.byte	38
000026aa 01             9959 	.byte	1
000026ab de08           9960 	.byte	222,8
000026ad 53544f505f53   9961 	.strz	"STOP_SEC_CODE "
000026b3 45435f434f44 
000026b9 452000 
000026bc 03             9962 	.byte	3
000026bd bb09           9963 	.byte	187,9
000026bf 27             9964 	.byte	39
000026c0 04             9965 	.byte	4
000026c1 04             9966 	.byte	4
000026c2 04             9967 	.byte	4
000026c3 01             9968 	.byte	1
000026c4 65             9969 	.byte	101
000026c5 434f4d4d5f53   9970 	.strz	"COMM_START_SEC_CONFIG_DATA_POSTBUILD_UNSPECIFIED "
000026cb 544152545f53 
000026d1 45435f434f4e 
000026d7 4649475f4441 
000026dd 54415f504f53 
000026e3 544255494c44 
000026e9 5f554e535045 
000026ef 434946494544 
000026f5 2000 
000026f7 03             9971 	.byte	3
000026f8 66             9972 	.byte	102
000026f9 36             9973 	.byte	54
000026fa 01             9974 	.byte	1
000026fb 07             9975 	.byte	7
000026fc 4d454d4d4150   9976 	.strz	"MEMMAP_ERROR "
00002702 5f4552524f52 
00002708 2000 
0000270a 01             9977 	.byte	1

                                                                      Page 209
                                                              C:\Users\nhuliyap\AppData\Local\Temp\gh_000014o1.s
0000270b 0b             9978 	.byte	11
0000270c 434f4d4d5f53   9979 	.strz	"COMM_START_SEC_CONST_UNSPECIFIED "
00002712 544152545f53 
00002718 45435f434f4e 
0000271e 53545f554e53 
00002724 504543494649 
0000272a 45442000 
0000272e 01             9980 	.byte	1
0000272f 14             9981 	.byte	20
00002730 4253575f5354   9982 	.strz	"BSW_START_SEC_CONST_UNSPECIFIED "
00002736 4152545f5345 
0000273c 435f434f4e53 
00002742 545f554e5350 
00002748 454349464945 
0000274e 442000 
00002751 03             9983 	.byte	3
00002752 15             9984 	.byte	21
00002753 26             9985 	.byte	38
00002754 01             9986 	.byte	1
00002755 f005           9987 	.byte	240,5
00002757 53544152545f   9988 	.strz	"START_SEC_CONST_UNSPECIFIED "
0000275d 5345435f434f 
00002763 4e53545f554e 
00002769 535045434946 
0000276f 4945442000 
00002774 03             9989 	.byte	3
00002775 bb09           9990 	.byte	187,9
00002777 27             9991 	.byte	39
00002778 01             9992 	.byte	1
00002779 b408           9993 	.byte	180,8
0000277b 434f4e53545f   9994 	.strz	"CONST_SEC_OPEN "
00002781 5345435f4f50 
00002787 454e2000 
0000278b 04             9995 	.byte	4
0000278c 04             9996 	.byte	4
0000278d 04             9997 	.byte	4
0000278e 01             9998 	.byte	1
0000278f 6a             9999 	.byte	106
00002790 434f4d4d5f53  10000 	.strz	"COMM_STOP_SEC_CONFIG_DATA_POSTBUILD_UNSPECIFIED "
00002796 544f505f5345 
0000279c 435f434f4e46 
000027a2 49475f444154 
000027a8 415f504f5354 
000027ae 4255494c445f 
000027b4 554e53504543 
000027ba 494649454420 
000027c0 00 
000027c1 03            10001 	.byte	3
000027c2 6b            10002 	.byte	107
000027c3 36            10003 	.byte	54
000027c4 01            10004 	.byte	1
000027c5 07            10005 	.byte	7
000027c6 4d454d4d4150  10006 	.strz	"MEMMAP_ERROR "
000027cc 5f4552524f52 
000027d2 2000 
000027d4 01            10007 	.byte	1
000027d5 0f            10008 	.byte	15
000027d6 434f4d4d5f53  10009 	.strz	"COMM_STOP_SEC_CONST_UNSPECIFIED "
000027dc 544f505f5345 
000027e2 435f434f4e53 
000027e8 545f554e5350 

                                                                      Page 210
                                                              C:\Users\nhuliyap\AppData\Local\Temp\gh_000014o1.s
000027ee 454349464945 
000027f4 442000 
000027f7 01            10010 	.byte	1
000027f8 19            10011 	.byte	25
000027f9 4253575f5354  10012 	.strz	"BSW_STOP_SEC_CONST_UNSPECIFIED "
000027ff 4f505f534543 
00002805 5f434f4e5354 
0000280b 5f554e535045 
00002811 434946494544 
00002817 2000 
00002819 03            10013 	.byte	3
0000281a 1a            10014 	.byte	26
0000281b 26            10015 	.byte	38
0000281c 01            10016 	.byte	1
0000281d f405          10017 	.byte	244,5
0000281f 53544f505f53  10018 	.strz	"STOP_SEC_CONST "
00002825 45435f434f4e 
0000282b 53542000 
0000282f 03            10019 	.byte	3
00002830 bb09          10020 	.byte	187,9
00002832 27            10021 	.byte	39
00002833 04            10022 	.byte	4
00002834 04            10023 	.byte	4
00002835 04            10024 	.byte	4
00002836 04            10025 	.byte	4
00002837 01            10026 	.byte	1
00002838 5c            10027 	.byte	92
00002839 43414e534d5f  10028 	.strz	"CANSM_START_SEC_VAR_CLEARED_8 "
0000283f 53544152545f 
00002845 5345435f5641 
0000284b 525f434c4541 
00002851 5245445f3820 
00002857 00 
00002858 03            10029 	.byte	3
00002859 5d            10030 	.byte	93
0000285a 2c            10031 	.byte	44
0000285b 01            10032 	.byte	1
0000285c 05            10033 	.byte	5
0000285d 4d454d4d4150  10034 	.strz	"MEMMAP_ERROR "
00002863 5f4552524f52 
00002869 2000 
0000286b 01            10035 	.byte	1
0000286c 60            10036 	.byte	96
0000286d 4253575f5354  10037 	.strz	"BSW_START_SEC_VAR_CLEARED_8 "
00002873 4152545f5345 
00002879 435f5641525f 
0000287f 434c45415245 
00002885 445f382000 
0000288a 03            10038 	.byte	3
0000288b 61            10039 	.byte	97
0000288c 26            10040 	.byte	38
0000288d 01            10041 	.byte	1
0000288e 2a            10042 	.byte	42
0000288f 53544152545f  10043 	.strz	"START_SEC_VAR_CLEARED_8 "
00002895 5345435f5641 
0000289b 525f434c4541 
000028a1 5245445f3820 
000028a7 00 
000028a8 03            10044 	.byte	3
000028a9 bb09          10045 	.byte	187,9
000028ab 27            10046 	.byte	39

                                                                      Page 211
                                                              C:\Users\nhuliyap\AppData\Local\Temp\gh_000014o1.s
000028ac 01            10047 	.byte	1
000028ad 46            10048 	.byte	70
000028ae 53544152545f  10049 	.strz	"START_SEC_VAR_ZERO_INIT_8BIT "
000028b4 5345435f5641 
000028ba 525f5a45524f 
000028c0 5f494e49545f 
000028c6 384249542000 
000028cc 01            10050 	.byte	1
000028cd e009          10051 	.byte	224,9
000028cf 5641525f5345  10052 	.strz	"VAR_SEC_OPEN "
000028d5 435f4f50454e 
000028db 2000 
000028dd 04            10053 	.byte	4
000028de 04            10054 	.byte	4
000028df 04            10055 	.byte	4
000028e0 01            10056 	.byte	1
000028e1 5f            10057 	.byte	95
000028e2 43414e534d5f  10058 	.strz	"CANSM_STOP_SEC_VAR_CLEARED_8 "
000028e8 53544f505f53 
000028ee 45435f564152 
000028f4 5f434c454152 
000028fa 45445f382000 
00002900 03            10059 	.byte	3
00002901 60            10060 	.byte	96
00002902 2c            10061 	.byte	44
00002903 01            10062 	.byte	1
00002904 05            10063 	.byte	5
00002905 4d454d4d4150  10064 	.strz	"MEMMAP_ERROR "
0000290b 5f4552524f52 
00002911 2000 
00002913 01            10065 	.byte	1
00002914 65            10066 	.byte	101
00002915 4253575f5354  10067 	.strz	"BSW_STOP_SEC_VAR_CLEARED_8 "
0000291b 4f505f534543 
00002921 5f5641525f43 
00002927 4c4541524544 
0000292d 5f382000 
00002931 03            10068 	.byte	3
00002932 66            10069 	.byte	102
00002933 26            10070 	.byte	38
00002934 01            10071 	.byte	1
00002935 2e            10072 	.byte	46
00002936 53544f505f53  10073 	.strz	"STOP_SEC_VAR "
0000293c 45435f564152 
00002942 2000 
00002944 03            10074 	.byte	3
00002945 bb09          10075 	.byte	187,9
00002947 27            10076 	.byte	39
00002948 04            10077 	.byte	4
00002949 04            10078 	.byte	4
0000294a 04            10079 	.byte	4
0000294b 01            10080 	.byte	1
0000294c 62            10081 	.byte	98
0000294d 43414e534d5f  10082 	.strz	"CANSM_START_SEC_CODE "
00002953 53544152545f 
00002959 5345435f434f 
0000295f 44452000 
00002963 03            10083 	.byte	3
00002964 63            10084 	.byte	99
00002965 2c            10085 	.byte	44
00002966 01            10086 	.byte	1

                                                                      Page 212
                                                              C:\Users\nhuliyap\AppData\Local\Temp\gh_000014o1.s
00002967 05            10087 	.byte	5
00002968 4d454d4d4150  10088 	.strz	"MEMMAP_ERROR "
0000296e 5f4552524f52 
00002974 2000 
00002976 01            10089 	.byte	1
00002977 9a01          10090 	.byte	154,1
00002979 4253575f5354  10091 	.strz	"BSW_START_SEC_CODE "
0000297f 4152545f5345 
00002985 435f434f4445 
0000298b 2000 
0000298d 03            10092 	.byte	3
0000298e 9b01          10093 	.byte	155,1
00002990 26            10094 	.byte	38
00002991 01            10095 	.byte	1
00002992 da08          10096 	.byte	218,8
00002994 53544152545f  10097 	.strz	"START_SEC_CODE "
0000299a 5345435f434f 
000029a0 44452000 
000029a4 03            10098 	.byte	3
000029a5 bb09          10099 	.byte	187,9
000029a7 27            10100 	.byte	39
000029a8 01            10101 	.byte	1
000029a9 f307          10102 	.byte	243,7
000029ab 434f44455f53  10103 	.strz	"CODE_SEC_OPEN "
000029b1 45435f4f5045 
000029b7 4e2000 
000029ba 04            10104 	.byte	4
000029bb 04            10105 	.byte	4
000029bc 04            10106 	.byte	4
000029bd 01            10107 	.byte	1
000029be 7f            10108 	.byte	127
000029bf 43414e534d5f  10109 	.strz	"CANSM_STOP_SEC_CODE "
000029c5 53544f505f53 
000029cb 45435f434f44 
000029d1 452000 
000029d4 03            10110 	.byte	3
000029d5 8001          10111 	.byte	128,1
000029d7 2c            10112 	.byte	44
000029d8 01            10113 	.byte	1
000029d9 05            10114 	.byte	5
000029da 4d454d4d4150  10115 	.strz	"MEMMAP_ERROR "
000029e0 5f4552524f52 
000029e6 2000 
000029e8 01            10116 	.byte	1
000029e9 9f01          10117 	.byte	159,1
000029eb 4253575f5354  10118 	.strz	"BSW_STOP_SEC_CODE "
000029f1 4f505f534543 
000029f7 5f434f444520 
000029fd 00 
000029fe 03            10119 	.byte	3
000029ff a001          10120 	.byte	160,1
00002a01 26            10121 	.byte	38
00002a02 01            10122 	.byte	1
00002a03 de08          10123 	.byte	222,8
00002a05 53544f505f53  10124 	.strz	"STOP_SEC_CODE "
00002a0b 45435f434f44 
00002a11 452000 
00002a14 03            10125 	.byte	3
00002a15 bb09          10126 	.byte	187,9
00002a17 27            10127 	.byte	39
00002a18 04            10128 	.byte	4

                                                                      Page 213
                                                              C:\Users\nhuliyap\AppData\Local\Temp\gh_000014o1.s
00002a19 04            10129 	.byte	4
00002a1a 04            10130 	.byte	4
00002a1b 04            10131 	.byte	4
00002a1c 03            10132 	.byte	3
00002a1d 06            10133 	.byte	6
00002a1e 3c            10134 	.byte	60
00002a1f 03            10135 	.byte	3
00002a20 04            10136 	.byte	4
00002a21 3d            10137 	.byte	61
00002a22 04            10138 	.byte	4
00002a23 04            10139 	.byte	4
00002a24 03            10140 	.byte	3
00002a25 08            10141 	.byte	8
00002a26 3e            10142 	.byte	62
00002a27 03            10143 	.byte	3
00002a28 05            10144 	.byte	5
00002a29 3f            10145 	.byte	63
00002a2a 03            10146 	.byte	3
00002a2b 04            10147 	.byte	4
00002a2c 40            10148 	.byte	64
00002a2d 03            10149 	.byte	3
00002a2e 05            10150 	.byte	5
00002a2f 41            10151 	.byte	65
00002a30 04            10152 	.byte	4
00002a31 04            10153 	.byte	4
00002a32 03            10154 	.byte	3
00002a33 06            10155 	.byte	6
00002a34 42            10156 	.byte	66
00002a35 03            10157 	.byte	3
00002a36 1c            10158 	.byte	28
00002a37 43            10159 	.byte	67
00002a38 01            10160 	.byte	1
00002a39 20            10161 	.byte	32
00002a3a 43414e49465f  10162 	.strz	"CANIF_XCORE_CFG_ENABLED STD_OFF"
00002a40 58434f52455f 
00002a46 4346475f454e 
00002a4c 41424c454420 
00002a52 5354445f4f46 
00002a58 4600 
00002a5a 04            10163 	.byte	4
00002a5b 03            10164 	.byte	3
00002a5c 1d            10165 	.byte	29
00002a5d 44            10166 	.byte	68
00002a5e 03            10167 	.byte	3
00002a5f 04            10168 	.byte	4
00002a60 45            10169 	.byte	69
00002a61 03            10170 	.byte	3
00002a62 04            10171 	.byte	4
00002a63 46            10172 	.byte	70
00002a64 03            10173 	.byte	3
00002a65 04            10174 	.byte	4
00002a66 47            10175 	.byte	71
00002a67 01            10176 	.byte	1
00002a68 1f            10177 	.byte	31
00002a69 4346474d4341  10178 	.strz	"CFGMCALMCU_AR_RELEASE_MAJOR_VERSION 4"
00002a6f 4c4d43555f41 
00002a75 525f52454c45 
00002a7b 4153455f4d41 
00002a81 4a4f525f5645 
00002a87 5253494f4e20 
00002a8d 3400 

                                                                      Page 214
                                                              C:\Users\nhuliyap\AppData\Local\Temp\gh_000014o1.s
00002a8f 01            10179 	.byte	1
00002a90 20            10180 	.byte	32
00002a91 4346474d4341  10181 	.strz	"CFGMCALMCU_AR_RELEASE_MINOR_VERSION 2"
00002a97 4c4d43555f41 
00002a9d 525f52454c45 
00002aa3 4153455f4d49 
00002aa9 4e4f525f5645 
00002aaf 5253494f4e20 
00002ab5 3200 
00002ab7 04            10182 	.byte	4
00002ab8 03            10183 	.byte	3
00002ab9 14            10184 	.byte	20
00002aba 48            10185 	.byte	72
00002abb 03            10186 	.byte	3
00002abc 1b            10187 	.byte	27
00002abd 49            10188 	.byte	73
00002abe 04            10189 	.byte	4
00002abf 03            10190 	.byte	3
00002ac0 1c            10191 	.byte	28
00002ac1 4a            10192 	.byte	74
00002ac2 04            10193 	.byte	4
00002ac3 03            10194 	.byte	3
00002ac4 1f            10195 	.byte	31
00002ac5 4b            10196 	.byte	75
00002ac6 04            10197 	.byte	4
00002ac7 03            10198 	.byte	3
00002ac8 21            10199 	.byte	33
00002ac9 4c            10200 	.byte	76
00002aca 03            10201 	.byte	3
00002acb 1b            10202 	.byte	27
00002acc 4d            10203 	.byte	77
00002acd 04            10204 	.byte	4
00002ace 04            10205 	.byte	4
00002acf 03            10206 	.byte	3
00002ad0 22            10207 	.byte	34
00002ad1 4e            10208 	.byte	78
00002ad2 04            10209 	.byte	4
00002ad3 03            10210 	.byte	3
00002ad4 24            10211 	.byte	36
00002ad5 4f            10212 	.byte	79
00002ad6 03            10213 	.byte	3
00002ad7 1b            10214 	.byte	27
00002ad8 50            10215 	.byte	80
00002ad9 03            10216 	.byte	3
00002ada 04            10217 	.byte	4
00002adb 51            10218 	.byte	81
00002adc 04            10219 	.byte	4
00002add 04            10220 	.byte	4
00002ade 04            10221 	.byte	4
00002adf 03            10222 	.byte	3
00002ae0 25            10223 	.byte	37
00002ae1 52            10224 	.byte	82
00002ae2 04            10225 	.byte	4
00002ae3 03            10226 	.byte	3
00002ae4 26            10227 	.byte	38
00002ae5 53            10228 	.byte	83
00002ae6 04            10229 	.byte	4
00002ae7 01            10230 	.byte	1
00002ae8 2b            10231 	.byte	43
00002ae9 436667537763  10232 	.strz	"CfgSwcServiceEcuM_dLenHash (16)"
00002aef 536572766963 

                                                                      Page 215
                                                              C:\Users\nhuliyap\AppData\Local\Temp\gh_000014o1.s
00002af5 654563754d5f 
00002afb 644c656e4861 
00002b01 736820283136 
00002b07 2900 
00002b09 01            10233 	.byte	1
00002b0a 32            10234 	.byte	50
00002b0b 436667537763  10235 	.strz	"CfgSwcServiceEcuM_dNumConfigSet 1"
00002b11 536572766963 
00002b17 654563754d5f 
00002b1d 644e756d436f 
00002b23 6e6669675365 
00002b29 74203100 
00002b2d 04            10236 	.byte	4
00002b2e 03            10237 	.byte	3
00002b2f 15            10238 	.byte	21
00002b30 54            10239 	.byte	84
00002b31 03            10240 	.byte	3
00002b32 1b            10241 	.byte	27
00002b33 55            10242 	.byte	85
00002b34 04            10243 	.byte	4
00002b35 04            10244 	.byte	4
00002b36 01            10245 	.byte	1
00002b37 1a            10246 	.byte	26
00002b38 4543554d5f43  10247 	.strz	"ECUM_CFG_MODE_HANDLING (STD_OFF)"
00002b3e 46475f4d4f44 
00002b44 455f48414e44 
00002b4a 4c494e472028 
00002b50 5354445f4f46 
00002b56 462900 
00002b59 01            10248 	.byte	1
00002b5a 1c            10249 	.byte	28
00002b5b 4543554d5f53  10250 	.strz	"ECUM_SLEEP_SUPPORT_ENABLE FALSE"
00002b61 4c4545505f53 
00002b67 5550504f5254 
00002b6d 5f454e41424c 
00002b73 452046414c53 
00002b79 4500 
00002b7b 01            10251 	.byte	1
00002b7c 1e            10252 	.byte	30
00002b7d 4543554d5f43  10253 	.strz	"ECUM_CFG_ECUC_RB_RTE_IN_USE FALSE"
00002b83 46475f454355 
00002b89 435f52425f52 
00002b8f 54455f494e5f 
00002b95 555345204641 
00002b9b 4c534500 
00002b9f 01            10254 	.byte	1
00002ba0 21            10255 	.byte	33
00002ba1 4543554d5f43  10256 	.strz	"ECUM_CFG_GODOWN_CALLER_ARR_LEN (1U)"
00002ba7 46475f474f44 
00002bad 4f574e5f4341 
00002bb3 4c4c45525f41 
00002bb9 52525f4c454e 
00002bbf 202831552900 
00002bc5 01            10257 	.byte	1
00002bc6 22            10258 	.byte	34
00002bc7 436667537763  10259 	.strz	"CfgSwcServiceEcuM_dNumSourceWakeup (5U)"
00002bcd 536572766963 
00002bd3 654563754d5f 
00002bd9 644e756d536f 
00002bdf 757263655761 
00002be5 6b6575702028 

                                                                      Page 216
                                                              C:\Users\nhuliyap\AppData\Local\Temp\gh_000014o1.s
00002beb 35552900 
00002bef 01            10260 	.byte	1
00002bf0 46            10261 	.byte	70
00002bf1 4543554d5f53  10262 	.strz	"ECUM_START_SEC_CONFIG_DATA_8 "
00002bf7 544152545f53 
00002bfd 45435f434f4e 
00002c03 4649475f4441 
00002c09 54415f382000 
00002c0f 03            10263 	.byte	3
00002c10 47            10264 	.byte	71
00002c11 56            10265 	.byte	86
00002c12 01            10266 	.byte	1
00002c13 06            10267 	.byte	6
00002c14 4543554d5f43  10268 	.strz	"ECUM_CFG_MEMMAP_H "
00002c1a 46475f4d454d 
00002c20 4d41505f4820 
00002c26 00 
00002c27 01            10269 	.byte	1
00002c28 79            10270 	.byte	121
00002c29 4253575f5354  10271 	.strz	"BSW_START_SEC_CONST_8 "
00002c2f 4152545f5345 
00002c35 435f434f4e53 
00002c3b 545f382000 
00002c40 03            10272 	.byte	3
00002c41 7a            10273 	.byte	122
00002c42 26            10274 	.byte	38
00002c43 01            10275 	.byte	1
00002c44 dc05          10276 	.byte	220,5
00002c46 53544152545f  10277 	.strz	"START_SEC_CONST_8 "
00002c4c 5345435f434f 
00002c52 4e53545f3820 
00002c58 00 
00002c59 03            10278 	.byte	3
00002c5a bb09          10279 	.byte	187,9
00002c5c 27            10280 	.byte	39
00002c5d 01            10281 	.byte	1
00002c5e 02            10282 	.byte	2
00002c5f 53544152545f  10283 	.strz	"START_SEC_CONST_8BIT "
00002c65 5345435f434f 
00002c6b 4e53545f3842 
00002c71 49542000 
00002c75 01            10284 	.byte	1
00002c76 8f08          10285 	.byte	143,8
00002c78 434f4e53545f  10286 	.strz	"CONST_SEC_OPEN "
00002c7e 5345435f4f50 
00002c84 454e2000 
00002c88 04            10287 	.byte	4
00002c89 04            10288 	.byte	4
00002c8a 04            10289 	.byte	4
00002c8b 01            10290 	.byte	1
00002c8c 49            10291 	.byte	73
00002c8d 4543554d5f53  10292 	.strz	"ECUM_STOP_SEC_CONFIG_DATA_8 "
00002c93 544f505f5345 
00002c99 435f434f4e46 
00002c9f 49475f444154 
00002ca5 415f382000 
00002caa 03            10293 	.byte	3
00002cab 4a            10294 	.byte	74
00002cac 56            10295 	.byte	86
00002cad 01            10296 	.byte	1
00002cae 06            10297 	.byte	6

                                                                      Page 217
                                                              C:\Users\nhuliyap\AppData\Local\Temp\gh_000014o1.s
00002caf 4543554d5f43  10298 	.strz	"ECUM_CFG_MEMMAP_H "
00002cb5 46475f4d454d 
00002cbb 4d41505f4820 
00002cc1 00 
00002cc2 01            10299 	.byte	1
00002cc3 7d            10300 	.byte	125
00002cc4 4253575f5354  10301 	.strz	"BSW_STOP_SEC_CONST_8 "
00002cca 4f505f534543 
00002cd0 5f434f4e5354 
00002cd6 5f382000 
00002cda 03            10302 	.byte	3
00002cdb 7e            10303 	.byte	126
00002cdc 26            10304 	.byte	38
00002cdd 01            10305 	.byte	1
00002cde e005          10306 	.byte	224,5
00002ce0 53544f505f53  10307 	.strz	"STOP_SEC_CONST "
00002ce6 45435f434f4e 
00002cec 53542000 
00002cf0 03            10308 	.byte	3
00002cf1 bb09          10309 	.byte	187,9
00002cf3 27            10310 	.byte	39
00002cf4 04            10311 	.byte	4
00002cf5 04            10312 	.byte	4
00002cf6 04            10313 	.byte	4
00002cf7 01            10314 	.byte	1
00002cf8 4c            10315 	.byte	76
00002cf9 4543554d5f53  10316 	.strz	"ECUM_START_SEC_CONST_UNSPECIFIED "
00002cff 544152545f53 
00002d05 45435f434f4e 
00002d0b 53545f554e53 
00002d11 504543494649 
00002d17 45442000 
00002d1b 03            10317 	.byte	3
00002d1c 4d            10318 	.byte	77
00002d1d 56            10319 	.byte	86
00002d1e 01            10320 	.byte	1
00002d1f 06            10321 	.byte	6
00002d20 4543554d5f43  10322 	.strz	"ECUM_CFG_MEMMAP_H "
00002d26 46475f4d454d 
00002d2c 4d41505f4820 
00002d32 00 
00002d33 01            10323 	.byte	1
00002d34 61            10324 	.byte	97
00002d35 4253575f5354  10325 	.strz	"BSW_START_SEC_CONST_UNSPECIFIED "
00002d3b 4152545f5345 
00002d41 435f434f4e53 
00002d47 545f554e5350 
00002d4d 454349464945 
00002d53 442000 
00002d56 03            10326 	.byte	3
00002d57 62            10327 	.byte	98
00002d58 26            10328 	.byte	38
00002d59 01            10329 	.byte	1
00002d5a f005          10330 	.byte	240,5
00002d5c 53544152545f  10331 	.strz	"START_SEC_CONST_UNSPECIFIED "
00002d62 5345435f434f 
00002d68 4e53545f554e 
00002d6e 535045434946 
00002d74 4945442000 
00002d79 03            10332 	.byte	3
00002d7a bb09          10333 	.byte	187,9

                                                                      Page 218
                                                              C:\Users\nhuliyap\AppData\Local\Temp\gh_000014o1.s
00002d7c 27            10334 	.byte	39
00002d7d 01            10335 	.byte	1
00002d7e b408          10336 	.byte	180,8
00002d80 434f4e53545f  10337 	.strz	"CONST_SEC_OPEN "
00002d86 5345435f4f50 
00002d8c 454e2000 
00002d90 04            10338 	.byte	4
00002d91 04            10339 	.byte	4
00002d92 04            10340 	.byte	4
00002d93 01            10341 	.byte	1
00002d94 55            10342 	.byte	85
00002d95 4543554d5f53  10343 	.strz	"ECUM_STOP_SEC_CONST_UNSPECIFIED "
00002d9b 544f505f5345 
00002da1 435f434f4e53 
00002da7 545f554e5350 
00002dad 454349464945 
00002db3 442000 
00002db6 03            10344 	.byte	3
00002db7 56            10345 	.byte	86
00002db8 56            10346 	.byte	86
00002db9 01            10347 	.byte	1
00002dba 06            10348 	.byte	6
00002dbb 4543554d5f43  10349 	.strz	"ECUM_CFG_MEMMAP_H "
00002dc1 46475f4d454d 
00002dc7 4d41505f4820 
00002dcd 00 
00002dce 01            10350 	.byte	1
00002dcf 65            10351 	.byte	101
00002dd0 4253575f5354  10352 	.strz	"BSW_STOP_SEC_CONST_UNSPECIFIED "
00002dd6 4f505f534543 
00002ddc 5f434f4e5354 
00002de2 5f554e535045 
00002de8 434946494544 
00002dee 2000 
00002df0 03            10353 	.byte	3
00002df1 66            10354 	.byte	102
00002df2 26            10355 	.byte	38
00002df3 01            10356 	.byte	1
00002df4 f405          10357 	.byte	244,5
00002df6 53544f505f53  10358 	.strz	"STOP_SEC_CONST "
00002dfc 45435f434f4e 
00002e02 53542000 
00002e06 03            10359 	.byte	3
00002e07 bb09          10360 	.byte	187,9
00002e09 27            10361 	.byte	39
00002e0a 04            10362 	.byte	4
00002e0b 04            10363 	.byte	4
00002e0c 04            10364 	.byte	4
00002e0d 01            10365 	.byte	1
00002e0e 60            10366 	.byte	96
00002e0f 4543554d5f53  10367 	.strz	"ECUM_START_SEC_CONST_16 "
00002e15 544152545f53 
00002e1b 45435f434f4e 
00002e21 53545f313620 
00002e27 00 
00002e28 03            10368 	.byte	3
00002e29 61            10369 	.byte	97
00002e2a 56            10370 	.byte	86
00002e2b 01            10371 	.byte	1
00002e2c 06            10372 	.byte	6
00002e2d 4543554d5f43  10373 	.strz	"ECUM_CFG_MEMMAP_H "

                                                                      Page 219
                                                              C:\Users\nhuliyap\AppData\Local\Temp\gh_000014o1.s
00002e33 46475f4d454d 
00002e39 4d41505f4820 
00002e3f 00 
00002e40 01            10374 	.byte	1
00002e41 69            10375 	.byte	105
00002e42 4253575f5354  10376 	.strz	"BSW_START_SEC_CONST_16 "
00002e48 4152545f5345 
00002e4e 435f434f4e53 
00002e54 545f31362000 
00002e5a 03            10377 	.byte	3
00002e5b 6a            10378 	.byte	106
00002e5c 26            10379 	.byte	38
00002e5d 03            10380 	.byte	3
00002e5e bb09          10381 	.byte	187,9
00002e60 27            10382 	.byte	39
00002e61 04            10383 	.byte	4
00002e62 04            10384 	.byte	4
00002e63 04            10385 	.byte	4
00002e64 01            10386 	.byte	1
00002e65 63            10387 	.byte	99
00002e66 4543554d5f53  10388 	.strz	"ECUM_STOP_SEC_CONST_16 "
00002e6c 544f505f5345 
00002e72 435f434f4e53 
00002e78 545f31362000 
00002e7e 03            10389 	.byte	3
00002e7f 64            10390 	.byte	100
00002e80 56            10391 	.byte	86
00002e81 01            10392 	.byte	1
00002e82 06            10393 	.byte	6
00002e83 4543554d5f43  10394 	.strz	"ECUM_CFG_MEMMAP_H "
00002e89 46475f4d454d 
00002e8f 4d41505f4820 
00002e95 00 
00002e96 01            10395 	.byte	1
00002e97 6d            10396 	.byte	109
00002e98 4253575f5354  10397 	.strz	"BSW_STOP_SEC_CONST_16 "
00002e9e 4f505f534543 
00002ea4 5f434f4e5354 
00002eaa 5f31362000 
00002eaf 03            10398 	.byte	3
00002eb0 6e            10399 	.byte	110
00002eb1 26            10400 	.byte	38
00002eb2 03            10401 	.byte	3
00002eb3 bb09          10402 	.byte	187,9
00002eb5 27            10403 	.byte	39
00002eb6 04            10404 	.byte	4
00002eb7 04            10405 	.byte	4
00002eb8 04            10406 	.byte	4
00002eb9 04            10407 	.byte	4
00002eba 03            10408 	.byte	3
00002ebb 05            10409 	.byte	5
00002ebc 57            10410 	.byte	87
00002ebd 03            10411 	.byte	3
00002ebe 04            10412 	.byte	4
00002ebf 58            10413 	.byte	88
00002ec0 01            10414 	.byte	1
00002ec1 10            10415 	.byte	16
00002ec2 5242415f4253  10416 	.strz	"RBA_BSWSRV_START_SEC_CODE "
00002ec8 575352565f53 
00002ece 544152545f53 
00002ed4 45435f434f44 

                                                                      Page 220
                                                              C:\Users\nhuliyap\AppData\Local\Temp\gh_000014o1.s
00002eda 452000 
00002edd 03            10417 	.byte	3
00002ede 11            10418 	.byte	17
00002edf 59            10419 	.byte	89
00002ee0 01            10420 	.byte	1
00002ee1 37            10421 	.byte	55
00002ee2 4253575f5354  10422 	.strz	"BSW_START_SEC_DEFAULT_CODE "
00002ee8 4152545f5345 
00002eee 435f44454641 
00002ef4 554c545f434f 
00002efa 44452000 
00002efe 03            10423 	.byte	3
00002eff 38            10424 	.byte	56
00002f00 26            10425 	.byte	38
00002f01 01            10426 	.byte	1
00002f02 d308          10427 	.byte	211,8
00002f04 53544152545f  10428 	.strz	"START_SEC_CODE "
00002f0a 5345435f434f 
00002f10 44452000 
00002f14 03            10429 	.byte	3
00002f15 bb09          10430 	.byte	187,9
00002f17 27            10431 	.byte	39
00002f18 01            10432 	.byte	1
00002f19 f307          10433 	.byte	243,7
00002f1b 434f44455f53  10434 	.strz	"CODE_SEC_OPEN "
00002f21 45435f4f5045 
00002f27 4e2000 
00002f2a 04            10435 	.byte	4
00002f2b 04            10436 	.byte	4
00002f2c 04            10437 	.byte	4
00002f2d 01            10438 	.byte	1
00002f2e 15            10439 	.byte	21
00002f2f 5242415f4253  10440 	.strz	"RBA_BSWSRV_STOP_SEC_CODE "
00002f35 575352565f53 
00002f3b 544f505f5345 
00002f41 435f434f4445 
00002f47 2000 
00002f49 03            10441 	.byte	3
00002f4a 16            10442 	.byte	22
00002f4b 59            10443 	.byte	89
00002f4c 01            10444 	.byte	1
00002f4d 3b            10445 	.byte	59
00002f4e 4253575f5354  10446 	.strz	"BSW_STOP_SEC_DEFAULT_CODE "
00002f54 4f505f534543 
00002f5a 5f4445464155 
00002f60 4c545f434f44 
00002f66 452000 
00002f69 03            10447 	.byte	3
00002f6a 3c            10448 	.byte	60
00002f6b 26            10449 	.byte	38
00002f6c 01            10450 	.byte	1
00002f6d d608          10451 	.byte	214,8
00002f6f 53544f505f53  10452 	.strz	"STOP_SEC_CODE "
00002f75 45435f434f44 
00002f7b 452000 
00002f7e 03            10453 	.byte	3
00002f7f bb09          10454 	.byte	187,9
00002f81 27            10455 	.byte	39
00002f82 04            10456 	.byte	4
00002f83 04            10457 	.byte	4
00002f84 04            10458 	.byte	4

                                                                      Page 221
                                                              C:\Users\nhuliyap\AppData\Local\Temp\gh_000014o1.s
00002f85 04            10459 	.byte	4
00002f86 04            10460 	.byte	4
00002f87 04            10461 	.byte	4
00002f88 03            10462 	.byte	3
00002f89 05            10463 	.byte	5
00002f8a 5a            10464 	.byte	90
00002f8b 04            10465 	.byte	4
00002f8c 03            10466 	.byte	3
00002f8d 06            10467 	.byte	6
00002f8e 5b            10468 	.byte	91
00002f8f 04            10469 	.byte	4
00002f90 01            10470 	.byte	1
00002f91 08            10471 	.byte	8
00002f92 4543554d5f53  10472 	.strz	"ECUM_START_SEC_CODE "
00002f98 544152545f53 
00002f9e 45435f434f44 
00002fa4 452000 
00002fa7 03            10473 	.byte	3
00002fa8 09            10474 	.byte	9
00002fa9 56            10475 	.byte	86
00002faa 01            10476 	.byte	1
00002fab 06            10477 	.byte	6
00002fac 4543554d5f43  10478 	.strz	"ECUM_CFG_MEMMAP_H "
00002fb2 46475f4d454d 
00002fb8 4d41505f4820 
00002fbe 00 
00002fbf 01            10479 	.byte	1
00002fc0 9901          10480 	.byte	153,1
00002fc2 4253575f5354  10481 	.strz	"BSW_START_SEC_CODE "
00002fc8 4152545f5345 
00002fce 435f434f4445 
00002fd4 2000 
00002fd6 03            10482 	.byte	3
00002fd7 9a01          10483 	.byte	154,1
00002fd9 26            10484 	.byte	38
00002fda 01            10485 	.byte	1
00002fdb da08          10486 	.byte	218,8
00002fdd 53544152545f  10487 	.strz	"START_SEC_CODE "
00002fe3 5345435f434f 
00002fe9 44452000 
00002fed 03            10488 	.byte	3
00002fee bb09          10489 	.byte	187,9
00002ff0 27            10490 	.byte	39
00002ff1 01            10491 	.byte	1
00002ff2 f307          10492 	.byte	243,7
00002ff4 434f44455f53  10493 	.strz	"CODE_SEC_OPEN "
00002ffa 45435f4f5045 
00003000 4e2000 
00003003 04            10494 	.byte	4
00003004 04            10495 	.byte	4
00003005 04            10496 	.byte	4
00003006 01            10497 	.byte	1
00003007 0e            10498 	.byte	14
00003008 4543554d5f53  10499 	.strz	"ECUM_STOP_SEC_CODE "
0000300e 544f505f5345 
00003014 435f434f4445 
0000301a 2000 
0000301c 03            10500 	.byte	3
0000301d 0f            10501 	.byte	15
0000301e 56            10502 	.byte	86
0000301f 01            10503 	.byte	1

                                                                      Page 222
                                                              C:\Users\nhuliyap\AppData\Local\Temp\gh_000014o1.s
00003020 06            10504 	.byte	6
00003021 4543554d5f43  10505 	.strz	"ECUM_CFG_MEMMAP_H "
00003027 46475f4d454d 
0000302d 4d41505f4820 
00003033 00 
00003034 01            10506 	.byte	1
00003035 9d01          10507 	.byte	157,1
00003037 4253575f5354  10508 	.strz	"BSW_STOP_SEC_CODE "
0000303d 4f505f534543 
00003043 5f434f444520 
00003049 00 
0000304a 03            10509 	.byte	3
0000304b 9e01          10510 	.byte	158,1
0000304d 26            10511 	.byte	38
0000304e 01            10512 	.byte	1
0000304f de08          10513 	.byte	222,8
00003051 53544f505f53  10514 	.strz	"STOP_SEC_CODE "
00003057 45435f434f44 
0000305d 452000 
00003060 03            10515 	.byte	3
00003061 bb09          10516 	.byte	187,9
00003063 27            10517 	.byte	39
00003064 04            10518 	.byte	4
00003065 04            10519 	.byte	4
00003066 04            10520 	.byte	4
00003067 04            10521 	.byte	4
00003068 01            10522 	.byte	1
00003069 2b            10523 	.byte	43
0000306a 43414e49465f  10524 	.strz	"CANIF_PUBLIC_TXCONFIRM_POLLING_SUPPORT STD_OFF"
00003070 5055424c4943 
00003076 5f5458434f4e 
0000307c 4649524d5f50 
00003082 4f4c4c494e47 
00003088 5f535550504f 
0000308e 525420535444 
00003094 5f4f464600 
00003099 01            10525 	.byte	1
0000309a 2e            10526 	.byte	46
0000309b 43414e49465f  10527 	.strz	"CANIF_SET_BAUDRATE_API STD_OFF"
000030a1 5345545f4241 
000030a7 554452415445 
000030ad 5f4150492053 
000030b3 54445f4f4646 
000030b9 00 
000030ba 01            10528 	.byte	1
000030bb 2f            10529 	.byte	47
000030bc 43414e49465f  10530 	.strz	"CANIF_PUBLIC_CANCEL_TRANSMIT_SUPPORT STD_OFF"
000030c2 5055424c4943 
000030c8 5f43414e4345 
000030ce 4c5f5452414e 
000030d4 534d49545f53 
000030da 5550504f5254 
000030e0 205354445f4f 
000030e6 464600 
000030e9 01            10531 	.byte	1
000030ea 31            10532 	.byte	49
000030eb 43414e49465f  10533 	.strz	"CANIF_DIRECT_HW_WRITE STD_OFF"
000030f1 444952454354 
000030f7 5f48575f5752 
000030fd 495445205354 
00003103 445f4f464600 

                                                                      Page 223
                                                              C:\Users\nhuliyap\AppData\Local\Temp\gh_000014o1.s
00003109 01            10534 	.byte	1
0000310a 37            10535 	.byte	55
0000310b 43414e49465f  10536 	.strz	"CANIF_TRCV_WAKEUP_SUPPORT STD_OFF"
00003111 545243565f57 
00003117 414b4555505f 
0000311d 535550504f52 
00003123 54205354445f 
00003129 4f464600 
0000312d 01            10537 	.byte	1
0000312e 39            10538 	.byte	57
0000312f 43414e49465f  10539 	.strz	"CANIF_PUBLIC_WAKEUP_CHECK_VALIDATION_API STD_OFF"
00003135 5055424c4943 
0000313b 5f57414b4555 
00003141 505f43484543 
00003147 4b5f56414c49 
0000314d 444154494f4e 
00003153 5f4150492053 
00003159 54445f4f4646 
0000315f 00 
00003160 01            10540 	.byte	1
00003161 3b            10541 	.byte	59
00003162 43414e49465f  10542 	.strz	"CANIF_PUBLIC_SETDYNAMICTXID_API STD_OFF"
00003168 5055424c4943 
0000316e 5f5345544459 
00003174 4e414d494354 
0000317a 5849445f4150 
00003180 49205354445f 
00003186 4f464600 
0000318a 01            10543 	.byte	1
0000318b 3c            10544 	.byte	60
0000318c 43414e49465f  10545 	.strz	"CANIF_RB_CHANGERXPDUID_API STD_OFF"
00003192 52425f434841 
00003198 4e4745525850 
0000319e 445549445f41 
000031a4 504920535444 
000031aa 5f4f464600 
000031af 01            10546 	.byte	1
000031b0 40            10547 	.byte	64
000031b1 43414e49465f  10548 	.strz	"CANIF_WAKEUP_SUPPORT STD_OFF"
000031b7 57414b455550 
000031bd 5f535550504f 
000031c3 525420535444 
000031c9 5f4f464600 
000031ce 01            10549 	.byte	1
000031cf 43            10550 	.byte	67
000031d0 43414e49465f  10551 	.strz	"CANIF_CFG_TRCV_DRV_SUPPORT STD_OFF"
000031d6 4346475f5452 
000031dc 43565f445256 
000031e2 5f535550504f 
000031e8 525420535444 
000031ee 5f4f464600 
000031f3 01            10552 	.byte	1
000031f4 47            10553 	.byte	71
000031f5 43414e49465f  10554 	.strz	"CANIF_RB_READMSGID_API STD_OFF"
000031fb 52425f524541 
00003201 444d53474944 
00003207 5f4150492053 
0000320d 54445f4f4646 
00003213 00 
00003214 01            10555 	.byte	1
00003215 48            10556 	.byte	72

                                                                      Page 224
                                                              C:\Users\nhuliyap\AppData\Local\Temp\gh_000014o1.s
00003216 43414e49465f  10557 	.strz	"CANIF_RB_ERROR_PASSIVE_SUPPORT STD_OFF"
0000321c 52425f455252 
00003222 4f525f504153 
00003228 534956455f53 
0000322e 5550504f5254 
00003234 205354445f4f 
0000323a 464600 
0000323d 01            10558 	.byte	1
0000323e 4b            10559 	.byte	75
0000323f 43414e49465f  10560 	.strz	"CANIF_CFG_DLC_CHECK STD_OFF"
00003245 4346475f444c 
0000324b 435f43484543 
00003251 4b205354445f 
00003257 4f464600 
0000325b 01            10561 	.byte	1
0000325c 4f            10562 	.byte	79
0000325d 43414e49465f  10563 	.strz	"CANIF_PUBLIC_PN_SUPPORT STD_OFF"
00003263 5055424c4943 
00003269 5f504e5f5355 
0000326f 50504f525420 
00003275 5354445f4f46 
0000327b 4600 
0000327d 01            10564 	.byte	1
0000327e 67            10565 	.byte	103
0000327f 43414e49465f  10566 	.strz	"CANIF_CFG_VAR_PC 1"
00003285 4346475f5641 
0000328b 525f50432031 
00003291 00 
00003292 01            10567 	.byte	1
00003293 68            10568 	.byte	104
00003294 43414e49465f  10569 	.strz	"CANIF_CFG_VAR_PBS 2"
0000329a 4346475f5641 
000032a0 525f50425320 
000032a6 3200 
000032a8 01            10570 	.byte	1
000032a9 69            10571 	.byte	105
000032aa 43414e49465f  10572 	.strz	"CANIF_CONFIGURATION_VARIANT CANIF_CFG_VAR_PC"
000032b0 434f4e464947 
000032b6 55524154494f 
000032bc 4e5f56415249 
000032c2 414e54204341 
000032c8 4e49465f4346 
000032ce 475f5641525f 
000032d4 504300 
000032d7 01            10573 	.byte	1
000032d8 8101          10574 	.byte	129,1
000032da 43414e49465f  10575 	.strz	"CANIF_VARIANT_INFO 1"
000032e0 56415249414e 
000032e6 545f494e464f 
000032ec 203100 
000032ef 01            10576 	.byte	1
000032f0 ab02          10577 	.byte	171,2
000032f2 43414e49465f  10578 	.strz	"CANIF_START_SEC_CONST_UNSPECIFIED "
000032f8 53544152545f 
000032fe 5345435f434f 
00003304 4e53545f554e 
0000330a 535045434946 
00003310 4945442000 
00003315 03            10579 	.byte	3
00003316 ac02          10580 	.byte	172,2
00003318 5c            10581 	.byte	92

                                                                      Page 225
                                                              C:\Users\nhuliyap\AppData\Local\Temp\gh_000014o1.s
00003319 01            10582 	.byte	1
0000331a 06            10583 	.byte	6
0000331b 4d454d4d4150  10584 	.strz	"MEMMAP_ERROR "
00003321 5f4552524f52 
00003327 2000 
00003329 01            10585 	.byte	1
0000332a 4d            10586 	.byte	77
0000332b 4253575f5354  10587 	.strz	"BSW_START_SEC_CONST_UNSPECIFIED "
00003331 4152545f5345 
00003337 435f434f4e53 
0000333d 545f554e5350 
00003343 454349464945 
00003349 442000 
0000334c 03            10588 	.byte	3
0000334d 4e            10589 	.byte	78
0000334e 26            10590 	.byte	38
0000334f 01            10591 	.byte	1
00003350 f005          10592 	.byte	240,5
00003352 53544152545f  10593 	.strz	"START_SEC_CONST_UNSPECIFIED "
00003358 5345435f434f 
0000335e 4e53545f554e 
00003364 535045434946 
0000336a 4945442000 
0000336f 03            10594 	.byte	3
00003370 bb09          10595 	.byte	187,9
00003372 27            10596 	.byte	39
00003373 01            10597 	.byte	1
00003374 b408          10598 	.byte	180,8
00003376 434f4e53545f  10599 	.strz	"CONST_SEC_OPEN "
0000337c 5345435f4f50 
00003382 454e2000 
00003386 04            10600 	.byte	4
00003387 04            10601 	.byte	4
00003388 04            10602 	.byte	4
00003389 01            10603 	.byte	1
0000338a ae02          10604 	.byte	174,2
0000338c 43414e49465f  10605 	.strz	"CANIF_STOP_SEC_CONST_UNSPECIFIED "
00003392 53544f505f53 
00003398 45435f434f4e 
0000339e 53545f554e53 
000033a4 504543494649 
000033aa 45442000 
000033ae 03            10606 	.byte	3
000033af af02          10607 	.byte	175,2
000033b1 5c            10608 	.byte	92
000033b2 01            10609 	.byte	1
000033b3 06            10610 	.byte	6
000033b4 4d454d4d4150  10611 	.strz	"MEMMAP_ERROR "
000033ba 5f4552524f52 
000033c0 2000 
000033c2 01            10612 	.byte	1
000033c3 52            10613 	.byte	82
000033c4 4253575f5354  10614 	.strz	"BSW_STOP_SEC_CONST_UNSPECIFIED "
000033ca 4f505f534543 
000033d0 5f434f4e5354 
000033d6 5f554e535045 
000033dc 434946494544 
000033e2 2000 
000033e4 03            10615 	.byte	3
000033e5 53            10616 	.byte	83
000033e6 26            10617 	.byte	38

                                                                      Page 226
                                                              C:\Users\nhuliyap\AppData\Local\Temp\gh_000014o1.s
000033e7 01            10618 	.byte	1
000033e8 f405          10619 	.byte	244,5
000033ea 53544f505f53  10620 	.strz	"STOP_SEC_CONST "
000033f0 45435f434f4e 
000033f6 53542000 
000033fa 03            10621 	.byte	3
000033fb bb09          10622 	.byte	187,9
000033fd 27            10623 	.byte	39
000033fe 04            10624 	.byte	4
000033ff 04            10625 	.byte	4
00003400 04            10626 	.byte	4
00003401 04            10627 	.byte	4
00003402 01            10628 	.byte	1
00003403 0c            10629 	.byte	12
00003404 43414e49465f  10630 	.strz	"CANIF_START_SEC_CODE "
0000340a 53544152545f 
00003410 5345435f434f 
00003416 44452000 
0000341a 03            10631 	.byte	3
0000341b 0d            10632 	.byte	13
0000341c 5c            10633 	.byte	92
0000341d 01            10634 	.byte	1
0000341e 06            10635 	.byte	6
0000341f 4d454d4d4150  10636 	.strz	"MEMMAP_ERROR "
00003425 5f4552524f52 
0000342b 2000 
0000342d 01            10637 	.byte	1
0000342e d701          10638 	.byte	215,1
00003430 4253575f5354  10639 	.strz	"BSW_START_SEC_CODE "
00003436 4152545f5345 
0000343c 435f434f4445 
00003442 2000 
00003444 03            10640 	.byte	3
00003445 d801          10641 	.byte	216,1
00003447 26            10642 	.byte	38
00003448 01            10643 	.byte	1
00003449 da08          10644 	.byte	218,8
0000344b 53544152545f  10645 	.strz	"START_SEC_CODE "
00003451 5345435f434f 
00003457 44452000 
0000345b 03            10646 	.byte	3
0000345c bb09          10647 	.byte	187,9
0000345e 27            10648 	.byte	39
0000345f 01            10649 	.byte	1
00003460 f307          10650 	.byte	243,7
00003462 434f44455f53  10651 	.strz	"CODE_SEC_OPEN "
00003468 45435f4f5045 
0000346e 4e2000 
00003471 04            10652 	.byte	4
00003472 04            10653 	.byte	4
00003473 04            10654 	.byte	4
00003474 01            10655 	.byte	1
00003475 0f            10656 	.byte	15
00003476 43414e49465f  10657 	.strz	"CANIF_STOP_SEC_CODE "
0000347c 53544f505f53 
00003482 45435f434f44 
00003488 452000 
0000348b 03            10658 	.byte	3
0000348c 10            10659 	.byte	16
0000348d 5c            10660 	.byte	92
0000348e 01            10661 	.byte	1

                                                                      Page 227
                                                              C:\Users\nhuliyap\AppData\Local\Temp\gh_000014o1.s
0000348f 06            10662 	.byte	6
00003490 4d454d4d4150  10663 	.strz	"MEMMAP_ERROR "
00003496 5f4552524f52 
0000349c 2000 
0000349e 01            10664 	.byte	1
0000349f dc01          10665 	.byte	220,1
000034a1 4253575f5354  10666 	.strz	"BSW_STOP_SEC_CODE "
000034a7 4f505f534543 
000034ad 5f434f444520 
000034b3 00 
000034b4 03            10667 	.byte	3
000034b5 dd01          10668 	.byte	221,1
000034b7 26            10669 	.byte	38
000034b8 01            10670 	.byte	1
000034b9 de08          10671 	.byte	222,8
000034bb 53544f505f53  10672 	.strz	"STOP_SEC_CODE "
000034c1 45435f434f44 
000034c7 452000 
000034ca 03            10673 	.byte	3
000034cb bb09          10674 	.byte	187,9
000034cd 27            10675 	.byte	39
000034ce 04            10676 	.byte	4
000034cf 04            10677 	.byte	4
000034d0 04            10678 	.byte	4
000034d1 01            10679 	.byte	1
000034d2 12            10680 	.byte	18
000034d3 43414e49465f  10681 	.strz	"CANIF_START_SEC_CODE "
000034d9 53544152545f 
000034df 5345435f434f 
000034e5 44452000 
000034e9 03            10682 	.byte	3
000034ea 13            10683 	.byte	19
000034eb 5c            10684 	.byte	92
000034ec 01            10685 	.byte	1
000034ed 06            10686 	.byte	6
000034ee 4d454d4d4150  10687 	.strz	"MEMMAP_ERROR "
000034f4 5f4552524f52 
000034fa 2000 
000034fc 01            10688 	.byte	1
000034fd d701          10689 	.byte	215,1
000034ff 4253575f5354  10690 	.strz	"BSW_START_SEC_CODE "
00003505 4152545f5345 
0000350b 435f434f4445 
00003511 2000 
00003513 03            10691 	.byte	3
00003514 d801          10692 	.byte	216,1
00003516 26            10693 	.byte	38
00003517 01            10694 	.byte	1
00003518 da08          10695 	.byte	218,8
0000351a 53544152545f  10696 	.strz	"START_SEC_CODE "
00003520 5345435f434f 
00003526 44452000 
0000352a 03            10697 	.byte	3
0000352b bb09          10698 	.byte	187,9
0000352d 27            10699 	.byte	39
0000352e 01            10700 	.byte	1
0000352f f307          10701 	.byte	243,7
00003531 434f44455f53  10702 	.strz	"CODE_SEC_OPEN "
00003537 45435f4f5045 
0000353d 4e2000 
00003540 04            10703 	.byte	4

                                                                      Page 228
                                                              C:\Users\nhuliyap\AppData\Local\Temp\gh_000014o1.s
00003541 04            10704 	.byte	4
00003542 04            10705 	.byte	4
00003543 01            10706 	.byte	1
00003544 16            10707 	.byte	22
00003545 43414e49465f  10708 	.strz	"CANIF_STOP_SEC_CODE "
0000354b 53544f505f53 
00003551 45435f434f44 
00003557 452000 
0000355a 03            10709 	.byte	3
0000355b 17            10710 	.byte	23
0000355c 5c            10711 	.byte	92
0000355d 01            10712 	.byte	1
0000355e 06            10713 	.byte	6
0000355f 4d454d4d4150  10714 	.strz	"MEMMAP_ERROR "
00003565 5f4552524f52 
0000356b 2000 
0000356d 01            10715 	.byte	1
0000356e dc01          10716 	.byte	220,1
00003570 4253575f5354  10717 	.strz	"BSW_STOP_SEC_CODE "
00003576 4f505f534543 
0000357c 5f434f444520 
00003582 00 
00003583 03            10718 	.byte	3
00003584 dd01          10719 	.byte	221,1
00003586 26            10720 	.byte	38
00003587 01            10721 	.byte	1
00003588 de08          10722 	.byte	222,8
0000358a 53544f505f53  10723 	.strz	"STOP_SEC_CODE "
00003590 45435f434f44 
00003596 452000 
00003599 03            10724 	.byte	3
0000359a bb09          10725 	.byte	187,9
0000359c 27            10726 	.byte	39
0000359d 04            10727 	.byte	4
0000359e 04            10728 	.byte	4
0000359f 04            10729 	.byte	4
000035a0 01            10730 	.byte	1
000035a1 19            10731 	.byte	25
000035a2 43414e49465f  10732 	.strz	"CANIF_START_SEC_CODE "
000035a8 53544152545f 
000035ae 5345435f434f 
000035b4 44452000 
000035b8 03            10733 	.byte	3
000035b9 1a            10734 	.byte	26
000035ba 5c            10735 	.byte	92
000035bb 01            10736 	.byte	1
000035bc 06            10737 	.byte	6
000035bd 4d454d4d4150  10738 	.strz	"MEMMAP_ERROR "
000035c3 5f4552524f52 
000035c9 2000 
000035cb 01            10739 	.byte	1
000035cc d701          10740 	.byte	215,1
000035ce 4253575f5354  10741 	.strz	"BSW_START_SEC_CODE "
000035d4 4152545f5345 
000035da 435f434f4445 
000035e0 2000 
000035e2 03            10742 	.byte	3
000035e3 d801          10743 	.byte	216,1
000035e5 26            10744 	.byte	38
000035e6 01            10745 	.byte	1
000035e7 da08          10746 	.byte	218,8

                                                                      Page 229
                                                              C:\Users\nhuliyap\AppData\Local\Temp\gh_000014o1.s
000035e9 53544152545f  10747 	.strz	"START_SEC_CODE "
000035ef 5345435f434f 
000035f5 44452000 
000035f9 03            10748 	.byte	3
000035fa bb09          10749 	.byte	187,9
000035fc 27            10750 	.byte	39
000035fd 01            10751 	.byte	1
000035fe f307          10752 	.byte	243,7
00003600 434f44455f53  10753 	.strz	"CODE_SEC_OPEN "
00003606 45435f4f5045 
0000360c 4e2000 
0000360f 04            10754 	.byte	4
00003610 04            10755 	.byte	4
00003611 04            10756 	.byte	4
00003612 01            10757 	.byte	1
00003613 1d            10758 	.byte	29
00003614 43414e49465f  10759 	.strz	"CANIF_STOP_SEC_CODE "
0000361a 53544f505f53 
00003620 45435f434f44 
00003626 452000 
00003629 03            10760 	.byte	3
0000362a 1e            10761 	.byte	30
0000362b 5c            10762 	.byte	92
0000362c 01            10763 	.byte	1
0000362d 06            10764 	.byte	6
0000362e 4d454d4d4150  10765 	.strz	"MEMMAP_ERROR "
00003634 5f4552524f52 
0000363a 2000 
0000363c 01            10766 	.byte	1
0000363d dc01          10767 	.byte	220,1
0000363f 4253575f5354  10768 	.strz	"BSW_STOP_SEC_CODE "
00003645 4f505f534543 
0000364b 5f434f444520 
00003651 00 
00003652 03            10769 	.byte	3
00003653 dd01          10770 	.byte	221,1
00003655 26            10771 	.byte	38
00003656 01            10772 	.byte	1
00003657 de08          10773 	.byte	222,8
00003659 53544f505f53  10774 	.strz	"STOP_SEC_CODE "
0000365f 45435f434f44 
00003665 452000 
00003668 03            10775 	.byte	3
00003669 bb09          10776 	.byte	187,9
0000366b 27            10777 	.byte	39
0000366c 04            10778 	.byte	4
0000366d 04            10779 	.byte	4
0000366e 04            10780 	.byte	4
0000366f 01            10781 	.byte	1
00003670 20            10782 	.byte	32
00003671 43414e49465f  10783 	.strz	"CANIF_START_SEC_CODE "
00003677 53544152545f 
0000367d 5345435f434f 
00003683 44452000 
00003687 03            10784 	.byte	3
00003688 21            10785 	.byte	33
00003689 5c            10786 	.byte	92
0000368a 01            10787 	.byte	1
0000368b 06            10788 	.byte	6
0000368c 4d454d4d4150  10789 	.strz	"MEMMAP_ERROR "
00003692 5f4552524f52 

                                                                      Page 230
                                                              C:\Users\nhuliyap\AppData\Local\Temp\gh_000014o1.s
00003698 2000 
0000369a 01            10790 	.byte	1
0000369b d701          10791 	.byte	215,1
0000369d 4253575f5354  10792 	.strz	"BSW_START_SEC_CODE "
000036a3 4152545f5345 
000036a9 435f434f4445 
000036af 2000 
000036b1 03            10793 	.byte	3
000036b2 d801          10794 	.byte	216,1
000036b4 26            10795 	.byte	38
000036b5 01            10796 	.byte	1
000036b6 da08          10797 	.byte	218,8
000036b8 53544152545f  10798 	.strz	"START_SEC_CODE "
000036be 5345435f434f 
000036c4 44452000 
000036c8 03            10799 	.byte	3
000036c9 bb09          10800 	.byte	187,9
000036cb 27            10801 	.byte	39
000036cc 01            10802 	.byte	1
000036cd f307          10803 	.byte	243,7
000036cf 434f44455f53  10804 	.strz	"CODE_SEC_OPEN "
000036d5 45435f4f5045 
000036db 4e2000 
000036de 04            10805 	.byte	4
000036df 04            10806 	.byte	4
000036e0 04            10807 	.byte	4
000036e1 01            10808 	.byte	1
000036e2 24            10809 	.byte	36
000036e3 43414e49465f  10810 	.strz	"CANIF_STOP_SEC_CODE "
000036e9 53544f505f53 
000036ef 45435f434f44 
000036f5 452000 
000036f8 03            10811 	.byte	3
000036f9 25            10812 	.byte	37
000036fa 5c            10813 	.byte	92
000036fb 01            10814 	.byte	1
000036fc 06            10815 	.byte	6
000036fd 4d454d4d4150  10816 	.strz	"MEMMAP_ERROR "
00003703 5f4552524f52 
00003709 2000 
0000370b 01            10817 	.byte	1
0000370c dc01          10818 	.byte	220,1
0000370e 4253575f5354  10819 	.strz	"BSW_STOP_SEC_CODE "
00003714 4f505f534543 
0000371a 5f434f444520 
00003720 00 
00003721 03            10820 	.byte	3
00003722 dd01          10821 	.byte	221,1
00003724 26            10822 	.byte	38
00003725 01            10823 	.byte	1
00003726 de08          10824 	.byte	222,8
00003728 53544f505f53  10825 	.strz	"STOP_SEC_CODE "
0000372e 45435f434f44 
00003734 452000 
00003737 03            10826 	.byte	3
00003738 bb09          10827 	.byte	187,9
0000373a 27            10828 	.byte	39
0000373b 04            10829 	.byte	4
0000373c 04            10830 	.byte	4
0000373d 04            10831 	.byte	4
0000373e 01            10832 	.byte	1

                                                                      Page 231
                                                              C:\Users\nhuliyap\AppData\Local\Temp\gh_000014o1.s
0000373f 2f            10833 	.byte	47
00003740 43414e49465f  10834 	.strz	"CANIF_START_SEC_CODE "
00003746 53544152545f 
0000374c 5345435f434f 
00003752 44452000 
00003756 03            10835 	.byte	3
00003757 30            10836 	.byte	48
00003758 5c            10837 	.byte	92
00003759 01            10838 	.byte	1
0000375a 06            10839 	.byte	6
0000375b 4d454d4d4150  10840 	.strz	"MEMMAP_ERROR "
00003761 5f4552524f52 
00003767 2000 
00003769 01            10841 	.byte	1
0000376a d701          10842 	.byte	215,1
0000376c 4253575f5354  10843 	.strz	"BSW_START_SEC_CODE "
00003772 4152545f5345 
00003778 435f434f4445 
0000377e 2000 
00003780 03            10844 	.byte	3
00003781 d801          10845 	.byte	216,1
00003783 26            10846 	.byte	38
00003784 01            10847 	.byte	1
00003785 da08          10848 	.byte	218,8
00003787 53544152545f  10849 	.strz	"START_SEC_CODE "
0000378d 5345435f434f 
00003793 44452000 
00003797 03            10850 	.byte	3
00003798 bb09          10851 	.byte	187,9
0000379a 27            10852 	.byte	39
0000379b 01            10853 	.byte	1
0000379c f307          10854 	.byte	243,7
0000379e 434f44455f53  10855 	.strz	"CODE_SEC_OPEN "
000037a4 45435f4f5045 
000037aa 4e2000 
000037ad 04            10856 	.byte	4
000037ae 04            10857 	.byte	4
000037af 04            10858 	.byte	4
000037b0 01            10859 	.byte	1
000037b1 33            10860 	.byte	51
000037b2 43414e49465f  10861 	.strz	"CANIF_STOP_SEC_CODE "
000037b8 53544f505f53 
000037be 45435f434f44 
000037c4 452000 
000037c7 03            10862 	.byte	3
000037c8 34            10863 	.byte	52
000037c9 5c            10864 	.byte	92
000037ca 01            10865 	.byte	1
000037cb 06            10866 	.byte	6
000037cc 4d454d4d4150  10867 	.strz	"MEMMAP_ERROR "
000037d2 5f4552524f52 
000037d8 2000 
000037da 01            10868 	.byte	1
000037db dc01          10869 	.byte	220,1
000037dd 4253575f5354  10870 	.strz	"BSW_STOP_SEC_CODE "
000037e3 4f505f534543 
000037e9 5f434f444520 
000037ef 00 
000037f0 03            10871 	.byte	3
000037f1 dd01          10872 	.byte	221,1
000037f3 26            10873 	.byte	38

                                                                      Page 232
                                                              C:\Users\nhuliyap\AppData\Local\Temp\gh_000014o1.s
000037f4 01            10874 	.byte	1
000037f5 de08          10875 	.byte	222,8
000037f7 53544f505f53  10876 	.strz	"STOP_SEC_CODE "
000037fd 45435f434f44 
00003803 452000 
00003806 03            10877 	.byte	3
00003807 bb09          10878 	.byte	187,9
00003809 27            10879 	.byte	39
0000380a 04            10880 	.byte	4
0000380b 04            10881 	.byte	4
0000380c 04            10882 	.byte	4
0000380d 01            10883 	.byte	1
0000380e 36            10884 	.byte	54
0000380f 43414e49465f  10885 	.strz	"CANIF_START_SEC_CODE "
00003815 53544152545f 
0000381b 5345435f434f 
00003821 44452000 
00003825 03            10886 	.byte	3
00003826 37            10887 	.byte	55
00003827 5c            10888 	.byte	92
00003828 01            10889 	.byte	1
00003829 06            10890 	.byte	6
0000382a 4d454d4d4150  10891 	.strz	"MEMMAP_ERROR "
00003830 5f4552524f52 
00003836 2000 
00003838 01            10892 	.byte	1
00003839 d701          10893 	.byte	215,1
0000383b 4253575f5354  10894 	.strz	"BSW_START_SEC_CODE "
00003841 4152545f5345 
00003847 435f434f4445 
0000384d 2000 
0000384f 03            10895 	.byte	3
00003850 d801          10896 	.byte	216,1
00003852 26            10897 	.byte	38
00003853 01            10898 	.byte	1
00003854 da08          10899 	.byte	218,8
00003856 53544152545f  10900 	.strz	"START_SEC_CODE "
0000385c 5345435f434f 
00003862 44452000 
00003866 03            10901 	.byte	3
00003867 bb09          10902 	.byte	187,9
00003869 27            10903 	.byte	39
0000386a 01            10904 	.byte	1
0000386b f307          10905 	.byte	243,7
0000386d 434f44455f53  10906 	.strz	"CODE_SEC_OPEN "
00003873 45435f4f5045 
00003879 4e2000 
0000387c 04            10907 	.byte	4
0000387d 04            10908 	.byte	4
0000387e 04            10909 	.byte	4
0000387f 01            10910 	.byte	1
00003880 39            10911 	.byte	57
00003881 43414e49465f  10912 	.strz	"CANIF_STOP_SEC_CODE "
00003887 53544f505f53 
0000388d 45435f434f44 
00003893 452000 
00003896 03            10913 	.byte	3
00003897 3a            10914 	.byte	58
00003898 5c            10915 	.byte	92
00003899 01            10916 	.byte	1
0000389a 06            10917 	.byte	6

                                                                      Page 233
                                                              C:\Users\nhuliyap\AppData\Local\Temp\gh_000014o1.s
0000389b 4d454d4d4150  10918 	.strz	"MEMMAP_ERROR "
000038a1 5f4552524f52 
000038a7 2000 
000038a9 01            10919 	.byte	1
000038aa dc01          10920 	.byte	220,1
000038ac 4253575f5354  10921 	.strz	"BSW_STOP_SEC_CODE "
000038b2 4f505f534543 
000038b8 5f434f444520 
000038be 00 
000038bf 03            10922 	.byte	3
000038c0 dd01          10923 	.byte	221,1
000038c2 26            10924 	.byte	38
000038c3 01            10925 	.byte	1
000038c4 de08          10926 	.byte	222,8
000038c6 53544f505f53  10927 	.strz	"STOP_SEC_CODE "
000038cc 45435f434f44 
000038d2 452000 
000038d5 03            10928 	.byte	3
000038d6 bb09          10929 	.byte	187,9
000038d8 27            10930 	.byte	39
000038d9 04            10931 	.byte	4
000038da 04            10932 	.byte	4
000038db 04            10933 	.byte	4
000038dc 01            10934 	.byte	1
000038dd 4d            10935 	.byte	77
000038de 43414e49465f  10936 	.strz	"CANIF_START_SEC_CODE "
000038e4 53544152545f 
000038ea 5345435f434f 
000038f0 44452000 
000038f4 03            10937 	.byte	3
000038f5 4e            10938 	.byte	78
000038f6 5c            10939 	.byte	92
000038f7 01            10940 	.byte	1
000038f8 06            10941 	.byte	6
000038f9 4d454d4d4150  10942 	.strz	"MEMMAP_ERROR "
000038ff 5f4552524f52 
00003905 2000 
00003907 01            10943 	.byte	1
00003908 d701          10944 	.byte	215,1
0000390a 4253575f5354  10945 	.strz	"BSW_START_SEC_CODE "
00003910 4152545f5345 
00003916 435f434f4445 
0000391c 2000 
0000391e 03            10946 	.byte	3
0000391f d801          10947 	.byte	216,1
00003921 26            10948 	.byte	38
00003922 01            10949 	.byte	1
00003923 da08          10950 	.byte	218,8
00003925 53544152545f  10951 	.strz	"START_SEC_CODE "
0000392b 5345435f434f 
00003931 44452000 
00003935 03            10952 	.byte	3
00003936 bb09          10953 	.byte	187,9
00003938 27            10954 	.byte	39
00003939 01            10955 	.byte	1
0000393a f307          10956 	.byte	243,7
0000393c 434f44455f53  10957 	.strz	"CODE_SEC_OPEN "
00003942 45435f4f5045 
00003948 4e2000 
0000394b 04            10958 	.byte	4
0000394c 04            10959 	.byte	4

                                                                      Page 234
                                                              C:\Users\nhuliyap\AppData\Local\Temp\gh_000014o1.s
0000394d 04            10960 	.byte	4
0000394e 01            10961 	.byte	1
0000394f 53            10962 	.byte	83
00003950 43414e49465f  10963 	.strz	"CANIF_STOP_SEC_CODE "
00003956 53544f505f53 
0000395c 45435f434f44 
00003962 452000 
00003965 03            10964 	.byte	3
00003966 54            10965 	.byte	84
00003967 5c            10966 	.byte	92
00003968 01            10967 	.byte	1
00003969 06            10968 	.byte	6
0000396a 4d454d4d4150  10969 	.strz	"MEMMAP_ERROR "
00003970 5f4552524f52 
00003976 2000 
00003978 01            10970 	.byte	1
00003979 dc01          10971 	.byte	220,1
0000397b 4253575f5354  10972 	.strz	"BSW_STOP_SEC_CODE "
00003981 4f505f534543 
00003987 5f434f444520 
0000398d 00 
0000398e 03            10973 	.byte	3
0000398f dd01          10974 	.byte	221,1
00003991 26            10975 	.byte	38
00003992 01            10976 	.byte	1
00003993 de08          10977 	.byte	222,8
00003995 53544f505f53  10978 	.strz	"STOP_SEC_CODE "
0000399b 45435f434f44 
000039a1 452000 
000039a4 03            10979 	.byte	3
000039a5 bb09          10980 	.byte	187,9
000039a7 27            10981 	.byte	39
000039a8 04            10982 	.byte	4
000039a9 04            10983 	.byte	4
000039aa 04            10984 	.byte	4
000039ab 01            10985 	.byte	1
000039ac 56            10986 	.byte	86
000039ad 43414e49465f  10987 	.strz	"CANIF_START_SEC_CODE "
000039b3 53544152545f 
000039b9 5345435f434f 
000039bf 44452000 
000039c3 03            10988 	.byte	3
000039c4 57            10989 	.byte	87
000039c5 5c            10990 	.byte	92
000039c6 01            10991 	.byte	1
000039c7 06            10992 	.byte	6
000039c8 4d454d4d4150  10993 	.strz	"MEMMAP_ERROR "
000039ce 5f4552524f52 
000039d4 2000 
000039d6 01            10994 	.byte	1
000039d7 d701          10995 	.byte	215,1
000039d9 4253575f5354  10996 	.strz	"BSW_START_SEC_CODE "
000039df 4152545f5345 
000039e5 435f434f4445 
000039eb 2000 
000039ed 03            10997 	.byte	3
000039ee d801          10998 	.byte	216,1
000039f0 26            10999 	.byte	38
000039f1 01            11000 	.byte	1
000039f2 da08          11001 	.byte	218,8
000039f4 53544152545f  11002 	.strz	"START_SEC_CODE "

                                                                      Page 235
                                                              C:\Users\nhuliyap\AppData\Local\Temp\gh_000014o1.s
000039fa 5345435f434f 
00003a00 44452000 
00003a04 03            11003 	.byte	3
00003a05 bb09          11004 	.byte	187,9
00003a07 27            11005 	.byte	39
00003a08 01            11006 	.byte	1
00003a09 f307          11007 	.byte	243,7
00003a0b 434f44455f53  11008 	.strz	"CODE_SEC_OPEN "
00003a11 45435f4f5045 
00003a17 4e2000 
00003a1a 04            11009 	.byte	4
00003a1b 04            11010 	.byte	4
00003a1c 04            11011 	.byte	4
00003a1d 01            11012 	.byte	1
00003a1e 5a            11013 	.byte	90
00003a1f 43414e49465f  11014 	.strz	"CANIF_STOP_SEC_CODE "
00003a25 53544f505f53 
00003a2b 45435f434f44 
00003a31 452000 
00003a34 03            11015 	.byte	3
00003a35 5b            11016 	.byte	91
00003a36 5c            11017 	.byte	92
00003a37 01            11018 	.byte	1
00003a38 06            11019 	.byte	6
00003a39 4d454d4d4150  11020 	.strz	"MEMMAP_ERROR "
00003a3f 5f4552524f52 
00003a45 2000 
00003a47 01            11021 	.byte	1
00003a48 dc01          11022 	.byte	220,1
00003a4a 4253575f5354  11023 	.strz	"BSW_STOP_SEC_CODE "
00003a50 4f505f534543 
00003a56 5f434f444520 
00003a5c 00 
00003a5d 03            11024 	.byte	3
00003a5e dd01          11025 	.byte	221,1
00003a60 26            11026 	.byte	38
00003a61 01            11027 	.byte	1
00003a62 de08          11028 	.byte	222,8
00003a64 53544f505f53  11029 	.strz	"STOP_SEC_CODE "
00003a6a 45435f434f44 
00003a70 452000 
00003a73 03            11030 	.byte	3
00003a74 bb09          11031 	.byte	187,9
00003a76 27            11032 	.byte	39
00003a77 04            11033 	.byte	4
00003a78 04            11034 	.byte	4
00003a79 04            11035 	.byte	4
00003a7a 01            11036 	.byte	1
00003a7b 5d            11037 	.byte	93
00003a7c 43414e49465f  11038 	.strz	"CANIF_START_SEC_CODE "
00003a82 53544152545f 
00003a88 5345435f434f 
00003a8e 44452000 
00003a92 03            11039 	.byte	3
00003a93 5e            11040 	.byte	94
00003a94 5c            11041 	.byte	92
00003a95 01            11042 	.byte	1
00003a96 06            11043 	.byte	6
00003a97 4d454d4d4150  11044 	.strz	"MEMMAP_ERROR "
00003a9d 5f4552524f52 
00003aa3 2000 

                                                                      Page 236
                                                              C:\Users\nhuliyap\AppData\Local\Temp\gh_000014o1.s
00003aa5 01            11045 	.byte	1
00003aa6 d701          11046 	.byte	215,1
00003aa8 4253575f5354  11047 	.strz	"BSW_START_SEC_CODE "
00003aae 4152545f5345 
00003ab4 435f434f4445 
00003aba 2000 
00003abc 03            11048 	.byte	3
00003abd d801          11049 	.byte	216,1
00003abf 26            11050 	.byte	38
00003ac0 01            11051 	.byte	1
00003ac1 da08          11052 	.byte	218,8
00003ac3 53544152545f  11053 	.strz	"START_SEC_CODE "
00003ac9 5345435f434f 
00003acf 44452000 
00003ad3 03            11054 	.byte	3
00003ad4 bb09          11055 	.byte	187,9
00003ad6 27            11056 	.byte	39
00003ad7 01            11057 	.byte	1
00003ad8 f307          11058 	.byte	243,7
00003ada 434f44455f53  11059 	.strz	"CODE_SEC_OPEN "
00003ae0 45435f4f5045 
00003ae6 4e2000 
00003ae9 04            11060 	.byte	4
00003aea 04            11061 	.byte	4
00003aeb 04            11062 	.byte	4
00003aec 01            11063 	.byte	1
00003aed 62            11064 	.byte	98
00003aee 43414e49465f  11065 	.strz	"CANIF_STOP_SEC_CODE "
00003af4 53544f505f53 
00003afa 45435f434f44 
00003b00 452000 
00003b03 03            11066 	.byte	3
00003b04 63            11067 	.byte	99
00003b05 5c            11068 	.byte	92
00003b06 01            11069 	.byte	1
00003b07 06            11070 	.byte	6
00003b08 4d454d4d4150  11071 	.strz	"MEMMAP_ERROR "
00003b0e 5f4552524f52 
00003b14 2000 
00003b16 01            11072 	.byte	1
00003b17 dc01          11073 	.byte	220,1
00003b19 4253575f5354  11074 	.strz	"BSW_STOP_SEC_CODE "
00003b1f 4f505f534543 
00003b25 5f434f444520 
00003b2b 00 
00003b2c 03            11075 	.byte	3
00003b2d dd01          11076 	.byte	221,1
00003b2f 26            11077 	.byte	38
00003b30 01            11078 	.byte	1
00003b31 de08          11079 	.byte	222,8
00003b33 53544f505f53  11080 	.strz	"STOP_SEC_CODE "
00003b39 45435f434f44 
00003b3f 452000 
00003b42 03            11081 	.byte	3
00003b43 bb09          11082 	.byte	187,9
00003b45 27            11083 	.byte	39
00003b46 04            11084 	.byte	4
00003b47 04            11085 	.byte	4
00003b48 04            11086 	.byte	4
00003b49 01            11087 	.byte	1
00003b4a 65            11088 	.byte	101

                                                                      Page 237
                                                              C:\Users\nhuliyap\AppData\Local\Temp\gh_000014o1.s
00003b4b 43414e49465f  11089 	.strz	"CANIF_START_SEC_CODE "
00003b51 53544152545f 
00003b57 5345435f434f 
00003b5d 44452000 
00003b61 03            11090 	.byte	3
00003b62 66            11091 	.byte	102
00003b63 5c            11092 	.byte	92
00003b64 01            11093 	.byte	1
00003b65 06            11094 	.byte	6
00003b66 4d454d4d4150  11095 	.strz	"MEMMAP_ERROR "
00003b6c 5f4552524f52 
00003b72 2000 
00003b74 01            11096 	.byte	1
00003b75 d701          11097 	.byte	215,1
00003b77 4253575f5354  11098 	.strz	"BSW_START_SEC_CODE "
00003b7d 4152545f5345 
00003b83 435f434f4445 
00003b89 2000 
00003b8b 03            11099 	.byte	3
00003b8c d801          11100 	.byte	216,1
00003b8e 26            11101 	.byte	38
00003b8f 01            11102 	.byte	1
00003b90 da08          11103 	.byte	218,8
00003b92 53544152545f  11104 	.strz	"START_SEC_CODE "
00003b98 5345435f434f 
00003b9e 44452000 
00003ba2 03            11105 	.byte	3
00003ba3 bb09          11106 	.byte	187,9
00003ba5 27            11107 	.byte	39
00003ba6 01            11108 	.byte	1
00003ba7 f307          11109 	.byte	243,7
00003ba9 434f44455f53  11110 	.strz	"CODE_SEC_OPEN "
00003baf 45435f4f5045 
00003bb5 4e2000 
00003bb8 04            11111 	.byte	4
00003bb9 04            11112 	.byte	4
00003bba 04            11113 	.byte	4
00003bbb 01            11114 	.byte	1
00003bbc 68            11115 	.byte	104
00003bbd 43414e49465f  11116 	.strz	"CANIF_STOP_SEC_CODE "
00003bc3 53544f505f53 
00003bc9 45435f434f44 
00003bcf 452000 
00003bd2 03            11117 	.byte	3
00003bd3 69            11118 	.byte	105
00003bd4 5c            11119 	.byte	92
00003bd5 01            11120 	.byte	1
00003bd6 06            11121 	.byte	6
00003bd7 4d454d4d4150  11122 	.strz	"MEMMAP_ERROR "
00003bdd 5f4552524f52 
00003be3 2000 
00003be5 01            11123 	.byte	1
00003be6 dc01          11124 	.byte	220,1
00003be8 4253575f5354  11125 	.strz	"BSW_STOP_SEC_CODE "
00003bee 4f505f534543 
00003bf4 5f434f444520 
00003bfa 00 
00003bfb 03            11126 	.byte	3
00003bfc dd01          11127 	.byte	221,1
00003bfe 26            11128 	.byte	38
00003bff 01            11129 	.byte	1

                                                                      Page 238
                                                              C:\Users\nhuliyap\AppData\Local\Temp\gh_000014o1.s
00003c00 de08          11130 	.byte	222,8
00003c02 53544f505f53  11131 	.strz	"STOP_SEC_CODE "
00003c08 45435f434f44 
00003c0e 452000 
00003c11 03            11132 	.byte	3
00003c12 bb09          11133 	.byte	187,9
00003c14 27            11134 	.byte	39
00003c15 04            11135 	.byte	4
00003c16 04            11136 	.byte	4
00003c17 04            11137 	.byte	4
00003c18 01            11138 	.byte	1
00003c19 6b            11139 	.byte	107
00003c1a 43414e49465f  11140 	.strz	"CANIF_START_SEC_CODE "
00003c20 53544152545f 
00003c26 5345435f434f 
00003c2c 44452000 
00003c30 03            11141 	.byte	3
00003c31 6c            11142 	.byte	108
00003c32 5c            11143 	.byte	92
00003c33 01            11144 	.byte	1
00003c34 06            11145 	.byte	6
00003c35 4d454d4d4150  11146 	.strz	"MEMMAP_ERROR "
00003c3b 5f4552524f52 
00003c41 2000 
00003c43 01            11147 	.byte	1
00003c44 d701          11148 	.byte	215,1
00003c46 4253575f5354  11149 	.strz	"BSW_START_SEC_CODE "
00003c4c 4152545f5345 
00003c52 435f434f4445 
00003c58 2000 
00003c5a 03            11150 	.byte	3
00003c5b d801          11151 	.byte	216,1
00003c5d 26            11152 	.byte	38
00003c5e 01            11153 	.byte	1
00003c5f da08          11154 	.byte	218,8
00003c61 53544152545f  11155 	.strz	"START_SEC_CODE "
00003c67 5345435f434f 
00003c6d 44452000 
00003c71 03            11156 	.byte	3
00003c72 bb09          11157 	.byte	187,9
00003c74 27            11158 	.byte	39
00003c75 01            11159 	.byte	1
00003c76 f307          11160 	.byte	243,7
00003c78 434f44455f53  11161 	.strz	"CODE_SEC_OPEN "
00003c7e 45435f4f5045 
00003c84 4e2000 
00003c87 04            11162 	.byte	4
00003c88 04            11163 	.byte	4
00003c89 04            11164 	.byte	4
00003c8a 01            11165 	.byte	1
00003c8b 6e            11166 	.byte	110
00003c8c 43414e49465f  11167 	.strz	"CANIF_STOP_SEC_CODE "
00003c92 53544f505f53 
00003c98 45435f434f44 
00003c9e 452000 
00003ca1 03            11168 	.byte	3
00003ca2 6f            11169 	.byte	111
00003ca3 5c            11170 	.byte	92
00003ca4 01            11171 	.byte	1
00003ca5 06            11172 	.byte	6
00003ca6 4d454d4d4150  11173 	.strz	"MEMMAP_ERROR "

                                                                      Page 239
                                                              C:\Users\nhuliyap\AppData\Local\Temp\gh_000014o1.s
00003cac 5f4552524f52 
00003cb2 2000 
00003cb4 01            11174 	.byte	1
00003cb5 dc01          11175 	.byte	220,1
00003cb7 4253575f5354  11176 	.strz	"BSW_STOP_SEC_CODE "
00003cbd 4f505f534543 
00003cc3 5f434f444520 
00003cc9 00 
00003cca 03            11177 	.byte	3
00003ccb dd01          11178 	.byte	221,1
00003ccd 26            11179 	.byte	38
00003cce 01            11180 	.byte	1
00003ccf de08          11181 	.byte	222,8
00003cd1 53544f505f53  11182 	.strz	"STOP_SEC_CODE "
00003cd7 45435f434f44 
00003cdd 452000 
00003ce0 03            11183 	.byte	3
00003ce1 bb09          11184 	.byte	187,9
00003ce3 27            11185 	.byte	39
00003ce4 04            11186 	.byte	4
00003ce5 04            11187 	.byte	4
00003ce6 04            11188 	.byte	4
00003ce7 01            11189 	.byte	1
00003ce8 7d            11190 	.byte	125
00003ce9 43414e49465f  11191 	.strz	"CANIF_START_SEC_CODE "
00003cef 53544152545f 
00003cf5 5345435f434f 
00003cfb 44452000 
00003cff 03            11192 	.byte	3
00003d00 7e            11193 	.byte	126
00003d01 5c            11194 	.byte	92
00003d02 01            11195 	.byte	1
00003d03 06            11196 	.byte	6
00003d04 4d454d4d4150  11197 	.strz	"MEMMAP_ERROR "
00003d0a 5f4552524f52 
00003d10 2000 
00003d12 01            11198 	.byte	1
00003d13 d701          11199 	.byte	215,1
00003d15 4253575f5354  11200 	.strz	"BSW_START_SEC_CODE "
00003d1b 4152545f5345 
00003d21 435f434f4445 
00003d27 2000 
00003d29 03            11201 	.byte	3
00003d2a d801          11202 	.byte	216,1
00003d2c 26            11203 	.byte	38
00003d2d 01            11204 	.byte	1
00003d2e da08          11205 	.byte	218,8
00003d30 53544152545f  11206 	.strz	"START_SEC_CODE "
00003d36 5345435f434f 
00003d3c 44452000 
00003d40 03            11207 	.byte	3
00003d41 bb09          11208 	.byte	187,9
00003d43 27            11209 	.byte	39
00003d44 01            11210 	.byte	1
00003d45 f307          11211 	.byte	243,7
00003d47 434f44455f53  11212 	.strz	"CODE_SEC_OPEN "
00003d4d 45435f4f5045 
00003d53 4e2000 
00003d56 04            11213 	.byte	4
00003d57 04            11214 	.byte	4
00003d58 04            11215 	.byte	4

                                                                      Page 240
                                                              C:\Users\nhuliyap\AppData\Local\Temp\gh_000014o1.s
00003d59 01            11216 	.byte	1
00003d5a 8001          11217 	.byte	128,1
00003d5c 43414e49465f  11218 	.strz	"CANIF_STOP_SEC_CODE "
00003d62 53544f505f53 
00003d68 45435f434f44 
00003d6e 452000 
00003d71 03            11219 	.byte	3
00003d72 8101          11220 	.byte	129,1
00003d74 5c            11221 	.byte	92
00003d75 01            11222 	.byte	1
00003d76 06            11223 	.byte	6
00003d77 4d454d4d4150  11224 	.strz	"MEMMAP_ERROR "
00003d7d 5f4552524f52 
00003d83 2000 
00003d85 01            11225 	.byte	1
00003d86 dc01          11226 	.byte	220,1
00003d88 4253575f5354  11227 	.strz	"BSW_STOP_SEC_CODE "
00003d8e 4f505f534543 
00003d94 5f434f444520 
00003d9a 00 
00003d9b 03            11228 	.byte	3
00003d9c dd01          11229 	.byte	221,1
00003d9e 26            11230 	.byte	38
00003d9f 01            11231 	.byte	1
00003da0 de08          11232 	.byte	222,8
00003da2 53544f505f53  11233 	.strz	"STOP_SEC_CODE "
00003da8 45435f434f44 
00003dae 452000 
00003db1 03            11234 	.byte	3
00003db2 bb09          11235 	.byte	187,9
00003db4 27            11236 	.byte	39
00003db5 04            11237 	.byte	4
00003db6 04            11238 	.byte	4
00003db7 04            11239 	.byte	4
00003db8 01            11240 	.byte	1
00003db9 9e01          11241 	.byte	158,1
00003dbb 43414e49465f  11242 	.strz	"CANIF_START_SEC_CODE "
00003dc1 53544152545f 
00003dc7 5345435f434f 
00003dcd 44452000 
00003dd1 03            11243 	.byte	3
00003dd2 9f01          11244 	.byte	159,1
00003dd4 5c            11245 	.byte	92
00003dd5 01            11246 	.byte	1
00003dd6 06            11247 	.byte	6
00003dd7 4d454d4d4150  11248 	.strz	"MEMMAP_ERROR "
00003ddd 5f4552524f52 
00003de3 2000 
00003de5 01            11249 	.byte	1
00003de6 d701          11250 	.byte	215,1
00003de8 4253575f5354  11251 	.strz	"BSW_START_SEC_CODE "
00003dee 4152545f5345 
00003df4 435f434f4445 
00003dfa 2000 
00003dfc 03            11252 	.byte	3
00003dfd d801          11253 	.byte	216,1
00003dff 26            11254 	.byte	38
00003e00 01            11255 	.byte	1
00003e01 da08          11256 	.byte	218,8
00003e03 53544152545f  11257 	.strz	"START_SEC_CODE "
00003e09 5345435f434f 

                                                                      Page 241
                                                              C:\Users\nhuliyap\AppData\Local\Temp\gh_000014o1.s
00003e0f 44452000 
00003e13 03            11258 	.byte	3
00003e14 bb09          11259 	.byte	187,9
00003e16 27            11260 	.byte	39
00003e17 01            11261 	.byte	1
00003e18 f307          11262 	.byte	243,7
00003e1a 434f44455f53  11263 	.strz	"CODE_SEC_OPEN "
00003e20 45435f4f5045 
00003e26 4e2000 
00003e29 04            11264 	.byte	4
00003e2a 04            11265 	.byte	4
00003e2b 04            11266 	.byte	4
00003e2c 01            11267 	.byte	1
00003e2d a401          11268 	.byte	164,1
00003e2f 43414e49465f  11269 	.strz	"CANIF_STOP_SEC_CODE "
00003e35 53544f505f53 
00003e3b 45435f434f44 
00003e41 452000 
00003e44 03            11270 	.byte	3
00003e45 a501          11271 	.byte	165,1
00003e47 5c            11272 	.byte	92
00003e48 01            11273 	.byte	1
00003e49 06            11274 	.byte	6
00003e4a 4d454d4d4150  11275 	.strz	"MEMMAP_ERROR "
00003e50 5f4552524f52 
00003e56 2000 
00003e58 01            11276 	.byte	1
00003e59 dc01          11277 	.byte	220,1
00003e5b 4253575f5354  11278 	.strz	"BSW_STOP_SEC_CODE "
00003e61 4f505f534543 
00003e67 5f434f444520 
00003e6d 00 
00003e6e 03            11279 	.byte	3
00003e6f dd01          11280 	.byte	221,1
00003e71 26            11281 	.byte	38
00003e72 01            11282 	.byte	1
00003e73 de08          11283 	.byte	222,8
00003e75 53544f505f53  11284 	.strz	"STOP_SEC_CODE "
00003e7b 45435f434f44 
00003e81 452000 
00003e84 03            11285 	.byte	3
00003e85 bb09          11286 	.byte	187,9
00003e87 27            11287 	.byte	39
00003e88 04            11288 	.byte	4
00003e89 04            11289 	.byte	4
00003e8a 04            11290 	.byte	4
00003e8b 01            11291 	.byte	1
00003e8c bb01          11292 	.byte	187,1
00003e8e 43414e49465f  11293 	.strz	"CANIF_START_SEC_CODE "
00003e94 53544152545f 
00003e9a 5345435f434f 
00003ea0 44452000 
00003ea4 03            11294 	.byte	3
00003ea5 bc01          11295 	.byte	188,1
00003ea7 5c            11296 	.byte	92
00003ea8 01            11297 	.byte	1
00003ea9 06            11298 	.byte	6
00003eaa 4d454d4d4150  11299 	.strz	"MEMMAP_ERROR "
00003eb0 5f4552524f52 
00003eb6 2000 
00003eb8 01            11300 	.byte	1

                                                                      Page 242
                                                              C:\Users\nhuliyap\AppData\Local\Temp\gh_000014o1.s
00003eb9 d701          11301 	.byte	215,1
00003ebb 4253575f5354  11302 	.strz	"BSW_START_SEC_CODE "
00003ec1 4152545f5345 
00003ec7 435f434f4445 
00003ecd 2000 
00003ecf 03            11303 	.byte	3
00003ed0 d801          11304 	.byte	216,1
00003ed2 26            11305 	.byte	38
00003ed3 01            11306 	.byte	1
00003ed4 da08          11307 	.byte	218,8
00003ed6 53544152545f  11308 	.strz	"START_SEC_CODE "
00003edc 5345435f434f 
00003ee2 44452000 
00003ee6 03            11309 	.byte	3
00003ee7 bb09          11310 	.byte	187,9
00003ee9 27            11311 	.byte	39
00003eea 01            11312 	.byte	1
00003eeb f307          11313 	.byte	243,7
00003eed 434f44455f53  11314 	.strz	"CODE_SEC_OPEN "
00003ef3 45435f4f5045 
00003ef9 4e2000 
00003efc 04            11315 	.byte	4
00003efd 04            11316 	.byte	4
00003efe 04            11317 	.byte	4
00003eff 01            11318 	.byte	1
00003f00 c101          11319 	.byte	193,1
00003f02 43414e49465f  11320 	.strz	"CANIF_STOP_SEC_CODE "
00003f08 53544f505f53 
00003f0e 45435f434f44 
00003f14 452000 
00003f17 03            11321 	.byte	3
00003f18 c201          11322 	.byte	194,1
00003f1a 5c            11323 	.byte	92
00003f1b 01            11324 	.byte	1
00003f1c 06            11325 	.byte	6
00003f1d 4d454d4d4150  11326 	.strz	"MEMMAP_ERROR "
00003f23 5f4552524f52 
00003f29 2000 
00003f2b 01            11327 	.byte	1
00003f2c dc01          11328 	.byte	220,1
00003f2e 4253575f5354  11329 	.strz	"BSW_STOP_SEC_CODE "
00003f34 4f505f534543 
00003f3a 5f434f444520 
00003f40 00 
00003f41 03            11330 	.byte	3
00003f42 dd01          11331 	.byte	221,1
00003f44 26            11332 	.byte	38
00003f45 01            11333 	.byte	1
00003f46 de08          11334 	.byte	222,8
00003f48 53544f505f53  11335 	.strz	"STOP_SEC_CODE "
00003f4e 45435f434f44 
00003f54 452000 
00003f57 03            11336 	.byte	3
00003f58 bb09          11337 	.byte	187,9
00003f5a 27            11338 	.byte	39
00003f5b 04            11339 	.byte	4
00003f5c 04            11340 	.byte	4
00003f5d 04            11341 	.byte	4
00003f5e 01            11342 	.byte	1
00003f5f c401          11343 	.byte	196,1
00003f61 43414e49465f  11344 	.strz	"CANIF_START_SEC_CODE "

                                                                      Page 243
                                                              C:\Users\nhuliyap\AppData\Local\Temp\gh_000014o1.s
00003f67 53544152545f 
00003f6d 5345435f434f 
00003f73 44452000 
00003f77 03            11345 	.byte	3
00003f78 c501          11346 	.byte	197,1
00003f7a 5c            11347 	.byte	92
00003f7b 01            11348 	.byte	1
00003f7c 06            11349 	.byte	6
00003f7d 4d454d4d4150  11350 	.strz	"MEMMAP_ERROR "
00003f83 5f4552524f52 
00003f89 2000 
00003f8b 01            11351 	.byte	1
00003f8c d701          11352 	.byte	215,1
00003f8e 4253575f5354  11353 	.strz	"BSW_START_SEC_CODE "
00003f94 4152545f5345 
00003f9a 435f434f4445 
00003fa0 2000 
00003fa2 03            11354 	.byte	3
00003fa3 d801          11355 	.byte	216,1
00003fa5 26            11356 	.byte	38
00003fa6 01            11357 	.byte	1
00003fa7 da08          11358 	.byte	218,8
00003fa9 53544152545f  11359 	.strz	"START_SEC_CODE "
00003faf 5345435f434f 
00003fb5 44452000 
00003fb9 03            11360 	.byte	3
00003fba bb09          11361 	.byte	187,9
00003fbc 27            11362 	.byte	39
00003fbd 01            11363 	.byte	1
00003fbe f307          11364 	.byte	243,7
00003fc0 434f44455f53  11365 	.strz	"CODE_SEC_OPEN "
00003fc6 45435f4f5045 
00003fcc 4e2000 
00003fcf 04            11366 	.byte	4
00003fd0 04            11367 	.byte	4
00003fd1 04            11368 	.byte	4
00003fd2 01            11369 	.byte	1
00003fd3 ca01          11370 	.byte	202,1
00003fd5 43414e49465f  11371 	.strz	"CANIF_STOP_SEC_CODE "
00003fdb 53544f505f53 
00003fe1 45435f434f44 
00003fe7 452000 
00003fea 03            11372 	.byte	3
00003feb cb01          11373 	.byte	203,1
00003fed 5c            11374 	.byte	92
00003fee 01            11375 	.byte	1
00003fef 06            11376 	.byte	6
00003ff0 4d454d4d4150  11377 	.strz	"MEMMAP_ERROR "
00003ff6 5f4552524f52 
00003ffc 2000 
00003ffe 01            11378 	.byte	1
00003fff dc01          11379 	.byte	220,1
00004001 4253575f5354  11380 	.strz	"BSW_STOP_SEC_CODE "
00004007 4f505f534543 
0000400d 5f434f444520 
00004013 00 
00004014 03            11381 	.byte	3
00004015 dd01          11382 	.byte	221,1
00004017 26            11383 	.byte	38
00004018 01            11384 	.byte	1
00004019 de08          11385 	.byte	222,8

                                                                      Page 244
                                                              C:\Users\nhuliyap\AppData\Local\Temp\gh_000014o1.s
0000401b 53544f505f53  11386 	.strz	"STOP_SEC_CODE "
00004021 45435f434f44 
00004027 452000 
0000402a 03            11387 	.byte	3
0000402b bb09          11388 	.byte	187,9
0000402d 27            11389 	.byte	39
0000402e 04            11390 	.byte	4
0000402f 04            11391 	.byte	4
00004030 04            11392 	.byte	4
00004031 01            11393 	.byte	1
00004032 8402          11394 	.byte	132,2
00004034 43414e49465f  11395 	.strz	"CANIF_START_SEC_CODE "
0000403a 53544152545f 
00004040 5345435f434f 
00004046 44452000 
0000404a 03            11396 	.byte	3
0000404b 8502          11397 	.byte	133,2
0000404d 5c            11398 	.byte	92
0000404e 01            11399 	.byte	1
0000404f 06            11400 	.byte	6
00004050 4d454d4d4150  11401 	.strz	"MEMMAP_ERROR "
00004056 5f4552524f52 
0000405c 2000 
0000405e 01            11402 	.byte	1
0000405f d701          11403 	.byte	215,1
00004061 4253575f5354  11404 	.strz	"BSW_START_SEC_CODE "
00004067 4152545f5345 
0000406d 435f434f4445 
00004073 2000 
00004075 03            11405 	.byte	3
00004076 d801          11406 	.byte	216,1
00004078 26            11407 	.byte	38
00004079 01            11408 	.byte	1
0000407a da08          11409 	.byte	218,8
0000407c 53544152545f  11410 	.strz	"START_SEC_CODE "
00004082 5345435f434f 
00004088 44452000 
0000408c 03            11411 	.byte	3
0000408d bb09          11412 	.byte	187,9
0000408f 27            11413 	.byte	39
00004090 01            11414 	.byte	1
00004091 f307          11415 	.byte	243,7
00004093 434f44455f53  11416 	.strz	"CODE_SEC_OPEN "
00004099 45435f4f5045 
0000409f 4e2000 
000040a2 04            11417 	.byte	4
000040a3 04            11418 	.byte	4
000040a4 04            11419 	.byte	4
000040a5 01            11420 	.byte	1
000040a6 8902          11421 	.byte	137,2
000040a8 43414e49465f  11422 	.strz	"CANIF_STOP_SEC_CODE "
000040ae 53544f505f53 
000040b4 45435f434f44 
000040ba 452000 
000040bd 03            11423 	.byte	3
000040be 8a02          11424 	.byte	138,2
000040c0 5c            11425 	.byte	92
000040c1 01            11426 	.byte	1
000040c2 06            11427 	.byte	6
000040c3 4d454d4d4150  11428 	.strz	"MEMMAP_ERROR "
000040c9 5f4552524f52 

                                                                      Page 245
                                                              C:\Users\nhuliyap\AppData\Local\Temp\gh_000014o1.s
000040cf 2000 
000040d1 01            11429 	.byte	1
000040d2 dc01          11430 	.byte	220,1
000040d4 4253575f5354  11431 	.strz	"BSW_STOP_SEC_CODE "
000040da 4f505f534543 
000040e0 5f434f444520 
000040e6 00 
000040e7 03            11432 	.byte	3
000040e8 dd01          11433 	.byte	221,1
000040ea 26            11434 	.byte	38
000040eb 01            11435 	.byte	1
000040ec de08          11436 	.byte	222,8
000040ee 53544f505f53  11437 	.strz	"STOP_SEC_CODE "
000040f4 45435f434f44 
000040fa 452000 
000040fd 03            11438 	.byte	3
000040fe bb09          11439 	.byte	187,9
00004100 27            11440 	.byte	39
00004101 04            11441 	.byte	4
00004102 04            11442 	.byte	4
00004103 04            11443 	.byte	4
00004104 01            11444 	.byte	1
00004105 8c02          11445 	.byte	140,2
00004107 43414e49465f  11446 	.strz	"CANIF_START_SEC_CODE "
0000410d 53544152545f 
00004113 5345435f434f 
00004119 44452000 
0000411d 03            11447 	.byte	3
0000411e 8d02          11448 	.byte	141,2
00004120 5c            11449 	.byte	92
00004121 01            11450 	.byte	1
00004122 06            11451 	.byte	6
00004123 4d454d4d4150  11452 	.strz	"MEMMAP_ERROR "
00004129 5f4552524f52 
0000412f 2000 
00004131 01            11453 	.byte	1
00004132 d701          11454 	.byte	215,1
00004134 4253575f5354  11455 	.strz	"BSW_START_SEC_CODE "
0000413a 4152545f5345 
00004140 435f434f4445 
00004146 2000 
00004148 03            11456 	.byte	3
00004149 d801          11457 	.byte	216,1
0000414b 26            11458 	.byte	38
0000414c 01            11459 	.byte	1
0000414d da08          11460 	.byte	218,8
0000414f 53544152545f  11461 	.strz	"START_SEC_CODE "
00004155 5345435f434f 
0000415b 44452000 
0000415f 03            11462 	.byte	3
00004160 bb09          11463 	.byte	187,9
00004162 27            11464 	.byte	39
00004163 01            11465 	.byte	1
00004164 f307          11466 	.byte	243,7
00004166 434f44455f53  11467 	.strz	"CODE_SEC_OPEN "
0000416c 45435f4f5045 
00004172 4e2000 
00004175 04            11468 	.byte	4
00004176 04            11469 	.byte	4
00004177 04            11470 	.byte	4
00004178 01            11471 	.byte	1

                                                                      Page 246
                                                              C:\Users\nhuliyap\AppData\Local\Temp\gh_000014o1.s
00004179 9002          11472 	.byte	144,2
0000417b 43414e49465f  11473 	.strz	"CANIF_STOP_SEC_CODE "
00004181 53544f505f53 
00004187 45435f434f44 
0000418d 452000 
00004190 03            11474 	.byte	3
00004191 9102          11475 	.byte	145,2
00004193 5c            11476 	.byte	92
00004194 01            11477 	.byte	1
00004195 06            11478 	.byte	6
00004196 4d454d4d4150  11479 	.strz	"MEMMAP_ERROR "
0000419c 5f4552524f52 
000041a2 2000 
000041a4 01            11480 	.byte	1
000041a5 dc01          11481 	.byte	220,1
000041a7 4253575f5354  11482 	.strz	"BSW_STOP_SEC_CODE "
000041ad 4f505f534543 
000041b3 5f434f444520 
000041b9 00 
000041ba 03            11483 	.byte	3
000041bb dd01          11484 	.byte	221,1
000041bd 26            11485 	.byte	38
000041be 01            11486 	.byte	1
000041bf de08          11487 	.byte	222,8
000041c1 53544f505f53  11488 	.strz	"STOP_SEC_CODE "
000041c7 45435f434f44 
000041cd 452000 
000041d0 03            11489 	.byte	3
000041d1 bb09          11490 	.byte	187,9
000041d3 27            11491 	.byte	39
000041d4 04            11492 	.byte	4
000041d5 04            11493 	.byte	4
000041d6 04            11494 	.byte	4
000041d7 04            11495 	.byte	4
000041d8 01            11496 	.byte	1
000041d9 07            11497 	.byte	7
000041da 43414e534d5f  11498 	.strz	"CANSM_START_SEC_CODE "
000041e0 53544152545f 
000041e6 5345435f434f 
000041ec 44452000 
000041f0 03            11499 	.byte	3
000041f1 08            11500 	.byte	8
000041f2 2c            11501 	.byte	44
000041f3 01            11502 	.byte	1
000041f4 05            11503 	.byte	5
000041f5 4d454d4d4150  11504 	.strz	"MEMMAP_ERROR "
000041fb 5f4552524f52 
00004201 2000 
00004203 01            11505 	.byte	1
00004204 9a01          11506 	.byte	154,1
00004206 4253575f5354  11507 	.strz	"BSW_START_SEC_CODE "
0000420c 4152545f5345 
00004212 435f434f4445 
00004218 2000 
0000421a 03            11508 	.byte	3
0000421b 9b01          11509 	.byte	155,1
0000421d 26            11510 	.byte	38
0000421e 01            11511 	.byte	1
0000421f da08          11512 	.byte	218,8
00004221 53544152545f  11513 	.strz	"START_SEC_CODE "
00004227 5345435f434f 

                                                                      Page 247
                                                              C:\Users\nhuliyap\AppData\Local\Temp\gh_000014o1.s
0000422d 44452000 
00004231 03            11514 	.byte	3
00004232 bb09          11515 	.byte	187,9
00004234 27            11516 	.byte	39
00004235 01            11517 	.byte	1
00004236 f307          11518 	.byte	243,7
00004238 434f44455f53  11519 	.strz	"CODE_SEC_OPEN "
0000423e 45435f4f5045 
00004244 4e2000 
00004247 04            11520 	.byte	4
00004248 04            11521 	.byte	4
00004249 04            11522 	.byte	4
0000424a 01            11523 	.byte	1
0000424b 1d            11524 	.byte	29
0000424c 43414e534d5f  11525 	.strz	"CANSM_STOP_SEC_CODE "
00004252 53544f505f53 
00004258 45435f434f44 
0000425e 452000 
00004261 03            11526 	.byte	3
00004262 1e            11527 	.byte	30
00004263 2c            11528 	.byte	44
00004264 01            11529 	.byte	1
00004265 05            11530 	.byte	5
00004266 4d454d4d4150  11531 	.strz	"MEMMAP_ERROR "
0000426c 5f4552524f52 
00004272 2000 
00004274 01            11532 	.byte	1
00004275 9f01          11533 	.byte	159,1
00004277 4253575f5354  11534 	.strz	"BSW_STOP_SEC_CODE "
0000427d 4f505f534543 
00004283 5f434f444520 
00004289 00 
0000428a 03            11535 	.byte	3
0000428b a001          11536 	.byte	160,1
0000428d 26            11537 	.byte	38
0000428e 01            11538 	.byte	1
0000428f de08          11539 	.byte	222,8
00004291 53544f505f53  11540 	.strz	"STOP_SEC_CODE "
00004297 45435f434f44 
0000429d 452000 
000042a0 03            11541 	.byte	3
000042a1 bb09          11542 	.byte	187,9
000042a3 27            11543 	.byte	39
000042a4 04            11544 	.byte	4
000042a5 04            11545 	.byte	4
000042a6 04            11546 	.byte	4
000042a7 04            11547 	.byte	4
000042a8 03            11548 	.byte	3
000042a9 09            11549 	.byte	9
000042aa 5d            11550 	.byte	93
000042ab 01            11551 	.byte	1
000042ac 07            11552 	.byte	7
000042ad 43414e534d5f  11553 	.strz	"CANSM_START_SEC_CODE "
000042b3 53544152545f 
000042b9 5345435f434f 
000042bf 44452000 
000042c3 03            11554 	.byte	3
000042c4 08            11555 	.byte	8
000042c5 2c            11556 	.byte	44
000042c6 01            11557 	.byte	1
000042c7 05            11558 	.byte	5

                                                                      Page 248
                                                              C:\Users\nhuliyap\AppData\Local\Temp\gh_000014o1.s
000042c8 4d454d4d4150  11559 	.strz	"MEMMAP_ERROR "
000042ce 5f4552524f52 
000042d4 2000 
000042d6 01            11560 	.byte	1
000042d7 9a01          11561 	.byte	154,1
000042d9 4253575f5354  11562 	.strz	"BSW_START_SEC_CODE "
000042df 4152545f5345 
000042e5 435f434f4445 
000042eb 2000 
000042ed 03            11563 	.byte	3
000042ee 9b01          11564 	.byte	155,1
000042f0 26            11565 	.byte	38
000042f1 01            11566 	.byte	1
000042f2 da08          11567 	.byte	218,8
000042f4 53544152545f  11568 	.strz	"START_SEC_CODE "
000042fa 5345435f434f 
00004300 44452000 
00004304 03            11569 	.byte	3
00004305 bb09          11570 	.byte	187,9
00004307 27            11571 	.byte	39
00004308 01            11572 	.byte	1
00004309 f307          11573 	.byte	243,7
0000430b 434f44455f53  11574 	.strz	"CODE_SEC_OPEN "
00004311 45435f4f5045 
00004317 4e2000 
0000431a 04            11575 	.byte	4
0000431b 04            11576 	.byte	4
0000431c 04            11577 	.byte	4
0000431d 01            11578 	.byte	1
0000431e 14            11579 	.byte	20
0000431f 43414e534d5f  11580 	.strz	"CANSM_STOP_SEC_CODE "
00004325 53544f505f53 
0000432b 45435f434f44 
00004331 452000 
00004334 03            11581 	.byte	3
00004335 15            11582 	.byte	21
00004336 2c            11583 	.byte	44
00004337 01            11584 	.byte	1
00004338 05            11585 	.byte	5
00004339 4d454d4d4150  11586 	.strz	"MEMMAP_ERROR "
0000433f 5f4552524f52 
00004345 2000 
00004347 01            11587 	.byte	1
00004348 9f01          11588 	.byte	159,1
0000434a 4253575f5354  11589 	.strz	"BSW_STOP_SEC_CODE "
00004350 4f505f534543 
00004356 5f434f444520 
0000435c 00 
0000435d 03            11590 	.byte	3
0000435e a001          11591 	.byte	160,1
00004360 26            11592 	.byte	38
00004361 01            11593 	.byte	1
00004362 de08          11594 	.byte	222,8
00004364 53544f505f53  11595 	.strz	"STOP_SEC_CODE "
0000436a 45435f434f44 
00004370 452000 
00004373 03            11596 	.byte	3
00004374 bb09          11597 	.byte	187,9
00004376 27            11598 	.byte	39
00004377 04            11599 	.byte	4
00004378 04            11600 	.byte	4

                                                                      Page 249
                                                              C:\Users\nhuliyap\AppData\Local\Temp\gh_000014o1.s
00004379 04            11601 	.byte	4
0000437a 04            11602 	.byte	4
0000437b 03            11603 	.byte	3
0000437c 0a            11604 	.byte	10
0000437d 5e            11605 	.byte	94
0000437e 01            11606 	.byte	1
0000437f 07            11607 	.byte	7
00004380 43414e534d5f  11608 	.strz	"CANSM_START_SEC_CODE "
00004386 53544152545f 
0000438c 5345435f434f 
00004392 44452000 
00004396 03            11609 	.byte	3
00004397 08            11610 	.byte	8
00004398 2c            11611 	.byte	44
00004399 01            11612 	.byte	1
0000439a 05            11613 	.byte	5
0000439b 4d454d4d4150  11614 	.strz	"MEMMAP_ERROR "
000043a1 5f4552524f52 
000043a7 2000 
000043a9 01            11615 	.byte	1
000043aa 9a01          11616 	.byte	154,1
000043ac 4253575f5354  11617 	.strz	"BSW_START_SEC_CODE "
000043b2 4152545f5345 
000043b8 435f434f4445 
000043be 2000 
000043c0 03            11618 	.byte	3
000043c1 9b01          11619 	.byte	155,1
000043c3 26            11620 	.byte	38
000043c4 01            11621 	.byte	1
000043c5 da08          11622 	.byte	218,8
000043c7 53544152545f  11623 	.strz	"START_SEC_CODE "
000043cd 5345435f434f 
000043d3 44452000 
000043d7 03            11624 	.byte	3
000043d8 bb09          11625 	.byte	187,9
000043da 27            11626 	.byte	39
000043db 01            11627 	.byte	1
000043dc f307          11628 	.byte	243,7
000043de 434f44455f53  11629 	.strz	"CODE_SEC_OPEN "
000043e4 45435f4f5045 
000043ea 4e2000 
000043ed 04            11630 	.byte	4
000043ee 04            11631 	.byte	4
000043ef 04            11632 	.byte	4
000043f0 01            11633 	.byte	1
000043f1 0a            11634 	.byte	10
000043f2 43414e534d5f  11635 	.strz	"CANSM_STOP_SEC_CODE "
000043f8 53544f505f53 
000043fe 45435f434f44 
00004404 452000 
00004407 03            11636 	.byte	3
00004408 0b            11637 	.byte	11
00004409 2c            11638 	.byte	44
0000440a 01            11639 	.byte	1
0000440b 05            11640 	.byte	5
0000440c 4d454d4d4150  11641 	.strz	"MEMMAP_ERROR "
00004412 5f4552524f52 
00004418 2000 
0000441a 01            11642 	.byte	1
0000441b 9f01          11643 	.byte	159,1
0000441d 4253575f5354  11644 	.strz	"BSW_STOP_SEC_CODE "

                                                                      Page 250
                                                              C:\Users\nhuliyap\AppData\Local\Temp\gh_000014o1.s
00004423 4f505f534543 
00004429 5f434f444520 
0000442f 00 
00004430 03            11645 	.byte	3
00004431 a001          11646 	.byte	160,1
00004433 26            11647 	.byte	38
00004434 01            11648 	.byte	1
00004435 de08          11649 	.byte	222,8
00004437 53544f505f53  11650 	.strz	"STOP_SEC_CODE "
0000443d 45435f434f44 
00004443 452000 
00004446 03            11651 	.byte	3
00004447 bb09          11652 	.byte	187,9
00004449 27            11653 	.byte	39
0000444a 04            11654 	.byte	4
0000444b 04            11655 	.byte	4
0000444c 04            11656 	.byte	4
0000444d 04            11657 	.byte	4
0000444e 01            11658 	.byte	1
0000444f 0c            11659 	.byte	12
00004450 43414e534d5f  11660 	.strz	"CANSM_RECOVERY_ENABLED 1u"
00004456 5245434f5645 
0000445c 52595f454e41 
00004462 424c45442031 
00004468 7500 
0000446a 01            11661 	.byte	1
0000446b 0d            11662 	.byte	13
0000446c 43414e534d5f  11663 	.strz	"CANSM_RECOVERY_DISABLED 2u"
00004472 5245434f5645 
00004478 52595f444953 
0000447e 41424c454420 
00004484 327500 
00004487 01            11664 	.byte	1
00004488 11            11665 	.byte	17
00004489 43414e534d5f  11666 	.strz	"CANSM_ZERO 0u"
0000448f 5a45524f2030 
00004495 7500 
00004497 01            11667 	.byte	1
00004498 14            11668 	.byte	20
00004499 43414e534d5f  11669 	.strz	"CANSM_FALSE 0x0u"
0000449f 46414c534520 
000044a5 3078307500 
000044aa 01            11670 	.byte	1
000044ab 15            11671 	.byte	21
000044ac 43414e534d5f  11672 	.strz	"CANSM_TRUE 0x01u"
000044b2 545255452030 
000044b8 7830317500 
000044bd 01            11673 	.byte	1
000044be 23            11674 	.byte	35
000044bf 43616e534d5f  11675 	.strz	"CanSM_StartTimer(Indx_Network) do{ CanSM_TimerConfig_ast[Indx_Network].cntTick_u16 = 0; CanSM_TimerConfig_ast[Indx_Network].stTimer = CANSM_TIMER_RUNNING; }while(0)"
000044c5 537461727454 
000044cb 696d65722849 
000044d1 6e64785f4e65 
000044d7 74776f726b29 
000044dd 20646f7b2043 
000044e3 616e534d5f54 
000044e9 696d6572436f 
000044ef 6e6669675f61 
000044f5 73745b496e64 
000044fb 785f4e657477 
00004501 6f726b5d2e63 

                                                                      Page 251
                                                              C:\Users\nhuliyap\AppData\Local\Temp\gh_000014o1.s
00004507 6e745469636b 
0000450d 5f753136203d 
00004513 20303b204361 
00004519 6e534d5f5469 
0000451f 6d6572436f6e 
00004525 6669675f6173 
0000452b 745b496e6478 
00004531 5f4e6574776f 
00004537 726b5d2e7374 
0000453d 54696d657220 
00004543 3d2043414e53 
00004549 4d5f54494d45 
0000454f 525f52554e4e 
00004555 494e473b207d 
0000455b 7768696c6528 
00004561 302900 
00004564 01            11676 	.byte	1
00004565 8501          11677 	.byte	133,1
00004567 43414e534d5f  11678 	.strz	"CANSM_START_SEC_CONST_UNSPECIFIED "
0000456d 53544152545f 
00004573 5345435f434f 
00004579 4e53545f554e 
0000457f 535045434946 
00004585 4945442000 
0000458a 03            11679 	.byte	3
0000458b 8601          11680 	.byte	134,1
0000458d 2c            11681 	.byte	44
0000458e 01            11682 	.byte	1
0000458f 05            11683 	.byte	5
00004590 4d454d4d4150  11684 	.strz	"MEMMAP_ERROR "
00004596 5f4552524f52 
0000459c 2000 
0000459e 01            11685 	.byte	1
0000459f 48            11686 	.byte	72
000045a0 4253575f5354  11687 	.strz	"BSW_START_SEC_CONST_UNSPECIFIED "
000045a6 4152545f5345 
000045ac 435f434f4e53 
000045b2 545f554e5350 
000045b8 454349464945 
000045be 442000 
000045c1 03            11688 	.byte	3
000045c2 49            11689 	.byte	73
000045c3 26            11690 	.byte	38
000045c4 01            11691 	.byte	1
000045c5 f005          11692 	.byte	240,5
000045c7 53544152545f  11693 	.strz	"START_SEC_CONST_UNSPECIFIED "
000045cd 5345435f434f 
000045d3 4e53545f554e 
000045d9 535045434946 
000045df 4945442000 
000045e4 03            11694 	.byte	3
000045e5 bb09          11695 	.byte	187,9
000045e7 27            11696 	.byte	39
000045e8 01            11697 	.byte	1
000045e9 b408          11698 	.byte	180,8
000045eb 434f4e53545f  11699 	.strz	"CONST_SEC_OPEN "
000045f1 5345435f4f50 
000045f7 454e2000 
000045fb 04            11700 	.byte	4
000045fc 04            11701 	.byte	4
000045fd 04            11702 	.byte	4

                                                                      Page 252
                                                              C:\Users\nhuliyap\AppData\Local\Temp\gh_000014o1.s
000045fe 01            11703 	.byte	1
000045ff 8801          11704 	.byte	136,1
00004601 43414e534d5f  11705 	.strz	"CANSM_STOP_SEC_CONST_UNSPECIFIED "
00004607 53544f505f53 
0000460d 45435f434f4e 
00004613 53545f554e53 
00004619 504543494649 
0000461f 45442000 
00004623 03            11706 	.byte	3
00004624 8901          11707 	.byte	137,1
00004626 2c            11708 	.byte	44
00004627 01            11709 	.byte	1
00004628 05            11710 	.byte	5
00004629 4d454d4d4150  11711 	.strz	"MEMMAP_ERROR "
0000462f 5f4552524f52 
00004635 2000 
00004637 01            11712 	.byte	1
00004638 4d            11713 	.byte	77
00004639 4253575f5354  11714 	.strz	"BSW_STOP_SEC_CONST_UNSPECIFIED "
0000463f 4f505f534543 
00004645 5f434f4e5354 
0000464b 5f554e535045 
00004651 434946494544 
00004657 2000 
00004659 03            11715 	.byte	3
0000465a 4e            11716 	.byte	78
0000465b 26            11717 	.byte	38
0000465c 01            11718 	.byte	1
0000465d f405          11719 	.byte	244,5
0000465f 53544f505f53  11720 	.strz	"STOP_SEC_CONST "
00004665 45435f434f4e 
0000466b 53542000 
0000466f 03            11721 	.byte	3
00004670 bb09          11722 	.byte	187,9
00004672 27            11723 	.byte	39
00004673 04            11724 	.byte	4
00004674 04            11725 	.byte	4
00004675 04            11726 	.byte	4
00004676 01            11727 	.byte	1
00004677 9301          11728 	.byte	147,1
00004679 43414e534d5f  11729 	.strz	"CANSM_START_SEC_CONST_8 "
0000467f 53544152545f 
00004685 5345435f434f 
0000468b 4e53545f3820 
00004691 00 
00004692 03            11730 	.byte	3
00004693 9401          11731 	.byte	148,1
00004695 2c            11732 	.byte	44
00004696 01            11733 	.byte	1
00004697 05            11734 	.byte	5
00004698 4d454d4d4150  11735 	.strz	"MEMMAP_ERROR "
0000469e 5f4552524f52 
000046a4 2000 
000046a6 01            11736 	.byte	1
000046a7 31            11737 	.byte	49
000046a8 4253575f5354  11738 	.strz	"BSW_START_SEC_CONST_8 "
000046ae 4152545f5345 
000046b4 435f434f4e53 
000046ba 545f382000 
000046bf 03            11739 	.byte	3
000046c0 32            11740 	.byte	50

                                                                      Page 253
                                                              C:\Users\nhuliyap\AppData\Local\Temp\gh_000014o1.s
000046c1 26            11741 	.byte	38
000046c2 01            11742 	.byte	1
000046c3 dc05          11743 	.byte	220,5
000046c5 53544152545f  11744 	.strz	"START_SEC_CONST_8 "
000046cb 5345435f434f 
000046d1 4e53545f3820 
000046d7 00 
000046d8 03            11745 	.byte	3
000046d9 bb09          11746 	.byte	187,9
000046db 27            11747 	.byte	39
000046dc 01            11748 	.byte	1
000046dd 02            11749 	.byte	2
000046de 53544152545f  11750 	.strz	"START_SEC_CONST_8BIT "
000046e4 5345435f434f 
000046ea 4e53545f3842 
000046f0 49542000 
000046f4 01            11751 	.byte	1
000046f5 8f08          11752 	.byte	143,8
000046f7 434f4e53545f  11753 	.strz	"CONST_SEC_OPEN "
000046fd 5345435f4f50 
00004703 454e2000 
00004707 04            11754 	.byte	4
00004708 04            11755 	.byte	4
00004709 04            11756 	.byte	4
0000470a 01            11757 	.byte	1
0000470b 9601          11758 	.byte	150,1
0000470d 43414e534d5f  11759 	.strz	"CANSM_STOP_SEC_CONST_8 "
00004713 53544f505f53 
00004719 45435f434f4e 
0000471f 53545f382000 
00004725 03            11760 	.byte	3
00004726 9701          11761 	.byte	151,1
00004728 2c            11762 	.byte	44
00004729 01            11763 	.byte	1
0000472a 05            11764 	.byte	5
0000472b 4d454d4d4150  11765 	.strz	"MEMMAP_ERROR "
00004731 5f4552524f52 
00004737 2000 
00004739 01            11766 	.byte	1
0000473a 36            11767 	.byte	54
0000473b 4253575f5354  11768 	.strz	"BSW_STOP_SEC_CONST_8 "
00004741 4f505f534543 
00004747 5f434f4e5354 
0000474d 5f382000 
00004751 03            11769 	.byte	3
00004752 37            11770 	.byte	55
00004753 26            11771 	.byte	38
00004754 01            11772 	.byte	1
00004755 e005          11773 	.byte	224,5
00004757 53544f505f53  11774 	.strz	"STOP_SEC_CONST "
0000475d 45435f434f4e 
00004763 53542000 
00004767 03            11775 	.byte	3
00004768 bb09          11776 	.byte	187,9
0000476a 27            11777 	.byte	39
0000476b 04            11778 	.byte	4
0000476c 04            11779 	.byte	4
0000476d 04            11780 	.byte	4
0000476e 01            11781 	.byte	1
0000476f a301          11782 	.byte	163,1
00004771 43414e534d5f  11783 	.strz	"CANSM_START_SEC_VAR_CLEARED_UNSPECIFIED "

                                                                      Page 254
                                                              C:\Users\nhuliyap\AppData\Local\Temp\gh_000014o1.s
00004777 53544152545f 
0000477d 5345435f5641 
00004783 525f434c4541 
00004789 5245445f554e 
0000478f 535045434946 
00004795 4945442000 
0000479a 03            11784 	.byte	3
0000479b a401          11785 	.byte	164,1
0000479d 2c            11786 	.byte	44
0000479e 01            11787 	.byte	1
0000479f 05            11788 	.byte	5
000047a0 4d454d4d4150  11789 	.strz	"MEMMAP_ERROR "
000047a6 5f4552524f52 
000047ac 2000 
000047ae 01            11790 	.byte	1
000047af 8401          11791 	.byte	132,1
000047b1 4253575f5354  11792 	.strz	"BSW_START_SEC_VAR_CLEARED_UNSPECIFIED "
000047b7 4152545f5345 
000047bd 435f5641525f 
000047c3 434c45415245 
000047c9 445f554e5350 
000047cf 454349464945 
000047d5 442000 
000047d8 03            11793 	.byte	3
000047d9 8501          11794 	.byte	133,1
000047db 26            11795 	.byte	38
000047dc 01            11796 	.byte	1
000047dd 42            11797 	.byte	66
000047de 53544152545f  11798 	.strz	"START_SEC_VAR_CLEARED_UNSPECIFIED "
000047e4 5345435f5641 
000047ea 525f434c4541 
000047f0 5245445f554e 
000047f6 535045434946 
000047fc 4945442000 
00004801 03            11799 	.byte	3
00004802 bb09          11800 	.byte	187,9
00004804 27            11801 	.byte	39
00004805 01            11802 	.byte	1
00004806 56            11803 	.byte	86
00004807 53544152545f  11804 	.strz	"START_SEC_VAR_ZERO_INIT_UNSPECIFIED "
0000480d 5345435f5641 
00004813 525f5a45524f 
00004819 5f494e49545f 
0000481f 554e53504543 
00004825 494649454420 
0000482b 00 
0000482c 01            11805 	.byte	1
0000482d 840a          11806 	.byte	132,10
0000482f 5641525f5345  11807 	.strz	"VAR_SEC_OPEN "
00004835 435f4f50454e 
0000483b 2000 
0000483d 04            11808 	.byte	4
0000483e 04            11809 	.byte	4
0000483f 04            11810 	.byte	4
00004840 01            11811 	.byte	1
00004841 a601          11812 	.byte	166,1
00004843 43414e534d5f  11813 	.strz	"CANSM_STOP_SEC_VAR_CLEARED_UNSPECIFIED "
00004849 53544f505f53 
0000484f 45435f564152 
00004855 5f434c454152 
0000485b 45445f554e53 

                                                                      Page 255
                                                              C:\Users\nhuliyap\AppData\Local\Temp\gh_000014o1.s
00004861 504543494649 
00004867 45442000 
0000486b 03            11814 	.byte	3
0000486c a701          11815 	.byte	167,1
0000486e 2c            11816 	.byte	44
0000486f 01            11817 	.byte	1
00004870 05            11818 	.byte	5
00004871 4d454d4d4150  11819 	.strz	"MEMMAP_ERROR "
00004877 5f4552524f52 
0000487d 2000 
0000487f 01            11820 	.byte	1
00004880 8901          11821 	.byte	137,1
00004882 4253575f5354  11822 	.strz	"BSW_STOP_SEC_VAR_CLEARED_UNSPECIFIED "
00004888 4f505f534543 
0000488e 5f5641525f43 
00004894 4c4541524544 
0000489a 5f554e535045 
000048a0 434946494544 
000048a6 2000 
000048a8 03            11823 	.byte	3
000048a9 8a01          11824 	.byte	138,1
000048ab 26            11825 	.byte	38
000048ac 01            11826 	.byte	1
000048ad 46            11827 	.byte	70
000048ae 53544f505f53  11828 	.strz	"STOP_SEC_VAR "
000048b4 45435f564152 
000048ba 2000 
000048bc 03            11829 	.byte	3
000048bd bb09          11830 	.byte	187,9
000048bf 27            11831 	.byte	39
000048c0 04            11832 	.byte	4
000048c1 04            11833 	.byte	4
000048c2 04            11834 	.byte	4
000048c3 01            11835 	.byte	1
000048c4 a901          11836 	.byte	169,1
000048c6 43414e534d5f  11837 	.strz	"CANSM_START_SEC_VAR_CLEARED_UNSPECIFIED "
000048cc 53544152545f 
000048d2 5345435f5641 
000048d8 525f434c4541 
000048de 5245445f554e 
000048e4 535045434946 
000048ea 4945442000 
000048ef 03            11838 	.byte	3
000048f0 aa01          11839 	.byte	170,1
000048f2 2c            11840 	.byte	44
000048f3 01            11841 	.byte	1
000048f4 05            11842 	.byte	5
000048f5 4d454d4d4150  11843 	.strz	"MEMMAP_ERROR "
000048fb 5f4552524f52 
00004901 2000 
00004903 01            11844 	.byte	1
00004904 8401          11845 	.byte	132,1
00004906 4253575f5354  11846 	.strz	"BSW_START_SEC_VAR_CLEARED_UNSPECIFIED "
0000490c 4152545f5345 
00004912 435f5641525f 
00004918 434c45415245 
0000491e 445f554e5350 
00004924 454349464945 
0000492a 442000 
0000492d 03            11847 	.byte	3
0000492e 8501          11848 	.byte	133,1

                                                                      Page 256
                                                              C:\Users\nhuliyap\AppData\Local\Temp\gh_000014o1.s
00004930 26            11849 	.byte	38
00004931 01            11850 	.byte	1
00004932 42            11851 	.byte	66
00004933 53544152545f  11852 	.strz	"START_SEC_VAR_CLEARED_UNSPECIFIED "
00004939 5345435f5641 
0000493f 525f434c4541 
00004945 5245445f554e 
0000494b 535045434946 
00004951 4945442000 
00004956 03            11853 	.byte	3
00004957 bb09          11854 	.byte	187,9
00004959 27            11855 	.byte	39
0000495a 01            11856 	.byte	1
0000495b 56            11857 	.byte	86
0000495c 53544152545f  11858 	.strz	"START_SEC_VAR_ZERO_INIT_UNSPECIFIED "
00004962 5345435f5641 
00004968 525f5a45524f 
0000496e 5f494e49545f 
00004974 554e53504543 
0000497a 494649454420 
00004980 00 
00004981 01            11859 	.byte	1
00004982 840a          11860 	.byte	132,10
00004984 5641525f5345  11861 	.strz	"VAR_SEC_OPEN "
0000498a 435f4f50454e 
00004990 2000 
00004992 04            11862 	.byte	4
00004993 04            11863 	.byte	4
00004994 04            11864 	.byte	4
00004995 01            11865 	.byte	1
00004996 ac01          11866 	.byte	172,1
00004998 43414e534d5f  11867 	.strz	"CANSM_STOP_SEC_VAR_CLEARED_UNSPECIFIED "
0000499e 53544f505f53 
000049a4 45435f564152 
000049aa 5f434c454152 
000049b0 45445f554e53 
000049b6 504543494649 
000049bc 45442000 
000049c0 03            11868 	.byte	3
000049c1 ad01          11869 	.byte	173,1
000049c3 2c            11870 	.byte	44
000049c4 01            11871 	.byte	1
000049c5 05            11872 	.byte	5
000049c6 4d454d4d4150  11873 	.strz	"MEMMAP_ERROR "
000049cc 5f4552524f52 
000049d2 2000 
000049d4 01            11874 	.byte	1
000049d5 8901          11875 	.byte	137,1
000049d7 4253575f5354  11876 	.strz	"BSW_STOP_SEC_VAR_CLEARED_UNSPECIFIED "
000049dd 4f505f534543 
000049e3 5f5641525f43 
000049e9 4c4541524544 
000049ef 5f554e535045 
000049f5 434946494544 
000049fb 2000 
000049fd 03            11877 	.byte	3
000049fe 8a01          11878 	.byte	138,1
00004a00 26            11879 	.byte	38
00004a01 01            11880 	.byte	1
00004a02 46            11881 	.byte	70
00004a03 53544f505f53  11882 	.strz	"STOP_SEC_VAR "

                                                                      Page 257
                                                              C:\Users\nhuliyap\AppData\Local\Temp\gh_000014o1.s
00004a09 45435f564152 
00004a0f 2000 
00004a11 03            11883 	.byte	3
00004a12 bb09          11884 	.byte	187,9
00004a14 27            11885 	.byte	39
00004a15 04            11886 	.byte	4
00004a16 04            11887 	.byte	4
00004a17 04            11888 	.byte	4
00004a18 01            11889 	.byte	1
00004a19 af01          11890 	.byte	175,1
00004a1b 43414e534d5f  11891 	.strz	"CANSM_START_SEC_VAR_CLEARED_BOOLEAN "
00004a21 53544152545f 
00004a27 5345435f5641 
00004a2d 525f434c4541 
00004a33 5245445f424f 
00004a39 4f4c45414e20 
00004a3f 00 
00004a40 03            11892 	.byte	3
00004a41 b001          11893 	.byte	176,1
00004a43 2c            11894 	.byte	44
00004a44 01            11895 	.byte	1
00004a45 05            11896 	.byte	5
00004a46 4d454d4d4150  11897 	.strz	"MEMMAP_ERROR "
00004a4c 5f4552524f52 
00004a52 2000 
00004a54 01            11898 	.byte	1
00004a55 54            11899 	.byte	84
00004a56 4253575f5354  11900 	.strz	"BSW_START_SEC_VAR_CLEARED_8 "
00004a5c 4152545f5345 
00004a62 435f5641525f 
00004a68 434c45415245 
00004a6e 445f382000 
00004a73 03            11901 	.byte	3
00004a74 55            11902 	.byte	85
00004a75 26            11903 	.byte	38
00004a76 01            11904 	.byte	1
00004a77 2a            11905 	.byte	42
00004a78 53544152545f  11906 	.strz	"START_SEC_VAR_CLEARED_8 "
00004a7e 5345435f5641 
00004a84 525f434c4541 
00004a8a 5245445f3820 
00004a90 00 
00004a91 03            11907 	.byte	3
00004a92 bb09          11908 	.byte	187,9
00004a94 27            11909 	.byte	39
00004a95 01            11910 	.byte	1
00004a96 46            11911 	.byte	70
00004a97 53544152545f  11912 	.strz	"START_SEC_VAR_ZERO_INIT_8BIT "
00004a9d 5345435f5641 
00004aa3 525f5a45524f 
00004aa9 5f494e49545f 
00004aaf 384249542000 
00004ab5 01            11913 	.byte	1
00004ab6 e009          11914 	.byte	224,9
00004ab8 5641525f5345  11915 	.strz	"VAR_SEC_OPEN "
00004abe 435f4f50454e 
00004ac4 2000 
00004ac6 04            11916 	.byte	4
00004ac7 04            11917 	.byte	4
00004ac8 04            11918 	.byte	4
00004ac9 01            11919 	.byte	1

                                                                      Page 258
                                                              C:\Users\nhuliyap\AppData\Local\Temp\gh_000014o1.s
00004aca b201          11920 	.byte	178,1
00004acc 43414e534d5f  11921 	.strz	"CANSM_STOP_SEC_VAR_CLEARED_BOOLEAN "
00004ad2 53544f505f53 
00004ad8 45435f564152 
00004ade 5f434c454152 
00004ae4 45445f424f4f 
00004aea 4c45414e2000 
00004af0 03            11922 	.byte	3
00004af1 b301          11923 	.byte	179,1
00004af3 2c            11924 	.byte	44
00004af4 01            11925 	.byte	1
00004af5 05            11926 	.byte	5
00004af6 4d454d4d4150  11927 	.strz	"MEMMAP_ERROR "
00004afc 5f4552524f52 
00004b02 2000 
00004b04 01            11928 	.byte	1
00004b05 59            11929 	.byte	89
00004b06 4253575f5354  11930 	.strz	"BSW_STOP_SEC_VAR_CLEARED_8 "
00004b0c 4f505f534543 
00004b12 5f5641525f43 
00004b18 4c4541524544 
00004b1e 5f382000 
00004b22 03            11931 	.byte	3
00004b23 5a            11932 	.byte	90
00004b24 26            11933 	.byte	38
00004b25 01            11934 	.byte	1
00004b26 2e            11935 	.byte	46
00004b27 53544f505f53  11936 	.strz	"STOP_SEC_VAR "
00004b2d 45435f564152 
00004b33 2000 
00004b35 03            11937 	.byte	3
00004b36 bb09          11938 	.byte	187,9
00004b38 27            11939 	.byte	39
00004b39 04            11940 	.byte	4
00004b3a 04            11941 	.byte	4
00004b3b 04            11942 	.byte	4
00004b3c 01            11943 	.byte	1
00004b3d b501          11944 	.byte	181,1
00004b3f 43414e534d5f  11945 	.strz	"CANSM_START_SEC_VAR_CLEARED_UNSPECIFIED "
00004b45 53544152545f 
00004b4b 5345435f5641 
00004b51 525f434c4541 
00004b57 5245445f554e 
00004b5d 535045434946 
00004b63 4945442000 
00004b68 03            11946 	.byte	3
00004b69 b601          11947 	.byte	182,1
00004b6b 2c            11948 	.byte	44
00004b6c 01            11949 	.byte	1
00004b6d 05            11950 	.byte	5
00004b6e 4d454d4d4150  11951 	.strz	"MEMMAP_ERROR "
00004b74 5f4552524f52 
00004b7a 2000 
00004b7c 01            11952 	.byte	1
00004b7d 8401          11953 	.byte	132,1
00004b7f 4253575f5354  11954 	.strz	"BSW_START_SEC_VAR_CLEARED_UNSPECIFIED "
00004b85 4152545f5345 
00004b8b 435f5641525f 
00004b91 434c45415245 
00004b97 445f554e5350 
00004b9d 454349464945 

                                                                      Page 259
                                                              C:\Users\nhuliyap\AppData\Local\Temp\gh_000014o1.s
00004ba3 442000 
00004ba6 03            11955 	.byte	3
00004ba7 8501          11956 	.byte	133,1
00004ba9 26            11957 	.byte	38
00004baa 01            11958 	.byte	1
00004bab 42            11959 	.byte	66
00004bac 53544152545f  11960 	.strz	"START_SEC_VAR_CLEARED_UNSPECIFIED "
00004bb2 5345435f5641 
00004bb8 525f434c4541 
00004bbe 5245445f554e 
00004bc4 535045434946 
00004bca 4945442000 
00004bcf 03            11961 	.byte	3
00004bd0 bb09          11962 	.byte	187,9
00004bd2 27            11963 	.byte	39
00004bd3 01            11964 	.byte	1
00004bd4 56            11965 	.byte	86
00004bd5 53544152545f  11966 	.strz	"START_SEC_VAR_ZERO_INIT_UNSPECIFIED "
00004bdb 5345435f5641 
00004be1 525f5a45524f 
00004be7 5f494e49545f 
00004bed 554e53504543 
00004bf3 494649454420 
00004bf9 00 
00004bfa 01            11967 	.byte	1
00004bfb 840a          11968 	.byte	132,10
00004bfd 5641525f5345  11969 	.strz	"VAR_SEC_OPEN "
00004c03 435f4f50454e 
00004c09 2000 
00004c0b 04            11970 	.byte	4
00004c0c 04            11971 	.byte	4
00004c0d 04            11972 	.byte	4
00004c0e 01            11973 	.byte	1
00004c0f b801          11974 	.byte	184,1
00004c11 43414e534d5f  11975 	.strz	"CANSM_STOP_SEC_VAR_CLEARED_UNSPECIFIED "
00004c17 53544f505f53 
00004c1d 45435f564152 
00004c23 5f434c454152 
00004c29 45445f554e53 
00004c2f 504543494649 
00004c35 45442000 
00004c39 03            11976 	.byte	3
00004c3a b901          11977 	.byte	185,1
00004c3c 2c            11978 	.byte	44
00004c3d 01            11979 	.byte	1
00004c3e 05            11980 	.byte	5
00004c3f 4d454d4d4150  11981 	.strz	"MEMMAP_ERROR "
00004c45 5f4552524f52 
00004c4b 2000 
00004c4d 01            11982 	.byte	1
00004c4e 8901          11983 	.byte	137,1
00004c50 4253575f5354  11984 	.strz	"BSW_STOP_SEC_VAR_CLEARED_UNSPECIFIED "
00004c56 4f505f534543 
00004c5c 5f5641525f43 
00004c62 4c4541524544 
00004c68 5f554e535045 
00004c6e 434946494544 
00004c74 2000 
00004c76 03            11985 	.byte	3
00004c77 8a01          11986 	.byte	138,1
00004c79 26            11987 	.byte	38

                                                                      Page 260
                                                              C:\Users\nhuliyap\AppData\Local\Temp\gh_000014o1.s
00004c7a 01            11988 	.byte	1
00004c7b 46            11989 	.byte	70
00004c7c 53544f505f53  11990 	.strz	"STOP_SEC_VAR "
00004c82 45435f564152 
00004c88 2000 
00004c8a 03            11991 	.byte	3
00004c8b bb09          11992 	.byte	187,9
00004c8d 27            11993 	.byte	39
00004c8e 04            11994 	.byte	4
00004c8f 04            11995 	.byte	4
00004c90 04            11996 	.byte	4
00004c91 01            11997 	.byte	1
00004c92 bb01          11998 	.byte	187,1
00004c94 43414e534d5f  11999 	.strz	"CANSM_START_SEC_VAR_CLEARED_UNSPECIFIED "
00004c9a 53544152545f 
00004ca0 5345435f5641 
00004ca6 525f434c4541 
00004cac 5245445f554e 
00004cb2 535045434946 
00004cb8 4945442000 
00004cbd 03            12000 	.byte	3
00004cbe bc01          12001 	.byte	188,1
00004cc0 2c            12002 	.byte	44
00004cc1 01            12003 	.byte	1
00004cc2 05            12004 	.byte	5
00004cc3 4d454d4d4150  12005 	.strz	"MEMMAP_ERROR "
00004cc9 5f4552524f52 
00004ccf 2000 
00004cd1 01            12006 	.byte	1
00004cd2 8401          12007 	.byte	132,1
00004cd4 4253575f5354  12008 	.strz	"BSW_START_SEC_VAR_CLEARED_UNSPECIFIED "
00004cda 4152545f5345 
00004ce0 435f5641525f 
00004ce6 434c45415245 
00004cec 445f554e5350 
00004cf2 454349464945 
00004cf8 442000 
00004cfb 03            12009 	.byte	3
00004cfc 8501          12010 	.byte	133,1
00004cfe 26            12011 	.byte	38
00004cff 01            12012 	.byte	1
00004d00 42            12013 	.byte	66
00004d01 53544152545f  12014 	.strz	"START_SEC_VAR_CLEARED_UNSPECIFIED "
00004d07 5345435f5641 
00004d0d 525f434c4541 
00004d13 5245445f554e 
00004d19 535045434946 
00004d1f 4945442000 
00004d24 03            12015 	.byte	3
00004d25 bb09          12016 	.byte	187,9
00004d27 27            12017 	.byte	39
00004d28 01            12018 	.byte	1
00004d29 56            12019 	.byte	86
00004d2a 53544152545f  12020 	.strz	"START_SEC_VAR_ZERO_INIT_UNSPECIFIED "
00004d30 5345435f5641 
00004d36 525f5a45524f 
00004d3c 5f494e49545f 
00004d42 554e53504543 
00004d48 494649454420 
00004d4e 00 
00004d4f 01            12021 	.byte	1

                                                                      Page 261
                                                              C:\Users\nhuliyap\AppData\Local\Temp\gh_000014o1.s
00004d50 840a          12022 	.byte	132,10
00004d52 5641525f5345  12023 	.strz	"VAR_SEC_OPEN "
00004d58 435f4f50454e 
00004d5e 2000 
00004d60 04            12024 	.byte	4
00004d61 04            12025 	.byte	4
00004d62 04            12026 	.byte	4
00004d63 01            12027 	.byte	1
00004d64 be01          12028 	.byte	190,1
00004d66 43414e534d5f  12029 	.strz	"CANSM_STOP_SEC_VAR_CLEARED_UNSPECIFIED "
00004d6c 53544f505f53 
00004d72 45435f564152 
00004d78 5f434c454152 
00004d7e 45445f554e53 
00004d84 504543494649 
00004d8a 45442000 
00004d8e 03            12030 	.byte	3
00004d8f bf01          12031 	.byte	191,1
00004d91 2c            12032 	.byte	44
00004d92 01            12033 	.byte	1
00004d93 05            12034 	.byte	5
00004d94 4d454d4d4150  12035 	.strz	"MEMMAP_ERROR "
00004d9a 5f4552524f52 
00004da0 2000 
00004da2 01            12036 	.byte	1
00004da3 8901          12037 	.byte	137,1
00004da5 4253575f5354  12038 	.strz	"BSW_STOP_SEC_VAR_CLEARED_UNSPECIFIED "
00004dab 4f505f534543 
00004db1 5f5641525f43 
00004db7 4c4541524544 
00004dbd 5f554e535045 
00004dc3 434946494544 
00004dc9 2000 
00004dcb 03            12039 	.byte	3
00004dcc 8a01          12040 	.byte	138,1
00004dce 26            12041 	.byte	38
00004dcf 01            12042 	.byte	1
00004dd0 46            12043 	.byte	70
00004dd1 53544f505f53  12044 	.strz	"STOP_SEC_VAR "
00004dd7 45435f564152 
00004ddd 2000 
00004ddf 03            12045 	.byte	3
00004de0 bb09          12046 	.byte	187,9
00004de2 27            12047 	.byte	39
00004de3 04            12048 	.byte	4
00004de4 04            12049 	.byte	4
00004de5 04            12050 	.byte	4
00004de6 01            12051 	.byte	1
00004de7 c101          12052 	.byte	193,1
00004de9 43414e534d5f  12053 	.strz	"CANSM_START_SEC_VAR_CLEARED_8 "
00004def 53544152545f 
00004df5 5345435f5641 
00004dfb 525f434c4541 
00004e01 5245445f3820 
00004e07 00 
00004e08 03            12054 	.byte	3
00004e09 c201          12055 	.byte	194,1
00004e0b 2c            12056 	.byte	44
00004e0c 01            12057 	.byte	1
00004e0d 05            12058 	.byte	5
00004e0e 4d454d4d4150  12059 	.strz	"MEMMAP_ERROR "

                                                                      Page 262
                                                              C:\Users\nhuliyap\AppData\Local\Temp\gh_000014o1.s
00004e14 5f4552524f52 
00004e1a 2000 
00004e1c 01            12060 	.byte	1
00004e1d 60            12061 	.byte	96
00004e1e 4253575f5354  12062 	.strz	"BSW_START_SEC_VAR_CLEARED_8 "
00004e24 4152545f5345 
00004e2a 435f5641525f 
00004e30 434c45415245 
00004e36 445f382000 
00004e3b 03            12063 	.byte	3
00004e3c 61            12064 	.byte	97
00004e3d 26            12065 	.byte	38
00004e3e 01            12066 	.byte	1
00004e3f 2a            12067 	.byte	42
00004e40 53544152545f  12068 	.strz	"START_SEC_VAR_CLEARED_8 "
00004e46 5345435f5641 
00004e4c 525f434c4541 
00004e52 5245445f3820 
00004e58 00 
00004e59 03            12069 	.byte	3
00004e5a bb09          12070 	.byte	187,9
00004e5c 27            12071 	.byte	39
00004e5d 01            12072 	.byte	1
00004e5e 46            12073 	.byte	70
00004e5f 53544152545f  12074 	.strz	"START_SEC_VAR_ZERO_INIT_8BIT "
00004e65 5345435f5641 
00004e6b 525f5a45524f 
00004e71 5f494e49545f 
00004e77 384249542000 
00004e7d 01            12075 	.byte	1
00004e7e e009          12076 	.byte	224,9
00004e80 5641525f5345  12077 	.strz	"VAR_SEC_OPEN "
00004e86 435f4f50454e 
00004e8c 2000 
00004e8e 04            12078 	.byte	4
00004e8f 04            12079 	.byte	4
00004e90 04            12080 	.byte	4
00004e91 01            12081 	.byte	1
00004e92 c401          12082 	.byte	196,1
00004e94 43414e534d5f  12083 	.strz	"CANSM_STOP_SEC_VAR_CLEARED_8 "
00004e9a 53544f505f53 
00004ea0 45435f564152 
00004ea6 5f434c454152 
00004eac 45445f382000 
00004eb2 03            12084 	.byte	3
00004eb3 c501          12085 	.byte	197,1
00004eb5 2c            12086 	.byte	44
00004eb6 01            12087 	.byte	1
00004eb7 05            12088 	.byte	5
00004eb8 4d454d4d4150  12089 	.strz	"MEMMAP_ERROR "
00004ebe 5f4552524f52 
00004ec4 2000 
00004ec6 01            12090 	.byte	1
00004ec7 65            12091 	.byte	101
00004ec8 4253575f5354  12092 	.strz	"BSW_STOP_SEC_VAR_CLEARED_8 "
00004ece 4f505f534543 
00004ed4 5f5641525f43 
00004eda 4c4541524544 
00004ee0 5f382000 
00004ee4 03            12093 	.byte	3
00004ee5 66            12094 	.byte	102

                                                                      Page 263
                                                              C:\Users\nhuliyap\AppData\Local\Temp\gh_000014o1.s
00004ee6 26            12095 	.byte	38
00004ee7 01            12096 	.byte	1
00004ee8 2e            12097 	.byte	46
00004ee9 53544f505f53  12098 	.strz	"STOP_SEC_VAR "
00004eef 45435f564152 
00004ef5 2000 
00004ef7 03            12099 	.byte	3
00004ef8 bb09          12100 	.byte	187,9
00004efa 27            12101 	.byte	39
00004efb 04            12102 	.byte	4
00004efc 04            12103 	.byte	4
00004efd 04            12104 	.byte	4
00004efe 01            12105 	.byte	1
00004eff c701          12106 	.byte	199,1
00004f01 43414e534d5f  12107 	.strz	"CANSM_START_SEC_VAR_CLEARED_8 "
00004f07 53544152545f 
00004f0d 5345435f5641 
00004f13 525f434c4541 
00004f19 5245445f3820 
00004f1f 00 
00004f20 03            12108 	.byte	3
00004f21 c801          12109 	.byte	200,1
00004f23 2c            12110 	.byte	44
00004f24 01            12111 	.byte	1
00004f25 05            12112 	.byte	5
00004f26 4d454d4d4150  12113 	.strz	"MEMMAP_ERROR "
00004f2c 5f4552524f52 
00004f32 2000 
00004f34 01            12114 	.byte	1
00004f35 60            12115 	.byte	96
00004f36 4253575f5354  12116 	.strz	"BSW_START_SEC_VAR_CLEARED_8 "
00004f3c 4152545f5345 
00004f42 435f5641525f 
00004f48 434c45415245 
00004f4e 445f382000 
00004f53 03            12117 	.byte	3
00004f54 61            12118 	.byte	97
00004f55 26            12119 	.byte	38
00004f56 01            12120 	.byte	1
00004f57 2a            12121 	.byte	42
00004f58 53544152545f  12122 	.strz	"START_SEC_VAR_CLEARED_8 "
00004f5e 5345435f5641 
00004f64 525f434c4541 
00004f6a 5245445f3820 
00004f70 00 
00004f71 03            12123 	.byte	3
00004f72 bb09          12124 	.byte	187,9
00004f74 27            12125 	.byte	39
00004f75 01            12126 	.byte	1
00004f76 46            12127 	.byte	70
00004f77 53544152545f  12128 	.strz	"START_SEC_VAR_ZERO_INIT_8BIT "
00004f7d 5345435f5641 
00004f83 525f5a45524f 
00004f89 5f494e49545f 
00004f8f 384249542000 
00004f95 01            12129 	.byte	1
00004f96 e009          12130 	.byte	224,9
00004f98 5641525f5345  12131 	.strz	"VAR_SEC_OPEN "
00004f9e 435f4f50454e 
00004fa4 2000 
00004fa6 04            12132 	.byte	4

                                                                      Page 264
                                                              C:\Users\nhuliyap\AppData\Local\Temp\gh_000014o1.s
00004fa7 04            12133 	.byte	4
00004fa8 04            12134 	.byte	4
00004fa9 01            12135 	.byte	1
00004faa ca01          12136 	.byte	202,1
00004fac 43414e534d5f  12137 	.strz	"CANSM_STOP_SEC_VAR_CLEARED_8 "
00004fb2 53544f505f53 
00004fb8 45435f564152 
00004fbe 5f434c454152 
00004fc4 45445f382000 
00004fca 03            12138 	.byte	3
00004fcb cb01          12139 	.byte	203,1
00004fcd 2c            12140 	.byte	44
00004fce 01            12141 	.byte	1
00004fcf 05            12142 	.byte	5
00004fd0 4d454d4d4150  12143 	.strz	"MEMMAP_ERROR "
00004fd6 5f4552524f52 
00004fdc 2000 
00004fde 01            12144 	.byte	1
00004fdf 65            12145 	.byte	101
00004fe0 4253575f5354  12146 	.strz	"BSW_STOP_SEC_VAR_CLEARED_8 "
00004fe6 4f505f534543 
00004fec 5f5641525f43 
00004ff2 4c4541524544 
00004ff8 5f382000 
00004ffc 03            12147 	.byte	3
00004ffd 66            12148 	.byte	102
00004ffe 26            12149 	.byte	38
00004fff 01            12150 	.byte	1
00005000 2e            12151 	.byte	46
00005001 53544f505f53  12152 	.strz	"STOP_SEC_VAR "
00005007 45435f564152 
0000500d 2000 
0000500f 03            12153 	.byte	3
00005010 bb09          12154 	.byte	187,9
00005012 27            12155 	.byte	39
00005013 04            12156 	.byte	4
00005014 04            12157 	.byte	4
00005015 04            12158 	.byte	4
00005016 01            12159 	.byte	1
00005017 cd01          12160 	.byte	205,1
00005019 43414e534d5f  12161 	.strz	"CANSM_START_SEC_VAR_CLEARED_BOOLEAN "
0000501f 53544152545f 
00005025 5345435f5641 
0000502b 525f434c4541 
00005031 5245445f424f 
00005037 4f4c45414e20 
0000503d 00 
0000503e 03            12162 	.byte	3
0000503f ce01          12163 	.byte	206,1
00005041 2c            12164 	.byte	44
00005042 01            12165 	.byte	1
00005043 05            12166 	.byte	5
00005044 4d454d4d4150  12167 	.strz	"MEMMAP_ERROR "
0000504a 5f4552524f52 
00005050 2000 
00005052 01            12168 	.byte	1
00005053 54            12169 	.byte	84
00005054 4253575f5354  12170 	.strz	"BSW_START_SEC_VAR_CLEARED_8 "
0000505a 4152545f5345 
00005060 435f5641525f 
00005066 434c45415245 

                                                                      Page 265
                                                              C:\Users\nhuliyap\AppData\Local\Temp\gh_000014o1.s
0000506c 445f382000 
00005071 03            12171 	.byte	3
00005072 55            12172 	.byte	85
00005073 26            12173 	.byte	38
00005074 01            12174 	.byte	1
00005075 2a            12175 	.byte	42
00005076 53544152545f  12176 	.strz	"START_SEC_VAR_CLEARED_8 "
0000507c 5345435f5641 
00005082 525f434c4541 
00005088 5245445f3820 
0000508e 00 
0000508f 03            12177 	.byte	3
00005090 bb09          12178 	.byte	187,9
00005092 27            12179 	.byte	39
00005093 01            12180 	.byte	1
00005094 46            12181 	.byte	70
00005095 53544152545f  12182 	.strz	"START_SEC_VAR_ZERO_INIT_8BIT "
0000509b 5345435f5641 
000050a1 525f5a45524f 
000050a7 5f494e49545f 
000050ad 384249542000 
000050b3 01            12183 	.byte	1
000050b4 e009          12184 	.byte	224,9
000050b6 5641525f5345  12185 	.strz	"VAR_SEC_OPEN "
000050bc 435f4f50454e 
000050c2 2000 
000050c4 04            12186 	.byte	4
000050c5 04            12187 	.byte	4
000050c6 04            12188 	.byte	4
000050c7 01            12189 	.byte	1
000050c8 d001          12190 	.byte	208,1
000050ca 43414e534d5f  12191 	.strz	"CANSM_STOP_SEC_VAR_CLEARED_BOOLEAN "
000050d0 53544f505f53 
000050d6 45435f564152 
000050dc 5f434c454152 
000050e2 45445f424f4f 
000050e8 4c45414e2000 
000050ee 03            12192 	.byte	3
000050ef d101          12193 	.byte	209,1
000050f1 2c            12194 	.byte	44
000050f2 01            12195 	.byte	1
000050f3 05            12196 	.byte	5
000050f4 4d454d4d4150  12197 	.strz	"MEMMAP_ERROR "
000050fa 5f4552524f52 
00005100 2000 
00005102 01            12198 	.byte	1
00005103 59            12199 	.byte	89
00005104 4253575f5354  12200 	.strz	"BSW_STOP_SEC_VAR_CLEARED_8 "
0000510a 4f505f534543 
00005110 5f5641525f43 
00005116 4c4541524544 
0000511c 5f382000 
00005120 03            12201 	.byte	3
00005121 5a            12202 	.byte	90
00005122 26            12203 	.byte	38
00005123 01            12204 	.byte	1
00005124 2e            12205 	.byte	46
00005125 53544f505f53  12206 	.strz	"STOP_SEC_VAR "
0000512b 45435f564152 
00005131 2000 
00005133 03            12207 	.byte	3

                                                                      Page 266
                                                              C:\Users\nhuliyap\AppData\Local\Temp\gh_000014o1.s
00005134 bb09          12208 	.byte	187,9
00005136 27            12209 	.byte	39
00005137 04            12210 	.byte	4
00005138 04            12211 	.byte	4
00005139 04            12212 	.byte	4
0000513a 01            12213 	.byte	1
0000513b d301          12214 	.byte	211,1
0000513d 43414e534d5f  12215 	.strz	"CANSM_START_SEC_VAR_CLEARED_8 "
00005143 53544152545f 
00005149 5345435f5641 
0000514f 525f434c4541 
00005155 5245445f3820 
0000515b 00 
0000515c 03            12216 	.byte	3
0000515d d401          12217 	.byte	212,1
0000515f 2c            12218 	.byte	44
00005160 01            12219 	.byte	1
00005161 05            12220 	.byte	5
00005162 4d454d4d4150  12221 	.strz	"MEMMAP_ERROR "
00005168 5f4552524f52 
0000516e 2000 
00005170 01            12222 	.byte	1
00005171 60            12223 	.byte	96
00005172 4253575f5354  12224 	.strz	"BSW_START_SEC_VAR_CLEARED_8 "
00005178 4152545f5345 
0000517e 435f5641525f 
00005184 434c45415245 
0000518a 445f382000 
0000518f 03            12225 	.byte	3
00005190 61            12226 	.byte	97
00005191 26            12227 	.byte	38
00005192 01            12228 	.byte	1
00005193 2a            12229 	.byte	42
00005194 53544152545f  12230 	.strz	"START_SEC_VAR_CLEARED_8 "
0000519a 5345435f5641 
000051a0 525f434c4541 
000051a6 5245445f3820 
000051ac 00 
000051ad 03            12231 	.byte	3
000051ae bb09          12232 	.byte	187,9
000051b0 27            12233 	.byte	39
000051b1 01            12234 	.byte	1
000051b2 46            12235 	.byte	70
000051b3 53544152545f  12236 	.strz	"START_SEC_VAR_ZERO_INIT_8BIT "
000051b9 5345435f5641 
000051bf 525f5a45524f 
000051c5 5f494e49545f 
000051cb 384249542000 
000051d1 01            12237 	.byte	1
000051d2 e009          12238 	.byte	224,9
000051d4 5641525f5345  12239 	.strz	"VAR_SEC_OPEN "
000051da 435f4f50454e 
000051e0 2000 
000051e2 04            12240 	.byte	4
000051e3 04            12241 	.byte	4
000051e4 04            12242 	.byte	4
000051e5 01            12243 	.byte	1
000051e6 d601          12244 	.byte	214,1
000051e8 43414e534d5f  12245 	.strz	"CANSM_STOP_SEC_VAR_CLEARED_8 "
000051ee 53544f505f53 
000051f4 45435f564152 

                                                                      Page 267
                                                              C:\Users\nhuliyap\AppData\Local\Temp\gh_000014o1.s
000051fa 5f434c454152 
00005200 45445f382000 
00005206 03            12246 	.byte	3
00005207 d701          12247 	.byte	215,1
00005209 2c            12248 	.byte	44
0000520a 01            12249 	.byte	1
0000520b 05            12250 	.byte	5
0000520c 4d454d4d4150  12251 	.strz	"MEMMAP_ERROR "
00005212 5f4552524f52 
00005218 2000 
0000521a 01            12252 	.byte	1
0000521b 65            12253 	.byte	101
0000521c 4253575f5354  12254 	.strz	"BSW_STOP_SEC_VAR_CLEARED_8 "
00005222 4f505f534543 
00005228 5f5641525f43 
0000522e 4c4541524544 
00005234 5f382000 
00005238 03            12255 	.byte	3
00005239 66            12256 	.byte	102
0000523a 26            12257 	.byte	38
0000523b 01            12258 	.byte	1
0000523c 2e            12259 	.byte	46
0000523d 53544f505f53  12260 	.strz	"STOP_SEC_VAR "
00005243 45435f564152 
00005249 2000 
0000524b 03            12261 	.byte	3
0000524c bb09          12262 	.byte	187,9
0000524e 27            12263 	.byte	39
0000524f 04            12264 	.byte	4
00005250 04            12265 	.byte	4
00005251 04            12266 	.byte	4
00005252 01            12267 	.byte	1
00005253 d901          12268 	.byte	217,1
00005255 43414e534d5f  12269 	.strz	"CANSM_START_SEC_VAR_CLEARED_UNSPECIFIED "
0000525b 53544152545f 
00005261 5345435f5641 
00005267 525f434c4541 
0000526d 5245445f554e 
00005273 535045434946 
00005279 4945442000 
0000527e 03            12270 	.byte	3
0000527f da01          12271 	.byte	218,1
00005281 2c            12272 	.byte	44
00005282 01            12273 	.byte	1
00005283 05            12274 	.byte	5
00005284 4d454d4d4150  12275 	.strz	"MEMMAP_ERROR "
0000528a 5f4552524f52 
00005290 2000 
00005292 01            12276 	.byte	1
00005293 8401          12277 	.byte	132,1
00005295 4253575f5354  12278 	.strz	"BSW_START_SEC_VAR_CLEARED_UNSPECIFIED "
0000529b 4152545f5345 
000052a1 435f5641525f 
000052a7 434c45415245 
000052ad 445f554e5350 
000052b3 454349464945 
000052b9 442000 
000052bc 03            12279 	.byte	3
000052bd 8501          12280 	.byte	133,1
000052bf 26            12281 	.byte	38
000052c0 01            12282 	.byte	1

                                                                      Page 268
                                                              C:\Users\nhuliyap\AppData\Local\Temp\gh_000014o1.s
000052c1 42            12283 	.byte	66
000052c2 53544152545f  12284 	.strz	"START_SEC_VAR_CLEARED_UNSPECIFIED "
000052c8 5345435f5641 
000052ce 525f434c4541 
000052d4 5245445f554e 
000052da 535045434946 
000052e0 4945442000 
000052e5 03            12285 	.byte	3
000052e6 bb09          12286 	.byte	187,9
000052e8 27            12287 	.byte	39
000052e9 01            12288 	.byte	1
000052ea 56            12289 	.byte	86
000052eb 53544152545f  12290 	.strz	"START_SEC_VAR_ZERO_INIT_UNSPECIFIED "
000052f1 5345435f5641 
000052f7 525f5a45524f 
000052fd 5f494e49545f 
00005303 554e53504543 
00005309 494649454420 
0000530f 00 
00005310 01            12291 	.byte	1
00005311 840a          12292 	.byte	132,10
00005313 5641525f5345  12293 	.strz	"VAR_SEC_OPEN "
00005319 435f4f50454e 
0000531f 2000 
00005321 04            12294 	.byte	4
00005322 04            12295 	.byte	4
00005323 04            12296 	.byte	4
00005324 01            12297 	.byte	1
00005325 dc01          12298 	.byte	220,1
00005327 43414e534d5f  12299 	.strz	"CANSM_STOP_SEC_VAR_CLEARED_UNSPECIFIED "
0000532d 53544f505f53 
00005333 45435f564152 
00005339 5f434c454152 
0000533f 45445f554e53 
00005345 504543494649 
0000534b 45442000 
0000534f 03            12300 	.byte	3
00005350 dd01          12301 	.byte	221,1
00005352 2c            12302 	.byte	44
00005353 01            12303 	.byte	1
00005354 05            12304 	.byte	5
00005355 4d454d4d4150  12305 	.strz	"MEMMAP_ERROR "
0000535b 5f4552524f52 
00005361 2000 
00005363 01            12306 	.byte	1
00005364 8901          12307 	.byte	137,1
00005366 4253575f5354  12308 	.strz	"BSW_STOP_SEC_VAR_CLEARED_UNSPECIFIED "
0000536c 4f505f534543 
00005372 5f5641525f43 
00005378 4c4541524544 
0000537e 5f554e535045 
00005384 434946494544 
0000538a 2000 
0000538c 03            12309 	.byte	3
0000538d 8a01          12310 	.byte	138,1
0000538f 26            12311 	.byte	38
00005390 01            12312 	.byte	1
00005391 46            12313 	.byte	70
00005392 53544f505f53  12314 	.strz	"STOP_SEC_VAR "
00005398 45435f564152 
0000539e 2000 

                                                                      Page 269
                                                              C:\Users\nhuliyap\AppData\Local\Temp\gh_000014o1.s
000053a0 03            12315 	.byte	3
000053a1 bb09          12316 	.byte	187,9
000053a3 27            12317 	.byte	39
000053a4 04            12318 	.byte	4
000053a5 04            12319 	.byte	4
000053a6 04            12320 	.byte	4
000053a7 01            12321 	.byte	1
000053a8 df01          12322 	.byte	223,1
000053aa 43414e534d5f  12323 	.strz	"CANSM_START_SEC_VAR_CLEARED_BOOLEAN "
000053b0 53544152545f 
000053b6 5345435f5641 
000053bc 525f434c4541 
000053c2 5245445f424f 
000053c8 4f4c45414e20 
000053ce 00 
000053cf 03            12324 	.byte	3
000053d0 e001          12325 	.byte	224,1
000053d2 2c            12326 	.byte	44
000053d3 01            12327 	.byte	1
000053d4 05            12328 	.byte	5
000053d5 4d454d4d4150  12329 	.strz	"MEMMAP_ERROR "
000053db 5f4552524f52 
000053e1 2000 
000053e3 01            12330 	.byte	1
000053e4 54            12331 	.byte	84
000053e5 4253575f5354  12332 	.strz	"BSW_START_SEC_VAR_CLEARED_8 "
000053eb 4152545f5345 
000053f1 435f5641525f 
000053f7 434c45415245 
000053fd 445f382000 
00005402 03            12333 	.byte	3
00005403 55            12334 	.byte	85
00005404 26            12335 	.byte	38
00005405 01            12336 	.byte	1
00005406 2a            12337 	.byte	42
00005407 53544152545f  12338 	.strz	"START_SEC_VAR_CLEARED_8 "
0000540d 5345435f5641 
00005413 525f434c4541 
00005419 5245445f3820 
0000541f 00 
00005420 03            12339 	.byte	3
00005421 bb09          12340 	.byte	187,9
00005423 27            12341 	.byte	39
00005424 01            12342 	.byte	1
00005425 46            12343 	.byte	70
00005426 53544152545f  12344 	.strz	"START_SEC_VAR_ZERO_INIT_8BIT "
0000542c 5345435f5641 
00005432 525f5a45524f 
00005438 5f494e49545f 
0000543e 384249542000 
00005444 01            12345 	.byte	1
00005445 e009          12346 	.byte	224,9
00005447 5641525f5345  12347 	.strz	"VAR_SEC_OPEN "
0000544d 435f4f50454e 
00005453 2000 
00005455 04            12348 	.byte	4
00005456 04            12349 	.byte	4
00005457 04            12350 	.byte	4
00005458 01            12351 	.byte	1
00005459 e201          12352 	.byte	226,1
0000545b 43414e534d5f  12353 	.strz	"CANSM_STOP_SEC_VAR_CLEARED_BOOLEAN "

                                                                      Page 270
                                                              C:\Users\nhuliyap\AppData\Local\Temp\gh_000014o1.s
00005461 53544f505f53 
00005467 45435f564152 
0000546d 5f434c454152 
00005473 45445f424f4f 
00005479 4c45414e2000 
0000547f 03            12354 	.byte	3
00005480 e301          12355 	.byte	227,1
00005482 2c            12356 	.byte	44
00005483 01            12357 	.byte	1
00005484 05            12358 	.byte	5
00005485 4d454d4d4150  12359 	.strz	"MEMMAP_ERROR "
0000548b 5f4552524f52 
00005491 2000 
00005493 01            12360 	.byte	1
00005494 59            12361 	.byte	89
00005495 4253575f5354  12362 	.strz	"BSW_STOP_SEC_VAR_CLEARED_8 "
0000549b 4f505f534543 
000054a1 5f5641525f43 
000054a7 4c4541524544 
000054ad 5f382000 
000054b1 03            12363 	.byte	3
000054b2 5a            12364 	.byte	90
000054b3 26            12365 	.byte	38
000054b4 01            12366 	.byte	1
000054b5 2e            12367 	.byte	46
000054b6 53544f505f53  12368 	.strz	"STOP_SEC_VAR "
000054bc 45435f564152 
000054c2 2000 
000054c4 03            12369 	.byte	3
000054c5 bb09          12370 	.byte	187,9
000054c7 27            12371 	.byte	39
000054c8 04            12372 	.byte	4
000054c9 04            12373 	.byte	4
000054ca 04            12374 	.byte	4
000054cb 01            12375 	.byte	1
000054cc e501          12376 	.byte	229,1
000054ce 43414e534d5f  12377 	.strz	"CANSM_START_SEC_VAR_CLEARED_BOOLEAN "
000054d4 53544152545f 
000054da 5345435f5641 
000054e0 525f434c4541 
000054e6 5245445f424f 
000054ec 4f4c45414e20 
000054f2 00 
000054f3 03            12378 	.byte	3
000054f4 e601          12379 	.byte	230,1
000054f6 2c            12380 	.byte	44
000054f7 01            12381 	.byte	1
000054f8 05            12382 	.byte	5
000054f9 4d454d4d4150  12383 	.strz	"MEMMAP_ERROR "
000054ff 5f4552524f52 
00005505 2000 
00005507 01            12384 	.byte	1
00005508 54            12385 	.byte	84
00005509 4253575f5354  12386 	.strz	"BSW_START_SEC_VAR_CLEARED_8 "
0000550f 4152545f5345 
00005515 435f5641525f 
0000551b 434c45415245 
00005521 445f382000 
00005526 03            12387 	.byte	3
00005527 55            12388 	.byte	85
00005528 26            12389 	.byte	38

                                                                      Page 271
                                                              C:\Users\nhuliyap\AppData\Local\Temp\gh_000014o1.s
00005529 01            12390 	.byte	1
0000552a 2a            12391 	.byte	42
0000552b 53544152545f  12392 	.strz	"START_SEC_VAR_CLEARED_8 "
00005531 5345435f5641 
00005537 525f434c4541 
0000553d 5245445f3820 
00005543 00 
00005544 03            12393 	.byte	3
00005545 bb09          12394 	.byte	187,9
00005547 27            12395 	.byte	39
00005548 01            12396 	.byte	1
00005549 46            12397 	.byte	70
0000554a 53544152545f  12398 	.strz	"START_SEC_VAR_ZERO_INIT_8BIT "
00005550 5345435f5641 
00005556 525f5a45524f 
0000555c 5f494e49545f 
00005562 384249542000 
00005568 01            12399 	.byte	1
00005569 e009          12400 	.byte	224,9
0000556b 5641525f5345  12401 	.strz	"VAR_SEC_OPEN "
00005571 435f4f50454e 
00005577 2000 
00005579 04            12402 	.byte	4
0000557a 04            12403 	.byte	4
0000557b 04            12404 	.byte	4
0000557c 01            12405 	.byte	1
0000557d e801          12406 	.byte	232,1
0000557f 43414e534d5f  12407 	.strz	"CANSM_STOP_SEC_VAR_CLEARED_BOOLEAN "
00005585 53544f505f53 
0000558b 45435f564152 
00005591 5f434c454152 
00005597 45445f424f4f 
0000559d 4c45414e2000 
000055a3 03            12408 	.byte	3
000055a4 e901          12409 	.byte	233,1
000055a6 2c            12410 	.byte	44
000055a7 01            12411 	.byte	1
000055a8 05            12412 	.byte	5
000055a9 4d454d4d4150  12413 	.strz	"MEMMAP_ERROR "
000055af 5f4552524f52 
000055b5 2000 
000055b7 01            12414 	.byte	1
000055b8 59            12415 	.byte	89
000055b9 4253575f5354  12416 	.strz	"BSW_STOP_SEC_VAR_CLEARED_8 "
000055bf 4f505f534543 
000055c5 5f5641525f43 
000055cb 4c4541524544 
000055d1 5f382000 
000055d5 03            12417 	.byte	3
000055d6 5a            12418 	.byte	90
000055d7 26            12419 	.byte	38
000055d8 01            12420 	.byte	1
000055d9 2e            12421 	.byte	46
000055da 53544f505f53  12422 	.strz	"STOP_SEC_VAR "
000055e0 45435f564152 
000055e6 2000 
000055e8 03            12423 	.byte	3
000055e9 bb09          12424 	.byte	187,9
000055eb 27            12425 	.byte	39
000055ec 04            12426 	.byte	4
000055ed 04            12427 	.byte	4

                                                                      Page 272
                                                              C:\Users\nhuliyap\AppData\Local\Temp\gh_000014o1.s
000055ee 04            12428 	.byte	4
000055ef 01            12429 	.byte	1
000055f0 ff01          12430 	.byte	255,1
000055f2 43414e534d5f  12431 	.strz	"CANSM_START_SEC_VAR_CLEARED_8 "
000055f8 53544152545f 
000055fe 5345435f5641 
00005604 525f434c4541 
0000560a 5245445f3820 
00005610 00 
00005611 03            12432 	.byte	3
00005612 8002          12433 	.byte	128,2
00005614 2c            12434 	.byte	44
00005615 01            12435 	.byte	1
00005616 05            12436 	.byte	5
00005617 4d454d4d4150  12437 	.strz	"MEMMAP_ERROR "
0000561d 5f4552524f52 
00005623 2000 
00005625 01            12438 	.byte	1
00005626 60            12439 	.byte	96
00005627 4253575f5354  12440 	.strz	"BSW_START_SEC_VAR_CLEARED_8 "
0000562d 4152545f5345 
00005633 435f5641525f 
00005639 434c45415245 
0000563f 445f382000 
00005644 03            12441 	.byte	3
00005645 61            12442 	.byte	97
00005646 26            12443 	.byte	38
00005647 01            12444 	.byte	1
00005648 2a            12445 	.byte	42
00005649 53544152545f  12446 	.strz	"START_SEC_VAR_CLEARED_8 "
0000564f 5345435f5641 
00005655 525f434c4541 
0000565b 5245445f3820 
00005661 00 
00005662 03            12447 	.byte	3
00005663 bb09          12448 	.byte	187,9
00005665 27            12449 	.byte	39
00005666 01            12450 	.byte	1
00005667 46            12451 	.byte	70
00005668 53544152545f  12452 	.strz	"START_SEC_VAR_ZERO_INIT_8BIT "
0000566e 5345435f5641 
00005674 525f5a45524f 
0000567a 5f494e49545f 
00005680 384249542000 
00005686 01            12453 	.byte	1
00005687 e009          12454 	.byte	224,9
00005689 5641525f5345  12455 	.strz	"VAR_SEC_OPEN "
0000568f 435f4f50454e 
00005695 2000 
00005697 04            12456 	.byte	4
00005698 04            12457 	.byte	4
00005699 04            12458 	.byte	4
0000569a 01            12459 	.byte	1
0000569b 8202          12460 	.byte	130,2
0000569d 43414e534d5f  12461 	.strz	"CANSM_STOP_SEC_VAR_CLEARED_8 "
000056a3 53544f505f53 
000056a9 45435f564152 
000056af 5f434c454152 
000056b5 45445f382000 
000056bb 03            12462 	.byte	3
000056bc 8302          12463 	.byte	131,2

                                                                      Page 273
                                                              C:\Users\nhuliyap\AppData\Local\Temp\gh_000014o1.s
000056be 2c            12464 	.byte	44
000056bf 01            12465 	.byte	1
000056c0 05            12466 	.byte	5
000056c1 4d454d4d4150  12467 	.strz	"MEMMAP_ERROR "
000056c7 5f4552524f52 
000056cd 2000 
000056cf 01            12468 	.byte	1
000056d0 65            12469 	.byte	101
000056d1 4253575f5354  12470 	.strz	"BSW_STOP_SEC_VAR_CLEARED_8 "
000056d7 4f505f534543 
000056dd 5f5641525f43 
000056e3 4c4541524544 
000056e9 5f382000 
000056ed 03            12471 	.byte	3
000056ee 66            12472 	.byte	102
000056ef 26            12473 	.byte	38
000056f0 01            12474 	.byte	1
000056f1 2e            12475 	.byte	46
000056f2 53544f505f53  12476 	.strz	"STOP_SEC_VAR "
000056f8 45435f564152 
000056fe 2000 
00005700 03            12477 	.byte	3
00005701 bb09          12478 	.byte	187,9
00005703 27            12479 	.byte	39
00005704 04            12480 	.byte	4
00005705 04            12481 	.byte	4
00005706 04            12482 	.byte	4
00005707 01            12483 	.byte	1
00005708 8502          12484 	.byte	133,2
0000570a 43414e534d5f  12485 	.strz	"CANSM_START_SEC_VAR_CLEARED_BOOLEAN "
00005710 53544152545f 
00005716 5345435f5641 
0000571c 525f434c4541 
00005722 5245445f424f 
00005728 4f4c45414e20 
0000572e 00 
0000572f 03            12486 	.byte	3
00005730 8602          12487 	.byte	134,2
00005732 2c            12488 	.byte	44
00005733 01            12489 	.byte	1
00005734 05            12490 	.byte	5
00005735 4d454d4d4150  12491 	.strz	"MEMMAP_ERROR "
0000573b 5f4552524f52 
00005741 2000 
00005743 01            12492 	.byte	1
00005744 54            12493 	.byte	84
00005745 4253575f5354  12494 	.strz	"BSW_START_SEC_VAR_CLEARED_8 "
0000574b 4152545f5345 
00005751 435f5641525f 
00005757 434c45415245 
0000575d 445f382000 
00005762 03            12495 	.byte	3
00005763 55            12496 	.byte	85
00005764 26            12497 	.byte	38
00005765 01            12498 	.byte	1
00005766 2a            12499 	.byte	42
00005767 53544152545f  12500 	.strz	"START_SEC_VAR_CLEARED_8 "
0000576d 5345435f5641 
00005773 525f434c4541 
00005779 5245445f3820 
0000577f 00 

                                                                      Page 274
                                                              C:\Users\nhuliyap\AppData\Local\Temp\gh_000014o1.s
00005780 03            12501 	.byte	3
00005781 bb09          12502 	.byte	187,9
00005783 27            12503 	.byte	39
00005784 01            12504 	.byte	1
00005785 46            12505 	.byte	70
00005786 53544152545f  12506 	.strz	"START_SEC_VAR_ZERO_INIT_8BIT "
0000578c 5345435f5641 
00005792 525f5a45524f 
00005798 5f494e49545f 
0000579e 384249542000 
000057a4 01            12507 	.byte	1
000057a5 e009          12508 	.byte	224,9
000057a7 5641525f5345  12509 	.strz	"VAR_SEC_OPEN "
000057ad 435f4f50454e 
000057b3 2000 
000057b5 04            12510 	.byte	4
000057b6 04            12511 	.byte	4
000057b7 04            12512 	.byte	4
000057b8 01            12513 	.byte	1
000057b9 8802          12514 	.byte	136,2
000057bb 43414e534d5f  12515 	.strz	"CANSM_STOP_SEC_VAR_CLEARED_BOOLEAN "
000057c1 53544f505f53 
000057c7 45435f564152 
000057cd 5f434c454152 
000057d3 45445f424f4f 
000057d9 4c45414e2000 
000057df 03            12516 	.byte	3
000057e0 8902          12517 	.byte	137,2
000057e2 2c            12518 	.byte	44
000057e3 01            12519 	.byte	1
000057e4 05            12520 	.byte	5
000057e5 4d454d4d4150  12521 	.strz	"MEMMAP_ERROR "
000057eb 5f4552524f52 
000057f1 2000 
000057f3 01            12522 	.byte	1
000057f4 59            12523 	.byte	89
000057f5 4253575f5354  12524 	.strz	"BSW_STOP_SEC_VAR_CLEARED_8 "
000057fb 4f505f534543 
00005801 5f5641525f43 
00005807 4c4541524544 
0000580d 5f382000 
00005811 03            12525 	.byte	3
00005812 5a            12526 	.byte	90
00005813 26            12527 	.byte	38
00005814 01            12528 	.byte	1
00005815 2e            12529 	.byte	46
00005816 53544f505f53  12530 	.strz	"STOP_SEC_VAR "
0000581c 45435f564152 
00005822 2000 
00005824 03            12531 	.byte	3
00005825 bb09          12532 	.byte	187,9
00005827 27            12533 	.byte	39
00005828 04            12534 	.byte	4
00005829 04            12535 	.byte	4
0000582a 04            12536 	.byte	4
0000582b 01            12537 	.byte	1
0000582c 8b02          12538 	.byte	139,2
0000582e 43414e534d5f  12539 	.strz	"CANSM_START_SEC_VAR_CLEARED_BOOLEAN "
00005834 53544152545f 
0000583a 5345435f5641 
00005840 525f434c4541 

                                                                      Page 275
                                                              C:\Users\nhuliyap\AppData\Local\Temp\gh_000014o1.s
00005846 5245445f424f 
0000584c 4f4c45414e20 
00005852 00 
00005853 03            12540 	.byte	3
00005854 8c02          12541 	.byte	140,2
00005856 2c            12542 	.byte	44
00005857 01            12543 	.byte	1
00005858 05            12544 	.byte	5
00005859 4d454d4d4150  12545 	.strz	"MEMMAP_ERROR "
0000585f 5f4552524f52 
00005865 2000 
00005867 01            12546 	.byte	1
00005868 54            12547 	.byte	84
00005869 4253575f5354  12548 	.strz	"BSW_START_SEC_VAR_CLEARED_8 "
0000586f 4152545f5345 
00005875 435f5641525f 
0000587b 434c45415245 
00005881 445f382000 
00005886 03            12549 	.byte	3
00005887 55            12550 	.byte	85
00005888 26            12551 	.byte	38
00005889 01            12552 	.byte	1
0000588a 2a            12553 	.byte	42
0000588b 53544152545f  12554 	.strz	"START_SEC_VAR_CLEARED_8 "
00005891 5345435f5641 
00005897 525f434c4541 
0000589d 5245445f3820 
000058a3 00 
000058a4 03            12555 	.byte	3
000058a5 bb09          12556 	.byte	187,9
000058a7 27            12557 	.byte	39
000058a8 01            12558 	.byte	1
000058a9 46            12559 	.byte	70
000058aa 53544152545f  12560 	.strz	"START_SEC_VAR_ZERO_INIT_8BIT "
000058b0 5345435f5641 
000058b6 525f5a45524f 
000058bc 5f494e49545f 
000058c2 384249542000 
000058c8 01            12561 	.byte	1
000058c9 e009          12562 	.byte	224,9
000058cb 5641525f5345  12563 	.strz	"VAR_SEC_OPEN "
000058d1 435f4f50454e 
000058d7 2000 
000058d9 04            12564 	.byte	4
000058da 04            12565 	.byte	4
000058db 04            12566 	.byte	4
000058dc 01            12567 	.byte	1
000058dd 8e02          12568 	.byte	142,2
000058df 43414e534d5f  12569 	.strz	"CANSM_STOP_SEC_VAR_CLEARED_BOOLEAN "
000058e5 53544f505f53 
000058eb 45435f564152 
000058f1 5f434c454152 
000058f7 45445f424f4f 
000058fd 4c45414e2000 
00005903 03            12570 	.byte	3
00005904 8f02          12571 	.byte	143,2
00005906 2c            12572 	.byte	44
00005907 01            12573 	.byte	1
00005908 05            12574 	.byte	5
00005909 4d454d4d4150  12575 	.strz	"MEMMAP_ERROR "
0000590f 5f4552524f52 

                                                                      Page 276
                                                              C:\Users\nhuliyap\AppData\Local\Temp\gh_000014o1.s
00005915 2000 
00005917 01            12576 	.byte	1
00005918 59            12577 	.byte	89
00005919 4253575f5354  12578 	.strz	"BSW_STOP_SEC_VAR_CLEARED_8 "
0000591f 4f505f534543 
00005925 5f5641525f43 
0000592b 4c4541524544 
00005931 5f382000 
00005935 03            12579 	.byte	3
00005936 5a            12580 	.byte	90
00005937 26            12581 	.byte	38
00005938 01            12582 	.byte	1
00005939 2e            12583 	.byte	46
0000593a 53544f505f53  12584 	.strz	"STOP_SEC_VAR "
00005940 45435f564152 
00005946 2000 
00005948 03            12585 	.byte	3
00005949 bb09          12586 	.byte	187,9
0000594b 27            12587 	.byte	39
0000594c 04            12588 	.byte	4
0000594d 04            12589 	.byte	4
0000594e 04            12590 	.byte	4
0000594f 01            12591 	.byte	1
00005950 9102          12592 	.byte	145,2
00005952 43414e534d5f  12593 	.strz	"CANSM_START_SEC_VAR_CLEARED_UNSPECIFIED "
00005958 53544152545f 
0000595e 5345435f5641 
00005964 525f434c4541 
0000596a 5245445f554e 
00005970 535045434946 
00005976 4945442000 
0000597b 03            12594 	.byte	3
0000597c 9202          12595 	.byte	146,2
0000597e 2c            12596 	.byte	44
0000597f 01            12597 	.byte	1
00005980 05            12598 	.byte	5
00005981 4d454d4d4150  12599 	.strz	"MEMMAP_ERROR "
00005987 5f4552524f52 
0000598d 2000 
0000598f 01            12600 	.byte	1
00005990 8401          12601 	.byte	132,1
00005992 4253575f5354  12602 	.strz	"BSW_START_SEC_VAR_CLEARED_UNSPECIFIED "
00005998 4152545f5345 
0000599e 435f5641525f 
000059a4 434c45415245 
000059aa 445f554e5350 
000059b0 454349464945 
000059b6 442000 
000059b9 03            12603 	.byte	3
000059ba 8501          12604 	.byte	133,1
000059bc 26            12605 	.byte	38
000059bd 01            12606 	.byte	1
000059be 42            12607 	.byte	66
000059bf 53544152545f  12608 	.strz	"START_SEC_VAR_CLEARED_UNSPECIFIED "
000059c5 5345435f5641 
000059cb 525f434c4541 
000059d1 5245445f554e 
000059d7 535045434946 
000059dd 4945442000 
000059e2 03            12609 	.byte	3
000059e3 bb09          12610 	.byte	187,9

                                                                      Page 277
                                                              C:\Users\nhuliyap\AppData\Local\Temp\gh_000014o1.s
000059e5 27            12611 	.byte	39
000059e6 01            12612 	.byte	1
000059e7 56            12613 	.byte	86
000059e8 53544152545f  12614 	.strz	"START_SEC_VAR_ZERO_INIT_UNSPECIFIED "
000059ee 5345435f5641 
000059f4 525f5a45524f 
000059fa 5f494e49545f 
00005a00 554e53504543 
00005a06 494649454420 
00005a0c 00 
00005a0d 01            12615 	.byte	1
00005a0e 840a          12616 	.byte	132,10
00005a10 5641525f5345  12617 	.strz	"VAR_SEC_OPEN "
00005a16 435f4f50454e 
00005a1c 2000 
00005a1e 04            12618 	.byte	4
00005a1f 04            12619 	.byte	4
00005a20 04            12620 	.byte	4
00005a21 01            12621 	.byte	1
00005a22 9402          12622 	.byte	148,2
00005a24 43414e534d5f  12623 	.strz	"CANSM_STOP_SEC_VAR_CLEARED_UNSPECIFIED "
00005a2a 53544f505f53 
00005a30 45435f564152 
00005a36 5f434c454152 
00005a3c 45445f554e53 
00005a42 504543494649 
00005a48 45442000 
00005a4c 03            12624 	.byte	3
00005a4d 9502          12625 	.byte	149,2
00005a4f 2c            12626 	.byte	44
00005a50 01            12627 	.byte	1
00005a51 05            12628 	.byte	5
00005a52 4d454d4d4150  12629 	.strz	"MEMMAP_ERROR "
00005a58 5f4552524f52 
00005a5e 2000 
00005a60 01            12630 	.byte	1
00005a61 8901          12631 	.byte	137,1
00005a63 4253575f5354  12632 	.strz	"BSW_STOP_SEC_VAR_CLEARED_UNSPECIFIED "
00005a69 4f505f534543 
00005a6f 5f5641525f43 
00005a75 4c4541524544 
00005a7b 5f554e535045 
00005a81 434946494544 
00005a87 2000 
00005a89 03            12633 	.byte	3
00005a8a 8a01          12634 	.byte	138,1
00005a8c 26            12635 	.byte	38
00005a8d 01            12636 	.byte	1
00005a8e 46            12637 	.byte	70
00005a8f 53544f505f53  12638 	.strz	"STOP_SEC_VAR "
00005a95 45435f564152 
00005a9b 2000 
00005a9d 03            12639 	.byte	3
00005a9e bb09          12640 	.byte	187,9
00005aa0 27            12641 	.byte	39
00005aa1 04            12642 	.byte	4
00005aa2 04            12643 	.byte	4
00005aa3 04            12644 	.byte	4
00005aa4 01            12645 	.byte	1
00005aa5 a002          12646 	.byte	160,2
00005aa7 43414e534d5f  12647 	.strz	"CANSM_START_SEC_VAR_CLEARED_UNSPECIFIED "

                                                                      Page 278
                                                              C:\Users\nhuliyap\AppData\Local\Temp\gh_000014o1.s
00005aad 53544152545f 
00005ab3 5345435f5641 
00005ab9 525f434c4541 
00005abf 5245445f554e 
00005ac5 535045434946 
00005acb 4945442000 
00005ad0 03            12648 	.byte	3
00005ad1 a102          12649 	.byte	161,2
00005ad3 2c            12650 	.byte	44
00005ad4 01            12651 	.byte	1
00005ad5 05            12652 	.byte	5
00005ad6 4d454d4d4150  12653 	.strz	"MEMMAP_ERROR "
00005adc 5f4552524f52 
00005ae2 2000 
00005ae4 01            12654 	.byte	1
00005ae5 8401          12655 	.byte	132,1
00005ae7 4253575f5354  12656 	.strz	"BSW_START_SEC_VAR_CLEARED_UNSPECIFIED "
00005aed 4152545f5345 
00005af3 435f5641525f 
00005af9 434c45415245 
00005aff 445f554e5350 
00005b05 454349464945 
00005b0b 442000 
00005b0e 03            12657 	.byte	3
00005b0f 8501          12658 	.byte	133,1
00005b11 26            12659 	.byte	38
00005b12 01            12660 	.byte	1
00005b13 42            12661 	.byte	66
00005b14 53544152545f  12662 	.strz	"START_SEC_VAR_CLEARED_UNSPECIFIED "
00005b1a 5345435f5641 
00005b20 525f434c4541 
00005b26 5245445f554e 
00005b2c 535045434946 
00005b32 4945442000 
00005b37 03            12663 	.byte	3
00005b38 bb09          12664 	.byte	187,9
00005b3a 27            12665 	.byte	39
00005b3b 01            12666 	.byte	1
00005b3c 56            12667 	.byte	86
00005b3d 53544152545f  12668 	.strz	"START_SEC_VAR_ZERO_INIT_UNSPECIFIED "
00005b43 5345435f5641 
00005b49 525f5a45524f 
00005b4f 5f494e49545f 
00005b55 554e53504543 
00005b5b 494649454420 
00005b61 00 
00005b62 01            12669 	.byte	1
00005b63 840a          12670 	.byte	132,10
00005b65 5641525f5345  12671 	.strz	"VAR_SEC_OPEN "
00005b6b 435f4f50454e 
00005b71 2000 
00005b73 04            12672 	.byte	4
00005b74 04            12673 	.byte	4
00005b75 04            12674 	.byte	4
00005b76 01            12675 	.byte	1
00005b77 a302          12676 	.byte	163,2
00005b79 43414e534d5f  12677 	.strz	"CANSM_STOP_SEC_VAR_CLEARED_UNSPECIFIED "
00005b7f 53544f505f53 
00005b85 45435f564152 
00005b8b 5f434c454152 
00005b91 45445f554e53 

                                                                      Page 279
                                                              C:\Users\nhuliyap\AppData\Local\Temp\gh_000014o1.s
00005b97 504543494649 
00005b9d 45442000 
00005ba1 03            12678 	.byte	3
00005ba2 a402          12679 	.byte	164,2
00005ba4 2c            12680 	.byte	44
00005ba5 01            12681 	.byte	1
00005ba6 05            12682 	.byte	5
00005ba7 4d454d4d4150  12683 	.strz	"MEMMAP_ERROR "
00005bad 5f4552524f52 
00005bb3 2000 
00005bb5 01            12684 	.byte	1
00005bb6 8901          12685 	.byte	137,1
00005bb8 4253575f5354  12686 	.strz	"BSW_STOP_SEC_VAR_CLEARED_UNSPECIFIED "
00005bbe 4f505f534543 
00005bc4 5f5641525f43 
00005bca 4c4541524544 
00005bd0 5f554e535045 
00005bd6 434946494544 
00005bdc 2000 
00005bde 03            12687 	.byte	3
00005bdf 8a01          12688 	.byte	138,1
00005be1 26            12689 	.byte	38
00005be2 01            12690 	.byte	1
00005be3 46            12691 	.byte	70
00005be4 53544f505f53  12692 	.strz	"STOP_SEC_VAR "
00005bea 45435f564152 
00005bf0 2000 
00005bf2 03            12693 	.byte	3
00005bf3 bb09          12694 	.byte	187,9
00005bf5 27            12695 	.byte	39
00005bf6 04            12696 	.byte	4
00005bf7 04            12697 	.byte	4
00005bf8 04            12698 	.byte	4
00005bf9 01            12699 	.byte	1
00005bfa a602          12700 	.byte	166,2
00005bfc 43414e534d5f  12701 	.strz	"CANSM_START_SEC_VAR_CLEARED_UNSPECIFIED "
00005c02 53544152545f 
00005c08 5345435f5641 
00005c0e 525f434c4541 
00005c14 5245445f554e 
00005c1a 535045434946 
00005c20 4945442000 
00005c25 03            12702 	.byte	3
00005c26 a702          12703 	.byte	167,2
00005c28 2c            12704 	.byte	44
00005c29 01            12705 	.byte	1
00005c2a 05            12706 	.byte	5
00005c2b 4d454d4d4150  12707 	.strz	"MEMMAP_ERROR "
00005c31 5f4552524f52 
00005c37 2000 
00005c39 01            12708 	.byte	1
00005c3a 8401          12709 	.byte	132,1
00005c3c 4253575f5354  12710 	.strz	"BSW_START_SEC_VAR_CLEARED_UNSPECIFIED "
00005c42 4152545f5345 
00005c48 435f5641525f 
00005c4e 434c45415245 
00005c54 445f554e5350 
00005c5a 454349464945 
00005c60 442000 
00005c63 03            12711 	.byte	3
00005c64 8501          12712 	.byte	133,1

                                                                      Page 280
                                                              C:\Users\nhuliyap\AppData\Local\Temp\gh_000014o1.s
00005c66 26            12713 	.byte	38
00005c67 01            12714 	.byte	1
00005c68 42            12715 	.byte	66
00005c69 53544152545f  12716 	.strz	"START_SEC_VAR_CLEARED_UNSPECIFIED "
00005c6f 5345435f5641 
00005c75 525f434c4541 
00005c7b 5245445f554e 
00005c81 535045434946 
00005c87 4945442000 
00005c8c 03            12717 	.byte	3
00005c8d bb09          12718 	.byte	187,9
00005c8f 27            12719 	.byte	39
00005c90 01            12720 	.byte	1
00005c91 56            12721 	.byte	86
00005c92 53544152545f  12722 	.strz	"START_SEC_VAR_ZERO_INIT_UNSPECIFIED "
00005c98 5345435f5641 
00005c9e 525f5a45524f 
00005ca4 5f494e49545f 
00005caa 554e53504543 
00005cb0 494649454420 
00005cb6 00 
00005cb7 01            12723 	.byte	1
00005cb8 840a          12724 	.byte	132,10
00005cba 5641525f5345  12725 	.strz	"VAR_SEC_OPEN "
00005cc0 435f4f50454e 
00005cc6 2000 
00005cc8 04            12726 	.byte	4
00005cc9 04            12727 	.byte	4
00005cca 04            12728 	.byte	4
00005ccb 01            12729 	.byte	1
00005ccc a902          12730 	.byte	169,2
00005cce 43414e534d5f  12731 	.strz	"CANSM_STOP_SEC_VAR_CLEARED_UNSPECIFIED "
00005cd4 53544f505f53 
00005cda 45435f564152 
00005ce0 5f434c454152 
00005ce6 45445f554e53 
00005cec 504543494649 
00005cf2 45442000 
00005cf6 03            12732 	.byte	3
00005cf7 aa02          12733 	.byte	170,2
00005cf9 2c            12734 	.byte	44
00005cfa 01            12735 	.byte	1
00005cfb 05            12736 	.byte	5
00005cfc 4d454d4d4150  12737 	.strz	"MEMMAP_ERROR "
00005d02 5f4552524f52 
00005d08 2000 
00005d0a 01            12738 	.byte	1
00005d0b 8901          12739 	.byte	137,1
00005d0d 4253575f5354  12740 	.strz	"BSW_STOP_SEC_VAR_CLEARED_UNSPECIFIED "
00005d13 4f505f534543 
00005d19 5f5641525f43 
00005d1f 4c4541524544 
00005d25 5f554e535045 
00005d2b 434946494544 
00005d31 2000 
00005d33 03            12741 	.byte	3
00005d34 8a01          12742 	.byte	138,1
00005d36 26            12743 	.byte	38
00005d37 01            12744 	.byte	1
00005d38 46            12745 	.byte	70
00005d39 53544f505f53  12746 	.strz	"STOP_SEC_VAR "

                                                                      Page 281
                                                              C:\Users\nhuliyap\AppData\Local\Temp\gh_000014o1.s
00005d3f 45435f564152 
00005d45 2000 
00005d47 03            12747 	.byte	3
00005d48 bb09          12748 	.byte	187,9
00005d4a 27            12749 	.byte	39
00005d4b 04            12750 	.byte	4
00005d4c 04            12751 	.byte	4
00005d4d 04            12752 	.byte	4
00005d4e 01            12753 	.byte	1
00005d4f ac02          12754 	.byte	172,2
00005d51 43414e534d5f  12755 	.strz	"CANSM_START_SEC_VAR_CLEARED_UNSPECIFIED "
00005d57 53544152545f 
00005d5d 5345435f5641 
00005d63 525f434c4541 
00005d69 5245445f554e 
00005d6f 535045434946 
00005d75 4945442000 
00005d7a 03            12756 	.byte	3
00005d7b ad02          12757 	.byte	173,2
00005d7d 2c            12758 	.byte	44
00005d7e 01            12759 	.byte	1
00005d7f 05            12760 	.byte	5
00005d80 4d454d4d4150  12761 	.strz	"MEMMAP_ERROR "
00005d86 5f4552524f52 
00005d8c 2000 
00005d8e 01            12762 	.byte	1
00005d8f 8401          12763 	.byte	132,1
00005d91 4253575f5354  12764 	.strz	"BSW_START_SEC_VAR_CLEARED_UNSPECIFIED "
00005d97 4152545f5345 
00005d9d 435f5641525f 
00005da3 434c45415245 
00005da9 445f554e5350 
00005daf 454349464945 
00005db5 442000 
00005db8 03            12765 	.byte	3
00005db9 8501          12766 	.byte	133,1
00005dbb 26            12767 	.byte	38
00005dbc 01            12768 	.byte	1
00005dbd 42            12769 	.byte	66
00005dbe 53544152545f  12770 	.strz	"START_SEC_VAR_CLEARED_UNSPECIFIED "
00005dc4 5345435f5641 
00005dca 525f434c4541 
00005dd0 5245445f554e 
00005dd6 535045434946 
00005ddc 4945442000 
00005de1 03            12771 	.byte	3
00005de2 bb09          12772 	.byte	187,9
00005de4 27            12773 	.byte	39
00005de5 01            12774 	.byte	1
00005de6 56            12775 	.byte	86
00005de7 53544152545f  12776 	.strz	"START_SEC_VAR_ZERO_INIT_UNSPECIFIED "
00005ded 5345435f5641 
00005df3 525f5a45524f 
00005df9 5f494e49545f 
00005dff 554e53504543 
00005e05 494649454420 
00005e0b 00 
00005e0c 01            12777 	.byte	1
00005e0d 840a          12778 	.byte	132,10
00005e0f 5641525f5345  12779 	.strz	"VAR_SEC_OPEN "
00005e15 435f4f50454e 

                                                                      Page 282
                                                              C:\Users\nhuliyap\AppData\Local\Temp\gh_000014o1.s
00005e1b 2000 
00005e1d 04            12780 	.byte	4
00005e1e 04            12781 	.byte	4
00005e1f 04            12782 	.byte	4
00005e20 01            12783 	.byte	1
00005e21 af02          12784 	.byte	175,2
00005e23 43414e534d5f  12785 	.strz	"CANSM_STOP_SEC_VAR_CLEARED_UNSPECIFIED "
00005e29 53544f505f53 
00005e2f 45435f564152 
00005e35 5f434c454152 
00005e3b 45445f554e53 
00005e41 504543494649 
00005e47 45442000 
00005e4b 03            12786 	.byte	3
00005e4c b002          12787 	.byte	176,2
00005e4e 2c            12788 	.byte	44
00005e4f 01            12789 	.byte	1
00005e50 05            12790 	.byte	5
00005e51 4d454d4d4150  12791 	.strz	"MEMMAP_ERROR "
00005e57 5f4552524f52 
00005e5d 2000 
00005e5f 01            12792 	.byte	1
00005e60 8901          12793 	.byte	137,1
00005e62 4253575f5354  12794 	.strz	"BSW_STOP_SEC_VAR_CLEARED_UNSPECIFIED "
00005e68 4f505f534543 
00005e6e 5f5641525f43 
00005e74 4c4541524544 
00005e7a 5f554e535045 
00005e80 434946494544 
00005e86 2000 
00005e88 03            12795 	.byte	3
00005e89 8a01          12796 	.byte	138,1
00005e8b 26            12797 	.byte	38
00005e8c 01            12798 	.byte	1
00005e8d 46            12799 	.byte	70
00005e8e 53544f505f53  12800 	.strz	"STOP_SEC_VAR "
00005e94 45435f564152 
00005e9a 2000 
00005e9c 03            12801 	.byte	3
00005e9d bb09          12802 	.byte	187,9
00005e9f 27            12803 	.byte	39
00005ea0 04            12804 	.byte	4
00005ea1 04            12805 	.byte	4
00005ea2 04            12806 	.byte	4
00005ea3 01            12807 	.byte	1
00005ea4 b202          12808 	.byte	178,2
00005ea6 43414e534d5f  12809 	.strz	"CANSM_START_SEC_VAR_CLEARED_UNSPECIFIED "
00005eac 53544152545f 
00005eb2 5345435f5641 
00005eb8 525f434c4541 
00005ebe 5245445f554e 
00005ec4 535045434946 
00005eca 4945442000 
00005ecf 03            12810 	.byte	3
00005ed0 b302          12811 	.byte	179,2
00005ed2 2c            12812 	.byte	44
00005ed3 01            12813 	.byte	1
00005ed4 05            12814 	.byte	5
00005ed5 4d454d4d4150  12815 	.strz	"MEMMAP_ERROR "
00005edb 5f4552524f52 
00005ee1 2000 

                                                                      Page 283
                                                              C:\Users\nhuliyap\AppData\Local\Temp\gh_000014o1.s
00005ee3 01            12816 	.byte	1
00005ee4 8401          12817 	.byte	132,1
00005ee6 4253575f5354  12818 	.strz	"BSW_START_SEC_VAR_CLEARED_UNSPECIFIED "
00005eec 4152545f5345 
00005ef2 435f5641525f 
00005ef8 434c45415245 
00005efe 445f554e5350 
00005f04 454349464945 
00005f0a 442000 
00005f0d 03            12819 	.byte	3
00005f0e 8501          12820 	.byte	133,1
00005f10 26            12821 	.byte	38
00005f11 01            12822 	.byte	1
00005f12 42            12823 	.byte	66
00005f13 53544152545f  12824 	.strz	"START_SEC_VAR_CLEARED_UNSPECIFIED "
00005f19 5345435f5641 
00005f1f 525f434c4541 
00005f25 5245445f554e 
00005f2b 535045434946 
00005f31 4945442000 
00005f36 03            12825 	.byte	3
00005f37 bb09          12826 	.byte	187,9
00005f39 27            12827 	.byte	39
00005f3a 01            12828 	.byte	1
00005f3b 56            12829 	.byte	86
00005f3c 53544152545f  12830 	.strz	"START_SEC_VAR_ZERO_INIT_UNSPECIFIED "
00005f42 5345435f5641 
00005f48 525f5a45524f 
00005f4e 5f494e49545f 
00005f54 554e53504543 
00005f5a 494649454420 
00005f60 00 
00005f61 01            12831 	.byte	1
00005f62 840a          12832 	.byte	132,10
00005f64 5641525f5345  12833 	.strz	"VAR_SEC_OPEN "
00005f6a 435f4f50454e 
00005f70 2000 
00005f72 04            12834 	.byte	4
00005f73 04            12835 	.byte	4
00005f74 04            12836 	.byte	4
00005f75 01            12837 	.byte	1
00005f76 b502          12838 	.byte	181,2
00005f78 43414e534d5f  12839 	.strz	"CANSM_STOP_SEC_VAR_CLEARED_UNSPECIFIED "
00005f7e 53544f505f53 
00005f84 45435f564152 
00005f8a 5f434c454152 
00005f90 45445f554e53 
00005f96 504543494649 
00005f9c 45442000 
00005fa0 03            12840 	.byte	3
00005fa1 b602          12841 	.byte	182,2
00005fa3 2c            12842 	.byte	44
00005fa4 01            12843 	.byte	1
00005fa5 05            12844 	.byte	5
00005fa6 4d454d4d4150  12845 	.strz	"MEMMAP_ERROR "
00005fac 5f4552524f52 
00005fb2 2000 
00005fb4 01            12846 	.byte	1
00005fb5 8901          12847 	.byte	137,1
00005fb7 4253575f5354  12848 	.strz	"BSW_STOP_SEC_VAR_CLEARED_UNSPECIFIED "
00005fbd 4f505f534543 

                                                                      Page 284
                                                              C:\Users\nhuliyap\AppData\Local\Temp\gh_000014o1.s
00005fc3 5f5641525f43 
00005fc9 4c4541524544 
00005fcf 5f554e535045 
00005fd5 434946494544 
00005fdb 2000 
00005fdd 03            12849 	.byte	3
00005fde 8a01          12850 	.byte	138,1
00005fe0 26            12851 	.byte	38
00005fe1 01            12852 	.byte	1
00005fe2 46            12853 	.byte	70
00005fe3 53544f505f53  12854 	.strz	"STOP_SEC_VAR "
00005fe9 45435f564152 
00005fef 2000 
00005ff1 03            12855 	.byte	3
00005ff2 bb09          12856 	.byte	187,9
00005ff4 27            12857 	.byte	39
00005ff5 04            12858 	.byte	4
00005ff6 04            12859 	.byte	4
00005ff7 04            12860 	.byte	4
00005ff8 01            12861 	.byte	1
00005ff9 b802          12862 	.byte	184,2
00005ffb 43414e534d5f  12863 	.strz	"CANSM_START_SEC_VAR_CLEARED_16 "
00006001 53544152545f 
00006007 5345435f5641 
0000600d 525f434c4541 
00006013 5245445f3136 
00006019 2000 
0000601b 03            12864 	.byte	3
0000601c b902          12865 	.byte	185,2
0000601e 2c            12866 	.byte	44
0000601f 01            12867 	.byte	1
00006020 05            12868 	.byte	5
00006021 4d454d4d4150  12869 	.strz	"MEMMAP_ERROR "
00006027 5f4552524f52 
0000602d 2000 
0000602f 01            12870 	.byte	1
00006030 6c            12871 	.byte	108
00006031 4253575f5354  12872 	.strz	"BSW_START_SEC_VAR_CLEARED_16 "
00006037 4152545f5345 
0000603d 435f5641525f 
00006043 434c45415245 
00006049 445f31362000 
0000604f 03            12873 	.byte	3
00006050 6d            12874 	.byte	109
00006051 26            12875 	.byte	38
00006052 01            12876 	.byte	1
00006053 32            12877 	.byte	50
00006054 53544152545f  12878 	.strz	"START_SEC_VAR_CLEARED_16 "
0000605a 5345435f5641 
00006060 525f434c4541 
00006066 5245445f3136 
0000606c 2000 
0000606e 03            12879 	.byte	3
0000606f bb09          12880 	.byte	187,9
00006071 27            12881 	.byte	39
00006072 01            12882 	.byte	1
00006073 4a            12883 	.byte	74
00006074 53544152545f  12884 	.strz	"START_SEC_VAR_ZERO_INIT_16BIT "
0000607a 5345435f5641 
00006080 525f5a45524f 
00006086 5f494e49545f 

                                                                      Page 285
                                                              C:\Users\nhuliyap\AppData\Local\Temp\gh_000014o1.s
0000608c 313642495420 
00006092 00 
00006093 01            12885 	.byte	1
00006094 e909          12886 	.byte	233,9
00006096 5641525f5345  12887 	.strz	"VAR_SEC_OPEN "
0000609c 435f4f50454e 
000060a2 2000 
000060a4 04            12888 	.byte	4
000060a5 04            12889 	.byte	4
000060a6 04            12890 	.byte	4
000060a7 01            12891 	.byte	1
000060a8 bb02          12892 	.byte	187,2
000060aa 43414e534d5f  12893 	.strz	"CANSM_STOP_SEC_VAR_CLEARED_16 "
000060b0 53544f505f53 
000060b6 45435f564152 
000060bc 5f434c454152 
000060c2 45445f313620 
000060c8 00 
000060c9 03            12894 	.byte	3
000060ca bc02          12895 	.byte	188,2
000060cc 2c            12896 	.byte	44
000060cd 01            12897 	.byte	1
000060ce 05            12898 	.byte	5
000060cf 4d454d4d4150  12899 	.strz	"MEMMAP_ERROR "
000060d5 5f4552524f52 
000060db 2000 
000060dd 01            12900 	.byte	1
000060de 71            12901 	.byte	113
000060df 4253575f5354  12902 	.strz	"BSW_STOP_SEC_VAR_CLEARED_16 "
000060e5 4f505f534543 
000060eb 5f5641525f43 
000060f1 4c4541524544 
000060f7 5f31362000 
000060fc 03            12903 	.byte	3
000060fd 72            12904 	.byte	114
000060fe 26            12905 	.byte	38
000060ff 01            12906 	.byte	1
00006100 36            12907 	.byte	54
00006101 53544f505f53  12908 	.strz	"STOP_SEC_VAR "
00006107 45435f564152 
0000610d 2000 
0000610f 03            12909 	.byte	3
00006110 bb09          12910 	.byte	187,9
00006112 27            12911 	.byte	39
00006113 04            12912 	.byte	4
00006114 04            12913 	.byte	4
00006115 04            12914 	.byte	4
00006116 01            12915 	.byte	1
00006117 be02          12916 	.byte	190,2
00006119 43414e534d5f  12917 	.strz	"CANSM_START_SEC_VAR_CLEARED_8 "
0000611f 53544152545f 
00006125 5345435f5641 
0000612b 525f434c4541 
00006131 5245445f3820 
00006137 00 
00006138 03            12918 	.byte	3
00006139 bf02          12919 	.byte	191,2
0000613b 2c            12920 	.byte	44
0000613c 01            12921 	.byte	1
0000613d 05            12922 	.byte	5
0000613e 4d454d4d4150  12923 	.strz	"MEMMAP_ERROR "

                                                                      Page 286
                                                              C:\Users\nhuliyap\AppData\Local\Temp\gh_000014o1.s
00006144 5f4552524f52 
0000614a 2000 
0000614c 01            12924 	.byte	1
0000614d 60            12925 	.byte	96
0000614e 4253575f5354  12926 	.strz	"BSW_START_SEC_VAR_CLEARED_8 "
00006154 4152545f5345 
0000615a 435f5641525f 
00006160 434c45415245 
00006166 445f382000 
0000616b 03            12927 	.byte	3
0000616c 61            12928 	.byte	97
0000616d 26            12929 	.byte	38
0000616e 01            12930 	.byte	1
0000616f 2a            12931 	.byte	42
00006170 53544152545f  12932 	.strz	"START_SEC_VAR_CLEARED_8 "
00006176 5345435f5641 
0000617c 525f434c4541 
00006182 5245445f3820 
00006188 00 
00006189 03            12933 	.byte	3
0000618a bb09          12934 	.byte	187,9
0000618c 27            12935 	.byte	39
0000618d 01            12936 	.byte	1
0000618e 46            12937 	.byte	70
0000618f 53544152545f  12938 	.strz	"START_SEC_VAR_ZERO_INIT_8BIT "
00006195 5345435f5641 
0000619b 525f5a45524f 
000061a1 5f494e49545f 
000061a7 384249542000 
000061ad 01            12939 	.byte	1
000061ae e009          12940 	.byte	224,9
000061b0 5641525f5345  12941 	.strz	"VAR_SEC_OPEN "
000061b6 435f4f50454e 
000061bc 2000 
000061be 04            12942 	.byte	4
000061bf 04            12943 	.byte	4
000061c0 04            12944 	.byte	4
000061c1 01            12945 	.byte	1
000061c2 c102          12946 	.byte	193,2
000061c4 43414e534d5f  12947 	.strz	"CANSM_STOP_SEC_VAR_CLEARED_8 "
000061ca 53544f505f53 
000061d0 45435f564152 
000061d6 5f434c454152 
000061dc 45445f382000 
000061e2 03            12948 	.byte	3
000061e3 c202          12949 	.byte	194,2
000061e5 2c            12950 	.byte	44
000061e6 01            12951 	.byte	1
000061e7 05            12952 	.byte	5
000061e8 4d454d4d4150  12953 	.strz	"MEMMAP_ERROR "
000061ee 5f4552524f52 
000061f4 2000 
000061f6 01            12954 	.byte	1
000061f7 65            12955 	.byte	101
000061f8 4253575f5354  12956 	.strz	"BSW_STOP_SEC_VAR_CLEARED_8 "
000061fe 4f505f534543 
00006204 5f5641525f43 
0000620a 4c4541524544 
00006210 5f382000 
00006214 03            12957 	.byte	3
00006215 66            12958 	.byte	102

                                                                      Page 287
                                                              C:\Users\nhuliyap\AppData\Local\Temp\gh_000014o1.s
00006216 26            12959 	.byte	38
00006217 01            12960 	.byte	1
00006218 2e            12961 	.byte	46
00006219 53544f505f53  12962 	.strz	"STOP_SEC_VAR "
0000621f 45435f564152 
00006225 2000 
00006227 03            12963 	.byte	3
00006228 bb09          12964 	.byte	187,9
0000622a 27            12965 	.byte	39
0000622b 04            12966 	.byte	4
0000622c 04            12967 	.byte	4
0000622d 04            12968 	.byte	4
0000622e 01            12969 	.byte	1
0000622f c402          12970 	.byte	196,2
00006231 43414e534d5f  12971 	.strz	"CANSM_START_SEC_VAR_CLEARED_UNSPECIFIED "
00006237 53544152545f 
0000623d 5345435f5641 
00006243 525f434c4541 
00006249 5245445f554e 
0000624f 535045434946 
00006255 4945442000 
0000625a 03            12972 	.byte	3
0000625b c502          12973 	.byte	197,2
0000625d 2c            12974 	.byte	44
0000625e 01            12975 	.byte	1
0000625f 05            12976 	.byte	5
00006260 4d454d4d4150  12977 	.strz	"MEMMAP_ERROR "
00006266 5f4552524f52 
0000626c 2000 
0000626e 01            12978 	.byte	1
0000626f 8401          12979 	.byte	132,1
00006271 4253575f5354  12980 	.strz	"BSW_START_SEC_VAR_CLEARED_UNSPECIFIED "
00006277 4152545f5345 
0000627d 435f5641525f 
00006283 434c45415245 
00006289 445f554e5350 
0000628f 454349464945 
00006295 442000 
00006298 03            12981 	.byte	3
00006299 8501          12982 	.byte	133,1
0000629b 26            12983 	.byte	38
0000629c 01            12984 	.byte	1
0000629d 42            12985 	.byte	66
0000629e 53544152545f  12986 	.strz	"START_SEC_VAR_CLEARED_UNSPECIFIED "
000062a4 5345435f5641 
000062aa 525f434c4541 
000062b0 5245445f554e 
000062b6 535045434946 
000062bc 4945442000 
000062c1 03            12987 	.byte	3
000062c2 bb09          12988 	.byte	187,9
000062c4 27            12989 	.byte	39
000062c5 01            12990 	.byte	1
000062c6 56            12991 	.byte	86
000062c7 53544152545f  12992 	.strz	"START_SEC_VAR_ZERO_INIT_UNSPECIFIED "
000062cd 5345435f5641 
000062d3 525f5a45524f 
000062d9 5f494e49545f 
000062df 554e53504543 
000062e5 494649454420 
000062eb 00 

                                                                      Page 288
                                                              C:\Users\nhuliyap\AppData\Local\Temp\gh_000014o1.s
000062ec 01            12993 	.byte	1
000062ed 840a          12994 	.byte	132,10
000062ef 5641525f5345  12995 	.strz	"VAR_SEC_OPEN "
000062f5 435f4f50454e 
000062fb 2000 
000062fd 04            12996 	.byte	4
000062fe 04            12997 	.byte	4
000062ff 04            12998 	.byte	4
00006300 01            12999 	.byte	1
00006301 c702          13000 	.byte	199,2
00006303 43414e534d5f  13001 	.strz	"CANSM_STOP_SEC_VAR_CLEARED_UNSPECIFIED "
00006309 53544f505f53 
0000630f 45435f564152 
00006315 5f434c454152 
0000631b 45445f554e53 
00006321 504543494649 
00006327 45442000 
0000632b 03            13002 	.byte	3
0000632c c802          13003 	.byte	200,2
0000632e 2c            13004 	.byte	44
0000632f 01            13005 	.byte	1
00006330 05            13006 	.byte	5
00006331 4d454d4d4150  13007 	.strz	"MEMMAP_ERROR "
00006337 5f4552524f52 
0000633d 2000 
0000633f 01            13008 	.byte	1
00006340 8901          13009 	.byte	137,1
00006342 4253575f5354  13010 	.strz	"BSW_STOP_SEC_VAR_CLEARED_UNSPECIFIED "
00006348 4f505f534543 
0000634e 5f5641525f43 
00006354 4c4541524544 
0000635a 5f554e535045 
00006360 434946494544 
00006366 2000 
00006368 03            13011 	.byte	3
00006369 8a01          13012 	.byte	138,1
0000636b 26            13013 	.byte	38
0000636c 01            13014 	.byte	1
0000636d 46            13015 	.byte	70
0000636e 53544f505f53  13016 	.strz	"STOP_SEC_VAR "
00006374 45435f564152 
0000637a 2000 
0000637c 03            13017 	.byte	3
0000637d bb09          13018 	.byte	187,9
0000637f 27            13019 	.byte	39
00006380 04            13020 	.byte	4
00006381 04            13021 	.byte	4
00006382 04            13022 	.byte	4
00006383 01            13023 	.byte	1
00006384 ca02          13024 	.byte	202,2
00006386 43414e534d5f  13025 	.strz	"CANSM_START_SEC_VAR_CLEARED_BOOLEAN "
0000638c 53544152545f 
00006392 5345435f5641 
00006398 525f434c4541 
0000639e 5245445f424f 
000063a4 4f4c45414e20 
000063aa 00 
000063ab 03            13026 	.byte	3
000063ac cb02          13027 	.byte	203,2
000063ae 2c            13028 	.byte	44
000063af 01            13029 	.byte	1

                                                                      Page 289
                                                              C:\Users\nhuliyap\AppData\Local\Temp\gh_000014o1.s
000063b0 05            13030 	.byte	5
000063b1 4d454d4d4150  13031 	.strz	"MEMMAP_ERROR "
000063b7 5f4552524f52 
000063bd 2000 
000063bf 01            13032 	.byte	1
000063c0 54            13033 	.byte	84
000063c1 4253575f5354  13034 	.strz	"BSW_START_SEC_VAR_CLEARED_8 "
000063c7 4152545f5345 
000063cd 435f5641525f 
000063d3 434c45415245 
000063d9 445f382000 
000063de 03            13035 	.byte	3
000063df 55            13036 	.byte	85
000063e0 26            13037 	.byte	38
000063e1 01            13038 	.byte	1
000063e2 2a            13039 	.byte	42
000063e3 53544152545f  13040 	.strz	"START_SEC_VAR_CLEARED_8 "
000063e9 5345435f5641 
000063ef 525f434c4541 
000063f5 5245445f3820 
000063fb 00 
000063fc 03            13041 	.byte	3
000063fd bb09          13042 	.byte	187,9
000063ff 27            13043 	.byte	39
00006400 01            13044 	.byte	1
00006401 46            13045 	.byte	70
00006402 53544152545f  13046 	.strz	"START_SEC_VAR_ZERO_INIT_8BIT "
00006408 5345435f5641 
0000640e 525f5a45524f 
00006414 5f494e49545f 
0000641a 384249542000 
00006420 01            13047 	.byte	1
00006421 e009          13048 	.byte	224,9
00006423 5641525f5345  13049 	.strz	"VAR_SEC_OPEN "
00006429 435f4f50454e 
0000642f 2000 
00006431 04            13050 	.byte	4
00006432 04            13051 	.byte	4
00006433 04            13052 	.byte	4
00006434 01            13053 	.byte	1
00006435 cd02          13054 	.byte	205,2
00006437 43414e534d5f  13055 	.strz	"CANSM_STOP_SEC_VAR_CLEARED_BOOLEAN "
0000643d 53544f505f53 
00006443 45435f564152 
00006449 5f434c454152 
0000644f 45445f424f4f 
00006455 4c45414e2000 
0000645b 03            13056 	.byte	3
0000645c ce02          13057 	.byte	206,2
0000645e 2c            13058 	.byte	44
0000645f 01            13059 	.byte	1
00006460 05            13060 	.byte	5
00006461 4d454d4d4150  13061 	.strz	"MEMMAP_ERROR "
00006467 5f4552524f52 
0000646d 2000 
0000646f 01            13062 	.byte	1
00006470 59            13063 	.byte	89
00006471 4253575f5354  13064 	.strz	"BSW_STOP_SEC_VAR_CLEARED_8 "
00006477 4f505f534543 
0000647d 5f5641525f43 
00006483 4c4541524544 

                                                                      Page 290
                                                              C:\Users\nhuliyap\AppData\Local\Temp\gh_000014o1.s
00006489 5f382000 
0000648d 03            13065 	.byte	3
0000648e 5a            13066 	.byte	90
0000648f 26            13067 	.byte	38
00006490 01            13068 	.byte	1
00006491 2e            13069 	.byte	46
00006492 53544f505f53  13070 	.strz	"STOP_SEC_VAR "
00006498 45435f564152 
0000649e 2000 
000064a0 03            13071 	.byte	3
000064a1 bb09          13072 	.byte	187,9
000064a3 27            13073 	.byte	39
000064a4 04            13074 	.byte	4
000064a5 04            13075 	.byte	4
000064a6 04            13076 	.byte	4
000064a7 01            13077 	.byte	1
000064a8 d002          13078 	.byte	208,2
000064aa 43414e534d5f  13079 	.strz	"CANSM_START_SEC_VAR_CLEARED_BOOLEAN "
000064b0 53544152545f 
000064b6 5345435f5641 
000064bc 525f434c4541 
000064c2 5245445f424f 
000064c8 4f4c45414e20 
000064ce 00 
000064cf 03            13080 	.byte	3
000064d0 d102          13081 	.byte	209,2
000064d2 2c            13082 	.byte	44
000064d3 01            13083 	.byte	1
000064d4 05            13084 	.byte	5
000064d5 4d454d4d4150  13085 	.strz	"MEMMAP_ERROR "
000064db 5f4552524f52 
000064e1 2000 
000064e3 01            13086 	.byte	1
000064e4 54            13087 	.byte	84
000064e5 4253575f5354  13088 	.strz	"BSW_START_SEC_VAR_CLEARED_8 "
000064eb 4152545f5345 
000064f1 435f5641525f 
000064f7 434c45415245 
000064fd 445f382000 
00006502 03            13089 	.byte	3
00006503 55            13090 	.byte	85
00006504 26            13091 	.byte	38
00006505 01            13092 	.byte	1
00006506 2a            13093 	.byte	42
00006507 53544152545f  13094 	.strz	"START_SEC_VAR_CLEARED_8 "
0000650d 5345435f5641 
00006513 525f434c4541 
00006519 5245445f3820 
0000651f 00 
00006520 03            13095 	.byte	3
00006521 bb09          13096 	.byte	187,9
00006523 27            13097 	.byte	39
00006524 01            13098 	.byte	1
00006525 46            13099 	.byte	70
00006526 53544152545f  13100 	.strz	"START_SEC_VAR_ZERO_INIT_8BIT "
0000652c 5345435f5641 
00006532 525f5a45524f 
00006538 5f494e49545f 
0000653e 384249542000 
00006544 01            13101 	.byte	1
00006545 e009          13102 	.byte	224,9

                                                                      Page 291
                                                              C:\Users\nhuliyap\AppData\Local\Temp\gh_000014o1.s
00006547 5641525f5345  13103 	.strz	"VAR_SEC_OPEN "
0000654d 435f4f50454e 
00006553 2000 
00006555 04            13104 	.byte	4
00006556 04            13105 	.byte	4
00006557 04            13106 	.byte	4
00006558 01            13107 	.byte	1
00006559 d302          13108 	.byte	211,2
0000655b 43414e534d5f  13109 	.strz	"CANSM_STOP_SEC_VAR_CLEARED_BOOLEAN "
00006561 53544f505f53 
00006567 45435f564152 
0000656d 5f434c454152 
00006573 45445f424f4f 
00006579 4c45414e2000 
0000657f 03            13110 	.byte	3
00006580 d402          13111 	.byte	212,2
00006582 2c            13112 	.byte	44
00006583 01            13113 	.byte	1
00006584 05            13114 	.byte	5
00006585 4d454d4d4150  13115 	.strz	"MEMMAP_ERROR "
0000658b 5f4552524f52 
00006591 2000 
00006593 01            13116 	.byte	1
00006594 59            13117 	.byte	89
00006595 4253575f5354  13118 	.strz	"BSW_STOP_SEC_VAR_CLEARED_8 "
0000659b 4f505f534543 
000065a1 5f5641525f43 
000065a7 4c4541524544 
000065ad 5f382000 
000065b1 03            13119 	.byte	3
000065b2 5a            13120 	.byte	90
000065b3 26            13121 	.byte	38
000065b4 01            13122 	.byte	1
000065b5 2e            13123 	.byte	46
000065b6 53544f505f53  13124 	.strz	"STOP_SEC_VAR "
000065bc 45435f564152 
000065c2 2000 
000065c4 03            13125 	.byte	3
000065c5 bb09          13126 	.byte	187,9
000065c7 27            13127 	.byte	39
000065c8 04            13128 	.byte	4
000065c9 04            13129 	.byte	4
000065ca 04            13130 	.byte	4
000065cb 01            13131 	.byte	1
000065cc d602          13132 	.byte	214,2
000065ce 43414e534d5f  13133 	.strz	"CANSM_START_SEC_VAR_CLEARED_UNSPECIFIED "
000065d4 53544152545f 
000065da 5345435f5641 
000065e0 525f434c4541 
000065e6 5245445f554e 
000065ec 535045434946 
000065f2 4945442000 
000065f7 03            13134 	.byte	3
000065f8 d702          13135 	.byte	215,2
000065fa 2c            13136 	.byte	44
000065fb 01            13137 	.byte	1
000065fc 05            13138 	.byte	5
000065fd 4d454d4d4150  13139 	.strz	"MEMMAP_ERROR "
00006603 5f4552524f52 
00006609 2000 
0000660b 01            13140 	.byte	1

                                                                      Page 292
                                                              C:\Users\nhuliyap\AppData\Local\Temp\gh_000014o1.s
0000660c 8401          13141 	.byte	132,1
0000660e 4253575f5354  13142 	.strz	"BSW_START_SEC_VAR_CLEARED_UNSPECIFIED "
00006614 4152545f5345 
0000661a 435f5641525f 
00006620 434c45415245 
00006626 445f554e5350 
0000662c 454349464945 
00006632 442000 
00006635 03            13143 	.byte	3
00006636 8501          13144 	.byte	133,1
00006638 26            13145 	.byte	38
00006639 01            13146 	.byte	1
0000663a 42            13147 	.byte	66
0000663b 53544152545f  13148 	.strz	"START_SEC_VAR_CLEARED_UNSPECIFIED "
00006641 5345435f5641 
00006647 525f434c4541 
0000664d 5245445f554e 
00006653 535045434946 
00006659 4945442000 
0000665e 03            13149 	.byte	3
0000665f bb09          13150 	.byte	187,9
00006661 27            13151 	.byte	39
00006662 01            13152 	.byte	1
00006663 56            13153 	.byte	86
00006664 53544152545f  13154 	.strz	"START_SEC_VAR_ZERO_INIT_UNSPECIFIED "
0000666a 5345435f5641 
00006670 525f5a45524f 
00006676 5f494e49545f 
0000667c 554e53504543 
00006682 494649454420 
00006688 00 
00006689 01            13155 	.byte	1
0000668a 840a          13156 	.byte	132,10
0000668c 5641525f5345  13157 	.strz	"VAR_SEC_OPEN "
00006692 435f4f50454e 
00006698 2000 
0000669a 04            13158 	.byte	4
0000669b 04            13159 	.byte	4
0000669c 04            13160 	.byte	4
0000669d 01            13161 	.byte	1
0000669e d902          13162 	.byte	217,2
000066a0 43414e534d5f  13163 	.strz	"CANSM_STOP_SEC_VAR_CLEARED_UNSPECIFIED "
000066a6 53544f505f53 
000066ac 45435f564152 
000066b2 5f434c454152 
000066b8 45445f554e53 
000066be 504543494649 
000066c4 45442000 
000066c8 03            13164 	.byte	3
000066c9 da02          13165 	.byte	218,2
000066cb 2c            13166 	.byte	44
000066cc 01            13167 	.byte	1
000066cd 05            13168 	.byte	5
000066ce 4d454d4d4150  13169 	.strz	"MEMMAP_ERROR "
000066d4 5f4552524f52 
000066da 2000 
000066dc 01            13170 	.byte	1
000066dd 8901          13171 	.byte	137,1
000066df 4253575f5354  13172 	.strz	"BSW_STOP_SEC_VAR_CLEARED_UNSPECIFIED "
000066e5 4f505f534543 
000066eb 5f5641525f43 

                                                                      Page 293
                                                              C:\Users\nhuliyap\AppData\Local\Temp\gh_000014o1.s
000066f1 4c4541524544 
000066f7 5f554e535045 
000066fd 434946494544 
00006703 2000 
00006705 03            13173 	.byte	3
00006706 8a01          13174 	.byte	138,1
00006708 26            13175 	.byte	38
00006709 01            13176 	.byte	1
0000670a 46            13177 	.byte	70
0000670b 53544f505f53  13178 	.strz	"STOP_SEC_VAR "
00006711 45435f564152 
00006717 2000 
00006719 03            13179 	.byte	3
0000671a bb09          13180 	.byte	187,9
0000671c 27            13181 	.byte	39
0000671d 04            13182 	.byte	4
0000671e 04            13183 	.byte	4
0000671f 04            13184 	.byte	4
00006720 01            13185 	.byte	1
00006721 e502          13186 	.byte	229,2
00006723 43414e534d5f  13187 	.strz	"CANSM_START_SEC_VAR_CLEARED_BOOLEAN "
00006729 53544152545f 
0000672f 5345435f5641 
00006735 525f434c4541 
0000673b 5245445f424f 
00006741 4f4c45414e20 
00006747 00 
00006748 03            13188 	.byte	3
00006749 e602          13189 	.byte	230,2
0000674b 2c            13190 	.byte	44
0000674c 01            13191 	.byte	1
0000674d 05            13192 	.byte	5
0000674e 4d454d4d4150  13193 	.strz	"MEMMAP_ERROR "
00006754 5f4552524f52 
0000675a 2000 
0000675c 01            13194 	.byte	1
0000675d 54            13195 	.byte	84
0000675e 4253575f5354  13196 	.strz	"BSW_START_SEC_VAR_CLEARED_8 "
00006764 4152545f5345 
0000676a 435f5641525f 
00006770 434c45415245 
00006776 445f382000 
0000677b 03            13197 	.byte	3
0000677c 55            13198 	.byte	85
0000677d 26            13199 	.byte	38
0000677e 01            13200 	.byte	1
0000677f 2a            13201 	.byte	42
00006780 53544152545f  13202 	.strz	"START_SEC_VAR_CLEARED_8 "
00006786 5345435f5641 
0000678c 525f434c4541 
00006792 5245445f3820 
00006798 00 
00006799 03            13203 	.byte	3
0000679a bb09          13204 	.byte	187,9
0000679c 27            13205 	.byte	39
0000679d 01            13206 	.byte	1
0000679e 46            13207 	.byte	70
0000679f 53544152545f  13208 	.strz	"START_SEC_VAR_ZERO_INIT_8BIT "
000067a5 5345435f5641 
000067ab 525f5a45524f 
000067b1 5f494e49545f 

                                                                      Page 294
                                                              C:\Users\nhuliyap\AppData\Local\Temp\gh_000014o1.s
000067b7 384249542000 
000067bd 01            13209 	.byte	1
000067be e009          13210 	.byte	224,9
000067c0 5641525f5345  13211 	.strz	"VAR_SEC_OPEN "
000067c6 435f4f50454e 
000067cc 2000 
000067ce 04            13212 	.byte	4
000067cf 04            13213 	.byte	4
000067d0 04            13214 	.byte	4
000067d1 01            13215 	.byte	1
000067d2 e802          13216 	.byte	232,2
000067d4 43414e534d5f  13217 	.strz	"CANSM_STOP_SEC_VAR_CLEARED_BOOLEAN "
000067da 53544f505f53 
000067e0 45435f564152 
000067e6 5f434c454152 
000067ec 45445f424f4f 
000067f2 4c45414e2000 
000067f8 03            13218 	.byte	3
000067f9 e902          13219 	.byte	233,2
000067fb 2c            13220 	.byte	44
000067fc 01            13221 	.byte	1
000067fd 05            13222 	.byte	5
000067fe 4d454d4d4150  13223 	.strz	"MEMMAP_ERROR "
00006804 5f4552524f52 
0000680a 2000 
0000680c 01            13224 	.byte	1
0000680d 59            13225 	.byte	89
0000680e 4253575f5354  13226 	.strz	"BSW_STOP_SEC_VAR_CLEARED_8 "
00006814 4f505f534543 
0000681a 5f5641525f43 
00006820 4c4541524544 
00006826 5f382000 
0000682a 03            13227 	.byte	3
0000682b 5a            13228 	.byte	90
0000682c 26            13229 	.byte	38
0000682d 01            13230 	.byte	1
0000682e 2e            13231 	.byte	46
0000682f 53544f505f53  13232 	.strz	"STOP_SEC_VAR "
00006835 45435f564152 
0000683b 2000 
0000683d 03            13233 	.byte	3
0000683e bb09          13234 	.byte	187,9
00006840 27            13235 	.byte	39
00006841 04            13236 	.byte	4
00006842 04            13237 	.byte	4
00006843 04            13238 	.byte	4
00006844 01            13239 	.byte	1
00006845 eb02          13240 	.byte	235,2
00006847 43414e534d5f  13241 	.strz	"CANSM_START_SEC_VAR_CLEARED_BOOLEAN "
0000684d 53544152545f 
00006853 5345435f5641 
00006859 525f434c4541 
0000685f 5245445f424f 
00006865 4f4c45414e20 
0000686b 00 
0000686c 03            13242 	.byte	3
0000686d ec02          13243 	.byte	236,2
0000686f 2c            13244 	.byte	44
00006870 01            13245 	.byte	1
00006871 05            13246 	.byte	5
00006872 4d454d4d4150  13247 	.strz	"MEMMAP_ERROR "

                                                                      Page 295
                                                              C:\Users\nhuliyap\AppData\Local\Temp\gh_000014o1.s
00006878 5f4552524f52 
0000687e 2000 
00006880 01            13248 	.byte	1
00006881 54            13249 	.byte	84
00006882 4253575f5354  13250 	.strz	"BSW_START_SEC_VAR_CLEARED_8 "
00006888 4152545f5345 
0000688e 435f5641525f 
00006894 434c45415245 
0000689a 445f382000 
0000689f 03            13251 	.byte	3
000068a0 55            13252 	.byte	85
000068a1 26            13253 	.byte	38
000068a2 01            13254 	.byte	1
000068a3 2a            13255 	.byte	42
000068a4 53544152545f  13256 	.strz	"START_SEC_VAR_CLEARED_8 "
000068aa 5345435f5641 
000068b0 525f434c4541 
000068b6 5245445f3820 
000068bc 00 
000068bd 03            13257 	.byte	3
000068be bb09          13258 	.byte	187,9
000068c0 27            13259 	.byte	39
000068c1 01            13260 	.byte	1
000068c2 46            13261 	.byte	70
000068c3 53544152545f  13262 	.strz	"START_SEC_VAR_ZERO_INIT_8BIT "
000068c9 5345435f5641 
000068cf 525f5a45524f 
000068d5 5f494e49545f 
000068db 384249542000 
000068e1 01            13263 	.byte	1
000068e2 e009          13264 	.byte	224,9
000068e4 5641525f5345  13265 	.strz	"VAR_SEC_OPEN "
000068ea 435f4f50454e 
000068f0 2000 
000068f2 04            13266 	.byte	4
000068f3 04            13267 	.byte	4
000068f4 04            13268 	.byte	4
000068f5 01            13269 	.byte	1
000068f6 ee02          13270 	.byte	238,2
000068f8 43414e534d5f  13271 	.strz	"CANSM_STOP_SEC_VAR_CLEARED_BOOLEAN "
000068fe 53544f505f53 
00006904 45435f564152 
0000690a 5f434c454152 
00006910 45445f424f4f 
00006916 4c45414e2000 
0000691c 03            13272 	.byte	3
0000691d ef02          13273 	.byte	239,2
0000691f 2c            13274 	.byte	44
00006920 01            13275 	.byte	1
00006921 05            13276 	.byte	5
00006922 4d454d4d4150  13277 	.strz	"MEMMAP_ERROR "
00006928 5f4552524f52 
0000692e 2000 
00006930 01            13278 	.byte	1
00006931 59            13279 	.byte	89
00006932 4253575f5354  13280 	.strz	"BSW_STOP_SEC_VAR_CLEARED_8 "
00006938 4f505f534543 
0000693e 5f5641525f43 
00006944 4c4541524544 
0000694a 5f382000 
0000694e 03            13281 	.byte	3

                                                                      Page 296
                                                              C:\Users\nhuliyap\AppData\Local\Temp\gh_000014o1.s
0000694f 5a            13282 	.byte	90
00006950 26            13283 	.byte	38
00006951 01            13284 	.byte	1
00006952 2e            13285 	.byte	46
00006953 53544f505f53  13286 	.strz	"STOP_SEC_VAR "
00006959 45435f564152 
0000695f 2000 
00006961 03            13287 	.byte	3
00006962 bb09          13288 	.byte	187,9
00006964 27            13289 	.byte	39
00006965 04            13290 	.byte	4
00006966 04            13291 	.byte	4
00006967 04            13292 	.byte	4
00006968 01            13293 	.byte	1
00006969 f102          13294 	.byte	241,2
0000696b 43414e534d5f  13295 	.strz	"CANSM_START_SEC_CODE "
00006971 53544152545f 
00006977 5345435f434f 
0000697d 44452000 
00006981 03            13296 	.byte	3
00006982 f202          13297 	.byte	242,2
00006984 2c            13298 	.byte	44
00006985 01            13299 	.byte	1
00006986 05            13300 	.byte	5
00006987 4d454d4d4150  13301 	.strz	"MEMMAP_ERROR "
0000698d 5f4552524f52 
00006993 2000 
00006995 01            13302 	.byte	1
00006996 9a01          13303 	.byte	154,1
00006998 4253575f5354  13304 	.strz	"BSW_START_SEC_CODE "
0000699e 4152545f5345 
000069a4 435f434f4445 
000069aa 2000 
000069ac 03            13305 	.byte	3
000069ad 9b01          13306 	.byte	155,1
000069af 26            13307 	.byte	38
000069b0 01            13308 	.byte	1
000069b1 da08          13309 	.byte	218,8
000069b3 53544152545f  13310 	.strz	"START_SEC_CODE "
000069b9 5345435f434f 
000069bf 44452000 
000069c3 03            13311 	.byte	3
000069c4 bb09          13312 	.byte	187,9
000069c6 27            13313 	.byte	39
000069c7 01            13314 	.byte	1
000069c8 f307          13315 	.byte	243,7
000069ca 434f44455f53  13316 	.strz	"CODE_SEC_OPEN "
000069d0 45435f4f5045 
000069d6 4e2000 
000069d9 04            13317 	.byte	4
000069da 04            13318 	.byte	4
000069db 04            13319 	.byte	4
000069dc 01            13320 	.byte	1
000069dd a103          13321 	.byte	161,3
000069df 43414e534d5f  13322 	.strz	"CANSM_STOP_SEC_CODE "
000069e5 53544f505f53 
000069eb 45435f434f44 
000069f1 452000 
000069f4 03            13323 	.byte	3
000069f5 a203          13324 	.byte	162,3
000069f7 2c            13325 	.byte	44

                                                                      Page 297
                                                              C:\Users\nhuliyap\AppData\Local\Temp\gh_000014o1.s
000069f8 01            13326 	.byte	1
000069f9 05            13327 	.byte	5
000069fa 4d454d4d4150  13328 	.strz	"MEMMAP_ERROR "
00006a00 5f4552524f52 
00006a06 2000 
00006a08 01            13329 	.byte	1
00006a09 9f01          13330 	.byte	159,1
00006a0b 4253575f5354  13331 	.strz	"BSW_STOP_SEC_CODE "
00006a11 4f505f534543 
00006a17 5f434f444520 
00006a1d 00 
00006a1e 03            13332 	.byte	3
00006a1f a001          13333 	.byte	160,1
00006a21 26            13334 	.byte	38
00006a22 01            13335 	.byte	1
00006a23 de08          13336 	.byte	222,8
00006a25 53544f505f53  13337 	.strz	"STOP_SEC_CODE "
00006a2b 45435f434f44 
00006a31 452000 
00006a34 03            13338 	.byte	3
00006a35 bb09          13339 	.byte	187,9
00006a37 27            13340 	.byte	39
00006a38 04            13341 	.byte	4
00006a39 04            13342 	.byte	4
00006a3a 04            13343 	.byte	4
00006a3b 04            13344 	.byte	4
00006a3c 01            13345 	.byte	1
00006a3d 05            13346 	.byte	5
00006a3e 43414e534d5f  13347 	.strz	"CANSM_START_SEC_CODE "
00006a44 53544152545f 
00006a4a 5345435f434f 
00006a50 44452000 
00006a54 03            13348 	.byte	3
00006a55 06            13349 	.byte	6
00006a56 2c            13350 	.byte	44
00006a57 01            13351 	.byte	1
00006a58 05            13352 	.byte	5
00006a59 4d454d4d4150  13353 	.strz	"MEMMAP_ERROR "
00006a5f 5f4552524f52 
00006a65 2000 
00006a67 01            13354 	.byte	1
00006a68 9a01          13355 	.byte	154,1
00006a6a 4253575f5354  13356 	.strz	"BSW_START_SEC_CODE "
00006a70 4152545f5345 
00006a76 435f434f4445 
00006a7c 2000 
00006a7e 03            13357 	.byte	3
00006a7f 9b01          13358 	.byte	155,1
00006a81 26            13359 	.byte	38
00006a82 01            13360 	.byte	1
00006a83 da08          13361 	.byte	218,8
00006a85 53544152545f  13362 	.strz	"START_SEC_CODE "
00006a8b 5345435f434f 
00006a91 44452000 
00006a95 03            13363 	.byte	3
00006a96 bb09          13364 	.byte	187,9
00006a98 27            13365 	.byte	39
00006a99 01            13366 	.byte	1
00006a9a f307          13367 	.byte	243,7
00006a9c 434f44455f53  13368 	.strz	"CODE_SEC_OPEN "
00006aa2 45435f4f5045 

                                                                      Page 298
                                                              C:\Users\nhuliyap\AppData\Local\Temp\gh_000014o1.s
00006aa8 4e2000 
00006aab 04            13369 	.byte	4
00006aac 04            13370 	.byte	4
00006aad 04            13371 	.byte	4
00006aae 01            13372 	.byte	1
00006aaf f30a          13373 	.byte	243,10
00006ab1 43414e534d5f  13374 	.strz	"CANSM_STOP_SEC_CODE "
00006ab7 53544f505f53 
00006abd 45435f434f44 
00006ac3 452000 
00006ac6 03            13375 	.byte	3
00006ac7 f40a          13376 	.byte	244,10
00006ac9 2c            13377 	.byte	44
00006aca 01            13378 	.byte	1
00006acb 05            13379 	.byte	5
00006acc 4d454d4d4150  13380 	.strz	"MEMMAP_ERROR "
00006ad2 5f4552524f52 
00006ad8 2000 
00006ada 01            13381 	.byte	1
00006adb 9f01          13382 	.byte	159,1
00006add 4253575f5354  13383 	.strz	"BSW_STOP_SEC_CODE "
00006ae3 4f505f534543 
00006ae9 5f434f444520 
00006aef 00 
00006af0 03            13384 	.byte	3
00006af1 a001          13385 	.byte	160,1
00006af3 26            13386 	.byte	38
00006af4 01            13387 	.byte	1
00006af5 de08          13388 	.byte	222,8
00006af7 53544f505f53  13389 	.strz	"STOP_SEC_CODE "
00006afd 45435f434f44 
00006b03 452000 
00006b06 03            13390 	.byte	3
00006b07 bb09          13391 	.byte	187,9
00006b09 27            13392 	.byte	39
00006b0a 04            13393 	.byte	4
00006b0b 04            13394 	.byte	4
00006b0c 04            13395 	.byte	4
00006b0d 04            13396 	.byte	4
00006b0e 00            13397 	.byte	0
                       13398 	.section	.debug_abbrev
0000018d 00            13399 	.byte	0
                       13400 	.section	.debug_info
                       13401 .Ldw_end:
                       13402 .rh850_flags REGMODE32,DATA_ALIGN8,GP_FIX,EP_NONFIX,TP_FIX,REG2_RESERVE,G3K,GHS_MISALIGN,SDA_EXTRA_REGS_0
