                                                                      Page 1
                                                              C:\Users\nhuliyap\AppData\Local\Temp\gh_000075o1.s
Command Line: C:\ghs\comp_201517\ease850.exe -w -elf -b0 -I../source/common -I../source/ProjectCompiler -I../source/ProjectCfg -I../source/SwcApplTpms -I../source/SwcApplEcuM -I../source/SwcServiceBswM -I../source/SwcServiceEcuM -I../source/SwcServiceNvM -I../source/SwcServiceOs -I../source/SwcServiceStartUp -I../source/McalAdc -I../source/McalDio -I../source/McalGpt -I../source/McalMcu -I../source/McalWdg -I../source/wrappers -I../source/wrappers/McalAta -I../source/McalLin -I../source/McalCan -I../source/wrappers/OS -I../source/McalFls -I../source/EcuabFee -I../source/EcuabMemIf -I../source/wrappers/VStdLib -I../source/wrappers/Crc -I../source/wrappers/FBL_APPL -I../source/wrappers/NVM_MANAGER -I../source/wrappers/DEM_MANAGER -I../source/wrappers/RDC_MANAGER -I../source/wrappers/ENV_MANAGER -I../source/wrappers/SYS_MANAGER -I../source/wrappers/EcuabCanIf -I../source/EcuabCanTrcv -I../source/wrappers/SwcServiceCanSM -I../source/wrappers/SwcServiceCanTp -I../source/wrappers/SwcServiceCanTp_PreCompile -I../source/wrappers/SwcServiceCom -I../source/wrappers/SwcServiceComM -I../source/wrappers/SwcServiceDcm -I../source/wrappers/SwcServicePduR -I../source/wrappers/SwcServiceEcuM -I../source/wrappers/Bfx -I../source/wrappers/SwcServiceDem -I../source/SwcServiceCom -I../source/SwcServiceDet -I../source/SwcServiceFiM -I../source/SwcServicePduR -I../source/SwcServiceSchM -I../source/wrappers/LibAutosarDiag -I../source/wrappers/rba_BswSrv -IC:\ghs\comp_201517\lib\rh850 -cg_underscore -cpu=rh850g3k -no_v850_simd -rh850_fpsimd=none -nomacro -patch_dbo=C:\_ECU2\ECU_Rivian_A1\Target\repo_projects\pRealEcu\cR_LATEST\make\output\objects\DcmDspUds_Seca.dbo -source=DcmDspUds_Seca.c -o output\objects\gh_000075o1.o -list=output\list\DcmDspUds_Seca.lst C:\Users\nhuliyap\AppData\Local\Temp\gh_000075o1.s 
Original File: C:\Users\nhuliyap\AppData\Local\Temp\gh_000075o1.s
Source File: DcmDspUds_Seca.c
Directory: C:\_ECU2\ECU_Rivian_A1\Target\repo_projects\pRealEcu\cR_LATEST\make
Host OS: Windows
EASE: Copyright (C) 1983-2015 Green Hills Software.  All Rights Reserved.
Release: Compiler v2015.1.7
Build Directory: [Directory] BTOWORKER6:c:/build_2015_1_bto/2015-10-21.2100-2015_1_bto/win32-comp-ecom
Revision: [VCInfo] http://toolsvc/branches/release-branch-70-bto/src@544153 (built by build)
Revision Date: Thu Oct 22 07:50:13 2015

Release Date: Thu Oct 22 09:32:32 2015

                           1 --Driver Command: ccv850 ../source/wrappers/SwcServiceDcm/DcmDspUds_Seca.c
                           2 --		-cpu=rh850 -fhard -ignore_callt_state_in_interrupts -large_sda
                           3 --		-misalign_pack -nofarcalls -nofloatio -no_callt -Ogeneral
                           4 --		-Onounroll -prepare_dispose -registermode=32 -reserve_r2 -sda=0
                           5 --		-shorten_loads -Wshadow --brief_diagnostics --no_commons
                           6 --		--no_wrap_diagnostics --prototype_errors --short_enum -list -G
                           7 --		-dual_debug -dwarf -X5523 -lnk=-no_xda_modifications -D
                           8 --		NOT_READY_FOR_TESTING_OR_DEPLOYMENT -D IBTCM_SW_ANPASSUNGEN -D
                           9 --		BUILD_RIVIAN -c -inline_prologue -I../source/common
                          10 --		-I../source/ProjectCompiler -I../source/ProjectCfg
                          11 --		-I../source/SwcApplTpms -I../source/SwcApplEcuM
                          12 --		-I../source/SwcServiceBswM -I../source/SwcServiceEcuM
                          13 --		-I../source/SwcServiceNvM -I../source/SwcServiceOs
                          14 --		-I../source/SwcServiceStartUp -I../source/McalAdc
                          15 --		-I../source/McalDio -I../source/McalGpt -I../source/McalMcu
                          16 --		-I../source/McalWdg -I../source/wrappers
                          17 --		-I../source/wrappers/McalAta -I../source/McalLin
                          18 --		-I../source/McalCan -I../source/wrappers/OS -I../source/McalFls
                          19 --		-I../source/EcuabFee -I../source/EcuabMemIf
                          20 --		-I../source/wrappers/VStdLib -I../source/wrappers
                          21 --		-I../source/wrappers/Crc -I../source/wrappers/FBL_APPL
                          22 --		-I../source/wrappers/NVM_MANAGER -I../source/wrappers/DEM_MANAGER
                          23 --		-I../source/wrappers/RDC_MANAGER -I../source/wrappers/ENV_MANAGER
                          24 --		-I../source/wrappers/SYS_MANAGER -I../source/wrappers/EcuabCanIf
                          25 --		-I../source/EcuabCanTrcv -I../source/wrappers/SwcServiceCanSM
                          26 --		-I../source/wrappers/SwcServiceCanTp
                          27 --		-I../source/wrappers/SwcServiceCanTp_PreCompile
                          28 --		-I../source/wrappers/SwcServiceCom
                          29 --		-I../source/wrappers/SwcServiceComM
                          30 --		-I../source/wrappers/SwcServiceDcm
                          31 --		-I../source/wrappers/SwcServicePduR
                          32 --		-I../source/wrappers/SwcServiceEcuM -I../source/wrappers/Bfx
                          33 --		-I../source/wrappers/SwcServiceDem -I../source/SwcServiceCom
                          34 --		-I../source/SwcServiceDet -I../source/SwcServiceFiM
                          35 --		-I../source/SwcServicePduR -I../source/SwcServiceSchM
                          36 --		-I../source/wrappers/LibAutosarDiag
                          37 --		-I../source/wrappers/rba_BswSrv -object_dir=output/objects
                          38 --		-list_dir=output/list
                          39 --Source File:   ../source/wrappers/SwcServiceDcm/DcmDspUds_Seca.c
                          40 --Directory:     
                          41 --		C:\_ECU2\ECU_Rivian_A1\Target\repo_projects\pRealEcu\cR_LATEST\make
                          42 --Compile Date:  Fri Sep 15 14:05:32 2023
                          43 --Host OS:       Win32
                          44 --Version:       C-RH850 2015.1.7 RELEASE VERSION
                          45 --Release:       Compiler v2015.1.7
                          46 --Revision Date: Thu Oct 22 08:06:12 2015
                          47 --Release Date:  Thu Oct 22 09:34:32 2015
                          48 -- ecom  -g -w -OM
                          49 	.text
                          50 ..bof.C.3A.5C_ECU2.5CECU_Rivian_A1.5CTarget.5Crepo_projects.5CpRealEcu.5CcR_LATEST.5Cmake.5Coutput.5Cobjects.5CDcmDspUds_Seca...43.3A.5C_ECU2.5CECU_Rivian_A1.5CTarget.5Crepo_projects.5CpRealEcu.5CcR_LATEST.5Cmake..6504488D..0::

                                                                      Page 2
                                                              C:\Users\nhuliyap\AppData\Local\Temp\gh_000075o1.s
                          51 	.align	2
                          52 ..gh.f.f.1.e.0:
                          53 	.type	..gh.f.f.1.e.0,@object
                          54 	.size	..gh.f.f.1.e.0,0
                          55 	.global	_Dcm_Lok_NewSecurityLevelToUnlock..C.3A.5C_ECU2.5CECU_Rivian_A1.5CTarget.5Crepo_projects.5CpRealEcu.5CcR_LATEST.5Cmake.5Coutput.5Cobjects.5CDcmDspUds_Seca.
                          56 _Dcm_Lok_NewSecurityLevelToUnlock..C.3A.5C_ECU2.5CECU_Rivian_A1.5CTarget.5Crepo_projects.5CpRealEcu.5CcR_LATEST.5Cmake.5Coutput.5Cobjects.5CDcmDspUds_Seca.:
                          57 _Dcm_Lok_NewSecurityLevelToUnlock:
00000000 8007e100         58 	prepare	{r28,r29,r31},0
00000004 06e0             59 	mov	r6,r28
00000006 07f0             60 	mov	r7,ep
00000008 3d0600000000*    61 	mov	.L43,r29
                          62 --	    .bf
                          63 .LDW01:
                          64 --line109
                          65 ..lin.C.3A.5C_ECU2.5CECU_Rivian_A1.5CTarget.5Crepo_projects.5CpRealEcu.5CcR_LATEST.5Cmake.5Coutput.5Cobjects.5CDcmDspUds_Seca.1::
                          66 .LDWlin1:
0000000e 3d470500         67 	ld.w	4[r29],r8
00000012 28472100         68 	ld.w	32[r8],r8
00000016 e041             69 	cmp	zero,r8
00000018 820d*            70 	be	.L4
                          71 --line112
                          72 ..lin.C.3A.5C_ECU2.5CECU_Rivian_A1.5CTarget.5Crepo_projects.5CpRealEcu.5CcR_LATEST.5Cmake.5Coutput.5Cobjects.5CDcmDspUds_Seca.2::
                          73 .LDWlin2:
0000001a 023d             74 	sld.w	4[ep],r7
0000001c 260600000000*    75 	mov	_Dcm_InParameterBuf_au8,r6
00000022 413a             76 	add	1,r7
                          77 	jarl	_LibAutosar_vptrMemCopy,lp
                          77 <EXPANSION BEGIN>
                          77 jarl22 _LibAutosar_vptrMemCopy , lp 
00000024 80ff0000*        77 <EXPANSION END>
                          78 .L4:
                          79 --line118
                          80 ..lin.C.3A.5C_ECU2.5CECU_Rivian_A1.5CTarget.5Crepo_projects.5CpRealEcu.5CcR_LATEST.5Cmake.5Coutput.5Cobjects.5CDcmDspUds_Seca.3::
                          81 .LDWlin3:
00000028 049a             82 	mov	4,r19
0000002a 5c9f0000         83 	st.b	r19,0[r28]
0000002e 5d071800         84 	st.b	zero,24[r29]
                          85 --	    .ef
                          86 .LDW11:
00000032 4006ff00         87 	dispose	0,{r28,r29,r31},[lp]
                          88 ___ghs_eofn_Dcm_Lok_NewSecurityLevelToUnlock:
                          89 	.type	_Dcm_Lok_NewSecurityLevelToUnlock,@function
                          90 	.size	_Dcm_Lok_NewSecurityLevelToUnlock,.-_Dcm_Lok_NewSecurityLevelToUnlock
                          91 	.type	_Dcm_Lok_NewSecurityLevelToUnlock..C.3A.5C_ECU2.5CECU_Rivian_A1.5CTarget.5Crepo_projects.5CpRealEcu.5CcR_LATEST.5Cmake.5Coutput.5Cobjects.5CDcmDspUds_Seca.,@function
                          92 	.size	_Dcm_Lok_NewSecurityLevelToUnlock..C.3A.5C_ECU2.5CECU_Rivian_A1.5CTarget.5Crepo_projects.5CpRealEcu.5CcR_LATEST.5Cmake.5Coutput.5Cobjects.5CDcmDspUds_Seca.,.-_Dcm_Lok_NewSecurityLevelToUnlock..C.3A.5C_ECU2.5CECU_Rivian_A1.5CTarget.5Crepo_projects.5CpRealEcu.5CcR_LATEST.5Cmake.5Coutput.5Cobjects.5CDcmDspUds_Seca.
                          93 	.align	2
                          94 
                          95 --_OpStatus	r28	param
                          96 --_pMsgContext	ep	param
                          97 
                          98 	.section ".bss","awb"
                          99 	.align	4
                         100 .L43:
                         101 	.type	.L43,@object
                         102 	.size	.L43,0
                         103 	.global	_Dcm_Lok_idxSecTab_qu8..C.3A.5C_ECU2.5CECU_Rivian_A1.5CTarget.5Crepo_projects.5CpRealEcu.5CcR_LATEST.5Cmake.5Coutput.5Cobjects.5CDcmDspUds_Seca.
                         104 _Dcm_Lok_idxSecTab_qu8..C.3A.5C_ECU2.5CECU_Rivian_A1.5CTarget.5Crepo_projects.5CpRealEcu.5CcR_LATEST.5Cmake.5Coutput.5Cobjects.5CDcmDspUds_Seca.:
00000000 00000000        105 _Dcm_Lok_idxSecTab_qu8:	.space	4
                         106 	.type	_Dcm_Lok_idxSecTab_qu8..C.3A.5C_ECU2.5CECU_Rivian_A1.5CTarget.5Crepo_projects.5CpRealEcu.5CcR_LATEST.5Cmake.5Coutput.5Cobjects.5CDcmDspUds_Seca.,@object
                         107 	.size	_Dcm_Lok_idxSecTab_qu8..C.3A.5C_ECU2.5CECU_Rivian_A1.5CTarget.5Crepo_projects.5CpRealEcu.5CcR_LATEST.5Cmake.5Coutput.5Cobjects.5CDcmDspUds_Seca.,4
                         108 	.type	_Dcm_Lok_idxSecTab_qu8,@object

                                                                      Page 3
                                                              C:\Users\nhuliyap\AppData\Local\Temp\gh_000075o1.s
                         109 	.size	_Dcm_Lok_idxSecTab_qu8,4
                         110 	.global	_Dcm_Lok_ptrSecurityConfig_p..C.3A.5C_ECU2.5CECU_Rivian_A1.5CTarget.5Crepo_projects.5CpRealEcu.5CcR_LATEST.5Cmake.5Coutput.5Cobjects.5CDcmDspUds_Seca.
                         111 _Dcm_Lok_ptrSecurityConfig_p..C.3A.5C_ECU2.5CECU_Rivian_A1.5CTarget.5Crepo_projects.5CpRealEcu.5CcR_LATEST.5Cmake.5Coutput.5Cobjects.5CDcmDspUds_Seca.:
00000004 00000000        112 _Dcm_Lok_ptrSecurityConfig_p:	.space	4
                         113 	.type	_Dcm_Lok_ptrSecurityConfig_p..C.3A.5C_ECU2.5CECU_Rivian_A1.5CTarget.5Crepo_projects.5CpRealEcu.5CcR_LATEST.5Cmake.5Coutput.5Cobjects.5CDcmDspUds_Seca.,@object
                         114 	.size	_Dcm_Lok_ptrSecurityConfig_p..C.3A.5C_ECU2.5CECU_Rivian_A1.5CTarget.5Crepo_projects.5CpRealEcu.5CcR_LATEST.5Cmake.5Coutput.5Cobjects.5CDcmDspUds_Seca.,4
                         115 	.type	_Dcm_Lok_ptrSecurityConfig_p,@object
                         116 	.size	_Dcm_Lok_ptrSecurityConfig_p,4
                         117 	.global	_Dcm_Lok_ptrSecaFnc_p..C.3A.5C_ECU2.5CECU_Rivian_A1.5CTarget.5Crepo_projects.5CpRealEcu.5CcR_LATEST.5Cmake.5Coutput.5Cobjects.5CDcmDspUds_Seca.
                         118 _Dcm_Lok_ptrSecaFnc_p..C.3A.5C_ECU2.5CECU_Rivian_A1.5CTarget.5Crepo_projects.5CpRealEcu.5CcR_LATEST.5Cmake.5Coutput.5Cobjects.5CDcmDspUds_Seca.:
00000008 00000000        119 _Dcm_Lok_ptrSecaFnc_p:	.space	4
                         120 	.type	_Dcm_Lok_ptrSecaFnc_p..C.3A.5C_ECU2.5CECU_Rivian_A1.5CTarget.5Crepo_projects.5CpRealEcu.5CcR_LATEST.5Cmake.5Coutput.5Cobjects.5CDcmDspUds_Seca.,@object
                         121 	.size	_Dcm_Lok_ptrSecaFnc_p..C.3A.5C_ECU2.5CECU_Rivian_A1.5CTarget.5Crepo_projects.5CpRealEcu.5CcR_LATEST.5Cmake.5Coutput.5Cobjects.5CDcmDspUds_Seca.,4
                         122 	.type	_Dcm_Lok_ptrSecaFnc_p,@object
                         123 	.size	_Dcm_Lok_ptrSecaFnc_p,4
                         124 	.global	_Dcm_Lok_nrSeedLen_u32..C.3A.5C_ECU2.5CECU_Rivian_A1.5CTarget.5Crepo_projects.5CpRealEcu.5CcR_LATEST.5Cmake.5Coutput.5Cobjects.5CDcmDspUds_Seca.
                         125 _Dcm_Lok_nrSeedLen_u32..C.3A.5C_ECU2.5CECU_Rivian_A1.5CTarget.5Crepo_projects.5CpRealEcu.5CcR_LATEST.5Cmake.5Coutput.5Cobjects.5CDcmDspUds_Seca.:
0000000c 00000000        126 _Dcm_Lok_nrSeedLen_u32:	.space	4
                         127 	.type	_Dcm_Lok_nrSeedLen_u32..C.3A.5C_ECU2.5CECU_Rivian_A1.5CTarget.5Crepo_projects.5CpRealEcu.5CcR_LATEST.5Cmake.5Coutput.5Cobjects.5CDcmDspUds_Seca.,@object
                         128 	.size	_Dcm_Lok_nrSeedLen_u32..C.3A.5C_ECU2.5CECU_Rivian_A1.5CTarget.5Crepo_projects.5CpRealEcu.5CcR_LATEST.5Cmake.5Coutput.5Cobjects.5CDcmDspUds_Seca.,4
                         129 	.type	_Dcm_Lok_nrSeedLen_u32,@object
                         130 	.size	_Dcm_Lok_nrSeedLen_u32,4
                         131 	.global	_Dcm_Lok_nrDelay_u32..C.3A.5C_ECU2.5CECU_Rivian_A1.5CTarget.5Crepo_projects.5CpRealEcu.5CcR_LATEST.5Cmake.5Coutput.5Cobjects.5CDcmDspUds_Seca.
                         132 _Dcm_Lok_nrDelay_u32..C.3A.5C_ECU2.5CECU_Rivian_A1.5CTarget.5Crepo_projects.5CpRealEcu.5CcR_LATEST.5Cmake.5Coutput.5Cobjects.5CDcmDspUds_Seca.:
00000010 00000000        133 _Dcm_Lok_nrDelay_u32:	.space	4
                         134 	.type	_Dcm_Lok_nrDelay_u32..C.3A.5C_ECU2.5CECU_Rivian_A1.5CTarget.5Crepo_projects.5CpRealEcu.5CcR_LATEST.5Cmake.5Coutput.5Cobjects.5CDcmDspUds_Seca.,@object
                         135 	.size	_Dcm_Lok_nrDelay_u32..C.3A.5C_ECU2.5CECU_Rivian_A1.5CTarget.5Crepo_projects.5CpRealEcu.5CcR_LATEST.5Cmake.5Coutput.5Cobjects.5CDcmDspUds_Seca.,4
                         136 	.type	_Dcm_Lok_nrDelay_u32,@object
                         137 	.size	_Dcm_Lok_nrDelay_u32,4
                         138 	.global	_Dcm_Lok_stCmpKey_u8..C.3A.5C_ECU2.5CECU_Rivian_A1.5CTarget.5Crepo_projects.5CpRealEcu.5CcR_LATEST.5Cmake.5Coutput.5Cobjects.5CDcmDspUds_Seca.
                         139 _Dcm_Lok_stCmpKey_u8..C.3A.5C_ECU2.5CECU_Rivian_A1.5CTarget.5Crepo_projects.5CpRealEcu.5CcR_LATEST.5Cmake.5Coutput.5Cobjects.5CDcmDspUds_Seca.:
00000014 00              140 _Dcm_Lok_stCmpKey_u8:	.space	1
                         141 	.type	_Dcm_Lok_stCmpKey_u8..C.3A.5C_ECU2.5CECU_Rivian_A1.5CTarget.5Crepo_projects.5CpRealEcu.5CcR_LATEST.5Cmake.5Coutput.5Cobjects.5CDcmDspUds_Seca.,@object
                         142 	.size	_Dcm_Lok_stCmpKey_u8..C.3A.5C_ECU2.5CECU_Rivian_A1.5CTarget.5Crepo_projects.5CpRealEcu.5CcR_LATEST.5Cmake.5Coutput.5Cobjects.5CDcmDspUds_Seca.,1
                         143 	.type	_Dcm_Lok_stCmpKey_u8,@object
                         144 	.size	_Dcm_Lok_stCmpKey_u8,1
                         145 	.global	_Dcm_Lok_dataSecLevel_u8..C.3A.5C_ECU2.5CECU_Rivian_A1.5CTarget.5Crepo_projects.5CpRealEcu.5CcR_LATEST.5Cmake.5Coutput.5Cobjects.5CDcmDspUds_Seca.
                         146 _Dcm_Lok_dataSecLevel_u8..C.3A.5C_ECU2.5CECU_Rivian_A1.5CTarget.5Crepo_projects.5CpRealEcu.5CcR_LATEST.5Cmake.5Coutput.5Cobjects.5CDcmDspUds_Seca.:
00000015 00              147 _Dcm_Lok_dataSecLevel_u8:	.space	1
                         148 	.type	_Dcm_Lok_dataSecLevel_u8..C.3A.5C_ECU2.5CECU_Rivian_A1.5CTarget.5Crepo_projects.5CpRealEcu.5CcR_LATEST.5Cmake.5Coutput.5Cobjects.5CDcmDspUds_Seca.,@object
                         149 	.size	_Dcm_Lok_dataSecLevel_u8..C.3A.5C_ECU2.5CECU_Rivian_A1.5CTarget.5Crepo_projects.5CpRealEcu.5CcR_LATEST.5Cmake.5Coutput.5Cobjects.5CDcmDspUds_Seca.,1
                         150 	.type	_Dcm_Lok_dataSecLevel_u8,@object
                         151 	.size	_Dcm_Lok_dataSecLevel_u8,1
                         152 	.global	_Dcm_Lok_dataSecAccType_u8..C.3A.5C_ECU2.5CECU_Rivian_A1.5CTarget.5Crepo_projects.5CpRealEcu.5CcR_LATEST.5Cmake.5Coutput.5Cobjects.5CDcmDspUds_Seca.
                         153 _Dcm_Lok_dataSecAccType_u8..C.3A.5C_ECU2.5CECU_Rivian_A1.5CTarget.5Crepo_projects.5CpRealEcu.5CcR_LATEST.5Cmake.5Coutput.5Cobjects.5CDcmDspUds_Seca.:
00000016 00              154 _Dcm_Lok_dataSecAccType_u8:	.space	1
                         155 	.type	_Dcm_Lok_dataSecAccType_u8..C.3A.5C_ECU2.5CECU_Rivian_A1.5CTarget.5Crepo_projects.5CpRealEcu.5CcR_LATEST.5Cmake.5Coutput.5Cobjects.5CDcmDspUds_Seca.,@object
                         156 	.size	_Dcm_Lok_dataSecAccType_u8..C.3A.5C_ECU2.5CECU_Rivian_A1.5CTarget.5Crepo_projects.5CpRealEcu.5CcR_LATEST.5Cmake.5Coutput.5Cobjects.5CDcmDspUds_Seca.,1
                         157 	.type	_Dcm_Lok_dataSecAccType_u8,@object
                         158 	.size	_Dcm_Lok_dataSecAccType_u8,1
                         159 	.global	_Dcm_Lok_dataSubFunc_u8..C.3A.5C_ECU2.5CECU_Rivian_A1.5CTarget.5Crepo_projects.5CpRealEcu.5CcR_LATEST.5Cmake.5Coutput.5Cobjects.5CDcmDspUds_Seca.
                         160 _Dcm_Lok_dataSubFunc_u8..C.3A.5C_ECU2.5CECU_Rivian_A1.5CTarget.5Crepo_projects.5CpRealEcu.5CcR_LATEST.5Cmake.5Coutput.5Cobjects.5CDcmDspUds_Seca.:
00000017 00              161 _Dcm_Lok_dataSubFunc_u8:	.space	1
                         162 	.type	_Dcm_Lok_dataSubFunc_u8..C.3A.5C_ECU2.5CECU_Rivian_A1.5CTarget.5Crepo_projects.5CpRealEcu.5CcR_LATEST.5Cmake.5Coutput.5Cobjects.5CDcmDspUds_Seca.,@object
                         163 	.size	_Dcm_Lok_dataSubFunc_u8..C.3A.5C_ECU2.5CECU_Rivian_A1.5CTarget.5Crepo_projects.5CpRealEcu.5CcR_LATEST.5Cmake.5Coutput.5Cobjects.5CDcmDspUds_Seca.,1
                         164 	.type	_Dcm_Lok_dataSubFunc_u8,@object
                         165 	.size	_Dcm_Lok_dataSubFunc_u8,1
                         166 	.global	_Dcm_Lok_substSeca_en..C.3A.5C_ECU2.5CECU_Rivian_A1.5CTarget.5Crepo_projects.5CpRealEcu.5CcR_LATEST.5Cmake.5Coutput.5Cobjects.5CDcmDspUds_Seca.
                         167 _Dcm_Lok_substSeca_en..C.3A.5C_ECU2.5CECU_Rivian_A1.5CTarget.5Crepo_projects.5CpRealEcu.5CcR_LATEST.5Cmake.5Coutput.5Cobjects.5CDcmDspUds_Seca.:
00000018 00              168 _Dcm_Lok_substSeca_en:	.space	1
                         169 	.type	_Dcm_Lok_substSeca_en..C.3A.5C_ECU2.5CECU_Rivian_A1.5CTarget.5Crepo_projects.5CpRealEcu.5CcR_LATEST.5Cmake.5Coutput.5Cobjects.5CDcmDspUds_Seca.,@object

                                                                      Page 4
                                                              C:\Users\nhuliyap\AppData\Local\Temp\gh_000075o1.s
                         170 	.size	_Dcm_Lok_substSeca_en..C.3A.5C_ECU2.5CECU_Rivian_A1.5CTarget.5Crepo_projects.5CpRealEcu.5CcR_LATEST.5Cmake.5Coutput.5Cobjects.5CDcmDspUds_Seca.,1
                         171 	.type	_Dcm_Lok_substSeca_en,@object
                         172 	.size	_Dcm_Lok_substSeca_en,1
                         173 	.global	_Dcm_Lok_dataRetGetSeed_u8..C.3A.5C_ECU2.5CECU_Rivian_A1.5CTarget.5Crepo_projects.5CpRealEcu.5CcR_LATEST.5Cmake.5Coutput.5Cobjects.5CDcmDspUds_Seca.
                         174 _Dcm_Lok_dataRetGetSeed_u8..C.3A.5C_ECU2.5CECU_Rivian_A1.5CTarget.5Crepo_projects.5CpRealEcu.5CcR_LATEST.5Cmake.5Coutput.5Cobjects.5CDcmDspUds_Seca.:
00000019 00              175 _Dcm_Lok_dataRetGetSeed_u8:	.space	1
                         176 	.type	_Dcm_Lok_dataRetGetSeed_u8..C.3A.5C_ECU2.5CECU_Rivian_A1.5CTarget.5Crepo_projects.5CpRealEcu.5CcR_LATEST.5Cmake.5Coutput.5Cobjects.5CDcmDspUds_Seca.,@object
                         177 	.size	_Dcm_Lok_dataRetGetSeed_u8..C.3A.5C_ECU2.5CECU_Rivian_A1.5CTarget.5Crepo_projects.5CpRealEcu.5CcR_LATEST.5Cmake.5Coutput.5Cobjects.5CDcmDspUds_Seca.,1
                         178 	.type	_Dcm_Lok_dataRetGetSeed_u8,@object
                         179 	.size	_Dcm_Lok_dataRetGetSeed_u8,1
                         180 	.global	_Dcm_Lok_dataRetValue_u8..C.3A.5C_ECU2.5CECU_Rivian_A1.5CTarget.5Crepo_projects.5CpRealEcu.5CcR_LATEST.5Cmake.5Coutput.5Cobjects.5CDcmDspUds_Seca.
                         181 _Dcm_Lok_dataRetValue_u8..C.3A.5C_ECU2.5CECU_Rivian_A1.5CTarget.5Crepo_projects.5CpRealEcu.5CcR_LATEST.5Cmake.5Coutput.5Cobjects.5CDcmDspUds_Seca.:
0000001a 00              182 _Dcm_Lok_dataRetValue_u8:	.space	1
                         183 	.type	_Dcm_Lok_dataRetValue_u8..C.3A.5C_ECU2.5CECU_Rivian_A1.5CTarget.5Crepo_projects.5CpRealEcu.5CcR_LATEST.5Cmake.5Coutput.5Cobjects.5CDcmDspUds_Seca.,@object
                         184 	.size	_Dcm_Lok_dataRetValue_u8..C.3A.5C_ECU2.5CECU_Rivian_A1.5CTarget.5Crepo_projects.5CpRealEcu.5CcR_LATEST.5Cmake.5Coutput.5Cobjects.5CDcmDspUds_Seca.,1
                         185 	.type	_Dcm_Lok_dataRetValue_u8,@object
                         186 	.size	_Dcm_Lok_dataRetValue_u8,1
                         187 	.global	_Dcm_Lok_secaServRetValue_u8..C.3A.5C_ECU2.5CECU_Rivian_A1.5CTarget.5Crepo_projects.5CpRealEcu.5CcR_LATEST.5Cmake.5Coutput.5Cobjects.5CDcmDspUds_Seca.
                         188 _Dcm_Lok_secaServRetValue_u8..C.3A.5C_ECU2.5CECU_Rivian_A1.5CTarget.5Crepo_projects.5CpRealEcu.5CcR_LATEST.5Cmake.5Coutput.5Cobjects.5CDcmDspUds_Seca.:
0000001b 00              189 _Dcm_Lok_secaServRetValue_u8:	.space	1
                         190 	.type	_Dcm_Lok_secaServRetValue_u8..C.3A.5C_ECU2.5CECU_Rivian_A1.5CTarget.5Crepo_projects.5CpRealEcu.5CcR_LATEST.5Cmake.5Coutput.5Cobjects.5CDcmDspUds_Seca.,@object
                         191 	.size	_Dcm_Lok_secaServRetValue_u8..C.3A.5C_ECU2.5CECU_Rivian_A1.5CTarget.5Crepo_projects.5CpRealEcu.5CcR_LATEST.5Cmake.5Coutput.5Cobjects.5CDcmDspUds_Seca.,1
                         192 	.type	_Dcm_Lok_secaServRetValue_u8,@object
                         193 	.size	_Dcm_Lok_secaServRetValue_u8,1
                         194 	.global	_Dcm_Lok_flgApplFuncCall_b..C.3A.5C_ECU2.5CECU_Rivian_A1.5CTarget.5Crepo_projects.5CpRealEcu.5CcR_LATEST.5Cmake.5Coutput.5Cobjects.5CDcmDspUds_Seca.
                         195 _Dcm_Lok_flgApplFuncCall_b..C.3A.5C_ECU2.5CECU_Rivian_A1.5CTarget.5Crepo_projects.5CpRealEcu.5CcR_LATEST.5Cmake.5Coutput.5Cobjects.5CDcmDspUds_Seca.:
0000001c 00              196 _Dcm_Lok_flgApplFuncCall_b:	.space	1
                         197 	.type	_Dcm_Lok_flgApplFuncCall_b..C.3A.5C_ECU2.5CECU_Rivian_A1.5CTarget.5Crepo_projects.5CpRealEcu.5CcR_LATEST.5Cmake.5Coutput.5Cobjects.5CDcmDspUds_Seca.,@object
                         198 	.size	_Dcm_Lok_flgApplFuncCall_b..C.3A.5C_ECU2.5CECU_Rivian_A1.5CTarget.5Crepo_projects.5CpRealEcu.5CcR_LATEST.5Cmake.5Coutput.5Cobjects.5CDcmDspUds_Seca.,1
                         199 	.type	_Dcm_Lok_flgApplFuncCall_b,@object
                         200 	.size	_Dcm_Lok_flgApplFuncCall_b,1
                         201 	.data
                         202 	.text
                         203 	.align	2
                         204 	.align	2
                         205 ..gh.f.f.1.e.1:
                         206 	.type	..gh.f.f.1.e.1,@object
                         207 	.size	..gh.f.f.1.e.1,0
                         208 	.global	_Dcm_Lok_ReqSecIsCurrentSecurityLevel..C.3A.5C_ECU2.5CECU_Rivian_A1.5CTarget.5Crepo_projects.5CpRealEcu.5CcR_LATEST.5Cmake.5Coutput.5Cobjects.5CDcmDspUds_Seca.
                         209 _Dcm_Lok_ReqSecIsCurrentSecurityLevel..C.3A.5C_ECU2.5CECU_Rivian_A1.5CTarget.5Crepo_projects.5CpRealEcu.5CcR_LATEST.5Cmake.5Coutput.5Cobjects.5CDcmDspUds_Seca.:
                         210 _Dcm_Lok_ReqSecIsCurrentSecurityLevel:
00000036 07f0            211 	mov	r7,ep
00000038 320600000000*   212 	mov	_Dcm_Lok_ptrSecurityConfig_p,r18
                         213 --	    .bf
                         214 .LDW21:
                         215 --line133
                         216 ..lin.C.3A.5C_ECU2.5CECU_Rivian_A1.5CTarget.5Crepo_projects.5CpRealEcu.5CcR_LATEST.5Cmake.5Coutput.5Cobjects.5CDcmDspUds_Seca.4::
                         217 .LDWlin4:
0000003e 009d            218 	sld.w	0[ep],r19
00000040 928f1300        219 	ld.bu	18[r18],r17
00000044 538f0000        220 	st.b	r17,0[r19]
00000048 018a            221 	mov	1,r17
0000004a e505*           222 	br	.L84
                         223 .L83:
                         224 --line137
                         225 ..lin.C.3A.5C_ECU2.5CECU_Rivian_A1.5CTarget.5Crepo_projects.5CpRealEcu.5CcR_LATEST.5Cmake.5Coutput.5Cobjects.5CDcmDspUds_Seca.5::
                         226 .LDWlin5:
0000004c 0085            227 	sld.w	0[ep],r16
0000004e d181            228 	add	r17,r16
00000050 50070000        229 	st.b	zero,0[r16]
00000054 418a            230 	add	1,r17

                                                                      Page 5
                                                              C:\Users\nhuliyap\AppData\Local\Temp\gh_000075o1.s
                         231 .L84:
00000056 327f0100        232 	ld.w	0[r18],r15
0000005a 2f7f1500        233 	ld.w	20[r15],r15
0000005e ef89            234 	cmp	r15,r17
00000060 e3f5*           235 	bnh	.L83
                         236 --line140
                         237 ..lin.C.3A.5C_ECU2.5CECU_Rivian_A1.5CTarget.5Crepo_projects.5CpRealEcu.5CcR_LATEST.5Cmake.5Coutput.5Cobjects.5CDcmDspUds_Seca.6::
                         238 .LDWlin6:
00000062 9100            239 	zxb	r17
00000064 078d            240 	sst.w	r17,12[ep]
00000066 46070000        241 	st.b	zero,0[r6]
0000006a 405e0000*       242 	movhi	hi(_Dcm_DspSecAccType_u8),zero,r11
                         243 --line146
                         244 ..lin.C.3A.5C_ECU2.5CECU_Rivian_A1.5CTarget.5Crepo_projects.5CpRealEcu.5CcR_LATEST.5Cmake.5Coutput.5Cobjects.5CDcmDspUds_Seca.7::
                         245 .LDWlin7:
0000006e 40660000*       246 	movhi	hi(_Dcm_DspSecTabIdx_u8),zero,r12
00000072 4b070000*       247 	st.b	zero,lo(_Dcm_DspSecAccType_u8)[r11]
00000076 4c070000*       248 	st.b	zero,lo(_Dcm_DspSecTabIdx_u8)[r12]
                         249 --line147
                         250 ..lin.C.3A.5C_ECU2.5CECU_Rivian_A1.5CTarget.5Crepo_projects.5CpRealEcu.5CcR_LATEST.5Cmake.5Coutput.5Cobjects.5CDcmDspUds_Seca.8::
                         251 .LDWlin8:
0000007a 52071700        252 	st.b	zero,23[r18]
                         253 --	    .ef
                         254 .LDW31:
0000007e 7f00            255 	jmp	[lp]
                         256 ___ghs_eofn_Dcm_Lok_ReqSecIsCurrentSecurityLevel:
                         257 	.type	_Dcm_Lok_ReqSecIsCurrentSecurityLevel,@function
                         258 	.size	_Dcm_Lok_ReqSecIsCurrentSecurityLevel,.-_Dcm_Lok_ReqSecIsCurrentSecurityLevel
                         259 	.type	_Dcm_Lok_ReqSecIsCurrentSecurityLevel..C.3A.5C_ECU2.5CECU_Rivian_A1.5CTarget.5Crepo_projects.5CpRealEcu.5CcR_LATEST.5Cmake.5Coutput.5Cobjects.5CDcmDspUds_Seca.,@function
                         260 	.size	_Dcm_Lok_ReqSecIsCurrentSecurityLevel..C.3A.5C_ECU2.5CECU_Rivian_A1.5CTarget.5Crepo_projects.5CpRealEcu.5CcR_LATEST.5Cmake.5Coutput.5Cobjects.5CDcmDspUds_Seca.,.-_Dcm_Lok_ReqSecIsCurrentSecurityLevel..C.3A.5C_ECU2.5CECU_Rivian_A1.5CTarget.5Crepo_projects.5CpRealEcu.5CcR_LATEST.5Cmake.5Coutput.5Cobjects.5CDcmDspUds_Seca.
                         261 	.align	2
                         262 --_idxLoopSeed_qu32	r17	local
                         263 
                         264 --_OpStatus	r6	param
                         265 --_pMsgContext	ep	param
                         266 
                         267 	.data
                         268 	.text
                         269 	.align	2
                         270 	.align	2
                         271 ..gh.f.f.1.e.2:
                         272 	.type	..gh.f.f.1.e.2,@object
                         273 	.size	..gh.f.f.1.e.2,0
                         274 	.global	_Dcm_Lok_CurrentSecurityLevel..C.3A.5C_ECU2.5CECU_Rivian_A1.5CTarget.5Crepo_projects.5CpRealEcu.5CcR_LATEST.5Cmake.5Coutput.5Cobjects.5CDcmDspUds_Seca.
                         275 _Dcm_Lok_CurrentSecurityLevel..C.3A.5C_ECU2.5CECU_Rivian_A1.5CTarget.5Crepo_projects.5CpRealEcu.5CcR_LATEST.5Cmake.5Coutput.5Cobjects.5CDcmDspUds_Seca.:
                         276 _Dcm_Lok_CurrentSecurityLevel:
00000080 8207e100        277 	prepare	{r28,r29,r31},1
00000084 06e8            278 	mov	r6,r29
00000086 07e0            279 	mov	r7,r28
                         280 --	    .bf
                         281 .LDW41:
00000088 23360300        282 	movea	3,sp,r6
                         283 	jarl	_Dcm_GetSecurityLevel,lp
                         283 <EXPANSION BEGIN>
                         283 jarl22 _Dcm_GetSecurityLevel , lp 
0000008c 80ff0000*       283 <EXPANSION END>
                         284 --line159
                         285 ..lin.C.3A.5C_ECU2.5CECU_Rivian_A1.5CTarget.5Crepo_projects.5CpRealEcu.5CcR_LATEST.5Cmake.5Coutput.5Cobjects.5CDcmDspUds_Seca.9::
                         286 .LDWlin9:
00000090 e051            287 	cmp	zero,r10
00000092 aa25*           288 	bne	.L174

                                                                      Page 6
                                                              C:\Users\nhuliyap\AppData\Local\Temp\gh_000075o1.s
00000094 320600000000*   289 	mov	_Dcm_Lok_idxSecTab_qu8,r18
                         290 --line162
                         291 ..lin.C.3A.5C_ECU2.5CECU_Rivian_A1.5CTarget.5Crepo_projects.5CpRealEcu.5CcR_LATEST.5Cmake.5Coutput.5Cobjects.5CDcmDspUds_Seca.10::
                         292 .LDWlin10:
0000009a 32f61500        293 	movea	21,r18,ep
0000009e 329f0100        294 	ld.w	0[r18],r19
000000a2 6188            295 	sld.bu	1[ep],r17
000000a4 6080            296 	sld.bu	0[ep],r16
000000a6 a37f0300        297 	ld.bu	3[sp],r15
000000aa 40660000*       298 	movhi	hi(_Dcm_DspSecTabIdx_u8),zero,r12
000000ae 406e0000*       299 	movhi	hi(_Dcm_DspSecAccType_u8),zero,r13
000000b2 4c9f0000*       300 	st.b	r19,lo(_Dcm_DspSecTabIdx_u8)[r12]
000000b6 4d8f0000*       301 	st.b	r17,lo(_Dcm_DspSecAccType_u8)[r13]
000000ba 260600000000*   302 	mov	_Dcm_SrvOpstatus_u8,r6
000000c0 1d38            303 	mov	r29,r7
000000c2 f079            304 	cmp	r16,r15
000000c4 da05*           305 	bne	.L176
                         306 --line166
                         307 ..lin.C.3A.5C_ECU2.5CECU_Rivian_A1.5CTarget.5Crepo_projects.5CpRealEcu.5CcR_LATEST.5Cmake.5Coutput.5Cobjects.5CDcmDspUds_Seca.11::
                         308 .LDWlin11:
                         309 	jarl	_Dcm_Lok_ReqSecIsCurrentSecurityLevel,lp
                         309 <EXPANSION BEGIN>
                         309 jarl22 _Dcm_Lok_ReqSecIsCurrentSecurityLevel , lp 
000000c6 bfff70ff*       309 <EXPANSION END>
000000ca 4206ff00        310 	dispose	1,{r28,r29,r31},[lp]
                         311 .L176:
                         312 --line170
                         313 ..lin.C.3A.5C_ECU2.5CECU_Rivian_A1.5CTarget.5Crepo_projects.5CpRealEcu.5CcR_LATEST.5Cmake.5Coutput.5Cobjects.5CDcmDspUds_Seca.12::
                         314 .LDWlin12:
                         315 	jarl	_Dcm_Lok_NewSecurityLevelToUnlock,lp
                         315 <EXPANSION BEGIN>
                         315 jarl22 _Dcm_Lok_NewSecurityLevelToUnlock , lp 
000000ce bfff32ff*       315 <EXPANSION END>
000000d2 4206ff00        316 	dispose	1,{r28,r29,r31},[lp]
                         317 .L174:
                         318 --line175
                         319 ..lin.C.3A.5C_ECU2.5CECU_Rivian_A1.5CTarget.5Crepo_projects.5CpRealEcu.5CcR_LATEST.5Cmake.5Coutput.5Cobjects.5CDcmDspUds_Seca.13::
                         320 .LDWlin13:
000000d6 20762200        321 	movea	34,zero,r14
000000da 5c770000        322 	st.b	r14,0[r28]
                         323 --	    .ef
                         324 .LDW51:
000000de 4206ff00        325 	dispose	1,{r28,r29,r31},[lp]
                         326 ___ghs_eofn_Dcm_Lok_CurrentSecurityLevel:
                         327 	.type	_Dcm_Lok_CurrentSecurityLevel,@function
                         328 	.size	_Dcm_Lok_CurrentSecurityLevel,.-_Dcm_Lok_CurrentSecurityLevel
                         329 	.type	_Dcm_Lok_CurrentSecurityLevel..C.3A.5C_ECU2.5CECU_Rivian_A1.5CTarget.5Crepo_projects.5CpRealEcu.5CcR_LATEST.5Cmake.5Coutput.5Cobjects.5CDcmDspUds_Seca.,@function
                         330 	.size	_Dcm_Lok_CurrentSecurityLevel..C.3A.5C_ECU2.5CECU_Rivian_A1.5CTarget.5Crepo_projects.5CpRealEcu.5CcR_LATEST.5Cmake.5Coutput.5Cobjects.5CDcmDspUds_Seca.,.-_Dcm_Lok_CurrentSecurityLevel..C.3A.5C_ECU2.5CECU_Rivian_A1.5CTarget.5Crepo_projects.5CpRealEcu.5CcR_LATEST.5Cmake.5Coutput.5Cobjects.5CDcmDspUds_Seca.
                         331 	.align	2
                         332 --_dataGetSecurityLevel_u8	3[sp]	local
                         333 
                         334 --_pMsgContext	r29	param
                         335 --_dataNegRespCode_u8	r28	param
                         336 
                         337 	.data
                         338 	.text
                         339 	.align	2
                         340 	.align	2
                         341 ..gh.f.f.1.e.3:
                         342 	.type	..gh.f.f.1.e.3,@object
                         343 	.size	..gh.f.f.1.e.3,0

                                                                      Page 7
                                                              C:\Users\nhuliyap\AppData\Local\Temp\gh_000075o1.s
                         344 	.global	_Dcm_Lok_SecurityLevelConfigured..C.3A.5C_ECU2.5CECU_Rivian_A1.5CTarget.5Crepo_projects.5CpRealEcu.5CcR_LATEST.5Cmake.5Coutput.5Cobjects.5CDcmDspUds_Seca.
                         345 _Dcm_Lok_SecurityLevelConfigured..C.3A.5C_ECU2.5CECU_Rivian_A1.5CTarget.5Crepo_projects.5CpRealEcu.5CcR_LATEST.5Cmake.5Coutput.5Cobjects.5CDcmDspUds_Seca.:
                         346 _Dcm_Lok_SecurityLevelConfigured:
000000e2 07f0            347 	mov	r7,ep
000000e4 320600000000*   348 	mov	_Dcm_Lok_idxSecTab_qu8,r18
                         349 --	    .bf
                         350 .LDW61:
                         351 --line183
                         352 ..lin.C.3A.5C_ECU2.5CECU_Rivian_A1.5CTarget.5Crepo_projects.5CpRealEcu.5CcR_LATEST.5Cmake.5Coutput.5Cobjects.5CDcmDspUds_Seca.14::
                         353 .LDWlin14:
000000ea 327f0100        354 	ld.w	0[r18],r15
000000ee 300600000000*   355 	mov	_Dcm_Dsp_Security,r16
                         356 --line185
                         357 ..lin.C.3A.5C_ECU2.5CECU_Rivian_A1.5CTarget.5Crepo_projects.5CpRealEcu.5CcR_LATEST.5Cmake.5Coutput.5Cobjects.5CDcmDspUds_Seca.15::
                         358 .LDWlin15:
000000f4 266f1100        359 	ld.w	16[r6],r13
000000f8 ef8e2800        360 	mulhi	40,r15,r17
000000fc d089            361 	add	r16,r17
000000fe 31772100        362 	ld.w	32[r17],r14
00000102 728f0500        363 	st.w	r17,4[r18]
00000106 4172            364 	add	1,r14
00000108 ee69            365 	cmp	r14,r13
0000010a d205*           366 	be	.L291
                         367 --line188
                         368 ..lin.C.3A.5C_ECU2.5CECU_Rivian_A1.5CTarget.5Crepo_projects.5CpRealEcu.5CcR_LATEST.5Cmake.5Coutput.5Cobjects.5CDcmDspUds_Seca.16::
                         369 .LDWlin16:
0000010c 20661300        370 	movea	19,zero,r12
                         371 .L289:
00000110 8063            372 	sst.b	r12,0[ep]
                         373 --	    .ef
                         374 .LDW71:
00000112 7f00            375 	jmp	[lp]
                         376 .L291:
                         377 --line191
                         378 ..lin.C.3A.5C_ECU2.5CECU_Rivian_A1.5CTarget.5Crepo_projects.5CpRealEcu.5CcR_LATEST.5Cmake.5Coutput.5Cobjects.5CDcmDspUds_Seca.17::
                         379 .LDWlin17:
00000114 b16f1d00        380 	ld.bu	29[r17],r13
00000118 2c0600000000*   381 	mov	_Dcm_Dsp_Seca,r12
0000011e e069            382 	cmp	zero,r13
00000120 b20d*           383 	be	.L294
00000122 0f80            384 	mov	r15,r16
00000124 c382            385 	shl	3,r16
00000126 cc81            386 	add	r12,r16
00000128 905f0500        387 	ld.bu	4[r16],r11
0000012c ed59            388 	cmp	r13,r11
0000012e c105*           389 	bl	.L294
                         390 --line194
                         391 ..lin.C.3A.5C_ECU2.5CECU_Rivian_A1.5CTarget.5Crepo_projects.5CpRealEcu.5CcR_LATEST.5Cmake.5Coutput.5Cobjects.5CDcmDspUds_Seca.18::
                         392 .LDWlin18:
00000130 20663600        393 	movea	54,zero,r12
00000134 e5ed*           394 	br	.L289
                         395 .L294:
                         396 --line198
                         397 ..lin.C.3A.5C_ECU2.5CECU_Rivian_A1.5CTarget.5Crepo_projects.5CpRealEcu.5CcR_LATEST.5Cmake.5Coutput.5Cobjects.5CDcmDspUds_Seca.19::
                         398 .LDWlin19:
00000136 c37a            399 	shl	3,r15
00000138 cc79            400 	add	r12,r15
0000013a 404e0000*       401 	movhi	hi(_Dcm_Dsp_SecaGlobaltimer_u32),zero,r9
0000013e 294f0100*       402 	ld.w	lo(_Dcm_Dsp_SecaGlobaltimer_u32)[r9],r9
00000142 2f470100        403 	ld.w	0[r15],r8
00000146 e941            404 	cmp	r9,r8

                                                                      Page 8
                                                              C:\Users\nhuliyap\AppData\Local\Temp\gh_000075o1.s
00000148 c305*           405 	bnh	.L298
                         406 --line200
                         407 ..lin.C.3A.5C_ECU2.5CECU_Rivian_A1.5CTarget.5Crepo_projects.5CpRealEcu.5CcR_LATEST.5Cmake.5Coutput.5Cobjects.5CDcmDspUds_Seca.20::
                         408 .LDWlin20:
0000014a 20663700        409 	movea	55,zero,r12
0000014e 95e5*           410 	br	.L289
                         411 .L298:
                         412 --line204
                         413 ..lin.C.3A.5C_ECU2.5CECU_Rivian_A1.5CTarget.5Crepo_projects.5CpRealEcu.5CcR_LATEST.5Cmake.5Coutput.5Cobjects.5CDcmDspUds_Seca.21::
                         414 .LDWlin21:
00000150 bf0730ff*       415 	jr	_Dcm_Lok_CurrentSecurityLevel
                         416 ___ghs_eofn_Dcm_Lok_SecurityLevelConfigured:
                         417 	.type	_Dcm_Lok_SecurityLevelConfigured,@function
                         418 	.size	_Dcm_Lok_SecurityLevelConfigured,.-_Dcm_Lok_SecurityLevelConfigured
                         419 	.type	_Dcm_Lok_SecurityLevelConfigured..C.3A.5C_ECU2.5CECU_Rivian_A1.5CTarget.5Crepo_projects.5CpRealEcu.5CcR_LATEST.5Cmake.5Coutput.5Cobjects.5CDcmDspUds_Seca.,@function
                         420 	.size	_Dcm_Lok_SecurityLevelConfigured..C.3A.5C_ECU2.5CECU_Rivian_A1.5CTarget.5Crepo_projects.5CpRealEcu.5CcR_LATEST.5Cmake.5Coutput.5Cobjects.5CDcmDspUds_Seca.,.-_Dcm_Lok_SecurityLevelConfigured..C.3A.5C_ECU2.5CECU_Rivian_A1.5CTarget.5Crepo_projects.5CpRealEcu.5CcR_LATEST.5Cmake.5Coutput.5Cobjects.5CDcmDspUds_Seca.
                         421 	.align	2
                         422 
                         423 --_pMsgContext	r6	param
                         424 --_dataNegRespCode_u8	ep	param
                         425 
                         426 	.data
                         427 	.text
                         428 	.align	2
                         429 	.align	2
                         430 ..gh.f.f.1.e.4:
                         431 	.type	..gh.f.f.1.e.4,@object
                         432 	.size	..gh.f.f.1.e.4,0
                         433 	.global	_Dcm_Lok_SecaSeedRequest..C.3A.5C_ECU2.5CECU_Rivian_A1.5CTarget.5Crepo_projects.5CpRealEcu.5CcR_LATEST.5Cmake.5Coutput.5Cobjects.5CDcmDspUds_Seca.
                         434 _Dcm_Lok_SecaSeedRequest..C.3A.5C_ECU2.5CECU_Rivian_A1.5CTarget.5Crepo_projects.5CpRealEcu.5CcR_LATEST.5Cmake.5Coutput.5Cobjects.5CDcmDspUds_Seca.:
                         435 _Dcm_Lok_SecaSeedRequest:
00000154 07f0            436 	mov	r7,ep
00000156 320600000000*   437 	mov	_Dcm_Lok_idxSecTab_qu8,r18
                         438 --	    .bf
                         439 .LDW81:
                         440 --line214
                         441 ..lin.C.3A.5C_ECU2.5CECU_Rivian_A1.5CTarget.5Crepo_projects.5CpRealEcu.5CcR_LATEST.5Cmake.5Coutput.5Cobjects.5CDcmDspUds_Seca.22::
                         442 .LDWlin22:
0000015c b27f1700        443 	ld.bu	23[r18],r15
00000160 008a            444 	mov	0,r17
00000162 0f860100        445 	addi	1,r15,r16
00000166 8182            446 	shr	1,r16
00000168 527f1600        447 	st.b	r15,22[r18]
0000016c 52871500        448 	st.b	r16,21[r18]
                         449 .L457:
00000170 f17e2800        450 	mulhi	40,r17,r15
00000174 40760000*       451 	movhi	hi(_Dcm_Dsp_Security+16),zero,r14
00000178 ce79            452 	add	r14,r15
0000017a 8f6f0100*       453 	ld.bu	lo(_Dcm_Dsp_Security+16)[r15],r13
0000017e f069            454 	cmp	r16,r13
00000180 c205*           455 	be	.L453
                         456 --line218
                         457 ..lin.C.3A.5C_ECU2.5CECU_Rivian_A1.5CTarget.5Crepo_projects.5CpRealEcu.5CcR_LATEST.5Cmake.5Coutput.5Cobjects.5CDcmDspUds_Seca.23::
                         458 .LDWlin23:
00000182 418a            459 	add	1,r17
00000184 628a            460 	cmp	2,r17
00000186 d1f5*           461 	bl	.L457
                         462 .L453:
                         463 --line224
                         464 ..lin.C.3A.5C_ECU2.5CECU_Rivian_A1.5CTarget.5Crepo_projects.5CpRealEcu.5CcR_LATEST.5Cmake.5Coutput.5Cobjects.5CDcmDspUds_Seca.24::
                         465 .LDWlin24:

                                                                      Page 9
                                                              C:\Users\nhuliyap\AppData\Local\Temp\gh_000075o1.s
00000188 728f0100        466 	st.w	r17,0[r18]
0000018c 628a            467 	cmp	2,r17
0000018e b905*           468 	bnl	.L458
00000190 bf0752ff*       469 	jr	_Dcm_Lok_SecurityLevelConfigured
                         470 .L458:
                         471 --line238
                         472 ..lin.C.3A.5C_ECU2.5CECU_Rivian_A1.5CTarget.5Crepo_projects.5CpRealEcu.5CcR_LATEST.5Cmake.5Coutput.5Cobjects.5CDcmDspUds_Seca.25::
                         473 .LDWlin25:
00000194 20661200        474 	movea	18,zero,r12
00000198 8063            475 	sst.b	r12,0[ep]
                         476 --	    .ef
                         477 .LDW91:
0000019a 7f00            478 	jmp	[lp]
                         479 ___ghs_eofn_Dcm_Lok_SecaSeedRequest:
                         480 	.type	_Dcm_Lok_SecaSeedRequest,@function
                         481 	.size	_Dcm_Lok_SecaSeedRequest,.-_Dcm_Lok_SecaSeedRequest
                         482 	.type	_Dcm_Lok_SecaSeedRequest..C.3A.5C_ECU2.5CECU_Rivian_A1.5CTarget.5Crepo_projects.5CpRealEcu.5CcR_LATEST.5Cmake.5Coutput.5Cobjects.5CDcmDspUds_Seca.,@function
                         483 	.size	_Dcm_Lok_SecaSeedRequest..C.3A.5C_ECU2.5CECU_Rivian_A1.5CTarget.5Crepo_projects.5CpRealEcu.5CcR_LATEST.5Cmake.5Coutput.5Cobjects.5CDcmDspUds_Seca.,.-_Dcm_Lok_SecaSeedRequest..C.3A.5C_ECU2.5CECU_Rivian_A1.5CTarget.5Crepo_projects.5CpRealEcu.5CcR_LATEST.5Cmake.5Coutput.5Cobjects.5CDcmDspUds_Seca.
                         484 	.align	2
                         485 --_l_idxSecTab_qu8	r17	local
                         486 
                         487 --_pMsgContext	r6	param
                         488 --_dataNegRespCode_u8	ep	param
                         489 
                         490 	.data
                         491 	.text
                         492 	.align	2
                         493 	.align	2
                         494 ..gh.f.f.1.e.5:
                         495 	.type	..gh.f.f.1.e.5,@object
                         496 	.size	..gh.f.f.1.e.5,0
                         497 	.global	_Dcm_Lok_ReqSecaLvlConfigured..C.3A.5C_ECU2.5CECU_Rivian_A1.5CTarget.5Crepo_projects.5CpRealEcu.5CcR_LATEST.5Cmake.5Coutput.5Cobjects.5CDcmDspUds_Seca.
                         498 _Dcm_Lok_ReqSecaLvlConfigured..C.3A.5C_ECU2.5CECU_Rivian_A1.5CTarget.5Crepo_projects.5CpRealEcu.5CcR_LATEST.5Cmake.5Coutput.5Cobjects.5CDcmDspUds_Seca.:
                         499 _Dcm_Lok_ReqSecaLvlConfigured:
0000019c 08f0            500 	mov	r8,ep
0000019e 320600000000*   501 	mov	_Dcm_Lok_idxSecTab_qu8,r18
                         502 --	    .bf
                         503 .LDW02:
                         504 --line253
                         505 ..lin.C.3A.5C_ECU2.5CECU_Rivian_A1.5CTarget.5Crepo_projects.5CpRealEcu.5CcR_LATEST.5Cmake.5Coutput.5Cobjects.5CDcmDspUds_Seca.26::
                         506 .LDWlin26:
000001a4 329f0000        507 	ld.h	0[r18],r19
000001a8 40760000*       508 	movhi	hi(_Dcm_DspSecAccType_u8),zero,r14
000001ac 8e770100*       509 	ld.bu	lo(_Dcm_DspSecAccType_u8)[r14],r14
000001b0 300600000000*   510 	mov	_Dcm_Dsp_Security,r16
000001b6 f38e2800        511 	mulhi	40,r19,r17
                         512 --line257
                         513 ..lin.C.3A.5C_ECU2.5CECU_Rivian_A1.5CTarget.5Crepo_projects.5CpRealEcu.5CcR_LATEST.5Cmake.5Coutput.5Cobjects.5CDcmDspUds_Seca.27::
                         514 .LDWlin27:
000001ba b27f1700        515 	ld.bu	23[r18],r15
000001be 0e6e0100        516 	addi	1,r14,r13
000001c2 d089            517 	add	r16,r17
000001c4 0d80            518 	mov	r13,r16
000001c6 8182            519 	shr	1,r16
000001c8 728f0500        520 	st.w	r17,4[r18]
000001cc 52871500        521 	st.b	r16,21[r18]
000001d0 ed79            522 	cmp	r13,r15
000001d2 d205*           523 	be	.L596
                         524 --line260
                         525 ..lin.C.3A.5C_ECU2.5CECU_Rivian_A1.5CTarget.5Crepo_projects.5CpRealEcu.5CcR_LATEST.5Cmake.5Coutput.5Cobjects.5CDcmDspUds_Seca.28::
                         526 .LDWlin28:

                                                                      Page 10
                                                              C:\Users\nhuliyap\AppData\Local\Temp\gh_000075o1.s
000001d4 20762400        527 	movea	36,zero,r14
000001d8 8073            528 	sst.b	r14,0[ep]
000001da 7f00            529 	jmp	[lp]
                         530 .L596:
                         531 --line263
                         532 ..lin.C.3A.5C_ECU2.5CECU_Rivian_A1.5CTarget.5Crepo_projects.5CpRealEcu.5CcR_LATEST.5Cmake.5Coutput.5Cobjects.5CDcmDspUds_Seca.29::
                         533 .LDWlin29:
000001dc 317f1900        534 	ld.w	24[r17],r15
000001e0 276f1100        535 	ld.w	16[r7],r13
000001e4 417a            536 	add	1,r15
000001e6 ef69            537 	cmp	r15,r13
000001e8 d205*           538 	be	.L599
                         539 --line266
                         540 ..lin.C.3A.5C_ECU2.5CECU_Rivian_A1.5CTarget.5Crepo_projects.5CpRealEcu.5CcR_LATEST.5Cmake.5Coutput.5Cobjects.5CDcmDspUds_Seca.30::
                         541 .LDWlin30:
000001ea 20661300        542 	movea	19,zero,r12
000001ee 8063            543 	sst.b	r12,0[ep]
000001f0 7f00            544 	jmp	[lp]
                         545 .L599:
                         546 --line278
                         547 ..lin.C.3A.5C_ECU2.5CECU_Rivian_A1.5CTarget.5Crepo_projects.5CpRealEcu.5CcR_LATEST.5Cmake.5Coutput.5Cobjects.5CDcmDspUds_Seca.31::
                         548 .LDWlin31:
000001f2 045a            549 	mov	4,r11
000001f4 465f0000        550 	st.b	r11,0[r6]
000001f8 0152            551 	mov	1,r10
000001fa 52571800        552 	st.b	r10,24[r18]
                         553 --	    .ef
                         554 .LDW12:
000001fe 7f00            555 	jmp	[lp]
                         556 ___ghs_eofn_Dcm_Lok_ReqSecaLvlConfigured:
                         557 	.type	_Dcm_Lok_ReqSecaLvlConfigured,@function
                         558 	.size	_Dcm_Lok_ReqSecaLvlConfigured,.-_Dcm_Lok_ReqSecaLvlConfigured
                         559 	.type	_Dcm_Lok_ReqSecaLvlConfigured..C.3A.5C_ECU2.5CECU_Rivian_A1.5CTarget.5Crepo_projects.5CpRealEcu.5CcR_LATEST.5Cmake.5Coutput.5Cobjects.5CDcmDspUds_Seca.,@function
                         560 	.size	_Dcm_Lok_ReqSecaLvlConfigured..C.3A.5C_ECU2.5CECU_Rivian_A1.5CTarget.5Crepo_projects.5CpRealEcu.5CcR_LATEST.5Cmake.5Coutput.5Cobjects.5CDcmDspUds_Seca.,.-_Dcm_Lok_ReqSecaLvlConfigured..C.3A.5C_ECU2.5CECU_Rivian_A1.5CTarget.5Crepo_projects.5CpRealEcu.5CcR_LATEST.5Cmake.5Coutput.5Cobjects.5CDcmDspUds_Seca.
                         561 	.align	2
                         562 
                         563 --_OpStatus	r6	param
                         564 --_pMsgContext	r7	param
                         565 --_dataNegRespCode_u8	ep	param
                         566 
                         567 	.data
                         568 	.text
                         569 	.align	2
                         570 	.align	2
                         571 ..gh.f.f.1.e.6:
                         572 	.type	..gh.f.f.1.e.6,@object
                         573 	.size	..gh.f.f.1.e.6,0
                         574 	.global	_Dcm_Lok_ChkForReqSecaLvl..C.3A.5C_ECU2.5CECU_Rivian_A1.5CTarget.5Crepo_projects.5CpRealEcu.5CcR_LATEST.5Cmake.5Coutput.5Cobjects.5CDcmDspUds_Seca.
                         575 _Dcm_Lok_ChkForReqSecaLvl..C.3A.5C_ECU2.5CECU_Rivian_A1.5CTarget.5Crepo_projects.5CpRealEcu.5CcR_LATEST.5Cmake.5Coutput.5Cobjects.5CDcmDspUds_Seca.:
                         576 _Dcm_Lok_ChkForReqSecaLvl:
00000200 07f0            577 	mov	r7,ep
00000202 320600000000*   578 	mov	_Dcm_Lok_idxSecTab_qu8,r18
                         579 --	    .bf
                         580 .LDW22:
                         581 --line291
                         582 ..lin.C.3A.5C_ECU2.5CECU_Rivian_A1.5CTarget.5Crepo_projects.5CpRealEcu.5CcR_LATEST.5Cmake.5Coutput.5Cobjects.5CDcmDspUds_Seca.32::
                         583 .LDWlin32:
00000208 b2871700        584 	ld.bu	23[r18],r16
0000020c 008a            585 	mov	0,r17
0000020e a182            586 	sar	1,r16
00000210 52871500        587 	st.b	r16,21[r18]

                                                                      Page 11
                                                              C:\Users\nhuliyap\AppData\Local\Temp\gh_000075o1.s
                         588 .L710:
00000214 f17e2800        589 	mulhi	40,r17,r15
00000218 40760000*       590 	movhi	hi(_Dcm_Dsp_Security+16),zero,r14
0000021c ce79            591 	add	r14,r15
0000021e 8f6f0100*       592 	ld.bu	lo(_Dcm_Dsp_Security+16)[r15],r13
00000222 f069            593 	cmp	r16,r13
00000224 c205*           594 	be	.L706
                         595 --line293
                         596 ..lin.C.3A.5C_ECU2.5CECU_Rivian_A1.5CTarget.5Crepo_projects.5CpRealEcu.5CcR_LATEST.5Cmake.5Coutput.5Cobjects.5CDcmDspUds_Seca.33::
                         597 .LDWlin33:
00000226 418a            598 	add	1,r17
00000228 628a            599 	cmp	2,r17
0000022a d1f5*           600 	bl	.L710
                         601 .L706:
                         602 --line299
                         603 ..lin.C.3A.5C_ECU2.5CECU_Rivian_A1.5CTarget.5Crepo_projects.5CpRealEcu.5CcR_LATEST.5Cmake.5Coutput.5Cobjects.5CDcmDspUds_Seca.34::
                         604 .LDWlin34:
0000022c 728f0100        605 	st.w	r17,0[r18]
00000230 628a            606 	cmp	2,r17
00000232 d105*           607 	bl	.L711
                         608 --line304
                         609 ..lin.C.3A.5C_ECU2.5CECU_Rivian_A1.5CTarget.5Crepo_projects.5CpRealEcu.5CcR_LATEST.5Cmake.5Coutput.5Cobjects.5CDcmDspUds_Seca.35::
                         610 .LDWlin35:
00000234 20661200        611 	movea	18,zero,r12
00000238 8063            612 	sst.b	r12,0[ep]
                         613 --	    .ef
                         614 .LDW32:
0000023a 7f00            615 	jmp	[lp]
                         616 .L711:
                         617 --line307
                         618 ..lin.C.3A.5C_ECU2.5CECU_Rivian_A1.5CTarget.5Crepo_projects.5CpRealEcu.5CcR_LATEST.5Cmake.5Coutput.5Cobjects.5CDcmDspUds_Seca.36::
                         619 .LDWlin36:
0000023c 0638            620 	mov	r6,r7
0000023e 1e40            621 	mov	ep,r8
00000240 260600000000*   622 	mov	_Dcm_SrvOpstatus_u8,r6
00000246 bf0756ff*       623 	jr	_Dcm_Lok_ReqSecaLvlConfigured
                         624 ___ghs_eofn_Dcm_Lok_ChkForReqSecaLvl:
                         625 	.type	_Dcm_Lok_ChkForReqSecaLvl,@function
                         626 	.size	_Dcm_Lok_ChkForReqSecaLvl,.-_Dcm_Lok_ChkForReqSecaLvl
                         627 	.type	_Dcm_Lok_ChkForReqSecaLvl..C.3A.5C_ECU2.5CECU_Rivian_A1.5CTarget.5Crepo_projects.5CpRealEcu.5CcR_LATEST.5Cmake.5Coutput.5Cobjects.5CDcmDspUds_Seca.,@function
                         628 	.size	_Dcm_Lok_ChkForReqSecaLvl..C.3A.5C_ECU2.5CECU_Rivian_A1.5CTarget.5Crepo_projects.5CpRealEcu.5CcR_LATEST.5Cmake.5Coutput.5Cobjects.5CDcmDspUds_Seca.,.-_Dcm_Lok_ChkForReqSecaLvl..C.3A.5C_ECU2.5CECU_Rivian_A1.5CTarget.5Crepo_projects.5CpRealEcu.5CcR_LATEST.5Cmake.5Coutput.5Cobjects.5CDcmDspUds_Seca.
                         629 	.align	2
                         630 --_l_idxSecTab_qu8	r17	local
                         631 
                         632 --_pMsgContext	r6	param
                         633 --_dataNegRespCode_u8	ep	param
                         634 
                         635 	.data
                         636 	.text
                         637 	.align	2
                         638 	.align	2
                         639 ..gh.f.f.1.e.7:
                         640 	.type	..gh.f.f.1.e.7,@object
                         641 	.size	..gh.f.f.1.e.7,0
                         642 	.global	_Dcm_Lok_SecaRequestState..C.3A.5C_ECU2.5CECU_Rivian_A1.5CTarget.5Crepo_projects.5CpRealEcu.5CcR_LATEST.5Cmake.5Coutput.5Cobjects.5CDcmDspUds_Seca.
                         643 _Dcm_Lok_SecaRequestState..C.3A.5C_ECU2.5CECU_Rivian_A1.5CTarget.5Crepo_projects.5CpRealEcu.5CcR_LATEST.5Cmake.5Coutput.5Cobjects.5CDcmDspUds_Seca.:
                         644 _Dcm_Lok_SecaRequestState:
0000024a 06f0            645 	mov	r6,ep
                         646 --	    .bf
                         647 .LDW42:
0000024c 0295            648 	sld.w	4[ep],r18

                                                                      Page 12
                                                              C:\Users\nhuliyap\AppData\Local\Temp\gh_000075o1.s
0000024e 405e0000*       649 	movhi	hi(_Dcm_Lok_dataSubFunc_u8),zero,r11
00000252 92970100        650 	ld.bu	0[r18],r18
00000256 4b970000*       651 	st.b	r18,lo(_Dcm_Lok_dataSubFunc_u8)[r11]
                         652 --line317
                         653 ..lin.C.3A.5C_ECU2.5CECU_Rivian_A1.5CTarget.5Crepo_projects.5CpRealEcu.5CcR_LATEST.5Cmake.5Coutput.5Cobjects.5CDcmDspUds_Seca.37::
                         654 .LDWlin37:
0000025a d2060100        655 	andi	1,r18,zero
0000025e b205*           656 	be	.L853
00000260 bf07f4fe*       657 	jr	_Dcm_Lok_SecaSeedRequest
                         658 .L853:
                         659 --line322
                         660 ..lin.C.3A.5C_ECU2.5CECU_Rivian_A1.5CTarget.5Crepo_projects.5CpRealEcu.5CcR_LATEST.5Cmake.5Coutput.5Cobjects.5CDcmDspUds_Seca.38::
                         661 .LDWlin38:
00000264 e091            662 	cmp	zero,r18
00000266 b205*           663 	be	.L856
00000268 bf0798ff*       664 	jr	_Dcm_Lok_ChkForReqSecaLvl
                         665 .L856:
                         666 --line328
                         667 ..lin.C.3A.5C_ECU2.5CECU_Rivian_A1.5CTarget.5Crepo_projects.5CpRealEcu.5CcR_LATEST.5Cmake.5Coutput.5Cobjects.5CDcmDspUds_Seca.39::
                         668 .LDWlin39:
0000026c 20961200        669 	movea	18,zero,r18
00000270 47970000        670 	st.b	r18,0[r7]
                         671 --	    .ef
                         672 .LDW52:
00000274 7f00            673 	jmp	[lp]
                         674 ___ghs_eofn_Dcm_Lok_SecaRequestState:
                         675 	.type	_Dcm_Lok_SecaRequestState,@function
                         676 	.size	_Dcm_Lok_SecaRequestState,.-_Dcm_Lok_SecaRequestState
                         677 	.type	_Dcm_Lok_SecaRequestState..C.3A.5C_ECU2.5CECU_Rivian_A1.5CTarget.5Crepo_projects.5CpRealEcu.5CcR_LATEST.5Cmake.5Coutput.5Cobjects.5CDcmDspUds_Seca.,@function
                         678 	.size	_Dcm_Lok_SecaRequestState..C.3A.5C_ECU2.5CECU_Rivian_A1.5CTarget.5Crepo_projects.5CpRealEcu.5CcR_LATEST.5Cmake.5Coutput.5Cobjects.5CDcmDspUds_Seca.,.-_Dcm_Lok_SecaRequestState..C.3A.5C_ECU2.5CECU_Rivian_A1.5CTarget.5Crepo_projects.5CpRealEcu.5CcR_LATEST.5Cmake.5Coutput.5Cobjects.5CDcmDspUds_Seca.
                         679 	.align	2
                         680 
                         681 --_pMsgContext	ep	param
                         682 --_dataNegRespCode_u8	r7	param
                         683 
                         684 	.data
                         685 	.text
                         686 	.align	2
                         687 	.align	2
                         688 ..gh.f.f.1.e.8:
                         689 	.type	..gh.f.f.1.e.8,@object
                         690 	.size	..gh.f.f.1.e.8,0
                         691 	.global	_Dcm_Lok_SecaCmpKeyPnding..C.3A.5C_ECU2.5CECU_Rivian_A1.5CTarget.5Crepo_projects.5CpRealEcu.5CcR_LATEST.5Cmake.5Coutput.5Cobjects.5CDcmDspUds_Seca.
                         692 _Dcm_Lok_SecaCmpKeyPnding..C.3A.5C_ECU2.5CECU_Rivian_A1.5CTarget.5Crepo_projects.5CpRealEcu.5CcR_LATEST.5Cmake.5Coutput.5Cobjects.5CDcmDspUds_Seca.:
                         693 _Dcm_Lok_SecaCmpKeyPnding:
00000276 06f0            694 	mov	r6,ep
                         695 --	    .bf
                         696 .LDW62:
00000278 8003            697 	sst.b	zero,0[ep]
0000027a 0192            698 	mov	1,r18
0000027c 405e0000*       699 	movhi	hi(_Dcm_DspSecaOpStatus_u8),zero,r11
                         700 --line338
                         701 ..lin.C.3A.5C_ECU2.5CECU_Rivian_A1.5CTarget.5Crepo_projects.5CpRealEcu.5CcR_LATEST.5Cmake.5Coutput.5Cobjects.5CDcmDspUds_Seca.40::
                         702 .LDWlin40:
00000280 0a8a            703 	mov	10,r17
00000282 40660000*       704 	movhi	hi(_Dcm_Lok_secaServRetValue_u8),zero,r12
00000286 4b970000*       705 	st.b	r18,lo(_Dcm_DspSecaOpStatus_u8)[r11]
0000028a 4c8f0000*       706 	st.b	r17,lo(_Dcm_Lok_secaServRetValue_u8)[r12]
                         707 --	    .ef
                         708 .LDW72:
                         709 --line339

                                                                      Page 13
                                                              C:\Users\nhuliyap\AppData\Local\Temp\gh_000075o1.s
                         710 ..lin.C.3A.5C_ECU2.5CECU_Rivian_A1.5CTarget.5Crepo_projects.5CpRealEcu.5CcR_LATEST.5Cmake.5Coutput.5Cobjects.5CDcmDspUds_Seca.41::
                         711 .LDWlin41:
0000028e 7f00            712 	jmp	[lp]
                         713 ___ghs_eofn_Dcm_Lok_SecaCmpKeyPnding:
                         714 	.type	_Dcm_Lok_SecaCmpKeyPnding,@function
                         715 	.size	_Dcm_Lok_SecaCmpKeyPnding,.-_Dcm_Lok_SecaCmpKeyPnding
                         716 	.type	_Dcm_Lok_SecaCmpKeyPnding..C.3A.5C_ECU2.5CECU_Rivian_A1.5CTarget.5Crepo_projects.5CpRealEcu.5CcR_LATEST.5Cmake.5Coutput.5Cobjects.5CDcmDspUds_Seca.,@function
                         717 	.size	_Dcm_Lok_SecaCmpKeyPnding..C.3A.5C_ECU2.5CECU_Rivian_A1.5CTarget.5Crepo_projects.5CpRealEcu.5CcR_LATEST.5Cmake.5Coutput.5Cobjects.5CDcmDspUds_Seca.,.-_Dcm_Lok_SecaCmpKeyPnding..C.3A.5C_ECU2.5CECU_Rivian_A1.5CTarget.5Crepo_projects.5CpRealEcu.5CcR_LATEST.5Cmake.5Coutput.5Cobjects.5CDcmDspUds_Seca.
                         718 	.align	2
                         719 
                         720 --_dataNegRespCode_u8	ep	param
                         721 
                         722 	.data
                         723 	.text
                         724 	.align	2
                         725 	.align	2
                         726 ..gh.f.f.1.e.9:
                         727 	.type	..gh.f.f.1.e.9,@object
                         728 	.size	..gh.f.f.1.e.9,0
                         729 	.global	_Dcm_Lok_SecaCheckdataStValidKeyChk..C.3A.5C_ECU2.5CECU_Rivian_A1.5CTarget.5Crepo_projects.5CpRealEcu.5CcR_LATEST.5Cmake.5Coutput.5Cobjects.5CDcmDspUds_Seca.
                         730 _Dcm_Lok_SecaCheckdataStValidKeyChk..C.3A.5C_ECU2.5CECU_Rivian_A1.5CTarget.5Crepo_projects.5CpRealEcu.5CcR_LATEST.5Cmake.5Coutput.5Cobjects.5CDcmDspUds_Seca.:
                         731 _Dcm_Lok_SecaCheckdataStValidKeyChk:
00000290 8007e100        732 	prepare	{r28,r29,r31},0
00000294 0698            733 	mov	r6,r19
00000296 0748            734 	mov	r7,r9
00000298 3d0600000000*   735 	mov	_Dcm_Lok_ptrSecurityConfig_p,r29
                         736 --	    .bf
                         737 .LDW82:
                         738 --line415
                         739 ..lin.C.3A.5C_ECU2.5CECU_Rivian_A1.5CTarget.5Crepo_projects.5CpRealEcu.5CcR_LATEST.5Cmake.5Coutput.5Cobjects.5CDcmDspUds_Seca.42::
                         740 .LDWlin42:
0000029e 3df70100        741 	ld.w	0[r29],ep
000002a2 2443            742 	sld.b	36[ep],r8
000002a4 6142            743 	cmp	1,r8
000002a6 8a15*           744 	bne	.L1010
                         745 --line418
                         746 ..lin.C.3A.5C_ECU2.5CECU_Rivian_A1.5CTarget.5Crepo_projects.5CpRealEcu.5CcR_LATEST.5Cmake.5Coutput.5Cobjects.5CDcmDspUds_Seca.43::
                         747 .LDWlin43:
000002a8 33970500        748 	ld.w	4[r19],r18
000002ac 40460000*       749 	movhi	hi(_Dcm_DspSecaOpStatus_u8),zero,r8
000002b0 0c35            750 	sld.w	24[ep],r6
000002b2 88470100*       751 	ld.bu	lo(_Dcm_DspSecaOpStatus_u8)[r8],r8
000002b6 3de70500        752 	ld.w	4[r29],r28
000002ba 123e0100        753 	addi	1,r18,r7
000002be fcc760f9        754 	jarl	[r28],lp
000002c2 5d571000        755 	st.b	r10,16[r29]
                         756 .L1010:
                         757 --	    .ef
                         758 .LDW92:
                         759 --line422
                         760 ..lin.C.3A.5C_ECU2.5CECU_Rivian_A1.5CTarget.5Crepo_projects.5CpRealEcu.5CcR_LATEST.5Cmake.5Coutput.5Cobjects.5CDcmDspUds_Seca.44::
                         761 .LDWlin44:
000002c6 4006ff00        762 	dispose	0,{r28,r29,r31},[lp]
                         763 ___ghs_eofn_Dcm_Lok_SecaCheckdataStValidKeyChk:
                         764 	.type	_Dcm_Lok_SecaCheckdataStValidKeyChk,@function
                         765 	.size	_Dcm_Lok_SecaCheckdataStValidKeyChk,.-_Dcm_Lok_SecaCheckdataStValidKeyChk
                         766 	.type	_Dcm_Lok_SecaCheckdataStValidKeyChk..C.3A.5C_ECU2.5CECU_Rivian_A1.5CTarget.5Crepo_projects.5CpRealEcu.5CcR_LATEST.5Cmake.5Coutput.5Cobjects.5CDcmDspUds_Seca.,@function
                         767 	.size	_Dcm_Lok_SecaCheckdataStValidKeyChk..C.3A.5C_ECU2.5CECU_Rivian_A1.5CTarget.5Crepo_projects.5CpRealEcu.5CcR_LATEST.5Cmake.5Coutput.5Cobjects.5CDcmDspUds_Seca.,.-_Dcm_Lok_SecaCheckdataStValidKeyChk..C.3A.5C_ECU2.5CECU_Rivian_A1.5CTarget.5Crepo_projects.5CpRealEcu.5CcR_LATEST.5Cmake.5Coutput.5Cobjects.5CDcmDspUds_Seca.
                         768 	.align	2
                         769 
                         770 --_pMsgContext	r19	param

                                                                      Page 14
                                                              C:\Users\nhuliyap\AppData\Local\Temp\gh_000075o1.s
                         771 --_dataNegRespCode_u8	r9	param
                         772 
                         773 	.data
                         774 	.text
                         775 	.align	2
                         776 	.align	2
                         777 ..gh.f.f.1.e.10:
                         778 	.type	..gh.f.f.1.e.10,@object
                         779 	.size	..gh.f.f.1.e.10,0
                         780 	.global	_Dcm_Lok_SecaValidKeyNotificationToAppIsOk..C.3A.5C_ECU2.5CECU_Rivian_A1.5CTarget.5Crepo_projects.5CpRealEcu.5CcR_LATEST.5Cmake.5Coutput.5Cobjects.5CDcmDspUds_Seca.
                         781 _Dcm_Lok_SecaValidKeyNotificationToAppIsOk..C.3A.5C_ECU2.5CECU_Rivian_A1.5CTarget.5Crepo_projects.5CpRealEcu.5CcR_LATEST.5Cmake.5Coutput.5Cobjects.5CDcmDspUds_Seca.:
                         782 _Dcm_Lok_SecaValidKeyNotificationToAppIsOk:
000002ca 320600000000*   783 	mov	_Dcm_Lok_substSeca_en,r18
                         784 --	    .bf
                         785 .LDW03:
                         786 --line520
                         787 ..lin.C.3A.5C_ECU2.5CECU_Rivian_A1.5CTarget.5Crepo_projects.5CpRealEcu.5CcR_LATEST.5Cmake.5Coutput.5Cobjects.5CDcmDspUds_Seca.45::
                         788 .LDWlin45:
000002d0 92870300        789 	ld.bu	2[r18],r16
000002d4 6a82            790 	cmp	10,r16
000002d6 ba0d*           791 	bne	.L1080
                         792 --line522
                         793 ..lin.C.3A.5C_ECU2.5CECU_Rivian_A1.5CTarget.5Crepo_projects.5CpRealEcu.5CcR_LATEST.5Cmake.5Coutput.5Cobjects.5CDcmDspUds_Seca.46::
                         794 .LDWlin46:
000002d8 018a            795 	mov	1,r17
000002da 12f0            796 	mov	r18,ep
000002dc 027a            797 	mov	2,r15
000002de 40660000*       798 	movhi	hi(_Dcm_DspSecaOpStatus_u8),zero,r12
000002e2 848b            799 	sst.b	r17,4[ep]
000002e4 807b            800 	sst.b	r15,0[ep]
000002e6 4c8f0000*       801 	st.b	r17,lo(_Dcm_DspSecaOpStatus_u8)[r12]
000002ea 7f00            802 	jmp	[lp]
                         803 .L1080:
000002ec 06f0            804 	mov	r6,ep
                         805 --line528
                         806 ..lin.C.3A.5C_ECU2.5CECU_Rivian_A1.5CTarget.5Crepo_projects.5CpRealEcu.5CcR_LATEST.5Cmake.5Coutput.5Cobjects.5CDcmDspUds_Seca.47::
                         807 .LDWlin47:
000002ee 0572            808 	mov	5,r14
000002f0 8073            809 	sst.b	r14,0[ep]
                         810 --	    .ef
                         811 .LDW13:
000002f2 7f00            812 	jmp	[lp]
                         813 ___ghs_eofn_Dcm_Lok_SecaValidKeyNotificationToAppIsOk:
                         814 	.type	_Dcm_Lok_SecaValidKeyNotificationToAppIsOk,@function
                         815 	.size	_Dcm_Lok_SecaValidKeyNotificationToAppIsOk,.-_Dcm_Lok_SecaValidKeyNotificationToAppIsOk
                         816 	.type	_Dcm_Lok_SecaValidKeyNotificationToAppIsOk..C.3A.5C_ECU2.5CECU_Rivian_A1.5CTarget.5Crepo_projects.5CpRealEcu.5CcR_LATEST.5Cmake.5Coutput.5Cobjects.5CDcmDspUds_Seca.,@function
                         817 	.size	_Dcm_Lok_SecaValidKeyNotificationToAppIsOk..C.3A.5C_ECU2.5CECU_Rivian_A1.5CTarget.5Crepo_projects.5CpRealEcu.5CcR_LATEST.5Cmake.5Coutput.5Cobjects.5CDcmDspUds_Seca.,.-_Dcm_Lok_SecaValidKeyNotificationToAppIsOk..C.3A.5C_ECU2.5CECU_Rivian_A1.5CTarget.5Crepo_projects.5CpRealEcu.5CcR_LATEST.5Cmake.5Coutput.5Cobjects.5CDcmDspUds_Seca.
                         818 	.align	2
                         819 
                         820 --_OpStatus	ep	param
                         821 
                         822 	.data
                         823 	.text
                         824 	.align	2
                         825 	.align	2
                         826 ..gh.f.f.1.e.11:
                         827 	.type	..gh.f.f.1.e.11,@object
                         828 	.size	..gh.f.f.1.e.11,0
                         829 	.global	_Dcm_Lok_SecaUnlockSecurityLvl..C.3A.5C_ECU2.5CECU_Rivian_A1.5CTarget.5Crepo_projects.5CpRealEcu.5CcR_LATEST.5Cmake.5Coutput.5Cobjects.5CDcmDspUds_Seca.
                         830 _Dcm_Lok_SecaUnlockSecurityLvl..C.3A.5C_ECU2.5CECU_Rivian_A1.5CTarget.5Crepo_projects.5CpRealEcu.5CcR_LATEST.5Cmake.5Coutput.5Cobjects.5CDcmDspUds_Seca.:
                         831 _Dcm_Lok_SecaUnlockSecurityLvl:

                                                                      Page 15
                                                              C:\Users\nhuliyap\AppData\Local\Temp\gh_000075o1.s
000002f4 8007e100        832 	prepare	{r28,r29,r31},0
000002f8 06e0            833 	mov	r6,r28
000002fa 07f0            834 	mov	r7,ep
000002fc 3d0600000000*   835 	mov	_Dcm_Lok_idxSecTab_qu8,r29
                         836 --	    .bf
                         837 .LDW23:
                         838 --line537
                         839 ..lin.C.3A.5C_ECU2.5CECU_Rivian_A1.5CTarget.5Crepo_projects.5CpRealEcu.5CcR_LATEST.5Cmake.5Coutput.5Cobjects.5CDcmDspUds_Seca.48::
                         840 .LDWlin48:
00000302 48070000        841 	st.b	zero,0[r8]
00000306 3d970100        842 	ld.w	0[r29],r18
0000030a 405e0000*       843 	movhi	hi(_Dcm_DspSecaOpStatus_u8),zero,r11
0000030e 403e0000*       844 	movhi	hi(_Dcm_Dsp_Seca+4),zero,r7
                         845 --line538
                         846 ..lin.C.3A.5C_ECU2.5CECU_Rivian_A1.5CTarget.5Crepo_projects.5CpRealEcu.5CcR_LATEST.5Cmake.5Coutput.5Cobjects.5CDcmDspUds_Seca.49::
                         847 .LDWlin49:
00000312 5d071b00        848 	st.b	zero,27[r29]
00000316 c392            849 	shl	3,r18
00000318 4b070000*       850 	st.b	zero,lo(_Dcm_DspSecaOpStatus_u8)[r11]
0000031c c791            851 	add	r7,r18
0000031e 52070000*       852 	st.b	zero,lo(_Dcm_Dsp_Seca+4)[r18]
00000322 408e0000*       853 	movhi	hi(_Dcm_DspSecAccType_u8),zero,r17
00000326 918f0100*       854 	ld.bu	lo(_Dcm_DspSecAccType_u8)[r17],r17
0000032a 0035            855 	sld.w	0[ep],r6
                         856 --line544
                         857 ..lin.C.3A.5C_ECU2.5CECU_Rivian_A1.5CTarget.5Crepo_projects.5CpRealEcu.5CcR_LATEST.5Cmake.5Coutput.5Cobjects.5CDcmDspUds_Seca.50::
                         858 .LDWlin50:
0000032c 0192            859 	mov	1,r18
0000032e 119e0100        860 	addi	1,r17,r19
00000332 469f0000        861 	st.b	r19,0[r6]
00000336 9d370100        862 	ld.bu	0[r29],r6
0000033a 0795            863 	sst.w	r18,12[ep]
                         864 	jarl	_DcmAppl_DcmSecaValidKey,lp
                         864 <EXPANSION BEGIN>
                         864 jarl22 _DcmAppl_DcmSecaValidKey , lp 
0000033c 80ff0000*       864 <EXPANSION END>
00000340 6a52            865 	cmp	10,r10
00000342 ea05*           866 	bne	.L1158
                         867 --line548
                         868 ..lin.C.3A.5C_ECU2.5CECU_Rivian_A1.5CTarget.5Crepo_projects.5CpRealEcu.5CcR_LATEST.5Cmake.5Coutput.5Cobjects.5CDcmDspUds_Seca.51::
                         869 .LDWlin51:
00000344 024a            870 	mov	2,r9
00000346 5d4f1800        871 	st.b	r9,24[r29]
0000034a 4006ff00        872 	dispose	0,{r28,r29,r31},[lp]
                         873 .L1158:
                         874 --line554
                         875 ..lin.C.3A.5C_ECU2.5CECU_Rivian_A1.5CTarget.5Crepo_projects.5CpRealEcu.5CcR_LATEST.5Cmake.5Coutput.5Cobjects.5CDcmDspUds_Seca.52::
                         876 .LDWlin52:
0000034e 1c30            877 	mov	r28,r6
                         878 	jarl	_Dcm_Lok_SecaValidKeyNotificationToAppIsOk,lp
                         878 <EXPANSION BEGIN>
                         878 jarl22 _Dcm_Lok_SecaValidKeyNotificationToAppIsOk , lp 
00000350 bfff7aff*       878 <EXPANSION END>
                         879 --	    .ef
                         880 .LDW33:
                         881 --line557
                         882 ..lin.C.3A.5C_ECU2.5CECU_Rivian_A1.5CTarget.5Crepo_projects.5CpRealEcu.5CcR_LATEST.5Cmake.5Coutput.5Cobjects.5CDcmDspUds_Seca.53::
                         883 .LDWlin53:
00000354 4006ff00        884 	dispose	0,{r28,r29,r31},[lp]
                         885 ___ghs_eofn_Dcm_Lok_SecaUnlockSecurityLvl:
                         886 	.type	_Dcm_Lok_SecaUnlockSecurityLvl,@function

                                                                      Page 16
                                                              C:\Users\nhuliyap\AppData\Local\Temp\gh_000075o1.s
                         887 	.size	_Dcm_Lok_SecaUnlockSecurityLvl,.-_Dcm_Lok_SecaUnlockSecurityLvl
                         888 	.type	_Dcm_Lok_SecaUnlockSecurityLvl..C.3A.5C_ECU2.5CECU_Rivian_A1.5CTarget.5Crepo_projects.5CpRealEcu.5CcR_LATEST.5Cmake.5Coutput.5Cobjects.5CDcmDspUds_Seca.,@function
                         889 	.size	_Dcm_Lok_SecaUnlockSecurityLvl..C.3A.5C_ECU2.5CECU_Rivian_A1.5CTarget.5Crepo_projects.5CpRealEcu.5CcR_LATEST.5Cmake.5Coutput.5Cobjects.5CDcmDspUds_Seca.,.-_Dcm_Lok_SecaUnlockSecurityLvl..C.3A.5C_ECU2.5CECU_Rivian_A1.5CTarget.5Crepo_projects.5CpRealEcu.5CcR_LATEST.5Cmake.5Coutput.5Cobjects.5CDcmDspUds_Seca.
                         890 	.align	2
                         891 
                         892 --_OpStatus	r28	param
                         893 --_pMsgContext	ep	param
                         894 --_dataNegRespCode_u8	r8	param
                         895 
                         896 	.data
                         897 	.text
                         898 	.align	2
                         899 	.align	2
                         900 ..gh.f.f.1.e.12:
                         901 	.type	..gh.f.f.1.e.12,@object
                         902 	.size	..gh.f.f.1.e.12,0
                         903 	.global	_Dcm_Lok_SecaCmpKeyFailed..C.3A.5C_ECU2.5CECU_Rivian_A1.5CTarget.5Crepo_projects.5CpRealEcu.5CcR_LATEST.5Cmake.5Coutput.5Cobjects.5CDcmDspUds_Seca.
                         904 _Dcm_Lok_SecaCmpKeyFailed..C.3A.5C_ECU2.5CECU_Rivian_A1.5CTarget.5Crepo_projects.5CpRealEcu.5CcR_LATEST.5Cmake.5Coutput.5Cobjects.5CDcmDspUds_Seca.:
                         905 _Dcm_Lok_SecaCmpKeyFailed:
00000358 8007e110        906 	prepare	{r27,r28,r29,r31},0
0000035c 06d8            907 	mov	r6,r27
0000035e 3d0600000000*   908 	mov	_Dcm_Lok_idxSecTab_qu8,r29
                         909 --	    .bf
                         910 .LDW43:
                         911 --line572
                         912 ..lin.C.3A.5C_ECU2.5CECU_Rivian_A1.5CTarget.5Crepo_projects.5CpRealEcu.5CcR_LATEST.5Cmake.5Coutput.5Cobjects.5CDcmDspUds_Seca.54::
                         913 .LDWlin54:
00000364 3d370100        914 	ld.w	0[r29],r6
00000368 310600000000*   915 	mov	_Dcm_Dsp_Seca,r17
                         916 --line570
                         917 ..lin.C.3A.5C_ECU2.5CECU_Rivian_A1.5CTarget.5Crepo_projects.5CpRealEcu.5CcR_LATEST.5Cmake.5Coutput.5Cobjects.5CDcmDspUds_Seca.55::
                         918 .LDWlin55:
0000036e 3c0600000000*   919 	mov	_Dcm_DspSecaOpStatus_u8,r28
00000374 5c070000        920 	st.b	zero,0[r28]
00000378 06f0            921 	mov	r6,ep
0000037a c3f2            922 	shl	3,ep
0000037c d1f1            923 	add	r17,ep
0000037e 6490            924 	sld.bu	4[ep],r18
00000380 120601ff        925 	addi	-255,r18,zero
00000384 c105*           926 	bl	.L1238
                         927 --line575
                         928 ..lin.C.3A.5C_ECU2.5CECU_Rivian_A1.5CTarget.5Crepo_projects.5CpRealEcu.5CcR_LATEST.5Cmake.5Coutput.5Cobjects.5CDcmDspUds_Seca.56::
                         929 .LDWlin56:
00000386 12860100        930 	addi	1,r18,r16
0000038a 8483            931 	sst.b	r16,4[ep]
                         932 .L1238:
0000038c 8600            933 	zxb	r6
                         934 	jarl	_DcmAppl_DcmSecaInvalidKey,lp
                         934 <EXPANSION BEGIN>
                         934 jarl22 _DcmAppl_DcmSecaInvalidKey , lp 
0000038e 80ff0000*       934 <EXPANSION END>
00000392 6a52            935 	cmp	10,r10
00000394 ea05*           936 	bne	.L1240
                         937 --line580
                         938 ..lin.C.3A.5C_ECU2.5CECU_Rivian_A1.5CTarget.5Crepo_projects.5CpRealEcu.5CcR_LATEST.5Cmake.5Coutput.5Cobjects.5CDcmDspUds_Seca.57::
                         939 .LDWlin57:
00000396 029a            940 	mov	2,r19
00000398 5d9f1800        941 	st.b	r19,24[r29]
0000039c 4006ff10        942 	dispose	0,{r27,r28,r29,r31},[lp]
                         943 .L1240:
                         944 --line617

                                                                      Page 17
                                                              C:\Users\nhuliyap\AppData\Local\Temp\gh_000075o1.s
                         945 ..lin.C.3A.5C_ECU2.5CECU_Rivian_A1.5CTarget.5Crepo_projects.5CpRealEcu.5CcR_LATEST.5Cmake.5Coutput.5Cobjects.5CDcmDspUds_Seca.58::
                         946 .LDWlin58:
000003a0 9d971b00        947 	ld.bu	26[r29],r18
000003a4 6a92            948 	cmp	10,r18
000003a6 aa0d*           949 	bne	.L1243
                         950 --line619
                         951 ..lin.C.3A.5C_ECU2.5CECU_Rivian_A1.5CTarget.5Crepo_projects.5CpRealEcu.5CcR_LATEST.5Cmake.5Coutput.5Cobjects.5CDcmDspUds_Seca.59::
                         952 .LDWlin59:
000003a8 019a            953 	mov	1,r19
000003aa 1df0            954 	mov	r29,ep
000003ac 028a            955 	mov	2,r17
000003ae 9c9b            956 	sst.b	r19,28[ep]
000003b0 988b            957 	sst.b	r17,24[ep]
000003b2 5c9f0000        958 	st.b	r19,0[r28]
000003b6 4006ff10        959 	dispose	0,{r27,r28,r29,r31},[lp]
                         960 .L1243:
                         961 --line625
                         962 ..lin.C.3A.5C_ECU2.5CECU_Rivian_A1.5CTarget.5Crepo_projects.5CpRealEcu.5CcR_LATEST.5Cmake.5Coutput.5Cobjects.5CDcmDspUds_Seca.60::
                         963 .LDWlin60:
000003ba 0582            964 	mov	5,r16
000003bc 5b870000        965 	st.b	r16,0[r27]
                         966 --	    .ef
                         967 .LDW53:
000003c0 4006ff10        968 	dispose	0,{r27,r28,r29,r31},[lp]
                         969 ___ghs_eofn_Dcm_Lok_SecaCmpKeyFailed:
                         970 	.type	_Dcm_Lok_SecaCmpKeyFailed,@function
                         971 	.size	_Dcm_Lok_SecaCmpKeyFailed,.-_Dcm_Lok_SecaCmpKeyFailed
                         972 	.type	_Dcm_Lok_SecaCmpKeyFailed..C.3A.5C_ECU2.5CECU_Rivian_A1.5CTarget.5Crepo_projects.5CpRealEcu.5CcR_LATEST.5Cmake.5Coutput.5Cobjects.5CDcmDspUds_Seca.,@function
                         973 	.size	_Dcm_Lok_SecaCmpKeyFailed..C.3A.5C_ECU2.5CECU_Rivian_A1.5CTarget.5Crepo_projects.5CpRealEcu.5CcR_LATEST.5Cmake.5Coutput.5Cobjects.5CDcmDspUds_Seca.,.-_Dcm_Lok_SecaCmpKeyFailed..C.3A.5C_ECU2.5CECU_Rivian_A1.5CTarget.5Crepo_projects.5CpRealEcu.5CcR_LATEST.5Cmake.5Coutput.5Cobjects.5CDcmDspUds_Seca.
                         974 	.align	2
                         975 
                         976 --_OpStatus	r27	param
                         977 
                         978 	.data
                         979 	.text
                         980 	.align	2
                         981 	.align	2
                         982 ..gh.f.f.1.e.13:
                         983 	.type	..gh.f.f.1.e.13,@object
                         984 	.size	..gh.f.f.1.e.13,0
                         985 	.global	_Dcm_Lok_SecaCmpKeyNotOk..C.3A.5C_ECU2.5CECU_Rivian_A1.5CTarget.5Crepo_projects.5CpRealEcu.5CcR_LATEST.5Cmake.5Coutput.5Cobjects.5CDcmDspUds_Seca.
                         986 _Dcm_Lok_SecaCmpKeyNotOk..C.3A.5C_ECU2.5CECU_Rivian_A1.5CTarget.5Crepo_projects.5CpRealEcu.5CcR_LATEST.5Cmake.5Coutput.5Cobjects.5CDcmDspUds_Seca.:
                         987 _Dcm_Lok_SecaCmpKeyNotOk:
000003c4 06f0            988 	mov	r6,ep
                         989 --	    .bf
                         990 .LDW63:
000003c6 405e0000*       991 	movhi	hi(_Dcm_DspSecaOpStatus_u8),zero,r11
000003ca 4b070000*       992 	st.b	zero,lo(_Dcm_DspSecaOpStatus_u8)[r11]
                         993 --line634
                         994 ..lin.C.3A.5C_ECU2.5CECU_Rivian_A1.5CTarget.5Crepo_projects.5CpRealEcu.5CcR_LATEST.5Cmake.5Coutput.5Cobjects.5CDcmDspUds_Seca.61::
                         995 .LDWlin61:
000003ce 0592            996 	mov	5,r18
000003d0 8093            997 	sst.b	r18,0[ep]
                         998 --	    .ef
                         999 .LDW73:
000003d2 7f00           1000 	jmp	[lp]
                        1001 ___ghs_eofn_Dcm_Lok_SecaCmpKeyNotOk:
                        1002 	.type	_Dcm_Lok_SecaCmpKeyNotOk,@function
                        1003 	.size	_Dcm_Lok_SecaCmpKeyNotOk,.-_Dcm_Lok_SecaCmpKeyNotOk
                        1004 	.type	_Dcm_Lok_SecaCmpKeyNotOk..C.3A.5C_ECU2.5CECU_Rivian_A1.5CTarget.5Crepo_projects.5CpRealEcu.5CcR_LATEST.5Cmake.5Coutput.5Cobjects.5CDcmDspUds_Seca.,@function
                        1005 	.size	_Dcm_Lok_SecaCmpKeyNotOk..C.3A.5C_ECU2.5CECU_Rivian_A1.5CTarget.5Crepo_projects.5CpRealEcu.5CcR_LATEST.5Cmake.5Coutput.5Cobjects.5CDcmDspUds_Seca.,.-_Dcm_Lok_SecaCmpKeyNotOk..C.3A.5C_ECU2.5CECU_Rivian_A1.5CTarget.5Crepo_projects.5CpRealEcu.5CcR_LATEST.5Cmake.5Coutput.5Cobjects.5CDcmDspUds_Seca.

                                                                      Page 18
                                                              C:\Users\nhuliyap\AppData\Local\Temp\gh_000075o1.s
                        1006 	.align	2
                        1007 
                        1008 --_OpStatus	ep	param
                        1009 
                        1010 	.section ".bss","awb"
                        1011 .L1393:
                        1012 	.type	.L1393,@object
                        1013 	.size	.L1393,0
                        1014 	.data
                        1015 	.text
                        1016 	.align	2
                        1017 	.align	2
                        1018 ..gh.f.f.1.e.14:
                        1019 	.type	..gh.f.f.1.e.14,@object
                        1020 	.size	..gh.f.f.1.e.14,0
                        1021 	.global	_Dcm_Lok_SecaCmpKeyNegResp..C.3A.5C_ECU2.5CECU_Rivian_A1.5CTarget.5Crepo_projects.5CpRealEcu.5CcR_LATEST.5Cmake.5Coutput.5Cobjects.5CDcmDspUds_Seca.
                        1022 _Dcm_Lok_SecaCmpKeyNegResp..C.3A.5C_ECU2.5CECU_Rivian_A1.5CTarget.5Crepo_projects.5CpRealEcu.5CcR_LATEST.5Cmake.5Coutput.5Cobjects.5CDcmDspUds_Seca.:
                        1023 _Dcm_Lok_SecaCmpKeyNegResp:
000003d4 06f0           1024 	mov	r6,ep
                        1025 --	    .bf
                        1026 .LDW83:
000003d6 6090           1027 	sld.bu	0[ep],r18
000003d8 e091           1028 	cmp	zero,r18
000003da ca05*          1029 	bne	.L1413
                        1030 --line643
                        1031 ..lin.C.3A.5C_ECU2.5CECU_Rivian_A1.5CTarget.5Crepo_projects.5CpRealEcu.5CcR_LATEST.5Cmake.5Coutput.5Cobjects.5CDcmDspUds_Seca.62::
                        1032 .LDWlin62:
000003dc 208e2200       1033 	movea	34,zero,r17
000003e0 808b           1034 	sst.b	r17,0[ep]
                        1035 .L1413:
000003e2 405e0000*      1036 	movhi	hi(_Dcm_DspSecaOpStatus_u8),zero,r11
000003e6 4b070000*      1037 	st.b	zero,lo(_Dcm_DspSecaOpStatus_u8)[r11]
                        1038 --	    .ef
                        1039 .LDW93:
                        1040 --line646
                        1041 ..lin.C.3A.5C_ECU2.5CECU_Rivian_A1.5CTarget.5Crepo_projects.5CpRealEcu.5CcR_LATEST.5Cmake.5Coutput.5Cobjects.5CDcmDspUds_Seca.63::
                        1042 .LDWlin63:
000003ea 7f00           1043 	jmp	[lp]
                        1044 ___ghs_eofn_Dcm_Lok_SecaCmpKeyNegResp:
                        1045 	.type	_Dcm_Lok_SecaCmpKeyNegResp,@function
                        1046 	.size	_Dcm_Lok_SecaCmpKeyNegResp,.-_Dcm_Lok_SecaCmpKeyNegResp
                        1047 	.type	_Dcm_Lok_SecaCmpKeyNegResp..C.3A.5C_ECU2.5CECU_Rivian_A1.5CTarget.5Crepo_projects.5CpRealEcu.5CcR_LATEST.5Cmake.5Coutput.5Cobjects.5CDcmDspUds_Seca.,@function
                        1048 	.size	_Dcm_Lok_SecaCmpKeyNegResp..C.3A.5C_ECU2.5CECU_Rivian_A1.5CTarget.5Crepo_projects.5CpRealEcu.5CcR_LATEST.5Cmake.5Coutput.5Cobjects.5CDcmDspUds_Seca.,.-_Dcm_Lok_SecaCmpKeyNegResp..C.3A.5C_ECU2.5CECU_Rivian_A1.5CTarget.5Crepo_projects.5CpRealEcu.5CcR_LATEST.5Cmake.5Coutput.5Cobjects.5CDcmDspUds_Seca.
                        1049 	.align	2
                        1050 
                        1051 --_dataNegRespCode_u8	ep	param
                        1052 
                        1053 	.section ".bss","awb"
                        1054 .L1451:
                        1055 	.type	.L1451,@object
                        1056 	.size	.L1451,0
                        1057 	.data
                        1058 	.text
                        1059 	.align	2
                        1060 	.align	2
                        1061 ..gh.f.f.1.e.15:
                        1062 	.type	..gh.f.f.1.e.15,@object
                        1063 	.size	..gh.f.f.1.e.15,0
                        1064 	.global	_Dcm_Lok_SecaCmpKeyStatusChk..C.3A.5C_ECU2.5CECU_Rivian_A1.5CTarget.5Crepo_projects.5CpRealEcu.5CcR_LATEST.5Cmake.5Coutput.5Cobjects.5CDcmDspUds_Seca.
                        1065 _Dcm_Lok_SecaCmpKeyStatusChk..C.3A.5C_ECU2.5CECU_Rivian_A1.5CTarget.5Crepo_projects.5CpRealEcu.5CcR_LATEST.5Cmake.5Coutput.5Cobjects.5CDcmDspUds_Seca.:
                        1066 _Dcm_Lok_SecaCmpKeyStatusChk:

                                                                      Page 19
                                                              C:\Users\nhuliyap\AppData\Local\Temp\gh_000075o1.s
                        1067 --	    .bf
                        1068 .LDW04:
000003ec 40960000*      1069 	movhi	hi(_Dcm_Lok_stCmpKey_u8),zero,r18
000003f0 92970100*      1070 	ld.bu	lo(_Dcm_Lok_stCmpKey_u8)[r18],r18
000003f4 e091           1071 	cmp	zero,r18
000003f6 ba05*          1072 	bne	.L1489
000003f8 bf07fcfe*      1073 	jr	_Dcm_Lok_SecaUnlockSecurityLvl
                        1074 .L1489:
                        1075 --line657
                        1076 ..lin.C.3A.5C_ECU2.5CECU_Rivian_A1.5CTarget.5Crepo_projects.5CpRealEcu.5CcR_LATEST.5Cmake.5Coutput.5Cobjects.5CDcmDspUds_Seca.64::
                        1077 .LDWlin64:
000003fc 6a92           1078 	cmp	10,r18
000003fe ca05*          1079 	bne	.L1492
                        1080 --line659
                        1081 ..lin.C.3A.5C_ECU2.5CECU_Rivian_A1.5CTarget.5Crepo_projects.5CpRealEcu.5CcR_LATEST.5Cmake.5Coutput.5Cobjects.5CDcmDspUds_Seca.65::
                        1082 .LDWlin65:
00000400 0830           1083 	mov	r8,r6
00000402 bf0774fe*      1084 	jr	_Dcm_Lok_SecaCmpKeyPnding
                        1085 .L1492:
                        1086 --line661
                        1087 ..lin.C.3A.5C_ECU2.5CECU_Rivian_A1.5CTarget.5Crepo_projects.5CpRealEcu.5CcR_LATEST.5Cmake.5Coutput.5Cobjects.5CDcmDspUds_Seca.66::
                        1088 .LDWlin66:
00000406 6192           1089 	cmp	1,r18
00000408 ba05*          1090 	bne	.L1495
0000040a bf07baff*      1091 	jr	_Dcm_Lok_SecaCmpKeyNotOk
                        1092 .L1495:
                        1093 --line665
                        1094 ..lin.C.3A.5C_ECU2.5CECU_Rivian_A1.5CTarget.5Crepo_projects.5CpRealEcu.5CcR_LATEST.5Cmake.5Coutput.5Cobjects.5CDcmDspUds_Seca.67::
                        1095 .LDWlin67:
0000040e 6b92           1096 	cmp	11,r18
00000410 ba05*          1097 	bne	.L1498
00000412 bf0746ff*      1098 	jr	_Dcm_Lok_SecaCmpKeyFailed
                        1099 .L1498:
                        1100 --line674
                        1101 ..lin.C.3A.5C_ECU2.5CECU_Rivian_A1.5CTarget.5Crepo_projects.5CpRealEcu.5CcR_LATEST.5Cmake.5Coutput.5Cobjects.5CDcmDspUds_Seca.68::
                        1102 .LDWlin68:
00000416 0830           1103 	mov	r8,r6
00000418 bf07bcff*      1104 	jr	_Dcm_Lok_SecaCmpKeyNegResp
                        1105 --	    .ef
                        1106 .LDW14:
                        1107 ..lin.C.3A.5C_ECU2.5CECU_Rivian_A1.5CTarget.5Crepo_projects.5CpRealEcu.5CcR_LATEST.5Cmake.5Coutput.5Cobjects.5CDcmDspUds_Seca.69::
                        1108 .LDWlin69:
                        1109 ___ghs_eofn_Dcm_Lok_SecaCmpKeyStatusChk:
                        1110 	.type	_Dcm_Lok_SecaCmpKeyStatusChk,@function
                        1111 	.size	_Dcm_Lok_SecaCmpKeyStatusChk,.-_Dcm_Lok_SecaCmpKeyStatusChk
                        1112 	.type	_Dcm_Lok_SecaCmpKeyStatusChk..C.3A.5C_ECU2.5CECU_Rivian_A1.5CTarget.5Crepo_projects.5CpRealEcu.5CcR_LATEST.5Cmake.5Coutput.5Cobjects.5CDcmDspUds_Seca.,@function
                        1113 	.size	_Dcm_Lok_SecaCmpKeyStatusChk..C.3A.5C_ECU2.5CECU_Rivian_A1.5CTarget.5Crepo_projects.5CpRealEcu.5CcR_LATEST.5Cmake.5Coutput.5Cobjects.5CDcmDspUds_Seca.,.-_Dcm_Lok_SecaCmpKeyStatusChk..C.3A.5C_ECU2.5CECU_Rivian_A1.5CTarget.5Crepo_projects.5CpRealEcu.5CcR_LATEST.5Cmake.5Coutput.5Cobjects.5CDcmDspUds_Seca.
                        1114 	.align	2
                        1115 
                        1116 --_OpStatus	r6	param
                        1117 --_pMsgContext	r7	param
                        1118 --_dataNegRespCode_u8	r8	param
                        1119 
                        1120 	.data
                        1121 	.text
                        1122 	.align	2
                        1123 	.align	2
                        1124 ..gh.f.f.1.e.16:
                        1125 	.type	..gh.f.f.1.e.16,@object
                        1126 	.size	..gh.f.f.1.e.16,0
                        1127 	.global	_Dcm_Lok_SecaCmpKey..C.3A.5C_ECU2.5CECU_Rivian_A1.5CTarget.5Crepo_projects.5CpRealEcu.5CcR_LATEST.5Cmake.5Coutput.5Cobjects.5CDcmDspUds_Seca.

                                                                      Page 20
                                                              C:\Users\nhuliyap\AppData\Local\Temp\gh_000075o1.s
                        1128 _Dcm_Lok_SecaCmpKey..C.3A.5C_ECU2.5CECU_Rivian_A1.5CTarget.5Crepo_projects.5CpRealEcu.5CcR_LATEST.5Cmake.5Coutput.5Cobjects.5CDcmDspUds_Seca.:
                        1129 _Dcm_Lok_SecaCmpKey:
0000041c 8007e130       1130 	prepare	{r26,r27,r28,r29,r31},0
00000420 06d0           1131 	mov	r6,r26
00000422 07d8           1132 	mov	r7,r27
00000424 08e0           1133 	mov	r8,r28
00000426 3d0600000000*  1134 	mov	_Dcm_Lok_idxSecTab_qu8,r29
                        1135 --	    .bf
                        1136 .LDW24:
                        1137 --line683
                        1138 ..lin.C.3A.5C_ECU2.5CECU_Rivian_A1.5CTarget.5Crepo_projects.5CpRealEcu.5CcR_LATEST.5Cmake.5Coutput.5Cobjects.5CDcmDspUds_Seca.70::
                        1139 .LDWlin70:
0000042c 40860000*      1140 	movhi	hi(_Dcm_DspSecAccType_u8),zero,r16
00000430 90870100*      1141 	ld.bu	lo(_Dcm_DspSecAccType_u8)[r16],r16
                        1142 --line685
                        1143 ..lin.C.3A.5C_ECU2.5CECU_Rivian_A1.5CTarget.5Crepo_projects.5CpRealEcu.5CcR_LATEST.5Cmake.5Coutput.5Cobjects.5CDcmDspUds_Seca.71::
                        1144 .LDWlin71:
00000434 408e0000*      1145 	movhi	hi(_Dcm_DspSecTabIdx_u8),zero,r17
00000438 918f0100*      1146 	ld.bu	lo(_Dcm_DspSecTabIdx_u8)[r17],r17
0000043c 1df0           1147 	mov	r29,ep
0000043e 10960100       1148 	addi	1,r16,r18
00000442 8192           1149 	shr	1,r18
00000444 9593           1150 	sst.b	r18,21[ep]
00000446 018d           1151 	sst.w	r17,0[ep]
                        1152 --line687
                        1153 ..lin.C.3A.5C_ECU2.5CECU_Rivian_A1.5CTarget.5Crepo_projects.5CpRealEcu.5CcR_LATEST.5Cmake.5Coutput.5Cobjects.5CDcmDspUds_Seca.72::
                        1154 .LDWlin72:
00000448 f1f62800       1155 	mulhi	40,r17,ep
0000044c 300600000000*  1156 	mov	_Dcm_Dsp_Security,r16
                        1157 --line693
                        1158 ..lin.C.3A.5C_ECU2.5CECU_Rivian_A1.5CTarget.5Crepo_projects.5CpRealEcu.5CcR_LATEST.5Cmake.5Coutput.5Cobjects.5CDcmDspUds_Seca.73::
                        1159 .LDWlin73:
00000452 0730           1160 	mov	r7,r6
00000454 0838           1161 	mov	r8,r7
00000456 d0f1           1162 	add	r16,ep
00000458 067d           1163 	sld.w	12[ep],r15
0000045a 7df70500       1164 	st.w	ep,4[r29]
0000045e 1df0           1165 	mov	r29,ep
00000460 9c03           1166 	sst.b	zero,28[ep]
00000462 057d           1167 	sst.w	r15,8[ep]
                        1168 	jarl	_Dcm_Lok_SecaCheckdataStValidKeyChk,lp
                        1168 <EXPANSION BEGIN>
                        1168 jarl22 _Dcm_Lok_SecaCheckdataStValidKeyChk , lp 
00000464 bfff2cfe*      1168 <EXPANSION END>
                        1169 --line695
                        1170 ..lin.C.3A.5C_ECU2.5CECU_Rivian_A1.5CTarget.5Crepo_projects.5CpRealEcu.5CcR_LATEST.5Cmake.5Coutput.5Cobjects.5CDcmDspUds_Seca.74::
                        1171 .LDWlin74:
00000468 9d371500       1172 	ld.bu	20[r29],r6
                        1173 	jarl	_Dcm_IsInfrastructureErrorPresent_b,lp
                        1173 <EXPANSION BEGIN>
                        1173 jarl22 _Dcm_IsInfrastructureErrorPresent_b , lp 
0000046c 80ff0000*      1173 <EXPANSION END>
00000470 e051           1174 	cmp	zero,r10
00000472 8215*          1175 	be	.L1662
00000474 3df70500       1176 	ld.w	4[r29],ep
00000478 244b           1177 	sld.b	36[ep],r9
0000047a e049           1178 	cmp	zero,r9
0000047c ba0d*          1179 	bne	.L1662
                        1180 --line699
                        1181 ..lin.C.3A.5C_ECU2.5CECU_Rivian_A1.5CTarget.5Crepo_projects.5CpRealEcu.5CcR_LATEST.5Cmake.5Coutput.5Cobjects.5CDcmDspUds_Seca.75::
                        1182 .LDWlin75:

                                                                      Page 21
                                                              C:\Users\nhuliyap\AppData\Local\Temp\gh_000075o1.s
0000047e 20461000       1183 	movea	16,zero,r8
00000482 5c470000       1184 	st.b	r8,0[r28]
00000486 405e0000*      1185 	movhi	hi(_Dcm_DspSecaOpStatus_u8),zero,r11
0000048a 4b070000*      1186 	st.b	zero,lo(_Dcm_DspSecaOpStatus_u8)[r11]
0000048e 4006ff30       1187 	dispose	0,{r26,r27,r28,r29,r31},[lp]
                        1188 .L1662:
                        1189 --line704
                        1190 ..lin.C.3A.5C_ECU2.5CECU_Rivian_A1.5CTarget.5Crepo_projects.5CpRealEcu.5CcR_LATEST.5Cmake.5Coutput.5Cobjects.5CDcmDspUds_Seca.76::
                        1191 .LDWlin76:
00000492 1a30           1192 	mov	r26,r6
00000494 1b38           1193 	mov	r27,r7
00000496 1c40           1194 	mov	r28,r8
                        1195 	jarl	_Dcm_Lok_SecaCmpKeyStatusChk,lp
                        1195 <EXPANSION BEGIN>
                        1195 jarl22 _Dcm_Lok_SecaCmpKeyStatusChk , lp 
00000498 bfff54ff*      1195 <EXPANSION END>
                        1196 --	    .ef
                        1197 .LDW34:
                        1198 --line706
                        1199 ..lin.C.3A.5C_ECU2.5CECU_Rivian_A1.5CTarget.5Crepo_projects.5CpRealEcu.5CcR_LATEST.5Cmake.5Coutput.5Cobjects.5CDcmDspUds_Seca.77::
                        1200 .LDWlin77:
0000049c 4006ff30       1201 	dispose	0,{r26,r27,r28,r29,r31},[lp]
                        1202 ___ghs_eofn_Dcm_Lok_SecaCmpKey:
                        1203 	.type	_Dcm_Lok_SecaCmpKey,@function
                        1204 	.size	_Dcm_Lok_SecaCmpKey,.-_Dcm_Lok_SecaCmpKey
                        1205 	.type	_Dcm_Lok_SecaCmpKey..C.3A.5C_ECU2.5CECU_Rivian_A1.5CTarget.5Crepo_projects.5CpRealEcu.5CcR_LATEST.5Cmake.5Coutput.5Cobjects.5CDcmDspUds_Seca.,@function
                        1206 	.size	_Dcm_Lok_SecaCmpKey..C.3A.5C_ECU2.5CECU_Rivian_A1.5CTarget.5Crepo_projects.5CpRealEcu.5CcR_LATEST.5Cmake.5Coutput.5Cobjects.5CDcmDspUds_Seca.,.-_Dcm_Lok_SecaCmpKey..C.3A.5C_ECU2.5CECU_Rivian_A1.5CTarget.5Crepo_projects.5CpRealEcu.5CcR_LATEST.5Cmake.5Coutput.5Cobjects.5CDcmDspUds_Seca.
                        1207 	.align	2
                        1208 
                        1209 --_OpStatus	r26	param
                        1210 --_pMsgContext	r27	param
                        1211 --_dataNegRespCode_u8	r28	param
                        1212 
                        1213 	.data
                        1214 	.text
                        1215 	.align	2
                        1216 	.align	2
                        1217 ..gh.f.f.1.e.17:
                        1218 	.type	..gh.f.f.1.e.17,@object
                        1219 	.size	..gh.f.f.1.e.17,0
                        1220 	.global	_Dcm_Lok_GenerateSeedAsynchFnc..C.3A.5C_ECU2.5CECU_Rivian_A1.5CTarget.5Crepo_projects.5CpRealEcu.5CcR_LATEST.5Cmake.5Coutput.5Cobjects.5CDcmDspUds_Seca.
                        1221 _Dcm_Lok_GenerateSeedAsynchFnc..C.3A.5C_ECU2.5CECU_Rivian_A1.5CTarget.5Crepo_projects.5CpRealEcu.5CcR_LATEST.5Cmake.5Coutput.5Cobjects.5CDcmDspUds_Seca.:
                        1222 _Dcm_Lok_GenerateSeedAsynchFnc:
000004a0 8607e100       1223 	prepare	{r28,r29,r31},3
000004a4 0690           1224 	mov	r6,r18
000004a6 0798           1225 	mov	r7,r19
000004a8 3d0600000000*  1226 	mov	_Dcm_Lok_ptrSecurityConfig_p,r29
                        1227 --	    .bf
                        1228 .LDW44:
                        1229 --line805
                        1230 ..lin.C.3A.5C_ECU2.5CECU_Rivian_A1.5CTarget.5Crepo_projects.5CpRealEcu.5CcR_LATEST.5Cmake.5Coutput.5Cobjects.5CDcmDspUds_Seca.78::
                        1231 .LDWlin78:
000004ae 3df70100       1232 	ld.w	0[r29],ep
000004b2 248b           1233 	sld.b	36[ep],r17
000004b4 618a           1234 	cmp	1,r17
000004b6 aa2d*          1235 	bne	.L1762
                        1236 --line807
                        1237 ..lin.C.3A.5C_ECU2.5CECU_Rivian_A1.5CTarget.5Crepo_projects.5CpRealEcu.5CcR_LATEST.5Cmake.5Coutput.5Cobjects.5CDcmDspUds_Seca.79::
                        1238 .LDWlin79:
000004b8 32970100       1239 	ld.w	0[r18],r18
000004bc 1045           1240 	sld.w	32[ep],r8

                                                                      Page 22
                                                              C:\Users\nhuliyap\AppData\Local\Temp\gh_000075o1.s
000004be 3d3f0900       1241 	ld.w	8[r29],r7
000004c2 bd371100       1242 	ld.bu	17[r29],r6
000004c6 310600000000*  1243 	mov	_Dcm_DspSecaOpStatus_u8,r17
000004cc e041           1244 	cmp	zero,r8
000004ce 8215*          1245 	be	.L1766
                        1246 --line811
                        1247 ..lin.C.3A.5C_ECU2.5CECU_Rivian_A1.5CTarget.5Crepo_projects.5CpRealEcu.5CcR_LATEST.5Cmake.5Coutput.5Cobjects.5CDcmDspUds_Seca.80::
                        1248 .LDWlin80:
000004d0 917f0100       1249 	ld.bu	0[r17],r15
000004d4 12860100       1250 	addi	1,r18,r16
000004d8 63870100       1251 	st.w	r16,0[sp]
000004dc 639f0900       1252 	st.w	r19,8[sp]
000004e0 637f0500       1253 	st.w	r15,4[sp]
000004e4 290600000000*  1254 	mov	_Dcm_InParameterBuf_au8,r9
000004ea 04e5           1255 	sld.w	8[ep],r28
000004ec b50d*          1256 	br	.L1790
                        1257 .L1766:
                        1258 --line823
                        1259 ..lin.C.3A.5C_ECU2.5CECU_Rivian_A1.5CTarget.5Crepo_projects.5CpRealEcu.5CcR_LATEST.5Cmake.5Coutput.5Cobjects.5CDcmDspUds_Seca.81::
                        1260 .LDWlin81:
000004ee 3de70500       1261 	ld.w	4[r29],r28
000004f2 0848           1262 	mov	r8,r9
000004f4 91770100       1263 	ld.bu	0[r17],r14
000004f8 03f0           1264 	mov	sp,ep
000004fa 4192           1265 	add	1,r18
000004fc 059d           1266 	sst.w	r19,8[ep]
000004fe 0375           1267 	sst.w	r14,4[ep]
00000500 0195           1268 	sst.w	r18,0[ep]
                        1269 .L1790:
00000502 fcc760f9       1270 	jarl	[r28],lp
00000506 5d571500       1271 	st.b	r10,21[r29]
                        1272 .L1762:
                        1273 --	    .ef
                        1274 .LDW54:
                        1275 --line833
                        1276 ..lin.C.3A.5C_ECU2.5CECU_Rivian_A1.5CTarget.5Crepo_projects.5CpRealEcu.5CcR_LATEST.5Cmake.5Coutput.5Cobjects.5CDcmDspUds_Seca.82::
                        1277 .LDWlin82:
0000050a 4606ff00       1278 	dispose	3,{r28,r29,r31},[lp]
                        1279 ___ghs_eofn_Dcm_Lok_GenerateSeedAsynchFnc:
                        1280 	.type	_Dcm_Lok_GenerateSeedAsynchFnc,@function
                        1281 	.size	_Dcm_Lok_GenerateSeedAsynchFnc,.-_Dcm_Lok_GenerateSeedAsynchFnc
                        1282 	.type	_Dcm_Lok_GenerateSeedAsynchFnc..C.3A.5C_ECU2.5CECU_Rivian_A1.5CTarget.5Crepo_projects.5CpRealEcu.5CcR_LATEST.5Cmake.5Coutput.5Cobjects.5CDcmDspUds_Seca.,@function
                        1283 	.size	_Dcm_Lok_GenerateSeedAsynchFnc..C.3A.5C_ECU2.5CECU_Rivian_A1.5CTarget.5Crepo_projects.5CpRealEcu.5CcR_LATEST.5Cmake.5Coutput.5Cobjects.5CDcmDspUds_Seca.,.-_Dcm_Lok_GenerateSeedAsynchFnc..C.3A.5C_ECU2.5CECU_Rivian_A1.5CTarget.5Crepo_projects.5CpRealEcu.5CcR_LATEST.5Cmake.5Coutput.5Cobjects.5CDcmDspUds_Seca.
                        1284 	.align	2
                        1285 
                        1286 --_pMsgContext	r18	param
                        1287 --_dataNegRespCode_u8	r19	param
                        1288 
                        1289 	.data
                        1290 	.text
                        1291 	.align	2
                        1292 	.align	2
                        1293 ..gh.f.f.1.e.18:
                        1294 	.type	..gh.f.f.1.e.18,@object
                        1295 	.size	..gh.f.f.1.e.18,0
                        1296 	.global	_Dcm_Lok_GetSeedReturnedWoError..C.3A.5C_ECU2.5CECU_Rivian_A1.5CTarget.5Crepo_projects.5CpRealEcu.5CcR_LATEST.5Cmake.5Coutput.5Cobjects.5CDcmDspUds_Seca.
                        1297 _Dcm_Lok_GetSeedReturnedWoError..C.3A.5C_ECU2.5CECU_Rivian_A1.5CTarget.5Crepo_projects.5CpRealEcu.5CcR_LATEST.5Cmake.5Coutput.5Cobjects.5CDcmDspUds_Seca.:
                        1298 _Dcm_Lok_GetSeedReturnedWoError:
0000050e 07f0           1299 	mov	r7,ep
00000510 320600000000*  1300 	mov	_Dcm_Lok_nrSeedLen_u32,r18
                        1301 --	    .bf

                                                                      Page 23
                                                              C:\Users\nhuliyap\AppData\Local\Temp\gh_000075o1.s
                        1302 .LDW64:
                        1303 --line845
                        1304 ..lin.C.3A.5C_ECU2.5CECU_Rivian_A1.5CTarget.5Crepo_projects.5CpRealEcu.5CcR_LATEST.5Cmake.5Coutput.5Cobjects.5CDcmDspUds_Seca.83::
                        1305 .LDWlin83:
00000516 48070000       1306 	st.b	zero,0[r8]
0000051a 409e0000*      1307 	movhi	hi(_Dcm_DspSecAccType_u8),zero,r19
0000051e 003d           1308 	sld.w	0[ep],r7
00000520 939f0100*      1309 	ld.bu	lo(_Dcm_DspSecAccType_u8)[r19],r19
                        1310 --line846
                        1311 ..lin.C.3A.5C_ECU2.5CECU_Rivian_A1.5CTarget.5Crepo_projects.5CpRealEcu.5CcR_LATEST.5Cmake.5Coutput.5Cobjects.5CDcmDspUds_Seca.84::
                        1312 .LDWlin84:
00000524 405e0000*      1313 	movhi	hi(_Dcm_DspSecaOpStatus_u8),zero,r11
00000528 4b070000*      1314 	st.b	zero,lo(_Dcm_DspSecaOpStatus_u8)[r11]
0000052c 479f0000       1315 	st.b	r19,0[r7]
                        1316 --line849
                        1317 ..lin.C.3A.5C_ECU2.5CECU_Rivian_A1.5CTarget.5Crepo_projects.5CpRealEcu.5CcR_LATEST.5Cmake.5Coutput.5Cobjects.5CDcmDspUds_Seca.85::
                        1318 .LDWlin85:
00000530 328f0100       1319 	ld.w	0[r18],r17
00000534 418a           1320 	add	1,r17
00000536 078d           1321 	sst.w	r17,12[ep]
00000538 46070000       1322 	st.b	zero,0[r6]
0000053c 52070f00       1323 	st.b	zero,15[r18]
                        1324 --	    .ef
                        1325 .LDW74:
00000540 7f00           1326 	jmp	[lp]
                        1327 ___ghs_eofn_Dcm_Lok_GetSeedReturnedWoError:
                        1328 	.type	_Dcm_Lok_GetSeedReturnedWoError,@function
                        1329 	.size	_Dcm_Lok_GetSeedReturnedWoError,.-_Dcm_Lok_GetSeedReturnedWoError
                        1330 	.type	_Dcm_Lok_GetSeedReturnedWoError..C.3A.5C_ECU2.5CECU_Rivian_A1.5CTarget.5Crepo_projects.5CpRealEcu.5CcR_LATEST.5Cmake.5Coutput.5Cobjects.5CDcmDspUds_Seca.,@function
                        1331 	.size	_Dcm_Lok_GetSeedReturnedWoError..C.3A.5C_ECU2.5CECU_Rivian_A1.5CTarget.5Crepo_projects.5CpRealEcu.5CcR_LATEST.5Cmake.5Coutput.5Cobjects.5CDcmDspUds_Seca.,.-_Dcm_Lok_GetSeedReturnedWoError..C.3A.5C_ECU2.5CECU_Rivian_A1.5CTarget.5Crepo_projects.5CpRealEcu.5CcR_LATEST.5Cmake.5Coutput.5Cobjects.5CDcmDspUds_Seca.
                        1332 	.align	2
                        1333 
                        1334 --_OpStatus	r6	param
                        1335 --_pMsgContext	ep	param
                        1336 --_dataNegRespCode_u8	r8	param
                        1337 
                        1338 	.data
                        1339 	.text
                        1340 	.align	2
                        1341 	.align	2
                        1342 ..gh.f.f.1.e.19:
                        1343 	.type	..gh.f.f.1.e.19,@object
                        1344 	.size	..gh.f.f.1.e.19,0
                        1345 	.global	_Dcm_Lok_SecaGenSeed..C.3A.5C_ECU2.5CECU_Rivian_A1.5CTarget.5Crepo_projects.5CpRealEcu.5CcR_LATEST.5Cmake.5Coutput.5Cobjects.5CDcmDspUds_Seca.
                        1346 _Dcm_Lok_SecaGenSeed..C.3A.5C_ECU2.5CECU_Rivian_A1.5CTarget.5Crepo_projects.5CpRealEcu.5CcR_LATEST.5Cmake.5Coutput.5Cobjects.5CDcmDspUds_Seca.:
                        1347 _Dcm_Lok_SecaGenSeed:
00000542 8007e110       1348 	prepare	{r27,r28,r29,r31},0
00000546 06d8           1349 	mov	r6,r27
00000548 07e0           1350 	mov	r7,r28
0000054a 3d0600000000*  1351 	mov	_Dcm_Lok_ptrSecurityConfig_p,r29
                        1352 --	    .bf
                        1353 .LDW84:
                        1354 --line867
                        1355 ..lin.C.3A.5C_ECU2.5CECU_Rivian_A1.5CTarget.5Crepo_projects.5CpRealEcu.5CcR_LATEST.5Cmake.5Coutput.5Cobjects.5CDcmDspUds_Seca.86::
                        1356 .LDWlin86:
00000550 40860000*      1357 	movhi	hi(_Dcm_DspSecTabIdx_u8),zero,r16
00000554 90870100*      1358 	ld.bu	lo(_Dcm_DspSecTabIdx_u8)[r16],r16
00000558 2f0600000000*  1359 	mov	_Dcm_Dsp_Security,r15
                        1360 --line870
                        1361 ..lin.C.3A.5C_ECU2.5CECU_Rivian_A1.5CTarget.5Crepo_projects.5CpRealEcu.5CcR_LATEST.5Cmake.5Coutput.5Cobjects.5CDcmDspUds_Seca.87::
                        1362 .LDWlin87:

                                                                      Page 24
                                                              C:\Users\nhuliyap\AppData\Local\Temp\gh_000075o1.s
0000055e 016a           1363 	mov	1,r13
00000560 5d6f1500       1364 	st.b	r13,21[r29]
00000564 f0f62800       1365 	mulhi	40,r16,ep
00000568 cff1           1366 	add	r15,ep
0000056a 0475           1367 	sld.w	8[ep],r14
0000056c 0a65           1368 	sld.w	20[ep],r12
0000056e 7df70100       1369 	st.w	ep,0[r29]
00000572 7d770500       1370 	st.w	r14,4[r29]
00000576 7d670900       1371 	st.w	r12,8[r29]
                        1372 	jarl	_Dcm_Lok_GenerateSeedAsynchFnc,lp
                        1372 <EXPANSION BEGIN>
                        1372 jarl22 _Dcm_Lok_GenerateSeedAsynchFnc , lp 
0000057a bfff26ff*      1372 <EXPANSION END>
                        1373 --line891
                        1374 ..lin.C.3A.5C_ECU2.5CECU_Rivian_A1.5CTarget.5Crepo_projects.5CpRealEcu.5CcR_LATEST.5Cmake.5Coutput.5Cobjects.5CDcmDspUds_Seca.88::
                        1375 .LDWlin88:
0000057e bd971500       1376 	ld.bu	21[r29],r18
00000582 e091           1377 	cmp	zero,r18
00000584 aa0d*          1378 	bne	.L1924
                        1379 --line893
                        1380 ..lin.C.3A.5C_ECU2.5CECU_Rivian_A1.5CTarget.5Crepo_projects.5CpRealEcu.5CcR_LATEST.5Cmake.5Coutput.5Cobjects.5CDcmDspUds_Seca.89::
                        1381 .LDWlin89:
00000586 1b38           1382 	mov	r27,r7
00000588 1c40           1383 	mov	r28,r8
0000058a 260600000000*  1384 	mov	_Dcm_SrvOpstatus_u8,r6
                        1385 	jarl	_Dcm_Lok_GetSeedReturnedWoError,lp
                        1385 <EXPANSION BEGIN>
                        1385 jarl22 _Dcm_Lok_GetSeedReturnedWoError , lp 
00000590 bfff7eff*      1385 <EXPANSION END>
00000594 4006ff10       1386 	dispose	0,{r27,r28,r29,r31},[lp]
                        1387 .L1924:
                        1388 --line895
                        1389 ..lin.C.3A.5C_ECU2.5CECU_Rivian_A1.5CTarget.5Crepo_projects.5CpRealEcu.5CcR_LATEST.5Cmake.5Coutput.5Cobjects.5CDcmDspUds_Seca.90::
                        1390 .LDWlin90:
00000598 3e0600000000*  1391 	mov	_Dcm_DspSecaOpStatus_u8,ep
0000059e 6a92           1392 	cmp	10,r18
000005a0 9a0d*          1393 	bne	.L1927
                        1394 --line897
                        1395 ..lin.C.3A.5C_ECU2.5CECU_Rivian_A1.5CTarget.5Crepo_projects.5CpRealEcu.5CcR_LATEST.5Cmake.5Coutput.5Cobjects.5CDcmDspUds_Seca.91::
                        1396 .LDWlin91:
000005a2 5c070000       1397 	st.b	zero,0[r28]
000005a6 0152           1398 	mov	1,r10
000005a8 5d971700       1399 	st.b	r18,23[r29]
000005ac 8053           1400 	sst.b	r10,0[ep]
000005ae 4006ff10       1401 	dispose	0,{r27,r28,r29,r31},[lp]
                        1402 .L1927:
                        1403 --line902
                        1404 ..lin.C.3A.5C_ECU2.5CECU_Rivian_A1.5CTarget.5Crepo_projects.5CpRealEcu.5CcR_LATEST.5Cmake.5Coutput.5Cobjects.5CDcmDspUds_Seca.92::
                        1405 .LDWlin92:
000005b2 9c4f0100       1406 	ld.bu	0[r28],r9
000005b6 e049           1407 	cmp	zero,r9
000005b8 da05*          1408 	bne	.L1930
                        1409 --line905
                        1410 ..lin.C.3A.5C_ECU2.5CECU_Rivian_A1.5CTarget.5Crepo_projects.5CpRealEcu.5CcR_LATEST.5Cmake.5Coutput.5Cobjects.5CDcmDspUds_Seca.93::
                        1411 .LDWlin93:
000005ba 20461000       1412 	movea	16,zero,r8
000005be 5c470000       1413 	st.b	r8,0[r28]
                        1414 .L1930:
000005c2 8003           1415 	sst.b	zero,0[ep]
                        1416 --	    .ef
                        1417 .LDW94:

                                                                      Page 25
                                                              C:\Users\nhuliyap\AppData\Local\Temp\gh_000075o1.s
000005c4 4006ff10       1418 	dispose	0,{r27,r28,r29,r31},[lp]
                        1419 ___ghs_eofn_Dcm_Lok_SecaGenSeed:
                        1420 	.type	_Dcm_Lok_SecaGenSeed,@function
                        1421 	.size	_Dcm_Lok_SecaGenSeed,.-_Dcm_Lok_SecaGenSeed
                        1422 	.type	_Dcm_Lok_SecaGenSeed..C.3A.5C_ECU2.5CECU_Rivian_A1.5CTarget.5Crepo_projects.5CpRealEcu.5CcR_LATEST.5Cmake.5Coutput.5Cobjects.5CDcmDspUds_Seca.,@function
                        1423 	.size	_Dcm_Lok_SecaGenSeed..C.3A.5C_ECU2.5CECU_Rivian_A1.5CTarget.5Crepo_projects.5CpRealEcu.5CcR_LATEST.5Cmake.5Coutput.5Cobjects.5CDcmDspUds_Seca.,.-_Dcm_Lok_SecaGenSeed..C.3A.5C_ECU2.5CECU_Rivian_A1.5CTarget.5Crepo_projects.5CpRealEcu.5CcR_LATEST.5Cmake.5Coutput.5Cobjects.5CDcmDspUds_Seca.
                        1424 	.align	2
                        1425 
                        1426 --_pMsgContext	r27	param
                        1427 --_dataNegRespCode_u8	r28	param
                        1428 
                        1429 	.data
                        1430 	.text
                        1431 	.align	2
                        1432 	.align	2
                        1433 ..gh.f.f.1.e.20:
                        1434 	.type	..gh.f.f.1.e.20,@object
                        1435 	.size	..gh.f.f.1.e.20,0
                        1436 	.global	_Dcm_Lok_SecaStoreDelayCountFalseCmpKeyOk..C.3A.5C_ECU2.5CECU_Rivian_A1.5CTarget.5Crepo_projects.5CpRealEcu.5CcR_LATEST.5Cmake.5Coutput.5Cobjects.5CDcmDspUds_Seca.
                        1437 _Dcm_Lok_SecaStoreDelayCountFalseCmpKeyOk..C.3A.5C_ECU2.5CECU_Rivian_A1.5CTarget.5Crepo_projects.5CpRealEcu.5CcR_LATEST.5Cmake.5Coutput.5Cobjects.5CDcmDspUds_Seca.:
                        1438 _Dcm_Lok_SecaStoreDelayCountFalseCmpKeyOk:
000005c8 80076100       1439 	prepare	{r29,r31},0
000005cc 3d0600000000*  1440 	mov	_Dcm_Lok_idxSecTab_qu8,r29
                        1441 --	    .bf
                        1442 .LDW05:
                        1443 --line998
                        1444 ..lin.C.3A.5C_ECU2.5CECU_Rivian_A1.5CTarget.5Crepo_projects.5CpRealEcu.5CcR_LATEST.5Cmake.5Coutput.5Cobjects.5CDcmDspUds_Seca.94::
                        1445 .LDWlin94:
000005d2 9d370100       1446 	ld.bu	0[r29],r6
                        1447 	jarl	_DcmAppl_DcmSecaValidKey,lp
                        1447 <EXPANSION BEGIN>
                        1447 jarl22 _DcmAppl_DcmSecaValidKey , lp 
000005d6 80ff0000*      1447 <EXPANSION END>
000005da 5d571a00       1448 	st.b	r10,26[r29]
                        1449 --line999
                        1450 ..lin.C.3A.5C_ECU2.5CECU_Rivian_A1.5CTarget.5Crepo_projects.5CpRealEcu.5CcR_LATEST.5Cmake.5Coutput.5Cobjects.5CDcmDspUds_Seca.95::
                        1451 .LDWlin95:
000005de e051           1452 	cmp	zero,r10
000005e0 e205*          1453 	be	.L2060
000005e2 6152           1454 	cmp	1,r10
000005e4 c205*          1455 	be	.L2060
                        1456 --line1032
                        1457 ..lin.C.3A.5C_ECU2.5CECU_Rivian_A1.5CTarget.5Crepo_projects.5CpRealEcu.5CcR_LATEST.5Cmake.5Coutput.5Cobjects.5CDcmDspUds_Seca.96::
                        1458 .LDWlin96:
000005e6 0a9a           1459 	mov	10,r19
000005e8 5d9f1b00       1460 	st.b	r19,27[r29]
                        1461 .L2060:
                        1462 --	    .ef
                        1463 .LDW15:
000005ec 40067f00       1464 	dispose	0,{r29,r31},[lp]
                        1465 ___ghs_eofn_Dcm_Lok_SecaStoreDelayCountFalseCmpKeyOk:
                        1466 	.type	_Dcm_Lok_SecaStoreDelayCountFalseCmpKeyOk,@function
                        1467 	.size	_Dcm_Lok_SecaStoreDelayCountFalseCmpKeyOk,.-_Dcm_Lok_SecaStoreDelayCountFalseCmpKeyOk
                        1468 	.type	_Dcm_Lok_SecaStoreDelayCountFalseCmpKeyOk..C.3A.5C_ECU2.5CECU_Rivian_A1.5CTarget.5Crepo_projects.5CpRealEcu.5CcR_LATEST.5Cmake.5Coutput.5Cobjects.5CDcmDspUds_Seca.,@function
                        1469 	.size	_Dcm_Lok_SecaStoreDelayCountFalseCmpKeyOk..C.3A.5C_ECU2.5CECU_Rivian_A1.5CTarget.5Crepo_projects.5CpRealEcu.5CcR_LATEST.5Cmake.5Coutput.5Cobjects.5CDcmDspUds_Seca.,.-_Dcm_Lok_SecaStoreDelayCountFalseCmpKeyOk..C.3A.5C_ECU2.5CECU_Rivian_A1.5CTarget.5Crepo_projects.5CpRealEcu.5CcR_LATEST.5Cmake.5Coutput.5Cobjects.5CDcmDspUds_Seca.
                        1470 	.align	2
                        1471 
                        1472 	.data
                        1473 	.text
                        1474 	.align	2
                        1475 	.align	2

                                                                      Page 26
                                                              C:\Users\nhuliyap\AppData\Local\Temp\gh_000075o1.s
                        1476 ..gh.f.f.1.e.21:
                        1477 	.type	..gh.f.f.1.e.21,@object
                        1478 	.size	..gh.f.f.1.e.21,0
                        1479 	.global	_Dcm_Lok_SecaStoreDelayCountFalseCmpKeyFailed..C.3A.5C_ECU2.5CECU_Rivian_A1.5CTarget.5Crepo_projects.5CpRealEcu.5CcR_LATEST.5Cmake.5Coutput.5Cobjects.5CDcmDspUds_Seca.
                        1480 _Dcm_Lok_SecaStoreDelayCountFalseCmpKeyFailed..C.3A.5C_ECU2.5CECU_Rivian_A1.5CTarget.5Crepo_projects.5CpRealEcu.5CcR_LATEST.5Cmake.5Coutput.5Cobjects.5CDcmDspUds_Seca.:
                        1481 _Dcm_Lok_SecaStoreDelayCountFalseCmpKeyFailed:
000005f0 80076100       1482 	prepare	{r29,r31},0
000005f4 3d0600000000*  1483 	mov	_Dcm_Lok_idxSecTab_qu8,r29
                        1484 --	    .bf
                        1485 .LDW25:
                        1486 --line1044
                        1487 ..lin.C.3A.5C_ECU2.5CECU_Rivian_A1.5CTarget.5Crepo_projects.5CpRealEcu.5CcR_LATEST.5Cmake.5Coutput.5Cobjects.5CDcmDspUds_Seca.97::
                        1488 .LDWlin97:
000005fa 9d370100       1489 	ld.bu	0[r29],r6
                        1490 	jarl	_DcmAppl_DcmSecaInvalidKey,lp
                        1490 <EXPANSION BEGIN>
                        1490 jarl22 _DcmAppl_DcmSecaInvalidKey , lp 
000005fe 80ff0000*      1490 <EXPANSION END>
00000602 5d571a00       1491 	st.b	r10,26[r29]
                        1492 --line1045
                        1493 ..lin.C.3A.5C_ECU2.5CECU_Rivian_A1.5CTarget.5Crepo_projects.5CpRealEcu.5CcR_LATEST.5Cmake.5Coutput.5Cobjects.5CDcmDspUds_Seca.98::
                        1494 .LDWlin98:
00000606 e051           1495 	cmp	zero,r10
00000608 e205*          1496 	be	.L2148
0000060a 6152           1497 	cmp	1,r10
0000060c c205*          1498 	be	.L2148
                        1499 --line1078
                        1500 ..lin.C.3A.5C_ECU2.5CECU_Rivian_A1.5CTarget.5Crepo_projects.5CpRealEcu.5CcR_LATEST.5Cmake.5Coutput.5Cobjects.5CDcmDspUds_Seca.99::
                        1501 .LDWlin99:
0000060e 0a9a           1502 	mov	10,r19
00000610 5d9f1b00       1503 	st.b	r19,27[r29]
                        1504 .L2148:
                        1505 --	    .ef
                        1506 .LDW35:
00000614 40067f00       1507 	dispose	0,{r29,r31},[lp]
                        1508 ___ghs_eofn_Dcm_Lok_SecaStoreDelayCountFalseCmpKeyFailed:
                        1509 	.type	_Dcm_Lok_SecaStoreDelayCountFalseCmpKeyFailed,@function
                        1510 	.size	_Dcm_Lok_SecaStoreDelayCountFalseCmpKeyFailed,.-_Dcm_Lok_SecaStoreDelayCountFalseCmpKeyFailed
                        1511 	.type	_Dcm_Lok_SecaStoreDelayCountFalseCmpKeyFailed..C.3A.5C_ECU2.5CECU_Rivian_A1.5CTarget.5Crepo_projects.5CpRealEcu.5CcR_LATEST.5Cmake.5Coutput.5Cobjects.5CDcmDspUds_Seca.,@function
                        1512 	.size	_Dcm_Lok_SecaStoreDelayCountFalseCmpKeyFailed..C.3A.5C_ECU2.5CECU_Rivian_A1.5CTarget.5Crepo_projects.5CpRealEcu.5CcR_LATEST.5Cmake.5Coutput.5Cobjects.5CDcmDspUds_Seca.,.-_Dcm_Lok_SecaStoreDelayCountFalseCmpKeyFailed..C.3A.5C_ECU2.5CECU_Rivian_A1.5CTarget.5Crepo_projects.5CpRealEcu.5CcR_LATEST.5Cmake.5Coutput.5Cobjects.5CDcmDspUds_Seca.
                        1513 	.align	2
                        1514 
                        1515 	.data
                        1516 	.text
                        1517 	.align	2
                        1518 	.align	2
                        1519 ..gh.f.f.1.e.22:
                        1520 	.type	..gh.f.f.1.e.22,@object
                        1521 	.size	..gh.f.f.1.e.22,0
                        1522 	.global	_Dcm_Lok_SecaStoreDelayCountFalse..C.3A.5C_ECU2.5CECU_Rivian_A1.5CTarget.5Crepo_projects.5CpRealEcu.5CcR_LATEST.5Cmake.5Coutput.5Cobjects.5CDcmDspUds_Seca.
                        1523 _Dcm_Lok_SecaStoreDelayCountFalse..C.3A.5C_ECU2.5CECU_Rivian_A1.5CTarget.5Crepo_projects.5CpRealEcu.5CcR_LATEST.5Cmake.5Coutput.5Cobjects.5CDcmDspUds_Seca.:
                        1524 _Dcm_Lok_SecaStoreDelayCountFalse:
00000618 80076100       1525 	prepare	{r29,r31},0
0000061c 3d0600000000*  1526 	mov	_Dcm_Lok_stCmpKey_u8,r29
                        1527 --	    .bf
                        1528 .LDW45:
                        1529 --line1089
                        1530 ..lin.C.3A.5C_ECU2.5CECU_Rivian_A1.5CTarget.5Crepo_projects.5CpRealEcu.5CcR_LATEST.5Cmake.5Coutput.5Cobjects.5CDcmDspUds_Seca.100::
                        1531 .LDWlin100:
00000622 9d8f0100       1532 	ld.bu	0[r29],r17
00000626 e089           1533 	cmp	zero,r17

                                                                      Page 27
                                                              C:\Users\nhuliyap\AppData\Local\Temp\gh_000075o1.s
00000628 ba05*          1534 	bne	.L2230
                        1535 --line1094
                        1536 ..lin.C.3A.5C_ECU2.5CECU_Rivian_A1.5CTarget.5Crepo_projects.5CpRealEcu.5CcR_LATEST.5Cmake.5Coutput.5Cobjects.5CDcmDspUds_Seca.101::
                        1537 .LDWlin101:
                        1538 	jarl	_Dcm_Lok_SecaStoreDelayCountFalseCmpKeyOk,lp
                        1538 <EXPANSION BEGIN>
                        1538 jarl22 _Dcm_Lok_SecaStoreDelayCountFalseCmpKeyOk , lp 
0000062a bfff9eff*      1538 <EXPANSION END>
                        1539 .L2230:
                        1540 --line1097
                        1541 ..lin.C.3A.5C_ECU2.5CECU_Rivian_A1.5CTarget.5Crepo_projects.5CpRealEcu.5CcR_LATEST.5Cmake.5Coutput.5Cobjects.5CDcmDspUds_Seca.102::
                        1542 .LDWlin102:
0000062e 9d870100       1543 	ld.bu	0[r29],r16
00000632 6b82           1544 	cmp	11,r16
00000634 ba05*          1545 	bne	.L2228
                        1546 --line1102
                        1547 ..lin.C.3A.5C_ECU2.5CECU_Rivian_A1.5CTarget.5Crepo_projects.5CpRealEcu.5CcR_LATEST.5Cmake.5Coutput.5Cobjects.5CDcmDspUds_Seca.103::
                        1548 .LDWlin103:
                        1549 	jarl	_Dcm_Lok_SecaStoreDelayCountFalseCmpKeyFailed,lp
                        1549 <EXPANSION BEGIN>
                        1549 jarl22 _Dcm_Lok_SecaStoreDelayCountFalseCmpKeyFailed , lp 
00000636 bfffbaff*      1549 <EXPANSION END>
                        1550 .L2228:
                        1551 --	    .ef
                        1552 .LDW55:
                        1553 --line1105
                        1554 ..lin.C.3A.5C_ECU2.5CECU_Rivian_A1.5CTarget.5Crepo_projects.5CpRealEcu.5CcR_LATEST.5Cmake.5Coutput.5Cobjects.5CDcmDspUds_Seca.104::
                        1555 .LDWlin104:
0000063a 40067f00       1556 	dispose	0,{r29,r31},[lp]
                        1557 ___ghs_eofn_Dcm_Lok_SecaStoreDelayCountFalse:
                        1558 	.type	_Dcm_Lok_SecaStoreDelayCountFalse,@function
                        1559 	.size	_Dcm_Lok_SecaStoreDelayCountFalse,.-_Dcm_Lok_SecaStoreDelayCountFalse
                        1560 	.type	_Dcm_Lok_SecaStoreDelayCountFalse..C.3A.5C_ECU2.5CECU_Rivian_A1.5CTarget.5Crepo_projects.5CpRealEcu.5CcR_LATEST.5Cmake.5Coutput.5Cobjects.5CDcmDspUds_Seca.,@function
                        1561 	.size	_Dcm_Lok_SecaStoreDelayCountFalse..C.3A.5C_ECU2.5CECU_Rivian_A1.5CTarget.5Crepo_projects.5CpRealEcu.5CcR_LATEST.5Cmake.5Coutput.5Cobjects.5CDcmDspUds_Seca.,.-_Dcm_Lok_SecaStoreDelayCountFalse..C.3A.5C_ECU2.5CECU_Rivian_A1.5CTarget.5Crepo_projects.5CpRealEcu.5CcR_LATEST.5Cmake.5Coutput.5Cobjects.5CDcmDspUds_Seca.
                        1562 	.align	2
                        1563 
                        1564 	.data
                        1565 	.text
                        1566 	.align	2
                        1567 	.align	2
                        1568 ..gh.f.f.1.e.23:
                        1569 	.type	..gh.f.f.1.e.23,@object
                        1570 	.size	..gh.f.f.1.e.23,0
                        1571 	.global	_Dcm_Lok_SecaPending..C.3A.5C_ECU2.5CECU_Rivian_A1.5CTarget.5Crepo_projects.5CpRealEcu.5CcR_LATEST.5Cmake.5Coutput.5Cobjects.5CDcmDspUds_Seca.
                        1572 _Dcm_Lok_SecaPending..C.3A.5C_ECU2.5CECU_Rivian_A1.5CTarget.5Crepo_projects.5CpRealEcu.5CcR_LATEST.5Cmake.5Coutput.5Cobjects.5CDcmDspUds_Seca.:
                        1573 _Dcm_Lok_SecaPending:
0000063e 3e0600000000*  1574 	mov	_Dcm_Lok_idxSecTab_qu8,ep
                        1575 --	    .bf
                        1576 .LDW65:
                        1577 --line1113
                        1578 ..lin.C.3A.5C_ECU2.5CECU_Rivian_A1.5CTarget.5Crepo_projects.5CpRealEcu.5CcR_LATEST.5Cmake.5Coutput.5Cobjects.5CDcmDspUds_Seca.105::
                        1579 .LDWlin105:
00000644 0084           1580 	sld.h	0[ep],r16
00000646 9e771d00       1581 	ld.bu	28[ep],r14
0000064a 2f0600000000*  1582 	mov	_Dcm_Dsp_Security,r15
00000650 f08e2800       1583 	mulhi	40,r16,r17
00000654 cf89           1584 	add	r15,r17
00000656 038d           1585 	sst.w	r17,4[ep]
00000658 e071           1586 	cmp	zero,r14
0000065a ba05*          1587 	bne	.L2322
0000065c bf07bcff*      1588 	jr	_Dcm_Lok_SecaStoreDelayCountFalse

                                                                      Page 28
                                                              C:\Users\nhuliyap\AppData\Local\Temp\gh_000075o1.s
                        1589 .L2322:
                        1590 --	    .ef
                        1591 .LDW75:
                        1592 --line1127
                        1593 ..lin.C.3A.5C_ECU2.5CECU_Rivian_A1.5CTarget.5Crepo_projects.5CpRealEcu.5CcR_LATEST.5Cmake.5Coutput.5Cobjects.5CDcmDspUds_Seca.106::
                        1594 .LDWlin106:
00000660 7f00           1595 	jmp	[lp]
                        1596 ___ghs_eofn_Dcm_Lok_SecaPending:
                        1597 	.type	_Dcm_Lok_SecaPending,@function
                        1598 	.size	_Dcm_Lok_SecaPending,.-_Dcm_Lok_SecaPending
                        1599 	.type	_Dcm_Lok_SecaPending..C.3A.5C_ECU2.5CECU_Rivian_A1.5CTarget.5Crepo_projects.5CpRealEcu.5CcR_LATEST.5Cmake.5Coutput.5Cobjects.5CDcmDspUds_Seca.,@function
                        1600 	.size	_Dcm_Lok_SecaPending..C.3A.5C_ECU2.5CECU_Rivian_A1.5CTarget.5Crepo_projects.5CpRealEcu.5CcR_LATEST.5Cmake.5Coutput.5Cobjects.5CDcmDspUds_Seca.,.-_Dcm_Lok_SecaPending..C.3A.5C_ECU2.5CECU_Rivian_A1.5CTarget.5Crepo_projects.5CpRealEcu.5CcR_LATEST.5Cmake.5Coutput.5Cobjects.5CDcmDspUds_Seca.
                        1601 	.align	2
                        1602 
                        1603 	.data
                        1604 	.text
                        1605 	.align	2
                        1606 	.align	2
                        1607 ..gh.f.f.1.e.24:
                        1608 	.type	..gh.f.f.1.e.24,@object
                        1609 	.size	..gh.f.f.1.e.24,0
                        1610 	.global	_Dcm_Lok_SecaCheckData..C.3A.5C_ECU2.5CECU_Rivian_A1.5CTarget.5Crepo_projects.5CpRealEcu.5CcR_LATEST.5Cmake.5Coutput.5Cobjects.5CDcmDspUds_Seca.
                        1611 _Dcm_Lok_SecaCheckData..C.3A.5C_ECU2.5CECU_Rivian_A1.5CTarget.5Crepo_projects.5CpRealEcu.5CcR_LATEST.5Cmake.5Coutput.5Cobjects.5CDcmDspUds_Seca.:
                        1612 _Dcm_Lok_SecaCheckData:
00000662 8007e110       1613 	prepare	{r27,r28,r29,r31},0
00000666 07e0           1614 	mov	r7,r28
00000668 08d8           1615 	mov	r8,r27
0000066a 3d0600000000*  1616 	mov	_Dcm_Lok_substSeca_en,r29
                        1617 --	    .bf
                        1618 .LDW85:
                        1619 --line1134
                        1620 ..lin.C.3A.5C_ECU2.5CECU_Rivian_A1.5CTarget.5Crepo_projects.5CpRealEcu.5CcR_LATEST.5Cmake.5Coutput.5Cobjects.5CDcmDspUds_Seca.107::
                        1621 .LDWlin107:
00000670 1d9f0000       1622 	ld.b	0[r29],r19
00000674 619a           1623 	cmp	1,r19
00000676 ba05*          1624 	bne	.L2394
                        1625 --line1137
                        1626 ..lin.C.3A.5C_ECU2.5CECU_Rivian_A1.5CTarget.5Crepo_projects.5CpRealEcu.5CcR_LATEST.5Cmake.5Coutput.5Cobjects.5CDcmDspUds_Seca.108::
                        1627 .LDWlin108:
                        1628 	jarl	_Dcm_Lok_SecaCmpKey,lp
                        1628 <EXPANSION BEGIN>
                        1628 jarl22 _Dcm_Lok_SecaCmpKey , lp 
00000678 bfffa4fd*      1628 <EXPANSION END>
                        1629 .L2394:
                        1630 --line1140
                        1631 ..lin.C.3A.5C_ECU2.5CECU_Rivian_A1.5CTarget.5Crepo_projects.5CpRealEcu.5CcR_LATEST.5Cmake.5Coutput.5Cobjects.5CDcmDspUds_Seca.109::
                        1632 .LDWlin109:
0000067c 1d970000       1633 	ld.b	0[r29],r18
00000680 e091           1634 	cmp	zero,r18
00000682 da05*          1635 	bne	.L2396
                        1636 --line1143
                        1637 ..lin.C.3A.5C_ECU2.5CECU_Rivian_A1.5CTarget.5Crepo_projects.5CpRealEcu.5CcR_LATEST.5Cmake.5Coutput.5Cobjects.5CDcmDspUds_Seca.110::
                        1638 .LDWlin110:
00000684 1c30           1639 	mov	r28,r6
00000686 1b38           1640 	mov	r27,r7
                        1641 	jarl	_Dcm_Lok_SecaGenSeed,lp
                        1641 <EXPANSION BEGIN>
                        1641 jarl22 _Dcm_Lok_SecaGenSeed , lp 
00000688 bfffbafe*      1641 <EXPANSION END>
                        1642 .L2396:
                        1643 --line1146

                                                                      Page 29
                                                              C:\Users\nhuliyap\AppData\Local\Temp\gh_000075o1.s
                        1644 ..lin.C.3A.5C_ECU2.5CECU_Rivian_A1.5CTarget.5Crepo_projects.5CpRealEcu.5CcR_LATEST.5Cmake.5Coutput.5Cobjects.5CDcmDspUds_Seca.111::
                        1645 .LDWlin111:
0000068c 1d8f0000       1646 	ld.b	0[r29],r17
00000690 628a           1647 	cmp	2,r17
00000692 ba05*          1648 	bne	.L2392
                        1649 --line1152
                        1650 ..lin.C.3A.5C_ECU2.5CECU_Rivian_A1.5CTarget.5Crepo_projects.5CpRealEcu.5CcR_LATEST.5Cmake.5Coutput.5Cobjects.5CDcmDspUds_Seca.112::
                        1651 .LDWlin112:
                        1652 	jarl	_Dcm_Lok_SecaPending,lp
                        1652 <EXPANSION BEGIN>
                        1652 jarl22 _Dcm_Lok_SecaPending , lp 
00000694 bfffaaff*      1652 <EXPANSION END>
                        1653 .L2392:
                        1654 --	    .ef
                        1655 .LDW95:
                        1656 --line1155
                        1657 ..lin.C.3A.5C_ECU2.5CECU_Rivian_A1.5CTarget.5Crepo_projects.5CpRealEcu.5CcR_LATEST.5Cmake.5Coutput.5Cobjects.5CDcmDspUds_Seca.113::
                        1658 .LDWlin113:
00000698 4006ff10       1659 	dispose	0,{r27,r28,r29,r31},[lp]
                        1660 ___ghs_eofn_Dcm_Lok_SecaCheckData:
                        1661 	.type	_Dcm_Lok_SecaCheckData,@function
                        1662 	.size	_Dcm_Lok_SecaCheckData,.-_Dcm_Lok_SecaCheckData
                        1663 	.type	_Dcm_Lok_SecaCheckData..C.3A.5C_ECU2.5CECU_Rivian_A1.5CTarget.5Crepo_projects.5CpRealEcu.5CcR_LATEST.5Cmake.5Coutput.5Cobjects.5CDcmDspUds_Seca.,@function
                        1664 	.size	_Dcm_Lok_SecaCheckData..C.3A.5C_ECU2.5CECU_Rivian_A1.5CTarget.5Crepo_projects.5CpRealEcu.5CcR_LATEST.5Cmake.5Coutput.5Cobjects.5CDcmDspUds_Seca.,.-_Dcm_Lok_SecaCheckData..C.3A.5C_ECU2.5CECU_Rivian_A1.5CTarget.5Crepo_projects.5CpRealEcu.5CcR_LATEST.5Cmake.5Coutput.5Cobjects.5CDcmDspUds_Seca.
                        1665 	.align	2
                        1666 
                        1667 --_OpStatus	r6	param
                        1668 --_pMsgContext	r28	param
                        1669 --_dataNegRespCode_u8	r27	param
                        1670 
                        1671 	.data
                        1672 	.text
                        1673 	.align	2
                        1674 	.align	2
                        1675 ..gh.f.f.1.e.25:
                        1676 	.type	..gh.f.f.1.e.25,@object
                        1677 	.size	..gh.f.f.1.e.25,0
                        1678 	.global	_Dcm_Lok_SecaProcessStCmpKeyOk..C.3A.5C_ECU2.5CECU_Rivian_A1.5CTarget.5Crepo_projects.5CpRealEcu.5CcR_LATEST.5Cmake.5Coutput.5Cobjects.5CDcmDspUds_Seca.
                        1679 _Dcm_Lok_SecaProcessStCmpKeyOk..C.3A.5C_ECU2.5CECU_Rivian_A1.5CTarget.5Crepo_projects.5CpRealEcu.5CcR_LATEST.5Cmake.5Coutput.5Cobjects.5CDcmDspUds_Seca.:
                        1680 _Dcm_Lok_SecaProcessStCmpKeyOk:
0000069c 06f0           1681 	mov	r6,ep
                        1682 --	    .bf
                        1683 .LDW06:
0000069e 8003           1684 	sst.b	zero,0[ep]
000006a0 0192           1685 	mov	1,r18
000006a2 405e0000*      1686 	movhi	hi(_Dcm_DspChgSecLevel_b),zero,r11
                        1687 --line1167
                        1688 ..lin.C.3A.5C_ECU2.5CECU_Rivian_A1.5CTarget.5Crepo_projects.5CpRealEcu.5CcR_LATEST.5Cmake.5Coutput.5Cobjects.5CDcmDspUds_Seca.114::
                        1689 .LDWlin114:
000006a6 40660000*      1690 	movhi	hi(_Dcm_Lok_secaServRetValue_u8),zero,r12
000006aa 4b970000*      1691 	st.b	r18,lo(_Dcm_DspChgSecLevel_b)[r11]
000006ae 4c070000*      1692 	st.b	zero,lo(_Dcm_Lok_secaServRetValue_u8)[r12]
                        1693 --	    .ef
                        1694 .LDW16:
                        1695 --line1176
                        1696 ..lin.C.3A.5C_ECU2.5CECU_Rivian_A1.5CTarget.5Crepo_projects.5CpRealEcu.5CcR_LATEST.5Cmake.5Coutput.5Cobjects.5CDcmDspUds_Seca.115::
                        1697 .LDWlin115:
000006b2 7f00           1698 	jmp	[lp]
                        1699 ___ghs_eofn_Dcm_Lok_SecaProcessStCmpKeyOk:
                        1700 	.type	_Dcm_Lok_SecaProcessStCmpKeyOk,@function
                        1701 	.size	_Dcm_Lok_SecaProcessStCmpKeyOk,.-_Dcm_Lok_SecaProcessStCmpKeyOk

                                                                      Page 30
                                                              C:\Users\nhuliyap\AppData\Local\Temp\gh_000075o1.s
                        1702 	.type	_Dcm_Lok_SecaProcessStCmpKeyOk..C.3A.5C_ECU2.5CECU_Rivian_A1.5CTarget.5Crepo_projects.5CpRealEcu.5CcR_LATEST.5Cmake.5Coutput.5Cobjects.5CDcmDspUds_Seca.,@function
                        1703 	.size	_Dcm_Lok_SecaProcessStCmpKeyOk..C.3A.5C_ECU2.5CECU_Rivian_A1.5CTarget.5Crepo_projects.5CpRealEcu.5CcR_LATEST.5Cmake.5Coutput.5Cobjects.5CDcmDspUds_Seca.,.-_Dcm_Lok_SecaProcessStCmpKeyOk..C.3A.5C_ECU2.5CECU_Rivian_A1.5CTarget.5Crepo_projects.5CpRealEcu.5CcR_LATEST.5Cmake.5Coutput.5Cobjects.5CDcmDspUds_Seca.
                        1704 	.align	2
                        1705 
                        1706 --_OpStatus	ep	param
                        1707 
                        1708 	.data
                        1709 	.text
                        1710 	.align	2
                        1711 	.align	2
                        1712 ..gh.f.f.1.e.26:
                        1713 	.type	..gh.f.f.1.e.26,@object
                        1714 	.size	..gh.f.f.1.e.26,0
                        1715 	.global	_Dcm_Lok_SecaProcessStCmpKeyFailed..C.3A.5C_ECU2.5CECU_Rivian_A1.5CTarget.5Crepo_projects.5CpRealEcu.5CcR_LATEST.5Cmake.5Coutput.5Cobjects.5CDcmDspUds_Seca.
                        1716 _Dcm_Lok_SecaProcessStCmpKeyFailed..C.3A.5C_ECU2.5CECU_Rivian_A1.5CTarget.5Crepo_projects.5CpRealEcu.5CcR_LATEST.5Cmake.5Coutput.5Cobjects.5CDcmDspUds_Seca.:
                        1717 _Dcm_Lok_SecaProcessStCmpKeyFailed:
000006b4 8007e110       1718 	prepare	{r27,r28,r29,r31},0
000006b8 06d8           1719 	mov	r6,r27
000006ba 3d0600000000*  1720 	mov	_Dcm_Lok_idxSecTab_qu8,r29
                        1721 --	    .bf
                        1722 .LDW26:
                        1723 --line1181
                        1724 ..lin.C.3A.5C_ECU2.5CECU_Rivian_A1.5CTarget.5Crepo_projects.5CpRealEcu.5CcR_LATEST.5Cmake.5Coutput.5Cobjects.5CDcmDspUds_Seca.116::
                        1725 .LDWlin116:
000006c0 1df0           1726 	mov	r29,ep
000006c2 0084           1727 	sld.h	0[ep],r16
000006c4 2f0600000000*  1728 	mov	_Dcm_Dsp_Security,r15
                        1729 --line1182
                        1730 ..lin.C.3A.5C_ECU2.5CECU_Rivian_A1.5CTarget.5Crepo_projects.5CpRealEcu.5CcR_LATEST.5Cmake.5Coutput.5Cobjects.5CDcmDspUds_Seca.117::
                        1731 .LDWlin117:
000006ca 20763500       1732 	movea	53,zero,r14
000006ce 3c0600000000*  1733 	mov	_Dcm_Dsp_Seca,r28
000006d4 f03e2800       1734 	mulhi	40,r16,r7
000006d8 cf39           1735 	add	r15,r7
000006da 033d           1736 	sst.w	r7,4[ep]
000006dc 46770000       1737 	st.b	r14,0[r6]
000006e0 00f5           1738 	sld.w	0[ep],ep
000006e2 c3f2           1739 	shl	3,ep
000006e4 dcf1           1740 	add	r28,ep
000006e6 6438           1741 	sld.bu	4[ep],r7
000006e8 3df70500       1742 	ld.w	4[r29],ep
000006ec 9e6f1d00       1743 	ld.bu	28[ep],r13
000006f0 ed39           1744 	cmp	r13,r7
000006f2 c125*          1745 	bl	.L2550
                        1746 --line1191
                        1747 ..lin.C.3A.5C_ECU2.5CECU_Rivian_A1.5CTarget.5Crepo_projects.5CpRealEcu.5CcR_LATEST.5Cmake.5Coutput.5Cobjects.5CDcmDspUds_Seca.118::
                        1748 .LDWlin118:
000006f4 0245           1749 	sld.w	4[ep],r8
000006f6 e041           1750 	cmp	zero,r8
000006f8 821d*          1751 	be	.L2554
                        1752 --line1193
                        1753 ..lin.C.3A.5C_ECU2.5CECU_Rivian_A1.5CTarget.5Crepo_projects.5CpRealEcu.5CcR_LATEST.5Cmake.5Coutput.5Cobjects.5CDcmDspUds_Seca.119::
                        1754 .LDWlin119:
000006fa ea474202       1755 	mulu	10,r8,zero
000006fe 9e371100       1756 	ld.bu	16[ep],r6
00000702 7d471100       1757 	st.w	r8,16[r29]
                        1758 	jarl	_DcmAppl_DcmGetUpdatedDelayTime,lp
                        1758 <EXPANSION BEGIN>
                        1758 jarl22 _DcmAppl_DcmGetUpdatedDelayTime , lp 
00000706 80ff0000*      1758 <EXPANSION END>
                        1759 --line1197

                                                                      Page 31
                                                              C:\Users\nhuliyap\AppData\Local\Temp\gh_000075o1.s
                        1760 ..lin.C.3A.5C_ECU2.5CECU_Rivian_A1.5CTarget.5Crepo_projects.5CpRealEcu.5CcR_LATEST.5Cmake.5Coutput.5Cobjects.5CDcmDspUds_Seca.120::
                        1761 .LDWlin120:
0000070a 2b06cdcccccc   1762 	mov	-858993459,r11
00000710 0b60           1763 	mov	r11,r12
00000712 7d571100       1764 	st.w	r10,16[r29]
00000716 ea67226a       1765 	mulu	r10,r12,r13
0000071a 40560000*      1766 	movhi	hi(_Dcm_Dsp_SecaGlobaltimer_u32),zero,r10
0000071e 2a570100*      1767 	ld.w	lo(_Dcm_Dsp_SecaGlobaltimer_u32)[r10],r10
00000722 0d40           1768 	mov	r13,r8
00000724 8342           1769 	shr	3,r8
00000726 ca41           1770 	add	r10,r8
                        1771 .L2554:
                        1772 --line1205
                        1773 ..lin.C.3A.5C_ECU2.5CECU_Rivian_A1.5CTarget.5Crepo_projects.5CpRealEcu.5CcR_LATEST.5Cmake.5Coutput.5Cobjects.5CDcmDspUds_Seca.121::
                        1774 .LDWlin121:
00000728 3df70100       1775 	ld.w	0[r29],ep
0000072c 204e3600       1776 	movea	54,zero,r9
00000730 c3f2           1777 	shl	3,ep
00000732 dcf1           1778 	add	r28,ep
00000734 0145           1779 	sst.w	r8,0[ep]
00000736 5b4f0000       1780 	st.b	r9,0[r27]
                        1781 .L2550:
0000073a 3d3f0500       1782 	ld.w	4[r29],r7
0000073e a73f1d00       1783 	ld.bu	29[r7],r7
00000742 e039           1784 	cmp	zero,r7
00000744 8215*          1785 	be	.L2546
                        1786 --line1214
                        1787 ..lin.C.3A.5C_ECU2.5CECU_Rivian_A1.5CTarget.5Crepo_projects.5CpRealEcu.5CcR_LATEST.5Cmake.5Coutput.5Cobjects.5CDcmDspUds_Seca.122::
                        1788 .LDWlin122:
00000746 3d370100       1789 	ld.w	0[r29],r6
0000074a 06f0           1790 	mov	r6,ep
0000074c c3f2           1791 	shl	3,ep
0000074e dcf1           1792 	add	r28,ep
00000750 6440           1793 	sld.bu	4[ep],r8
00000752 e741           1794 	cmp	r7,r8
00000754 8a0d*          1795 	bne	.L2546
                        1796 --line1217
                        1797 ..lin.C.3A.5C_ECU2.5CECU_Rivian_A1.5CTarget.5Crepo_projects.5CpRealEcu.5CcR_LATEST.5Cmake.5Coutput.5Cobjects.5CDcmDspUds_Seca.123::
                        1798 .LDWlin123:
00000756 8600           1799 	zxb	r6
                        1800 	jarl	_DcmAppl_DcmSecurityLevelLocked,lp
                        1800 <EXPANSION BEGIN>
                        1800 jarl22 _DcmAppl_DcmSecurityLevelLocked , lp 
00000758 80ff0000*      1800 <EXPANSION END>
                        1801 --line1218
                        1802 ..lin.C.3A.5C_ECU2.5CECU_Rivian_A1.5CTarget.5Crepo_projects.5CpRealEcu.5CcR_LATEST.5Cmake.5Coutput.5Cobjects.5CDcmDspUds_Seca.124::
                        1803 .LDWlin124:
0000075c 209e3600       1804 	movea	54,zero,r19
00000760 5b9f0000       1805 	st.b	r19,0[r27]
                        1806 .L2546:
                        1807 --	    .ef
                        1808 .LDW36:
00000764 4006ff10       1809 	dispose	0,{r27,r28,r29,r31},[lp]
                        1810 ___ghs_eofn_Dcm_Lok_SecaProcessStCmpKeyFailed:
                        1811 	.type	_Dcm_Lok_SecaProcessStCmpKeyFailed,@function
                        1812 	.size	_Dcm_Lok_SecaProcessStCmpKeyFailed,.-_Dcm_Lok_SecaProcessStCmpKeyFailed
                        1813 	.type	_Dcm_Lok_SecaProcessStCmpKeyFailed..C.3A.5C_ECU2.5CECU_Rivian_A1.5CTarget.5Crepo_projects.5CpRealEcu.5CcR_LATEST.5Cmake.5Coutput.5Cobjects.5CDcmDspUds_Seca.,@function
                        1814 	.size	_Dcm_Lok_SecaProcessStCmpKeyFailed..C.3A.5C_ECU2.5CECU_Rivian_A1.5CTarget.5Crepo_projects.5CpRealEcu.5CcR_LATEST.5Cmake.5Coutput.5Cobjects.5CDcmDspUds_Seca.,.-_Dcm_Lok_SecaProcessStCmpKeyFailed..C.3A.5C_ECU2.5CECU_Rivian_A1.5CTarget.5Crepo_projects.5CpRealEcu.5CcR_LATEST.5Cmake.5Coutput.5Cobjects.5CDcmDspUds_Seca.
                        1815 	.align	2
                        1816 
                        1817 --_dataNegRespCode_u8	r27	param

                                                                      Page 32
                                                              C:\Users\nhuliyap\AppData\Local\Temp\gh_000075o1.s
                        1818 
                        1819 	.data
                        1820 	.text
                        1821 	.align	2
                        1822 	.align	2
                        1823 ..gh.f.f.1.e.27:
                        1824 	.type	..gh.f.f.1.e.27,@object
                        1825 	.size	..gh.f.f.1.e.27,0
                        1826 	.global	_Dcm_Lok_SecaProcesStCmpKeyNotOk..C.3A.5C_ECU2.5CECU_Rivian_A1.5CTarget.5Crepo_projects.5CpRealEcu.5CcR_LATEST.5Cmake.5Coutput.5Cobjects.5CDcmDspUds_Seca.
                        1827 _Dcm_Lok_SecaProcesStCmpKeyNotOk..C.3A.5C_ECU2.5CECU_Rivian_A1.5CTarget.5Crepo_projects.5CpRealEcu.5CcR_LATEST.5Cmake.5Coutput.5Cobjects.5CDcmDspUds_Seca.:
                        1828 _Dcm_Lok_SecaProcesStCmpKeyNotOk:
00000768 06f0           1829 	mov	r6,ep
                        1830 --	    .bf
                        1831 .LDW46:
0000076a 6090           1832 	sld.bu	0[ep],r18
0000076c e091           1833 	cmp	zero,r18
0000076e ca05*          1834 	bne	.L2733
                        1835 --line1229
                        1836 ..lin.C.3A.5C_ECU2.5CECU_Rivian_A1.5CTarget.5Crepo_projects.5CpRealEcu.5CcR_LATEST.5Cmake.5Coutput.5Cobjects.5CDcmDspUds_Seca.125::
                        1837 .LDWlin125:
00000770 208e2200       1838 	movea	34,zero,r17
00000774 808b           1839 	sst.b	r17,0[ep]
                        1840 .L2733:
                        1841 --	    .ef
                        1842 .LDW56:
00000776 7f00           1843 	jmp	[lp]
                        1844 ___ghs_eofn_Dcm_Lok_SecaProcesStCmpKeyNotOk:
                        1845 	.type	_Dcm_Lok_SecaProcesStCmpKeyNotOk,@function
                        1846 	.size	_Dcm_Lok_SecaProcesStCmpKeyNotOk,.-_Dcm_Lok_SecaProcesStCmpKeyNotOk
                        1847 	.type	_Dcm_Lok_SecaProcesStCmpKeyNotOk..C.3A.5C_ECU2.5CECU_Rivian_A1.5CTarget.5Crepo_projects.5CpRealEcu.5CcR_LATEST.5Cmake.5Coutput.5Cobjects.5CDcmDspUds_Seca.,@function
                        1848 	.size	_Dcm_Lok_SecaProcesStCmpKeyNotOk..C.3A.5C_ECU2.5CECU_Rivian_A1.5CTarget.5Crepo_projects.5CpRealEcu.5CcR_LATEST.5Cmake.5Coutput.5Cobjects.5CDcmDspUds_Seca.,.-_Dcm_Lok_SecaProcesStCmpKeyNotOk..C.3A.5C_ECU2.5CECU_Rivian_A1.5CTarget.5Crepo_projects.5CpRealEcu.5CcR_LATEST.5Cmake.5Coutput.5Cobjects.5CDcmDspUds_Seca.
                        1849 	.align	2
                        1850 
                        1851 --_dataNegRespCode_u8	ep	param
                        1852 
                        1853 	.section ".bss","awb"
                        1854 .L2774:
                        1855 	.type	.L2774,@object
                        1856 	.size	.L2774,0
                        1857 	.data
                        1858 	.text
                        1859 	.align	2
                        1860 	.align	2
                        1861 ..gh.f.f.1.e.28:
                        1862 	.type	..gh.f.f.1.e.28,@object
                        1863 	.size	..gh.f.f.1.e.28,0
                        1864 	.global	_Dcm_Lok_SecaProcessService..C.3A.5C_ECU2.5CECU_Rivian_A1.5CTarget.5Crepo_projects.5CpRealEcu.5CcR_LATEST.5Cmake.5Coutput.5Cobjects.5CDcmDspUds_Seca.
                        1865 _Dcm_Lok_SecaProcessService..C.3A.5C_ECU2.5CECU_Rivian_A1.5CTarget.5Crepo_projects.5CpRealEcu.5CcR_LATEST.5Cmake.5Coutput.5Cobjects.5CDcmDspUds_Seca.:
                        1866 _Dcm_Lok_SecaProcessService:
00000778 320600000000*  1867 	mov	_Dcm_Lok_stCmpKey_u8,r18
                        1868 --	    .bf
                        1869 .LDW66:
                        1870 --line1239
                        1871 ..lin.C.3A.5C_ECU2.5CECU_Rivian_A1.5CTarget.5Crepo_projects.5CpRealEcu.5CcR_LATEST.5Cmake.5Coutput.5Cobjects.5CDcmDspUds_Seca.126::
                        1872 .LDWlin126:
0000077e 928f0100       1873 	ld.bu	0[r18],r17
00000782 e089           1874 	cmp	zero,r17
00000784 ea05*          1875 	bne	.L2809
                        1876 --line1241
                        1877 ..lin.C.3A.5C_ECU2.5CECU_Rivian_A1.5CTarget.5Crepo_projects.5CpRealEcu.5CcR_LATEST.5Cmake.5Coutput.5Cobjects.5CDcmDspUds_Seca.127::
                        1878 .LDWlin127:

                                                                      Page 33
                                                              C:\Users\nhuliyap\AppData\Local\Temp\gh_000075o1.s
00000786 260600000000*  1879 	mov	_Dcm_SrvOpstatus_u8,r6
0000078c bf0710ff*      1880 	jr	_Dcm_Lok_SecaProcessStCmpKeyOk
                        1881 .L2809:
                        1882 --line1243
                        1883 ..lin.C.3A.5C_ECU2.5CECU_Rivian_A1.5CTarget.5Crepo_projects.5CpRealEcu.5CcR_LATEST.5Cmake.5Coutput.5Cobjects.5CDcmDspUds_Seca.128::
                        1884 .LDWlin128:
00000790 618a           1885 	cmp	1,r17
00000792 ba05*          1886 	bne	.L2812
00000794 bf07d4ff*      1887 	jr	_Dcm_Lok_SecaProcesStCmpKeyNotOk
                        1888 .L2812:
                        1889 --line1247
                        1890 ..lin.C.3A.5C_ECU2.5CECU_Rivian_A1.5CTarget.5Crepo_projects.5CpRealEcu.5CcR_LATEST.5Cmake.5Coutput.5Cobjects.5CDcmDspUds_Seca.129::
                        1891 .LDWlin129:
00000798 6b8a           1892 	cmp	11,r17
0000079a ba05*          1893 	bne	.L2815
0000079c bf0718ff*      1894 	jr	_Dcm_Lok_SecaProcessStCmpKeyFailed
                        1895 .L2815:
                        1896 --line1252
                        1897 ..lin.C.3A.5C_ECU2.5CECU_Rivian_A1.5CTarget.5Crepo_projects.5CpRealEcu.5CcR_LATEST.5Cmake.5Coutput.5Cobjects.5CDcmDspUds_Seca.130::
                        1898 .LDWlin130:
000007a0 0a9a           1899 	mov	10,r19
000007a2 529f0700       1900 	st.b	r19,7[r18]
                        1901 --	    .ef
                        1902 .LDW76:
000007a6 7f00           1903 	jmp	[lp]
                        1904 ___ghs_eofn_Dcm_Lok_SecaProcessService:
                        1905 	.type	_Dcm_Lok_SecaProcessService,@function
                        1906 	.size	_Dcm_Lok_SecaProcessService,.-_Dcm_Lok_SecaProcessService
                        1907 	.type	_Dcm_Lok_SecaProcessService..C.3A.5C_ECU2.5CECU_Rivian_A1.5CTarget.5Crepo_projects.5CpRealEcu.5CcR_LATEST.5Cmake.5Coutput.5Cobjects.5CDcmDspUds_Seca.,@function
                        1908 	.size	_Dcm_Lok_SecaProcessService..C.3A.5C_ECU2.5CECU_Rivian_A1.5CTarget.5Crepo_projects.5CpRealEcu.5CcR_LATEST.5Cmake.5Coutput.5Cobjects.5CDcmDspUds_Seca.,.-_Dcm_Lok_SecaProcessService..C.3A.5C_ECU2.5CECU_Rivian_A1.5CTarget.5Crepo_projects.5CpRealEcu.5CcR_LATEST.5Cmake.5Coutput.5Cobjects.5CDcmDspUds_Seca.
                        1909 	.align	2
                        1910 
                        1911 --_dataNegRespCode_u8	r6	param
                        1912 
                        1913 	.data
                        1914 	.text
                        1915 	.align	2
                        1916 	.align	2
                        1917 ..gh.f.f.1.e.29:
                        1918 	.type	..gh.f.f.1.e.29,@object
                        1919 	.size	..gh.f.f.1.e.29,0
                        1920 	.global	_Dcm_Lok_SecaStateProcessing..C.3A.5C_ECU2.5CECU_Rivian_A1.5CTarget.5Crepo_projects.5CpRealEcu.5CcR_LATEST.5Cmake.5Coutput.5Cobjects.5CDcmDspUds_Seca.
                        1921 _Dcm_Lok_SecaStateProcessing..C.3A.5C_ECU2.5CECU_Rivian_A1.5CTarget.5Crepo_projects.5CpRealEcu.5CcR_LATEST.5Cmake.5Coutput.5Cobjects.5CDcmDspUds_Seca.:
                        1922 _Dcm_Lok_SecaStateProcessing:
000007a8 8007e110       1923 	prepare	{r27,r28,r29,r31},0
000007ac 06e8           1924 	mov	r6,r29
000007ae 07d8           1925 	mov	r7,r27
000007b0 08e0           1926 	mov	r8,r28
                        1927 --	    .bf
                        1928 .LDW86:
000007b2 86970100       1929 	ld.bu	0[r6],r18
000007b6 e091           1930 	cmp	zero,r18
000007b8 da05*          1931 	bne	.L2961
                        1932 --line1263
                        1933 ..lin.C.3A.5C_ECU2.5CECU_Rivian_A1.5CTarget.5Crepo_projects.5CpRealEcu.5CcR_LATEST.5Cmake.5Coutput.5Cobjects.5CDcmDspUds_Seca.131::
                        1934 .LDWlin131:
000007ba 0730           1935 	mov	r7,r6
000007bc 0838           1936 	mov	r8,r7
                        1937 	jarl	_Dcm_Lok_SecaRequestState,lp
                        1937 <EXPANSION BEGIN>
                        1937 jarl22 _Dcm_Lok_SecaRequestState , lp 

                                                                      Page 34
                                                              C:\Users\nhuliyap\AppData\Local\Temp\gh_000075o1.s
000007be bfff8cfa*      1937 <EXPANSION END>
                        1938 .L2961:
                        1939 --line1266
                        1940 ..lin.C.3A.5C_ECU2.5CECU_Rivian_A1.5CTarget.5Crepo_projects.5CpRealEcu.5CcR_LATEST.5Cmake.5Coutput.5Cobjects.5CDcmDspUds_Seca.132::
                        1941 .LDWlin132:
000007c2 9d8f0100       1942 	ld.bu	0[r29],r17
000007c6 648a           1943 	cmp	4,r17
000007c8 ea05*          1944 	bne	.L2963
                        1945 --line1268
                        1946 ..lin.C.3A.5C_ECU2.5CECU_Rivian_A1.5CTarget.5Crepo_projects.5CpRealEcu.5CcR_LATEST.5Cmake.5Coutput.5Cobjects.5CDcmDspUds_Seca.133::
                        1947 .LDWlin133:
000007ca 1d30           1948 	mov	r29,r6
000007cc 1b38           1949 	mov	r27,r7
000007ce 1c40           1950 	mov	r28,r8
                        1951 	jarl	_Dcm_Lok_SecaCheckData,lp
                        1951 <EXPANSION BEGIN>
                        1951 jarl22 _Dcm_Lok_SecaCheckData , lp 
000007d0 bfff92fe*      1951 <EXPANSION END>
                        1952 .L2963:
                        1953 --line1271
                        1954 ..lin.C.3A.5C_ECU2.5CECU_Rivian_A1.5CTarget.5Crepo_projects.5CpRealEcu.5CcR_LATEST.5Cmake.5Coutput.5Cobjects.5CDcmDspUds_Seca.134::
                        1955 .LDWlin134:
000007d4 9d870100       1956 	ld.bu	0[r29],r16
000007d8 6582           1957 	cmp	5,r16
000007da ca05*          1958 	bne	.L2959
                        1959 --line1273
                        1960 ..lin.C.3A.5C_ECU2.5CECU_Rivian_A1.5CTarget.5Crepo_projects.5CpRealEcu.5CcR_LATEST.5Cmake.5Coutput.5Cobjects.5CDcmDspUds_Seca.135::
                        1961 .LDWlin135:
000007dc 1c30           1962 	mov	r28,r6
                        1963 	jarl	_Dcm_Lok_SecaProcessService,lp
                        1963 <EXPANSION BEGIN>
                        1963 jarl22 _Dcm_Lok_SecaProcessService , lp 
000007de bfff9aff*      1963 <EXPANSION END>
                        1964 .L2959:
                        1965 --	    .ef
                        1966 .LDW96:
                        1967 --line1275
                        1968 ..lin.C.3A.5C_ECU2.5CECU_Rivian_A1.5CTarget.5Crepo_projects.5CpRealEcu.5CcR_LATEST.5Cmake.5Coutput.5Cobjects.5CDcmDspUds_Seca.136::
                        1969 .LDWlin136:
000007e2 4006ff10       1970 	dispose	0,{r27,r28,r29,r31},[lp]
                        1971 ___ghs_eofn_Dcm_Lok_SecaStateProcessing:
                        1972 	.type	_Dcm_Lok_SecaStateProcessing,@function
                        1973 	.size	_Dcm_Lok_SecaStateProcessing,.-_Dcm_Lok_SecaStateProcessing
                        1974 	.type	_Dcm_Lok_SecaStateProcessing..C.3A.5C_ECU2.5CECU_Rivian_A1.5CTarget.5Crepo_projects.5CpRealEcu.5CcR_LATEST.5Cmake.5Coutput.5Cobjects.5CDcmDspUds_Seca.,@function
                        1975 	.size	_Dcm_Lok_SecaStateProcessing..C.3A.5C_ECU2.5CECU_Rivian_A1.5CTarget.5Crepo_projects.5CpRealEcu.5CcR_LATEST.5Cmake.5Coutput.5Cobjects.5CDcmDspUds_Seca.,.-_Dcm_Lok_SecaStateProcessing..C.3A.5C_ECU2.5CECU_Rivian_A1.5CTarget.5Crepo_projects.5CpRealEcu.5CcR_LATEST.5Cmake.5Coutput.5Cobjects.5CDcmDspUds_Seca.
                        1976 	.align	2
                        1977 
                        1978 --_OpStatus	r29	param
                        1979 --_pMsgContext	r27	param
                        1980 --_dataNegRespCode_u8	r28	param
                        1981 
                        1982 	.section ".bss","awb"
                        1983 .L3018:
                        1984 	.type	.L3018,@object
                        1985 	.size	.L3018,0
                        1986 	.data
                        1987 	.text
                        1988 	.align	2
                        1989 	.align	2
                        1990 ..gh.f.f.1.e.30:
                        1991 	.type	..gh.f.f.1.e.30,@object

                                                                      Page 35
                                                              C:\Users\nhuliyap\AppData\Local\Temp\gh_000075o1.s
                        1992 	.size	..gh.f.f.1.e.30,0
                        1993 	.global	_SwcServiceDcm_tSecurityAccess
                        1994 _SwcServiceDcm_tSecurityAccess:
000007e6 8007e130       1995 	prepare	{r26,r27,r28,r29,r31},0
000007ea 8600           1996 	zxb	r6
000007ec 3d0600000000*  1997 	mov	_Dcm_Lok_substSeca_en,r29
                        1998 --	    .bf
                        1999 .LDW07:
                        2000 --line1285
                        2001 ..lin.C.3A.5C_ECU2.5CECU_Rivian_A1.5CTarget.5Crepo_projects.5CpRealEcu.5CcR_LATEST.5Cmake.5Coutput.5Cobjects.5CDcmDspUds_Seca.137::
                        2002 .LDWlin137:
000007f2 48070000       2003 	st.b	zero,0[r8]
000007f6 3c0600000000*  2004 	mov	_Dcm_DspSecaStatus_en,r28
000007fc 1c9f0000       2005 	ld.b	0[r28],r19
00000800 1df0           2006 	mov	r29,ep
                        2007 --line1289
                        2008 ..lin.C.3A.5C_ECU2.5CECU_Rivian_A1.5CTarget.5Crepo_projects.5CpRealEcu.5CcR_LATEST.5Cmake.5Coutput.5Cobjects.5CDcmDspUds_Seca.138::
                        2009 .LDWlin138:
00000802 0a92           2010 	mov	10,r18
00000804 8203           2011 	sst.b	zero,2[ep]
00000806 809b           2012 	sst.b	r19,0[ep]
00000808 8393           2013 	sst.b	r18,3[ep]
0000080a 6232           2014 	cmp	2,r6
0000080c ea05*          2015 	bne	.L3089
                        2016 --line1294
                        2017 ..lin.C.3A.5C_ECU2.5CECU_Rivian_A1.5CTarget.5Crepo_projects.5CpRealEcu.5CcR_LATEST.5Cmake.5Coutput.5Cobjects.5CDcmDspUds_Seca.139::
                        2018 .LDWlin139:
                        2019 	jarl	_Dcm_Dsp_SecaIni,lp
                        2019 <EXPANSION BEGIN>
                        2019 jarl22 _Dcm_Dsp_SecaIni , lp 
0000080e 80ff0000*      2019 <EXPANSION END>
                        2020 --line1296
                        2021 ..lin.C.3A.5C_ECU2.5CECU_Rivian_A1.5CTarget.5Crepo_projects.5CpRealEcu.5CcR_LATEST.5Cmake.5Coutput.5Cobjects.5CDcmDspUds_Seca.140::
                        2022 .LDWlin140:
00000812 5d070300       2023 	st.b	zero,3[r29]
00000816 d51d*          2024 	br	.L3091
                        2025 .L3089:
                        2026 --line1299
                        2027 ..lin.C.3A.5C_ECU2.5CECU_Rivian_A1.5CTarget.5Crepo_projects.5CpRealEcu.5CcR_LATEST.5Cmake.5Coutput.5Cobjects.5CDcmDspUds_Seca.141::
                        2028 .LDWlin141:
00000818 3b0600000000*  2029 	mov	_Dcm_SrvOpstatus_u8,r27
0000081e 08d0           2030 	mov	r8,r26
00000820 1b30           2031 	mov	r27,r6
                        2032 	jarl	_Dcm_Lok_SecaStateProcessing,lp
                        2032 <EXPANSION BEGIN>
                        2032 jarl22 _Dcm_Lok_SecaStateProcessing , lp 
00000822 bfff86ff*      2032 <EXPANSION END>
                        2033 --line1301
                        2034 ..lin.C.3A.5C_ECU2.5CECU_Rivian_A1.5CTarget.5Crepo_projects.5CpRealEcu.5CcR_LATEST.5Cmake.5Coutput.5Cobjects.5CDcmDspUds_Seca.142::
                        2035 .LDWlin142:
00000826 9a8f0100       2036 	ld.bu	0[r26],r17
0000082a e089           2037 	cmp	zero,r17
0000082c e20d*          2038 	be	.L3092
                        2039 --line1306
                        2040 ..lin.C.3A.5C_ECU2.5CECU_Rivian_A1.5CTarget.5Crepo_projects.5CpRealEcu.5CcR_LATEST.5Cmake.5Coutput.5Cobjects.5CDcmDspUds_Seca.143::
                        2041 .LDWlin143:
0000082e 405e0000*      2042 	movhi	hi(_Dcm_DspSecAccType_u8),zero,r11
                        2043 --line1307
                        2044 ..lin.C.3A.5C_ECU2.5CECU_Rivian_A1.5CTarget.5Crepo_projects.5CpRealEcu.5CcR_LATEST.5Cmake.5Coutput.5Cobjects.5CDcmDspUds_Seca.144::
                        2045 .LDWlin144:
00000832 40660000*      2046 	movhi	hi(_Dcm_DspSecTabIdx_u8),zero,r12

                                                                      Page 36
                                                              C:\Users\nhuliyap\AppData\Local\Temp\gh_000075o1.s
                        2047 --line1308
                        2048 ..lin.C.3A.5C_ECU2.5CECU_Rivian_A1.5CTarget.5Crepo_projects.5CpRealEcu.5CcR_LATEST.5Cmake.5Coutput.5Cobjects.5CDcmDspUds_Seca.145::
                        2049 .LDWlin145:
00000836 0182           2050 	mov	1,r16
00000838 5b070000       2051 	st.b	zero,0[r27]
0000083c 4b070000*      2052 	st.b	zero,lo(_Dcm_DspSecAccType_u8)[r11]
00000840 4c070000*      2053 	st.b	zero,lo(_Dcm_DspSecTabIdx_u8)[r12]
00000844 5d870300       2054 	st.b	r16,3[r29]
                        2055 .L3092:
00000848 1d7f0000       2056 	ld.b	0[r29],r15
0000084c 5c7f0000       2057 	st.b	r15,0[r28]
                        2058 .L3091:
00000850 bd570300       2059 	ld.bu	3[r29],r10
                        2060 --	    .ef
                        2061 .LDW17:
00000854 4006ff30       2062 	dispose	0,{r26,r27,r28,r29,r31},[lp]
                        2063 	.global	___ghs_eofn_SwcServiceDcm_tSecurityAccess
                        2064 ___ghs_eofn_SwcServiceDcm_tSecurityAccess:
                        2065 	.type	_SwcServiceDcm_tSecurityAccess,@function
                        2066 	.size	_SwcServiceDcm_tSecurityAccess,.-_SwcServiceDcm_tSecurityAccess
                        2067 	.align	2
                        2068 
                        2069 --_OpStatus	r6	param
                        2070 --_pMsgContext	r7	param
                        2071 --_dataNegRespCode_u8	r26	param
                        2072 
                        2073 	.data
                        2074 	.text
                        2075 	.align	2
                        2076 	.align	2
                        2077 ..gh.f.f.1.e.31:
                        2078 	.type	..gh.f.f.1.e.31,@object
                        2079 	.size	..gh.f.f.1.e.31,0
                        2080 	.global	_Dcm_ResetAccessType
                        2081 _Dcm_ResetAccessType:
                        2082 --	    .bf
                        2083 .LDW27:
00000858 405e0000*      2084 	movhi	hi(_Dcm_DspSecAccType_u8),zero,r11
0000085c 4b070000*      2085 	st.b	zero,lo(_Dcm_DspSecAccType_u8)[r11]
                        2086 --	    .ef
                        2087 .LDW37:
                        2088 --line1320
                        2089 ..lin.C.3A.5C_ECU2.5CECU_Rivian_A1.5CTarget.5Crepo_projects.5CpRealEcu.5CcR_LATEST.5Cmake.5Coutput.5Cobjects.5CDcmDspUds_Seca.146::
                        2090 .LDWlin146:
00000860 7f00           2091 	jmp	[lp]
                        2092 	.global	___ghs_eofn_Dcm_ResetAccessType
                        2093 ___ghs_eofn_Dcm_ResetAccessType:
                        2094 	.type	_Dcm_ResetAccessType,@function
                        2095 	.size	_Dcm_ResetAccessType,.-_Dcm_ResetAccessType
                        2096 	.align	2
                        2097 
                        2098 	.section ".bss","awb"
                        2099 .L3249:
                        2100 	.type	.L3249,@object
                        2101 	.size	.L3249,0
                        2102 	.data
                        2103 	.text
                        2104 	.align	2
                        2105 --_Dcm_InParameterBuf_au8	_Dcm_InParameterBuf_au8	import
                        2106 --_Dcm_Dsp_SecaGlobaltimer_u32	_Dcm_Dsp_SecaGlobaltimer_u32	import
                        2107 --_Dcm_Dsp_Seca	_Dcm_Dsp_Seca	import

                                                                      Page 37
                                                              C:\Users\nhuliyap\AppData\Local\Temp\gh_000075o1.s
                        2108 --_Dcm_Dsp_Security	_Dcm_Dsp_Security	import
                        2109 --_Dcm_SrvOpstatus_u8	_Dcm_SrvOpstatus_u8	import
                        2110 --_Dcm_DspSecaOpStatus_u8	_Dcm_DspSecaOpStatus_u8	import
                        2111 --_Dcm_DspSecaStatus_en	_Dcm_DspSecaStatus_en	import
                        2112 --_Dcm_DspChgSecLevel_b	_Dcm_DspChgSecLevel_b	import
                        2113 --_Dcm_Lok_stCmpKey_u8	_Dcm_Lok_stCmpKey_u8	static
                        2114 --_Dcm_Lok_dataSecLevel_u8	_Dcm_Lok_dataSecLevel_u8	static
                        2115 --_Dcm_Lok_idxSecTab_qu8	_Dcm_Lok_idxSecTab_qu8	static
                        2116 --_Dcm_Lok_ptrSecurityConfig_p	_Dcm_Lok_ptrSecurityConfig_p	static
                        2117 --_Dcm_Lok_ptrSecaFnc_p	_Dcm_Lok_ptrSecaFnc_p	static
                        2118 --_Dcm_Lok_dataSecAccType_u8	_Dcm_Lok_dataSecAccType_u8	static
                        2119 --_Dcm_Lok_dataSubFunc_u8	_Dcm_Lok_dataSubFunc_u8	static
                        2120 --_Dcm_Lok_nrSeedLen_u32	_Dcm_Lok_nrSeedLen_u32	static
                        2121 --_Dcm_Lok_substSeca_en	_Dcm_Lok_substSeca_en	static
                        2122 --_Dcm_Lok_dataRetGetSeed_u8	_Dcm_Lok_dataRetGetSeed_u8	static
                        2123 --_Dcm_Lok_dataRetValue_u8	_Dcm_Lok_dataRetValue_u8	static
                        2124 --_Dcm_Lok_secaServRetValue_u8	_Dcm_Lok_secaServRetValue_u8	static
                        2125 --_Dcm_Lok_nrDelay_u32	_Dcm_Lok_nrDelay_u32	static
                        2126 --_Dcm_Lok_flgApplFuncCall_b	_Dcm_Lok_flgApplFuncCall_b	static
                        2127 
                        2128 	.data
                        2129 	.section ".bss","awb"
                        2130 	.global	_Dcm_DspSecTabIdx_u8
0000001d 00             2131 _Dcm_DspSecTabIdx_u8:	.space	1
                        2132 	.type	_Dcm_DspSecTabIdx_u8,@object
                        2133 	.size	_Dcm_DspSecTabIdx_u8,1
                        2134 	.global	_Dcm_DspSecAccType_u8
0000001e 00             2135 _Dcm_DspSecAccType_u8:	.space	1
                        2136 	.type	_Dcm_DspSecAccType_u8,@object
                        2137 	.size	_Dcm_DspSecAccType_u8,1
                        2138 	.data
                        2139 	.ghsnote version,17
                        2140 	.ghsnote tools,3
                        2141 	.ghsnote options,144
                        2142 	.text
                        2143 	.align	2
                        2144 ..eof.C.3A.5C_ECU2.5CECU_Rivian_A1.5CTarget.5Crepo_projects.5CpRealEcu.5CcR_LATEST.5Cmake.5Coutput.5Cobjects.5CDcmDspUds_Seca...43.3A.5C_ECU2.5CECU_Rivian_A1.5CTarget.5Crepo_projects.5CpRealEcu.5CcR_LATEST.5Cmake..6504488D..0::
                        2145 	.section	.debug_info
                        2146 .Ldw_begin:
00000000 921c0000       2147 	.word	.Ldw_end-.Ldw_begin-4
00000004 0200           2148 	.byte	2,0
00000006 00000000*      2149 	.word	.Ldw_abbr_begin
0000000a 04             2150 	.byte	4
                        2151 	.section	.debug_abbrev
                        2152 .Ldw_abbr_begin:
                        2153 	.section	.debug_info
0000000b 01             2154 	.byte	1
0000000c 00000000*      2155 	.word	..bof.C.3A.5C_ECU2.5CECU_Rivian_A1.5CTarget.5Crepo_projects.5CpRealEcu.5CcR_LATEST.5Cmake.5Coutput.5Cobjects.5CDcmDspUds_Seca...43.3A.5C_ECU2.5CECU_Rivian_A1.5CTarget.5Crepo_projects.5CpRealEcu.5CcR_LATEST.5Cmake..6504488D..0
00000010 00000000*      2156 	.word	..eof.C.3A.5C_ECU2.5CECU_Rivian_A1.5CTarget.5Crepo_projects.5CpRealEcu.5CcR_LATEST.5Cmake.5Coutput.5Cobjects.5CDcmDspUds_Seca...43.3A.5C_ECU2.5CECU_Rivian_A1.5CTarget.5Crepo_projects.5CpRealEcu.5CcR_LATEST.5Cmake..6504488D..0
00000014 2e2e2f736f75   2157 	.strz	"../source/wrappers/SwcServiceDcm/DcmDspUds_Seca.c"
0000001a 7263652f7772 
00000020 617070657273 
00000026 2f5377635365 
0000002c 727669636544 
00000032 636d2f44636d 
00000038 447370556473 
0000003e 5f536563612e 
00000044 6300 
00000046 433a5c5f4543   2158 	.strz	"C:\\_ECU2\\ECU_Rivian_A1\\Target\\repo_projects\\pRealEcu\\cR_LATEST\\make"
0000004c 55325c454355 
00000052 5f5269766961 

                                                                      Page 38
                                                              C:\Users\nhuliyap\AppData\Local\Temp\gh_000075o1.s
00000058 6e5f41315c54 
0000005e 61726765745c 
00000064 7265706f5f70 
0000006a 726f6a656374 
00000070 735c70526561 
00000076 6c4563755c63 
0000007c 525f4c415445 
00000082 53545c6d616b 
00000088 6500 
0000008a 474853204320   2159 	.strz	"GHS C 2015.1.7 [dual]"
00000090 323031352e31 
00000096 2e37205b6475 
0000009c 616c5d00 
000000a0 0100           2160 	.byte	1,0
000000a2 00000000*      2161 	.word	.Ldw_line_begin
000000a6 00000000*      2162 	.word	.Ldw_macinfo_begin
000000aa 00             2163 	.byte	0
                        2164 
                        2165 	.section	.debug_abbrev
00000000 01             2166 	.byte	1
00000001 11             2167 	.byte	17
00000002 01             2168 	.byte	1
00000003 1101           2169 	.byte	17,1
00000005 1201           2170 	.byte	18,1
00000007 0308           2171 	.byte	3,8
00000009 1b08           2172 	.byte	27,8
0000000b 2508           2173 	.byte	37,8
0000000d 1305           2174 	.byte	19,5
0000000f 1006           2175 	.byte	16,6
00000011 4306           2176 	.byte	67,6
00000013 420b           2177 	.byte	66,11
00000015 0000           2178 	.byte	0,0
                        2179 
                        2180 	.section	.debug_line
                        2181 .Ldw_line_begin:
00000000 fa150000       2182 	.word	.Ldw_line_end-.Ldw_line_begin-4
00000004 0200           2183 	.byte	2,0
00000006 00000000*      2184 	.word	.Ldw_lpro_end-.Ldw_lpro_begin
                        2185 .Ldw_lpro_begin:
0000000a 01             2186 	.byte	1
0000000b 00             2187 	.byte	0
0000000c 00             2188 	.byte	0
0000000d 04             2189 	.byte	4
0000000e 0a             2190 	.byte	10
0000000f 000101         2191 	.byte	0,1,1
00000012 010100         2192 	.byte	1,1,0
00000015 000001         2193 	.byte	0,0,1
00000018 00             2194 	.byte	0
00000019 2e2e2f736f75   2195 	.strz	"../source/wrappers/SwcServiceDcm/DcmDspUds_Seca.c"
0000001f 7263652f7772 
00000025 617070657273 
0000002b 2f5377635365 
00000031 727669636544 
00000037 636d2f44636d 
0000003d 447370556473 
00000043 5f536563612e 
00000049 6300 
0000004b 000000         2196 	.byte	0,0,0
0000004e 2e2e2f736f75   2197 	.strz	"../source/common/Std_Types.hpp"
00000054 7263652f636f 
0000005a 6d6d6f6e2f53 

                                                                      Page 39
                                                              C:\Users\nhuliyap\AppData\Local\Temp\gh_000075o1.s
00000060 74645f547970 
00000066 65732e687070 
0000006c 00 
0000006d 000000         2198 	.byte	0,0,0
00000070 2e2e2f736f75   2199 	.strz	"../source/common/Platform_Types.hpp"
00000076 7263652f636f 
0000007c 6d6d6f6e2f50 
00000082 6c6174666f72 
00000088 6d5f54797065 
0000008e 732e68707000 
00000094 000000         2200 	.byte	0,0,0
00000097 2e2e2f736f75   2201 	.strz	"../source/common/Compiler.hpp"
0000009d 7263652f636f 
000000a3 6d6d6f6e2f43 
000000a9 6f6d70696c65 
000000af 722e68707000 
000000b5 000000         2202 	.byte	0,0,0
000000b8 2e2e2f736f75   2203 	.strz	"../source/ProjectCompiler/Compiler_Cfg.hpp"
000000be 7263652f5072 
000000c4 6f6a65637443 
000000ca 6f6d70696c65 
000000d0 722f436f6d70 
000000d6 696c65725f43 
000000dc 66672e687070 
000000e2 00 
000000e3 000000         2204 	.byte	0,0,0
000000e6 2e2e2f736f75   2205 	.strz	"../source/ProjectCompiler/CompilerCfg_SwcServiceOs.hpp"
000000ec 7263652f5072 
000000f2 6f6a65637443 
000000f8 6f6d70696c65 
000000fe 722f436f6d70 
00000104 696c65724366 
0000010a 675f53776353 
00000110 657276696365 
00000116 4f732e687070 
0000011c 00 
0000011d 000000         2206 	.byte	0,0,0
00000120 2e2e2f736f75   2207 	.strz	"../source/wrappers/SwcServiceDcm/DcmDspUds_Seca_Inf.hpp"
00000126 7263652f7772 
0000012c 617070657273 
00000132 2f5377635365 
00000138 727669636544 
0000013e 636d2f44636d 
00000144 447370556473 
0000014a 5f536563615f 
00000150 496e662e6870 
00000156 7000 
00000158 000000         2208 	.byte	0,0,0
0000015b 2e2e2f736f75   2209 	.strz	"../source/wrappers/SwcServiceDcm/Dcm.hpp"
00000161 7263652f7772 
00000167 617070657273 
0000016d 2f5377635365 
00000173 727669636544 
00000179 636d2f44636d 
0000017f 2e68707000 
00000184 000000         2210 	.byte	0,0,0
00000187 2e2e2f736f75   2211 	.strz	"../source/SwcServiceCom/ComStack_Types.hpp"
0000018d 7263652f5377 
00000193 635365727669 
00000199 6365436f6d2f 
0000019f 436f6d537461 

                                                                      Page 40
                                                              C:\Users\nhuliyap\AppData\Local\Temp\gh_000075o1.s
000001a5 636b5f547970 
000001ab 65732e687070 
000001b1 00 
000001b2 000000         2212 	.byte	0,0,0
000001b5 2e2e2f736f75   2213 	.strz	"../source/ProjectCfg/ComStack_Cfg.hpp"
000001bb 7263652f5072 
000001c1 6f6a65637443 
000001c7 66672f436f6d 
000001cd 537461636b5f 
000001d3 4366672e6870 
000001d9 7000 
000001db 000000         2214 	.byte	0,0,0
000001de 2e2e2f736f75   2215 	.strz	"../source/ProjectCfg/Dcm_Cfg_DslDsd.hpp"
000001e4 7263652f5072 
000001ea 6f6a65637443 
000001f0 66672f44636d 
000001f6 5f4366675f44 
000001fc 736c4473642e 
00000202 68707000 
00000206 000000         2216 	.byte	0,0,0
00000209 2e2e2f736f75   2217 	.strz	"../source/ProjectCompiler/Dcm_Cfg_MemMap.hpp"
0000020f 7263652f5072 
00000215 6f6a65637443 
0000021b 6f6d70696c65 
00000221 722f44636d5f 
00000227 4366675f4d65 
0000022d 6d4d61702e68 
00000233 707000 
00000236 000000         2218 	.byte	0,0,0
00000239 2e2e2f736f75   2219 	.strz	"../source/ProjectCompiler/Bsw_MemMap.hpp"
0000023f 7263652f5072 
00000245 6f6a65637443 
0000024b 6f6d70696c65 
00000251 722f4273775f 
00000257 4d656d4d6170 
0000025d 2e68707000 
00000262 000000         2220 	.byte	0,0,0
00000265 2e2e2f736f75   2221 	.strz	"../source/ProjectCompiler/MemMap_Common.hpp"
0000026b 7263652f5072 
00000271 6f6a65637443 
00000277 6f6d70696c65 
0000027d 722f4d656d4d 
00000283 61705f436f6d 
00000289 6d6f6e2e6870 
0000028f 7000 
00000291 000000         2222 	.byte	0,0,0
00000294 2e2e2f736f75   2223 	.strz	"../source/wrappers/SwcServiceDcm/Dcm_Types.hpp"
0000029a 7263652f7772 
000002a0 617070657273 
000002a6 2f5377635365 
000002ac 727669636544 
000002b2 636d2f44636d 
000002b8 5f5479706573 
000002be 2e68707000 
000002c3 000000         2224 	.byte	0,0,0
000002c6 2e2e2f736f75   2225 	.strz	"../source/wrappers/Rte_Dcm_Type.hpp"
000002cc 7263652f7772 
000002d2 617070657273 
000002d8 2f5274655f44 
000002de 636d5f547970 
000002e4 652e68707000 

                                                                      Page 41
                                                              C:\Users\nhuliyap\AppData\Local\Temp\gh_000075o1.s
000002ea 000000         2226 	.byte	0,0,0
000002ed 2e2e2f736f75   2227 	.strz	"../source/McalMcu/types.hpp"
000002f3 7263652f4d63 
000002f9 616c4d63752f 
000002ff 74797065732e 
00000305 68707000 
00000309 000000         2228 	.byte	0,0,0
0000030c 2e2e2f736f75   2229 	.strz	"../source/wrappers/SwcServiceDcm/DcmCore_DslDsd_Pub.hpp"
00000312 7263652f7772 
00000318 617070657273 
0000031e 2f5377635365 
00000324 727669636544 
0000032a 636d2f44636d 
00000330 436f72655f44 
00000336 736c4473645f 
0000033c 5075622e6870 
00000342 7000 
00000344 000000         2230 	.byte	0,0,0
00000347 2e2e2f736f75   2231 	.strz	"../source/ProjectCfg/Dcm_Cfg_DspUds.hpp"
0000034d 7263652f5072 
00000353 6f6a65637443 
00000359 66672f44636d 
0000035f 5f4366675f44 
00000365 73705564732e 
0000036b 68707000 
0000036f 000000         2232 	.byte	0,0,0
00000372 2e2e2f736f75   2233 	.strz	"../source/ProjectCfg/Dcm_Lcfg_DspUds.hpp"
00000378 7263652f5072 
0000037e 6f6a65637443 
00000384 66672f44636d 
0000038a 5f4c6366675f 
00000390 447370556473 
00000396 2e68707000 
0000039b 000000         2234 	.byte	0,0,0
0000039e 2e2e2f736f75   2235 	.strz	"../source/wrappers/SwcServiceDcm/DcmDspUds_Uds_Pub.hpp"
000003a4 7263652f7772 
000003aa 617070657273 
000003b0 2f5377635365 
000003b6 727669636544 
000003bc 636d2f44636d 
000003c2 447370556473 
000003c8 5f5564735f50 
000003ce 75622e687070 
000003d4 00 
000003d5 000000         2236 	.byte	0,0,0
000003d8 2e2e2f736f75   2237 	.strz	"../source/wrappers/SwcServiceDcm/DcmDspUds_Rdtc_Pub.hpp"
000003de 7263652f7772 
000003e4 617070657273 
000003ea 2f5377635365 
000003f0 727669636544 
000003f6 636d2f44636d 
000003fc 447370556473 
00000402 5f526474635f 
00000408 5075622e6870 
0000040e 7000 
00000410 000000         2238 	.byte	0,0,0
00000413 2e2e2f736f75   2239 	.strz	"../source/wrappers/SwcServiceDcm/DcmDspUds_Seca_Pub.hpp"
00000419 7263652f7772 
0000041f 617070657273 
00000425 2f5377635365 
0000042b 727669636544 

                                                                      Page 42
                                                              C:\Users\nhuliyap\AppData\Local\Temp\gh_000075o1.s
00000431 636d2f44636d 
00000437 447370556473 
0000043d 5f536563615f 
00000443 5075622e6870 
00000449 7000 
0000044b 000000         2240 	.byte	0,0,0
0000044e 2e2e2f736f75   2241 	.strz	"../source/wrappers/SwcServiceDcm/DcmDspUds_Dsc_Pub.hpp"
00000454 7263652f7772 
0000045a 617070657273 
00000460 2f5377635365 
00000466 727669636544 
0000046c 636d2f44636d 
00000472 447370556473 
00000478 5f4473635f50 
0000047e 75622e687070 
00000484 00 
00000485 000000         2242 	.byte	0,0,0
00000488 2e2e2f736f75   2243 	.strz	"../source/wrappers/SwcServiceDcm/DcmDspUds_CC_Pub.hpp"
0000048e 7263652f7772 
00000494 617070657273 
0000049a 2f5377635365 
000004a0 727669636544 
000004a6 636d2f44636d 
000004ac 447370556473 
000004b2 5f43435f5075 
000004b8 622e68707000 
000004be 000000         2244 	.byte	0,0,0
000004c1 2e2e2f736f75   2245 	.strz	"../source/wrappers/SwcServiceDcm/DcmDspUds_Cdtcs_Pub.hpp"
000004c7 7263652f7772 
000004cd 617070657273 
000004d3 2f5377635365 
000004d9 727669636544 
000004df 636d2f44636d 
000004e5 447370556473 
000004eb 5f4364746373 
000004f1 5f5075622e68 
000004f7 707000 
000004fa 000000         2246 	.byte	0,0,0
000004fd 2e2e2f736f75   2247 	.strz	"../source/wrappers/SwcServiceDcm/DcmDspUds_Cdi_Pub.hpp"
00000503 7263652f7772 
00000509 617070657273 
0000050f 2f5377635365 
00000515 727669636544 
0000051b 636d2f44636d 
00000521 447370556473 
00000527 5f4364695f50 
0000052d 75622e687070 
00000533 00 
00000534 000000         2248 	.byte	0,0,0
00000537 2e2e2f736f75   2249 	.strz	"../source/ProjectCfg/Dcm_Lcfg_DslDsd.hpp"
0000053d 7263652f5072 
00000543 6f6a65637443 
00000549 66672f44636d 
0000054f 5f4c6366675f 
00000555 44736c447364 
0000055b 2e68707000 
00000560 000000         2250 	.byte	0,0,0
00000563 2e2e2f736f75   2251 	.strz	"../source/wrappers/SwcServiceDcm/DcmCore_DslDsd_Prot.hpp"
00000569 7263652f7772 
0000056f 617070657273 
00000575 2f5377635365 

                                                                      Page 43
                                                              C:\Users\nhuliyap\AppData\Local\Temp\gh_000075o1.s
0000057b 727669636544 
00000581 636d2f44636d 
00000587 436f72655f44 
0000058d 736c4473645f 
00000593 50726f742e68 
00000599 707000 
0000059c 000000         2252 	.byte	0,0,0
0000059f 2e2e2f736f75   2253 	.strz	"../source/SwcServiceDet/Det.hpp"
000005a5 7263652f5377 
000005ab 635365727669 
000005b1 63654465742f 
000005b7 4465742e6870 
000005bd 7000 
000005bf 000000         2254 	.byte	0,0,0
000005c2 2e2e2f736f75   2255 	.strz	"../source/SwcServiceDet/Types_SwcServiceDet.hpp"
000005c8 7263652f5377 
000005ce 635365727669 
000005d4 63654465742f 
000005da 54797065735f 
000005e0 537763536572 
000005e6 766963654465 
000005ec 742e68707000 
000005f2 000000         2256 	.byte	0,0,0
000005f5 2e2e2f736f75   2257 	.strz	"../source/wrappers/Rte_Det_Type.hpp"
000005fb 7263652f7772 
00000601 617070657273 
00000607 2f5274655f44 
0000060d 65745f547970 
00000613 652e68707000 
00000619 000000         2258 	.byte	0,0,0
0000061c 2e2e2f736f75   2259 	.strz	"../source/ProjectCompiler/Det_MemMap.hpp"
00000622 7263652f5072 
00000628 6f6a65637443 
0000062e 6f6d70696c65 
00000634 722f4465745f 
0000063a 4d656d4d6170 
00000640 2e68707000 
00000645 000000         2260 	.byte	0,0,0
00000648 2e2e2f736f75   2261 	.strz	"../source/wrappers/SwcServiceDcm/Dcm_Dsd.hpp"
0000064e 7263652f7772 
00000654 617070657273 
0000065a 2f5377635365 
00000660 727669636544 
00000666 636d2f44636d 
0000066c 5f4473642e68 
00000672 707000 
00000675 000000         2262 	.byte	0,0,0
00000678 2e2e2f736f75   2263 	.strz	"../source/wrappers/SwcServiceDcm/DcmDspUds_Uds_Prot.hpp"
0000067e 7263652f7772 
00000684 617070657273 
0000068a 2f5377635365 
00000690 727669636544 
00000696 636d2f44636d 
0000069c 447370556473 
000006a2 5f5564735f50 
000006a8 726f742e6870 
000006ae 7000 
000006b0 000000         2264 	.byte	0,0,0
000006b3 2e2e2f736f75   2265 	.strz	"../source/wrappers/SwcServiceDcm/DcmAppl.hpp"
000006b9 7263652f7772 
000006bf 617070657273 

                                                                      Page 44
                                                              C:\Users\nhuliyap\AppData\Local\Temp\gh_000075o1.s
000006c5 2f5377635365 
000006cb 727669636544 
000006d1 636d2f44636d 
000006d7 4170706c2e68 
000006dd 707000 
000006e0 000000         2266 	.byte	0,0,0
000006e3 2e2e2f736f75   2267 	.strz	"../source/wrappers/SwcServiceDcm/DcmDspUds_Cdtcs_Inf.hpp"
000006e9 7263652f7772 
000006ef 617070657273 
000006f5 2f5377635365 
000006fb 727669636544 
00000701 636d2f44636d 
00000707 447370556473 
0000070d 5f4364746373 
00000713 5f496e662e68 
00000719 707000 
0000071c 000000         2268 	.byte	0,0,0
0000071f 2e2e2f736f75   2269 	.strz	"../source/wrappers/SwcServiceDcm/DcmDspUds_Cdtcs_Prot.hpp"
00000725 7263652f7772 
0000072b 617070657273 
00000731 2f5377635365 
00000737 727669636544 
0000073d 636d2f44636d 
00000743 447370556473 
00000749 5f4364746373 
0000074f 5f50726f742e 
00000755 68707000 
00000759 000000         2270 	.byte	0,0,0
0000075c 2e2e2f736f75   2271 	.strz	"../source/wrappers/SwcServiceDem/Dem.hpp"
00000762 7263652f7772 
00000768 617070657273 
0000076e 2f5377635365 
00000774 727669636544 
0000077a 656d2f44656d 
00000780 2e68707000 
00000785 000000         2272 	.byte	0,0,0
00000788 2e2e2f736f75   2273 	.strz	"../source/wrappers/SwcServiceDem/Dem_Types.hpp"
0000078e 7263652f7772 
00000794 617070657273 
0000079a 2f5377635365 
000007a0 727669636544 
000007a6 656d2f44656d 
000007ac 5f5479706573 
000007b2 2e68707000 
000007b7 000000         2274 	.byte	0,0,0
000007ba 2e2e2f736f75   2275 	.strz	"../source/ProjectCfg/Dem_Cfg.hpp"
000007c0 7263652f5072 
000007c6 6f6a65637443 
000007cc 66672f44656d 
000007d2 5f4366672e68 
000007d8 707000 
000007db 000000         2276 	.byte	0,0,0
000007de 2e2e2f736f75   2277 	.strz	"../source/ProjectCfg/Dem_Cfg_Client.hpp"
000007e4 7263652f5072 
000007ea 6f6a65637443 
000007f0 66672f44656d 
000007f6 5f4366675f43 
000007fc 6c69656e742e 
00000802 68707000 
00000806 000000         2278 	.byte	0,0,0
00000809 2e2e2f736f75   2279 	.strz	"../source/wrappers/SwcServiceDem/Dem_ClientHandlingTypes.hpp"

                                                                      Page 45
                                                              C:\Users\nhuliyap\AppData\Local\Temp\gh_000075o1.s
0000080f 7263652f7772 
00000815 617070657273 
0000081b 2f5377635365 
00000821 727669636544 
00000827 656d2f44656d 
0000082d 5f436c69656e 
00000833 7448616e646c 
00000839 696e67547970 
0000083f 65732e687070 
00000845 00 
00000846 000000         2280 	.byte	0,0,0
00000849 2e2e2f736f75   2281 	.strz	"../source/ProjectCfg/Dem_Cfg_NodeId.hpp"
0000084f 7263652f5072 
00000855 6f6a65637443 
0000085b 66672f44656d 
00000861 5f4366675f4e 
00000867 6f646549642e 
0000086d 68707000 
00000871 000000         2282 	.byte	0,0,0
00000874 2e2e2f736f75   2283 	.strz	"../source/ProjectCfg/Dem_Cfg_Version.hpp"
0000087a 7263652f5072 
00000880 6f6a65637443 
00000886 66672f44656d 
0000088c 5f4366675f56 
00000892 657273696f6e 
00000898 2e68707000 
0000089d 000000         2284 	.byte	0,0,0
000008a0 2e2e2f736f75   2285 	.strz	"../source/wrappers/Rte_Dem_Type.hpp"
000008a6 7263652f7772 
000008ac 617070657273 
000008b2 2f5274655f44 
000008b8 656d5f547970 
000008be 652e68707000 
000008c4 000000         2286 	.byte	0,0,0
000008c7 2e2e2f736f75   2287 	.strz	"../source/ProjectCfg/Dem_Cfg_EventId.hpp"
000008cd 7263652f5072 
000008d3 6f6a65637443 
000008d9 66672f44656d 
000008df 5f4366675f45 
000008e5 76656e744964 
000008eb 2e68707000 
000008f0 000000         2288 	.byte	0,0,0
000008f3 2e2e2f736f75   2289 	.strz	"../source/ProjectCfg/Dem_Cfg_DtcId.hpp"
000008f9 7263652f5072 
000008ff 6f6a65637443 
00000905 66672f44656d 
0000090b 5f4366675f44 
00000911 746349642e68 
00000917 707000 
0000091a 000000         2290 	.byte	0,0,0
0000091d 2e2e2f736f75   2291 	.strz	"../source/ProjectCfg/Dem_Cfg_Main.hpp"
00000923 7263652f5072 
00000929 6f6a65637443 
0000092f 66672f44656d 
00000935 5f4366675f4d 
0000093b 61696e2e6870 
00000941 7000 
00000943 000000         2292 	.byte	0,0,0
00000946 2e2e2f736f75   2293 	.strz	"../source/ProjectCfg/Dem_Cfg_Deb.hpp"
0000094c 7263652f5072 
00000952 6f6a65637443 

                                                                      Page 46
                                                              C:\Users\nhuliyap\AppData\Local\Temp\gh_000075o1.s
00000958 66672f44656d 
0000095e 5f4366675f44 
00000964 65622e687070 
0000096a 00 
0000096b 000000         2294 	.byte	0,0,0
0000096e 2e2e2f736f75   2295 	.strz	"../source/ProjectCfg/Dem_Cfg_EnableCondition.hpp"
00000974 7263652f5072 
0000097a 6f6a65637443 
00000980 66672f44656d 
00000986 5f4366675f45 
0000098c 6e61626c6543 
00000992 6f6e64697469 
00000998 6f6e2e687070 
0000099e 00 
0000099f 000000         2296 	.byte	0,0,0
000009a2 2e2e2f736f75   2297 	.strz	"../source/ProjectCfg/Dem_Cfg_EventCategory.hpp"
000009a8 7263652f5072 
000009ae 6f6a65637443 
000009b4 66672f44656d 
000009ba 5f4366675f45 
000009c0 76656e744361 
000009c6 7465676f7279 
000009cc 2e68707000 
000009d1 000000         2298 	.byte	0,0,0
000009d4 2e2e2f736f75   2299 	.strz	"../source/ProjectCfg/Dem_Cfg_EventIndicators.hpp"
000009da 7263652f5072 
000009e0 6f6a65637443 
000009e6 66672f44656d 
000009ec 5f4366675f45 
000009f2 76656e74496e 
000009f8 64696361746f 
000009fe 72732e687070 
00000a04 00 
00000a05 000000         2300 	.byte	0,0,0
00000a08 2e2e2f736f75   2301 	.strz	"../source/ProjectCfg/Dem_Cfg_OperationCycle.hpp"
00000a0e 7263652f5072 
00000a14 6f6a65637443 
00000a1a 66672f44656d 
00000a20 5f4366675f4f 
00000a26 706572617469 
00000a2c 6f6e4379636c 
00000a32 652e68707000 
00000a38 000000         2302 	.byte	0,0,0
00000a3b 2e2e2f736f75   2303 	.strz	"../source/wrappers/LibAutosarDiag/rba_DiagLib_Bits8.hpp"
00000a41 7263652f7772 
00000a47 617070657273 
00000a4d 2f4c69624175 
00000a53 746f73617244 
00000a59 6961672f7262 
00000a5f 615f44696167 
00000a65 4c69625f4269 
00000a6b 7473382e6870 
00000a71 7000 
00000a73 000000         2304 	.byte	0,0,0
00000a76 2e2e2f736f75   2305 	.strz	"../source/wrappers/LibAutosarDiag/rba_DiagLib_Bits16.hpp"
00000a7c 7263652f7772 
00000a82 617070657273 
00000a88 2f4c69624175 
00000a8e 746f73617244 
00000a94 6961672f7262 
00000a9a 615f44696167 

                                                                      Page 47
                                                              C:\Users\nhuliyap\AppData\Local\Temp\gh_000075o1.s
00000aa0 4c69625f4269 
00000aa6 747331362e68 
00000aac 707000 
00000aaf 000000         2306 	.byte	0,0,0
00000ab2 2e2e2f736f75   2307 	.strz	"../source/wrappers/LibAutosarDiag/rba_DiagLib_Bits32.hpp"
00000ab8 7263652f7772 
00000abe 617070657273 
00000ac4 2f4c69624175 
00000aca 746f73617244 
00000ad0 6961672f7262 
00000ad6 615f44696167 
00000adc 4c69625f4269 
00000ae2 747333322e68 
00000ae8 707000 
00000aeb 000000         2308 	.byte	0,0,0
00000aee 2e2e2f736f75   2309 	.strz	"../source/ProjectCfg/Dem_Cfg_StorageCondition.hpp"
00000af4 7263652f5072 
00000afa 6f6a65637443 
00000b00 66672f44656d 
00000b06 5f4366675f53 
00000b0c 746f72616765 
00000b12 436f6e646974 
00000b18 696f6e2e6870 
00000b1e 7000 
00000b20 000000         2310 	.byte	0,0,0
00000b23 2e2e2f736f75   2311 	.strz	"../source/wrappers/SwcServiceDem/Dem_Dlt.hpp"
00000b29 7263652f7772 
00000b2f 617070657273 
00000b35 2f5377635365 
00000b3b 727669636544 
00000b41 656d2f44656d 
00000b47 5f446c742e68 
00000b4d 707000 
00000b50 000000         2312 	.byte	0,0,0
00000b53 2e2e2f736f75   2313 	.strz	"../source/ProjectCompiler/Dem_Cfg_MemMap.hpp"
00000b59 7263652f5072 
00000b5f 6f6a65637443 
00000b65 6f6d70696c65 
00000b6b 722f44656d5f 
00000b71 4366675f4d65 
00000b77 6d4d61702e68 
00000b7d 707000 
00000b80 000000         2314 	.byte	0,0,0
00000b83 2e2e2f736f75   2315 	.strz	"../source/wrappers/SwcServiceDem/Dem_Dcm.hpp"
00000b89 7263652f7772 
00000b8f 617070657273 
00000b95 2f5377635365 
00000b9b 727669636544 
00000ba1 656d2f44656d 
00000ba7 5f44636d2e68 
00000bad 707000 
00000bb0 000000         2316 	.byte	0,0,0
00000bb3 2e2e2f736f75   2317 	.strz	"../source/wrappers/SwcServiceDem/Dem_J1939Dcm.hpp"
00000bb9 7263652f7772 
00000bbf 617070657273 
00000bc5 2f5377635365 
00000bcb 727669636544 
00000bd1 656d2f44656d 
00000bd7 5f4a31393339 
00000bdd 44636d2e6870 
00000be3 7000 

                                                                      Page 48
                                                              C:\Users\nhuliyap\AppData\Local\Temp\gh_000075o1.s
00000be5 000000         2318 	.byte	0,0,0
00000be8 2e2e2f736f75   2319 	.strz	"../source/ProjectCfg/Dcm_Cfg_SchM.hpp"
00000bee 7263652f5072 
00000bf4 6f6a65637443 
00000bfa 66672f44636d 
00000c00 5f4366675f53 
00000c06 63684d2e6870 
00000c0c 7000 
00000c0e 000000         2320 	.byte	0,0,0
00000c11 2e2e2f736f75   2321 	.strz	"../source/wrappers/rba_BswSrv/rba_BswSrv.hpp"
00000c17 7263652f7772 
00000c1d 617070657273 
00000c23 2f7262615f42 
00000c29 73775372762f 
00000c2f 7262615f4273 
00000c35 775372762e68 
00000c3b 707000 
00000c3e 000000         2322 	.byte	0,0,0
00000c41 2e2e2f736f75   2323 	.strz	"../source/ProjectCompiler/rba_BswSrv_MemMap.hpp"
00000c47 7263652f5072 
00000c4d 6f6a65637443 
00000c53 6f6d70696c65 
00000c59 722f7262615f 
00000c5f 427377537276 
00000c65 5f4d656d4d61 
00000c6b 702e68707000 
00000c71 000000         2324 	.byte	0,0,0
00000c74 2e2e2f736f75   2325 	.strz	"../source/wrappers/SwcServiceDcm/DcmDspUds_Seca_Prv.hpp"
00000c7a 7263652f7772 
00000c80 617070657273 
00000c86 2f5377635365 
00000c8c 727669636544 
00000c92 636d2f44636d 
00000c98 447370556473 
00000c9e 5f536563615f 
00000ca4 5072762e6870 
00000caa 7000 
00000cac 000000         2326 	.byte	0,0,0
00000caf 00             2327 	.byte	0
                        2328 .Ldw_lpro_end:
                        2329 	.section	.debug_macinfo
                        2330 .Ldw_macinfo_begin:
                        2331 	.section	.debug_frame
                        2332 .LDW_4dfe7c0:
00000000 00000000*      2333 	.word	.LDW_unq_2-.LDW_unq_1
                        2334 .LDW_unq_1:
00000004 ffffffff       2335 	.byte	255,255,255,255
00000008 01             2336 	.byte	1
00000009 00             2337 	.byte	0
0000000a 01             2338 	.byte	1
0000000b 01             2339 	.byte	1
0000000c 1f             2340 	.byte	31
0000000d 0c             2341 	.byte	12
0000000e 03             2342 	.byte	3
0000000f 00             2343 	.byte	0
00000010 07             2344 	.byte	7
00000011 00             2345 	.byte	0
00000012 07             2346 	.byte	7
00000013 01             2347 	.byte	1
00000014 07             2348 	.byte	7
00000015 02             2349 	.byte	2

                                                                      Page 49
                                                              C:\Users\nhuliyap\AppData\Local\Temp\gh_000075o1.s
00000016 07             2350 	.byte	7
00000017 03             2351 	.byte	3
00000018 07             2352 	.byte	7
00000019 04             2353 	.byte	4
0000001a 07             2354 	.byte	7
0000001b 05             2355 	.byte	5
0000001c 07             2356 	.byte	7
0000001d 06             2357 	.byte	6
0000001e 07             2358 	.byte	7
0000001f 07             2359 	.byte	7
00000020 07             2360 	.byte	7
00000021 08             2361 	.byte	8
00000022 07             2362 	.byte	7
00000023 09             2363 	.byte	9
00000024 07             2364 	.byte	7
00000025 0a             2365 	.byte	10
00000026 07             2366 	.byte	7
00000027 0b             2367 	.byte	11
00000028 07             2368 	.byte	7
00000029 0c             2369 	.byte	12
0000002a 07             2370 	.byte	7
0000002b 0d             2371 	.byte	13
0000002c 07             2372 	.byte	7
0000002d 0e             2373 	.byte	14
0000002e 07             2374 	.byte	7
0000002f 0f             2375 	.byte	15
00000030 07             2376 	.byte	7
00000031 10             2377 	.byte	16
00000032 07             2378 	.byte	7
00000033 11             2379 	.byte	17
00000034 07             2380 	.byte	7
00000035 12             2381 	.byte	18
00000036 07             2382 	.byte	7
00000037 13             2383 	.byte	19
00000038 08             2384 	.byte	8
00000039 14             2385 	.byte	20
0000003a 08             2386 	.byte	8
0000003b 15             2387 	.byte	21
0000003c 08             2388 	.byte	8
0000003d 16             2389 	.byte	22
0000003e 08             2390 	.byte	8
0000003f 17             2391 	.byte	23
00000040 08             2392 	.byte	8
00000041 18             2393 	.byte	24
00000042 08             2394 	.byte	8
00000043 19             2395 	.byte	25
00000044 08             2396 	.byte	8
00000045 1a             2397 	.byte	26
00000046 08             2398 	.byte	8
00000047 1b             2399 	.byte	27
00000048 08             2400 	.byte	8
00000049 1c             2401 	.byte	28
0000004a 08             2402 	.byte	8
0000004b 1d             2403 	.byte	29
0000004c 07             2404 	.byte	7
0000004d 1e             2405 	.byte	30
0000004e 08             2406 	.byte	8
0000004f 1f             2407 	.byte	31
00000050 07             2408 	.byte	7
00000051 20             2409 	.byte	32
00000052 07             2410 	.byte	7

                                                                      Page 50
                                                              C:\Users\nhuliyap\AppData\Local\Temp\gh_000075o1.s
00000053 21             2411 	.byte	33
00000054 07             2412 	.byte	7
00000055 22             2413 	.byte	34
00000056 07             2414 	.byte	7
00000057 23             2415 	.byte	35
00000058 07             2416 	.byte	7
00000059 24             2417 	.byte	36
0000005a 07             2418 	.byte	7
0000005b 25             2419 	.byte	37
0000005c 07             2420 	.byte	7
0000005d 26             2421 	.byte	38
0000005e 07             2422 	.byte	7
0000005f 27             2423 	.byte	39
00000060 07             2424 	.byte	7
00000061 28             2425 	.byte	40
00000062 07             2426 	.byte	7
00000063 29             2427 	.byte	41
00000064 07             2428 	.byte	7
00000065 2a             2429 	.byte	42
00000066 07             2430 	.byte	7
00000067 2b             2431 	.byte	43
00000068 07             2432 	.byte	7
00000069 2c             2433 	.byte	44
0000006a 07             2434 	.byte	7
0000006b 2d             2435 	.byte	45
0000006c 07             2436 	.byte	7
0000006d 2e             2437 	.byte	46
0000006e 07             2438 	.byte	7
0000006f 2f             2439 	.byte	47
00000070 07             2440 	.byte	7
00000071 30             2441 	.byte	48
00000072 07             2442 	.byte	7
00000073 31             2443 	.byte	49
00000074 07             2444 	.byte	7
00000075 32             2445 	.byte	50
00000076 07             2446 	.byte	7
00000077 33             2447 	.byte	51
00000078 07             2448 	.byte	7
00000079 34             2449 	.byte	52
0000007a 07             2450 	.byte	7
0000007b 35             2451 	.byte	53
0000007c 07             2452 	.byte	7
0000007d 36             2453 	.byte	54
0000007e 07             2454 	.byte	7
0000007f 37             2455 	.byte	55
00000080 07             2456 	.byte	7
00000081 38             2457 	.byte	56
00000082 07             2458 	.byte	7
00000083 39             2459 	.byte	57
00000084 07             2460 	.byte	7
00000085 3a             2461 	.byte	58
00000086 07             2462 	.byte	7
00000087 3b             2463 	.byte	59
00000088 07             2464 	.byte	7
00000089 3c             2465 	.byte	60
0000008a 07             2466 	.byte	7
0000008b 3d             2467 	.byte	61
0000008c 07             2468 	.byte	7
0000008d 3e             2469 	.byte	62
0000008e 07             2470 	.byte	7
0000008f 3f             2471 	.byte	63

                                                                      Page 51
                                                              C:\Users\nhuliyap\AppData\Local\Temp\gh_000075o1.s
                        2472 .LDW_unq_2:
                        2473 	.section	.debug_info
                        2474 .LDW_16b70f8:
000000ab 25             2475 	.byte	37
000000ac 756e7369676e   2476 	.strz	"unsigned char"
000000b2 656420636861 
000000b8 7200 
000000ba 08             2477 	.byte	8
000000bb 01             2478 	.byte	1
                        2479 
                        2480 	.section	.debug_abbrev
00000017 25             2481 	.byte	37
00000018 24             2482 	.byte	36
00000019 00             2483 	.byte	0
0000001a 0308           2484 	.byte	3,8
0000001c 3e0b           2485 	.byte	62,11
0000001e 0b0b           2486 	.byte	11,11
00000020 0000           2487 	.byte	0,0
                        2488 
                        2489 	.section	.debug_info
                        2490 .LDW_16b6ec8:
000000bc 25             2491 	.byte	37
000000bd 756e7369676e   2492 	.strz	"unsigned short"
000000c3 65642073686f 
000000c9 727400 
000000cc 07             2493 	.byte	7
000000cd 02             2494 	.byte	2
                        2495 
                        2496 .LDW_16b72f0:
000000ce 2f             2497 	.byte	47
000000cf 00000000*      2498 	.word	.LDW_16cbbf0
                        2499 
                        2500 	.section	.debug_abbrev
00000022 2f             2501 	.byte	47
00000023 0f             2502 	.byte	15
00000024 00             2503 	.byte	0
00000025 4910           2504 	.byte	73,16
00000027 0000           2505 	.byte	0,0
                        2506 
                        2507 	.section	.debug_info
                        2508 .LDW_4d4e330:
000000d3 25             2509 	.byte	37
000000d4 756e7369676e   2510 	.strz	"unsigned long"
000000da 6564206c6f6e 
000000e0 6700 
000000e2 07             2511 	.byte	7
000000e3 04             2512 	.byte	4
                        2513 
                        2514 .LDW_4c368a0:
000000e4 29             2515 	.byte	41
000000e5 00000000*      2516 	.word	.LDW_4dcbd80
                        2517 
                        2518 	.section	.debug_abbrev
00000029 29             2519 	.byte	41
0000002a 26             2520 	.byte	38
0000002b 00             2521 	.byte	0
0000002c 4910           2522 	.byte	73,16
0000002e 0000           2523 	.byte	0,0
                        2524 
                        2525 	.section	.debug_info
                        2526 .LDW_4c367f0:

                                                                      Page 52
                                                              C:\Users\nhuliyap\AppData\Local\Temp\gh_000075o1.s
000000e9 29             2527 	.byte	41
000000ea 00000000*      2528 	.word	.LDW_16cbbf0
                        2529 
                        2530 .LDW_16f82f0:
000000ee 2f             2531 	.byte	47
000000ef 00000000*      2532 	.word	.LDW_4cf0fa8
                        2533 
                        2534 .LDW_4cf0f50:
000000f3 29             2535 	.byte	41
000000f4 00000000*      2536 	.word	.LDW_4cf11b8
                        2537 
                        2538 .LDW_16f8280:
000000f8 2f             2539 	.byte	47
000000f9 00000000*      2540 	.word	.LDW_4cf0f50
                        2541 
                        2542 .LDW_4d94030:
000000fd 45             2543 	.byte	69
000000fe 01             2544 	.byte	1
                        2545 
                        2546 	.section	.debug_abbrev
00000030 45             2547 	.byte	69
00000031 15             2548 	.byte	21
00000032 01             2549 	.byte	1
00000033 270c           2550 	.byte	39,12
00000035 0000           2551 	.byte	0,0
                        2552 
                        2553 	.section	.debug_info
                        2554 .LDW_4dd45d8:
000000ff 12             2555 	.byte	18
00000100 00000000*      2556 	.word	.LDW_16f82f0
00000104 00             2557 	.byte	0
                        2558 
                        2559 	.section	.debug_abbrev
00000037 12             2560 	.byte	18
00000038 05             2561 	.byte	5
00000039 00             2562 	.byte	0
0000003a 4910           2563 	.byte	73,16
0000003c 4b0c           2564 	.byte	75,12
0000003e 0000           2565 	.byte	0,0
                        2566 
                        2567 	.section	.debug_info
                        2568 .LDW_4dd4938:
00000105 12             2569 	.byte	18
00000106 00000000*      2570 	.word	.LDW_16f8280
0000010a 00             2571 	.byte	0
                        2572 
0000010b 00             2573 	.byte	0
                        2574 
                        2575 .LDW_16f8440:
0000010c 2f             2576 	.byte	47
0000010d 00000000*      2577 	.word	.LDW_4cf11b8
                        2578 
                        2579 .LDW_16f87f8:
00000111 45             2580 	.byte	69
00000112 01             2581 	.byte	1
                        2582 
                        2583 .LDW_4dd48d8:
00000113 12             2584 	.byte	18
00000114 00000000*      2585 	.word	.LDW_16f82f0
00000118 00             2586 	.byte	0
                        2587 

                                                                      Page 53
                                                              C:\Users\nhuliyap\AppData\Local\Temp\gh_000075o1.s
                        2588 .LDW_4dd49f8:
00000119 12             2589 	.byte	18
0000011a 00000000*      2590 	.word	.LDW_16f8440
0000011e 00             2591 	.byte	0
                        2592 
0000011f 00             2593 	.byte	0
                        2594 
                        2595 .LDW_16f8478:
00000120 2f             2596 	.byte	47
00000121 00000000*      2597 	.word	.LDW_4cf1738
                        2598 
                        2599 .LDW_16f8328:
00000125 45             2600 	.byte	69
00000126 01             2601 	.byte	1
                        2602 
                        2603 .LDW_4dd4a28:
00000127 12             2604 	.byte	18
00000128 00000000*      2605 	.word	.LDW_16f8440
0000012c 00             2606 	.byte	0
                        2607 
                        2608 .LDW_4dd4b78:
0000012d 12             2609 	.byte	18
0000012e 00000000*      2610 	.word	.LDW_16f8478
00000132 00             2611 	.byte	0
                        2612 
00000133 00             2613 	.byte	0
                        2614 
                        2615 .LDW_16f8130:
00000134 45             2616 	.byte	69
00000135 01             2617 	.byte	1
                        2618 
                        2619 .LDW_4dd4698:
00000136 12             2620 	.byte	18
00000137 00000000*      2621 	.word	.LDW_16f8440
0000013b 00             2622 	.byte	0
                        2623 
                        2624 .LDW_4dd4758:
0000013c 12             2625 	.byte	18
0000013d 00000000*      2626 	.word	.LDW_16f8478
00000141 00             2627 	.byte	0
                        2628 
00000142 00             2629 	.byte	0
                        2630 
                        2631 .LDW_16f8590:
00000143 45             2632 	.byte	69
00000144 01             2633 	.byte	1
                        2634 
                        2635 .LDW_4dd4a88:
00000145 12             2636 	.byte	18
00000146 00000000*      2637 	.word	.LDW_16f8440
0000014a 00             2638 	.byte	0
                        2639 
                        2640 .LDW_4dd4908:
0000014b 12             2641 	.byte	18
0000014c 00000000*      2642 	.word	.LDW_16f8478
00000150 00             2643 	.byte	0
                        2644 
00000151 00             2645 	.byte	0
                        2646 
                        2647 .LDW_16f82b8:
00000152 25             2648 	.byte	37

                                                                      Page 54
                                                              C:\Users\nhuliyap\AppData\Local\Temp\gh_000075o1.s
00000153 756e7369676e   2649 	.strz	"unsigned int"
00000159 656420696e74 
0000015f 00 
00000160 07             2650 	.byte	7
00000161 04             2651 	.byte	4
                        2652 
                        2653 .LDW_16f84b0:
00000162 45             2654 	.byte	69
00000163 01             2655 	.byte	1
                        2656 
                        2657 .LDW_4dd4788:
00000164 12             2658 	.byte	18
00000165 00000000*      2659 	.word	.LDW_16f82f0
00000169 00             2660 	.byte	0
                        2661 
                        2662 .LDW_4dd4968:
0000016a 12             2663 	.byte	18
0000016b 00000000*      2664 	.word	.LDW_16f8280
0000016f 00             2665 	.byte	0
                        2666 
                        2667 .LDW_4dd47e8:
00000170 12             2668 	.byte	18
00000171 00000000*      2669 	.word	.LDW_16f8478
00000175 00             2670 	.byte	0
                        2671 
00000176 00             2672 	.byte	0
                        2673 
                        2674 .LDW_16f8168:
00000177 45             2675 	.byte	69
00000178 01             2676 	.byte	1
                        2677 
                        2678 .LDW_4dd4848:
00000179 12             2679 	.byte	18
0000017a 00000000*      2680 	.word	.LDW_16f8280
0000017e 00             2681 	.byte	0
                        2682 
                        2683 .LDW_4dd48a8:
0000017f 12             2684 	.byte	18
00000180 00000000*      2685 	.word	.LDW_16f8478
00000184 00             2686 	.byte	0
                        2687 
00000185 00             2688 	.byte	0
                        2689 
                        2690 .LDW_16f8408:
00000186 45             2691 	.byte	69
00000187 01             2692 	.byte	1
                        2693 
                        2694 .LDW_16f5440:
00000188 12             2695 	.byte	18
00000189 00000000*      2696 	.word	.LDW_16f8440
0000018d 00             2697 	.byte	0
                        2698 
                        2699 .LDW_16f53b0:
0000018e 12             2700 	.byte	18
0000018f 00000000*      2701 	.word	.LDW_16f8478
00000193 00             2702 	.byte	0
                        2703 
00000194 00             2704 	.byte	0
                        2705 
                        2706 .LDW_16f84e8:
00000195 45             2707 	.byte	69

                                                                      Page 55
                                                              C:\Users\nhuliyap\AppData\Local\Temp\gh_000075o1.s
00000196 01             2708 	.byte	1
                        2709 
                        2710 .LDW_16f52c0:
00000197 12             2711 	.byte	18
00000198 00000000*      2712 	.word	.LDW_16f8478
0000019c 00             2713 	.byte	0
                        2714 
0000019d 00             2715 	.byte	0
                        2716 
                        2717 .LDW_16f8360:
0000019e 45             2718 	.byte	69
0000019f 01             2719 	.byte	1
                        2720 
                        2721 .LDW_16f5410:
000001a0 12             2722 	.byte	18
000001a1 00000000*      2723 	.word	.LDW_16f8280
000001a5 00             2724 	.byte	0
                        2725 
                        2726 .LDW_16f56e0:
000001a6 12             2727 	.byte	18
000001a7 00000000*      2728 	.word	.LDW_16f8478
000001ab 00             2729 	.byte	0
                        2730 
000001ac 00             2731 	.byte	0
                        2732 
                        2733 .LDW_16f81a0:
000001ad 45             2734 	.byte	69
000001ae 01             2735 	.byte	1
                        2736 
                        2737 .LDW_16f5560:
000001af 12             2738 	.byte	18
000001b0 00000000*      2739 	.word	.LDW_16f82f0
000001b4 00             2740 	.byte	0
                        2741 
000001b5 00             2742 	.byte	0
                        2743 
                        2744 .LDW_16f8520:
000001b6 45             2745 	.byte	69
000001b7 01             2746 	.byte	1
                        2747 
                        2748 .LDW_16f5530:
000001b8 12             2749 	.byte	18
000001b9 00000000*      2750 	.word	.LDW_16f82f0
000001bd 00             2751 	.byte	0
                        2752 
                        2753 .LDW_16f5470:
000001be 12             2754 	.byte	18
000001bf 00000000*      2755 	.word	.LDW_16f8440
000001c3 00             2756 	.byte	0
                        2757 
                        2758 .LDW_16f51d0:
000001c4 12             2759 	.byte	18
000001c5 00000000*      2760 	.word	.LDW_16f8478
000001c9 00             2761 	.byte	0
                        2762 
000001ca 00             2763 	.byte	0
                        2764 
                        2765 .LDW_16f8398:
000001cb 45             2766 	.byte	69
000001cc 01             2767 	.byte	1
                        2768 

                                                                      Page 56
                                                              C:\Users\nhuliyap\AppData\Local\Temp\gh_000075o1.s
                        2769 .LDW_16f5110:
000001cd 12             2770 	.byte	18
000001ce 00000000*      2771 	.word	.LDW_16f82f0
000001d2 00             2772 	.byte	0
                        2773 
000001d3 00             2774 	.byte	0
                        2775 
                        2776 .LDW_16f8558:
000001d4 45             2777 	.byte	69
000001d5 01             2778 	.byte	1
                        2779 
                        2780 .LDW_16f51a0:
000001d6 12             2781 	.byte	18
000001d7 00000000*      2782 	.word	.LDW_16f82f0
000001db 00             2783 	.byte	0
                        2784 
000001dc 00             2785 	.byte	0
                        2786 
                        2787 .LDW_16f8248:
000001dd 45             2788 	.byte	69
000001de 01             2789 	.byte	1
                        2790 
                        2791 .LDW_16f5590:
000001df 12             2792 	.byte	18
000001e0 00000000*      2793 	.word	.LDW_16f8478
000001e4 00             2794 	.byte	0
                        2795 
000001e5 00             2796 	.byte	0
                        2797 
                        2798 .LDW_16f8670:
000001e6 45             2799 	.byte	69
000001e7 01             2800 	.byte	1
                        2801 
                        2802 .LDW_16f54d0:
000001e8 12             2803 	.byte	18
000001e9 00000000*      2804 	.word	.LDW_16f82f0
000001ed 00             2805 	.byte	0
                        2806 
                        2807 .LDW_16f5230:
000001ee 12             2808 	.byte	18
000001ef 00000000*      2809 	.word	.LDW_16f8440
000001f3 00             2810 	.byte	0
                        2811 
                        2812 .LDW_16f5650:
000001f4 12             2813 	.byte	18
000001f5 00000000*      2814 	.word	.LDW_16f8478
000001f9 00             2815 	.byte	0
                        2816 
000001fa 00             2817 	.byte	0
                        2818 
                        2819 .LDW_16f8750:
000001fb 45             2820 	.byte	69
000001fc 01             2821 	.byte	1
                        2822 
                        2823 .LDW_16f5620:
000001fd 12             2824 	.byte	18
000001fe 00000000*      2825 	.word	.LDW_16f82f0
00000202 00             2826 	.byte	0
                        2827 
                        2828 .LDW_16f55c0:
00000203 12             2829 	.byte	18

                                                                      Page 57
                                                              C:\Users\nhuliyap\AppData\Local\Temp\gh_000075o1.s
00000204 00000000*      2830 	.word	.LDW_16f8440
00000208 00             2831 	.byte	0
                        2832 
                        2833 .LDW_16f5200:
00000209 12             2834 	.byte	18
0000020a 00000000*      2835 	.word	.LDW_16f8478
0000020e 00             2836 	.byte	0
                        2837 
0000020f 00             2838 	.byte	0
                        2839 
                        2840 .LDW_16f83d0:
00000210 45             2841 	.byte	69
00000211 01             2842 	.byte	1
                        2843 
                        2844 .LDW_16f52f0:
00000212 12             2845 	.byte	18
00000213 00000000*      2846 	.word	.LDW_16f8440
00000217 00             2847 	.byte	0
                        2848 
                        2849 .LDW_16f56b0:
00000218 12             2850 	.byte	18
00000219 00000000*      2851 	.word	.LDW_16f8478
0000021d 00             2852 	.byte	0
                        2853 
0000021e 00             2854 	.byte	0
                        2855 
                        2856 .LDW_16f81d8:
0000021f 45             2857 	.byte	69
00000220 01             2858 	.byte	1
                        2859 
                        2860 .LDW_16f5b60:
00000221 12             2861 	.byte	18
00000222 00000000*      2862 	.word	.LDW_16f82f0
00000226 00             2863 	.byte	0
                        2864 
                        2865 .LDW_16f5b30:
00000227 12             2866 	.byte	18
00000228 00000000*      2867 	.word	.LDW_16f8440
0000022c 00             2868 	.byte	0
                        2869 
                        2870 .LDW_16f5830:
0000022d 12             2871 	.byte	18
0000022e 00000000*      2872 	.word	.LDW_16f8478
00000232 00             2873 	.byte	0
                        2874 
00000233 00             2875 	.byte	0
                        2876 
                        2877 .LDW_16f85c8:
00000234 45             2878 	.byte	69
00000235 01             2879 	.byte	1
                        2880 
                        2881 .LDW_16f57d0:
00000236 12             2882 	.byte	18
00000237 00000000*      2883 	.word	.LDW_16f8440
0000023b 00             2884 	.byte	0
                        2885 
                        2886 .LDW_16f5bf0:
0000023c 12             2887 	.byte	18
0000023d 00000000*      2888 	.word	.LDW_16f8478
00000241 00             2889 	.byte	0
                        2890 

                                                                      Page 58
                                                              C:\Users\nhuliyap\AppData\Local\Temp\gh_000075o1.s
00000242 00             2891 	.byte	0
                        2892 
                        2893 .LDW_16f8600:
00000243 45             2894 	.byte	69
00000244 01             2895 	.byte	1
                        2896 
00000245 00             2897 	.byte	0
                        2898 
                        2899 .LDW_16f8210:
00000246 45             2900 	.byte	69
00000247 01             2901 	.byte	1
                        2902 
00000248 00             2903 	.byte	0
                        2904 
                        2905 .LDW_16f8638:
00000249 45             2906 	.byte	69
0000024a 01             2907 	.byte	1
                        2908 
0000024b 00             2909 	.byte	0
                        2910 
                        2911 .LDW_16f86a8:
0000024c 45             2912 	.byte	69
0000024d 01             2913 	.byte	1
                        2914 
0000024e 00             2915 	.byte	0
                        2916 
                        2917 .LDW_16f86e0:
0000024f 45             2918 	.byte	69
00000250 01             2919 	.byte	1
                        2920 
                        2921 .LDW_16f5c50:
00000251 12             2922 	.byte	18
00000252 00000000*      2923 	.word	.LDW_16f82f0
00000256 00             2924 	.byte	0
                        2925 
                        2926 .LDW_16f58c0:
00000257 12             2927 	.byte	18
00000258 00000000*      2928 	.word	.LDW_16f8440
0000025c 00             2929 	.byte	0
                        2930 
                        2931 .LDW_16f57a0:
0000025d 12             2932 	.byte	18
0000025e 00000000*      2933 	.word	.LDW_16f8478
00000262 00             2934 	.byte	0
                        2935 
00000263 00             2936 	.byte	0
                        2937 
                        2938 .LDW_16f8718:
00000264 45             2939 	.byte	69
00000265 01             2940 	.byte	1
                        2941 
                        2942 .LDW_16f5740:
00000266 12             2943 	.byte	18
00000267 00000000*      2944 	.word	.LDW_16f82f0
0000026b 00             2945 	.byte	0
                        2946 
0000026c 00             2947 	.byte	0
                        2948 
                        2949 .LDW_16f8788:
0000026d 45             2950 	.byte	69
0000026e 01             2951 	.byte	1

                                                                      Page 59
                                                              C:\Users\nhuliyap\AppData\Local\Temp\gh_000075o1.s
                        2952 
                        2953 .LDW_16f5a10:
0000026f 12             2954 	.byte	18
00000270 00000000*      2955 	.word	.LDW_16f8478
00000274 00             2956 	.byte	0
                        2957 
00000275 00             2958 	.byte	0
                        2959 
                        2960 .LDW_16f87c0:
00000276 45             2961 	.byte	69
00000277 01             2962 	.byte	1
                        2963 
                        2964 .LDW_16f5bc0:
00000278 12             2965 	.byte	18
00000279 00000000*      2966 	.word	.LDW_16f8478
0000027d 00             2967 	.byte	0
                        2968 
0000027e 00             2969 	.byte	0
                        2970 
                        2971 .LDW_16f88a0:
0000027f 45             2972 	.byte	69
00000280 01             2973 	.byte	1
                        2974 
                        2975 .LDW_16f5ad0:
00000281 12             2976 	.byte	18
00000282 00000000*      2977 	.word	.LDW_16f8478
00000286 00             2978 	.byte	0
                        2979 
00000287 00             2980 	.byte	0
                        2981 
                        2982 .LDW_16f8868:
00000288 45             2983 	.byte	69
00000289 01             2984 	.byte	1
                        2985 
                        2986 .LDW_16f5aa0:
0000028a 12             2987 	.byte	18
0000028b 00000000*      2988 	.word	.LDW_16f82f0
0000028f 00             2989 	.byte	0
                        2990 
                        2991 .LDW_16f5770:
00000290 12             2992 	.byte	18
00000291 00000000*      2993 	.word	.LDW_16f8440
00000295 00             2994 	.byte	0
                        2995 
                        2996 .LDW_16f5800:
00000296 12             2997 	.byte	18
00000297 00000000*      2998 	.word	.LDW_16f8478
0000029b 00             2999 	.byte	0
                        3000 
0000029c 00             3001 	.byte	0
                        3002 
                        3003 .LDW_16f8830:
0000029d 44             3004 	.byte	68
0000029e 00000000*      3005 	.word	.LDW_4cf1478
000002a2 01             3006 	.byte	1
                        3007 
                        3008 	.section	.debug_abbrev
00000040 44             3009 	.byte	68
00000041 15             3010 	.byte	21
00000042 01             3011 	.byte	1
00000043 4910           3012 	.byte	73,16

                                                                      Page 60
                                                              C:\Users\nhuliyap\AppData\Local\Temp\gh_000075o1.s
00000045 270c           3013 	.byte	39,12
00000047 0000           3014 	.byte	0,0
                        3015 
                        3016 	.section	.debug_info
                        3017 .LDW_16f5920:
000002a3 12             3018 	.byte	18
000002a4 00000000*      3019 	.word	.LDW_4cf0fa8
000002a8 00             3020 	.byte	0
                        3021 
                        3022 .LDW_16f5950:
000002a9 12             3023 	.byte	18
000002aa 00000000*      3024 	.word	.LDW_16f8440
000002ae 00             3025 	.byte	0
                        3026 
                        3027 .LDW_16f5b00:
000002af 12             3028 	.byte	18
000002b0 00000000*      3029 	.word	.LDW_16f8478
000002b4 00             3030 	.byte	0
                        3031 
000002b5 00             3032 	.byte	0
                        3033 
                        3034 .LDW_4d4b1f8:
000002b6 45             3035 	.byte	69
000002b7 01             3036 	.byte	1
                        3037 
000002b8 00             3038 	.byte	0
                        3039 
                        3040 .LDW_4d4b380:
000002b9 25             3041 	.byte	37
000002ba 696e7400       3042 	.strz	"int"
000002be 05             3043 	.byte	5
000002bf 04             3044 	.byte	4
                        3045 
                        3046 .LDW_4d4b700:
000002c0 2f             3047 	.byte	47
000002c1 00000000*      3048 	.word	.LDW_16fd990
                        3049 
                        3050 .LDW_4d4b770:
000002c5 44             3051 	.byte	68
000002c6 00000000*      3052 	.word	.LDW_4cf1478
000002ca 01             3053 	.byte	1
                        3054 
                        3055 .LDW_16f5fb0:
000002cb 12             3056 	.byte	18
000002cc 00000000*      3057 	.word	.LDW_4cf1000
000002d0 00             3058 	.byte	0
                        3059 
                        3060 .LDW_4ead740:
000002d1 12             3061 	.byte	18
000002d2 00000000*      3062 	.word	.LDW_4dcbd80
000002d6 00             3063 	.byte	0
                        3064 
                        3065 .LDW_4eadb00:
000002d7 12             3066 	.byte	18
000002d8 00000000*      3067 	.word	.LDW_4dcbd80
000002dc 00             3068 	.byte	0
                        3069 
                        3070 .LDW_4ead6b0:
000002dd 12             3071 	.byte	18
000002de 00000000*      3072 	.word	.LDW_16b72f0
000002e2 00             3073 	.byte	0

                                                                      Page 61
                                                              C:\Users\nhuliyap\AppData\Local\Temp\gh_000075o1.s
                        3074 
                        3075 .LDW_4ead710:
000002e3 12             3076 	.byte	18
000002e4 00000000*      3077 	.word	.LDW_16b72f0
000002e8 00             3078 	.byte	0
                        3079 
                        3080 .LDW_4ead980:
000002e9 12             3081 	.byte	18
000002ea 00000000*      3082 	.word	.LDW_16fda40
000002ee 00             3083 	.byte	0
                        3084 
                        3085 .LDW_4ead800:
000002ef 12             3086 	.byte	18
000002f0 00000000*      3087 	.word	.LDW_16f8478
000002f4 00             3088 	.byte	0
                        3089 
000002f5 00             3090 	.byte	0
                        3091 
                        3092 .LDW_4d4b738:
000002f6 2f             3093 	.byte	47
000002f7 00000000*      3094 	.word	.LDW_4d4b770
                        3095 
                        3096 .LDW_4d4b7a8:
000002fb 44             3097 	.byte	68
000002fc 00000000*      3098 	.word	.LDW_4cf1478
00000300 01             3099 	.byte	1
                        3100 
                        3101 .LDW_4ead7a0:
00000301 12             3102 	.byte	18
00000302 00000000*      3103 	.word	.LDW_4dcbd80
00000306 00             3104 	.byte	0
                        3105 
                        3106 .LDW_4ead860:
00000307 12             3107 	.byte	18
00000308 00000000*      3108 	.word	.LDW_16b72f0
0000030c 00             3109 	.byte	0
                        3110 
                        3111 .LDW_4ead9b0:
0000030d 12             3112 	.byte	18
0000030e 00000000*      3113 	.word	.LDW_16fda40
00000312 00             3114 	.byte	0
                        3115 
                        3116 .LDW_4eadbc0:
00000313 12             3117 	.byte	18
00000314 00000000*      3118 	.word	.LDW_16f8478
00000318 00             3119 	.byte	0
                        3120 
00000319 00             3121 	.byte	0
                        3122 
                        3123 .LDW_4eae9a0:
0000031a 2f             3124 	.byte	47
0000031b 00000000*      3125 	.word	.LDW_4d4b7a8
                        3126 
                        3127 .LDW_4eae658:
0000031f 25             3128 	.byte	37
00000320 766f69642a00   3129 	.strz	"void*"
00000326 01             3130 	.byte	1
00000327 04             3131 	.byte	4
                        3132 
                        3133 .LDW_4eacb18:
00000328 29             3134 	.byte	41

                                                                      Page 62
                                                              C:\Users\nhuliyap\AppData\Local\Temp\gh_000075o1.s
00000329 00000000*      3135 	.word	.LDW_4eae658
                        3136 
                        3137 .LDW_4eb6e68:
0000032d 3b             3138 	.byte	59
0000032e 00             3139 	.byte	0
0000032f 00000000*      3140 	.word	.LDW_16cbbf0
                        3141 
                        3142 	.section	.debug_abbrev
00000049 3b             3143 	.byte	59
0000004a 01             3144 	.byte	1
0000004b 01             3145 	.byte	1
0000004c 090b           3146 	.byte	9,11
0000004e 4910           3147 	.byte	73,16
00000050 0000           3148 	.byte	0,0
                        3149 
                        3150 	.section	.debug_info
00000333 32             3151 	.byte	50
00000334 00000000*      3152 	.word	.LDW_4d4b380
00000338 04             3153 	.byte	4
00000339 00             3154 	.byte	0
0000033a 7f             3155 	.byte	127
                        3156 
                        3157 	.section	.debug_abbrev
00000052 32             3158 	.byte	50
00000053 21             3159 	.byte	33
00000054 00             3160 	.byte	0
00000055 4910           3161 	.byte	73,16
00000057 0b0f           3162 	.byte	11,15
00000059 220d           3163 	.byte	34,13
0000005b 2f0d           3164 	.byte	47,13
0000005d 0000           3165 	.byte	0,0
                        3166 
                        3167 	.section	.debug_info
0000033b 00             3168 	.byte	0
                        3169 
                        3170 .LDW_4eb7bd8:
0000033c 3a             3171 	.byte	58
0000033d 00             3172 	.byte	0
0000033e 10             3173 	.byte	16
0000033f 00000000*      3174 	.word	.LDW_4eac960
                        3175 
                        3176 	.section	.debug_abbrev
0000005f 3a             3177 	.byte	58
00000060 01             3178 	.byte	1
00000061 01             3179 	.byte	1
00000062 090b           3180 	.byte	9,11
00000064 0b0f           3181 	.byte	11,15
00000066 4910           3182 	.byte	73,16
00000068 0000           3183 	.byte	0,0
                        3184 
                        3185 	.section	.debug_info
00000343 32             3186 	.byte	50
00000344 00000000*      3187 	.word	.LDW_4d4b380
00000348 04             3188 	.byte	4
00000349 00             3189 	.byte	0
0000034a 01             3190 	.byte	1
                        3191 
0000034b 00             3192 	.byte	0
                        3193 
                        3194 .LDW_4eb5d20:
0000034c 29             3195 	.byte	41

                                                                      Page 63
                                                              C:\Users\nhuliyap\AppData\Local\Temp\gh_000075o1.s
0000034d 00000000*      3196 	.word	.LDW_4eacbc8
                        3197 
                        3198 .LDW_4eb7c60:
00000351 3a             3199 	.byte	58
00000352 00             3200 	.byte	0
00000353 50             3201 	.byte	80
00000354 00000000*      3202 	.word	.LDW_4eb5d20
                        3203 
00000358 32             3204 	.byte	50
00000359 00000000*      3205 	.word	.LDW_4d4b380
0000035d 04             3206 	.byte	4
0000035e 00             3207 	.byte	0
0000035f 01             3208 	.byte	1
                        3209 
00000360 00             3210 	.byte	0
                        3211 
                        3212 .LDW_4eb3a38:
00000361 2f             3213 	.byte	47
00000362 00000000*      3214 	.word	.LDW_4eb5d20
                        3215 
                        3216 .LDW_4eb3c68:
00000366 44             3217 	.byte	68
00000367 00000000*      3218 	.word	.LDW_4bb0040
0000036b 01             3219 	.byte	1
                        3220 
                        3221 .LDW_4eadd70:
0000036c 12             3222 	.byte	18
0000036d 00000000*      3223 	.word	.LDW_16cbbf0
00000371 00             3224 	.byte	0
                        3225 
00000372 00             3226 	.byte	0
                        3227 
                        3228 .LDW_4ec4930:
00000373 2f             3229 	.byte	47
00000374 00000000*      3230 	.word	.LDW_4cf1000
                        3231 
                        3232 .LDW_4ec48f8:
00000378 44             3233 	.byte	68
00000379 00000000*      3234 	.word	.LDW_4cf1478
0000037d 01             3235 	.byte	1
                        3236 
                        3237 .LDW_4eadec0:
0000037e 12             3238 	.byte	18
0000037f 00000000*      3239 	.word	.LDW_4ec4930
00000383 00             3240 	.byte	0
                        3241 
00000384 00             3242 	.byte	0
                        3243 
                        3244 .LDW_4ec9558:
00000385 45             3245 	.byte	69
00000386 01             3246 	.byte	1
                        3247 
00000387 00             3248 	.byte	0
                        3249 
                        3250 .LDW_4edb268:
00000388 44             3251 	.byte	68
00000389 00000000*      3252 	.word	.LDW_4dcbd80
0000038d 01             3253 	.byte	1
                        3254 
                        3255 .LDW_4ed84f0:
0000038e 12             3256 	.byte	18

                                                                      Page 64
                                                              C:\Users\nhuliyap\AppData\Local\Temp\gh_000075o1.s
0000038f 00000000*      3257 	.word	.LDW_16cbbf0
00000393 00             3258 	.byte	0
                        3259 
                        3260 .LDW_4ed8550:
00000394 12             3261 	.byte	18
00000395 00000000*      3262 	.word	.LDW_16cbbf0
00000399 00             3263 	.byte	0
                        3264 
                        3265 .LDW_4ed8580:
0000039a 12             3266 	.byte	18
0000039b 00000000*      3267 	.word	.LDW_4dcbd80
0000039f 00             3268 	.byte	0
                        3269 
000003a0 00             3270 	.byte	0
                        3271 
                        3272 .LDW_4edb2a0:
000003a1 45             3273 	.byte	69
000003a2 01             3274 	.byte	1
                        3275 
                        3276 .LDW_4ed88e0:
000003a3 12             3277 	.byte	18
000003a4 00000000*      3278 	.word	.LDW_16cbbf0
000003a8 00             3279 	.byte	0
                        3280 
000003a9 00             3281 	.byte	0
                        3282 
                        3283 .LDW_4edb2d8:
000003aa 44             3284 	.byte	68
000003ab 00000000*      3285 	.word	.LDW_4cf1478
000003af 01             3286 	.byte	1
                        3287 
                        3288 .LDW_4ed86d0:
000003b0 12             3289 	.byte	18
000003b1 00000000*      3290 	.word	.LDW_16cbbf0
000003b5 00             3291 	.byte	0
                        3292 
000003b6 00             3293 	.byte	0
                        3294 
                        3295 .LDW_4edaf58:
000003b7 44             3296 	.byte	68
000003b8 00000000*      3297 	.word	.LDW_4cf1478
000003bc 01             3298 	.byte	1
                        3299 
                        3300 .LDW_4ed8820:
000003bd 12             3301 	.byte	18
000003be 00000000*      3302 	.word	.LDW_16cbbf0
000003c2 00             3303 	.byte	0
                        3304 
000003c3 00             3305 	.byte	0
                        3306 
                        3307 .LDW_4ec1b38:
000003c4 2a             3308 	.byte	42
                        3309 
                        3310 	.section	.debug_abbrev
0000006a 2a             3311 	.byte	42
0000006b 26             3312 	.byte	38
0000006c 00             3313 	.byte	0
0000006d 0000           3314 	.byte	0,0
                        3315 
                        3316 	.section	.debug_info
                        3317 .LDW_4edb460:

                                                                      Page 65
                                                              C:\Users\nhuliyap\AppData\Local\Temp\gh_000075o1.s
000003c5 2f             3318 	.byte	47
000003c6 00000000*      3319 	.word	.LDW_4ec1b38
                        3320 
                        3321 .LDW_4edb428:
000003ca 44             3322 	.byte	68
000003cb 00000000*      3323 	.word	.LDW_4eae658
000003cf 01             3324 	.byte	1
                        3325 
                        3326 .LDW_4ed8d30:
000003d0 12             3327 	.byte	18
000003d1 00000000*      3328 	.word	.LDW_4eae658
000003d5 00             3329 	.byte	0
                        3330 
                        3331 .LDW_4ed9090:
000003d6 12             3332 	.byte	18
000003d7 00000000*      3333 	.word	.LDW_4edb460
000003db 00             3334 	.byte	0
                        3335 
                        3336 .LDW_4ed8d60:
000003dc 12             3337 	.byte	18
000003dd 00000000*      3338 	.word	.LDW_4dcbd80
000003e1 00             3339 	.byte	0
                        3340 
000003e2 00             3341 	.byte	0
                        3342 
                        3343 .LDW_4bb0040:
000003e3 28             3344 	.byte	40
000003e4 626f6f6c6561   3345 	.strz	"boolean"
000003ea 6e00 
000003ec 4e             3346 	.byte	78
000003ed 49             3347 	.byte	73
000003ee 03             3348 	.byte	3
000003ef 00000000*      3349 	.word	.LDW_16b70f8
                        3350 
                        3351 	.section	.debug_abbrev
0000006f 28             3352 	.byte	40
00000070 16             3353 	.byte	22
00000071 00             3354 	.byte	0
00000072 0308           3355 	.byte	3,8
00000074 3b0f           3356 	.byte	59,15
00000076 390f           3357 	.byte	57,15
00000078 3a0f           3358 	.byte	58,15
0000007a 4910           3359 	.byte	73,16
0000007c 0000           3360 	.byte	0,0
                        3361 
                        3362 	.section	.debug_info
                        3363 .LDW_16cbbf0:
000003f3 28             3364 	.byte	40
000003f4 75696e743800   3365 	.strz	"uint8"
000003fa 50             3366 	.byte	80
000003fb 4b             3367 	.byte	75
000003fc 03             3368 	.byte	3
000003fd 00000000*      3369 	.word	.LDW_16b70f8
                        3370 
                        3371 .LDW_4d21ce0:
00000401 28             3372 	.byte	40
00000402 75696e743136   3373 	.strz	"uint16"
00000408 00 
00000409 52             3374 	.byte	82
0000040a 4a             3375 	.byte	74
0000040b 03             3376 	.byte	3

                                                                      Page 66
                                                              C:\Users\nhuliyap\AppData\Local\Temp\gh_000075o1.s
0000040c 00000000*      3377 	.word	.LDW_16b6ec8
                        3378 
                        3379 .LDW_4dcbd80:
00000410 28             3380 	.byte	40
00000411 75696e743332   3381 	.strz	"uint32"
00000417 00 
00000418 54             3382 	.byte	84
00000419 4a             3383 	.byte	74
0000041a 03             3384 	.byte	3
0000041b 00000000*      3385 	.word	.LDW_4d4e330
                        3386 
                        3387 .LDW_4cf1108:
0000041f 28             3388 	.byte	40
00000420 75696e74385f   3389 	.strz	"uint8_least"
00000426 6c6561737400 
0000042c 56             3390 	.byte	86
0000042d 45             3391 	.byte	69
0000042e 03             3392 	.byte	3
0000042f 00000000*      3393 	.word	.LDW_16f82b8
                        3394 
                        3395 .LDW_4cf1478:
00000433 28             3396 	.byte	40
00000434 5374645f5265   3397 	.strz	"Std_ReturnType"
0000043a 7475726e5479 
00000440 706500 
00000443 4e             3398 	.byte	78
00000444 0f             3399 	.byte	15
00000445 02             3400 	.byte	2
00000446 00000000*      3401 	.word	.LDW_16cbbf0
                        3402 
                        3403 .LDW_4d21d38:
0000044a 28             3404 	.byte	40
0000044b 547970655f53   3405 	.strz	"Type_SwcServiceCom_tIdPdu"
00000451 776353657276 
00000457 696365436f6d 
0000045d 5f7449645064 
00000463 7500 
00000465 04             3406 	.byte	4
00000466 10             3407 	.byte	16
00000467 0a             3408 	.byte	10
00000468 00000000*      3409 	.word	.LDW_4d21ce0
                        3410 
                        3411 .LDW_16fda40:
0000046c 28             3412 	.byte	40
0000046d 44636d5f4f70   3413 	.strz	"Dcm_OpStatusType"
00000473 537461747573 
00000479 5479706500 
0000047e 27             3414 	.byte	39
0000047f 0f             3415 	.byte	15
00000480 10             3416 	.byte	16
00000481 00000000*      3417 	.word	.LDW_16cbbf0
                        3418 
                        3419 .LDW_4cf1738:
00000485 28             3420 	.byte	40
00000486 44636d5f4e65   3421 	.strz	"Dcm_NegativeResponseCodeType"
0000048c 676174697665 
00000492 526573706f6e 
00000498 7365436f6465 
0000049e 5479706500 
000004a3 28             3422 	.byte	40
000004a4 0f             3423 	.byte	15

                                                                      Page 67
                                                              C:\Users\nhuliyap\AppData\Local\Temp\gh_000075o1.s
000004a5 10             3424 	.byte	16
000004a6 00000000*      3425 	.word	.LDW_16cbbf0
                        3426 
                        3427 .LDW_4cf1000:
000004aa 28             3428 	.byte	40
000004ab 44636d5f5365   3429 	.strz	"Dcm_SecLevelType"
000004b1 634c6576656c 
000004b7 5479706500 
000004bc 29             3430 	.byte	41
000004bd 0f             3431 	.byte	15
000004be 10             3432 	.byte	16
000004bf 00000000*      3433 	.word	.LDW_16cbbf0
                        3434 
                        3435 .LDW_4cf0fa8:
000004c3 28             3436 	.byte	40
000004c4 44636d5f5372   3437 	.strz	"Dcm_SrvOpStatusType"
000004ca 764f70537461 
000004d0 747573547970 
000004d6 6500 
000004d8 17             3438 	.byte	23
000004d9 0f             3439 	.byte	15
000004da 12             3440 	.byte	18
000004db 00000000*      3441 	.word	.LDW_16cbbf0
                        3442 
                        3443 .LDW_16fd990:
000004df 28             3444 	.byte	40
000004e0 44636d5f4d73   3445 	.strz	"Dcm_MsgItemType"
000004e6 674974656d54 
000004ec 79706500 
000004f0 4a             3446 	.byte	74
000004f1 0f             3447 	.byte	15
000004f2 12             3448 	.byte	18
000004f3 00000000*      3449 	.word	.LDW_16cbbf0
                        3450 
                        3451 .LDW_16fda98:
000004f7 28             3452 	.byte	40
000004f8 44636d5f4d73   3453 	.strz	"Dcm_MsgType"
000004fe 675479706500 
00000504 4b             3454 	.byte	75
00000505 39             3455 	.byte	57
00000506 12             3456 	.byte	18
00000507 00000000*      3457 	.word	.LDW_4d4b700
                        3458 
                        3459 .LDW_16fdaf0:
0000050b 28             3460 	.byte	40
0000050c 44636d5f4d73   3461 	.strz	"Dcm_MsgLenType"
00000512 674c656e5479 
00000518 706500 
0000051b 4c             3462 	.byte	76
0000051c 10             3463 	.byte	16
0000051d 12             3464 	.byte	18
0000051e 00000000*      3465 	.word	.LDW_4dcbd80
                        3466 
                        3467 .LDW_16fe0c8:
00000522 41             3468 	.byte	65
00000523 4e             3469 	.byte	78
00000524 0f             3470 	.byte	15
00000525 12             3471 	.byte	18
00000526 03             3472 	.byte	3
00000527 01             3473 	.byte	1
                        3474 

                                                                      Page 68
                                                              C:\Users\nhuliyap\AppData\Local\Temp\gh_000075o1.s
                        3475 	.section	.debug_abbrev
0000007e 41             3476 	.byte	65
0000007f 13             3477 	.byte	19
00000080 01             3478 	.byte	1
00000081 3b0f           3479 	.byte	59,15
00000083 390f           3480 	.byte	57,15
00000085 3a0f           3481 	.byte	58,15
00000087 0b0f           3482 	.byte	11,15
00000089 320b           3483 	.byte	50,11
0000008b 0000           3484 	.byte	0,0
                        3485 
                        3486 	.section	.debug_info
                        3487 .LDW_4eab0e8:
00000528 23             3488 	.byte	35
00000529 726571547970   3489 	.strz	"reqType"
0000052f 6500 
00000531 4f             3490 	.byte	79
00000532 0c             3491 	.byte	12
00000533 12             3492 	.byte	18
00000534 00000000*      3493 	.word	.LDW_16cbbf0
00000538 0223           3494 	.byte	2,35
0000053a 00             3495 	.byte	0
0000053b 01             3496 	.byte	1
                        3497 
                        3498 	.section	.debug_abbrev
0000008d 23             3499 	.byte	35
0000008e 0d             3500 	.byte	13
0000008f 00             3501 	.byte	0
00000090 0308           3502 	.byte	3,8
00000092 3b0f           3503 	.byte	59,15
00000094 390f           3504 	.byte	57,15
00000096 3a0f           3505 	.byte	58,15
00000098 4910           3506 	.byte	73,16
0000009a 380a           3507 	.byte	56,10
0000009c 320b           3508 	.byte	50,11
0000009e 0000           3509 	.byte	0,0
                        3510 
                        3511 	.section	.debug_info
                        3512 .LDW_4eab250:
0000053c 23             3513 	.byte	35
0000053d 737570707265   3514 	.strz	"suppressPosResponse"
00000543 7373506f7352 
00000549 6573706f6e73 
0000054f 6500 
00000551 50             3515 	.byte	80
00000552 0e             3516 	.byte	14
00000553 12             3517 	.byte	18
00000554 00000000*      3518 	.word	.LDW_4bb0040
00000558 0223           3519 	.byte	2,35
0000055a 01             3520 	.byte	1
0000055b 01             3521 	.byte	1
                        3522 
                        3523 .LDW_4eaaf38:
0000055c 23             3524 	.byte	35
0000055d 736f75726365   3525 	.strz	"sourceofRequest"
00000563 6f6652657175 
00000569 65737400 
0000056d 51             3526 	.byte	81
0000056e 0c             3527 	.byte	12
0000056f 12             3528 	.byte	18
00000570 00000000*      3529 	.word	.LDW_16cbbf0

                                                                      Page 69
                                                              C:\Users\nhuliyap\AppData\Local\Temp\gh_000075o1.s
00000574 0223           3530 	.byte	2,35
00000576 02             3531 	.byte	2
00000577 01             3532 	.byte	1
                        3533 
00000578 00             3534 	.byte	0
                        3535 
                        3536 .LDW_16fdf68:
00000579 28             3537 	.byte	40
0000057a 44636d5f4d73   3538 	.strz	"Dcm_MsgAddInfoType"
00000580 67416464496e 
00000586 666f54797065 
0000058c 00 
0000058d 52             3539 	.byte	82
0000058e 02             3540 	.byte	2
0000058f 12             3541 	.byte	18
00000590 00000000*      3542 	.word	.LDW_16fe0c8
                        3543 
                        3544 .LDW_16cbc48:
00000594 28             3545 	.byte	40
00000595 44636d5f4964   3546 	.strz	"Dcm_IdContextType"
0000059b 436f6e746578 
000005a1 745479706500 
000005a7 54             3547 	.byte	84
000005a8 0f             3548 	.byte	15
000005a9 12             3549 	.byte	18
000005aa 00000000*      3550 	.word	.LDW_16cbbf0
                        3551 
                        3552 .LDW_4cf14d0:
000005ae 41             3553 	.byte	65
000005af 56             3554 	.byte	86
000005b0 0f             3555 	.byte	15
000005b1 12             3556 	.byte	18
000005b2 1c             3557 	.byte	28
000005b3 01             3558 	.byte	1
                        3559 
                        3560 .LDW_4eaafc8:
000005b4 23             3561 	.byte	35
000005b5 726573446174   3562 	.strz	"resData"
000005bb 6100 
000005bd 57             3563 	.byte	87
000005be 11             3564 	.byte	17
000005bf 12             3565 	.byte	18
000005c0 00000000*      3566 	.word	.LDW_16fda98
000005c4 0223           3567 	.byte	2,35
000005c6 00             3568 	.byte	0
000005c7 01             3569 	.byte	1
                        3570 
                        3571 .LDW_4eab0a0:
000005c8 23             3572 	.byte	35
000005c9 726571446174   3573 	.strz	"reqData"
000005cf 6100 
000005d1 58             3574 	.byte	88
000005d2 11             3575 	.byte	17
000005d3 12             3576 	.byte	18
000005d4 00000000*      3577 	.word	.LDW_16fda98
000005d8 0223           3578 	.byte	2,35
000005da 04             3579 	.byte	4
000005db 01             3580 	.byte	1
                        3581 
                        3582 .LDW_4eab010:
000005dc 23             3583 	.byte	35

                                                                      Page 70
                                                              C:\Users\nhuliyap\AppData\Local\Temp\gh_000075o1.s
000005dd 6d7367416464   3584 	.strz	"msgAddInfo"
000005e3 496e666f00 
000005e8 59             3585 	.byte	89
000005e9 18             3586 	.byte	24
000005ea 12             3587 	.byte	18
000005eb 00000000*      3588 	.word	.LDW_16fdf68
000005ef 0223           3589 	.byte	2,35
000005f1 08             3590 	.byte	8
000005f2 01             3591 	.byte	1
                        3592 
                        3593 .LDW_4eab058:
000005f3 23             3594 	.byte	35
000005f4 726573446174   3595 	.strz	"resDataLen"
000005fa 614c656e00 
000005ff 5a             3596 	.byte	90
00000600 14             3597 	.byte	20
00000601 12             3598 	.byte	18
00000602 00000000*      3599 	.word	.LDW_16fdaf0
00000606 0223           3600 	.byte	2,35
00000608 0c             3601 	.byte	12
00000609 01             3602 	.byte	1
                        3603 
                        3604 .LDW_4eab130:
0000060a 23             3605 	.byte	35
0000060b 726571446174   3606 	.strz	"reqDataLen"
00000611 614c656e00 
00000616 5b             3607 	.byte	91
00000617 14             3608 	.byte	20
00000618 12             3609 	.byte	18
00000619 00000000*      3610 	.word	.LDW_16fdaf0
0000061d 0223           3611 	.byte	2,35
0000061f 10             3612 	.byte	16
00000620 01             3613 	.byte	1
                        3614 
                        3615 .LDW_4eab178:
00000621 23             3616 	.byte	35
00000622 7265734d6178   3617 	.strz	"resMaxDataLen"
00000628 446174614c65 
0000062e 6e00 
00000630 5c             3618 	.byte	92
00000631 14             3619 	.byte	20
00000632 12             3620 	.byte	18
00000633 00000000*      3621 	.word	.LDW_16fdaf0
00000637 0223           3622 	.byte	2,35
00000639 14             3623 	.byte	20
0000063a 01             3624 	.byte	1
                        3625 
                        3626 .LDW_4eab1c0:
0000063b 23             3627 	.byte	35
0000063c 6964436f6e74   3628 	.strz	"idContext"
00000642 65787400 
00000646 5d             3629 	.byte	93
00000647 17             3630 	.byte	23
00000648 12             3631 	.byte	18
00000649 00000000*      3632 	.word	.LDW_16cbc48
0000064d 0223           3633 	.byte	2,35
0000064f 18             3634 	.byte	24
00000650 01             3635 	.byte	1
                        3636 
                        3637 .LDW_4eab328:
00000651 23             3638 	.byte	35

                                                                      Page 71
                                                              C:\Users\nhuliyap\AppData\Local\Temp\gh_000075o1.s
00000652 64636d527850   3639 	.strz	"dcmRxPduId"
00000658 6475496400 
0000065d 5e             3640 	.byte	94
0000065e 1e             3641 	.byte	30
0000065f 12             3642 	.byte	18
00000660 00000000*      3643 	.word	.LDW_4d21d38
00000664 0223           3644 	.byte	2,35
00000666 1a             3645 	.byte	26
00000667 01             3646 	.byte	1
                        3647 
00000668 00             3648 	.byte	0
                        3649 
                        3650 .LDW_4cf11b8:
00000669 28             3651 	.byte	40
0000066a 44636d5f4d73   3652 	.strz	"Dcm_MsgContextType"
00000670 67436f6e7465 
00000676 787454797065 
0000067c 00 
0000067d 5f             3653 	.byte	95
0000067e 02             3654 	.byte	2
0000067f 12             3655 	.byte	18
00000680 00000000*      3656 	.word	.LDW_4cf14d0
                        3657 
                        3658 .LDW_4eacb70:
00000684 41             3659 	.byte	65
00000685 12             3660 	.byte	18
00000686 0f             3661 	.byte	15
00000687 17             3662 	.byte	23
00000688 08             3663 	.byte	8
00000689 01             3664 	.byte	1
                        3665 
                        3666 .LDW_4eac2e8:
0000068a 23             3667 	.byte	35
0000068b 526573696475   3668 	.strz	"Residual_delay_u32"
00000691 616c5f64656c 
00000697 61795f753332 
0000069d 00 
0000069e 16             3669 	.byte	22
0000069f 0c             3670 	.byte	12
000006a0 17             3671 	.byte	23
000006a1 00000000*      3672 	.word	.LDW_4dcbd80
000006a5 0223           3673 	.byte	2,35
000006a7 00             3674 	.byte	0
000006a8 01             3675 	.byte	1
                        3676 
                        3677 .LDW_4eab688:
000006a9 23             3678 	.byte	35
000006aa 4661696c6564   3679 	.strz	"FailedAtm_cnt_u8"
000006b0 41746d5f636e 
000006b6 745f753800 
000006bb 17             3680 	.byte	23
000006bc 0b             3681 	.byte	11
000006bd 17             3682 	.byte	23
000006be 00000000*      3683 	.word	.LDW_16cbbf0
000006c2 0223           3684 	.byte	2,35
000006c4 04             3685 	.byte	4
000006c5 01             3686 	.byte	1
                        3687 
000006c6 00             3688 	.byte	0
                        3689 
                        3690 .LDW_4eac960:

                                                                      Page 72
                                                              C:\Users\nhuliyap\AppData\Local\Temp\gh_000075o1.s
000006c7 28             3691 	.byte	40
000006c8 44636d5f4473   3692 	.strz	"Dcm_Dsp_SecaType"
000006ce 705f53656361 
000006d4 5479706500 
000006d9 18             3693 	.byte	24
000006da 02             3694 	.byte	2
000006db 17             3695 	.byte	23
000006dc 00000000*      3696 	.word	.LDW_4eacb70
                        3697 
                        3698 .LDW_4eacc20:
000006e0 28             3699 	.byte	40
000006e1 44636d5f4765   3700 	.strz	"Dcm_GetSeed_ptr4"
000006e7 74536565645f 
000006ed 7074723400 
000006f2 70             3701 	.byte	112
000006f3 09             3702 	.byte	9
000006f4 17             3703 	.byte	23
000006f5 00000000*      3704 	.word	.LDW_4d4b738
                        3705 
                        3706 .LDW_4eacac0:
000006f9 28             3707 	.byte	40
000006fa 44636d5f436f   3708 	.strz	"Dcm_CompareKey_ptr3"
00000700 6d706172654b 
00000706 65795f707472 
0000070c 3300 
0000070e 7b             3709 	.byte	123
0000070f 09             3710 	.byte	9
00000710 17             3711 	.byte	23
00000711 00000000*      3712 	.word	.LDW_4eae9a0
                        3713 
                        3714 .LDW_4d4e880:
00000715 2e             3715 	.byte	46
00000716 00             3716 	.byte	0
00000717 8401           3717 	.byte	132,1
00000719 0d             3718 	.byte	13
0000071a 17             3719 	.byte	23
0000071b 01             3720 	.byte	1
0000071c 01             3721 	.byte	1
                        3722 
                        3723 	.section	.debug_abbrev
000000a0 2e             3724 	.byte	46
000000a1 04             3725 	.byte	4
000000a2 01             3726 	.byte	1
000000a3 0308           3727 	.byte	3,8
000000a5 3b0f           3728 	.byte	59,15
000000a7 390f           3729 	.byte	57,15
000000a9 3a0f           3730 	.byte	58,15
000000ab 0b0f           3731 	.byte	11,15
000000ad 320b           3732 	.byte	50,11
000000af 0000           3733 	.byte	0,0
                        3734 
                        3735 	.section	.debug_info
                        3736 .LDW_4ea9bb0:
0000071d 2d             3737 	.byte	45
0000071e 5553455f4153   3738 	.strz	"USE_ASYNCH_CLIENT_SERVER"
00000724 594e43485f43 
0000072a 4c49454e545f 
00000730 534552564552 
00000736 00 
00000737 8501           3739 	.byte	133,1
00000739 05             3740 	.byte	5

                                                                      Page 73
                                                              C:\Users\nhuliyap\AppData\Local\Temp\gh_000075o1.s
0000073a 17             3741 	.byte	23
0000073b 00             3742 	.byte	0
                        3743 
                        3744 	.section	.debug_abbrev
000000b1 2d             3745 	.byte	45
000000b2 28             3746 	.byte	40
000000b3 00             3747 	.byte	0
000000b4 0308           3748 	.byte	3,8
000000b6 3b0f           3749 	.byte	59,15
000000b8 390f           3750 	.byte	57,15
000000ba 3a0f           3751 	.byte	58,15
000000bc 1c0d           3752 	.byte	28,13
000000be 0000           3753 	.byte	0,0
                        3754 
                        3755 	.section	.debug_info
                        3756 .LDW_4ea99b0:
0000073c 2d             3757 	.byte	45
0000073d 5553455f4153   3758 	.strz	"USE_ASYNCH_FNC"
00000743 594e43485f46 
00000749 4e4300 
0000074c 8601           3759 	.byte	134,1
0000074e 08             3760 	.byte	8
0000074f 17             3761 	.byte	23
00000750 01             3762 	.byte	1
                        3763 
00000751 00             3764 	.byte	0
                        3765 
                        3766 .LDW_4eac648:
00000752 28             3767 	.byte	40
00000753 44636d447370   3768 	.strz	"DcmDspSecurityUsePort"
00000759 536563757269 
0000075f 747955736550 
00000765 6f727400 
00000769 8701           3769 	.byte	135,1
0000076b 02             3770 	.byte	2
0000076c 17             3771 	.byte	23
0000076d 00000000*      3772 	.word	.LDW_4d4e880
                        3773 
                        3774 .LDW_4eac9b8:
00000771 41             3775 	.byte	65
00000772 8901           3776 	.byte	137,1
00000774 0f             3777 	.byte	15
00000775 17             3778 	.byte	23
00000776 28             3779 	.byte	40
00000777 01             3780 	.byte	1
                        3781 
                        3782 .LDW_4eabe68:
00000778 23             3783 	.byte	35
00000779 506f7765724f   3784 	.strz	"PowerOnDelay_u32"
0000077f 6e44656c6179 
00000785 5f75333200 
0000078a 8a01           3785 	.byte	138,1
0000078c 18             3786 	.byte	24
0000078d 17             3787 	.byte	23
0000078e 00000000*      3788 	.word	.LDW_4dcbd80
00000792 0223           3789 	.byte	2,35
00000794 00             3790 	.byte	0
00000795 01             3791 	.byte	1
                        3792 
                        3793 .LDW_4eabbe0:
00000796 23             3794 	.byte	35

                                                                      Page 74
                                                              C:\Users\nhuliyap\AppData\Local\Temp\gh_000075o1.s
00000797 44656c617954   3795 	.strz	"DelayTime_u32"
0000079d 696d655f7533 
000007a3 3200 
000007a5 8b01           3796 	.byte	139,1
000007a7 18             3797 	.byte	24
000007a8 17             3798 	.byte	23
000007a9 00000000*      3799 	.word	.LDW_4dcbd80
000007ad 0223           3800 	.byte	2,35
000007af 04             3801 	.byte	4
000007b0 01             3802 	.byte	1
                        3803 
                        3804 .LDW_4eabeb0:
000007b1 23             3805 	.byte	35
000007b2 4473705f4765   3806 	.strz	"Dsp_GetSeed_fp"
000007b8 74536565645f 
000007be 667000 
000007c1 8d01           3807 	.byte	141,1
000007c3 18             3808 	.byte	24
000007c4 17             3809 	.byte	23
000007c5 00000000*      3810 	.word	.LDW_4eacb18
000007c9 0223           3811 	.byte	2,35
000007cb 08             3812 	.byte	8
000007cc 01             3813 	.byte	1
                        3814 
                        3815 .LDW_4eab880:
000007cd 23             3816 	.byte	35
000007ce 4473705f436f   3817 	.strz	"Dsp_CompareKey_fp"
000007d4 6d706172654b 
000007da 65795f667000 
000007e0 8e01           3818 	.byte	142,1
000007e2 18             3819 	.byte	24
000007e3 17             3820 	.byte	23
000007e4 00000000*      3821 	.word	.LDW_4eacb18
000007e8 0223           3822 	.byte	2,35
000007ea 0c             3823 	.byte	12
000007eb 01             3824 	.byte	1
                        3825 
                        3826 .LDW_4eab9a0:
000007ec 23             3827 	.byte	35
000007ed 536563757269   3828 	.strz	"Security_level_u8"
000007f3 74795f6c6576 
000007f9 656c5f753800 
000007ff 9b01           3829 	.byte	155,1
00000801 19             3830 	.byte	25
00000802 17             3831 	.byte	23
00000803 00000000*      3832 	.word	.LDW_4cf1000
00000807 0223           3833 	.byte	2,35
00000809 10             3834 	.byte	16
0000080a 01             3835 	.byte	1
                        3836 
                        3837 .LDW_4eab910:
0000080b 23             3838 	.byte	35
0000080c 536565645f73   3839 	.strz	"Seed_size_u32"
00000812 697a655f7533 
00000818 3200 
0000081a 9c01           3840 	.byte	156,1
0000081c 19             3841 	.byte	25
0000081d 17             3842 	.byte	23
0000081e 00000000*      3843 	.word	.LDW_4dcbd80
00000822 0223           3844 	.byte	2,35
00000824 14             3845 	.byte	20

                                                                      Page 75
                                                              C:\Users\nhuliyap\AppData\Local\Temp\gh_000075o1.s
00000825 01             3846 	.byte	1
                        3847 
                        3848 .LDW_4eabdd8:
00000826 23             3849 	.byte	35
00000827 4b65795f7369   3850 	.strz	"Key_size_u32"
0000082d 7a655f753332 
00000833 00 
00000834 9d01           3851 	.byte	157,1
00000836 19             3852 	.byte	25
00000837 17             3853 	.byte	23
00000838 00000000*      3854 	.word	.LDW_4dcbd80
0000083c 0223           3855 	.byte	2,35
0000083e 18             3856 	.byte	24
0000083f 01             3857 	.byte	1
                        3858 
                        3859 .LDW_4eabc70:
00000840 23             3860 	.byte	35
00000841 4e756d417474   3861 	.strz	"NumAttDelay_u8"
00000847 44656c61795f 
0000084d 753800 
00000850 9e01           3862 	.byte	158,1
00000852 18             3863 	.byte	24
00000853 17             3864 	.byte	23
00000854 00000000*      3865 	.word	.LDW_16cbbf0
00000858 0223           3866 	.byte	2,35
0000085a 1c             3867 	.byte	28
0000085b 01             3868 	.byte	1
                        3869 
                        3870 .LDW_4eab718:
0000085c 23             3871 	.byte	35
0000085d 4e756d417474   3872 	.strz	"NumAttLock_u8"
00000863 4c6f636b5f75 
00000869 3800 
0000086b 9f01           3873 	.byte	159,1
0000086d 18             3874 	.byte	24
0000086e 17             3875 	.byte	23
0000086f 00000000*      3876 	.word	.LDW_16cbbf0
00000873 0223           3877 	.byte	2,35
00000875 1d             3878 	.byte	29
00000876 01             3879 	.byte	1
                        3880 
                        3881 .LDW_4eab9e8:
00000877 23             3882 	.byte	35
00000878 416363446174   3883 	.strz	"AccDataRecsize_u32"
0000087e 615265637369 
00000884 7a655f753332 
0000088a 00 
0000088b a001           3884 	.byte	160,1
0000088d 19             3885 	.byte	25
0000088e 17             3886 	.byte	23
0000088f 00000000*      3887 	.word	.LDW_4dcbd80
00000893 0223           3888 	.byte	2,35
00000895 20             3889 	.byte	32
00000896 01             3890 	.byte	1
                        3891 
                        3892 .LDW_4eaba30:
00000897 23             3893 	.byte	35
00000898 757365506f72   3894 	.strz	"usePort"
0000089e 7400 
000008a0 a101           3895 	.byte	161,1
000008a2 1e             3896 	.byte	30

                                                                      Page 76
                                                              C:\Users\nhuliyap\AppData\Local\Temp\gh_000075o1.s
000008a3 17             3897 	.byte	23
000008a4 00000000*      3898 	.word	.LDW_4eac648
000008a8 0223           3899 	.byte	2,35
000008aa 24             3900 	.byte	36
000008ab 01             3901 	.byte	1
                        3902 
000008ac 00             3903 	.byte	0
                        3904 
                        3905 .LDW_4eacbc8:
000008ad 28             3906 	.byte	40
000008ae 44636d5f4473   3907 	.strz	"Dcm_Dsp_Security_t"
000008b4 705f53656375 
000008ba 726974795f74 
000008c0 00 
000008c1 a601           3908 	.byte	166,1
000008c3 02             3909 	.byte	2
000008c4 17             3910 	.byte	23
000008c5 00000000*      3911 	.word	.LDW_4eac9b8
                        3912 
                        3913 .LDW_4eaf038:
000008c9 2e             3914 	.byte	46
000008ca 00             3915 	.byte	0
000008cb 08             3916 	.byte	8
000008cc 0d             3917 	.byte	13
000008cd 42             3918 	.byte	66
000008ce 01             3919 	.byte	1
000008cf 01             3920 	.byte	1
                        3921 
                        3922 .LDW_4eb69d0:
000008d0 2d             3923 	.byte	45
000008d1 44434d5f4453   3924 	.strz	"DCM_DSP_SECA_GENSEED"
000008d7 505f53454341 
000008dd 5f47454e5345 
000008e3 454400 
000008e6 09             3925 	.byte	9
000008e7 05             3926 	.byte	5
000008e8 42             3927 	.byte	66
000008e9 00             3928 	.byte	0
                        3929 
                        3930 .LDW_4eb5fd0:
000008ea 2d             3931 	.byte	45
000008eb 44434d5f4453   3932 	.strz	"DCM_DSP_SECA_COMPAREKEY"
000008f1 505f53454341 
000008f7 5f434f4d5041 
000008fd 52454b455900 
00000903 0a             3933 	.byte	10
00000904 08             3934 	.byte	8
00000905 42             3935 	.byte	66
00000906 01             3936 	.byte	1
                        3937 
                        3938 .LDW_4eb65d0:
00000907 2d             3939 	.byte	45
00000908 44434d5f4453   3940 	.strz	"DCM_DSP_SECA_PENDING"
0000090e 505f53454341 
00000914 5f50454e4449 
0000091a 4e4700 
0000091d 0b             3941 	.byte	11
0000091e 08             3942 	.byte	8
0000091f 42             3943 	.byte	66
00000920 02             3944 	.byte	2
                        3945 

                                                                      Page 77
                                                              C:\Users\nhuliyap\AppData\Local\Temp\gh_000075o1.s
00000921 00             3946 	.byte	0
                        3947 
                        3948 .LDW_4eb59b0:
00000922 28             3949 	.byte	40
00000923 44636d5f4473   3950 	.strz	"Dcm_Dsp_SecaStates_ten"
00000929 705f53656361 
0000092f 537461746573 
00000935 5f74656e00 
0000093a 0c             3951 	.byte	12
0000093b 02             3952 	.byte	2
0000093c 42             3953 	.byte	66
0000093d 00000000*      3954 	.word	.LDW_4eaf038
                        3955 
                        3956 .LDW_4eb56f0:
00000941 05             3957 	.byte	5
00000942 44636d5f496e   3958 	.strz	"Dcm_InParameterBuf_au8"
00000948 506172616d65 
0000094e 746572427566 
00000954 5f61753800 
00000959 68             3959 	.byte	104
0000095a 1d             3960 	.byte	29
0000095b 0b             3961 	.byte	11
0000095c 00000000*      3962 	.word	.LDW_4eb6e68
00000960 01             3963 	.byte	1
00000961 01             3964 	.byte	1
                        3965 
                        3966 	.section	.debug_abbrev
000000c0 05             3967 	.byte	5
000000c1 34             3968 	.byte	52
000000c2 00             3969 	.byte	0
000000c3 0308           3970 	.byte	3,8
000000c5 3b0f           3971 	.byte	59,15
000000c7 390f           3972 	.byte	57,15
000000c9 3a0f           3973 	.byte	58,15
000000cb 4910           3974 	.byte	73,16
000000cd 3f0c           3975 	.byte	63,12
000000cf 3c0c           3976 	.byte	60,12
000000d1 0000           3977 	.byte	0,0
                        3978 
                        3979 	.section	.debug_info
                        3980 .LDW_4eb5640:
00000962 05             3981 	.byte	5
00000963 44636d5f4473   3982 	.strz	"Dcm_Dsp_SecaGlobaltimer_u32"
00000969 705f53656361 
0000096f 476c6f62616c 
00000975 74696d65725f 
0000097b 75333200 
0000097f ab01           3983 	.byte	171,1
00000981 1e             3984 	.byte	30
00000982 17             3985 	.byte	23
00000983 00000000*      3986 	.word	.LDW_4dcbd80
00000987 01             3987 	.byte	1
00000988 01             3988 	.byte	1
                        3989 
                        3990 .LDW_4eb5748:
00000989 05             3991 	.byte	5
0000098a 44636d5f4473   3992 	.strz	"Dcm_Dsp_Seca"
00000990 705f53656361 
00000996 00 
00000997 be01           3993 	.byte	190,1
00000999 28             3994 	.byte	40

                                                                      Page 78
                                                              C:\Users\nhuliyap\AppData\Local\Temp\gh_000075o1.s
0000099a 17             3995 	.byte	23
0000099b 00000000*      3996 	.word	.LDW_4eb7bd8
0000099f 01             3997 	.byte	1
000009a0 01             3998 	.byte	1
                        3999 
                        4000 .LDW_4eb5850:
000009a1 05             4001 	.byte	5
000009a2 44636d5f4473   4002 	.strz	"Dcm_Dsp_Security"
000009a8 705f53656375 
000009ae 7269747900 
000009b3 c401           4003 	.byte	196,1
000009b5 2d             4004 	.byte	45
000009b6 17             4005 	.byte	23
000009b7 00000000*      4006 	.word	.LDW_4eb7c60
000009bb 01             4007 	.byte	1
000009bc 01             4008 	.byte	1
                        4009 
                        4010 .LDW_4ec0958:
000009bd 05             4011 	.byte	5
000009be 44636d5f5372   4012 	.strz	"Dcm_SrvOpstatus_u8"
000009c4 764f70737461 
000009ca 7475735f7538 
000009d0 00 
000009d1 29             4013 	.byte	41
000009d2 1c             4014 	.byte	28
000009d3 08             4015 	.byte	8
000009d4 00000000*      4016 	.word	.LDW_4cf0fa8
000009d8 01             4017 	.byte	1
000009d9 01             4018 	.byte	1
                        4019 
                        4020 .LDW_4ec0f88:
000009da 05             4021 	.byte	5
000009db 44636d5f4473   4022 	.strz	"Dcm_DspSecaOpStatus_u8"
000009e1 70536563614f 
000009e7 705374617475 
000009ed 735f753800 
000009f2 16             4023 	.byte	22
000009f3 28             4024 	.byte	40
000009f4 42             4025 	.byte	66
000009f5 00000000*      4026 	.word	.LDW_16fda40
000009f9 01             4027 	.byte	1
000009fa 01             4028 	.byte	1
                        4029 
                        4030 .LDW_4ec0ed8:
000009fb 05             4031 	.byte	5
000009fc 44636d5f4473   4032 	.strz	"Dcm_DspSecaStatus_en"
00000a02 705365636153 
00000a08 74617475735f 
00000a0e 656e00 
00000a11 1c             4033 	.byte	28
00000a12 2c             4034 	.byte	44
00000a13 42             4035 	.byte	66
00000a14 00000000*      4036 	.word	.LDW_4eb59b0
00000a18 01             4037 	.byte	1
00000a19 01             4038 	.byte	1
                        4039 
                        4040 .LDW_4ec0b10:
00000a1a 05             4041 	.byte	5
00000a1b 44636d5f4473   4042 	.strz	"Dcm_DspChgSecLevel_b"
00000a21 704368675365 
00000a27 634c6576656c 

                                                                      Page 79
                                                              C:\Users\nhuliyap\AppData\Local\Temp\gh_000075o1.s
00000a2d 5f6200 
00000a30 21             4043 	.byte	33
00000a31 1e             4044 	.byte	30
00000a32 42             4045 	.byte	66
00000a33 00000000*      4046 	.word	.LDW_4bb0040
00000a37 01             4047 	.byte	1
00000a38 01             4048 	.byte	1
                        4049 
                        4050 .LDW_4ec0b68:
00000a39 04             4051 	.byte	4
00000a3a 44636d5f4473   4052 	.strz	"Dcm_DspSecTabIdx_u8"
00000a40 705365635461 
00000a46 624964785f75 
00000a4c 3800 
00000a4e 09             4053 	.byte	9
00000a4f 16             4054 	.byte	22
00000a50 01             4055 	.byte	1
00000a51 00000000*      4056 	.word	.LDW_16cbbf0
00000a55 01             4057 	.byte	1
00000a56 00             4058 	.byte	0
00000a57 0503           4059 	.byte	5,3
00000a59 00000000*      4060 	.word	_Dcm_DspSecTabIdx_u8
                        4061 
                        4062 	.section	.debug_abbrev
000000d3 04             4063 	.byte	4
000000d4 34             4064 	.byte	52
000000d5 00             4065 	.byte	0
000000d6 0308           4066 	.byte	3,8
000000d8 3b0f           4067 	.byte	59,15
000000da 390f           4068 	.byte	57,15
000000dc 3a0f           4069 	.byte	58,15
000000de 4910           4070 	.byte	73,16
000000e0 3f0c           4071 	.byte	63,12
000000e2 3c0c           4072 	.byte	60,12
000000e4 020a           4073 	.byte	2,10
000000e6 0000           4074 	.byte	0,0
                        4075 
                        4076 	.section	.debug_info
                        4077 .LDW_4ec0c18:
00000a5d 04             4078 	.byte	4
00000a5e 44636d5f4473   4079 	.strz	"Dcm_DspSecAccType_u8"
00000a64 705365634163 
00000a6a 63547970655f 
00000a70 753800 
00000a73 0a             4080 	.byte	10
00000a74 16             4081 	.byte	22
00000a75 01             4082 	.byte	1
00000a76 00000000*      4083 	.word	.LDW_16cbbf0
00000a7a 01             4084 	.byte	1
00000a7b 00             4085 	.byte	0
00000a7c 0503           4086 	.byte	5,3
00000a7e 00000000*      4087 	.word	_Dcm_DspSecAccType_u8
                        4088 
                        4089 .LDW_4ec1140:
00000a82 04             4090 	.byte	4
00000a83 44636d5f4c6f   4091 	.strz	"Dcm_Lok_stCmpKey_u8"
00000a89 6b5f7374436d 
00000a8f 704b65795f75 
00000a95 3800 
00000a97 0b             4092 	.byte	11
00000a98 1e             4093 	.byte	30

                                                                      Page 80
                                                              C:\Users\nhuliyap\AppData\Local\Temp\gh_000075o1.s
00000a99 01             4094 	.byte	1
00000a9a 00000000*      4095 	.word	.LDW_16cbbf0
00000a9e 00             4096 	.byte	0
00000a9f 00             4097 	.byte	0
00000aa0 0503           4098 	.byte	5,3
00000aa2 00000000*      4099 	.word	_Dcm_Lok_stCmpKey_u8..C.3A.5C_ECU2.5CECU_Rivian_A1.5CTarget.5Crepo_projects.5CpRealEcu.5CcR_LATEST.5Cmake.5Coutput.5Cobjects.5CDcmDspUds_Seca.
                        4100 
                        4101 .LDW_4ec1198:
00000aa6 04             4102 	.byte	4
00000aa7 44636d5f4c6f   4103 	.strz	"Dcm_Lok_dataSecLevel_u8"
00000aad 6b5f64617461 
00000ab3 5365634c6576 
00000ab9 656c5f753800 
00000abf 0c             4104 	.byte	12
00000ac0 2a             4105 	.byte	42
00000ac1 01             4106 	.byte	1
00000ac2 00000000*      4107 	.word	.LDW_4cf1000
00000ac6 00             4108 	.byte	0
00000ac7 00             4109 	.byte	0
00000ac8 0503           4110 	.byte	5,3
00000aca 00000000*      4111 	.word	_Dcm_Lok_dataSecLevel_u8..C.3A.5C_ECU2.5CECU_Rivian_A1.5CTarget.5Crepo_projects.5CpRealEcu.5CcR_LATEST.5Cmake.5Coutput.5Cobjects.5CDcmDspUds_Seca.
                        4112 
                        4113 .LDW_4ec11f0:
00000ace 04             4114 	.byte	4
00000acf 44636d5f4c6f   4115 	.strz	"Dcm_Lok_idxSecTab_qu8"
00000ad5 6b5f69647853 
00000adb 65635461625f 
00000ae1 71753800 
00000ae5 12             4116 	.byte	18
00000ae6 23             4117 	.byte	35
00000ae7 01             4118 	.byte	1
00000ae8 00000000*      4119 	.word	.LDW_4cf1108
00000aec 00             4120 	.byte	0
00000aed 00             4121 	.byte	0
00000aee 0503           4122 	.byte	5,3
00000af0 00000000*      4123 	.word	_Dcm_Lok_idxSecTab_qu8..C.3A.5C_ECU2.5CECU_Rivian_A1.5CTarget.5Crepo_projects.5CpRealEcu.5CcR_LATEST.5Cmake.5Coutput.5Cobjects.5CDcmDspUds_Seca.
                        4124 
                        4125 .LDW_4ec12f8:
00000af4 04             4126 	.byte	4
00000af5 44636d5f4c6f   4127 	.strz	"Dcm_Lok_ptrSecurityConfig_p"
00000afb 6b5f70747253 
00000b01 656375726974 
00000b07 79436f6e6669 
00000b0d 675f7000 
00000b11 14             4128 	.byte	20
00000b12 3e             4129 	.byte	62
00000b13 01             4130 	.byte	1
00000b14 00000000*      4131 	.word	.LDW_4eb3a38
00000b18 00             4132 	.byte	0
00000b19 00             4133 	.byte	0
00000b1a 0503           4134 	.byte	5,3
00000b1c 00000000*      4135 	.word	_Dcm_Lok_ptrSecurityConfig_p..C.3A.5C_ECU2.5CECU_Rivian_A1.5CTarget.5Crepo_projects.5CpRealEcu.5CcR_LATEST.5Cmake.5Coutput.5Cobjects.5CDcmDspUds_Seca.
                        4136 
                        4137 .LDW_4ec0c70:
00000b20 04             4138 	.byte	4
00000b21 44636d5f4c6f   4139 	.strz	"Dcm_Lok_ptrSecaFnc_p"
00000b27 6b5f70747253 
00000b2d 656361466e63 
00000b33 5f7000 
00000b36 15             4140 	.byte	21
00000b37 31             4141 	.byte	49

                                                                      Page 81
                                                              C:\Users\nhuliyap\AppData\Local\Temp\gh_000075o1.s
00000b38 01             4142 	.byte	1
00000b39 00000000*      4143 	.word	.LDW_4eae658
00000b3d 00             4144 	.byte	0
00000b3e 00             4145 	.byte	0
00000b3f 0503           4146 	.byte	5,3
00000b41 00000000*      4147 	.word	_Dcm_Lok_ptrSecaFnc_p..C.3A.5C_ECU2.5CECU_Rivian_A1.5CTarget.5Crepo_projects.5CpRealEcu.5CcR_LATEST.5Cmake.5Coutput.5Cobjects.5CDcmDspUds_Seca.
                        4148 
                        4149 .LDW_4ec1350:
00000b45 04             4150 	.byte	4
00000b46 44636d5f4c6f   4151 	.strz	"Dcm_Lok_dataSecAccType_u8"
00000b4c 6b5f64617461 
00000b52 536563416363 
00000b58 547970655f75 
00000b5e 3800 
00000b60 18             4152 	.byte	24
00000b61 31             4153 	.byte	49
00000b62 01             4154 	.byte	1
00000b63 00000000*      4155 	.word	.LDW_16cbbf0
00000b67 00             4156 	.byte	0
00000b68 00             4157 	.byte	0
00000b69 0503           4158 	.byte	5,3
00000b6b 00000000*      4159 	.word	_Dcm_Lok_dataSecAccType_u8..C.3A.5C_ECU2.5CECU_Rivian_A1.5CTarget.5Crepo_projects.5CpRealEcu.5CcR_LATEST.5Cmake.5Coutput.5Cobjects.5CDcmDspUds_Seca.
                        4160 
                        4161 .LDW_4ec0d78:
00000b6f 04             4162 	.byte	4
00000b70 44636d5f4c6f   4163 	.strz	"Dcm_Lok_dataSubFunc_u8"
00000b76 6b5f64617461 
00000b7c 53756246756e 
00000b82 635f753800 
00000b87 19             4164 	.byte	25
00000b88 31             4165 	.byte	49
00000b89 01             4166 	.byte	1
00000b8a 00000000*      4167 	.word	.LDW_16cbbf0
00000b8e 00             4168 	.byte	0
00000b8f 00             4169 	.byte	0
00000b90 0503           4170 	.byte	5,3
00000b92 00000000*      4171 	.word	_Dcm_Lok_dataSubFunc_u8..C.3A.5C_ECU2.5CECU_Rivian_A1.5CTarget.5Crepo_projects.5CpRealEcu.5CcR_LATEST.5Cmake.5Coutput.5Cobjects.5CDcmDspUds_Seca.
                        4172 
                        4173 .LDW_4ec0dd0:
00000b96 04             4174 	.byte	4
00000b97 44636d5f4c6f   4175 	.strz	"Dcm_Lok_nrSeedLen_u32"
00000b9d 6b5f6e725365 
00000ba3 65644c656e5f 
00000ba9 75333200 
00000bad 1a             4176 	.byte	26
00000bae 31             4177 	.byte	49
00000baf 01             4178 	.byte	1
00000bb0 00000000*      4179 	.word	.LDW_4dcbd80
00000bb4 00             4180 	.byte	0
00000bb5 00             4181 	.byte	0
00000bb6 0503           4182 	.byte	5,3
00000bb8 00000000*      4183 	.word	_Dcm_Lok_nrSeedLen_u32..C.3A.5C_ECU2.5CECU_Rivian_A1.5CTarget.5Crepo_projects.5CpRealEcu.5CcR_LATEST.5Cmake.5Coutput.5Cobjects.5CDcmDspUds_Seca.
                        4184 
                        4185 .LDW_4ec0e28:
00000bbc 04             4186 	.byte	4
00000bbd 44636d5f4c6f   4187 	.strz	"Dcm_Lok_substSeca_en"
00000bc3 6b5f73756273 
00000bc9 74536563615f 
00000bcf 656e00 
00000bd2 1b             4188 	.byte	27
00000bd3 31             4189 	.byte	49

                                                                      Page 82
                                                              C:\Users\nhuliyap\AppData\Local\Temp\gh_000075o1.s
00000bd4 01             4190 	.byte	1
00000bd5 00000000*      4191 	.word	.LDW_4eb59b0
00000bd9 00             4192 	.byte	0
00000bda 00             4193 	.byte	0
00000bdb 0503           4194 	.byte	5,3
00000bdd 00000000*      4195 	.word	_Dcm_Lok_substSeca_en..C.3A.5C_ECU2.5CECU_Rivian_A1.5CTarget.5Crepo_projects.5CpRealEcu.5CcR_LATEST.5Cmake.5Coutput.5Cobjects.5CDcmDspUds_Seca.
                        4196 
                        4197 .LDW_4ec13a8:
00000be1 04             4198 	.byte	4
00000be2 44636d5f4c6f   4199 	.strz	"Dcm_Lok_dataRetGetSeed_u8"
00000be8 6b5f64617461 
00000bee 526574476574 
00000bf4 536565645f75 
00000bfa 3800 
00000bfc 1c             4200 	.byte	28
00000bfd 31             4201 	.byte	49
00000bfe 01             4202 	.byte	1
00000bff 00000000*      4203 	.word	.LDW_4cf1478
00000c03 00             4204 	.byte	0
00000c04 00             4205 	.byte	0
00000c05 0503           4206 	.byte	5,3
00000c07 00000000*      4207 	.word	_Dcm_Lok_dataRetGetSeed_u8..C.3A.5C_ECU2.5CECU_Rivian_A1.5CTarget.5Crepo_projects.5CpRealEcu.5CcR_LATEST.5Cmake.5Coutput.5Cobjects.5CDcmDspUds_Seca.
                        4208 
                        4209 .LDW_4ec1610:
00000c0b 04             4210 	.byte	4
00000c0c 44636d5f4c6f   4211 	.strz	"Dcm_Lok_dataRetValue_u8"
00000c12 6b5f64617461 
00000c18 52657456616c 
00000c1e 75655f753800 
00000c24 1e             4212 	.byte	30
00000c25 31             4213 	.byte	49
00000c26 01             4214 	.byte	1
00000c27 00000000*      4215 	.word	.LDW_4cf1478
00000c2b 00             4216 	.byte	0
00000c2c 00             4217 	.byte	0
00000c2d 0503           4218 	.byte	5,3
00000c2f 00000000*      4219 	.word	_Dcm_Lok_dataRetValue_u8..C.3A.5C_ECU2.5CECU_Rivian_A1.5CTarget.5Crepo_projects.5CpRealEcu.5CcR_LATEST.5Cmake.5Coutput.5Cobjects.5CDcmDspUds_Seca.
                        4220 
                        4221 .LDW_4ec1928:
00000c33 04             4222 	.byte	4
00000c34 44636d5f4c6f   4223 	.strz	"Dcm_Lok_secaServRetValue_u8"
00000c3a 6b5f73656361 
00000c40 536572765265 
00000c46 7456616c7565 
00000c4c 5f753800 
00000c50 1f             4224 	.byte	31
00000c51 31             4225 	.byte	49
00000c52 01             4226 	.byte	1
00000c53 00000000*      4227 	.word	.LDW_4cf1478
00000c57 00             4228 	.byte	0
00000c58 00             4229 	.byte	0
00000c59 0503           4230 	.byte	5,3
00000c5b 00000000*      4231 	.word	_Dcm_Lok_secaServRetValue_u8..C.3A.5C_ECU2.5CECU_Rivian_A1.5CTarget.5Crepo_projects.5CpRealEcu.5CcR_LATEST.5Cmake.5Coutput.5Cobjects.5CDcmDspUds_Seca.
                        4232 
                        4233 .LDW_4ec1ea8:
00000c5f 04             4234 	.byte	4
00000c60 44636d5f4c6f   4235 	.strz	"Dcm_Lok_nrDelay_u32"
00000c66 6b5f6e724465 
00000c6c 6c61795f7533 
00000c72 3200 
00000c74 21             4236 	.byte	33

                                                                      Page 83
                                                              C:\Users\nhuliyap\AppData\Local\Temp\gh_000075o1.s
00000c75 31             4237 	.byte	49
00000c76 01             4238 	.byte	1
00000c77 00000000*      4239 	.word	.LDW_4dcbd80
00000c7b 00             4240 	.byte	0
00000c7c 00             4241 	.byte	0
00000c7d 0503           4242 	.byte	5,3
00000c7f 00000000*      4243 	.word	_Dcm_Lok_nrDelay_u32..C.3A.5C_ECU2.5CECU_Rivian_A1.5CTarget.5Crepo_projects.5CpRealEcu.5CcR_LATEST.5Cmake.5Coutput.5Cobjects.5CDcmDspUds_Seca.
                        4244 
                        4245 .LDW_4ec1be8:
00000c83 04             4246 	.byte	4
00000c84 44636d5f4c6f   4247 	.strz	"Dcm_Lok_flgApplFuncCall_b"
00000c8a 6b5f666c6741 
00000c90 70706c46756e 
00000c96 6343616c6c5f 
00000c9c 6200 
00000c9e 2c             4248 	.byte	44
00000c9f 23             4249 	.byte	35
00000ca0 01             4250 	.byte	1
00000ca1 00000000*      4251 	.word	.LDW_4bb0040
00000ca5 00             4252 	.byte	0
00000ca6 00             4253 	.byte	0
00000ca7 0503           4254 	.byte	5,3
00000ca9 00000000*      4255 	.word	_Dcm_Lok_flgApplFuncCall_b..C.3A.5C_ECU2.5CECU_Rivian_A1.5CTarget.5Crepo_projects.5CpRealEcu.5CcR_LATEST.5Cmake.5Coutput.5Cobjects.5CDcmDspUds_Seca.
                        4256 
                        4257 .LDW_4ec2f30:
00000cad 16             4258 	.byte	22
00000cae 44636d5f4973   4259 	.strz	"Dcm_IsInfrastructureErrorPresent_b"
00000cb4 496e66726173 
00000cba 747275637475 
00000cc0 72654572726f 
00000cc6 725072657365 
00000ccc 6e745f6200 
00000cd1 f202           4260 	.byte	242,2
00000cd3 1f             4261 	.byte	31
00000cd4 12             4262 	.byte	18
00000cd5 00000000*      4263 	.word	.LDW_4bb0040
00000cd9 01             4264 	.byte	1
00000cda 00             4265 	.byte	0
00000cdb 01             4266 	.byte	1
00000cdc 01             4267 	.byte	1
00000cdd 00             4268 	.byte	0
00000cde 01             4269 	.byte	1
                        4270 
                        4271 	.section	.debug_abbrev
000000e8 16             4272 	.byte	22
000000e9 2e             4273 	.byte	46
000000ea 01             4274 	.byte	1
000000eb 0308           4275 	.byte	3,8
000000ed 3b0f           4276 	.byte	59,15
000000ef 390f           4277 	.byte	57,15
000000f1 3a0f           4278 	.byte	58,15
000000f3 4910           4279 	.byte	73,16
000000f5 3c0c           4280 	.byte	60,12
000000f7 200b           4281 	.byte	32,11
000000f9 3f0c           4282 	.byte	63,12
000000fb 320b           4283 	.byte	50,11
000000fd 4c0b           4284 	.byte	76,11
000000ff 270c           4285 	.byte	39,12
00000101 0000           4286 	.byte	0,0
                        4287 
                        4288 	.section	.debug_info

                                                                      Page 84
                                                              C:\Users\nhuliyap\AppData\Local\Temp\gh_000075o1.s
00000cdf 00             4289 	.byte	0
                        4290 
                        4291 .LDW_4ec2ba0:
00000ce0 16             4292 	.byte	22
00000ce1 44636d5f4765   4293 	.strz	"Dcm_GetSecurityLevel"
00000ce7 745365637572 
00000ced 6974794c6576 
00000cf3 656c00 
00000cf6 fd02           4294 	.byte	253,2
00000cf8 27             4295 	.byte	39
00000cf9 12             4296 	.byte	18
00000cfa 00000000*      4297 	.word	.LDW_4cf1478
00000cfe 01             4298 	.byte	1
00000cff 00             4299 	.byte	0
00000d00 01             4300 	.byte	1
00000d01 01             4301 	.byte	1
00000d02 00             4302 	.byte	0
00000d03 01             4303 	.byte	1
                        4304 
00000d04 00             4305 	.byte	0
                        4306 
                        4307 .LDW_4ec8d88:
00000d05 15             4308 	.byte	21
00000d06 44636d5f4473   4309 	.strz	"Dcm_Dsp_SecaIni"
00000d0c 705f53656361 
00000d12 496e6900 
00000d16 15             4310 	.byte	21
00000d17 1c             4311 	.byte	28
00000d18 1c             4312 	.byte	28
00000d19 01             4313 	.byte	1
00000d1a 00             4314 	.byte	0
00000d1b 01             4315 	.byte	1
00000d1c 01             4316 	.byte	1
00000d1d 00             4317 	.byte	0
00000d1e 01             4318 	.byte	1
                        4319 
                        4320 	.section	.debug_abbrev
00000103 15             4321 	.byte	21
00000104 2e             4322 	.byte	46
00000105 01             4323 	.byte	1
00000106 0308           4324 	.byte	3,8
00000108 3b0f           4325 	.byte	59,15
0000010a 390f           4326 	.byte	57,15
0000010c 3a0f           4327 	.byte	58,15
0000010e 3c0c           4328 	.byte	60,12
00000110 200b           4329 	.byte	32,11
00000112 3f0c           4330 	.byte	63,12
00000114 320b           4331 	.byte	50,11
00000116 4c0b           4332 	.byte	76,11
00000118 270c           4333 	.byte	39,12
0000011a 0000           4334 	.byte	0,0
                        4335 
                        4336 	.section	.debug_info
00000d1f 00             4337 	.byte	0
                        4338 
                        4339 .LDW_4ed7a48:
00000d20 16             4340 	.byte	22
00000d21 44636d417070   4341 	.strz	"DcmAppl_DcmGetUpdatedDelayTime"
00000d27 6c5f44636d47 
00000d2d 657455706461 
00000d33 74656444656c 

                                                                      Page 85
                                                              C:\Users\nhuliyap\AppData\Local\Temp\gh_000075o1.s
00000d39 617954696d65 
00000d3f 00 
00000d40 9301           4342 	.byte	147,1
00000d42 23             4343 	.byte	35
00000d43 24             4344 	.byte	36
00000d44 00000000*      4345 	.word	.LDW_4dcbd80
00000d48 01             4346 	.byte	1
00000d49 00             4347 	.byte	0
00000d4a 01             4348 	.byte	1
00000d4b 01             4349 	.byte	1
00000d4c 00             4350 	.byte	0
00000d4d 01             4351 	.byte	1
                        4352 
00000d4e 00             4353 	.byte	0
                        4354 
                        4355 .LDW_4edc598:
00000d4f 15             4356 	.byte	21
00000d50 44636d417070   4357 	.strz	"DcmAppl_DcmSecurityLevelLocked"
00000d56 6c5f44636d53 
00000d5c 656375726974 
00000d62 794c6576656c 
00000d68 4c6f636b6564 
00000d6e 00 
00000d6f a401           4358 	.byte	164,1
00000d71 21             4359 	.byte	33
00000d72 24             4360 	.byte	36
00000d73 01             4361 	.byte	1
00000d74 00             4362 	.byte	0
00000d75 01             4363 	.byte	1
00000d76 01             4364 	.byte	1
00000d77 00             4365 	.byte	0
00000d78 01             4366 	.byte	1
                        4367 
00000d79 00             4368 	.byte	0
                        4369 
                        4370 .LDW_4edc0d8:
00000d7a 16             4371 	.byte	22
00000d7b 44636d417070   4372 	.strz	"DcmAppl_DcmSecaInvalidKey"
00000d81 6c5f44636d53 
00000d87 656361496e76 
00000d8d 616c69644b65 
00000d93 7900 
00000d95 a501           4373 	.byte	165,1
00000d97 2b             4374 	.byte	43
00000d98 24             4375 	.byte	36
00000d99 00000000*      4376 	.word	.LDW_4cf1478
00000d9d 01             4377 	.byte	1
00000d9e 00             4378 	.byte	0
00000d9f 01             4379 	.byte	1
00000da0 01             4380 	.byte	1
00000da1 00             4381 	.byte	0
00000da2 01             4382 	.byte	1
                        4383 
00000da3 00             4384 	.byte	0
                        4385 
                        4386 .LDW_4edcde8:
00000da4 16             4387 	.byte	22
00000da5 44636d417070   4388 	.strz	"DcmAppl_DcmSecaValidKey"
00000dab 6c5f44636d53 
00000db1 65636156616c 
00000db7 69644b657900 

                                                                      Page 86
                                                              C:\Users\nhuliyap\AppData\Local\Temp\gh_000075o1.s
00000dbd a601           4389 	.byte	166,1
00000dbf 2b             4390 	.byte	43
00000dc0 24             4391 	.byte	36
00000dc1 00000000*      4392 	.word	.LDW_4cf1478
00000dc5 01             4393 	.byte	1
00000dc6 00             4394 	.byte	0
00000dc7 01             4395 	.byte	1
00000dc8 01             4396 	.byte	1
00000dc9 00             4397 	.byte	0
00000dca 01             4398 	.byte	1
                        4399 
00000dcb 00             4400 	.byte	0
                        4401 
                        4402 .LDW_4edc9c0:
00000dcc 16             4403 	.byte	22
00000dcd 4c6962417574   4404 	.strz	"LibAutosar_vptrMemCopy"
00000dd3 6f7361725f76 
00000dd9 7074724d656d 
00000ddf 436f707900 
00000de4 12             4405 	.byte	18
00000de5 0e             4406 	.byte	14
00000de6 40             4407 	.byte	64
00000de7 00000000*      4408 	.word	.LDW_4eae658
00000deb 01             4409 	.byte	1
00000dec 00             4410 	.byte	0
00000ded 01             4411 	.byte	1
00000dee 01             4412 	.byte	1
00000def 00             4413 	.byte	0
00000df0 01             4414 	.byte	1
                        4415 
00000df1 00             4416 	.byte	0
                        4417 
                        4418 .LDW_4dd5e00:
00000df2 13             4419 	.byte	19
00000df3 44636d5f4c6f   4420 	.strz	"Dcm_Lok_NewSecurityLevelToUnlock"
00000df9 6b5f4e657753 
00000dff 656375726974 
00000e05 794c6576656c 
00000e0b 546f556e6c6f 
00000e11 636b00 
00000e14 44             4421 	.byte	68
00000e15 1c             4422 	.byte	28
00000e16 01             4423 	.byte	1
00000e17 00000000*      4424 	.word	_Dcm_Lok_NewSecurityLevelToUnlock..C.3A.5C_ECU2.5CECU_Rivian_A1.5CTarget.5Crepo_projects.5CpRealEcu.5CcR_LATEST.5Cmake.5Coutput.5Cobjects.5CDcmDspUds_Seca.
00000e1b 00000000*      4425 	.word	___ghs_eofn_Dcm_Lok_NewSecurityLevelToUnlock
00000e1f 0153           4426 	.byte	1,83
00000e21 828080800b     4427 	.byte	130,128,128,128,11
00000e26 0c             4428 	.byte	12
00000e27 03             4429 	.byte	3
00000e28 0c             4430 	.byte	12
00000e29 00             4431 	.byte	0
00000e2a 00             4432 	.byte	0
00000e2b 00             4433 	.byte	0
00000e2c 00             4434 	.byte	0
00000e2d 01             4435 	.byte	1
00000e2e 00             4436 	.byte	0
00000e2f 01             4437 	.byte	1
                        4438 
                        4439 	.section	.debug_abbrev
0000011c 13             4440 	.byte	19
0000011d 2e             4441 	.byte	46

                                                                      Page 87
                                                              C:\Users\nhuliyap\AppData\Local\Temp\gh_000075o1.s
0000011e 01             4442 	.byte	1
0000011f 0308           4443 	.byte	3,8
00000121 3b0f           4444 	.byte	59,15
00000123 390f           4445 	.byte	57,15
00000125 3a0f           4446 	.byte	58,15
00000127 1101           4447 	.byte	17,1
00000129 1201           4448 	.byte	18,1
0000012b 400a           4449 	.byte	64,10
0000012d 8341           4450 	.byte	131,65
0000012f 0f             4451 	.byte	15
00000130 8741           4452 	.byte	135,65
00000132 0d             4453 	.byte	13
00000133 8541           4454 	.byte	133,65
00000135 0f             4455 	.byte	15
00000136 8641           4456 	.byte	134,65
00000138 0d             4457 	.byte	13
00000139 9241           4458 	.byte	146,65
0000013b 0f             4459 	.byte	15
0000013c 3c0c           4460 	.byte	60,12
0000013e 200b           4461 	.byte	32,11
00000140 3f0c           4462 	.byte	63,12
00000142 320b           4463 	.byte	50,11
00000144 4c0b           4464 	.byte	76,11
00000146 270c           4465 	.byte	39,12
00000148 0000           4466 	.byte	0,0
                        4467 
                        4468 	.section	.debug_frame
                        4469 .LDW_4eb6010:
00000090 00000000*      4470 	.word	.LDW_unq_4-.LDW_unq_3
                        4471 .LDW_unq_3:
00000094 00000000*      4472 	.word	.LDW_4dfe7c0
00000098 00000000*      4473 	.word	_Dcm_Lok_NewSecurityLevelToUnlock..C.3A.5C_ECU2.5CECU_Rivian_A1.5CTarget.5Crepo_projects.5CpRealEcu.5CcR_LATEST.5Cmake.5Coutput.5Cobjects.5CDcmDspUds_Seca.
0000009c 00000000*      4474 	.word	___ghs_eofn_Dcm_Lok_NewSecurityLevelToUnlock-_Dcm_Lok_NewSecurityLevelToUnlock..C.3A.5C_ECU2.5CECU_Rivian_A1.5CTarget.5Crepo_projects.5CpRealEcu.5CcR_LATEST.5Cmake.5Coutput.5Cobjects.5CDcmDspUds_Seca.
000000a0 44             4475 	.byte	68
000000a1 9f             4476 	.byte	159
000000a2 00             4477 	.byte	0
000000a3 40             4478 	.byte	64
000000a4 9d             4479 	.byte	157
000000a5 04             4480 	.byte	4
000000a6 40             4481 	.byte	64
000000a7 9c             4482 	.byte	156
000000a8 08             4483 	.byte	8
000000a9 01             4484 	.byte	1
000000aa 00000000*      4485 	.word	.LDW11
000000ae 00             4486 	.byte	0
000000af 00             4487 	.byte	0
                        4488 .LDW_unq_4:
                        4489 	.section	.debug_line
00000cb0 000502         4490 	.byte	0,5,2
00000cb3 00000000*      4491 	.word	_Dcm_Lok_NewSecurityLevelToUnlock..C.3A.5C_ECU2.5CECU_Rivian_A1.5CTarget.5Crepo_projects.5CpRealEcu.5CcR_LATEST.5Cmake.5Coutput.5Cobjects.5CDcmDspUds_Seca.
00000cb7 03             4492 	.byte	3
00000cb8 c700           4493 	.byte	199,0
00000cba 02             4494 	.byte	2
00000cbb 00             4495 	.byte	0
00000cbc 01             4496 	.byte	1
00000cbd 06             4497 	.byte	6
00000cbe 000502         4498 	.byte	0,5,2
00000cc1 00000000*      4499 	.word	.LDWlin1
00000cc5 03             4500 	.byte	3
00000cc6 25             4501 	.byte	37
00000cc7 02             4502 	.byte	2

                                                                      Page 88
                                                              C:\Users\nhuliyap\AppData\Local\Temp\gh_000075o1.s
00000cc8 00             4503 	.byte	0
00000cc9 01             4504 	.byte	1
00000cca 000502         4505 	.byte	0,5,2
00000ccd 00000000*      4506 	.word	.LDWlin2
00000cd1 0b             4507 	.byte	11
00000cd2 0c             4508 	.byte	12
00000cd3 000502         4509 	.byte	0,5,2
00000cd6 00000000*      4510 	.word	.LDWlin3
00000cda 0c             4511 	.byte	12
00000cdb 02             4512 	.byte	2
00000cdc 00             4513 	.byte	0
00000cdd 03             4514 	.byte	3
00000cde 04             4515 	.byte	4
00000cdf 02             4516 	.byte	2
00000ce0 00             4517 	.byte	0
00000ce1 01             4518 	.byte	1
00000ce2 24             4519 	.byte	36
00000ce3 03             4520 	.byte	3
00000ce4 05             4521 	.byte	5
00000ce5 02             4522 	.byte	2
00000ce6 04             4523 	.byte	4
00000ce7 01             4524 	.byte	1
00000ce8 02             4525 	.byte	2
00000ce9 04             4526 	.byte	4
00000cea 000101         4527 	.byte	0,1,1
                        4528 	.section	.debug_info
                        4529 .LDW_4cf0ef8:
00000e30 0f             4530 	.byte	15
00000e31 4f7053746174   4531 	.strz	"OpStatus"
00000e37 757300 
00000e3a 45             4532 	.byte	69
00000e3b 53             4533 	.byte	83
00000e3c 01             4534 	.byte	1
00000e3d 00000000*      4535 	.word	.LDW_16f82f0
00000e41 00             4536 	.byte	0
00000e42 016c           4537 	.byte	1,108
                        4538 
                        4539 	.section	.debug_abbrev
0000014a 0f             4540 	.byte	15
0000014b 05             4541 	.byte	5
0000014c 00             4542 	.byte	0
0000014d 0308           4543 	.byte	3,8
0000014f 3b0f           4544 	.byte	59,15
00000151 390f           4545 	.byte	57,15
00000153 3a0f           4546 	.byte	58,15
00000155 4910           4547 	.byte	73,16
00000157 4b0c           4548 	.byte	75,12
00000159 020a           4549 	.byte	2,10
0000015b 0000           4550 	.byte	0,0
                        4551 
                        4552 	.section	.debug_info
                        4553 .LDW_4cf0ce8:
00000e44 0f             4554 	.byte	15
00000e45 704d7367436f   4555 	.strz	"pMsgContext"
00000e4b 6e7465787400 
00000e51 46             4556 	.byte	70
00000e52 56             4557 	.byte	86
00000e53 01             4558 	.byte	1
00000e54 00000000*      4559 	.word	.LDW_16f8280
00000e58 00             4560 	.byte	0
00000e59 016e           4561 	.byte	1,110

                                                                      Page 89
                                                              C:\Users\nhuliyap\AppData\Local\Temp\gh_000075o1.s
                        4562 
                        4563 .LDW_4dd4b18:
00000e5b 1d             4564 	.byte	29
00000e5c 00000000*      4565 	.word	.LDW01
00000e60 00000000*      4566 	.word	.LDW11
                        4567 
                        4568 	.section	.debug_abbrev
0000015d 1d             4569 	.byte	29
0000015e 0b             4570 	.byte	11
0000015f 01             4571 	.byte	1
00000160 1101           4572 	.byte	17,1
00000162 1201           4573 	.byte	18,1
00000164 0000           4574 	.byte	0,0
                        4575 
                        4576 	.section	.debug_info
00000e64 00             4577 	.byte	0
                        4578 
00000e65 00             4579 	.byte	0
                        4580 
                        4581 .LDW_4dd5940:
00000e66 13             4582 	.byte	19
00000e67 44636d5f4c6f   4583 	.strz	"Dcm_Lok_ReqSecIsCurrentSecurityLevel"
00000e6d 6b5f52657153 
00000e73 656349734375 
00000e79 7272656e7453 
00000e7f 656375726974 
00000e85 794c6576656c 
00000e8b 00 
00000e8c 7f             4584 	.byte	127
00000e8d 1c             4585 	.byte	28
00000e8e 01             4586 	.byte	1
00000e8f 00000000*      4587 	.word	_Dcm_Lok_ReqSecIsCurrentSecurityLevel..C.3A.5C_ECU2.5CECU_Rivian_A1.5CTarget.5Crepo_projects.5CpRealEcu.5CcR_LATEST.5Cmake.5Coutput.5Cobjects.5CDcmDspUds_Seca.
00000e93 00000000*      4588 	.word	___ghs_eofn_Dcm_Lok_ReqSecIsCurrentSecurityLevel
00000e97 0153           4589 	.byte	1,83
00000e99 02             4590 	.byte	2
00000e9a 00             4591 	.byte	0
00000e9b 02             4592 	.byte	2
00000e9c 00             4593 	.byte	0
00000e9d 00             4594 	.byte	0
00000e9e 00             4595 	.byte	0
00000e9f 00             4596 	.byte	0
00000ea0 00             4597 	.byte	0
00000ea1 01             4598 	.byte	1
00000ea2 00             4599 	.byte	0
00000ea3 01             4600 	.byte	1
                        4601 
                        4602 	.section	.debug_frame
                        4603 .LDW_4eb6590:
000000b0 00000000*      4604 	.word	.LDW_unq_6-.LDW_unq_5
                        4605 .LDW_unq_5:
000000b4 00000000*      4606 	.word	.LDW_4dfe7c0
000000b8 00000000*      4607 	.word	_Dcm_Lok_ReqSecIsCurrentSecurityLevel..C.3A.5C_ECU2.5CECU_Rivian_A1.5CTarget.5Crepo_projects.5CpRealEcu.5CcR_LATEST.5Cmake.5Coutput.5Cobjects.5CDcmDspUds_Seca.
000000bc 00000000*      4608 	.word	___ghs_eofn_Dcm_Lok_ReqSecIsCurrentSecurityLevel-_Dcm_Lok_ReqSecIsCurrentSecurityLevel..C.3A.5C_ECU2.5CECU_Rivian_A1.5CTarget.5Crepo_projects.5CpRealEcu.5CcR_LATEST.5Cmake.5Coutput.5Cobjects.5CDcmDspUds_Seca.
000000c0 01             4609 	.byte	1
000000c1 00000000*      4610 	.word	.LDW31
000000c5 00             4611 	.byte	0
000000c6 00             4612 	.byte	0
000000c7 00             4613 	.byte	0
                        4614 .LDW_unq_6:
                        4615 	.section	.debug_line
00000ced 000502         4616 	.byte	0,5,2

                                                                      Page 90
                                                              C:\Users\nhuliyap\AppData\Local\Temp\gh_000075o1.s
00000cf0 00000000*      4617 	.word	_Dcm_Lok_ReqSecIsCurrentSecurityLevel..C.3A.5C_ECU2.5CECU_Rivian_A1.5CTarget.5Crepo_projects.5CpRealEcu.5CcR_LATEST.5Cmake.5Coutput.5Cobjects.5CDcmDspUds_Seca.
00000cf4 03             4618 	.byte	3
00000cf5 8101           4619 	.byte	129,1
00000cf7 02             4620 	.byte	2
00000cf8 00             4621 	.byte	0
00000cf9 01             4622 	.byte	1
00000cfa 06             4623 	.byte	6
00000cfb 000502         4624 	.byte	0,5,2
00000cfe 00000000*      4625 	.word	.LDWlin4
00000d02 0d             4626 	.byte	13
00000d03 34             4627 	.byte	52
00000d04 02             4628 	.byte	2
00000d05 02             4629 	.byte	2
00000d06 000502         4630 	.byte	0,5,2
00000d09 00000000*      4631 	.word	.LDWlin5
00000d0d 0c             4632 	.byte	12
00000d0e 03             4633 	.byte	3
00000d0f 7e             4634 	.byte	126
00000d10 02             4635 	.byte	2
00000d11 08             4636 	.byte	8
00000d12 01             4637 	.byte	1
00000d13 000502         4638 	.byte	0,5,2
00000d16 00000000*      4639 	.word	.LDWlin6
00000d1a 0d             4640 	.byte	13
00000d1b 0c             4641 	.byte	12
00000d1c 1c             4642 	.byte	28
00000d1d 1c             4643 	.byte	28
00000d1e 000502         4644 	.byte	0,5,2
00000d21 00000000*      4645 	.word	.LDWlin7
00000d25 0c             4646 	.byte	12
00000d26 000502         4647 	.byte	0,5,2
00000d29 00000000*      4648 	.word	.LDWlin8
00000d2d 0b             4649 	.byte	11
00000d2e 1b             4650 	.byte	27
00000d2f 02             4651 	.byte	2
00000d30 02             4652 	.byte	2
00000d31 000101         4653 	.byte	0,1,1
                        4654 	.section	.debug_info
                        4655 .LDW_4cf1318:
00000ea4 0f             4656 	.byte	15
00000ea5 4f7053746174   4657 	.strz	"OpStatus"
00000eab 757300 
00000eae 8001           4658 	.byte	128,1
00000eb0 52             4659 	.byte	82
00000eb1 01             4660 	.byte	1
00000eb2 00000000*      4661 	.word	.LDW_16f82f0
00000eb6 00             4662 	.byte	0
00000eb7 0156           4663 	.byte	1,86
                        4664 
                        4665 .LDW_4cf1210:
00000eb9 0f             4666 	.byte	15
00000eba 704d7367436f   4667 	.strz	"pMsgContext"
00000ec0 6e7465787400 
00000ec6 8101           4668 	.byte	129,1
00000ec8 52             4669 	.byte	82
00000ec9 01             4670 	.byte	1
00000eca 00000000*      4671 	.word	.LDW_16f8440
00000ece 00             4672 	.byte	0
00000ecf 016e           4673 	.byte	1,110
                        4674 
                        4675 .LDW_4dd4b48:

                                                                      Page 91
                                                              C:\Users\nhuliyap\AppData\Local\Temp\gh_000075o1.s
00000ed1 1d             4676 	.byte	29
00000ed2 00000000*      4677 	.word	.LDW21
00000ed6 00000000*      4678 	.word	.LDW31
                        4679 
                        4680 .LDW_4cf1580:
00000eda 04             4681 	.byte	4
00000edb 6964784c6f6f   4682 	.strz	"idxLoopSeed_qu32"
00000ee1 70536565645f 
00000ee7 7175333200 
00000eec 8301           4683 	.byte	131,1
00000eee 1b             4684 	.byte	27
00000eef 01             4685 	.byte	1
00000ef0 00000000*      4686 	.word	.LDW_4dcbd80
00000ef4 00             4687 	.byte	0
00000ef5 00             4688 	.byte	0
00000ef6 0161           4689 	.byte	1,97
                        4690 
00000ef8 00             4691 	.byte	0
                        4692 
00000ef9 00             4693 	.byte	0
                        4694 
                        4695 .LDW_4dd59d8:
00000efa 13             4696 	.byte	19
00000efb 44636d5f4c6f   4697 	.strz	"Dcm_Lok_CurrentSecurityLevel"
00000f01 6b5f43757272 
00000f07 656e74536563 
00000f0d 75726974794c 
00000f13 6576656c00 
00000f18 9601           4698 	.byte	150,1
00000f1a 1c             4699 	.byte	28
00000f1b 01             4700 	.byte	1
00000f1c 00000000*      4701 	.word	_Dcm_Lok_CurrentSecurityLevel..C.3A.5C_ECU2.5CECU_Rivian_A1.5CTarget.5Crepo_projects.5CpRealEcu.5CcR_LATEST.5Cmake.5Coutput.5Cobjects.5CDcmDspUds_Seca.
00000f20 00000000*      4702 	.word	___ghs_eofn_Dcm_Lok_CurrentSecurityLevel
00000f24 0153           4703 	.byte	1,83
00000f26 828080800b     4704 	.byte	130,128,128,128,11
00000f2b 0c             4705 	.byte	12
00000f2c 03             4706 	.byte	3
00000f2d 10             4707 	.byte	16
00000f2e 00             4708 	.byte	0
00000f2f 00             4709 	.byte	0
00000f30 00             4710 	.byte	0
00000f31 00             4711 	.byte	0
00000f32 01             4712 	.byte	1
00000f33 00             4713 	.byte	0
00000f34 01             4714 	.byte	1
                        4715 
                        4716 	.section	.debug_frame
                        4717 .LDW_4eb6110:
000000c8 00000000*      4718 	.word	.LDW_unq_8-.LDW_unq_7
                        4719 .LDW_unq_7:
000000cc 00000000*      4720 	.word	.LDW_4dfe7c0
000000d0 00000000*      4721 	.word	_Dcm_Lok_CurrentSecurityLevel..C.3A.5C_ECU2.5CECU_Rivian_A1.5CTarget.5Crepo_projects.5CpRealEcu.5CcR_LATEST.5Cmake.5Coutput.5Cobjects.5CDcmDspUds_Seca.
000000d4 00000000*      4722 	.word	___ghs_eofn_Dcm_Lok_CurrentSecurityLevel-_Dcm_Lok_CurrentSecurityLevel..C.3A.5C_ECU2.5CECU_Rivian_A1.5CTarget.5Crepo_projects.5CpRealEcu.5CcR_LATEST.5Cmake.5Coutput.5Cobjects.5CDcmDspUds_Seca.
000000d8 44             4723 	.byte	68
000000d9 9f             4724 	.byte	159
000000da 03             4725 	.byte	3
000000db 40             4726 	.byte	64
000000dc 9d             4727 	.byte	157
000000dd 07             4728 	.byte	7
000000de 40             4729 	.byte	64
000000df 9c             4730 	.byte	156

                                                                      Page 92
                                                              C:\Users\nhuliyap\AppData\Local\Temp\gh_000075o1.s
000000e0 0b             4731 	.byte	11
000000e1 01             4732 	.byte	1
000000e2 00000000*      4733 	.word	.LDW51
000000e6 00             4734 	.byte	0
000000e7 00             4735 	.byte	0
                        4736 .LDW_unq_8:
                        4737 	.section	.debug_line
00000d34 000502         4738 	.byte	0,5,2
00000d37 00000000*      4739 	.word	_Dcm_Lok_CurrentSecurityLevel..C.3A.5C_ECU2.5CECU_Rivian_A1.5CTarget.5Crepo_projects.5CpRealEcu.5CcR_LATEST.5Cmake.5Coutput.5Cobjects.5CDcmDspUds_Seca.
00000d3b 03             4740 	.byte	3
00000d3c 9801           4741 	.byte	152,1
00000d3e 02             4742 	.byte	2
00000d3f 00             4743 	.byte	0
00000d40 01             4744 	.byte	1
00000d41 06             4745 	.byte	6
00000d42 03             4746 	.byte	3
00000d43 04             4747 	.byte	4
00000d44 02             4748 	.byte	2
00000d45 08             4749 	.byte	8
00000d46 01             4750 	.byte	1
00000d47 000502         4751 	.byte	0,5,2
00000d4a 00000000*      4752 	.word	.LDWlin9
00000d4e 0c             4753 	.byte	12
00000d4f 000502         4754 	.byte	0,5,2
00000d52 00000000*      4755 	.word	.LDWlin10
00000d56 0d             4756 	.byte	13
00000d57 03             4757 	.byte	3
00000d58 7e             4758 	.byte	126
00000d59 02             4759 	.byte	2
00000d5a 04             4760 	.byte	4
00000d5b 01             4761 	.byte	1
00000d5c 0b             4762 	.byte	11
00000d5d 25             4763 	.byte	37
00000d5e 000502         4764 	.byte	0,5,2
00000d61 00000000*      4765 	.word	.LDWlin11
00000d65 0b             4766 	.byte	11
00000d66 0b             4767 	.byte	11
00000d67 000502         4768 	.byte	0,5,2
00000d6a 00000000*      4769 	.word	.LDWlin12
00000d6e 0b             4770 	.byte	11
00000d6f 0c             4771 	.byte	12
00000d70 0b             4772 	.byte	11
00000d71 000502         4773 	.byte	0,5,2
00000d74 00000000*      4774 	.word	.LDWlin13
00000d78 0b             4775 	.byte	11
00000d79 02             4776 	.byte	2
00000d7a 00             4777 	.byte	0
00000d7b 0b             4778 	.byte	11
00000d7c 0b             4779 	.byte	11
00000d7d 0c             4780 	.byte	12
00000d7e 2b             4781 	.byte	43
00000d7f 02             4782 	.byte	2
00000d80 00             4783 	.byte	0
00000d81 0b             4784 	.byte	11
00000d82 02             4785 	.byte	2
00000d83 04             4786 	.byte	4
00000d84 000101         4787 	.byte	0,1,1
                        4788 	.section	.debug_info
                        4789 .LDW_4cf13c8:
00000f35 0f             4790 	.byte	15
00000f36 704d7367436f   4791 	.strz	"pMsgContext"

                                                                      Page 93
                                                              C:\Users\nhuliyap\AppData\Local\Temp\gh_000075o1.s
00000f3c 6e7465787400 
00000f42 9701           4792 	.byte	151,1
00000f44 53             4793 	.byte	83
00000f45 01             4794 	.byte	1
00000f46 00000000*      4795 	.word	.LDW_16f8440
00000f4a 00             4796 	.byte	0
00000f4b 016d           4797 	.byte	1,109
                        4798 
                        4799 .LDW_4cf1268:
00000f4d 0f             4800 	.byte	15
00000f4e 646174614e65   4801 	.strz	"dataNegRespCode_u8"
00000f54 675265737043 
00000f5a 6f64655f7538 
00000f60 00 
00000f61 9801           4802 	.byte	152,1
00000f63 5f             4803 	.byte	95
00000f64 01             4804 	.byte	1
00000f65 00000000*      4805 	.word	.LDW_16f8478
00000f69 00             4806 	.byte	0
00000f6a 016c           4807 	.byte	1,108
                        4808 
                        4809 .LDW_4dd4668:
00000f6c 1d             4810 	.byte	29
00000f6d 00000000*      4811 	.word	.LDW41
00000f71 00000000*      4812 	.word	.LDW51
                        4813 
                        4814 .LDW_4cf15d8:
00000f75 04             4815 	.byte	4
00000f76 646174614765   4816 	.strz	"dataGetSecurityLevel_u8"
00000f7c 745365637572 
00000f82 6974794c6576 
00000f88 656c5f753800 
00000f8e 9a01           4817 	.byte	154,1
00000f90 26             4818 	.byte	38
00000f91 01             4819 	.byte	1
00000f92 00000000*      4820 	.word	.LDW_4cf1000
00000f96 00             4821 	.byte	0
00000f97 00             4822 	.byte	0
00000f98 0273           4823 	.byte	2,115
00000f9a 03             4824 	.byte	3
                        4825 
                        4826 .LDW_4cf1058:
00000f9b 05             4827 	.byte	5
00000f9c 646174615265   4828 	.strz	"dataRetGetSecLevel_u8"
00000fa2 744765745365 
00000fa8 634c6576656c 
00000fae 5f753800 
00000fb2 9b01           4829 	.byte	155,1
00000fb4 26             4830 	.byte	38
00000fb5 01             4831 	.byte	1
00000fb6 00000000*      4832 	.word	.LDW_4cf1478
00000fba 00             4833 	.byte	0
00000fbb 00             4834 	.byte	0
                        4835 
00000fbc 00             4836 	.byte	0
                        4837 
00000fbd 00             4838 	.byte	0
                        4839 
                        4840 .LDW_4dd5cd0:
00000fbe 13             4841 	.byte	19
00000fbf 44636d5f4c6f   4842 	.strz	"Dcm_Lok_SecurityLevelConfigured"

                                                                      Page 94
                                                              C:\Users\nhuliyap\AppData\Local\Temp\gh_000075o1.s
00000fc5 6b5f53656375 
00000fcb 726974794c65 
00000fd1 76656c436f6e 
00000fd7 666967757265 
00000fdd 6400 
00000fdf b301           4843 	.byte	179,1
00000fe1 1c             4844 	.byte	28
00000fe2 01             4845 	.byte	1
00000fe3 00000000*      4846 	.word	_Dcm_Lok_SecurityLevelConfigured..C.3A.5C_ECU2.5CECU_Rivian_A1.5CTarget.5Crepo_projects.5CpRealEcu.5CcR_LATEST.5Cmake.5Coutput.5Cobjects.5CDcmDspUds_Seca.
00000fe7 00000000*      4847 	.word	___ghs_eofn_Dcm_Lok_SecurityLevelConfigured
00000feb 0153           4848 	.byte	1,83
00000fed 02             4849 	.byte	2
00000fee 00             4850 	.byte	0
00000fef 02             4851 	.byte	2
00000ff0 00             4852 	.byte	0
00000ff1 00             4853 	.byte	0
00000ff2 00             4854 	.byte	0
00000ff3 00             4855 	.byte	0
00000ff4 00             4856 	.byte	0
00000ff5 01             4857 	.byte	1
00000ff6 00             4858 	.byte	0
00000ff7 01             4859 	.byte	1
                        4860 
                        4861 	.section	.debug_frame
                        4862 .LDW_4eb5f10:
000000e8 00000000*      4863 	.word	.LDW_unq_a-.LDW_unq_9
                        4864 .LDW_unq_9:
000000ec 00000000*      4865 	.word	.LDW_4dfe7c0
000000f0 00000000*      4866 	.word	_Dcm_Lok_SecurityLevelConfigured..C.3A.5C_ECU2.5CECU_Rivian_A1.5CTarget.5Crepo_projects.5CpRealEcu.5CcR_LATEST.5Cmake.5Coutput.5Cobjects.5CDcmDspUds_Seca.
000000f4 00000000*      4867 	.word	___ghs_eofn_Dcm_Lok_SecurityLevelConfigured-_Dcm_Lok_SecurityLevelConfigured..C.3A.5C_ECU2.5CECU_Rivian_A1.5CTarget.5Crepo_projects.5CpRealEcu.5CcR_LATEST.5Cmake.5Coutput.5Cobjects.5CDcmDspUds_Seca.
000000f8 01             4868 	.byte	1
000000f9 00000000*      4869 	.word	.LDW71
000000fd 00             4870 	.byte	0
000000fe 00             4871 	.byte	0
000000ff 00             4872 	.byte	0
                        4873 .LDW_unq_a:
                        4874 	.section	.debug_line
00000d87 000502         4875 	.byte	0,5,2
00000d8a 00000000*      4876 	.word	_Dcm_Lok_SecurityLevelConfigured..C.3A.5C_ECU2.5CECU_Rivian_A1.5CTarget.5Crepo_projects.5CpRealEcu.5CcR_LATEST.5Cmake.5Coutput.5Cobjects.5CDcmDspUds_Seca.
00000d8e 03             4877 	.byte	3
00000d8f b501           4878 	.byte	181,1
00000d91 02             4879 	.byte	2
00000d92 00             4880 	.byte	0
00000d93 01             4881 	.byte	1
00000d94 06             4882 	.byte	6
00000d95 000502         4883 	.byte	0,5,2
00000d98 00000000*      4884 	.word	.LDWlin14
00000d9c 0b             4885 	.byte	11
00000d9d 000502         4886 	.byte	0,5,2
00000da0 00000000*      4887 	.word	.LDWlin15
00000da4 0c             4888 	.byte	12
00000da5 000502         4889 	.byte	0,5,2
00000da8 00000000*      4890 	.word	.LDWlin16
00000dac 0b             4891 	.byte	11
00000dad 0c             4892 	.byte	12
00000dae 03             4893 	.byte	3
00000daf 11             4894 	.byte	17
00000db0 02             4895 	.byte	2
00000db1 06             4896 	.byte	6
00000db2 01             4897 	.byte	1
00000db3 02             4898 	.byte	2

                                                                      Page 95
                                                              C:\Users\nhuliyap\AppData\Local\Temp\gh_000075o1.s
00000db4 00             4899 	.byte	0
00000db5 02             4900 	.byte	2
00000db6 00             4901 	.byte	0
00000db7 02             4902 	.byte	2
00000db8 00             4903 	.byte	0
00000db9 02             4904 	.byte	2
00000dba 00             4905 	.byte	0
00000dbb 02             4906 	.byte	2
00000dbc 00             4907 	.byte	0
00000dbd 0b             4908 	.byte	11
00000dbe 000502         4909 	.byte	0,5,2
00000dc1 00000000*      4910 	.word	.LDWlin17
00000dc5 03             4911 	.byte	3
00000dc6 6f             4912 	.byte	111
00000dc7 02             4913 	.byte	2
00000dc8 00             4914 	.byte	0
00000dc9 01             4915 	.byte	1
00000dca 0c             4916 	.byte	12
00000dcb 02             4917 	.byte	2
00000dcc 00             4918 	.byte	0
00000dcd 000502         4919 	.byte	0,5,2
00000dd0 00000000*      4920 	.word	.LDWlin18
00000dd4 0c             4921 	.byte	12
00000dd5 0b             4922 	.byte	11
00000dd6 000502         4923 	.byte	0,5,2
00000dd9 00000000*      4924 	.word	.LDWlin19
00000ddd 0b             4925 	.byte	11
00000dde 0d             4926 	.byte	13
00000ddf 02             4927 	.byte	2
00000de0 00             4928 	.byte	0
00000de1 000502         4929 	.byte	0,5,2
00000de4 00000000*      4930 	.word	.LDWlin20
00000de8 0b             4931 	.byte	11
00000de9 0b             4932 	.byte	11
00000dea 000502         4933 	.byte	0,5,2
00000ded 00000000*      4934 	.word	.LDWlin21
00000df1 0b             4935 	.byte	11
00000df2 0c             4936 	.byte	12
00000df3 0b             4937 	.byte	11
00000df4 02             4938 	.byte	2
00000df5 04             4939 	.byte	4
00000df6 000101         4940 	.byte	0,1,1
                        4941 	.section	.debug_info
                        4942 .LDW_4cf1630:
00000ff8 0f             4943 	.byte	15
00000ff9 704d7367436f   4944 	.strz	"pMsgContext"
00000fff 6e7465787400 
00001005 b401           4945 	.byte	180,1
00001007 52             4946 	.byte	82
00001008 01             4947 	.byte	1
00001009 00000000*      4948 	.word	.LDW_16f8440
0000100d 00             4949 	.byte	0
0000100e 0156           4950 	.byte	1,86
                        4951 
                        4952 .LDW_4cf1790:
00001010 0f             4953 	.byte	15
00001011 646174614e65   4954 	.strz	"dataNegRespCode_u8"
00001017 675265737043 
0000101d 6f64655f7538 
00001023 00 
00001024 b501           4955 	.byte	181,1

                                                                      Page 96
                                                              C:\Users\nhuliyap\AppData\Local\Temp\gh_000075o1.s
00001026 5a             4956 	.byte	90
00001027 01             4957 	.byte	1
00001028 00000000*      4958 	.word	.LDW_16f8478
0000102c 00             4959 	.byte	0
0000102d 016e           4960 	.byte	1,110
                        4961 
                        4962 .LDW_4dd46c8:
0000102f 1d             4963 	.byte	29
00001030 00000000*      4964 	.word	.LDW61
00001034 00000000*      4965 	.word	.LDW71
                        4966 
00001038 00             4967 	.byte	0
                        4968 
00001039 00             4969 	.byte	0
                        4970 
                        4971 .LDW_4dd5a70:
0000103a 13             4972 	.byte	19
0000103b 44636d5f4c6f   4973 	.strz	"Dcm_Lok_SecaSeedRequest"
00001041 6b5f53656361 
00001047 536565645265 
0000104d 717565737400 
00001053 d001           4974 	.byte	208,1
00001055 1c             4975 	.byte	28
00001056 01             4976 	.byte	1
00001057 00000000*      4977 	.word	_Dcm_Lok_SecaSeedRequest..C.3A.5C_ECU2.5CECU_Rivian_A1.5CTarget.5Crepo_projects.5CpRealEcu.5CcR_LATEST.5Cmake.5Coutput.5Cobjects.5CDcmDspUds_Seca.
0000105b 00000000*      4978 	.word	___ghs_eofn_Dcm_Lok_SecaSeedRequest
0000105f 0153           4979 	.byte	1,83
00001061 02             4980 	.byte	2
00001062 00             4981 	.byte	0
00001063 02             4982 	.byte	2
00001064 00             4983 	.byte	0
00001065 00             4984 	.byte	0
00001066 00             4985 	.byte	0
00001067 00             4986 	.byte	0
00001068 00             4987 	.byte	0
00001069 01             4988 	.byte	1
0000106a 00             4989 	.byte	0
0000106b 01             4990 	.byte	1
                        4991 
                        4992 	.section	.debug_frame
                        4993 .LDW_4eb5e90:
00000100 00000000*      4994 	.word	.LDW_unq_c-.LDW_unq_b
                        4995 .LDW_unq_b:
00000104 00000000*      4996 	.word	.LDW_4dfe7c0
00000108 00000000*      4997 	.word	_Dcm_Lok_SecaSeedRequest..C.3A.5C_ECU2.5CECU_Rivian_A1.5CTarget.5Crepo_projects.5CpRealEcu.5CcR_LATEST.5Cmake.5Coutput.5Cobjects.5CDcmDspUds_Seca.
0000010c 00000000*      4998 	.word	___ghs_eofn_Dcm_Lok_SecaSeedRequest-_Dcm_Lok_SecaSeedRequest..C.3A.5C_ECU2.5CECU_Rivian_A1.5CTarget.5Crepo_projects.5CpRealEcu.5CcR_LATEST.5Cmake.5Coutput.5Cobjects.5CDcmDspUds_Seca.
00000110 01             4999 	.byte	1
00000111 00000000*      5000 	.word	.LDW91
00000115 00             5001 	.byte	0
00000116 00             5002 	.byte	0
00000117 00             5003 	.byte	0
                        5004 .LDW_unq_c:
                        5005 	.section	.debug_line
00000df9 000502         5006 	.byte	0,5,2
00000dfc 00000000*      5007 	.word	_Dcm_Lok_SecaSeedRequest..C.3A.5C_ECU2.5CECU_Rivian_A1.5CTarget.5Crepo_projects.5CpRealEcu.5CcR_LATEST.5Cmake.5Coutput.5Cobjects.5CDcmDspUds_Seca.
00000e00 03             5008 	.byte	3
00000e01 d101           5009 	.byte	209,1
00000e03 02             5010 	.byte	2
00000e04 00             5011 	.byte	0
00000e05 01             5012 	.byte	1
00000e06 06             5013 	.byte	6

                                                                      Page 97
                                                              C:\Users\nhuliyap\AppData\Local\Temp\gh_000075o1.s
00000e07 000502         5014 	.byte	0,5,2
00000e0a 00000000*      5015 	.word	.LDWlin22
00000e0e 03             5016 	.byte	3
00000e0f 04             5017 	.byte	4
00000e10 02             5018 	.byte	2
00000e11 00             5019 	.byte	0
00000e12 01             5020 	.byte	1
00000e13 03             5021 	.byte	3
00000e14 04             5022 	.byte	4
00000e15 02             5023 	.byte	2
00000e16 04             5024 	.byte	4
00000e17 01             5025 	.byte	1
00000e18 03             5026 	.byte	3
00000e19 7e             5027 	.byte	126
00000e1a 02             5028 	.byte	2
00000e1b 02             5029 	.byte	2
00000e1c 01             5030 	.byte	1
00000e1d 44             5031 	.byte	68
00000e1e 000502         5032 	.byte	0,5,2
00000e21 00000000*      5033 	.word	.LDWlin23
00000e25 02             5034 	.byte	2
00000e26 00             5035 	.byte	0
00000e27 000502         5036 	.byte	0,5,2
00000e2a 00000000*      5037 	.word	.LDWlin24
00000e2e 03             5038 	.byte	3
00000e2f 04             5039 	.byte	4
00000e30 02             5040 	.byte	2
00000e31 00             5041 	.byte	0
00000e32 01             5042 	.byte	1
00000e33 0c             5043 	.byte	12
00000e34 03             5044 	.byte	3
00000e35 08             5045 	.byte	8
00000e36 02             5046 	.byte	2
00000e37 04             5047 	.byte	4
00000e38 01             5048 	.byte	1
00000e39 000502         5049 	.byte	0,5,2
00000e3c 00000000*      5050 	.word	.LDWlin25
00000e40 0b             5051 	.byte	11
00000e41 0c             5052 	.byte	12
00000e42 0b             5053 	.byte	11
00000e43 0c             5054 	.byte	12
00000e44 23             5055 	.byte	35
00000e45 02             5056 	.byte	2
00000e46 00             5057 	.byte	0
00000e47 03             5058 	.byte	3
00000e48 07             5059 	.byte	7
00000e49 02             5060 	.byte	2
00000e4a 00             5061 	.byte	0
00000e4b 01             5062 	.byte	1
00000e4c 02             5063 	.byte	2
00000e4d 02             5064 	.byte	2
00000e4e 000101         5065 	.byte	0,1,1
                        5066 	.section	.debug_info
                        5067 .LDW_4cf1688:
0000106c 0f             5068 	.byte	15
0000106d 704d7367436f   5069 	.strz	"pMsgContext"
00001073 6e7465787400 
00001079 d001           5070 	.byte	208,1
0000107b 6a             5071 	.byte	106
0000107c 01             5072 	.byte	1
0000107d 00000000*      5073 	.word	.LDW_16f8440

                                                                      Page 98
                                                              C:\Users\nhuliyap\AppData\Local\Temp\gh_000075o1.s
00001081 00             5074 	.byte	0
00001082 0156           5075 	.byte	1,86
                        5076 
                        5077 .LDW_4cf10b0:
00001084 0f             5078 	.byte	15
00001085 646174614e65   5079 	.strz	"dataNegRespCode_u8"
0000108b 675265737043 
00001091 6f64655f7538 
00001097 00 
00001098 d101           5080 	.byte	209,1
0000109a 61             5081 	.byte	97
0000109b 01             5082 	.byte	1
0000109c 00000000*      5083 	.word	.LDW_16f8478
000010a0 00             5084 	.byte	0
000010a1 016e           5085 	.byte	1,110
                        5086 
                        5087 .LDW_4dd4ab8:
000010a3 1d             5088 	.byte	29
000010a4 00000000*      5089 	.word	.LDW81
000010a8 00000000*      5090 	.word	.LDW91
                        5091 
                        5092 .LDW_4cf16e0:
000010ac 04             5093 	.byte	4
000010ad 6c5f69647853   5094 	.strz	"l_idxSecTab_qu8"
000010b3 65635461625f 
000010b9 71753800 
000010bd d401           5095 	.byte	212,1
000010bf 1f             5096 	.byte	31
000010c0 01             5097 	.byte	1
000010c1 00000000*      5098 	.word	.LDW_4cf1108
000010c5 00             5099 	.byte	0
000010c6 00             5100 	.byte	0
000010c7 0161           5101 	.byte	1,97
                        5102 
000010c9 00             5103 	.byte	0
                        5104 
000010ca 00             5105 	.byte	0
                        5106 
                        5107 .LDW_4dd5b08:
000010cb 13             5108 	.byte	19
000010cc 44636d5f4c6f   5109 	.strz	"Dcm_Lok_ReqSecaLvlConfigured"
000010d2 6b5f52657153 
000010d8 6563614c766c 
000010de 436f6e666967 
000010e4 7572656400 
000010e9 f801           5110 	.byte	248,1
000010eb 1c             5111 	.byte	28
000010ec 01             5112 	.byte	1
000010ed 00000000*      5113 	.word	_Dcm_Lok_ReqSecaLvlConfigured..C.3A.5C_ECU2.5CECU_Rivian_A1.5CTarget.5Crepo_projects.5CpRealEcu.5CcR_LATEST.5Cmake.5Coutput.5Cobjects.5CDcmDspUds_Seca.
000010f1 00000000*      5114 	.word	___ghs_eofn_Dcm_Lok_ReqSecaLvlConfigured
000010f5 0153           5115 	.byte	1,83
000010f7 02             5116 	.byte	2
000010f8 00             5117 	.byte	0
000010f9 02             5118 	.byte	2
000010fa 00             5119 	.byte	0
000010fb 00             5120 	.byte	0
000010fc 00             5121 	.byte	0
000010fd 00             5122 	.byte	0
000010fe 00             5123 	.byte	0
000010ff 01             5124 	.byte	1
00001100 00             5125 	.byte	0

                                                                      Page 99
                                                              C:\Users\nhuliyap\AppData\Local\Temp\gh_000075o1.s
00001101 01             5126 	.byte	1
                        5127 
                        5128 	.section	.debug_frame
                        5129 .LDW_4eb60d0:
00000118 00000000*      5130 	.word	.LDW_unq_e-.LDW_unq_d
                        5131 .LDW_unq_d:
0000011c 00000000*      5132 	.word	.LDW_4dfe7c0
00000120 00000000*      5133 	.word	_Dcm_Lok_ReqSecaLvlConfigured..C.3A.5C_ECU2.5CECU_Rivian_A1.5CTarget.5Crepo_projects.5CpRealEcu.5CcR_LATEST.5Cmake.5Coutput.5Cobjects.5CDcmDspUds_Seca.
00000124 00000000*      5134 	.word	___ghs_eofn_Dcm_Lok_ReqSecaLvlConfigured-_Dcm_Lok_ReqSecaLvlConfigured..C.3A.5C_ECU2.5CECU_Rivian_A1.5CTarget.5Crepo_projects.5CpRealEcu.5CcR_LATEST.5Cmake.5Coutput.5Cobjects.5CDcmDspUds_Seca.
00000128 01             5135 	.byte	1
00000129 00000000*      5136 	.word	.LDW12
0000012d 00             5137 	.byte	0
0000012e 00             5138 	.byte	0
0000012f 00             5139 	.byte	0
                        5140 .LDW_unq_e:
                        5141 	.section	.debug_line
00000e51 000502         5142 	.byte	0,5,2
00000e54 00000000*      5143 	.word	_Dcm_Lok_ReqSecaLvlConfigured..C.3A.5C_ECU2.5CECU_Rivian_A1.5CTarget.5Crepo_projects.5CpRealEcu.5CcR_LATEST.5Cmake.5Coutput.5Cobjects.5CDcmDspUds_Seca.
00000e58 03             5144 	.byte	3
00000e59 fb01           5145 	.byte	251,1
00000e5b 02             5146 	.byte	2
00000e5c 00             5147 	.byte	0
00000e5d 01             5148 	.byte	1
00000e5e 06             5149 	.byte	6
00000e5f 000502         5150 	.byte	0,5,2
00000e62 00000000*      5151 	.word	.LDWlin26
00000e66 0b             5152 	.byte	11
00000e67 1c             5153 	.byte	28
00000e68 000502         5154 	.byte	0,5,2
00000e6b 00000000*      5155 	.word	.LDWlin27
00000e6f 0c             5156 	.byte	12
00000e70 000502         5157 	.byte	0,5,2
00000e73 00000000*      5158 	.word	.LDWlin28
00000e77 0b             5159 	.byte	11
00000e78 0c             5160 	.byte	12
00000e79 000502         5161 	.byte	0,5,2
00000e7c 00000000*      5162 	.word	.LDWlin29
00000e80 0b             5163 	.byte	11
00000e81 0c             5164 	.byte	12
00000e82 02             5165 	.byte	2
00000e83 00             5166 	.byte	0
00000e84 000502         5167 	.byte	0,5,2
00000e87 00000000*      5168 	.word	.LDWlin30
00000e8b 0b             5169 	.byte	11
00000e8c 0c             5170 	.byte	12
00000e8d 000502         5171 	.byte	0,5,2
00000e90 00000000*      5172 	.word	.LDWlin31
00000e94 0b             5173 	.byte	11
00000e95 03             5174 	.byte	3
00000e96 09             5175 	.byte	9
00000e97 02             5176 	.byte	2
00000e98 00             5177 	.byte	0
00000e99 01             5178 	.byte	1
00000e9a 0c             5179 	.byte	12
00000e9b 24             5180 	.byte	36
00000e9c 23             5181 	.byte	35
00000e9d 02             5182 	.byte	2
00000e9e 00             5183 	.byte	0
00000e9f 02             5184 	.byte	2
00000ea0 00             5185 	.byte	0
00000ea1 02             5186 	.byte	2

                                                                      Page 100
                                                              C:\Users\nhuliyap\AppData\Local\Temp\gh_000075o1.s
00000ea2 00             5187 	.byte	0
00000ea3 0b             5188 	.byte	11
00000ea4 02             5189 	.byte	2
00000ea5 02             5190 	.byte	2
00000ea6 000101         5191 	.byte	0,1,1
                        5192 	.section	.debug_info
                        5193 .LDW_4cf0d40:
00001102 0f             5194 	.byte	15
00001103 4f7053746174   5195 	.strz	"OpStatus"
00001109 757300 
0000110c f901           5196 	.byte	249,1
0000110e 53             5197 	.byte	83
0000110f 01             5198 	.byte	1
00001110 00000000*      5199 	.word	.LDW_16f82f0
00001114 00             5200 	.byte	0
00001115 0156           5201 	.byte	1,86
                        5202 
                        5203 .LDW_4cf0d98:
00001117 0f             5204 	.byte	15
00001118 704d7367436f   5205 	.strz	"pMsgContext"
0000111e 6e7465787400 
00001124 fa01           5206 	.byte	250,1
00001126 56             5207 	.byte	86
00001127 01             5208 	.byte	1
00001128 00000000*      5209 	.word	.LDW_16f8280
0000112c 00             5210 	.byte	0
0000112d 0157           5211 	.byte	1,87
                        5212 
                        5213 .LDW_4cf1160:
0000112f 0f             5214 	.byte	15
00001130 646174614e65   5215 	.strz	"dataNegRespCode_u8"
00001136 675265737043 
0000113c 6f64655f7538 
00001142 00 
00001143 fb01           5216 	.byte	251,1
00001145 5f             5217 	.byte	95
00001146 01             5218 	.byte	1
00001147 00000000*      5219 	.word	.LDW_16f8478
0000114b 00             5220 	.byte	0
0000114c 016e           5221 	.byte	1,110
                        5222 
                        5223 .LDW_4dd4818:
0000114e 1d             5224 	.byte	29
0000114f 00000000*      5225 	.word	.LDW02
00001153 00000000*      5226 	.word	.LDW12
                        5227 
00001157 00             5228 	.byte	0
                        5229 
00001158 00             5230 	.byte	0
                        5231 
                        5232 .LDW_4dd5e98:
00001159 13             5233 	.byte	19
0000115a 44636d5f4c6f   5234 	.strz	"Dcm_Lok_ChkForReqSecaLvl"
00001160 6b5f43686b46 
00001166 6f7252657153 
0000116c 6563614c766c 
00001172 00 
00001173 9c02           5235 	.byte	156,2
00001175 1c             5236 	.byte	28
00001176 01             5237 	.byte	1
00001177 00000000*      5238 	.word	_Dcm_Lok_ChkForReqSecaLvl..C.3A.5C_ECU2.5CECU_Rivian_A1.5CTarget.5Crepo_projects.5CpRealEcu.5CcR_LATEST.5Cmake.5Coutput.5Cobjects.5CDcmDspUds_Seca.

                                                                      Page 101
                                                              C:\Users\nhuliyap\AppData\Local\Temp\gh_000075o1.s
0000117b 00000000*      5239 	.word	___ghs_eofn_Dcm_Lok_ChkForReqSecaLvl
0000117f 0153           5240 	.byte	1,83
00001181 02             5241 	.byte	2
00001182 00             5242 	.byte	0
00001183 02             5243 	.byte	2
00001184 00             5244 	.byte	0
00001185 00             5245 	.byte	0
00001186 00             5246 	.byte	0
00001187 00             5247 	.byte	0
00001188 00             5248 	.byte	0
00001189 01             5249 	.byte	1
0000118a 00             5250 	.byte	0
0000118b 01             5251 	.byte	1
                        5252 
                        5253 	.section	.debug_frame
                        5254 .LDW_4eb5f90:
00000130 00000000*      5255 	.word	.LDW_unq_10-.LDW_unq_f
                        5256 .LDW_unq_f:
00000134 00000000*      5257 	.word	.LDW_4dfe7c0
00000138 00000000*      5258 	.word	_Dcm_Lok_ChkForReqSecaLvl..C.3A.5C_ECU2.5CECU_Rivian_A1.5CTarget.5Crepo_projects.5CpRealEcu.5CcR_LATEST.5Cmake.5Coutput.5Cobjects.5CDcmDspUds_Seca.
0000013c 00000000*      5259 	.word	___ghs_eofn_Dcm_Lok_ChkForReqSecaLvl-_Dcm_Lok_ChkForReqSecaLvl..C.3A.5C_ECU2.5CECU_Rivian_A1.5CTarget.5Crepo_projects.5CpRealEcu.5CcR_LATEST.5Cmake.5Coutput.5Cobjects.5CDcmDspUds_Seca.
00000140 01             5260 	.byte	1
00000141 00000000*      5261 	.word	.LDW32
00000145 00             5262 	.byte	0
00000146 00             5263 	.byte	0
00000147 00             5264 	.byte	0
                        5265 .LDW_unq_10:
                        5266 	.section	.debug_line
00000ea9 000502         5267 	.byte	0,5,2
00000eac 00000000*      5268 	.word	_Dcm_Lok_ChkForReqSecaLvl..C.3A.5C_ECU2.5CECU_Rivian_A1.5CTarget.5Crepo_projects.5CpRealEcu.5CcR_LATEST.5Cmake.5Coutput.5Cobjects.5CDcmDspUds_Seca.
00000eb0 03             5269 	.byte	3
00000eb1 9e02           5270 	.byte	158,2
00000eb3 02             5271 	.byte	2
00000eb4 00             5272 	.byte	0
00000eb5 01             5273 	.byte	1
00000eb6 06             5274 	.byte	6
00000eb7 000502         5275 	.byte	0,5,2
00000eba 00000000*      5276 	.word	.LDWlin32
00000ebe 03             5277 	.byte	3
00000ebf 04             5278 	.byte	4
00000ec0 02             5279 	.byte	2
00000ec1 00             5280 	.byte	0
00000ec2 01             5281 	.byte	1
00000ec3 1c             5282 	.byte	28
00000ec4 02             5283 	.byte	2
00000ec5 08             5284 	.byte	8
00000ec6 000502         5285 	.byte	0,5,2
00000ec9 00000000*      5286 	.word	.LDWlin33
00000ecd 02             5287 	.byte	2
00000ece 00             5288 	.byte	0
00000ecf 000502         5289 	.byte	0,5,2
00000ed2 00000000*      5290 	.word	.LDWlin34
00000ed6 03             5291 	.byte	3
00000ed7 04             5292 	.byte	4
00000ed8 02             5293 	.byte	2
00000ed9 00             5294 	.byte	0
00000eda 01             5295 	.byte	1
00000edb 0c             5296 	.byte	12
00000edc 1c             5297 	.byte	28
00000edd 000502         5298 	.byte	0,5,2
00000ee0 00000000*      5299 	.word	.LDWlin35

                                                                      Page 102
                                                              C:\Users\nhuliyap\AppData\Local\Temp\gh_000075o1.s
00000ee4 0b             5300 	.byte	11
00000ee5 0c             5301 	.byte	12
00000ee6 03             5302 	.byte	3
00000ee7 04             5303 	.byte	4
00000ee8 02             5304 	.byte	2
00000ee9 06             5305 	.byte	6
00000eea 01             5306 	.byte	1
00000eeb 02             5307 	.byte	2
00000eec 00             5308 	.byte	0
00000eed 0b             5309 	.byte	11
00000eee 000502         5310 	.byte	0,5,2
00000ef1 00000000*      5311 	.word	.LDWlin36
00000ef5 03             5312 	.byte	3
00000ef6 7c             5313 	.byte	124
00000ef7 02             5314 	.byte	2
00000ef8 00             5315 	.byte	0
00000ef9 01             5316 	.byte	1
00000efa 0b             5317 	.byte	11
00000efb 0b             5318 	.byte	11
00000efc 02             5319 	.byte	2
00000efd 0e             5320 	.byte	14
00000efe 000101         5321 	.byte	0,1,1
                        5322 	.section	.debug_info
                        5323 .LDW_4cf1b58:
0000118c 0f             5324 	.byte	15
0000118d 704d7367436f   5325 	.strz	"pMsgContext"
00001193 6e7465787400 
00001199 9d02           5326 	.byte	157,2
0000119b 54             5327 	.byte	84
0000119c 01             5328 	.byte	1
0000119d 00000000*      5329 	.word	.LDW_16f8280
000011a1 00             5330 	.byte	0
000011a2 0156           5331 	.byte	1,86
                        5332 
                        5333 .LDW_4cf19f8:
000011a4 0f             5334 	.byte	15
000011a5 646174614e65   5335 	.strz	"dataNegRespCode_u8"
000011ab 675265737043 
000011b1 6f64655f7538 
000011b7 00 
000011b8 9e02           5336 	.byte	158,2
000011ba 5b             5337 	.byte	91
000011bb 01             5338 	.byte	1
000011bc 00000000*      5339 	.word	.LDW_16f8478
000011c0 00             5340 	.byte	0
000011c1 016e           5341 	.byte	1,110
                        5342 
                        5343 .LDW_16f53e0:
000011c3 1d             5344 	.byte	29
000011c4 00000000*      5345 	.word	.LDW22
000011c8 00000000*      5346 	.word	.LDW32
                        5347 
                        5348 .LDW_4cf1898:
000011cc 04             5349 	.byte	4
000011cd 6c5f69647853   5350 	.strz	"l_idxSecTab_qu8"
000011d3 65635461625f 
000011d9 71753800 
000011dd a102           5351 	.byte	161,2
000011df 1f             5352 	.byte	31
000011e0 01             5353 	.byte	1
000011e1 00000000*      5354 	.word	.LDW_4cf1108

                                                                      Page 103
                                                              C:\Users\nhuliyap\AppData\Local\Temp\gh_000075o1.s
000011e5 00             5355 	.byte	0
000011e6 00             5356 	.byte	0
000011e7 0161           5357 	.byte	1,97
                        5358 
000011e9 00             5359 	.byte	0
                        5360 
000011ea 00             5361 	.byte	0
                        5362 
                        5363 .LDW_4dd5fc8:
000011eb 13             5364 	.byte	19
000011ec 44636d5f4c6f   5365 	.strz	"Dcm_Lok_SecaRequestState"
000011f2 6b5f53656361 
000011f8 526571756573 
000011fe 745374617465 
00001204 00 
00001205 b702           5366 	.byte	183,2
00001207 1c             5367 	.byte	28
00001208 01             5368 	.byte	1
00001209 00000000*      5369 	.word	_Dcm_Lok_SecaRequestState..C.3A.5C_ECU2.5CECU_Rivian_A1.5CTarget.5Crepo_projects.5CpRealEcu.5CcR_LATEST.5Cmake.5Coutput.5Cobjects.5CDcmDspUds_Seca.
0000120d 00000000*      5370 	.word	___ghs_eofn_Dcm_Lok_SecaRequestState
00001211 0153           5371 	.byte	1,83
00001213 02             5372 	.byte	2
00001214 00             5373 	.byte	0
00001215 02             5374 	.byte	2
00001216 00             5375 	.byte	0
00001217 00             5376 	.byte	0
00001218 00             5377 	.byte	0
00001219 00             5378 	.byte	0
0000121a 00             5379 	.byte	0
0000121b 01             5380 	.byte	1
0000121c 00             5381 	.byte	0
0000121d 01             5382 	.byte	1
                        5383 
                        5384 	.section	.debug_frame
                        5385 .LDW_4eb6150:
00000148 00000000*      5386 	.word	.LDW_unq_12-.LDW_unq_11
                        5387 .LDW_unq_11:
0000014c 00000000*      5388 	.word	.LDW_4dfe7c0
00000150 00000000*      5389 	.word	_Dcm_Lok_SecaRequestState..C.3A.5C_ECU2.5CECU_Rivian_A1.5CTarget.5Crepo_projects.5CpRealEcu.5CcR_LATEST.5Cmake.5Coutput.5Cobjects.5CDcmDspUds_Seca.
00000154 00000000*      5390 	.word	___ghs_eofn_Dcm_Lok_SecaRequestState-_Dcm_Lok_SecaRequestState..C.3A.5C_ECU2.5CECU_Rivian_A1.5CTarget.5Crepo_projects.5CpRealEcu.5CcR_LATEST.5Cmake.5Coutput.5Cobjects.5CDcmDspUds_Seca.
00000158 01             5391 	.byte	1
00000159 00000000*      5392 	.word	.LDW52
0000015d 00             5393 	.byte	0
0000015e 00             5394 	.byte	0
0000015f 00             5395 	.byte	0
                        5396 .LDW_unq_12:
                        5397 	.section	.debug_line
00000f01 000502         5398 	.byte	0,5,2
00000f04 00000000*      5399 	.word	_Dcm_Lok_SecaRequestState..C.3A.5C_ECU2.5CECU_Rivian_A1.5CTarget.5Crepo_projects.5CpRealEcu.5CcR_LATEST.5Cmake.5Coutput.5Cobjects.5CDcmDspUds_Seca.
00000f08 03             5400 	.byte	3
00000f09 b802           5401 	.byte	184,2
00000f0b 02             5402 	.byte	2
00000f0c 00             5403 	.byte	0
00000f0d 01             5404 	.byte	1
00000f0e 06             5405 	.byte	6
00000f0f 14             5406 	.byte	20
00000f10 000502         5407 	.byte	0,5,2
00000f13 00000000*      5408 	.word	.LDWlin37
00000f17 0c             5409 	.byte	12
00000f18 000502         5410 	.byte	0,5,2
00000f1b 00000000*      5411 	.word	.LDWlin38

                                                                      Page 104
                                                              C:\Users\nhuliyap\AppData\Local\Temp\gh_000075o1.s
00000f1f 0b             5412 	.byte	11
00000f20 0c             5413 	.byte	12
00000f21 0b             5414 	.byte	11
00000f22 0b             5415 	.byte	11
00000f23 000502         5416 	.byte	0,5,2
00000f26 00000000*      5417 	.word	.LDWlin39
00000f2a 0b             5418 	.byte	11
00000f2b 0c             5419 	.byte	12
00000f2c 0b             5420 	.byte	11
00000f2d 0c             5421 	.byte	12
00000f2e 2b             5422 	.byte	43
00000f2f 02             5423 	.byte	2
00000f30 00             5424 	.byte	0
00000f31 0b             5425 	.byte	11
00000f32 02             5426 	.byte	2
00000f33 00             5427 	.byte	0
00000f34 0b             5428 	.byte	11
00000f35 02             5429 	.byte	2
00000f36 02             5430 	.byte	2
00000f37 000101         5431 	.byte	0,1,1
                        5432 	.section	.debug_info
                        5433 .LDW_4cf1948:
0000121e 0f             5434 	.byte	15
0000121f 704d7367436f   5435 	.strz	"pMsgContext"
00001225 6e7465787400 
0000122b b702           5436 	.byte	183,2
0000122d 6a             5437 	.byte	106
0000122e 01             5438 	.byte	1
0000122f 00000000*      5439 	.word	.LDW_16f8440
00001233 00             5440 	.byte	0
00001234 016e           5441 	.byte	1,110
                        5442 
                        5443 .LDW_4cf18f0:
00001236 0f             5444 	.byte	15
00001237 646174614e65   5445 	.strz	"dataNegRespCode_u8"
0000123d 675265737043 
00001243 6f64655f7538 
00001249 00 
0000124a b802           5446 	.byte	184,2
0000124c 5d             5447 	.byte	93
0000124d 01             5448 	.byte	1
0000124e 00000000*      5449 	.word	.LDW_16f8478
00001252 00             5450 	.byte	0
00001253 0157           5451 	.byte	1,87
                        5452 
                        5453 .LDW_16f5290:
00001255 1d             5454 	.byte	29
00001256 00000000*      5455 	.word	.LDW42
0000125a 00000000*      5456 	.word	.LDW52
                        5457 
0000125e 00             5458 	.byte	0
                        5459 
0000125f 00             5460 	.byte	0
                        5461 
                        5462 .LDW_4dd60f8:
00001260 13             5463 	.byte	19
00001261 44636d5f4c6f   5464 	.strz	"Dcm_Lok_SecaCmpKeyPnding"
00001267 6b5f53656361 
0000126d 436d704b6579 
00001273 506e64696e67 
00001279 00 

                                                                      Page 105
                                                              C:\Users\nhuliyap\AppData\Local\Temp\gh_000075o1.s
0000127a cd02           5465 	.byte	205,2
0000127c 1c             5466 	.byte	28
0000127d 01             5467 	.byte	1
0000127e 00000000*      5468 	.word	_Dcm_Lok_SecaCmpKeyPnding..C.3A.5C_ECU2.5CECU_Rivian_A1.5CTarget.5Crepo_projects.5CpRealEcu.5CcR_LATEST.5Cmake.5Coutput.5Cobjects.5CDcmDspUds_Seca.
00001282 00000000*      5469 	.word	___ghs_eofn_Dcm_Lok_SecaCmpKeyPnding
00001286 0153           5470 	.byte	1,83
00001288 02             5471 	.byte	2
00001289 00             5472 	.byte	0
0000128a 02             5473 	.byte	2
0000128b 00             5474 	.byte	0
0000128c 00             5475 	.byte	0
0000128d 00             5476 	.byte	0
0000128e 00             5477 	.byte	0
0000128f 00             5478 	.byte	0
00001290 01             5479 	.byte	1
00001291 00             5480 	.byte	0
00001292 01             5481 	.byte	1
                        5482 
                        5483 	.section	.debug_frame
                        5484 .LDW_4eb6290:
00000160 00000000*      5485 	.word	.LDW_unq_14-.LDW_unq_13
                        5486 .LDW_unq_13:
00000164 00000000*      5487 	.word	.LDW_4dfe7c0
00000168 00000000*      5488 	.word	_Dcm_Lok_SecaCmpKeyPnding..C.3A.5C_ECU2.5CECU_Rivian_A1.5CTarget.5Crepo_projects.5CpRealEcu.5CcR_LATEST.5Cmake.5Coutput.5Cobjects.5CDcmDspUds_Seca.
0000016c 00000000*      5489 	.word	___ghs_eofn_Dcm_Lok_SecaCmpKeyPnding-_Dcm_Lok_SecaCmpKeyPnding..C.3A.5C_ECU2.5CECU_Rivian_A1.5CTarget.5Crepo_projects.5CpRealEcu.5CcR_LATEST.5Cmake.5Coutput.5Cobjects.5CDcmDspUds_Seca.
00000170 01             5490 	.byte	1
00000171 00000000*      5491 	.word	.LDW72
00000175 00             5492 	.byte	0
00000176 00             5493 	.byte	0
00000177 00             5494 	.byte	0
                        5495 .LDW_unq_14:
                        5496 	.section	.debug_line
00000f3a 000502         5497 	.byte	0,5,2
00000f3d 00000000*      5498 	.word	_Dcm_Lok_SecaCmpKeyPnding..C.3A.5C_ECU2.5CECU_Rivian_A1.5CTarget.5Crepo_projects.5CpRealEcu.5CcR_LATEST.5Cmake.5Coutput.5Cobjects.5CDcmDspUds_Seca.
00000f41 03             5499 	.byte	3
00000f42 ce02           5500 	.byte	206,2
00000f44 02             5501 	.byte	2
00000f45 00             5502 	.byte	0
00000f46 01             5503 	.byte	1
00000f47 06             5504 	.byte	6
00000f48 13             5505 	.byte	19
00000f49 13             5506 	.byte	19
00000f4a 000502         5507 	.byte	0,5,2
00000f4d 00000000*      5508 	.word	.LDWlin40
00000f51 0b             5509 	.byte	11
00000f52 000502         5510 	.byte	0,5,2
00000f55 00000000*      5511 	.word	.LDWlin41
00000f59 0b             5512 	.byte	11
00000f5a 02             5513 	.byte	2
00000f5b 02             5514 	.byte	2
00000f5c 000101         5515 	.byte	0,1,1
                        5516 	.section	.debug_info
                        5517 .LDW_4cf1c60:
00001293 0f             5518 	.byte	15
00001294 646174614e65   5519 	.strz	"dataNegRespCode_u8"
0000129a 675265737043 
000012a0 6f64655f7538 
000012a6 00 
000012a7 ce02           5520 	.byte	206,2
000012a9 5b             5521 	.byte	91
000012aa 01             5522 	.byte	1

                                                                      Page 106
                                                              C:\Users\nhuliyap\AppData\Local\Temp\gh_000075o1.s
000012ab 00000000*      5523 	.word	.LDW_16f8478
000012af 00             5524 	.byte	0
000012b0 016e           5525 	.byte	1,110
                        5526 
                        5527 .LDW_16f5140:
000012b2 1d             5528 	.byte	29
000012b3 00000000*      5529 	.word	.LDW62
000012b7 00000000*      5530 	.word	.LDW72
                        5531 
000012bb 00             5532 	.byte	0
                        5533 
000012bc 00             5534 	.byte	0
                        5535 
                        5536 .LDW_4dd6190:
000012bd 13             5537 	.byte	19
000012be 44636d5f4c6f   5538 	.strz	"Dcm_Lok_SecaCheckdataStValidKeyChk"
000012c4 6b5f53656361 
000012ca 436865636b64 
000012d0 617461537456 
000012d6 616c69644b65 
000012dc 7943686b00 
000012e1 8803           5539 	.byte	136,3
000012e3 1c             5540 	.byte	28
000012e4 01             5541 	.byte	1
000012e5 00000000*      5542 	.word	_Dcm_Lok_SecaCheckdataStValidKeyChk..C.3A.5C_ECU2.5CECU_Rivian_A1.5CTarget.5Crepo_projects.5CpRealEcu.5CcR_LATEST.5Cmake.5Coutput.5Cobjects.5CDcmDspUds_Seca.
000012e9 00000000*      5543 	.word	___ghs_eofn_Dcm_Lok_SecaCheckdataStValidKeyChk
000012ed 0153           5544 	.byte	1,83
000012ef 828080800b     5545 	.byte	130,128,128,128,11
000012f4 0c             5546 	.byte	12
000012f5 03             5547 	.byte	3
000012f6 0c             5548 	.byte	12
000012f7 00             5549 	.byte	0
000012f8 00             5550 	.byte	0
000012f9 00             5551 	.byte	0
000012fa 00             5552 	.byte	0
000012fb 01             5553 	.byte	1
000012fc 00             5554 	.byte	0
000012fd 01             5555 	.byte	1
                        5556 
                        5557 	.section	.debug_frame
                        5558 .LDW_4eb6450:
00000178 00000000*      5559 	.word	.LDW_unq_16-.LDW_unq_15
                        5560 .LDW_unq_15:
0000017c 00000000*      5561 	.word	.LDW_4dfe7c0
00000180 00000000*      5562 	.word	_Dcm_Lok_SecaCheckdataStValidKeyChk..C.3A.5C_ECU2.5CECU_Rivian_A1.5CTarget.5Crepo_projects.5CpRealEcu.5CcR_LATEST.5Cmake.5Coutput.5Cobjects.5CDcmDspUds_Seca.
00000184 00000000*      5563 	.word	___ghs_eofn_Dcm_Lok_SecaCheckdataStValidKeyChk-_Dcm_Lok_SecaCheckdataStValidKeyChk..C.3A.5C_ECU2.5CECU_Rivian_A1.5CTarget.5Crepo_projects.5CpRealEcu.5CcR_LATEST.5Cmake.5Coutput.5Cobjects.5CDcmDspUds_Seca.
00000188 44             5564 	.byte	68
00000189 9f             5565 	.byte	159
0000018a 00             5566 	.byte	0
0000018b 40             5567 	.byte	64
0000018c 9d             5568 	.byte	157
0000018d 04             5569 	.byte	4
0000018e 40             5570 	.byte	64
0000018f 9c             5571 	.byte	156
00000190 08             5572 	.byte	8
00000191 01             5573 	.byte	1
00000192 00000000*      5574 	.word	.LDW92
00000196 00             5575 	.byte	0
00000197 00             5576 	.byte	0
                        5577 .LDW_unq_16:
                        5578 	.section	.debug_line

                                                                      Page 107
                                                              C:\Users\nhuliyap\AppData\Local\Temp\gh_000075o1.s
00000f5f 000502         5579 	.byte	0,5,2
00000f62 00000000*      5580 	.word	_Dcm_Lok_SecaCheckdataStValidKeyChk..C.3A.5C_ECU2.5CECU_Rivian_A1.5CTarget.5Crepo_projects.5CpRealEcu.5CcR_LATEST.5Cmake.5Coutput.5Cobjects.5CDcmDspUds_Seca.
00000f66 03             5581 	.byte	3
00000f67 8a03           5582 	.byte	138,3
00000f69 02             5583 	.byte	2
00000f6a 00             5584 	.byte	0
00000f6b 01             5585 	.byte	1
00000f6c 06             5586 	.byte	6
00000f6d 000502         5587 	.byte	0,5,2
00000f70 00000000*      5588 	.word	.LDWlin42
00000f74 03             5589 	.byte	3
00000f75 14             5590 	.byte	20
00000f76 02             5591 	.byte	2
00000f77 00             5592 	.byte	0
00000f78 01             5593 	.byte	1
00000f79 000502         5594 	.byte	0,5,2
00000f7c 00000000*      5595 	.word	.LDWlin43
00000f80 0b             5596 	.byte	11
00000f81 0c             5597 	.byte	12
00000f82 000502         5598 	.byte	0,5,2
00000f85 00000000*      5599 	.word	.LDWlin44
00000f89 0c             5600 	.byte	12
00000f8a 02             5601 	.byte	2
00000f8b 00             5602 	.byte	0
00000f8c 0c             5603 	.byte	12
00000f8d 02             5604 	.byte	2
00000f8e 04             5605 	.byte	4
00000f8f 000101         5606 	.byte	0,1,1
                        5607 	.section	.debug_info
                        5608 .LDW_4cf19a0:
000012fe 0f             5609 	.byte	15
000012ff 704d7367436f   5610 	.strz	"pMsgContext"
00001305 6e7465787400 
0000130b 8903           5611 	.byte	137,3
0000130d 54             5612 	.byte	84
0000130e 01             5613 	.byte	1
0000130f 00000000*      5614 	.word	.LDW_16f8280
00001313 00             5615 	.byte	0
00001314 0163           5616 	.byte	1,99
                        5617 
                        5618 .LDW_4cf1a50:
00001316 0f             5619 	.byte	15
00001317 646174614e65   5620 	.strz	"dataNegRespCode_u8"
0000131d 675265737043 
00001323 6f64655f7538 
00001329 00 
0000132a 8a03           5621 	.byte	138,3
0000132c 5a             5622 	.byte	90
0000132d 01             5623 	.byte	1
0000132e 00000000*      5624 	.word	.LDW_16f8478
00001332 00             5625 	.byte	0
00001333 0159           5626 	.byte	1,89
                        5627 
                        5628 .LDW_16f5500:
00001335 1d             5629 	.byte	29
00001336 00000000*      5630 	.word	.LDW82
0000133a 00000000*      5631 	.word	.LDW92
                        5632 
0000133e 00             5633 	.byte	0
                        5634 
0000133f 00             5635 	.byte	0

                                                                      Page 108
                                                              C:\Users\nhuliyap\AppData\Local\Temp\gh_000075o1.s
                        5636 
                        5637 .LDW_4dd6358:
00001340 13             5638 	.byte	19
00001341 44636d5f4c6f   5639 	.strz	"Dcm_Lok_SecaValidKeyNotificationToAppIsOk"
00001347 6b5f53656361 
0000134d 56616c69644b 
00001353 65794e6f7469 
00001359 666963617469 
0000135f 6f6e546f4170 
00001365 7049734f6b00 
0000136b dc03           5640 	.byte	220,3
0000136d 1c             5641 	.byte	28
0000136e 01             5642 	.byte	1
0000136f 00000000*      5643 	.word	_Dcm_Lok_SecaValidKeyNotificationToAppIsOk..C.3A.5C_ECU2.5CECU_Rivian_A1.5CTarget.5Crepo_projects.5CpRealEcu.5CcR_LATEST.5Cmake.5Coutput.5Cobjects.5CDcmDspUds_Seca.
00001373 00000000*      5644 	.word	___ghs_eofn_Dcm_Lok_SecaValidKeyNotificationToAppIsOk
00001377 0153           5645 	.byte	1,83
00001379 02             5646 	.byte	2
0000137a 00             5647 	.byte	0
0000137b 02             5648 	.byte	2
0000137c 00             5649 	.byte	0
0000137d 00             5650 	.byte	0
0000137e 00             5651 	.byte	0
0000137f 00             5652 	.byte	0
00001380 00             5653 	.byte	0
00001381 01             5654 	.byte	1
00001382 00             5655 	.byte	0
00001383 01             5656 	.byte	1
                        5657 
                        5658 	.section	.debug_frame
                        5659 .LDW_4eb6510:
00000198 00000000*      5660 	.word	.LDW_unq_18-.LDW_unq_17
                        5661 .LDW_unq_17:
0000019c 00000000*      5662 	.word	.LDW_4dfe7c0
000001a0 00000000*      5663 	.word	_Dcm_Lok_SecaValidKeyNotificationToAppIsOk..C.3A.5C_ECU2.5CECU_Rivian_A1.5CTarget.5Crepo_projects.5CpRealEcu.5CcR_LATEST.5Cmake.5Coutput.5Cobjects.5CDcmDspUds_Seca.
000001a4 00000000*      5664 	.word	___ghs_eofn_Dcm_Lok_SecaValidKeyNotificationToAppIsOk-_Dcm_Lok_SecaValidKeyNotificationToAppIsOk..C.3A.5C_ECU2.5CECU_Rivian_A1.5CTarget.5Crepo_projects.5CpRealEcu.5CcR_LATEST.5Cmake.5Coutput.5Cobjects.5CDcmDspUds_Seca.
000001a8 01             5665 	.byte	1
000001a9 00000000*      5666 	.word	.LDW13
000001ad 00             5667 	.byte	0
000001ae 00             5668 	.byte	0
000001af 00             5669 	.byte	0
                        5670 .LDW_unq_18:
                        5671 	.section	.debug_line
00000f92 000502         5672 	.byte	0,5,2
00000f95 00000000*      5673 	.word	_Dcm_Lok_SecaValidKeyNotificationToAppIsOk..C.3A.5C_ECU2.5CECU_Rivian_A1.5CTarget.5Crepo_projects.5CpRealEcu.5CcR_LATEST.5Cmake.5Coutput.5Cobjects.5CDcmDspUds_Seca.
00000f99 03             5674 	.byte	3
00000f9a de03           5675 	.byte	222,3
00000f9c 02             5676 	.byte	2
00000f9d 00             5677 	.byte	0
00000f9e 01             5678 	.byte	1
00000f9f 06             5679 	.byte	6
00000fa0 000502         5680 	.byte	0,5,2
00000fa3 00000000*      5681 	.word	.LDWlin45
00000fa7 03             5682 	.byte	3
00000fa8 29             5683 	.byte	41
00000fa9 02             5684 	.byte	2
00000faa 00             5685 	.byte	0
00000fab 01             5686 	.byte	1
00000fac 000502         5687 	.byte	0,5,2
00000faf 00000000*      5688 	.word	.LDWlin46
00000fb3 0b             5689 	.byte	11
00000fb4 0b             5690 	.byte	11

                                                                      Page 109
                                                              C:\Users\nhuliyap\AppData\Local\Temp\gh_000075o1.s
00000fb5 1b             5691 	.byte	27
00000fb6 13             5692 	.byte	19
00000fb7 000502         5693 	.byte	0,5,2
00000fba 00000000*      5694 	.word	.LDWlin47
00000fbe 0b             5695 	.byte	11
00000fbf 0b             5696 	.byte	11
00000fc0 0c             5697 	.byte	12
00000fc1 1b             5698 	.byte	27
00000fc2 02             5699 	.byte	2
00000fc3 00             5700 	.byte	0
00000fc4 0c             5701 	.byte	12
00000fc5 02             5702 	.byte	2
00000fc6 02             5703 	.byte	2
00000fc7 000101         5704 	.byte	0,1,1
                        5705 	.section	.debug_info
                        5706 .LDW_4cf1aa8:
00001384 0f             5707 	.byte	15
00001385 4f7053746174   5708 	.strz	"OpStatus"
0000138b 757300 
0000138e dd03           5709 	.byte	221,3
00001390 52             5710 	.byte	82
00001391 01             5711 	.byte	1
00001392 00000000*      5712 	.word	.LDW_16f82f0
00001396 00             5713 	.byte	0
00001397 016e           5714 	.byte	1,110
                        5715 
                        5716 .LDW_16f5170:
00001399 1d             5717 	.byte	29
0000139a 00000000*      5718 	.word	.LDW03
0000139e 00000000*      5719 	.word	.LDW13
                        5720 
000013a2 00             5721 	.byte	0
                        5722 
000013a3 00             5723 	.byte	0
                        5724 
                        5725 .LDW_4dd65b8:
000013a4 13             5726 	.byte	19
000013a5 44636d5f4c6f   5727 	.strz	"Dcm_Lok_SecaUnlockSecurityLvl"
000013ab 6b5f53656361 
000013b1 556e6c6f636b 
000013b7 536563757269 
000013bd 74794c766c00 
000013c3 9504           5728 	.byte	149,4
000013c5 1c             5729 	.byte	28
000013c6 01             5730 	.byte	1
000013c7 00000000*      5731 	.word	_Dcm_Lok_SecaUnlockSecurityLvl..C.3A.5C_ECU2.5CECU_Rivian_A1.5CTarget.5Crepo_projects.5CpRealEcu.5CcR_LATEST.5Cmake.5Coutput.5Cobjects.5CDcmDspUds_Seca.
000013cb 00000000*      5732 	.word	___ghs_eofn_Dcm_Lok_SecaUnlockSecurityLvl
000013cf 0153           5733 	.byte	1,83
000013d1 828080800b     5734 	.byte	130,128,128,128,11
000013d6 0c             5735 	.byte	12
000013d7 03             5736 	.byte	3
000013d8 0c             5737 	.byte	12
000013d9 00             5738 	.byte	0
000013da 00             5739 	.byte	0
000013db 00             5740 	.byte	0
000013dc 00             5741 	.byte	0
000013dd 01             5742 	.byte	1
000013de 00             5743 	.byte	0
000013df 01             5744 	.byte	1
                        5745 
                        5746 	.section	.debug_frame

                                                                      Page 110
                                                              C:\Users\nhuliyap\AppData\Local\Temp\gh_000075o1.s
                        5747 .LDW_4fa70f0:
000001b0 00000000*      5748 	.word	.LDW_unq_1a-.LDW_unq_19
                        5749 .LDW_unq_19:
000001b4 00000000*      5750 	.word	.LDW_4dfe7c0
000001b8 00000000*      5751 	.word	_Dcm_Lok_SecaUnlockSecurityLvl..C.3A.5C_ECU2.5CECU_Rivian_A1.5CTarget.5Crepo_projects.5CpRealEcu.5CcR_LATEST.5Cmake.5Coutput.5Cobjects.5CDcmDspUds_Seca.
000001bc 00000000*      5752 	.word	___ghs_eofn_Dcm_Lok_SecaUnlockSecurityLvl-_Dcm_Lok_SecaUnlockSecurityLvl..C.3A.5C_ECU2.5CECU_Rivian_A1.5CTarget.5Crepo_projects.5CpRealEcu.5CcR_LATEST.5Cmake.5Coutput.5Cobjects.5CDcmDspUds_Seca.
000001c0 44             5753 	.byte	68
000001c1 9f             5754 	.byte	159
000001c2 00             5755 	.byte	0
000001c3 40             5756 	.byte	64
000001c4 9d             5757 	.byte	157
000001c5 04             5758 	.byte	4
000001c6 40             5759 	.byte	64
000001c7 9c             5760 	.byte	156
000001c8 08             5761 	.byte	8
000001c9 01             5762 	.byte	1
000001ca 00000000*      5763 	.word	.LDW33
000001ce 00             5764 	.byte	0
000001cf 00             5765 	.byte	0
                        5766 .LDW_unq_1a:
                        5767 	.section	.debug_line
00000fca 000502         5768 	.byte	0,5,2
00000fcd 00000000*      5769 	.word	_Dcm_Lok_SecaUnlockSecurityLvl..C.3A.5C_ECU2.5CECU_Rivian_A1.5CTarget.5Crepo_projects.5CpRealEcu.5CcR_LATEST.5Cmake.5Coutput.5Cobjects.5CDcmDspUds_Seca.
00000fd1 03             5770 	.byte	3
00000fd2 9704           5771 	.byte	151,4
00000fd4 02             5772 	.byte	2
00000fd5 00             5773 	.byte	0
00000fd6 01             5774 	.byte	1
00000fd7 06             5775 	.byte	6
00000fd8 000502         5776 	.byte	0,5,2
00000fdb 00000000*      5777 	.word	.LDWlin48
00000fdf 0b             5778 	.byte	11
00000fe0 03             5779 	.byte	3
00000fe1 04             5780 	.byte	4
00000fe2 02             5781 	.byte	2
00000fe3 04             5782 	.byte	4
00000fe4 01             5783 	.byte	1
00000fe5 03             5784 	.byte	3
00000fe6 7e             5785 	.byte	126
00000fe7 02             5786 	.byte	2
00000fe8 04             5787 	.byte	4
00000fe9 01             5788 	.byte	1
00000fea 000502         5789 	.byte	0,5,2
00000fed 00000000*      5790 	.word	.LDWlin49
00000ff1 03             5791 	.byte	3
00000ff2 7f             5792 	.byte	127
00000ff3 02             5793 	.byte	2
00000ff4 00             5794 	.byte	0
00000ff5 01             5795 	.byte	1
00000ff6 03             5796 	.byte	3
00000ff7 05             5797 	.byte	5
00000ff8 02             5798 	.byte	2
00000ff9 10             5799 	.byte	16
00000ffa 01             5800 	.byte	1
00000ffb 000502         5801 	.byte	0,5,2
00000ffe 00000000*      5802 	.word	.LDWlin50
00001002 0b             5803 	.byte	11
00001003 34             5804 	.byte	52
00001004 000502         5805 	.byte	0,5,2
00001007 00000000*      5806 	.word	.LDWlin51
0000100b 0b             5807 	.byte	11

                                                                      Page 111
                                                              C:\Users\nhuliyap\AppData\Local\Temp\gh_000075o1.s
0000100c 0b             5808 	.byte	11
0000100d 000502         5809 	.byte	0,5,2
00001010 00000000*      5810 	.word	.LDWlin52
00001014 0b             5811 	.byte	11
00001015 0b             5812 	.byte	11
00001016 03             5813 	.byte	3
00001017 04             5814 	.byte	4
00001018 02             5815 	.byte	2
00001019 00             5816 	.byte	0
0000101a 01             5817 	.byte	1
0000101b 000502         5818 	.byte	0,5,2
0000101e 00000000*      5819 	.word	.LDWlin53
00001022 0c             5820 	.byte	12
00001023 02             5821 	.byte	2
00001024 00             5822 	.byte	0
00001025 0b             5823 	.byte	11
00001026 02             5824 	.byte	2
00001027 04             5825 	.byte	4
00001028 000101         5826 	.byte	0,1,1
                        5827 	.section	.debug_info
                        5828 .LDW_4cf1840:
000013e0 0f             5829 	.byte	15
000013e1 4f7053746174   5830 	.strz	"OpStatus"
000013e7 757300 
000013ea 9504           5831 	.byte	149,4
000013ec 6f             5832 	.byte	111
000013ed 01             5833 	.byte	1
000013ee 00000000*      5834 	.word	.LDW_16f82f0
000013f2 00             5835 	.byte	0
000013f3 016c           5836 	.byte	1,108
                        5837 
                        5838 .LDW_4cf1b00:
000013f5 0f             5839 	.byte	15
000013f6 704d7367436f   5840 	.strz	"pMsgContext"
000013fc 6e7465787400 
00001402 9604           5841 	.byte	150,4
00001404 5d             5842 	.byte	93
00001405 01             5843 	.byte	1
00001406 00000000*      5844 	.word	.LDW_16f8440
0000140a 00             5845 	.byte	0
0000140b 016e           5846 	.byte	1,110
                        5847 
                        5848 .LDW_4cf1bb0:
0000140d 0f             5849 	.byte	15
0000140e 646174614e65   5850 	.strz	"dataNegRespCode_u8"
00001414 675265737043 
0000141a 6f64655f7538 
00001420 00 
00001421 9704           5851 	.byte	151,4
00001423 66             5852 	.byte	102
00001424 01             5853 	.byte	1
00001425 00000000*      5854 	.word	.LDW_16f8478
00001429 00             5855 	.byte	0
0000142a 0158           5856 	.byte	1,88
                        5857 
                        5858 .LDW_16f55f0:
0000142c 1d             5859 	.byte	29
0000142d 00000000*      5860 	.word	.LDW23
00001431 00000000*      5861 	.word	.LDW33
                        5862 
00001435 00             5863 	.byte	0

                                                                      Page 112
                                                              C:\Users\nhuliyap\AppData\Local\Temp\gh_000075o1.s
                        5864 
00001436 00             5865 	.byte	0
                        5866 
                        5867 .LDW_4dd63f0:
00001437 13             5868 	.byte	19
00001438 44636d5f4c6f   5869 	.strz	"Dcm_Lok_SecaCmpKeyFailed"
0000143e 6b5f53656361 
00001444 436d704b6579 
0000144a 4661696c6564 
00001450 00 
00001451 b304           5870 	.byte	179,4
00001453 1c             5871 	.byte	28
00001454 01             5872 	.byte	1
00001455 00000000*      5873 	.word	_Dcm_Lok_SecaCmpKeyFailed..C.3A.5C_ECU2.5CECU_Rivian_A1.5CTarget.5Crepo_projects.5CpRealEcu.5CcR_LATEST.5Cmake.5Coutput.5Cobjects.5CDcmDspUds_Seca.
00001459 00000000*      5874 	.word	___ghs_eofn_Dcm_Lok_SecaCmpKeyFailed
0000145d 0153           5875 	.byte	1,83
0000145f 828080c00b     5876 	.byte	130,128,128,192,11
00001464 10             5877 	.byte	16
00001465 03             5878 	.byte	3
00001466 10             5879 	.byte	16
00001467 00             5880 	.byte	0
00001468 00             5881 	.byte	0
00001469 00             5882 	.byte	0
0000146a 00             5883 	.byte	0
0000146b 01             5884 	.byte	1
0000146c 00             5885 	.byte	0
0000146d 01             5886 	.byte	1
                        5887 
                        5888 	.section	.debug_frame
                        5889 .LDW_4fa7030:
000001d0 00000000*      5890 	.word	.LDW_unq_1c-.LDW_unq_1b
                        5891 .LDW_unq_1b:
000001d4 00000000*      5892 	.word	.LDW_4dfe7c0
000001d8 00000000*      5893 	.word	_Dcm_Lok_SecaCmpKeyFailed..C.3A.5C_ECU2.5CECU_Rivian_A1.5CTarget.5Crepo_projects.5CpRealEcu.5CcR_LATEST.5Cmake.5Coutput.5Cobjects.5CDcmDspUds_Seca.
000001dc 00000000*      5894 	.word	___ghs_eofn_Dcm_Lok_SecaCmpKeyFailed-_Dcm_Lok_SecaCmpKeyFailed..C.3A.5C_ECU2.5CECU_Rivian_A1.5CTarget.5Crepo_projects.5CpRealEcu.5CcR_LATEST.5Cmake.5Coutput.5Cobjects.5CDcmDspUds_Seca.
000001e0 44             5895 	.byte	68
000001e1 9f             5896 	.byte	159
000001e2 00             5897 	.byte	0
000001e3 40             5898 	.byte	64
000001e4 9d             5899 	.byte	157
000001e5 04             5900 	.byte	4
000001e6 40             5901 	.byte	64
000001e7 9c             5902 	.byte	156
000001e8 08             5903 	.byte	8
000001e9 40             5904 	.byte	64
000001ea 9b             5905 	.byte	155
000001eb 0c             5906 	.byte	12
000001ec 01             5907 	.byte	1
000001ed 00000000*      5908 	.word	.LDW53
000001f1 00             5909 	.byte	0
000001f2 00             5910 	.byte	0
000001f3 00             5911 	.byte	0
                        5912 .LDW_unq_1c:
                        5913 	.section	.debug_line
0000102b 000502         5914 	.byte	0,5,2
0000102e 00000000*      5915 	.word	_Dcm_Lok_SecaCmpKeyFailed..C.3A.5C_ECU2.5CECU_Rivian_A1.5CTarget.5Crepo_projects.5CpRealEcu.5CcR_LATEST.5Cmake.5Coutput.5Cobjects.5CDcmDspUds_Seca.
00001032 03             5916 	.byte	3
00001033 b404           5917 	.byte	180,4
00001035 02             5918 	.byte	2
00001036 00             5919 	.byte	0
00001037 01             5920 	.byte	1

                                                                      Page 113
                                                              C:\Users\nhuliyap\AppData\Local\Temp\gh_000075o1.s
00001038 06             5921 	.byte	6
00001039 000502         5922 	.byte	0,5,2
0000103c 00000000*      5923 	.word	.LDWlin54
00001040 03             5924 	.byte	3
00001041 07             5925 	.byte	7
00001042 02             5926 	.byte	2
00001043 00             5927 	.byte	0
00001044 01             5928 	.byte	1
00001045 000502         5929 	.byte	0,5,2
00001048 00000000*      5930 	.word	.LDWlin55
0000104c 03             5931 	.byte	3
0000104d 7e             5932 	.byte	126
0000104e 02             5933 	.byte	2
0000104f 00             5934 	.byte	0
00001050 01             5935 	.byte	1
00001051 000502         5936 	.byte	0,5,2
00001054 00000000*      5937 	.word	.LDWlin56
00001058 0d             5938 	.byte	13
00001059 0c             5939 	.byte	12
0000105a 23             5940 	.byte	35
0000105b 02             5941 	.byte	2
0000105c 00             5942 	.byte	0
0000105d 0c             5943 	.byte	12
0000105e 000502         5944 	.byte	0,5,2
00001061 00000000*      5945 	.word	.LDWlin57
00001065 0b             5946 	.byte	11
00001066 0b             5947 	.byte	11
00001067 000502         5948 	.byte	0,5,2
0000106a 00000000*      5949 	.word	.LDWlin58
0000106e 0b             5950 	.byte	11
0000106f 0b             5951 	.byte	11
00001070 03             5952 	.byte	3
00001071 23             5953 	.byte	35
00001072 02             5954 	.byte	2
00001073 00             5955 	.byte	0
00001074 01             5956 	.byte	1
00001075 000502         5957 	.byte	0,5,2
00001078 00000000*      5958 	.word	.LDWlin59
0000107c 0b             5959 	.byte	11
0000107d 0b             5960 	.byte	11
0000107e 1b             5961 	.byte	27
0000107f 23             5962 	.byte	35
00001080 000502         5963 	.byte	0,5,2
00001083 00000000*      5964 	.word	.LDWlin60
00001087 0b             5965 	.byte	11
00001088 0b             5966 	.byte	11
00001089 0c             5967 	.byte	12
0000108a 23             5968 	.byte	35
0000108b 02             5969 	.byte	2
0000108c 00             5970 	.byte	0
0000108d 0c             5971 	.byte	12
0000108e 02             5972 	.byte	2
0000108f 00             5973 	.byte	0
00001090 0b             5974 	.byte	11
00001091 02             5975 	.byte	2
00001092 04             5976 	.byte	4
00001093 000101         5977 	.byte	0,1,1
                        5978 	.section	.debug_info
                        5979 .LDW_4cf17e8:
0000146e 0f             5980 	.byte	15
0000146f 4f7053746174   5981 	.strz	"OpStatus"

                                                                      Page 114
                                                              C:\Users\nhuliyap\AppData\Local\Temp\gh_000075o1.s
00001475 757300 
00001478 b304           5982 	.byte	179,4
0000147a 6b             5983 	.byte	107
0000147b 01             5984 	.byte	1
0000147c 00000000*      5985 	.word	.LDW_16f82f0
00001480 00             5986 	.byte	0
00001481 016b           5987 	.byte	1,107
                        5988 
                        5989 .LDW_16f54a0:
00001483 1d             5990 	.byte	29
00001484 00000000*      5991 	.word	.LDW43
00001488 00000000*      5992 	.word	.LDW53
                        5993 
0000148c 00             5994 	.byte	0
                        5995 
0000148d 00             5996 	.byte	0
                        5997 
                        5998 .LDW_4dd6c40:
0000148e 13             5999 	.byte	19
0000148f 44636d5f4c6f   6000 	.strz	"Dcm_Lok_SecaCmpKeyNotOk"
00001495 6b5f53656361 
0000149b 436d704b6579 
000014a1 4e6f744f6b00 
000014a7 f704           6001 	.byte	247,4
000014a9 1c             6002 	.byte	28
000014aa 01             6003 	.byte	1
000014ab 00000000*      6004 	.word	_Dcm_Lok_SecaCmpKeyNotOk..C.3A.5C_ECU2.5CECU_Rivian_A1.5CTarget.5Crepo_projects.5CpRealEcu.5CcR_LATEST.5Cmake.5Coutput.5Cobjects.5CDcmDspUds_Seca.
000014af 00000000*      6005 	.word	___ghs_eofn_Dcm_Lok_SecaCmpKeyNotOk
000014b3 0153           6006 	.byte	1,83
000014b5 02             6007 	.byte	2
000014b6 00             6008 	.byte	0
000014b7 02             6009 	.byte	2
000014b8 00             6010 	.byte	0
000014b9 00             6011 	.byte	0
000014ba 00             6012 	.byte	0
000014bb 00             6013 	.byte	0
000014bc 00             6014 	.byte	0
000014bd 01             6015 	.byte	1
000014be 00             6016 	.byte	0
000014bf 01             6017 	.byte	1
                        6018 
                        6019 	.section	.debug_frame
                        6020 .LDW_4fa6fb0:
000001f4 00000000*      6021 	.word	.LDW_unq_1e-.LDW_unq_1d
                        6022 .LDW_unq_1d:
000001f8 00000000*      6023 	.word	.LDW_4dfe7c0
000001fc 00000000*      6024 	.word	_Dcm_Lok_SecaCmpKeyNotOk..C.3A.5C_ECU2.5CECU_Rivian_A1.5CTarget.5Crepo_projects.5CpRealEcu.5CcR_LATEST.5Cmake.5Coutput.5Cobjects.5CDcmDspUds_Seca.
00000200 00000000*      6025 	.word	___ghs_eofn_Dcm_Lok_SecaCmpKeyNotOk-_Dcm_Lok_SecaCmpKeyNotOk..C.3A.5C_ECU2.5CECU_Rivian_A1.5CTarget.5Crepo_projects.5CpRealEcu.5CcR_LATEST.5Cmake.5Coutput.5Cobjects.5CDcmDspUds_Seca.
00000204 01             6026 	.byte	1
00000205 00000000*      6027 	.word	.LDW73
00000209 00             6028 	.byte	0
0000020a 00             6029 	.byte	0
0000020b 00             6030 	.byte	0
                        6031 .LDW_unq_1e:
                        6032 	.section	.debug_line
00001096 000502         6033 	.byte	0,5,2
00001099 00000000*      6034 	.word	_Dcm_Lok_SecaCmpKeyNotOk..C.3A.5C_ECU2.5CECU_Rivian_A1.5CTarget.5Crepo_projects.5CpRealEcu.5CcR_LATEST.5Cmake.5Coutput.5Cobjects.5CDcmDspUds_Seca.
0000109d 03             6035 	.byte	3
0000109e f704           6036 	.byte	247,4
000010a0 02             6037 	.byte	2
000010a1 00             6038 	.byte	0

                                                                      Page 115
                                                              C:\Users\nhuliyap\AppData\Local\Temp\gh_000075o1.s
000010a2 01             6039 	.byte	1
000010a3 06             6040 	.byte	6
000010a4 13             6041 	.byte	19
000010a5 000502         6042 	.byte	0,5,2
000010a8 00000000*      6043 	.word	.LDWlin61
000010ac 0b             6044 	.byte	11
000010ad 1b             6045 	.byte	27
000010ae 02             6046 	.byte	2
000010af 02             6047 	.byte	2
000010b0 000101         6048 	.byte	0,1,1
                        6049 	.section	.debug_info
                        6050 .LDW_4cf1c08:
000014c0 0f             6051 	.byte	15
000014c1 4f7053746174   6052 	.strz	"OpStatus"
000014c7 757300 
000014ca f704           6053 	.byte	247,4
000014cc 6a             6054 	.byte	106
000014cd 01             6055 	.byte	1
000014ce 00000000*      6056 	.word	.LDW_16f82f0
000014d2 00             6057 	.byte	0
000014d3 016e           6058 	.byte	1,110
                        6059 
                        6060 .LDW_16f5380:
000014d5 1d             6061 	.byte	29
000014d6 00000000*      6062 	.word	.LDW63
000014da 00000000*      6063 	.word	.LDW73
                        6064 
000014de 00             6065 	.byte	0
                        6066 
000014df 00             6067 	.byte	0
                        6068 
                        6069 .LDW_4dd6ea0:
000014e0 13             6070 	.byte	19
000014e1 44636d5f4c6f   6071 	.strz	"Dcm_Lok_SecaCmpKeyNegResp"
000014e7 6b5f53656361 
000014ed 436d704b6579 
000014f3 4e6567526573 
000014f9 7000 
000014fb fd04           6072 	.byte	253,4
000014fd 1c             6073 	.byte	28
000014fe 01             6074 	.byte	1
000014ff 00000000*      6075 	.word	_Dcm_Lok_SecaCmpKeyNegResp..C.3A.5C_ECU2.5CECU_Rivian_A1.5CTarget.5Crepo_projects.5CpRealEcu.5CcR_LATEST.5Cmake.5Coutput.5Cobjects.5CDcmDspUds_Seca.
00001503 00000000*      6076 	.word	___ghs_eofn_Dcm_Lok_SecaCmpKeyNegResp
00001507 0153           6077 	.byte	1,83
00001509 02             6078 	.byte	2
0000150a 00             6079 	.byte	0
0000150b 02             6080 	.byte	2
0000150c 00             6081 	.byte	0
0000150d 00             6082 	.byte	0
0000150e 00             6083 	.byte	0
0000150f 00             6084 	.byte	0
00001510 00             6085 	.byte	0
00001511 01             6086 	.byte	1
00001512 00             6087 	.byte	0
00001513 01             6088 	.byte	1
                        6089 
                        6090 	.section	.debug_frame
                        6091 .LDW_4fa7570:
0000020c 00000000*      6092 	.word	.LDW_unq_20-.LDW_unq_1f
                        6093 .LDW_unq_1f:
00000210 00000000*      6094 	.word	.LDW_4dfe7c0

                                                                      Page 116
                                                              C:\Users\nhuliyap\AppData\Local\Temp\gh_000075o1.s
00000214 00000000*      6095 	.word	_Dcm_Lok_SecaCmpKeyNegResp..C.3A.5C_ECU2.5CECU_Rivian_A1.5CTarget.5Crepo_projects.5CpRealEcu.5CcR_LATEST.5Cmake.5Coutput.5Cobjects.5CDcmDspUds_Seca.
00000218 00000000*      6096 	.word	___ghs_eofn_Dcm_Lok_SecaCmpKeyNegResp-_Dcm_Lok_SecaCmpKeyNegResp..C.3A.5C_ECU2.5CECU_Rivian_A1.5CTarget.5Crepo_projects.5CpRealEcu.5CcR_LATEST.5Cmake.5Coutput.5Cobjects.5CDcmDspUds_Seca.
0000021c 01             6097 	.byte	1
0000021d 00000000*      6098 	.word	.LDW93
00000221 00             6099 	.byte	0
00000222 00             6100 	.byte	0
00000223 00             6101 	.byte	0
                        6102 .LDW_unq_20:
                        6103 	.section	.debug_line
000010b3 000502         6104 	.byte	0,5,2
000010b6 00000000*      6105 	.word	_Dcm_Lok_SecaCmpKeyNegResp..C.3A.5C_ECU2.5CECU_Rivian_A1.5CTarget.5Crepo_projects.5CpRealEcu.5CcR_LATEST.5Cmake.5Coutput.5Cobjects.5CDcmDspUds_Seca.
000010ba 03             6106 	.byte	3
000010bb fe04           6107 	.byte	254,4
000010bd 02             6108 	.byte	2
000010be 00             6109 	.byte	0
000010bf 01             6110 	.byte	1
000010c0 06             6111 	.byte	6
000010c1 13             6112 	.byte	19
000010c2 000502         6113 	.byte	0,5,2
000010c5 00000000*      6114 	.word	.LDWlin62
000010c9 0b             6115 	.byte	11
000010ca 0c             6116 	.byte	12
000010cb 23             6117 	.byte	35
000010cc 02             6118 	.byte	2
000010cd 00             6119 	.byte	0
000010ce 0b             6120 	.byte	11
000010cf 000502         6121 	.byte	0,5,2
000010d2 00000000*      6122 	.word	.LDWlin63
000010d6 0b             6123 	.byte	11
000010d7 02             6124 	.byte	2
000010d8 02             6125 	.byte	2
000010d9 000101         6126 	.byte	0,1,1
                        6127 	.section	.debug_info
                        6128 .LDW_4d4ae48:
00001514 0f             6129 	.byte	15
00001515 646174614e65   6130 	.strz	"dataNegRespCode_u8"
0000151b 675265737043 
00001521 6f64655f7538 
00001527 00 
00001528 fe04           6131 	.byte	254,4
0000152a 5b             6132 	.byte	91
0000152b 01             6133 	.byte	1
0000152c 00000000*      6134 	.word	.LDW_16f8478
00001530 00             6135 	.byte	0
00001531 016e           6136 	.byte	1,110
                        6137 
                        6138 .LDW_16f5680:
00001533 1d             6139 	.byte	29
00001534 00000000*      6140 	.word	.LDW83
00001538 00000000*      6141 	.word	.LDW93
                        6142 
0000153c 00             6143 	.byte	0
                        6144 
0000153d 00             6145 	.byte	0
                        6146 
                        6147 .LDW_4dd6cd8:
0000153e 13             6148 	.byte	19
0000153f 44636d5f4c6f   6149 	.strz	"Dcm_Lok_SecaCmpKeyStatusChk"
00001545 6b5f53656361 
0000154b 436d704b6579 
00001551 537461747573 

                                                                      Page 117
                                                              C:\Users\nhuliyap\AppData\Local\Temp\gh_000075o1.s
00001557 43686b00 
0000155b 8805           6150 	.byte	136,5
0000155d 1c             6151 	.byte	28
0000155e 01             6152 	.byte	1
0000155f 00000000*      6153 	.word	_Dcm_Lok_SecaCmpKeyStatusChk..C.3A.5C_ECU2.5CECU_Rivian_A1.5CTarget.5Crepo_projects.5CpRealEcu.5CcR_LATEST.5Cmake.5Coutput.5Cobjects.5CDcmDspUds_Seca.
00001563 00000000*      6154 	.word	___ghs_eofn_Dcm_Lok_SecaCmpKeyStatusChk
00001567 0153           6155 	.byte	1,83
00001569 02             6156 	.byte	2
0000156a 00             6157 	.byte	0
0000156b 02             6158 	.byte	2
0000156c 00             6159 	.byte	0
0000156d 00             6160 	.byte	0
0000156e 00             6161 	.byte	0
0000156f 00             6162 	.byte	0
00001570 00             6163 	.byte	0
00001571 01             6164 	.byte	1
00001572 00             6165 	.byte	0
00001573 01             6166 	.byte	1
                        6167 
                        6168 	.section	.debug_frame
                        6169 .LDW_4fa71b0:
00000224 00000000*      6170 	.word	.LDW_unq_22-.LDW_unq_21
                        6171 .LDW_unq_21:
00000228 00000000*      6172 	.word	.LDW_4dfe7c0
0000022c 00000000*      6173 	.word	_Dcm_Lok_SecaCmpKeyStatusChk..C.3A.5C_ECU2.5CECU_Rivian_A1.5CTarget.5Crepo_projects.5CpRealEcu.5CcR_LATEST.5Cmake.5Coutput.5Cobjects.5CDcmDspUds_Seca.
00000230 00000000*      6174 	.word	___ghs_eofn_Dcm_Lok_SecaCmpKeyStatusChk-_Dcm_Lok_SecaCmpKeyStatusChk..C.3A.5C_ECU2.5CECU_Rivian_A1.5CTarget.5Crepo_projects.5CpRealEcu.5CcR_LATEST.5Cmake.5Coutput.5Cobjects.5CDcmDspUds_Seca.
00000234 01             6175 	.byte	1
00000235 00000000*      6176 	.word	.LDW14
00000239 00             6177 	.byte	0
0000023a 00             6178 	.byte	0
0000023b 00             6179 	.byte	0
                        6180 .LDW_unq_22:
                        6181 	.section	.debug_line
000010dc 000502         6182 	.byte	0,5,2
000010df 00000000*      6183 	.word	_Dcm_Lok_SecaCmpKeyStatusChk..C.3A.5C_ECU2.5CECU_Rivian_A1.5CTarget.5Crepo_projects.5CpRealEcu.5CcR_LATEST.5Cmake.5Coutput.5Cobjects.5CDcmDspUds_Seca.
000010e3 06             6184 	.byte	6
000010e4 03             6185 	.byte	3
000010e5 8c05           6186 	.byte	140,5
000010e7 02             6187 	.byte	2
000010e8 00             6188 	.byte	0
000010e9 01             6189 	.byte	1
000010ea 000502         6190 	.byte	0,5,2
000010ed 00000000*      6191 	.word	.LDWlin64
000010f1 0b             6192 	.byte	11
000010f2 0c             6193 	.byte	12
000010f3 0b             6194 	.byte	11
000010f4 02             6195 	.byte	2
000010f5 00             6196 	.byte	0
000010f6 000502         6197 	.byte	0,5,2
000010f9 00000000*      6198 	.word	.LDWlin65
000010fd 0b             6199 	.byte	11
000010fe 0b             6200 	.byte	11
000010ff 000502         6201 	.byte	0,5,2
00001102 00000000*      6202 	.word	.LDWlin66
00001106 0b             6203 	.byte	11
00001107 0b             6204 	.byte	11
00001108 02             6205 	.byte	2
00001109 00             6206 	.byte	0
0000110a 000502         6207 	.byte	0,5,2
0000110d 00000000*      6208 	.word	.LDWlin67
00001111 0b             6209 	.byte	11

                                                                      Page 118
                                                              C:\Users\nhuliyap\AppData\Local\Temp\gh_000075o1.s
00001112 0c             6210 	.byte	12
00001113 0b             6211 	.byte	11
00001114 02             6212 	.byte	2
00001115 00             6213 	.byte	0
00001116 000502         6214 	.byte	0,5,2
00001119 00000000*      6215 	.word	.LDWlin68
0000111d 0b             6216 	.byte	11
0000111e 03             6217 	.byte	3
0000111f 06             6218 	.byte	6
00001120 02             6219 	.byte	2
00001121 00             6220 	.byte	0
00001122 01             6221 	.byte	1
00001123 0b             6222 	.byte	11
00001124 0b             6223 	.byte	11
00001125 23             6224 	.byte	35
00001126 02             6225 	.byte	2
00001127 00             6226 	.byte	0
00001128 02             6227 	.byte	2
00001129 00             6228 	.byte	0
0000112a 02             6229 	.byte	2
0000112b 00             6230 	.byte	0
0000112c 02             6231 	.byte	2
0000112d 00             6232 	.byte	0
0000112e 02             6233 	.byte	2
0000112f 00             6234 	.byte	0
00001130 02             6235 	.byte	2
00001131 00             6236 	.byte	0
00001132 000502         6237 	.byte	0,5,2
00001135 00000000*      6238 	.word	___ghs_eofn_Dcm_Lok_SecaCmpKeyStatusChk
00001139 02             6239 	.byte	2
0000113a 00             6240 	.byte	0
0000113b 000101         6241 	.byte	0,1,1
                        6242 	.section	.debug_info
                        6243 .LDW_4d4afa8:
00001574 0f             6244 	.byte	15
00001575 4f7053746174   6245 	.strz	"OpStatus"
0000157b 757300 
0000157e 8805           6246 	.byte	136,5
00001580 6e             6247 	.byte	110
00001581 01             6248 	.byte	1
00001582 00000000*      6249 	.word	.LDW_16f82f0
00001586 00             6250 	.byte	0
00001587 0156           6251 	.byte	1,86
                        6252 
                        6253 .LDW_4d4ad98:
00001589 0f             6254 	.byte	15
0000158a 704d7367436f   6255 	.strz	"pMsgContext"
00001590 6e7465787400 
00001596 8905           6256 	.byte	137,5
00001598 6a             6257 	.byte	106
00001599 01             6258 	.byte	1
0000159a 00000000*      6259 	.word	.LDW_16f8440
0000159e 00             6260 	.byte	0
0000159f 0157           6261 	.byte	1,87
                        6262 
                        6263 .LDW_4d4af50:
000015a1 0f             6264 	.byte	15
000015a2 646174614e65   6265 	.strz	"dataNegRespCode_u8"
000015a8 675265737043 
000015ae 6f64655f7538 
000015b4 00 

                                                                      Page 119
                                                              C:\Users\nhuliyap\AppData\Local\Temp\gh_000075o1.s
000015b5 8a05           6266 	.byte	138,5
000015b7 66             6267 	.byte	102
000015b8 01             6268 	.byte	1
000015b9 00000000*      6269 	.word	.LDW_16f8478
000015bd 00             6270 	.byte	0
000015be 0158           6271 	.byte	1,88
                        6272 
                        6273 .LDW_16f5320:
000015c0 1d             6274 	.byte	29
000015c1 00000000*      6275 	.word	.LDW04
000015c5 00000000*      6276 	.word	.LDW14
                        6277 
000015c9 00             6278 	.byte	0
                        6279 
000015ca 00             6280 	.byte	0
                        6281 
                        6282 .LDW_4dd73f8:
000015cb 13             6283 	.byte	19
000015cc 44636d5f4c6f   6284 	.strz	"Dcm_Lok_SecaCmpKey"
000015d2 6b5f53656361 
000015d8 436d704b6579 
000015de 00 
000015df a605           6285 	.byte	166,5
000015e1 1c             6286 	.byte	28
000015e2 01             6287 	.byte	1
000015e3 00000000*      6288 	.word	_Dcm_Lok_SecaCmpKey..C.3A.5C_ECU2.5CECU_Rivian_A1.5CTarget.5Crepo_projects.5CpRealEcu.5CcR_LATEST.5Cmake.5Coutput.5Cobjects.5CDcmDspUds_Seca.
000015e7 00000000*      6289 	.word	___ghs_eofn_Dcm_Lok_SecaCmpKey
000015eb 0153           6290 	.byte	1,83
000015ed 828080e00b     6291 	.byte	130,128,128,224,11
000015f2 14             6292 	.byte	20
000015f3 03             6293 	.byte	3
000015f4 14             6294 	.byte	20
000015f5 00             6295 	.byte	0
000015f6 00             6296 	.byte	0
000015f7 00             6297 	.byte	0
000015f8 00             6298 	.byte	0
000015f9 01             6299 	.byte	1
000015fa 00             6300 	.byte	0
000015fb 01             6301 	.byte	1
                        6302 
                        6303 	.section	.debug_frame
                        6304 .LDW_4fa75b0:
0000023c 00000000*      6305 	.word	.LDW_unq_24-.LDW_unq_23
                        6306 .LDW_unq_23:
00000240 00000000*      6307 	.word	.LDW_4dfe7c0
00000244 00000000*      6308 	.word	_Dcm_Lok_SecaCmpKey..C.3A.5C_ECU2.5CECU_Rivian_A1.5CTarget.5Crepo_projects.5CpRealEcu.5CcR_LATEST.5Cmake.5Coutput.5Cobjects.5CDcmDspUds_Seca.
00000248 00000000*      6309 	.word	___ghs_eofn_Dcm_Lok_SecaCmpKey-_Dcm_Lok_SecaCmpKey..C.3A.5C_ECU2.5CECU_Rivian_A1.5CTarget.5Crepo_projects.5CpRealEcu.5CcR_LATEST.5Cmake.5Coutput.5Cobjects.5CDcmDspUds_Seca.
0000024c 44             6310 	.byte	68
0000024d 9f             6311 	.byte	159
0000024e 00             6312 	.byte	0
0000024f 40             6313 	.byte	64
00000250 9d             6314 	.byte	157
00000251 04             6315 	.byte	4
00000252 40             6316 	.byte	64
00000253 9c             6317 	.byte	156
00000254 08             6318 	.byte	8
00000255 40             6319 	.byte	64
00000256 9b             6320 	.byte	155
00000257 0c             6321 	.byte	12
00000258 40             6322 	.byte	64
00000259 9a             6323 	.byte	154

                                                                      Page 120
                                                              C:\Users\nhuliyap\AppData\Local\Temp\gh_000075o1.s
0000025a 10             6324 	.byte	16
0000025b 01             6325 	.byte	1
0000025c 00000000*      6326 	.word	.LDW34
                        6327 .LDW_unq_24:
                        6328 	.section	.debug_line
0000113e 000502         6329 	.byte	0,5,2
00001141 00000000*      6330 	.word	_Dcm_Lok_SecaCmpKey..C.3A.5C_ECU2.5CECU_Rivian_A1.5CTarget.5Crepo_projects.5CpRealEcu.5CcR_LATEST.5Cmake.5Coutput.5Cobjects.5CDcmDspUds_Seca.
00001145 03             6331 	.byte	3
00001146 a805           6332 	.byte	168,5
00001148 02             6333 	.byte	2
00001149 00             6334 	.byte	0
0000114a 01             6335 	.byte	1
0000114b 06             6336 	.byte	6
0000114c 000502         6337 	.byte	0,5,2
0000114f 00000000*      6338 	.word	.LDWlin70
00001153 0c             6339 	.byte	12
00001154 000502         6340 	.byte	0,5,2
00001157 00000000*      6341 	.word	.LDWlin71
0000115b 0c             6342 	.byte	12
0000115c 000502         6343 	.byte	0,5,2
0000115f 00000000*      6344 	.word	.LDWlin72
00001163 0c             6345 	.byte	12
00001164 000502         6346 	.byte	0,5,2
00001167 00000000*      6347 	.word	.LDWlin73
0000116b 03             6348 	.byte	3
0000116c 06             6349 	.byte	6
0000116d 02             6350 	.byte	2
0000116e 00             6351 	.byte	0
0000116f 01             6352 	.byte	1
00001170 03             6353 	.byte	3
00001171 7c             6354 	.byte	124
00001172 02             6355 	.byte	2
00001173 06             6356 	.byte	6
00001174 01             6357 	.byte	1
00001175 2c             6358 	.byte	44
00001176 000502         6359 	.byte	0,5,2
00001179 00000000*      6360 	.word	.LDWlin74
0000117d 03             6361 	.byte	3
0000117e 04             6362 	.byte	4
0000117f 02             6363 	.byte	2
00001180 00             6364 	.byte	0
00001181 01             6365 	.byte	1
00001182 000502         6366 	.byte	0,5,2
00001185 00000000*      6367 	.word	.LDWlin75
00001189 0c             6368 	.byte	12
0000118a 0c             6369 	.byte	12
0000118b 2b             6370 	.byte	43
0000118c 000502         6371 	.byte	0,5,2
0000118f 00000000*      6372 	.word	.LDWlin76
00001193 0b             6373 	.byte	11
00001194 0b             6374 	.byte	11
00001195 0c             6375 	.byte	12
00001196 000502         6376 	.byte	0,5,2
00001199 00000000*      6377 	.word	.LDWlin77
0000119d 0b             6378 	.byte	11
0000119e 02             6379 	.byte	2
0000119f 00             6380 	.byte	0
000011a0 0b             6381 	.byte	11
000011a1 02             6382 	.byte	2
000011a2 04             6383 	.byte	4
000011a3 000101         6384 	.byte	0,1,1

                                                                      Page 121
                                                              C:\Users\nhuliyap\AppData\Local\Temp\gh_000075o1.s
                        6385 	.section	.debug_info
                        6386 .LDW_4d4adf0:
000015fc 0f             6387 	.byte	15
000015fd 4f7053746174   6388 	.strz	"OpStatus"
00001603 757300 
00001606 a605           6389 	.byte	166,5
00001608 65             6390 	.byte	101
00001609 01             6391 	.byte	1
0000160a 00000000*      6392 	.word	.LDW_16f82f0
0000160e 00             6393 	.byte	0
0000160f 016a           6394 	.byte	1,106
                        6395 
                        6396 .LDW_4d4aea0:
00001611 0f             6397 	.byte	15
00001612 704d7367436f   6398 	.strz	"pMsgContext"
00001618 6e7465787400 
0000161e a705           6399 	.byte	167,5
00001620 61             6400 	.byte	97
00001621 01             6401 	.byte	1
00001622 00000000*      6402 	.word	.LDW_16f8440
00001626 00             6403 	.byte	0
00001627 016b           6404 	.byte	1,107
                        6405 
                        6406 .LDW_4d4aef8:
00001629 0f             6407 	.byte	15
0000162a 646174614e65   6408 	.strz	"dataNegRespCode_u8"
00001630 675265737043 
00001636 6f64655f7538 
0000163c 00 
0000163d a805           6409 	.byte	168,5
0000163f 5d             6410 	.byte	93
00001640 01             6411 	.byte	1
00001641 00000000*      6412 	.word	.LDW_16f8478
00001645 00             6413 	.byte	0
00001646 016c           6414 	.byte	1,108
                        6415 
                        6416 .LDW_16f5260:
00001648 1d             6417 	.byte	29
00001649 00000000*      6418 	.word	.LDW24
0000164d 00000000*      6419 	.word	.LDW34
                        6420 
00001651 00             6421 	.byte	0
                        6422 
00001652 00             6423 	.byte	0
                        6424 
                        6425 .LDW_4dd7100:
00001653 13             6426 	.byte	19
00001654 44636d5f4c6f   6427 	.strz	"Dcm_Lok_GenerateSeedAsynchFnc"
0000165a 6b5f47656e65 
00001660 726174655365 
00001666 65644173796e 
0000166c 6368466e6300 
00001672 a106           6428 	.byte	161,6
00001674 1c             6429 	.byte	28
00001675 01             6430 	.byte	1
00001676 00000000*      6431 	.word	_Dcm_Lok_GenerateSeedAsynchFnc..C.3A.5C_ECU2.5CECU_Rivian_A1.5CTarget.5Crepo_projects.5CpRealEcu.5CcR_LATEST.5Cmake.5Coutput.5Cobjects.5CDcmDspUds_Seca.
0000167a 00000000*      6432 	.word	___ghs_eofn_Dcm_Lok_GenerateSeedAsynchFnc
0000167e 0153           6433 	.byte	1,83
00001680 828080800b     6434 	.byte	130,128,128,128,11
00001685 0c             6435 	.byte	12
00001686 03             6436 	.byte	3

                                                                      Page 122
                                                              C:\Users\nhuliyap\AppData\Local\Temp\gh_000075o1.s
00001687 18             6437 	.byte	24
00001688 00             6438 	.byte	0
00001689 00             6439 	.byte	0
0000168a 00             6440 	.byte	0
0000168b 00             6441 	.byte	0
0000168c 01             6442 	.byte	1
0000168d 00             6443 	.byte	0
0000168e 01             6444 	.byte	1
                        6445 
                        6446 	.section	.debug_frame
                        6447 .LDW_4fa6e30:
00000260 00000000*      6448 	.word	.LDW_unq_26-.LDW_unq_25
                        6449 .LDW_unq_25:
00000264 00000000*      6450 	.word	.LDW_4dfe7c0
00000268 00000000*      6451 	.word	_Dcm_Lok_GenerateSeedAsynchFnc..C.3A.5C_ECU2.5CECU_Rivian_A1.5CTarget.5Crepo_projects.5CpRealEcu.5CcR_LATEST.5Cmake.5Coutput.5Cobjects.5CDcmDspUds_Seca.
0000026c 00000000*      6452 	.word	___ghs_eofn_Dcm_Lok_GenerateSeedAsynchFnc-_Dcm_Lok_GenerateSeedAsynchFnc..C.3A.5C_ECU2.5CECU_Rivian_A1.5CTarget.5Crepo_projects.5CpRealEcu.5CcR_LATEST.5Cmake.5Coutput.5Cobjects.5CDcmDspUds_Seca.
00000270 44             6453 	.byte	68
00000271 9f             6454 	.byte	159
00000272 09             6455 	.byte	9
00000273 40             6456 	.byte	64
00000274 9d             6457 	.byte	157
00000275 0d             6458 	.byte	13
00000276 40             6459 	.byte	64
00000277 9c             6460 	.byte	156
00000278 11             6461 	.byte	17
00000279 01             6462 	.byte	1
0000027a 00000000*      6463 	.word	.LDW54
0000027e 00             6464 	.byte	0
0000027f 00             6465 	.byte	0
                        6466 .LDW_unq_26:
                        6467 	.section	.debug_line
000011a6 000502         6468 	.byte	0,5,2
000011a9 00000000*      6469 	.word	_Dcm_Lok_GenerateSeedAsynchFnc..C.3A.5C_ECU2.5CECU_Rivian_A1.5CTarget.5Crepo_projects.5CpRealEcu.5CcR_LATEST.5Cmake.5Coutput.5Cobjects.5CDcmDspUds_Seca.
000011ad 03             6470 	.byte	3
000011ae a306           6471 	.byte	163,6
000011b0 02             6472 	.byte	2
000011b1 00             6473 	.byte	0
000011b2 01             6474 	.byte	1
000011b3 06             6475 	.byte	6
000011b4 000502         6476 	.byte	0,5,2
000011b7 00000000*      6477 	.word	.LDWlin78
000011bb 0b             6478 	.byte	11
000011bc 000502         6479 	.byte	0,5,2
000011bf 00000000*      6480 	.word	.LDWlin79
000011c3 0b             6481 	.byte	11
000011c4 0b             6482 	.byte	11
000011c5 000502         6483 	.byte	0,5,2
000011c8 00000000*      6484 	.word	.LDWlin80
000011cc 0b             6485 	.byte	11
000011cd 0d             6486 	.byte	13
000011ce 000502         6487 	.byte	0,5,2
000011d1 00000000*      6488 	.word	.LDWlin81
000011d5 03             6489 	.byte	3
000011d6 09             6490 	.byte	9
000011d7 02             6491 	.byte	2
000011d8 00             6492 	.byte	0
000011d9 01             6493 	.byte	1
000011da 0b             6494 	.byte	11
000011db 0c             6495 	.byte	12
000011dc 000502         6496 	.byte	0,5,2
000011df 00000000*      6497 	.word	.LDWlin82

                                                                      Page 123
                                                              C:\Users\nhuliyap\AppData\Local\Temp\gh_000075o1.s
000011e3 03             6498 	.byte	3
000011e4 08             6499 	.byte	8
000011e5 02             6500 	.byte	2
000011e6 00             6501 	.byte	0
000011e7 01             6502 	.byte	1
000011e8 02             6503 	.byte	2
000011e9 00             6504 	.byte	0
000011ea 0b             6505 	.byte	11
000011eb 02             6506 	.byte	2
000011ec 00             6507 	.byte	0
000011ed 0b             6508 	.byte	11
000011ee 02             6509 	.byte	2
000011ef 04             6510 	.byte	4
000011f0 000101         6511 	.byte	0,1,1
                        6512 	.section	.debug_info
                        6513 .LDW_4d4ab88:
0000168f 0f             6514 	.byte	15
00001690 704d7367436f   6515 	.strz	"pMsgContext"
00001696 6e7465787400 
0000169c a206           6516 	.byte	162,6
0000169e 53             6517 	.byte	83
0000169f 01             6518 	.byte	1
000016a0 00000000*      6519 	.word	.LDW_16f8440
000016a4 00             6520 	.byte	0
000016a5 0162           6521 	.byte	1,98
                        6522 
                        6523 .LDW_4d4ace8:
000016a7 0f             6524 	.byte	15
000016a8 646174614e65   6525 	.strz	"dataNegRespCode_u8"
000016ae 675265737043 
000016b4 6f64655f7538 
000016ba 00 
000016bb a306           6526 	.byte	163,6
000016bd 5f             6527 	.byte	95
000016be 01             6528 	.byte	1
000016bf 00000000*      6529 	.word	.LDW_16f8478
000016c3 00             6530 	.byte	0
000016c4 0163           6531 	.byte	1,99
                        6532 
                        6533 .LDW_16f5350:
000016c6 1d             6534 	.byte	29
000016c7 00000000*      6535 	.word	.LDW44
000016cb 00000000*      6536 	.word	.LDW54
                        6537 
000016cf 00             6538 	.byte	0
                        6539 
000016d0 00             6540 	.byte	0
                        6541 
                        6542 .LDW_4dd68b0:
000016d1 13             6543 	.byte	19
000016d2 44636d5f4c6f   6544 	.strz	"Dcm_Lok_GetSeedReturnedWoError"
000016d8 6b5f47657453 
000016de 656564526574 
000016e4 75726e656457 
000016ea 6f4572726f72 
000016f0 00 
000016f1 c406           6545 	.byte	196,6
000016f3 1b             6546 	.byte	27
000016f4 01             6547 	.byte	1
000016f5 00000000*      6548 	.word	_Dcm_Lok_GetSeedReturnedWoError..C.3A.5C_ECU2.5CECU_Rivian_A1.5CTarget.5Crepo_projects.5CpRealEcu.5CcR_LATEST.5Cmake.5Coutput.5Cobjects.5CDcmDspUds_Seca.
000016f9 00000000*      6549 	.word	___ghs_eofn_Dcm_Lok_GetSeedReturnedWoError

                                                                      Page 124
                                                              C:\Users\nhuliyap\AppData\Local\Temp\gh_000075o1.s
000016fd 0153           6550 	.byte	1,83
000016ff 02             6551 	.byte	2
00001700 00             6552 	.byte	0
00001701 02             6553 	.byte	2
00001702 00             6554 	.byte	0
00001703 00             6555 	.byte	0
00001704 00             6556 	.byte	0
00001705 00             6557 	.byte	0
00001706 00             6558 	.byte	0
00001707 01             6559 	.byte	1
00001708 00             6560 	.byte	0
00001709 01             6561 	.byte	1
                        6562 
                        6563 	.section	.debug_frame
                        6564 .LDW_4fa7330:
00000280 00000000*      6565 	.word	.LDW_unq_28-.LDW_unq_27
                        6566 .LDW_unq_27:
00000284 00000000*      6567 	.word	.LDW_4dfe7c0
00000288 00000000*      6568 	.word	_Dcm_Lok_GetSeedReturnedWoError..C.3A.5C_ECU2.5CECU_Rivian_A1.5CTarget.5Crepo_projects.5CpRealEcu.5CcR_LATEST.5Cmake.5Coutput.5Cobjects.5CDcmDspUds_Seca.
0000028c 00000000*      6569 	.word	___ghs_eofn_Dcm_Lok_GetSeedReturnedWoError-_Dcm_Lok_GetSeedReturnedWoError..C.3A.5C_ECU2.5CECU_Rivian_A1.5CTarget.5Crepo_projects.5CpRealEcu.5CcR_LATEST.5Cmake.5Coutput.5Cobjects.5CDcmDspUds_Seca.
00000290 01             6570 	.byte	1
00000291 00000000*      6571 	.word	.LDW74
00000295 00             6572 	.byte	0
00000296 00             6573 	.byte	0
00000297 00             6574 	.byte	0
                        6575 .LDW_unq_28:
                        6576 	.section	.debug_line
000011f3 000502         6577 	.byte	0,5,2
000011f6 00000000*      6578 	.word	_Dcm_Lok_GetSeedReturnedWoError..C.3A.5C_ECU2.5CECU_Rivian_A1.5CTarget.5Crepo_projects.5CpRealEcu.5CcR_LATEST.5Cmake.5Coutput.5Cobjects.5CDcmDspUds_Seca.
000011fa 03             6579 	.byte	3
000011fb c606           6580 	.byte	198,6
000011fd 02             6581 	.byte	2
000011fe 00             6582 	.byte	0
000011ff 01             6583 	.byte	1
00001200 06             6584 	.byte	6
00001201 000502         6585 	.byte	0,5,2
00001204 00000000*      6586 	.word	.LDWlin83
00001208 03             6587 	.byte	3
00001209 06             6588 	.byte	6
0000120a 02             6589 	.byte	2
0000120b 00             6590 	.byte	0
0000120c 01             6591 	.byte	1
0000120d 1d             6592 	.byte	29
0000120e 000502         6593 	.byte	0,5,2
00001211 00000000*      6594 	.word	.LDWlin84
00001215 03             6595 	.byte	3
00001216 7e             6596 	.byte	126
00001217 02             6597 	.byte	2
00001218 00             6598 	.byte	0
00001219 01             6599 	.byte	1
0000121a 000502         6600 	.byte	0,5,2
0000121d 00000000*      6601 	.word	.LDWlin85
00001221 0d             6602 	.byte	13
00001222 03             6603 	.byte	3
00001223 0b             6604 	.byte	11
00001224 02             6605 	.byte	2
00001225 08             6606 	.byte	8
00001226 01             6607 	.byte	1
00001227 1b             6608 	.byte	27
00001228 1b             6609 	.byte	27
00001229 02             6610 	.byte	2

                                                                      Page 125
                                                              C:\Users\nhuliyap\AppData\Local\Temp\gh_000075o1.s
0000122a 02             6611 	.byte	2
0000122b 000101         6612 	.byte	0,1,1
                        6613 	.section	.debug_info
                        6614 .LDW_4d4ab30:
0000170a 0f             6615 	.byte	15
0000170b 4f7053746174   6616 	.strz	"OpStatus"
00001711 757300 
00001714 c406           6617 	.byte	196,6
00001716 6f             6618 	.byte	111
00001717 01             6619 	.byte	1
00001718 00000000*      6620 	.word	.LDW_16f82f0
0000171c 00             6621 	.byte	0
0000171d 0156           6622 	.byte	1,86
                        6623 
                        6624 .LDW_4d4abe0:
0000171f 0f             6625 	.byte	15
00001720 704d7367436f   6626 	.strz	"pMsgContext"
00001726 6e7465787400 
0000172c c506           6627 	.byte	197,6
0000172e 5d             6628 	.byte	93
0000172f 01             6629 	.byte	1
00001730 00000000*      6630 	.word	.LDW_16f8440
00001734 00             6631 	.byte	0
00001735 016e           6632 	.byte	1,110
                        6633 
                        6634 .LDW_4d4ac38:
00001737 0f             6635 	.byte	15
00001738 646174614e65   6636 	.strz	"dataNegRespCode_u8"
0000173e 675265737043 
00001744 6f64655f7538 
0000174a 00 
0000174b c606           6637 	.byte	198,6
0000174d 66             6638 	.byte	102
0000174e 01             6639 	.byte	1
0000174f 00000000*      6640 	.word	.LDW_16f8478
00001753 00             6641 	.byte	0
00001754 0158           6642 	.byte	1,88
                        6643 
                        6644 .LDW_16f5b90:
00001756 1d             6645 	.byte	29
00001757 00000000*      6646 	.word	.LDW64
0000175b 00000000*      6647 	.word	.LDW74
                        6648 
0000175f 00             6649 	.byte	0
                        6650 
00001760 00             6651 	.byte	0
                        6652 
                        6653 .LDW_4dd6a78:
00001761 13             6654 	.byte	19
00001762 44636d5f4c6f   6655 	.strz	"Dcm_Lok_SecaGenSeed"
00001768 6b5f53656361 
0000176e 47656e536565 
00001774 6400 
00001776 e006           6656 	.byte	224,6
00001778 1c             6657 	.byte	28
00001779 01             6658 	.byte	1
0000177a 00000000*      6659 	.word	_Dcm_Lok_SecaGenSeed..C.3A.5C_ECU2.5CECU_Rivian_A1.5CTarget.5Crepo_projects.5CpRealEcu.5CcR_LATEST.5Cmake.5Coutput.5Cobjects.5CDcmDspUds_Seca.
0000177e 00000000*      6660 	.word	___ghs_eofn_Dcm_Lok_SecaGenSeed
00001782 0153           6661 	.byte	1,83
00001784 828080c00b     6662 	.byte	130,128,128,192,11
00001789 10             6663 	.byte	16

                                                                      Page 126
                                                              C:\Users\nhuliyap\AppData\Local\Temp\gh_000075o1.s
0000178a 03             6664 	.byte	3
0000178b 10             6665 	.byte	16
0000178c 00             6666 	.byte	0
0000178d 00             6667 	.byte	0
0000178e 00             6668 	.byte	0
0000178f 00             6669 	.byte	0
00001790 01             6670 	.byte	1
00001791 00             6671 	.byte	0
00001792 01             6672 	.byte	1
                        6673 
                        6674 	.section	.debug_frame
                        6675 .LDW_4fa6f30:
00000298 00000000*      6676 	.word	.LDW_unq_2a-.LDW_unq_29
                        6677 .LDW_unq_29:
0000029c 00000000*      6678 	.word	.LDW_4dfe7c0
000002a0 00000000*      6679 	.word	_Dcm_Lok_SecaGenSeed..C.3A.5C_ECU2.5CECU_Rivian_A1.5CTarget.5Crepo_projects.5CpRealEcu.5CcR_LATEST.5Cmake.5Coutput.5Cobjects.5CDcmDspUds_Seca.
000002a4 00000000*      6680 	.word	___ghs_eofn_Dcm_Lok_SecaGenSeed-_Dcm_Lok_SecaGenSeed..C.3A.5C_ECU2.5CECU_Rivian_A1.5CTarget.5Crepo_projects.5CpRealEcu.5CcR_LATEST.5Cmake.5Coutput.5Cobjects.5CDcmDspUds_Seca.
000002a8 44             6681 	.byte	68
000002a9 9f             6682 	.byte	159
000002aa 00             6683 	.byte	0
000002ab 40             6684 	.byte	64
000002ac 9d             6685 	.byte	157
000002ad 04             6686 	.byte	4
000002ae 40             6687 	.byte	64
000002af 9c             6688 	.byte	156
000002b0 08             6689 	.byte	8
000002b1 40             6690 	.byte	64
000002b2 9b             6691 	.byte	155
000002b3 0c             6692 	.byte	12
000002b4 01             6693 	.byte	1
000002b5 00000000*      6694 	.word	.LDW94
000002b9 00             6695 	.byte	0
000002ba 00             6696 	.byte	0
000002bb 00             6697 	.byte	0
                        6698 .LDW_unq_2a:
                        6699 	.section	.debug_line
0000122e 000502         6700 	.byte	0,5,2
00001231 00000000*      6701 	.word	_Dcm_Lok_SecaGenSeed..C.3A.5C_ECU2.5CECU_Rivian_A1.5CTarget.5Crepo_projects.5CpRealEcu.5CcR_LATEST.5Cmake.5Coutput.5Cobjects.5CDcmDspUds_Seca.
00001235 03             6702 	.byte	3
00001236 e106           6703 	.byte	225,6
00001238 02             6704 	.byte	2
00001239 00             6705 	.byte	0
0000123a 01             6706 	.byte	1
0000123b 06             6707 	.byte	6
0000123c 000502         6708 	.byte	0,5,2
0000123f 00000000*      6709 	.word	.LDWlin86
00001243 0b             6710 	.byte	11
00001244 000502         6711 	.byte	0,5,2
00001247 00000000*      6712 	.word	.LDWlin87
0000124b 0d             6713 	.byte	13
0000124c 03             6714 	.byte	3
0000124d 7e             6715 	.byte	126
0000124e 02             6716 	.byte	2
0000124f 0c             6717 	.byte	12
00001250 01             6718 	.byte	1
00001251 03             6719 	.byte	3
00001252 04             6720 	.byte	4
00001253 02             6721 	.byte	2
00001254 02             6722 	.byte	2
00001255 01             6723 	.byte	1
00001256 03             6724 	.byte	3

                                                                      Page 127
                                                              C:\Users\nhuliyap\AppData\Local\Temp\gh_000075o1.s
00001257 06             6725 	.byte	6
00001258 02             6726 	.byte	2
00001259 0e             6727 	.byte	14
0000125a 01             6728 	.byte	1
0000125b 000502         6729 	.byte	0,5,2
0000125e 00000000*      6730 	.word	.LDWlin88
00001262 03             6731 	.byte	3
00001263 0d             6732 	.byte	13
00001264 02             6733 	.byte	2
00001265 00             6734 	.byte	0
00001266 01             6735 	.byte	1
00001267 000502         6736 	.byte	0,5,2
0000126a 00000000*      6737 	.word	.LDWlin89
0000126e 0b             6738 	.byte	11
0000126f 0b             6739 	.byte	11
00001270 000502         6740 	.byte	0,5,2
00001273 00000000*      6741 	.word	.LDWlin90
00001277 0b             6742 	.byte	11
00001278 0b             6743 	.byte	11
00001279 02             6744 	.byte	2
0000127a 00             6745 	.byte	0
0000127b 000502         6746 	.byte	0,5,2
0000127e 00000000*      6747 	.word	.LDWlin91
00001282 0b             6748 	.byte	11
00001283 0b             6749 	.byte	11
00001284 1c             6750 	.byte	28
00001285 03             6751 	.byte	3
00001286 7f             6752 	.byte	127
00001287 02             6753 	.byte	2
00001288 02             6754 	.byte	2
00001289 01             6755 	.byte	1
0000128a 000502         6756 	.byte	0,5,2
0000128d 00000000*      6757 	.word	.LDWlin92
00001291 0c             6758 	.byte	12
00001292 0b             6759 	.byte	11
00001293 0b             6760 	.byte	11
00001294 000502         6761 	.byte	0,5,2
00001297 00000000*      6762 	.word	.LDWlin93
0000129b 0b             6763 	.byte	11
0000129c 0c             6764 	.byte	12
0000129d 2b             6765 	.byte	43
0000129e 02             6766 	.byte	2
0000129f 00             6767 	.byte	0
000012a0 0b             6768 	.byte	11
000012a1 13             6769 	.byte	19
000012a2 02             6770 	.byte	2
000012a3 00             6771 	.byte	0
000012a4 02             6772 	.byte	2
000012a5 00             6773 	.byte	0
000012a6 02             6774 	.byte	2
000012a7 00             6775 	.byte	0
000012a8 0b             6776 	.byte	11
000012a9 02             6777 	.byte	2
000012aa 04             6778 	.byte	4
000012ab 000101         6779 	.byte	0,1,1
                        6780 	.section	.debug_info
                        6781 .LDW_4d4ac90:
00001793 0f             6782 	.byte	15
00001794 704d7367436f   6783 	.strz	"pMsgContext"
0000179a 6e7465787400 
000017a0 e006           6784 	.byte	224,6

                                                                      Page 128
                                                              C:\Users\nhuliyap\AppData\Local\Temp\gh_000075o1.s
000017a2 66             6785 	.byte	102
000017a3 01             6786 	.byte	1
000017a4 00000000*      6787 	.word	.LDW_16f8440
000017a8 00             6788 	.byte	0
000017a9 016b           6789 	.byte	1,107
                        6790 
                        6791 .LDW_4d4ad40:
000017ab 0f             6792 	.byte	15
000017ac 646174614e65   6793 	.strz	"dataNegRespCode_u8"
000017b2 675265737043 
000017b8 6f64655f7538 
000017be 00 
000017bf e106           6794 	.byte	225,6
000017c1 5e             6795 	.byte	94
000017c2 01             6796 	.byte	1
000017c3 00000000*      6797 	.word	.LDW_16f8478
000017c7 00             6798 	.byte	0
000017c8 016c           6799 	.byte	1,108
                        6800 
                        6801 .LDW_16f5c20:
000017ca 1d             6802 	.byte	29
000017cb 00000000*      6803 	.word	.LDW84
000017cf 00000000*      6804 	.word	.LDW94
                        6805 
000017d3 00             6806 	.byte	0
                        6807 
000017d4 00             6808 	.byte	0
                        6809 
                        6810 .LDW_4dd7198:
000017d5 13             6811 	.byte	19
000017d6 44636d5f4c6f   6812 	.strz	"Dcm_Lok_SecaStoreDelayCountFalseCmpKeyOk"
000017dc 6b5f53656361 
000017e2 53746f726544 
000017e8 656c6179436f 
000017ee 756e7446616c 
000017f4 7365436d704b 
000017fa 65794f6b00 
000017ff e207           6813 	.byte	226,7
00001801 1f             6814 	.byte	31
00001802 01             6815 	.byte	1
00001803 00000000*      6816 	.word	_Dcm_Lok_SecaStoreDelayCountFalseCmpKeyOk..C.3A.5C_ECU2.5CECU_Rivian_A1.5CTarget.5Crepo_projects.5CpRealEcu.5CcR_LATEST.5Cmake.5Coutput.5Cobjects.5CDcmDspUds_Seca.
00001807 00000000*      6817 	.word	___ghs_eofn_Dcm_Lok_SecaStoreDelayCountFalseCmpKeyOk
0000180b 0153           6818 	.byte	1,83
0000180d 828080800a     6819 	.byte	130,128,128,128,10
00001812 08             6820 	.byte	8
00001813 03             6821 	.byte	3
00001814 08             6822 	.byte	8
00001815 00             6823 	.byte	0
00001816 00             6824 	.byte	0
00001817 00             6825 	.byte	0
00001818 00             6826 	.byte	0
00001819 01             6827 	.byte	1
0000181a 00             6828 	.byte	0
0000181b 01             6829 	.byte	1
                        6830 
                        6831 	.section	.debug_frame
                        6832 .LDW_4fa6ff0:
000002bc 00000000*      6833 	.word	.LDW_unq_2c-.LDW_unq_2b
                        6834 .LDW_unq_2b:
000002c0 00000000*      6835 	.word	.LDW_4dfe7c0
000002c4 00000000*      6836 	.word	_Dcm_Lok_SecaStoreDelayCountFalseCmpKeyOk..C.3A.5C_ECU2.5CECU_Rivian_A1.5CTarget.5Crepo_projects.5CpRealEcu.5CcR_LATEST.5Cmake.5Coutput.5Cobjects.5CDcmDspUds_Seca.

                                                                      Page 129
                                                              C:\Users\nhuliyap\AppData\Local\Temp\gh_000075o1.s
000002c8 00000000*      6837 	.word	___ghs_eofn_Dcm_Lok_SecaStoreDelayCountFalseCmpKeyOk-_Dcm_Lok_SecaStoreDelayCountFalseCmpKeyOk..C.3A.5C_ECU2.5CECU_Rivian_A1.5CTarget.5Crepo_projects.5CpRealEcu.5CcR_LATEST.5Cmake.5Coutput.5Cobjects.5CDcmDspUds_Seca.
000002cc 44             6838 	.byte	68
000002cd 9f             6839 	.byte	159
000002ce 00             6840 	.byte	0
000002cf 40             6841 	.byte	64
000002d0 9d             6842 	.byte	157
000002d1 04             6843 	.byte	4
000002d2 01             6844 	.byte	1
000002d3 00000000*      6845 	.word	.LDW15
000002d7 00             6846 	.byte	0
                        6847 .LDW_unq_2c:
                        6848 	.section	.debug_line
000012ae 000502         6849 	.byte	0,5,2
000012b1 00000000*      6850 	.word	_Dcm_Lok_SecaStoreDelayCountFalseCmpKeyOk..C.3A.5C_ECU2.5CECU_Rivian_A1.5CTarget.5Crepo_projects.5CpRealEcu.5CcR_LATEST.5Cmake.5Coutput.5Cobjects.5CDcmDspUds_Seca.
000012b5 03             6851 	.byte	3
000012b6 e307           6852 	.byte	227,7
000012b8 02             6853 	.byte	2
000012b9 00             6854 	.byte	0
000012ba 01             6855 	.byte	1
000012bb 06             6856 	.byte	6
000012bc 000502         6857 	.byte	0,5,2
000012bf 00000000*      6858 	.word	.LDWlin94
000012c3 0c             6859 	.byte	12
000012c4 000502         6860 	.byte	0,5,2
000012c7 00000000*      6861 	.word	.LDWlin95
000012cb 0b             6862 	.byte	11
000012cc 000502         6863 	.byte	0,5,2
000012cf 00000000*      6864 	.word	.LDWlin96
000012d3 0b             6865 	.byte	11
000012d4 03             6866 	.byte	3
000012d5 1e             6867 	.byte	30
000012d6 02             6868 	.byte	2
000012d7 00             6869 	.byte	0
000012d8 01             6870 	.byte	1
000012d9 0b             6871 	.byte	11
000012da 0b             6872 	.byte	11
000012db 23             6873 	.byte	35
000012dc 02             6874 	.byte	2
000012dd 00             6875 	.byte	0
000012de 0b             6876 	.byte	11
000012df 02             6877 	.byte	2
000012e0 04             6878 	.byte	4
000012e1 000101         6879 	.byte	0,1,1
                        6880 	.section	.debug_info
                        6881 .LDW_16f5cb0:
0000181c 1d             6882 	.byte	29
0000181d 00000000*      6883 	.word	.LDW05
00001821 00000000*      6884 	.word	.LDW15
                        6885 
00001825 00             6886 	.byte	0
                        6887 
00001826 00             6888 	.byte	0
                        6889 
                        6890 .LDW_4dd6d70:
00001827 13             6891 	.byte	19
00001828 44636d5f4c6f   6892 	.strz	"Dcm_Lok_SecaStoreDelayCountFalseCmpKeyFailed"
0000182e 6b5f53656361 
00001834 53746f726544 
0000183a 656c6179436f 
00001840 756e7446616c 
00001846 7365436d704b 

                                                                      Page 130
                                                              C:\Users\nhuliyap\AppData\Local\Temp\gh_000075o1.s
0000184c 65794661696c 
00001852 656400 
00001855 9008           6893 	.byte	144,8
00001857 1f             6894 	.byte	31
00001858 01             6895 	.byte	1
00001859 00000000*      6896 	.word	_Dcm_Lok_SecaStoreDelayCountFalseCmpKeyFailed..C.3A.5C_ECU2.5CECU_Rivian_A1.5CTarget.5Crepo_projects.5CpRealEcu.5CcR_LATEST.5Cmake.5Coutput.5Cobjects.5CDcmDspUds_Seca.
0000185d 00000000*      6897 	.word	___ghs_eofn_Dcm_Lok_SecaStoreDelayCountFalseCmpKeyFailed
00001861 0153           6898 	.byte	1,83
00001863 828080800a     6899 	.byte	130,128,128,128,10
00001868 08             6900 	.byte	8
00001869 03             6901 	.byte	3
0000186a 08             6902 	.byte	8
0000186b 00             6903 	.byte	0
0000186c 00             6904 	.byte	0
0000186d 00             6905 	.byte	0
0000186e 00             6906 	.byte	0
0000186f 01             6907 	.byte	1
00001870 00             6908 	.byte	0
00001871 01             6909 	.byte	1
                        6910 
                        6911 	.section	.debug_frame
                        6912 .LDW_4fa78f0:
000002d8 00000000*      6913 	.word	.LDW_unq_2e-.LDW_unq_2d
                        6914 .LDW_unq_2d:
000002dc 00000000*      6915 	.word	.LDW_4dfe7c0
000002e0 00000000*      6916 	.word	_Dcm_Lok_SecaStoreDelayCountFalseCmpKeyFailed..C.3A.5C_ECU2.5CECU_Rivian_A1.5CTarget.5Crepo_projects.5CpRealEcu.5CcR_LATEST.5Cmake.5Coutput.5Cobjects.5CDcmDspUds_Seca.
000002e4 00000000*      6917 	.word	___ghs_eofn_Dcm_Lok_SecaStoreDelayCountFalseCmpKeyFailed-_Dcm_Lok_SecaStoreDelayCountFalseCmpKeyFailed..C.3A.5C_ECU2.5CECU_Rivian_A1.5CTarget.5Crepo_projects.5CpRealEcu.5CcR_LATEST.5Cmake.5Coutput.5Cobjects.5CDcmDspUds_Seca.
000002e8 44             6918 	.byte	68
000002e9 9f             6919 	.byte	159
000002ea 00             6920 	.byte	0
000002eb 40             6921 	.byte	64
000002ec 9d             6922 	.byte	157
000002ed 04             6923 	.byte	4
000002ee 01             6924 	.byte	1
000002ef 00000000*      6925 	.word	.LDW35
000002f3 00             6926 	.byte	0
                        6927 .LDW_unq_2e:
                        6928 	.section	.debug_line
000012e4 000502         6929 	.byte	0,5,2
000012e7 00000000*      6930 	.word	_Dcm_Lok_SecaStoreDelayCountFalseCmpKeyFailed..C.3A.5C_ECU2.5CECU_Rivian_A1.5CTarget.5Crepo_projects.5CpRealEcu.5CcR_LATEST.5Cmake.5Coutput.5Cobjects.5CDcmDspUds_Seca.
000012eb 03             6931 	.byte	3
000012ec 9108           6932 	.byte	145,8
000012ee 02             6933 	.byte	2
000012ef 00             6934 	.byte	0
000012f0 01             6935 	.byte	1
000012f1 06             6936 	.byte	6
000012f2 000502         6937 	.byte	0,5,2
000012f5 00000000*      6938 	.word	.LDWlin97
000012f9 0c             6939 	.byte	12
000012fa 000502         6940 	.byte	0,5,2
000012fd 00000000*      6941 	.word	.LDWlin98
00001301 0b             6942 	.byte	11
00001302 000502         6943 	.byte	0,5,2
00001305 00000000*      6944 	.word	.LDWlin99
00001309 0b             6945 	.byte	11
0000130a 03             6946 	.byte	3
0000130b 1e             6947 	.byte	30
0000130c 02             6948 	.byte	2
0000130d 00             6949 	.byte	0
0000130e 01             6950 	.byte	1
0000130f 0b             6951 	.byte	11

                                                                      Page 131
                                                              C:\Users\nhuliyap\AppData\Local\Temp\gh_000075o1.s
00001310 0b             6952 	.byte	11
00001311 23             6953 	.byte	35
00001312 02             6954 	.byte	2
00001313 00             6955 	.byte	0
00001314 0b             6956 	.byte	11
00001315 02             6957 	.byte	2
00001316 04             6958 	.byte	4
00001317 000101         6959 	.byte	0,1,1
                        6960 	.section	.debug_info
                        6961 .LDW_16f59e0:
00001872 1d             6962 	.byte	29
00001873 00000000*      6963 	.word	.LDW25
00001877 00000000*      6964 	.word	.LDW35
                        6965 
0000187b 00             6966 	.byte	0
                        6967 
0000187c 00             6968 	.byte	0
                        6969 
                        6970 .LDW_4dd6fd0:
0000187d 13             6971 	.byte	19
0000187e 44636d5f4c6f   6972 	.strz	"Dcm_Lok_SecaStoreDelayCountFalse"
00001884 6b5f53656361 
0000188a 53746f726544 
00001890 656c6179436f 
00001896 756e7446616c 
0000189c 736500 
0000189f be08           6973 	.byte	190,8
000018a1 1f             6974 	.byte	31
000018a2 01             6975 	.byte	1
000018a3 00000000*      6976 	.word	_Dcm_Lok_SecaStoreDelayCountFalse..C.3A.5C_ECU2.5CECU_Rivian_A1.5CTarget.5Crepo_projects.5CpRealEcu.5CcR_LATEST.5Cmake.5Coutput.5Cobjects.5CDcmDspUds_Seca.
000018a7 00000000*      6977 	.word	___ghs_eofn_Dcm_Lok_SecaStoreDelayCountFalse
000018ab 0153           6978 	.byte	1,83
000018ad 828080800a     6979 	.byte	130,128,128,128,10
000018b2 08             6980 	.byte	8
000018b3 03             6981 	.byte	3
000018b4 08             6982 	.byte	8
000018b5 00             6983 	.byte	0
000018b6 00             6984 	.byte	0
000018b7 00             6985 	.byte	0
000018b8 00             6986 	.byte	0
000018b9 01             6987 	.byte	1
000018ba 00             6988 	.byte	0
000018bb 01             6989 	.byte	1
                        6990 
                        6991 	.section	.debug_frame
                        6992 .LDW_4fa7c30:
000002f4 00000000*      6993 	.word	.LDW_unq_30-.LDW_unq_2f
                        6994 .LDW_unq_2f:
000002f8 00000000*      6995 	.word	.LDW_4dfe7c0
000002fc 00000000*      6996 	.word	_Dcm_Lok_SecaStoreDelayCountFalse..C.3A.5C_ECU2.5CECU_Rivian_A1.5CTarget.5Crepo_projects.5CpRealEcu.5CcR_LATEST.5Cmake.5Coutput.5Cobjects.5CDcmDspUds_Seca.
00000300 00000000*      6997 	.word	___ghs_eofn_Dcm_Lok_SecaStoreDelayCountFalse-_Dcm_Lok_SecaStoreDelayCountFalse..C.3A.5C_ECU2.5CECU_Rivian_A1.5CTarget.5Crepo_projects.5CpRealEcu.5CcR_LATEST.5Cmake.5Coutput.5Cobjects.5CDcmDspUds_Seca.
00000304 44             6998 	.byte	68
00000305 9f             6999 	.byte	159
00000306 00             7000 	.byte	0
00000307 40             7001 	.byte	64
00000308 9d             7002 	.byte	157
00000309 04             7003 	.byte	4
0000030a 01             7004 	.byte	1
0000030b 00000000*      7005 	.word	.LDW55
0000030f 00             7006 	.byte	0
                        7007 .LDW_unq_30:

                                                                      Page 132
                                                              C:\Users\nhuliyap\AppData\Local\Temp\gh_000075o1.s
                        7008 	.section	.debug_line
0000131a 000502         7009 	.byte	0,5,2
0000131d 00000000*      7010 	.word	_Dcm_Lok_SecaStoreDelayCountFalse..C.3A.5C_ECU2.5CECU_Rivian_A1.5CTarget.5Crepo_projects.5CpRealEcu.5CcR_LATEST.5Cmake.5Coutput.5Cobjects.5CDcmDspUds_Seca.
00001321 03             7011 	.byte	3
00001322 bf08           7012 	.byte	191,8
00001324 02             7013 	.byte	2
00001325 00             7014 	.byte	0
00001326 01             7015 	.byte	1
00001327 06             7016 	.byte	6
00001328 000502         7017 	.byte	0,5,2
0000132b 00000000*      7018 	.word	.LDWlin100
0000132f 0b             7019 	.byte	11
00001330 000502         7020 	.byte	0,5,2
00001333 00000000*      7021 	.word	.LDWlin101
00001337 0b             7022 	.byte	11
00001338 03             7023 	.byte	3
00001339 04             7024 	.byte	4
0000133a 02             7025 	.byte	2
0000133b 00             7026 	.byte	0
0000133c 01             7027 	.byte	1
0000133d 000502         7028 	.byte	0,5,2
00001340 00000000*      7029 	.word	.LDWlin102
00001344 0c             7030 	.byte	12
00001345 02             7031 	.byte	2
00001346 00             7032 	.byte	0
00001347 0b             7033 	.byte	11
00001348 000502         7034 	.byte	0,5,2
0000134b 00000000*      7035 	.word	.LDWlin103
0000134f 0b             7036 	.byte	11
00001350 03             7037 	.byte	3
00001351 04             7038 	.byte	4
00001352 02             7039 	.byte	2
00001353 00             7040 	.byte	0
00001354 01             7041 	.byte	1
00001355 000502         7042 	.byte	0,5,2
00001358 00000000*      7043 	.word	.LDWlin104
0000135c 0c             7044 	.byte	12
0000135d 02             7045 	.byte	2
0000135e 00             7046 	.byte	0
0000135f 0b             7047 	.byte	11
00001360 02             7048 	.byte	2
00001361 04             7049 	.byte	4
00001362 000101         7050 	.byte	0,1,1
                        7051 	.section	.debug_info
                        7052 .LDW_16f5ce0:
000018bc 1d             7053 	.byte	29
000018bd 00000000*      7054 	.word	.LDW45
000018c1 00000000*      7055 	.word	.LDW55
                        7056 
000018c5 00             7057 	.byte	0
                        7058 
000018c6 00             7059 	.byte	0
                        7060 
                        7061 .LDW_4dd6f38:
000018c7 13             7062 	.byte	19
000018c8 44636d5f4c6f   7063 	.strz	"Dcm_Lok_SecaPending"
000018ce 6b5f53656361 
000018d4 50656e64696e 
000018da 6700 
000018dc d608           7064 	.byte	214,8
000018de 20             7065 	.byte	32

                                                                      Page 133
                                                              C:\Users\nhuliyap\AppData\Local\Temp\gh_000075o1.s
000018df 01             7066 	.byte	1
000018e0 00000000*      7067 	.word	_Dcm_Lok_SecaPending..C.3A.5C_ECU2.5CECU_Rivian_A1.5CTarget.5Crepo_projects.5CpRealEcu.5CcR_LATEST.5Cmake.5Coutput.5Cobjects.5CDcmDspUds_Seca.
000018e4 00000000*      7068 	.word	___ghs_eofn_Dcm_Lok_SecaPending
000018e8 0153           7069 	.byte	1,83
000018ea 02             7070 	.byte	2
000018eb 00             7071 	.byte	0
000018ec 02             7072 	.byte	2
000018ed 00             7073 	.byte	0
000018ee 00             7074 	.byte	0
000018ef 00             7075 	.byte	0
000018f0 00             7076 	.byte	0
000018f1 00             7077 	.byte	0
000018f2 01             7078 	.byte	1
000018f3 00             7079 	.byte	0
000018f4 01             7080 	.byte	1
                        7081 
                        7082 	.section	.debug_frame
                        7083 .LDW_4fa7b30:
00000310 00000000*      7084 	.word	.LDW_unq_32-.LDW_unq_31
                        7085 .LDW_unq_31:
00000314 00000000*      7086 	.word	.LDW_4dfe7c0
00000318 00000000*      7087 	.word	_Dcm_Lok_SecaPending..C.3A.5C_ECU2.5CECU_Rivian_A1.5CTarget.5Crepo_projects.5CpRealEcu.5CcR_LATEST.5Cmake.5Coutput.5Cobjects.5CDcmDspUds_Seca.
0000031c 00000000*      7088 	.word	___ghs_eofn_Dcm_Lok_SecaPending-_Dcm_Lok_SecaPending..C.3A.5C_ECU2.5CECU_Rivian_A1.5CTarget.5Crepo_projects.5CpRealEcu.5CcR_LATEST.5Cmake.5Coutput.5Cobjects.5CDcmDspUds_Seca.
00000320 01             7089 	.byte	1
00000321 00000000*      7090 	.word	.LDW75
00000325 00             7091 	.byte	0
00000326 00             7092 	.byte	0
00000327 00             7093 	.byte	0
                        7094 .LDW_unq_32:
                        7095 	.section	.debug_line
00001365 000502         7096 	.byte	0,5,2
00001368 00000000*      7097 	.word	_Dcm_Lok_SecaPending..C.3A.5C_ECU2.5CECU_Rivian_A1.5CTarget.5Crepo_projects.5CpRealEcu.5CcR_LATEST.5Cmake.5Coutput.5Cobjects.5CDcmDspUds_Seca.
0000136c 03             7098 	.byte	3
0000136d d708           7099 	.byte	215,8
0000136f 02             7100 	.byte	2
00001370 00             7101 	.byte	0
00001371 01             7102 	.byte	1
00001372 06             7103 	.byte	6
00001373 000502         7104 	.byte	0,5,2
00001376 00000000*      7105 	.word	.LDWlin105
0000137a 0b             7106 	.byte	11
0000137b 13             7107 	.byte	19
0000137c 000502         7108 	.byte	0,5,2
0000137f 00000000*      7109 	.word	.LDWlin106
00001383 0b             7110 	.byte	11
00001384 03             7111 	.byte	3
00001385 04             7112 	.byte	4
00001386 02             7113 	.byte	2
00001387 00             7114 	.byte	0
00001388 01             7115 	.byte	1
00001389 0b             7116 	.byte	11
0000138a 03             7117 	.byte	3
0000138b 06             7118 	.byte	6
0000138c 02             7119 	.byte	2
0000138d 00             7120 	.byte	0
0000138e 01             7121 	.byte	1
0000138f 02             7122 	.byte	2
00001390 00             7123 	.byte	0
00001391 0b             7124 	.byte	11
00001392 02             7125 	.byte	2
00001393 02             7126 	.byte	2

                                                                      Page 134
                                                              C:\Users\nhuliyap\AppData\Local\Temp\gh_000075o1.s
00001394 000101         7127 	.byte	0,1,1
                        7128 	.section	.debug_info
                        7129 .LDW_16f58f0:
000018f5 1d             7130 	.byte	29
000018f6 00000000*      7131 	.word	.LDW65
000018fa 00000000*      7132 	.word	.LDW75
                        7133 
000018fe 00             7134 	.byte	0
                        7135 
000018ff 00             7136 	.byte	0
                        7137 
                        7138 .LDW_4dd6b10:
00001900 13             7139 	.byte	19
00001901 44636d5f4c6f   7140 	.strz	"Dcm_Lok_SecaCheckData"
00001907 6b5f53656361 
0000190d 436865636b44 
00001913 61746100 
00001917 e908           7141 	.byte	233,8
00001919 1f             7142 	.byte	31
0000191a 01             7143 	.byte	1
0000191b 00000000*      7144 	.word	_Dcm_Lok_SecaCheckData..C.3A.5C_ECU2.5CECU_Rivian_A1.5CTarget.5Crepo_projects.5CpRealEcu.5CcR_LATEST.5Cmake.5Coutput.5Cobjects.5CDcmDspUds_Seca.
0000191f 00000000*      7145 	.word	___ghs_eofn_Dcm_Lok_SecaCheckData
00001923 0153           7146 	.byte	1,83
00001925 828080c00b     7147 	.byte	130,128,128,192,11
0000192a 10             7148 	.byte	16
0000192b 03             7149 	.byte	3
0000192c 10             7150 	.byte	16
0000192d 00             7151 	.byte	0
0000192e 00             7152 	.byte	0
0000192f 00             7153 	.byte	0
00001930 00             7154 	.byte	0
00001931 01             7155 	.byte	1
00001932 00             7156 	.byte	0
00001933 01             7157 	.byte	1
                        7158 
                        7159 	.section	.debug_frame
                        7160 .LDW_4fa7bb0:
00000328 00000000*      7161 	.word	.LDW_unq_34-.LDW_unq_33
                        7162 .LDW_unq_33:
0000032c 00000000*      7163 	.word	.LDW_4dfe7c0
00000330 00000000*      7164 	.word	_Dcm_Lok_SecaCheckData..C.3A.5C_ECU2.5CECU_Rivian_A1.5CTarget.5Crepo_projects.5CpRealEcu.5CcR_LATEST.5Cmake.5Coutput.5Cobjects.5CDcmDspUds_Seca.
00000334 00000000*      7165 	.word	___ghs_eofn_Dcm_Lok_SecaCheckData-_Dcm_Lok_SecaCheckData..C.3A.5C_ECU2.5CECU_Rivian_A1.5CTarget.5Crepo_projects.5CpRealEcu.5CcR_LATEST.5Cmake.5Coutput.5Cobjects.5CDcmDspUds_Seca.
00000338 44             7166 	.byte	68
00000339 9f             7167 	.byte	159
0000033a 00             7168 	.byte	0
0000033b 40             7169 	.byte	64
0000033c 9d             7170 	.byte	157
0000033d 04             7171 	.byte	4
0000033e 40             7172 	.byte	64
0000033f 9c             7173 	.byte	156
00000340 08             7174 	.byte	8
00000341 40             7175 	.byte	64
00000342 9b             7176 	.byte	155
00000343 0c             7177 	.byte	12
00000344 01             7178 	.byte	1
00000345 00000000*      7179 	.word	.LDW95
00000349 00             7180 	.byte	0
0000034a 00             7181 	.byte	0
0000034b 00             7182 	.byte	0
                        7183 .LDW_unq_34:
                        7184 	.section	.debug_line

                                                                      Page 135
                                                              C:\Users\nhuliyap\AppData\Local\Temp\gh_000075o1.s
00001397 000502         7185 	.byte	0,5,2
0000139a 00000000*      7186 	.word	_Dcm_Lok_SecaCheckData..C.3A.5C_ECU2.5CECU_Rivian_A1.5CTarget.5Crepo_projects.5CpRealEcu.5CcR_LATEST.5Cmake.5Coutput.5Cobjects.5CDcmDspUds_Seca.
0000139e 03             7187 	.byte	3
0000139f eb08           7188 	.byte	235,8
000013a1 02             7189 	.byte	2
000013a2 00             7190 	.byte	0
000013a3 01             7191 	.byte	1
000013a4 06             7192 	.byte	6
000013a5 000502         7193 	.byte	0,5,2
000013a8 00000000*      7194 	.word	.LDWlin107
000013ac 0c             7195 	.byte	12
000013ad 000502         7196 	.byte	0,5,2
000013b0 00000000*      7197 	.word	.LDWlin108
000013b4 0b             7198 	.byte	11
000013b5 0c             7199 	.byte	12
000013b6 000502         7200 	.byte	0,5,2
000013b9 00000000*      7201 	.word	.LDWlin109
000013bd 0b             7202 	.byte	11
000013be 02             7203 	.byte	2
000013bf 00             7204 	.byte	0
000013c0 0c             7205 	.byte	12
000013c1 000502         7206 	.byte	0,5,2
000013c4 00000000*      7207 	.word	.LDWlin110
000013c8 0b             7208 	.byte	11
000013c9 0c             7209 	.byte	12
000013ca 000502         7210 	.byte	0,5,2
000013cd 00000000*      7211 	.word	.LDWlin111
000013d1 0b             7212 	.byte	11
000013d2 02             7213 	.byte	2
000013d3 00             7214 	.byte	0
000013d4 0c             7215 	.byte	12
000013d5 000502         7216 	.byte	0,5,2
000013d8 00000000*      7217 	.word	.LDWlin112
000013dc 0b             7218 	.byte	11
000013dd 03             7219 	.byte	3
000013de 05             7220 	.byte	5
000013df 02             7221 	.byte	2
000013e0 00             7222 	.byte	0
000013e1 01             7223 	.byte	1
000013e2 000502         7224 	.byte	0,5,2
000013e5 00000000*      7225 	.word	.LDWlin113
000013e9 0c             7226 	.byte	12
000013ea 02             7227 	.byte	2
000013eb 00             7228 	.byte	0
000013ec 0b             7229 	.byte	11
000013ed 02             7230 	.byte	2
000013ee 04             7231 	.byte	4
000013ef 000101         7232 	.byte	0,1,1
                        7233 	.section	.debug_info
                        7234 .LDW_4d4a2f0:
00001934 0f             7235 	.byte	15
00001935 4f7053746174   7236 	.strz	"OpStatus"
0000193b 757300 
0000193e e908           7237 	.byte	233,8
00001940 6b             7238 	.byte	107
00001941 01             7239 	.byte	1
00001942 00000000*      7240 	.word	.LDW_16f82f0
00001946 00             7241 	.byte	0
00001947 0156           7242 	.byte	1,86
                        7243 
                        7244 .LDW_4d4a030:

                                                                      Page 136
                                                              C:\Users\nhuliyap\AppData\Local\Temp\gh_000075o1.s
00001949 0f             7245 	.byte	15
0000194a 704d7367436f   7246 	.strz	"pMsgContext"
00001950 6e7465787400 
00001956 ea08           7247 	.byte	234,8
00001958 5a             7248 	.byte	90
00001959 01             7249 	.byte	1
0000195a 00000000*      7250 	.word	.LDW_16f8440
0000195e 00             7251 	.byte	0
0000195f 016c           7252 	.byte	1,108
                        7253 
                        7254 .LDW_4d4a1e8:
00001961 0f             7255 	.byte	15
00001962 646174614e65   7256 	.strz	"dataNegRespCode_u8"
00001968 675265737043 
0000196e 6f64655f7538 
00001974 00 
00001975 eb08           7257 	.byte	235,8
00001977 63             7258 	.byte	99
00001978 01             7259 	.byte	1
00001979 00000000*      7260 	.word	.LDW_16f8478
0000197d 00             7261 	.byte	0
0000197e 016b           7262 	.byte	1,107
                        7263 
                        7264 .LDW_16f5710:
00001980 1d             7265 	.byte	29
00001981 00000000*      7266 	.word	.LDW85
00001985 00000000*      7267 	.word	.LDW95
                        7268 
00001989 00             7269 	.byte	0
                        7270 
0000198a 00             7271 	.byte	0
                        7272 
                        7273 .LDW_4dd7230:
0000198b 13             7274 	.byte	19
0000198c 44636d5f4c6f   7275 	.strz	"Dcm_Lok_SecaProcessStCmpKeyOk"
00001992 6b5f53656361 
00001998 50726f636573 
0000199e 735374436d70 
000019a4 4b65794f6b00 
000019aa 8509           7276 	.byte	133,9
000019ac 1c             7277 	.byte	28
000019ad 01             7278 	.byte	1
000019ae 00000000*      7279 	.word	_Dcm_Lok_SecaProcessStCmpKeyOk..C.3A.5C_ECU2.5CECU_Rivian_A1.5CTarget.5Crepo_projects.5CpRealEcu.5CcR_LATEST.5Cmake.5Coutput.5Cobjects.5CDcmDspUds_Seca.
000019b2 00000000*      7280 	.word	___ghs_eofn_Dcm_Lok_SecaProcessStCmpKeyOk
000019b6 0153           7281 	.byte	1,83
000019b8 02             7282 	.byte	2
000019b9 00             7283 	.byte	0
000019ba 02             7284 	.byte	2
000019bb 00             7285 	.byte	0
000019bc 00             7286 	.byte	0
000019bd 00             7287 	.byte	0
000019be 00             7288 	.byte	0
000019bf 00             7289 	.byte	0
000019c0 01             7290 	.byte	1
000019c1 00             7291 	.byte	0
000019c2 01             7292 	.byte	1
                        7293 
                        7294 	.section	.debug_frame
                        7295 .LDW_4fa76f0:
0000034c 00000000*      7296 	.word	.LDW_unq_36-.LDW_unq_35
                        7297 .LDW_unq_35:

                                                                      Page 137
                                                              C:\Users\nhuliyap\AppData\Local\Temp\gh_000075o1.s
00000350 00000000*      7298 	.word	.LDW_4dfe7c0
00000354 00000000*      7299 	.word	_Dcm_Lok_SecaProcessStCmpKeyOk..C.3A.5C_ECU2.5CECU_Rivian_A1.5CTarget.5Crepo_projects.5CpRealEcu.5CcR_LATEST.5Cmake.5Coutput.5Cobjects.5CDcmDspUds_Seca.
00000358 00000000*      7300 	.word	___ghs_eofn_Dcm_Lok_SecaProcessStCmpKeyOk-_Dcm_Lok_SecaProcessStCmpKeyOk..C.3A.5C_ECU2.5CECU_Rivian_A1.5CTarget.5Crepo_projects.5CpRealEcu.5CcR_LATEST.5Cmake.5Coutput.5Cobjects.5CDcmDspUds_Seca.
0000035c 01             7301 	.byte	1
0000035d 00000000*      7302 	.word	.LDW16
00000361 00             7303 	.byte	0
00000362 00             7304 	.byte	0
00000363 00             7305 	.byte	0
                        7306 .LDW_unq_36:
                        7307 	.section	.debug_line
000013f2 000502         7308 	.byte	0,5,2
000013f5 00000000*      7309 	.word	_Dcm_Lok_SecaProcessStCmpKeyOk..C.3A.5C_ECU2.5CECU_Rivian_A1.5CTarget.5Crepo_projects.5CpRealEcu.5CcR_LATEST.5Cmake.5Coutput.5Cobjects.5CDcmDspUds_Seca.
000013f9 03             7310 	.byte	3
000013fa 8509           7311 	.byte	133,9
000013fc 02             7312 	.byte	2
000013fd 00             7313 	.byte	0
000013fe 01             7314 	.byte	1
000013ff 06             7315 	.byte	6
00001400 03             7316 	.byte	3
00001401 06             7317 	.byte	6
00001402 02             7318 	.byte	2
00001403 02             7319 	.byte	2
00001404 01             7320 	.byte	1
00001405 14             7321 	.byte	20
00001406 000502         7322 	.byte	0,5,2
00001409 00000000*      7323 	.word	.LDWlin114
0000140d 0b             7324 	.byte	11
0000140e 000502         7325 	.byte	0,5,2
00001411 00000000*      7326 	.word	.LDWlin115
00001415 03             7327 	.byte	3
00001416 09             7328 	.byte	9
00001417 02             7329 	.byte	2
00001418 00             7330 	.byte	0
00001419 01             7331 	.byte	1
0000141a 02             7332 	.byte	2
0000141b 02             7333 	.byte	2
0000141c 000101         7334 	.byte	0,1,1
                        7335 	.section	.debug_info
                        7336 .LDW_4d4a6b8:
000019c3 0f             7337 	.byte	15
000019c4 4f7053746174   7338 	.strz	"OpStatus"
000019ca 757300 
000019cd 8509           7339 	.byte	133,9
000019cf 70             7340 	.byte	112
000019d0 01             7341 	.byte	1
000019d1 00000000*      7342 	.word	.LDW_16f82f0
000019d5 00             7343 	.byte	0
000019d6 016e           7344 	.byte	1,110
                        7345 
                        7346 .LDW_16f5a40:
000019d8 1d             7347 	.byte	29
000019d9 00000000*      7348 	.word	.LDW06
000019dd 00000000*      7349 	.word	.LDW16
                        7350 
000019e1 00             7351 	.byte	0
                        7352 
000019e2 00             7353 	.byte	0
                        7354 
                        7355 .LDW_4dd72c8:
000019e3 13             7356 	.byte	19
000019e4 44636d5f4c6f   7357 	.strz	"Dcm_Lok_SecaProcessStCmpKeyFailed"

                                                                      Page 138
                                                              C:\Users\nhuliyap\AppData\Local\Temp\gh_000075o1.s
000019ea 6b5f53656361 
000019f0 50726f636573 
000019f6 735374436d70 
000019fc 4b6579466169 
00001a02 6c656400 
00001a06 9a09           7358 	.byte	154,9
00001a08 1c             7359 	.byte	28
00001a09 01             7360 	.byte	1
00001a0a 00000000*      7361 	.word	_Dcm_Lok_SecaProcessStCmpKeyFailed..C.3A.5C_ECU2.5CECU_Rivian_A1.5CTarget.5Crepo_projects.5CpRealEcu.5CcR_LATEST.5Cmake.5Coutput.5Cobjects.5CDcmDspUds_Seca.
00001a0e 00000000*      7362 	.word	___ghs_eofn_Dcm_Lok_SecaProcessStCmpKeyFailed
00001a12 0153           7363 	.byte	1,83
00001a14 828080c00b     7364 	.byte	130,128,128,192,11
00001a19 10             7365 	.byte	16
00001a1a 03             7366 	.byte	3
00001a1b 10             7367 	.byte	16
00001a1c 00             7368 	.byte	0
00001a1d 00             7369 	.byte	0
00001a1e 00             7370 	.byte	0
00001a1f 00             7371 	.byte	0
00001a20 01             7372 	.byte	1
00001a21 00             7373 	.byte	0
00001a22 01             7374 	.byte	1
                        7375 
                        7376 	.section	.debug_frame
                        7377 .LDW_4fa7830:
00000364 00000000*      7378 	.word	.LDW_unq_38-.LDW_unq_37
                        7379 .LDW_unq_37:
00000368 00000000*      7380 	.word	.LDW_4dfe7c0
0000036c 00000000*      7381 	.word	_Dcm_Lok_SecaProcessStCmpKeyFailed..C.3A.5C_ECU2.5CECU_Rivian_A1.5CTarget.5Crepo_projects.5CpRealEcu.5CcR_LATEST.5Cmake.5Coutput.5Cobjects.5CDcmDspUds_Seca.
00000370 00000000*      7382 	.word	___ghs_eofn_Dcm_Lok_SecaProcessStCmpKeyFailed-_Dcm_Lok_SecaProcessStCmpKeyFailed..C.3A.5C_ECU2.5CECU_Rivian_A1.5CTarget.5Crepo_projects.5CpRealEcu.5CcR_LATEST.5Cmake.5Coutput.5Cobjects.5CDcmDspUds_Seca.
00000374 44             7383 	.byte	68
00000375 9f             7384 	.byte	159
00000376 00             7385 	.byte	0
00000377 40             7386 	.byte	64
00000378 9d             7387 	.byte	157
00000379 04             7388 	.byte	4
0000037a 40             7389 	.byte	64
0000037b 9c             7390 	.byte	156
0000037c 08             7391 	.byte	8
0000037d 40             7392 	.byte	64
0000037e 9b             7393 	.byte	155
0000037f 0c             7394 	.byte	12
00000380 01             7395 	.byte	1
00000381 00000000*      7396 	.word	.LDW36
00000385 00             7397 	.byte	0
00000386 00             7398 	.byte	0
00000387 00             7399 	.byte	0
                        7400 .LDW_unq_38:
                        7401 	.section	.debug_line
0000141f 000502         7402 	.byte	0,5,2
00001422 00000000*      7403 	.word	_Dcm_Lok_SecaProcessStCmpKeyFailed..C.3A.5C_ECU2.5CECU_Rivian_A1.5CTarget.5Crepo_projects.5CpRealEcu.5CcR_LATEST.5Cmake.5Coutput.5Cobjects.5CDcmDspUds_Seca.
00001426 03             7404 	.byte	3
00001427 9b09           7405 	.byte	155,9
00001429 02             7406 	.byte	2
0000142a 00             7407 	.byte	0
0000142b 01             7408 	.byte	1
0000142c 06             7409 	.byte	6
0000142d 000502         7410 	.byte	0,5,2
00001430 00000000*      7411 	.word	.LDWlin116
00001434 0b             7412 	.byte	11
00001435 000502         7413 	.byte	0,5,2

                                                                      Page 139
                                                              C:\Users\nhuliyap\AppData\Local\Temp\gh_000075o1.s
00001438 00000000*      7414 	.word	.LDWlin117
0000143c 0b             7415 	.byte	11
0000143d 1c             7416 	.byte	28
0000143e 000502         7417 	.byte	0,5,2
00001441 00000000*      7418 	.word	.LDWlin118
00001445 0d             7419 	.byte	13
00001446 02             7420 	.byte	2
00001447 00             7421 	.byte	0
00001448 0b             7422 	.byte	11
00001449 0b             7423 	.byte	11
0000144a 0c             7424 	.byte	12
0000144b 000502         7425 	.byte	0,5,2
0000144e 00000000*      7426 	.word	.LDWlin119
00001452 0b             7427 	.byte	11
00001453 0b             7428 	.byte	11
00001454 1c             7429 	.byte	28
00001455 000502         7430 	.byte	0,5,2
00001458 00000000*      7431 	.word	.LDWlin120
0000145c 0c             7432 	.byte	12
0000145d 000502         7433 	.byte	0,5,2
00001460 00000000*      7434 	.word	.LDWlin121
00001464 0c             7435 	.byte	12
00001465 0b             7436 	.byte	11
00001466 0d             7437 	.byte	13
00001467 02             7438 	.byte	2
00001468 00             7439 	.byte	0
00001469 0c             7440 	.byte	12
0000146a 03             7441 	.byte	3
0000146b 04             7442 	.byte	4
0000146c 02             7443 	.byte	2
0000146d 12             7444 	.byte	18
0000146e 01             7445 	.byte	1
0000146f 02             7446 	.byte	2
00001470 00             7447 	.byte	0
00001471 0c             7448 	.byte	12
00001472 000502         7449 	.byte	0,5,2
00001475 00000000*      7450 	.word	.LDWlin122
00001479 0b             7451 	.byte	11
0000147a 0c             7452 	.byte	12
0000147b 000502         7453 	.byte	0,5,2
0000147e 00000000*      7454 	.word	.LDWlin123
00001482 0b             7455 	.byte	11
00001483 0c             7456 	.byte	12
00001484 000502         7457 	.byte	0,5,2
00001487 00000000*      7458 	.word	.LDWlin124
0000148b 0b             7459 	.byte	11
0000148c 2b             7460 	.byte	43
0000148d 02             7461 	.byte	2
0000148e 00             7462 	.byte	0
0000148f 0b             7463 	.byte	11
00001490 02             7464 	.byte	2
00001491 00             7465 	.byte	0
00001492 0b             7466 	.byte	11
00001493 02             7467 	.byte	2
00001494 04             7468 	.byte	4
00001495 000101         7469 	.byte	0,1,1
                        7470 	.section	.debug_info
                        7471 .LDW_4d4a088:
00001a23 0f             7472 	.byte	15
00001a24 646174614e65   7473 	.strz	"dataNegRespCode_u8"
00001a2a 675265737043 

                                                                      Page 140
                                                              C:\Users\nhuliyap\AppData\Local\Temp\gh_000075o1.s
00001a30 6f64655f7538 
00001a36 00 
00001a37 9b09           7474 	.byte	155,9
00001a39 5c             7475 	.byte	92
00001a3a 01             7476 	.byte	1
00001a3b 00000000*      7477 	.word	.LDW_16f8478
00001a3f 00             7478 	.byte	0
00001a40 016b           7479 	.byte	1,107
                        7480 
                        7481 .LDW_16f5860:
00001a42 1d             7482 	.byte	29
00001a43 00000000*      7483 	.word	.LDW26
00001a47 00000000*      7484 	.word	.LDW36
                        7485 
00001a4b 00             7486 	.byte	0
                        7487 
00001a4c 00             7488 	.byte	0
                        7489 
                        7490 .LDW_4dd6ba8:
00001a4d 13             7491 	.byte	19
00001a4e 44636d5f4c6f   7492 	.strz	"Dcm_Lok_SecaProcesStCmpKeyNotOk"
00001a54 6b5f53656361 
00001a5a 50726f636573 
00001a60 5374436d704b 
00001a66 65794e6f744f 
00001a6c 6b00 
00001a6e c709           7493 	.byte	199,9
00001a70 1c             7494 	.byte	28
00001a71 01             7495 	.byte	1
00001a72 00000000*      7496 	.word	_Dcm_Lok_SecaProcesStCmpKeyNotOk..C.3A.5C_ECU2.5CECU_Rivian_A1.5CTarget.5Crepo_projects.5CpRealEcu.5CcR_LATEST.5Cmake.5Coutput.5Cobjects.5CDcmDspUds_Seca.
00001a76 00000000*      7497 	.word	___ghs_eofn_Dcm_Lok_SecaProcesStCmpKeyNotOk
00001a7a 0153           7498 	.byte	1,83
00001a7c 02             7499 	.byte	2
00001a7d 00             7500 	.byte	0
00001a7e 02             7501 	.byte	2
00001a7f 00             7502 	.byte	0
00001a80 00             7503 	.byte	0
00001a81 00             7504 	.byte	0
00001a82 00             7505 	.byte	0
00001a83 00             7506 	.byte	0
00001a84 01             7507 	.byte	1
00001a85 00             7508 	.byte	0
00001a86 01             7509 	.byte	1
                        7510 
                        7511 	.section	.debug_frame
                        7512 .LDW_4fa7d30:
00000388 00000000*      7513 	.word	.LDW_unq_3a-.LDW_unq_39
                        7514 .LDW_unq_39:
0000038c 00000000*      7515 	.word	.LDW_4dfe7c0
00000390 00000000*      7516 	.word	_Dcm_Lok_SecaProcesStCmpKeyNotOk..C.3A.5C_ECU2.5CECU_Rivian_A1.5CTarget.5Crepo_projects.5CpRealEcu.5CcR_LATEST.5Cmake.5Coutput.5Cobjects.5CDcmDspUds_Seca.
00000394 00000000*      7517 	.word	___ghs_eofn_Dcm_Lok_SecaProcesStCmpKeyNotOk-_Dcm_Lok_SecaProcesStCmpKeyNotOk..C.3A.5C_ECU2.5CECU_Rivian_A1.5CTarget.5Crepo_projects.5CpRealEcu.5CcR_LATEST.5Cmake.5Coutput.5Cobjects.5CDcmDspUds_Seca.
00000398 01             7518 	.byte	1
00000399 00000000*      7519 	.word	.LDW56
0000039d 00             7520 	.byte	0
0000039e 00             7521 	.byte	0
0000039f 00             7522 	.byte	0
                        7523 .LDW_unq_3a:
                        7524 	.section	.debug_line
00001498 000502         7525 	.byte	0,5,2
0000149b 00000000*      7526 	.word	_Dcm_Lok_SecaProcesStCmpKeyNotOk..C.3A.5C_ECU2.5CECU_Rivian_A1.5CTarget.5Crepo_projects.5CpRealEcu.5CcR_LATEST.5Cmake.5Coutput.5Cobjects.5CDcmDspUds_Seca.
0000149f 03             7527 	.byte	3

                                                                      Page 141
                                                              C:\Users\nhuliyap\AppData\Local\Temp\gh_000075o1.s
000014a0 c809           7528 	.byte	200,9
000014a2 02             7529 	.byte	2
000014a3 00             7530 	.byte	0
000014a4 01             7531 	.byte	1
000014a5 06             7532 	.byte	6
000014a6 13             7533 	.byte	19
000014a7 000502         7534 	.byte	0,5,2
000014aa 00000000*      7535 	.word	.LDWlin125
000014ae 0b             7536 	.byte	11
000014af 0c             7537 	.byte	12
000014b0 23             7538 	.byte	35
000014b1 0b             7539 	.byte	11
000014b2 0c             7540 	.byte	12
000014b3 02             7541 	.byte	2
000014b4 00             7542 	.byte	0
000014b5 0b             7543 	.byte	11
000014b6 02             7544 	.byte	2
000014b7 02             7545 	.byte	2
000014b8 000101         7546 	.byte	0,1,1
                        7547 	.section	.debug_info
                        7548 .LDW_4d4a0e0:
00001a87 0f             7549 	.byte	15
00001a88 646174614e65   7550 	.strz	"dataNegRespCode_u8"
00001a8e 675265737043 
00001a94 6f64655f7538 
00001a9a 00 
00001a9b c809           7551 	.byte	200,9
00001a9d 5c             7552 	.byte	92
00001a9e 01             7553 	.byte	1
00001a9f 00000000*      7554 	.word	.LDW_16f8478
00001aa3 00             7555 	.byte	0
00001aa4 016e           7556 	.byte	1,110
                        7557 
                        7558 .LDW_16f5a70:
00001aa6 1d             7559 	.byte	29
00001aa7 00000000*      7560 	.word	.LDW46
00001aab 00000000*      7561 	.word	.LDW56
                        7562 
00001aaf 00             7563 	.byte	0
                        7564 
00001ab0 00             7565 	.byte	0
                        7566 
                        7567 .LDW_4dd6948:
00001ab1 13             7568 	.byte	19
00001ab2 44636d5f4c6f   7569 	.strz	"Dcm_Lok_SecaProcessService"
00001ab8 6b5f53656361 
00001abe 50726f636573 
00001ac4 735365727669 
00001aca 636500 
00001acd d409           7570 	.byte	212,9
00001acf 1c             7571 	.byte	28
00001ad0 01             7572 	.byte	1
00001ad1 00000000*      7573 	.word	_Dcm_Lok_SecaProcessService..C.3A.5C_ECU2.5CECU_Rivian_A1.5CTarget.5Crepo_projects.5CpRealEcu.5CcR_LATEST.5Cmake.5Coutput.5Cobjects.5CDcmDspUds_Seca.
00001ad5 00000000*      7574 	.word	___ghs_eofn_Dcm_Lok_SecaProcessService
00001ad9 0153           7575 	.byte	1,83
00001adb 02             7576 	.byte	2
00001adc 00             7577 	.byte	0
00001add 02             7578 	.byte	2
00001ade 00             7579 	.byte	0
00001adf 00             7580 	.byte	0
00001ae0 00             7581 	.byte	0

                                                                      Page 142
                                                              C:\Users\nhuliyap\AppData\Local\Temp\gh_000075o1.s
00001ae1 00             7582 	.byte	0
00001ae2 00             7583 	.byte	0
00001ae3 01             7584 	.byte	1
00001ae4 00             7585 	.byte	0
00001ae5 01             7586 	.byte	1
                        7587 
                        7588 	.section	.debug_frame
                        7589 .LDW_4fa7630:
000003a0 00000000*      7590 	.word	.LDW_unq_3c-.LDW_unq_3b
                        7591 .LDW_unq_3b:
000003a4 00000000*      7592 	.word	.LDW_4dfe7c0
000003a8 00000000*      7593 	.word	_Dcm_Lok_SecaProcessService..C.3A.5C_ECU2.5CECU_Rivian_A1.5CTarget.5Crepo_projects.5CpRealEcu.5CcR_LATEST.5Cmake.5Coutput.5Cobjects.5CDcmDspUds_Seca.
000003ac 00000000*      7594 	.word	___ghs_eofn_Dcm_Lok_SecaProcessService-_Dcm_Lok_SecaProcessService..C.3A.5C_ECU2.5CECU_Rivian_A1.5CTarget.5Crepo_projects.5CpRealEcu.5CcR_LATEST.5Cmake.5Coutput.5Cobjects.5CDcmDspUds_Seca.
000003b0 01             7595 	.byte	1
000003b1 00000000*      7596 	.word	.LDW76
000003b5 00             7597 	.byte	0
000003b6 00             7598 	.byte	0
000003b7 00             7599 	.byte	0
                        7600 .LDW_unq_3c:
                        7601 	.section	.debug_line
000014bb 000502         7602 	.byte	0,5,2
000014be 00000000*      7603 	.word	_Dcm_Lok_SecaProcessService..C.3A.5C_ECU2.5CECU_Rivian_A1.5CTarget.5Crepo_projects.5CpRealEcu.5CcR_LATEST.5Cmake.5Coutput.5Cobjects.5CDcmDspUds_Seca.
000014c2 03             7604 	.byte	3
000014c3 d509           7605 	.byte	213,9
000014c5 02             7606 	.byte	2
000014c6 00             7607 	.byte	0
000014c7 01             7608 	.byte	1
000014c8 06             7609 	.byte	6
000014c9 000502         7610 	.byte	0,5,2
000014cc 00000000*      7611 	.word	.LDWlin126
000014d0 0b             7612 	.byte	11
000014d1 000502         7613 	.byte	0,5,2
000014d4 00000000*      7614 	.word	.LDWlin127
000014d8 0b             7615 	.byte	11
000014d9 0b             7616 	.byte	11
000014da 000502         7617 	.byte	0,5,2
000014dd 00000000*      7618 	.word	.LDWlin128
000014e1 0b             7619 	.byte	11
000014e2 0b             7620 	.byte	11
000014e3 02             7621 	.byte	2
000014e4 00             7622 	.byte	0
000014e5 000502         7623 	.byte	0,5,2
000014e8 00000000*      7624 	.word	.LDWlin129
000014ec 0b             7625 	.byte	11
000014ed 0c             7626 	.byte	12
000014ee 0b             7627 	.byte	11
000014ef 02             7628 	.byte	2
000014f0 00             7629 	.byte	0
000014f1 000502         7630 	.byte	0,5,2
000014f4 00000000*      7631 	.word	.LDWlin130
000014f8 0b             7632 	.byte	11
000014f9 0c             7633 	.byte	12
000014fa 0b             7634 	.byte	11
000014fb 0b             7635 	.byte	11
000014fc 23             7636 	.byte	35
000014fd 02             7637 	.byte	2
000014fe 00             7638 	.byte	0
000014ff 02             7639 	.byte	2
00001500 00             7640 	.byte	0
00001501 02             7641 	.byte	2
00001502 00             7642 	.byte	0

                                                                      Page 143
                                                              C:\Users\nhuliyap\AppData\Local\Temp\gh_000075o1.s
00001503 02             7643 	.byte	2
00001504 00             7644 	.byte	0
00001505 02             7645 	.byte	2
00001506 00             7646 	.byte	0
00001507 0b             7647 	.byte	11
00001508 02             7648 	.byte	2
00001509 02             7649 	.byte	2
0000150a 000101         7650 	.byte	0,1,1
                        7651 	.section	.debug_info
                        7652 .LDW_4d4a240:
00001ae6 0f             7653 	.byte	15
00001ae7 646174614e65   7654 	.strz	"dataNegRespCode_u8"
00001aed 675265737043 
00001af3 6f64655f7538 
00001af9 00 
00001afa d509           7655 	.byte	213,9
00001afc 5c             7656 	.byte	92
00001afd 01             7657 	.byte	1
00001afe 00000000*      7658 	.word	.LDW_16f8478
00001b02 00             7659 	.byte	0
00001b03 0156           7660 	.byte	1,86
                        7661 
                        7662 .LDW_16f5c80:
00001b05 1d             7663 	.byte	29
00001b06 00000000*      7664 	.word	.LDW66
00001b0a 00000000*      7665 	.word	.LDW76
                        7666 
00001b0e 00             7667 	.byte	0
                        7668 
00001b0f 00             7669 	.byte	0
                        7670 
                        7671 .LDW_4dd7068:
00001b10 13             7672 	.byte	19
00001b11 44636d5f4c6f   7673 	.strz	"Dcm_Lok_SecaStateProcessing"
00001b17 6b5f53656361 
00001b1d 537461746550 
00001b23 726f63657373 
00001b29 696e6700 
00001b2d e809           7674 	.byte	232,9
00001b2f 1c             7675 	.byte	28
00001b30 01             7676 	.byte	1
00001b31 00000000*      7677 	.word	_Dcm_Lok_SecaStateProcessing..C.3A.5C_ECU2.5CECU_Rivian_A1.5CTarget.5Crepo_projects.5CpRealEcu.5CcR_LATEST.5Cmake.5Coutput.5Cobjects.5CDcmDspUds_Seca.
00001b35 00000000*      7678 	.word	___ghs_eofn_Dcm_Lok_SecaStateProcessing
00001b39 0153           7679 	.byte	1,83
00001b3b 828080c00b     7680 	.byte	130,128,128,192,11
00001b40 10             7681 	.byte	16
00001b41 03             7682 	.byte	3
00001b42 10             7683 	.byte	16
00001b43 00             7684 	.byte	0
00001b44 00             7685 	.byte	0
00001b45 00             7686 	.byte	0
00001b46 00             7687 	.byte	0
00001b47 01             7688 	.byte	1
00001b48 00             7689 	.byte	0
00001b49 01             7690 	.byte	1
                        7691 
                        7692 	.section	.debug_frame
                        7693 .LDW_4fa77b0:
000003b8 00000000*      7694 	.word	.LDW_unq_3e-.LDW_unq_3d
                        7695 .LDW_unq_3d:
000003bc 00000000*      7696 	.word	.LDW_4dfe7c0

                                                                      Page 144
                                                              C:\Users\nhuliyap\AppData\Local\Temp\gh_000075o1.s
000003c0 00000000*      7697 	.word	_Dcm_Lok_SecaStateProcessing..C.3A.5C_ECU2.5CECU_Rivian_A1.5CTarget.5Crepo_projects.5CpRealEcu.5CcR_LATEST.5Cmake.5Coutput.5Cobjects.5CDcmDspUds_Seca.
000003c4 00000000*      7698 	.word	___ghs_eofn_Dcm_Lok_SecaStateProcessing-_Dcm_Lok_SecaStateProcessing..C.3A.5C_ECU2.5CECU_Rivian_A1.5CTarget.5Crepo_projects.5CpRealEcu.5CcR_LATEST.5Cmake.5Coutput.5Cobjects.5CDcmDspUds_Seca.
000003c8 44             7699 	.byte	68
000003c9 9f             7700 	.byte	159
000003ca 00             7701 	.byte	0
000003cb 40             7702 	.byte	64
000003cc 9d             7703 	.byte	157
000003cd 04             7704 	.byte	4
000003ce 40             7705 	.byte	64
000003cf 9c             7706 	.byte	156
000003d0 08             7707 	.byte	8
000003d1 40             7708 	.byte	64
000003d2 9b             7709 	.byte	155
000003d3 0c             7710 	.byte	12
000003d4 01             7711 	.byte	1
000003d5 00000000*      7712 	.word	.LDW96
000003d9 00             7713 	.byte	0
000003da 00             7714 	.byte	0
000003db 00             7715 	.byte	0
                        7716 .LDW_unq_3e:
                        7717 	.section	.debug_line
0000150d 000502         7718 	.byte	0,5,2
00001510 00000000*      7719 	.word	_Dcm_Lok_SecaStateProcessing..C.3A.5C_ECU2.5CECU_Rivian_A1.5CTarget.5Crepo_projects.5CpRealEcu.5CcR_LATEST.5Cmake.5Coutput.5Cobjects.5CDcmDspUds_Seca.
00001514 03             7720 	.byte	3
00001515 ea09           7721 	.byte	234,9
00001517 02             7722 	.byte	2
00001518 00             7723 	.byte	0
00001519 01             7724 	.byte	1
0000151a 06             7725 	.byte	6
0000151b 34             7726 	.byte	52
0000151c 000502         7727 	.byte	0,5,2
0000151f 00000000*      7728 	.word	.LDWlin131
00001523 0b             7729 	.byte	11
00001524 0b             7730 	.byte	11
00001525 000502         7731 	.byte	0,5,2
00001528 00000000*      7732 	.word	.LDWlin132
0000152c 0b             7733 	.byte	11
0000152d 02             7734 	.byte	2
0000152e 00             7735 	.byte	0
0000152f 0c             7736 	.byte	12
00001530 000502         7737 	.byte	0,5,2
00001533 00000000*      7738 	.word	.LDWlin133
00001537 0b             7739 	.byte	11
00001538 0b             7740 	.byte	11
00001539 000502         7741 	.byte	0,5,2
0000153c 00000000*      7742 	.word	.LDWlin134
00001540 0b             7743 	.byte	11
00001541 02             7744 	.byte	2
00001542 00             7745 	.byte	0
00001543 0c             7746 	.byte	12
00001544 000502         7747 	.byte	0,5,2
00001547 00000000*      7748 	.word	.LDWlin135
0000154b 0b             7749 	.byte	11
0000154c 0b             7750 	.byte	11
0000154d 000502         7751 	.byte	0,5,2
00001550 00000000*      7752 	.word	.LDWlin136
00001554 0b             7753 	.byte	11
00001555 02             7754 	.byte	2
00001556 00             7755 	.byte	0
00001557 0b             7756 	.byte	11
00001558 02             7757 	.byte	2

                                                                      Page 145
                                                              C:\Users\nhuliyap\AppData\Local\Temp\gh_000075o1.s
00001559 04             7758 	.byte	4
0000155a 000101         7759 	.byte	0,1,1
                        7760 	.section	.debug_info
                        7761 .LDW_4d4a298:
00001b4a 0f             7762 	.byte	15
00001b4b 4f7053746174   7763 	.strz	"OpStatus"
00001b51 757300 
00001b54 e809           7764 	.byte	232,9
00001b56 6e             7765 	.byte	110
00001b57 01             7766 	.byte	1
00001b58 00000000*      7767 	.word	.LDW_16f82f0
00001b5c 00             7768 	.byte	0
00001b5d 016d           7769 	.byte	1,109
                        7770 
                        7771 .LDW_4d4a558:
00001b5f 0f             7772 	.byte	15
00001b60 704d7367436f   7773 	.strz	"pMsgContext"
00001b66 6e7465787400 
00001b6c e909           7774 	.byte	233,9
00001b6e 5a             7775 	.byte	90
00001b6f 01             7776 	.byte	1
00001b70 00000000*      7777 	.word	.LDW_16f8440
00001b74 00             7778 	.byte	0
00001b75 016b           7779 	.byte	1,107
                        7780 
                        7781 .LDW_4d4a190:
00001b77 0f             7782 	.byte	15
00001b78 646174614e65   7783 	.strz	"dataNegRespCode_u8"
00001b7e 675265737043 
00001b84 6f64655f7538 
00001b8a 00 
00001b8b ea09           7784 	.byte	234,9
00001b8d 63             7785 	.byte	99
00001b8e 01             7786 	.byte	1
00001b8f 00000000*      7787 	.word	.LDW_16f8478
00001b93 00             7788 	.byte	0
00001b94 016c           7789 	.byte	1,108
                        7790 
                        7791 .LDW_16f5890:
00001b96 1d             7792 	.byte	29
00001b97 00000000*      7793 	.word	.LDW86
00001b9b 00000000*      7794 	.word	.LDW96
                        7795 
00001b9f 00             7796 	.byte	0
                        7797 
00001ba0 00             7798 	.byte	0
                        7799 
                        7800 .LDW_4dd7360:
00001ba1 14             7801 	.byte	20
00001ba2 537763536572   7802 	.strz	"SwcServiceDcm_tSecurityAccess"
00001ba8 766963654463 
00001bae 6d5f74536563 
00001bb4 757269747941 
00001bba 636365737300 
00001bc0 fd09           7803 	.byte	253,9
00001bc2 1f             7804 	.byte	31
00001bc3 01             7805 	.byte	1
00001bc4 00000000*      7806 	.word	.LDW_4cf1478
00001bc8 00000000*      7807 	.word	_SwcServiceDcm_tSecurityAccess
00001bcc 00000000*      7808 	.word	___ghs_eofn_SwcServiceDcm_tSecurityAccess
00001bd0 0153           7809 	.byte	1,83

                                                                      Page 146
                                                              C:\Users\nhuliyap\AppData\Local\Temp\gh_000075o1.s
00001bd2 828080e00b     7810 	.byte	130,128,128,224,11
00001bd7 14             7811 	.byte	20
00001bd8 03             7812 	.byte	3
00001bd9 14             7813 	.byte	20
00001bda 00             7814 	.byte	0
00001bdb 00             7815 	.byte	0
00001bdc 00             7816 	.byte	0
00001bdd 01             7817 	.byte	1
00001bde 01             7818 	.byte	1
00001bdf 00             7819 	.byte	0
00001be0 01             7820 	.byte	1
                        7821 
                        7822 	.section	.debug_abbrev
00000166 14             7823 	.byte	20
00000167 2e             7824 	.byte	46
00000168 01             7825 	.byte	1
00000169 0308           7826 	.byte	3,8
0000016b 3b0f           7827 	.byte	59,15
0000016d 390f           7828 	.byte	57,15
0000016f 3a0f           7829 	.byte	58,15
00000171 4910           7830 	.byte	73,16
00000173 1101           7831 	.byte	17,1
00000175 1201           7832 	.byte	18,1
00000177 400a           7833 	.byte	64,10
00000179 8341           7834 	.byte	131,65
0000017b 0f             7835 	.byte	15
0000017c 8741           7836 	.byte	135,65
0000017e 0d             7837 	.byte	13
0000017f 8541           7838 	.byte	133,65
00000181 0f             7839 	.byte	15
00000182 8641           7840 	.byte	134,65
00000184 0d             7841 	.byte	13
00000185 9241           7842 	.byte	146,65
00000187 0f             7843 	.byte	15
00000188 3c0c           7844 	.byte	60,12
0000018a 200b           7845 	.byte	32,11
0000018c 3f0c           7846 	.byte	63,12
0000018e 320b           7847 	.byte	50,11
00000190 4c0b           7848 	.byte	76,11
00000192 270c           7849 	.byte	39,12
00000194 0000           7850 	.byte	0,0
                        7851 
                        7852 	.section	.debug_frame
                        7853 .LDW_4fa76b0:
000003dc 00000000*      7854 	.word	.LDW_unq_40-.LDW_unq_3f
                        7855 .LDW_unq_3f:
000003e0 00000000*      7856 	.word	.LDW_4dfe7c0
000003e4 00000000*      7857 	.word	_SwcServiceDcm_tSecurityAccess
000003e8 00000000*      7858 	.word	___ghs_eofn_SwcServiceDcm_tSecurityAccess-_SwcServiceDcm_tSecurityAccess
000003ec 44             7859 	.byte	68
000003ed 9f             7860 	.byte	159
000003ee 00             7861 	.byte	0
000003ef 40             7862 	.byte	64
000003f0 9d             7863 	.byte	157
000003f1 04             7864 	.byte	4
000003f2 40             7865 	.byte	64
000003f3 9c             7866 	.byte	156
000003f4 08             7867 	.byte	8
000003f5 40             7868 	.byte	64
000003f6 9b             7869 	.byte	155
000003f7 0c             7870 	.byte	12

                                                                      Page 147
                                                              C:\Users\nhuliyap\AppData\Local\Temp\gh_000075o1.s
000003f8 40             7871 	.byte	64
000003f9 9a             7872 	.byte	154
000003fa 10             7873 	.byte	16
000003fb 01             7874 	.byte	1
000003fc 00000000*      7875 	.word	.LDW17
                        7876 .LDW_unq_40:
                        7877 	.section	.debug_line
0000155d 000502         7878 	.byte	0,5,2
00001560 00000000*      7879 	.word	_SwcServiceDcm_tSecurityAccess
00001564 03             7880 	.byte	3
00001565 ff09           7881 	.byte	255,9
00001567 02             7882 	.byte	2
00001568 00             7883 	.byte	0
00001569 01             7884 	.byte	1
0000156a 06             7885 	.byte	6
0000156b 000502         7886 	.byte	0,5,2
0000156e 00000000*      7887 	.word	.LDWlin137
00001572 03             7888 	.byte	3
00001573 05             7889 	.byte	5
00001574 02             7890 	.byte	2
00001575 00             7891 	.byte	0
00001576 01             7892 	.byte	1
00001577 1b             7893 	.byte	27
00001578 000502         7894 	.byte	0,5,2
0000157b 00000000*      7895 	.word	.LDWlin138
0000157f 0d             7896 	.byte	13
00001580 03             7897 	.byte	3
00001581 7e             7898 	.byte	126
00001582 02             7899 	.byte	2
00001583 02             7900 	.byte	2
00001584 01             7901 	.byte	1
00001585 03             7902 	.byte	3
00001586 04             7903 	.byte	4
00001587 02             7904 	.byte	2
00001588 06             7905 	.byte	6
00001589 01             7906 	.byte	1
0000158a 000502         7907 	.byte	0,5,2
0000158d 00000000*      7908 	.word	.LDWlin139
00001591 0b             7909 	.byte	11
00001592 0c             7910 	.byte	12
00001593 000502         7911 	.byte	0,5,2
00001596 00000000*      7912 	.word	.LDWlin140
0000159a 0c             7913 	.byte	12
0000159b 000502         7914 	.byte	0,5,2
0000159e 00000000*      7915 	.word	.LDWlin141
000015a2 0b             7916 	.byte	11
000015a3 0b             7917 	.byte	11
000015a4 0b             7918 	.byte	11
000015a5 000502         7919 	.byte	0,5,2
000015a8 00000000*      7920 	.word	.LDWlin142
000015ac 0c             7921 	.byte	12
000015ad 000502         7922 	.byte	0,5,2
000015b0 00000000*      7923 	.word	.LDWlin143
000015b4 03             7924 	.byte	3
000015b5 05             7925 	.byte	5
000015b6 02             7926 	.byte	2
000015b7 00             7927 	.byte	0
000015b8 01             7928 	.byte	1
000015b9 000502         7929 	.byte	0,5,2
000015bc 00000000*      7930 	.word	.LDWlin144
000015c0 0b             7931 	.byte	11

                                                                      Page 148
                                                              C:\Users\nhuliyap\AppData\Local\Temp\gh_000075o1.s
000015c1 000502         7932 	.byte	0,5,2
000015c4 00000000*      7933 	.word	.LDWlin145
000015c8 0b             7934 	.byte	11
000015c9 03             7935 	.byte	3
000015ca 7a             7936 	.byte	122
000015cb 02             7937 	.byte	2
000015cc 02             7938 	.byte	2
000015cd 01             7939 	.byte	1
000015ce 0c             7940 	.byte	12
000015cf 03             7941 	.byte	3
000015d0 05             7942 	.byte	5
000015d1 02             7943 	.byte	2
000015d2 10             7944 	.byte	16
000015d3 01             7945 	.byte	1
000015d4 02             7946 	.byte	2
000015d5 00             7947 	.byte	0
000015d6 0c             7948 	.byte	12
000015d7 2b             7949 	.byte	43
000015d8 02             7950 	.byte	2
000015d9 00             7951 	.byte	0
000015da 0d             7952 	.byte	13
000015db 06             7953 	.byte	6
000015dc 02             7954 	.byte	2
000015dd 04             7955 	.byte	4
000015de 02             7956 	.byte	2
000015df 04             7957 	.byte	4
000015e0 000101         7958 	.byte	0,1,1
                        7959 	.section	.debug_info
                        7960 .LDW_4d4a138:
00001be1 0f             7961 	.byte	15
00001be2 4f7053746174   7962 	.strz	"OpStatus"
00001be8 757300 
00001beb fd09           7963 	.byte	253,9
00001bed 61             7964 	.byte	97
00001bee 01             7965 	.byte	1
00001bef 00000000*      7966 	.word	.LDW_4cf0fa8
00001bf3 00             7967 	.byte	0
00001bf4 0156           7968 	.byte	1,86
                        7969 
                        7970 .LDW_4d4a348:
00001bf6 0f             7971 	.byte	15
00001bf7 704d7367436f   7972 	.strz	"pMsgContext"
00001bfd 6e7465787400 
00001c03 fe09           7973 	.byte	254,9
00001c05 59             7974 	.byte	89
00001c06 01             7975 	.byte	1
00001c07 00000000*      7976 	.word	.LDW_16f8440
00001c0b 00             7977 	.byte	0
00001c0c 0157           7978 	.byte	1,87
                        7979 
                        7980 .LDW_4d4a818:
00001c0e 0f             7981 	.byte	15
00001c0f 646174614e65   7982 	.strz	"dataNegRespCode_u8"
00001c15 675265737043 
00001c1b 6f64655f7538 
00001c21 00 
00001c22 ff09           7983 	.byte	255,9
00001c24 63             7984 	.byte	99
00001c25 01             7985 	.byte	1
00001c26 00000000*      7986 	.word	.LDW_16f8478
00001c2a 00             7987 	.byte	0

                                                                      Page 149
                                                              C:\Users\nhuliyap\AppData\Local\Temp\gh_000075o1.s
00001c2b 016a           7988 	.byte	1,106
                        7989 
                        7990 .LDW_16f5980:
00001c2d 1d             7991 	.byte	29
00001c2e 00000000*      7992 	.word	.LDW07
00001c32 00000000*      7993 	.word	.LDW17
                        7994 
                        7995 .LDW_4d4a3a0:
00001c36 05             7996 	.byte	5
00001c37 6c6f63616c64   7997 	.strz	"localdataServRetValue_u8"
00001c3d 617461536572 
00001c43 765265745661 
00001c49 6c75655f7538 
00001c4f 00 
00001c50 810a           7998 	.byte	129,10
00001c52 26             7999 	.byte	38
00001c53 01             8000 	.byte	1
00001c54 00000000*      8001 	.word	.LDW_4cf1478
00001c58 00             8002 	.byte	0
00001c59 00             8003 	.byte	0
                        8004 
00001c5a 00             8005 	.byte	0
                        8006 
00001c5b 00             8007 	.byte	0
                        8008 
                        8009 .LDW_4dd69e0:
00001c5c 13             8010 	.byte	19
00001c5d 44636d5f5265   8011 	.strz	"Dcm_ResetAccessType"
00001c63 736574416363 
00001c69 657373547970 
00001c6f 6500 
00001c71 a60a           8012 	.byte	166,10
00001c73 15             8013 	.byte	21
00001c74 01             8014 	.byte	1
00001c75 00000000*      8015 	.word	_Dcm_ResetAccessType
00001c79 00000000*      8016 	.word	___ghs_eofn_Dcm_ResetAccessType
00001c7d 0153           8017 	.byte	1,83
00001c7f 02             8018 	.byte	2
00001c80 00             8019 	.byte	0
00001c81 02             8020 	.byte	2
00001c82 00             8021 	.byte	0
00001c83 00             8022 	.byte	0
00001c84 00             8023 	.byte	0
00001c85 00             8024 	.byte	0
00001c86 01             8025 	.byte	1
00001c87 01             8026 	.byte	1
00001c88 00             8027 	.byte	0
00001c89 01             8028 	.byte	1
                        8029 
                        8030 	.section	.debug_frame
                        8031 .LDW_4badeb0:
00000400 00000000*      8032 	.word	.LDW_unq_42-.LDW_unq_41
                        8033 .LDW_unq_41:
00000404 00000000*      8034 	.word	.LDW_4dfe7c0
00000408 00000000*      8035 	.word	_Dcm_ResetAccessType
0000040c 00000000*      8036 	.word	___ghs_eofn_Dcm_ResetAccessType-_Dcm_ResetAccessType
00000410 01             8037 	.byte	1
00000411 00000000*      8038 	.word	.LDW37
00000415 00             8039 	.byte	0
00000416 00             8040 	.byte	0
00000417 00             8041 	.byte	0

                                                                      Page 150
                                                              C:\Users\nhuliyap\AppData\Local\Temp\gh_000075o1.s
                        8042 .LDW_unq_42:
                        8043 	.section	.debug_line
000015e3 000502         8044 	.byte	0,5,2
000015e6 00000000*      8045 	.word	_Dcm_ResetAccessType
000015ea 06             8046 	.byte	6
000015eb 03             8047 	.byte	3
000015ec a60a           8048 	.byte	166,10
000015ee 02             8049 	.byte	2
000015ef 00             8050 	.byte	0
000015f0 01             8051 	.byte	1
000015f1 000502         8052 	.byte	0,5,2
000015f4 00000000*      8053 	.word	.LDWlin146
000015f8 0b             8054 	.byte	11
000015f9 02             8055 	.byte	2
000015fa 02             8056 	.byte	2
000015fb 000101         8057 	.byte	0,1,1
                        8058 	.section	.debug_info
                        8059 .LDW_16f59b0:
00001c8a 1d             8060 	.byte	29
00001c8b 00000000*      8061 	.word	.LDW27
00001c8f 00000000*      8062 	.word	.LDW37
                        8063 
00001c93 00             8064 	.byte	0
                        8065 
00001c94 00             8066 	.byte	0
                        8067 
00001c95 00             8068 	.byte	0
                        8069 
                        8070 	.section	.debug_line
                        8071 .Ldw_line_end:
                        8072 	.section	.debug_macinfo
00000000 01             8073 	.byte	1
00000001 00             8074 	.byte	0
00000002 5f5f6768735f   8075 	.strz	"__ghs__ 1"
00000008 5f203100 
0000000c 01             8076 	.byte	1
0000000d 00             8077 	.byte	0
0000000e 5f5f4c4c4f4e   8078 	.strz	"__LLONG_BIT 64"
00000014 475f42495420 
0000001a 363400 
0000001d 01             8079 	.byte	1
0000001e 00             8080 	.byte	0
0000001f 4e4f545f5245   8081 	.strz	"NOT_READY_FOR_TESTING_OR_DEPLOYMENT 1"
00000025 4144595f464f 
0000002b 525f54455354 
00000031 494e475f4f52 
00000037 5f4445504c4f 
0000003d 594d454e5420 
00000043 3100 
00000045 03             8082 	.byte	3
00000046 00             8083 	.byte	0
00000047 01             8084 	.byte	1
00000048 03             8085 	.byte	3
00000049 01             8086 	.byte	1
0000004a 02             8087 	.byte	2
0000004b 03             8088 	.byte	3
0000004c 1c             8089 	.byte	28
0000004d 03             8090 	.byte	3
0000004e 01             8091 	.byte	1
0000004f 3c             8092 	.byte	60
00000050 545255452031   8093 	.strz	"TRUE 1u"

                                                                      Page 151
                                                              C:\Users\nhuliyap\AppData\Local\Temp\gh_000075o1.s
00000056 7500 
00000058 01             8094 	.byte	1
00000059 40             8095 	.byte	64
0000005a 46414c534520   8096 	.strz	"FALSE 0u"
00000060 307500 
00000063 04             8097 	.byte	4
00000064 03             8098 	.byte	3
00000065 1d             8099 	.byte	29
00000066 04             8100 	.byte	4
00000067 03             8101 	.byte	3
00000068 1b             8102 	.byte	27
00000069 05             8103 	.byte	5
0000006a 03             8104 	.byte	3
0000006b 54             8105 	.byte	84
0000006c 06             8106 	.byte	6
0000006d 04             8107 	.byte	4
0000006e 04             8108 	.byte	4
0000006f 01             8109 	.byte	1
00000070 2f             8110 	.byte	47
00000071 4e554c4c5f50   8111 	.strz	"NULL_PTR ((void *)0)"
00000077 545220282876 
0000007d 6f6964202a29 
00000083 302900 
00000086 01             8112 	.byte	1
00000087 33             8113 	.byte	51
00000088 4c4f43414c5f   8114 	.strz	"LOCAL_INLINE static inline"
0000008e 494e4c494e45 
00000094 207374617469 
0000009a 6320696e6c69 
000000a0 6e6500 
000000a3 01             8115 	.byte	1
000000a4 34             8116 	.byte	52
000000a5 46554e432872   8117 	.strz	"FUNC(rettype,memclass) rettype"
000000ab 657474797065 
000000b1 2c6d656d636c 
000000b7 617373292072 
000000bd 657474797065 
000000c3 00 
000000c4 01             8118 	.byte	1
000000c5 37             8119 	.byte	55
000000c6 503256415228   8120 	.strz	"P2VAR(ptrtype,memclass,ptrclass) ptrtype*"
000000cc 707472747970 
000000d2 652c6d656d63 
000000d8 6c6173732c70 
000000de 7472636c6173 
000000e4 732920707472 
000000ea 747970652a00 
000000f0 01             8121 	.byte	1
000000f1 38             8122 	.byte	56
000000f2 5032434f4e53   8123 	.strz	"P2CONST(ptrtype,memclass,ptrclass) const ptrtype*"
000000f8 542870747274 
000000fe 7970652c6d65 
00000104 6d636c617373 
0000010a 2c707472636c 
00000110 617373292063 
00000116 6f6e73742070 
0000011c 747274797065 
00000122 2a00 
00000124 01             8124 	.byte	1
00000125 39             8125 	.byte	57
00000126 434f4e535450   8126 	.strz	"CONSTP2VAR(ptrtype,memclass,ptrclass) ptrtype *const"

                                                                      Page 152
                                                              C:\Users\nhuliyap\AppData\Local\Temp\gh_000075o1.s
0000012c 325641522870 
00000132 747274797065 
00000138 2c6d656d636c 
0000013e 6173732c7074 
00000144 72636c617373 
0000014a 292070747274 
00000150 797065202a63 
00000156 6f6e737400 
0000015b 01             8127 	.byte	1
0000015c 3a             8128 	.byte	58
0000015d 434f4e535450   8129 	.strz	"CONSTP2CONST(ptrtype,memclass,ptrclass) const ptrtype *const"
00000163 32434f4e5354 
00000169 287074727479 
0000016f 70652c6d656d 
00000175 636c6173732c 
0000017b 707472636c61 
00000181 73732920636f 
00000187 6e7374207074 
0000018d 727479706520 
00000193 2a636f6e7374 
00000199 00 
0000019a 01             8130 	.byte	1
0000019b 3b             8131 	.byte	59
0000019c 503246554e43   8132 	.strz	"P2FUNC(rettype,ptrclass,fctname) rettype (*fctname)"
000001a2 287265747479 
000001a8 70652c707472 
000001ae 636c6173732c 
000001b4 6663746e616d 
000001ba 652920726574 
000001c0 747970652028 
000001c6 2a6663746e61 
000001cc 6d652900 
000001d0 01             8133 	.byte	1
000001d1 3d             8134 	.byte	61
000001d2 434f4e535428   8135 	.strz	"CONST(type,memclass) const type"
000001d8 747970652c6d 
000001de 656d636c6173 
000001e4 732920636f6e 
000001ea 737420747970 
000001f0 6500 
000001f2 01             8136 	.byte	1
000001f3 3e             8137 	.byte	62
000001f4 564152287661   8138 	.strz	"VAR(vartype,memclass) vartype"
000001fa 72747970652c 
00000200 6d656d636c61 
00000206 737329207661 
0000020c 727479706500 
00000212 04             8139 	.byte	4
00000213 01             8140 	.byte	1
00000214 3c             8141 	.byte	60
00000215 5354445f4f4e   8142 	.strz	"STD_ON 1u"
0000021b 20317500 
0000021f 01             8143 	.byte	1
00000220 3d             8144 	.byte	61
00000221 5354445f4f46   8145 	.strz	"STD_OFF 0u"
00000227 4620307500 
0000022c 01             8146 	.byte	1
0000022d 3e             8147 	.byte	62
0000022e 455f4f4b2030   8148 	.strz	"E_OK 0u"
00000234 7500 
00000236 01             8149 	.byte	1

                                                                      Page 153
                                                              C:\Users\nhuliyap\AppData\Local\Temp\gh_000075o1.s
00000237 3f             8150 	.byte	63
00000238 455f4e4f545f   8151 	.strz	"E_NOT_OK 1u"
0000023e 4f4b20317500 
00000244 04             8152 	.byte	4
00000245 03             8153 	.byte	3
00000246 03             8154 	.byte	3
00000247 07             8155 	.byte	7
00000248 03             8156 	.byte	3
00000249 06             8157 	.byte	6
0000024a 08             8158 	.byte	8
0000024b 03             8159 	.byte	3
0000024c 04             8160 	.byte	4
0000024d 09             8161 	.byte	9
0000024e 03             8162 	.byte	3
0000024f 04             8163 	.byte	4
00000250 0a             8164 	.byte	10
00000251 04             8165 	.byte	4
00000252 04             8166 	.byte	4
00000253 03             8167 	.byte	3
00000254 05             8168 	.byte	5
00000255 0b             8169 	.byte	11
00000256 01             8170 	.byte	1
00000257 1f             8171 	.byte	31
00000258 44434d5f4346   8172 	.strz	"DCM_CFG_ON 1u"
0000025e 475f4f4e2031 
00000264 7500 
00000266 01             8173 	.byte	1
00000267 20             8174 	.byte	32
00000268 44434d5f4346   8175 	.strz	"DCM_CFG_OFF 0u"
0000026e 475f4f464620 
00000274 307500 
00000277 01             8176 	.byte	1
00000278 22             8177 	.byte	34
00000279 44434d5f4346   8178 	.strz	"DCM_CFG_DET_SUPPORT_ENABLED DCM_CFG_ON"
0000027f 475f4445545f 
00000285 535550504f52 
0000028b 545f454e4142 
00000291 4c4544204443 
00000297 4d5f4346475f 
0000029d 4f4e00 
000002a0 01             8179 	.byte	1
000002a1 25             8180 	.byte	37
000002a2 44434d5f4346   8181 	.strz	"DCM_CFG_RESTORING_ENABLED DCM_CFG_ON"
000002a8 475f52455354 
000002ae 4f52494e475f 
000002b4 454e41424c45 
000002ba 442044434d5f 
000002c0 4346475f4f4e 
000002c6 00 
000002c7 01             8182 	.byte	1
000002c8 26             8183 	.byte	38
000002c9 44434d5f4346   8184 	.strz	"DCM_CFG_STORING_ENABLED DCM_CFG_ON"
000002cf 475f53544f52 
000002d5 494e475f454e 
000002db 41424c454420 
000002e1 44434d5f4346 
000002e7 475f4f4e00 
000002ec 01             8185 	.byte	1
000002ed 28             8186 	.byte	40
000002ee 44434d5f4346   8187 	.strz	"DCM_CFG_VERSION_INFO_API DCM_CFG_ON"
000002f4 475f56455253 

                                                                      Page 154
                                                              C:\Users\nhuliyap\AppData\Local\Temp\gh_000075o1.s
000002fa 494f4e5f494e 
00000300 464f5f415049 
00000306 2044434d5f43 
0000030c 46475f4f4e00 
00000312 01             8188 	.byte	1
00000313 29             8189 	.byte	41
00000314 44434d5f4346   8190 	.strz	"DCM_CFG_SUPPLIER_NOTIFICATION_ENABLED DCM_CFG_ON"
0000031a 475f53555050 
00000320 4c4945525f4e 
00000326 4f5449464943 
0000032c 4154494f4e5f 
00000332 454e41424c45 
00000338 442044434d5f 
0000033e 4346475f4f4e 
00000344 00 
00000345 01             8191 	.byte	1
00000346 2b             8192 	.byte	43
00000347 44434d5f4346   8193 	.strz	"DCM_CFG_RBA_DIAGADAPT_SUPPORT_ENABLED DCM_CFG_OFF"
0000034d 475f5242415f 
00000353 444941474144 
00000359 4150545f5355 
0000035f 50504f52545f 
00000365 454e41424c45 
0000036b 442044434d5f 
00000371 4346475f4f46 
00000377 4600 
00000379 01             8194 	.byte	1
0000037a 2c             8195 	.byte	44
0000037b 44434d5f4346   8196 	.strz	"DCM_CFG_RBA_DEM_SR_ENABLED DCM_CFG_OFF"
00000381 475f5242415f 
00000387 44454d5f5352 
0000038d 5f454e41424c 
00000393 45442044434d 
00000399 5f4346475f4f 
0000039f 464600 
000003a2 01             8197 	.byte	1
000003a3 2f             8198 	.byte	47
000003a4 44434d5f5041   8199 	.strz	"DCM_PAGEDBUFFER_ENABLED DCM_CFG_OFF"
000003aa 474544425546 
000003b0 4645525f454e 
000003b6 41424c454420 
000003bc 44434d5f4346 
000003c2 475f4f464600 
000003c8 01             8200 	.byte	1
000003c9 31             8201 	.byte	49
000003ca 44434d5f4346   8202 	.strz	"DCM_CFG_RTESUPPORT_ENABLED DCM_CFG_OFF"
000003d0 475f52544553 
000003d6 5550504f5254 
000003dc 5f454e41424c 
000003e2 45442044434d 
000003e8 5f4346475f4f 
000003ee 464600 
000003f1 01             8203 	.byte	1
000003f2 32             8204 	.byte	50
000003f3 44434d5f4346   8205 	.strz	"DCM_CFG_DSP_DDDISTORINGTONVRAM_ENABLED DCM_CFG_OFF"
000003f9 475f4453505f 
000003ff 444444495354 
00000405 4f52494e4754 
0000040b 4f4e5652414d 
00000411 5f454e41424c 
00000417 45442044434d 

                                                                      Page 155
                                                              C:\Users\nhuliyap\AppData\Local\Temp\gh_000075o1.s
0000041d 5f4346475f4f 
00000423 464600 
00000426 01             8206 	.byte	1
00000427 35             8207 	.byte	53
00000428 44434d5f4341   8208 	.strz	"DCM_CALLAPPLICATIONONREQRX_ENABLED DCM_CFG_ON"
0000042e 4c4c4150504c 
00000434 49434154494f 
0000043a 4e4f4e524551 
00000440 52585f454e41 
00000446 424c45442044 
0000044c 434d5f434647 
00000452 5f4f4e00 
00000456 01             8209 	.byte	1
00000457 38             8210 	.byte	56
00000458 44434d5f4346   8211 	.strz	"DCM_CFG_RDPI_ENABLED DCM_CFG_OFF"
0000045e 475f52445049 
00000464 5f454e41424c 
0000046a 45442044434d 
00000470 5f4346475f4f 
00000476 464600 
00000479 01             8212 	.byte	1
0000047a 3a             8213 	.byte	58
0000047b 44434d5f4346   8214 	.strz	"DCM_CFG_DSPUDSSUPPORT_ENABLED DCM_CFG_ON"
00000481 475f44535055 
00000487 445353555050 
0000048d 4f52545f454e 
00000493 41424c454420 
00000499 44434d5f4346 
0000049f 475f4f4e00 
000004a4 01             8215 	.byte	1
000004a5 3d             8216 	.byte	61
000004a6 44434d5f4346   8217 	.strz	"DCM_CFG_DSPOBDSUPPORT_ENABLED DCM_CFG_OFF"
000004ac 475f4453504f 
000004b2 424453555050 
000004b8 4f52545f454e 
000004be 41424c454420 
000004c4 44434d5f4346 
000004ca 475f4f464600 
000004d0 01             8218 	.byte	1
000004d1 3f             8219 	.byte	63
000004d2 44434d5f4346   8220 	.strz	"DCM_CFG_POSTBUILD_SUPPORT DCM_CFG_OFF"
000004d8 475f504f5354 
000004de 4255494c445f 
000004e4 535550504f52 
000004ea 542044434d5f 
000004f0 4346475f4f46 
000004f6 4600 
000004f8 01             8221 	.byte	1
000004f9 46             8222 	.byte	70
000004fa 44434d5f4346   8223 	.strz	"DCM_CFG_TASK_TIME_MS 10u"
00000500 475f5441534b 
00000506 5f54494d455f 
0000050c 4d5320313075 
00000512 00 
00000513 01             8224 	.byte	1
00000514 48             8225 	.byte	72
00000515 44434d5f4346   8226 	.strz	"DCM_CFG_CALL_BACK_NUM_PORTS 0"
0000051b 475f43414c4c 
00000521 5f4241434b5f 
00000527 4e554d5f504f 
0000052d 525453203000 

                                                                      Page 156
                                                              C:\Users\nhuliyap\AppData\Local\Temp\gh_000075o1.s
00000533 01             8227 	.byte	1
00000534 4c             8228 	.byte	76
00000535 44434d5f4e55   8229 	.strz	"DCM_NUM_COMM_CHANNEL 1"
0000053b 4d5f434f4d4d 
00000541 5f4348414e4e 
00000547 454c203100 
0000054c 01             8230 	.byte	1
0000054d 4d             8231 	.byte	77
0000054e 44434d5f4346   8232 	.strz	"DCM_CFG_NUM_RX_PDUID 2u"
00000554 475f4e554d5f 
0000055a 52585f504455 
00000560 494420327500 
00000566 01             8233 	.byte	1
00000567 62             8234 	.byte	98
00000568 44434d5f4346   8235 	.strz	"DCM_CFG_IN_PARAM_MAXLEN 8u"
0000056e 475f494e5f50 
00000574 4152414d5f4d 
0000057a 41584c454e20 
00000580 387500 
00000583 01             8236 	.byte	1
00000584 72             8237 	.byte	114
00000585 44434d5f5354   8238 	.strz	"DCM_START_SEC_VAR_CLEARED_8 "
0000058b 4152545f5345 
00000591 435f5641525f 
00000597 434c45415245 
0000059d 445f382000 
000005a2 03             8239 	.byte	3
000005a3 73             8240 	.byte	115
000005a4 0c             8241 	.byte	12
000005a5 01             8242 	.byte	1
000005a6 06             8243 	.byte	6
000005a7 4d454d4d4150   8244 	.strz	"MEMMAP_ERROR "
000005ad 5f4552524f52 
000005b3 2000 
000005b5 01             8245 	.byte	1
000005b6 f301           8246 	.byte	243,1
000005b8 4253575f5354   8247 	.strz	"BSW_START_SEC_DEFAULT_RAM0_CLEARED_8 "
000005be 4152545f5345 
000005c4 435f44454641 
000005ca 554c545f5241 
000005d0 4d305f434c45 
000005d6 415245445f38 
000005dc 2000 
000005de 03             8248 	.byte	3
000005df f401           8249 	.byte	244,1
000005e1 0d             8250 	.byte	13
000005e2 01             8251 	.byte	1
000005e3 9805           8252 	.byte	152,5
000005e5 53544152545f   8253 	.strz	"START_SEC_VAR_CLEARED_8 "
000005eb 5345435f5641 
000005f1 525f434c4541 
000005f7 5245445f3820 
000005fd 00 
000005fe 03             8254 	.byte	3
000005ff bb09           8255 	.byte	187,9
00000601 0e             8256 	.byte	14
00000602 01             8257 	.byte	1
00000603 46             8258 	.byte	70
00000604 53544152545f   8259 	.strz	"START_SEC_VAR_ZERO_INIT_8BIT "
0000060a 5345435f5641 
00000610 525f5a45524f 

                                                                      Page 157
                                                              C:\Users\nhuliyap\AppData\Local\Temp\gh_000075o1.s
00000616 5f494e49545f 
0000061c 384249542000 
00000622 01             8260 	.byte	1
00000623 e009           8261 	.byte	224,9
00000625 5641525f5345   8262 	.strz	"VAR_SEC_OPEN "
0000062b 435f4f50454e 
00000631 2000 
00000633 04             8263 	.byte	4
00000634 04             8264 	.byte	4
00000635 01             8265 	.byte	1
00000636 f801           8266 	.byte	248,1
00000638 44434d5f5741   8267 	.strz	"DCM_WAS_STARTED_SEC_VAR_CLEARED_8 "
0000063e 535f53544152 
00000644 5445445f5345 
0000064a 435f5641525f 
00000650 434c45415245 
00000656 445f382000 
0000065b 04             8268 	.byte	4
0000065c 01             8269 	.byte	1
0000065d 76             8270 	.byte	118
0000065e 44434d5f5354   8271 	.strz	"DCM_STOP_SEC_VAR_CLEARED_8 "
00000664 4f505f534543 
0000066a 5f5641525f43 
00000670 4c4541524544 
00000676 5f382000 
0000067a 03             8272 	.byte	3
0000067b 77             8273 	.byte	119
0000067c 0c             8274 	.byte	12
0000067d 01             8275 	.byte	1
0000067e 06             8276 	.byte	6
0000067f 4d454d4d4150   8277 	.strz	"MEMMAP_ERROR "
00000685 5f4552524f52 
0000068b 2000 
0000068d 01             8278 	.byte	1
0000068e ff01           8279 	.byte	255,1
00000690 4253575f5354   8280 	.strz	"BSW_STOP_SEC_DEFAULT_RAM0_CLEARED_8 "
00000696 4f505f534543 
0000069c 5f4445464155 
000006a2 4c545f52414d 
000006a8 305f434c4541 
000006ae 5245445f3820 
000006b4 00 
000006b5 03             8281 	.byte	3
000006b6 8002           8282 	.byte	128,2
000006b8 0d             8283 	.byte	13
000006b9 01             8284 	.byte	1
000006ba 9b05           8285 	.byte	155,5
000006bc 53544f505f53   8286 	.strz	"STOP_SEC_VAR "
000006c2 45435f564152 
000006c8 2000 
000006ca 03             8287 	.byte	3
000006cb bb09           8288 	.byte	187,9
000006cd 0e             8289 	.byte	14
000006ce 04             8290 	.byte	4
000006cf 04             8291 	.byte	4
000006d0 04             8292 	.byte	4
000006d1 01             8293 	.byte	1
000006d2 79             8294 	.byte	121
000006d3 44434d5f5354   8295 	.strz	"DCM_START_SEC_VAR_CLEARED_16 "
000006d9 4152545f5345 
000006df 435f5641525f 

                                                                      Page 158
                                                              C:\Users\nhuliyap\AppData\Local\Temp\gh_000075o1.s
000006e5 434c45415245 
000006eb 445f31362000 
000006f1 03             8296 	.byte	3
000006f2 7a             8297 	.byte	122
000006f3 0c             8298 	.byte	12
000006f4 01             8299 	.byte	1
000006f5 06             8300 	.byte	6
000006f6 4d454d4d4150   8301 	.strz	"MEMMAP_ERROR "
000006fc 5f4552524f52 
00000702 2000 
00000704 01             8302 	.byte	1
00000705 8802           8303 	.byte	136,2
00000707 4253575f5354   8304 	.strz	"BSW_START_SEC_DEFAULT_RAM0_CLEARED_16 "
0000070d 4152545f5345 
00000713 435f44454641 
00000719 554c545f5241 
0000071f 4d305f434c45 
00000725 415245445f31 
0000072b 362000 
0000072e 03             8305 	.byte	3
0000072f 8902           8306 	.byte	137,2
00000731 0d             8307 	.byte	13
00000732 01             8308 	.byte	1
00000733 a405           8309 	.byte	164,5
00000735 53544152545f   8310 	.strz	"START_SEC_VAR_CLEARED_16 "
0000073b 5345435f5641 
00000741 525f434c4541 
00000747 5245445f3136 
0000074d 2000 
0000074f 03             8311 	.byte	3
00000750 bb09           8312 	.byte	187,9
00000752 0e             8313 	.byte	14
00000753 01             8314 	.byte	1
00000754 4a             8315 	.byte	74
00000755 53544152545f   8316 	.strz	"START_SEC_VAR_ZERO_INIT_16BIT "
0000075b 5345435f5641 
00000761 525f5a45524f 
00000767 5f494e49545f 
0000076d 313642495420 
00000773 00 
00000774 01             8317 	.byte	1
00000775 e909           8318 	.byte	233,9
00000777 5641525f5345   8319 	.strz	"VAR_SEC_OPEN "
0000077d 435f4f50454e 
00000783 2000 
00000785 04             8320 	.byte	4
00000786 04             8321 	.byte	4
00000787 01             8322 	.byte	1
00000788 8d02           8323 	.byte	141,2
0000078a 44434d5f5741   8324 	.strz	"DCM_WAS_STARTED_SEC_VAR_CLEARED_16 "
00000790 535f53544152 
00000796 5445445f5345 
0000079c 435f5641525f 
000007a2 434c45415245 
000007a8 445f31362000 
000007ae 04             8325 	.byte	4
000007af 01             8326 	.byte	1
000007b0 7d             8327 	.byte	125
000007b1 44434d5f5354   8328 	.strz	"DCM_STOP_SEC_VAR_CLEARED_16 "
000007b7 4f505f534543 
000007bd 5f5641525f43 

                                                                      Page 159
                                                              C:\Users\nhuliyap\AppData\Local\Temp\gh_000075o1.s
000007c3 4c4541524544 
000007c9 5f31362000 
000007ce 03             8329 	.byte	3
000007cf 7e             8330 	.byte	126
000007d0 0c             8331 	.byte	12
000007d1 01             8332 	.byte	1
000007d2 06             8333 	.byte	6
000007d3 4d454d4d4150   8334 	.strz	"MEMMAP_ERROR "
000007d9 5f4552524f52 
000007df 2000 
000007e1 01             8335 	.byte	1
000007e2 9402           8336 	.byte	148,2
000007e4 4253575f5354   8337 	.strz	"BSW_STOP_SEC_DEFAULT_RAM0_CLEARED_16 "
000007ea 4f505f534543 
000007f0 5f4445464155 
000007f6 4c545f52414d 
000007fc 305f434c4541 
00000802 5245445f3136 
00000808 2000 
0000080a 03             8338 	.byte	3
0000080b 9502           8339 	.byte	149,2
0000080d 0d             8340 	.byte	13
0000080e 01             8341 	.byte	1
0000080f a705           8342 	.byte	167,5
00000811 53544f505f53   8343 	.strz	"STOP_SEC_VAR "
00000817 45435f564152 
0000081d 2000 
0000081f 03             8344 	.byte	3
00000820 bb09           8345 	.byte	187,9
00000822 0e             8346 	.byte	14
00000823 04             8347 	.byte	4
00000824 04             8348 	.byte	4
00000825 04             8349 	.byte	4
00000826 01             8350 	.byte	1
00000827 8001           8351 	.byte	128,1
00000829 44434d5f5354   8352 	.strz	"DCM_START_SEC_VAR_CLEARED_32 "
0000082f 4152545f5345 
00000835 435f5641525f 
0000083b 434c45415245 
00000841 445f33322000 
00000847 03             8353 	.byte	3
00000848 8101           8354 	.byte	129,1
0000084a 0c             8355 	.byte	12
0000084b 01             8356 	.byte	1
0000084c 06             8357 	.byte	6
0000084d 4d454d4d4150   8358 	.strz	"MEMMAP_ERROR "
00000853 5f4552524f52 
00000859 2000 
0000085b 01             8359 	.byte	1
0000085c 9d02           8360 	.byte	157,2
0000085e 4253575f5354   8361 	.strz	"BSW_START_SEC_DEFAULT_RAM0_CLEARED_32 "
00000864 4152545f5345 
0000086a 435f44454641 
00000870 554c545f5241 
00000876 4d305f434c45 
0000087c 415245445f33 
00000882 322000 
00000885 03             8362 	.byte	3
00000886 9e02           8363 	.byte	158,2
00000888 0d             8364 	.byte	13
00000889 01             8365 	.byte	1

                                                                      Page 160
                                                              C:\Users\nhuliyap\AppData\Local\Temp\gh_000075o1.s
0000088a b005           8366 	.byte	176,5
0000088c 53544152545f   8367 	.strz	"START_SEC_VAR_CLEARED_32 "
00000892 5345435f5641 
00000898 525f434c4541 
0000089e 5245445f3332 
000008a4 2000 
000008a6 03             8368 	.byte	3
000008a7 bb09           8369 	.byte	187,9
000008a9 0e             8370 	.byte	14
000008aa 01             8371 	.byte	1
000008ab 4e             8372 	.byte	78
000008ac 53544152545f   8373 	.strz	"START_SEC_VAR_ZERO_INIT_32BIT "
000008b2 5345435f5641 
000008b8 525f5a45524f 
000008be 5f494e49545f 
000008c4 333242495420 
000008ca 00 
000008cb 01             8374 	.byte	1
000008cc f209           8375 	.byte	242,9
000008ce 5641525f5345   8376 	.strz	"VAR_SEC_OPEN "
000008d4 435f4f50454e 
000008da 2000 
000008dc 04             8377 	.byte	4
000008dd 04             8378 	.byte	4
000008de 01             8379 	.byte	1
000008df a202           8380 	.byte	162,2
000008e1 44434d5f5741   8381 	.strz	"DCM_WAS_STARTED_SEC_VAR_CLEARED_32 "
000008e7 535f53544152 
000008ed 5445445f5345 
000008f3 435f5641525f 
000008f9 434c45415245 
000008ff 445f33322000 
00000905 04             8382 	.byte	4
00000906 01             8383 	.byte	1
00000907 8401           8384 	.byte	132,1
00000909 44434d5f5354   8385 	.strz	"DCM_STOP_SEC_VAR_CLEARED_32 "
0000090f 4f505f534543 
00000915 5f5641525f43 
0000091b 4c4541524544 
00000921 5f33322000 
00000926 03             8386 	.byte	3
00000927 8501           8387 	.byte	133,1
00000929 0c             8388 	.byte	12
0000092a 01             8389 	.byte	1
0000092b 06             8390 	.byte	6
0000092c 4d454d4d4150   8391 	.strz	"MEMMAP_ERROR "
00000932 5f4552524f52 
00000938 2000 
0000093a 01             8392 	.byte	1
0000093b a902           8393 	.byte	169,2
0000093d 4253575f5354   8394 	.strz	"BSW_STOP_SEC_DEFAULT_RAM0_CLEARED_32 "
00000943 4f505f534543 
00000949 5f4445464155 
0000094f 4c545f52414d 
00000955 305f434c4541 
0000095b 5245445f3332 
00000961 2000 
00000963 03             8395 	.byte	3
00000964 aa02           8396 	.byte	170,2
00000966 0d             8397 	.byte	13
00000967 01             8398 	.byte	1

                                                                      Page 161
                                                              C:\Users\nhuliyap\AppData\Local\Temp\gh_000075o1.s
00000968 b305           8399 	.byte	179,5
0000096a 53544f505f53   8400 	.strz	"STOP_SEC_VAR "
00000970 45435f564152 
00000976 2000 
00000978 03             8401 	.byte	3
00000979 bb09           8402 	.byte	187,9
0000097b 0e             8403 	.byte	14
0000097c 04             8404 	.byte	4
0000097d 04             8405 	.byte	4
0000097e 04             8406 	.byte	4
0000097f 04             8407 	.byte	4
00000980 03             8408 	.byte	3
00000981 06             8409 	.byte	6
00000982 0f             8410 	.byte	15
00000983 03             8411 	.byte	3
00000984 06             8412 	.byte	6
00000985 10             8413 	.byte	16
00000986 03             8414 	.byte	3
00000987 06             8415 	.byte	6
00000988 11             8416 	.byte	17
00000989 04             8417 	.byte	4
0000098a 04             8418 	.byte	4
0000098b 01             8419 	.byte	1
0000098c 09             8420 	.byte	9
0000098d 44434d5f455f   8421 	.strz	"DCM_E_PENDING 10u"
00000993 50454e44494e 
00000999 472031307500 
0000099f 01             8422 	.byte	1
000009a0 0d             8423 	.byte	13
000009a1 44434d5f455f   8424 	.strz	"DCM_E_COMPARE_KEY_FAILED 11"
000009a7 434f4d504152 
000009ad 455f4b45595f 
000009b3 4641494c4544 
000009b9 20313100 
000009bd 01             8425 	.byte	1
000009be 2e             8426 	.byte	46
000009bf 44434d5f455f   8427 	.strz	"DCM_E_GENERALREJECT 0x10"
000009c5 47454e455241 
000009cb 4c52454a4543 
000009d1 542030783130 
000009d7 00 
000009d8 01             8428 	.byte	1
000009d9 36             8429 	.byte	54
000009da 44434d5f455f   8430 	.strz	"DCM_E_SUBFUNCTIONNOTSUPPORTED 0x12"
000009e0 53554246554e 
000009e6 4354494f4e4e 
000009ec 4f5453555050 
000009f2 4f5254454420 
000009f8 3078313200 
000009fd 01             8431 	.byte	1
000009fe 3a             8432 	.byte	58
000009ff 44434d5f455f   8433 	.strz	"DCM_E_INCORRECTMESSAGELENGTHORINVALIDFORMAT 0x13"
00000a05 494e434f5252 
00000a0b 4543544d4553 
00000a11 534147454c45 
00000a17 4e4754484f52 
00000a1d 494e56414c49 
00000a23 44464f524d41 
00000a29 542030783133 
00000a2f 00 
00000a30 01             8434 	.byte	1

                                                                      Page 162
                                                              C:\Users\nhuliyap\AppData\Local\Temp\gh_000075o1.s
00000a31 46             8435 	.byte	70
00000a32 44434d5f455f   8436 	.strz	"DCM_E_CONDITIONSNOTCORRECT 0x22"
00000a38 434f4e444954 
00000a3e 494f4e534e4f 
00000a44 54434f525245 
00000a4a 435420307832 
00000a50 3200 
00000a52 01             8437 	.byte	1
00000a53 4a             8438 	.byte	74
00000a54 44434d5f455f   8439 	.strz	"DCM_E_REQUESTSEQUENCEERROR 0x24"
00000a5a 524551554553 
00000a60 545345515545 
00000a66 4e4345455252 
00000a6c 4f5220307832 
00000a72 3400 
00000a74 01             8440 	.byte	1
00000a75 5e             8441 	.byte	94
00000a76 44434d5f455f   8442 	.strz	"DCM_E_INVALIDKEY 0x35"
00000a7c 494e56414c49 
00000a82 444b45592030 
00000a88 78333500 
00000a8c 01             8443 	.byte	1
00000a8d 62             8444 	.byte	98
00000a8e 44434d5f455f   8445 	.strz	"DCM_E_EXCEEDNUMBEROFATTEMPTS 0x36"
00000a94 455843454544 
00000a9a 4e554d424552 
00000aa0 4f4641545445 
00000aa6 4d5054532030 
00000aac 78333600 
00000ab0 01             8446 	.byte	1
00000ab1 66             8447 	.byte	102
00000ab2 44434d5f455f   8448 	.strz	"DCM_E_REQUIREDTIMEDELAYNOTEXPIRED 0x37"
00000ab8 524551554952 
00000abe 454454494d45 
00000ac4 44454c41594e 
00000aca 4f5445585049 
00000ad0 524544203078 
00000ad6 333700 
00000ad9 01             8449 	.byte	1
00000ada ca01           8450 	.byte	202,1
00000adc 44434d5f494e   8451 	.strz	"DCM_INITIAL 0x00"
00000ae2 495449414c20 
00000ae8 3078303000 
00000aed 01             8452 	.byte	1
00000aee ce01           8453 	.byte	206,1
00000af0 44434d5f5045   8454 	.strz	"DCM_PENDING 0x01"
00000af6 4e44494e4720 
00000afc 3078303100 
00000b01 01             8455 	.byte	1
00000b02 d201           8456 	.byte	210,1
00000b04 44434d5f4341   8457 	.strz	"DCM_CANCEL 0x02"
00000b0a 4e43454c2030 
00000b10 78303200 
00000b14 01             8458 	.byte	1
00000b15 da01           8459 	.byte	218,1
00000b17 44434d5f4348   8460 	.strz	"DCM_CHECKDATA 0x04"
00000b1d 45434b444154 
00000b23 412030783034 
00000b29 00 
00000b2a 01             8461 	.byte	1
00000b2b de01           8462 	.byte	222,1

                                                                      Page 163
                                                              C:\Users\nhuliyap\AppData\Local\Temp\gh_000075o1.s
00000b2d 44434d5f5052   8463 	.strz	"DCM_PROCESSSERVICE 0x05"
00000b33 4f4345535353 
00000b39 455256494345 
00000b3f 203078303500 
00000b45 04             8464 	.byte	4
00000b46 03             8465 	.byte	3
00000b47 07             8466 	.byte	7
00000b48 12             8467 	.byte	18
00000b49 01             8468 	.byte	1
00000b4a bf02           8469 	.byte	191,2
00000b4c 44434d5f5354   8470 	.strz	"DCM_START_SEC_VAR_CLEARED_UNSPECIFIED "
00000b52 4152545f5345 
00000b58 435f5641525f 
00000b5e 434c45415245 
00000b64 445f554e5350 
00000b6a 454349464945 
00000b70 442000 
00000b73 03             8471 	.byte	3
00000b74 c002           8472 	.byte	192,2
00000b76 0c             8473 	.byte	12
00000b77 01             8474 	.byte	1
00000b78 06             8475 	.byte	6
00000b79 4d454d4d4150   8476 	.strz	"MEMMAP_ERROR "
00000b7f 5f4552524f52 
00000b85 2000 
00000b87 01             8477 	.byte	1
00000b88 c901           8478 	.byte	201,1
00000b8a 4253575f5354   8479 	.strz	"BSW_START_SEC_DEFAULT_RAM0_CLEARED_UNSPECIFIED "
00000b90 4152545f5345 
00000b96 435f44454641 
00000b9c 554c545f5241 
00000ba2 4d305f434c45 
00000ba8 415245445f55 
00000bae 4e5350454349 
00000bb4 464945442000 
00000bba 03             8480 	.byte	3
00000bbb ca01           8481 	.byte	202,1
00000bbd 0d             8482 	.byte	13
00000bbe 01             8483 	.byte	1
00000bbf 8a05           8484 	.byte	138,5
00000bc1 53544152545f   8485 	.strz	"START_SEC_VAR_CLEARED_UNSPECIFIED "
00000bc7 5345435f5641 
00000bcd 525f434c4541 
00000bd3 5245445f554e 
00000bd9 535045434946 
00000bdf 4945442000 
00000be4 03             8486 	.byte	3
00000be5 bb09           8487 	.byte	187,9
00000be7 0e             8488 	.byte	14
00000be8 01             8489 	.byte	1
00000be9 56             8490 	.byte	86
00000bea 53544152545f   8491 	.strz	"START_SEC_VAR_ZERO_INIT_UNSPECIFIED "
00000bf0 5345435f5641 
00000bf6 525f5a45524f 
00000bfc 5f494e49545f 
00000c02 554e53504543 
00000c08 494649454420 
00000c0e 00 
00000c0f 01             8492 	.byte	1
00000c10 840a           8493 	.byte	132,10
00000c12 5641525f5345   8494 	.strz	"VAR_SEC_OPEN "

                                                                      Page 164
                                                              C:\Users\nhuliyap\AppData\Local\Temp\gh_000075o1.s
00000c18 435f4f50454e 
00000c1e 2000 
00000c20 04             8495 	.byte	4
00000c21 04             8496 	.byte	4
00000c22 01             8497 	.byte	1
00000c23 ce01           8498 	.byte	206,1
00000c25 44434d5f5741   8499 	.strz	"DCM_WAS_STARTED_SEC_VAR_CLEARED_UNSPECIFIED "
00000c2b 535f53544152 
00000c31 5445445f5345 
00000c37 435f5641525f 
00000c3d 434c45415245 
00000c43 445f554e5350 
00000c49 454349464945 
00000c4f 442000 
00000c52 04             8500 	.byte	4
00000c53 01             8501 	.byte	1
00000c54 c202           8502 	.byte	194,2
00000c56 44434d5f5354   8503 	.strz	"DCM_STOP_SEC_VAR_CLEARED_UNSPECIFIED "
00000c5c 4f505f534543 
00000c62 5f5641525f43 
00000c68 4c4541524544 
00000c6e 5f554e535045 
00000c74 434946494544 
00000c7a 2000 
00000c7c 03             8504 	.byte	3
00000c7d c302           8505 	.byte	195,2
00000c7f 0c             8506 	.byte	12
00000c80 01             8507 	.byte	1
00000c81 06             8508 	.byte	6
00000c82 4d454d4d4150   8509 	.strz	"MEMMAP_ERROR "
00000c88 5f4552524f52 
00000c8e 2000 
00000c90 01             8510 	.byte	1
00000c91 d501           8511 	.byte	213,1
00000c93 4253575f5354   8512 	.strz	"BSW_STOP_SEC_DEFAULT_RAM0_CLEARED_UNSPECIFIED "
00000c99 4f505f534543 
00000c9f 5f4445464155 
00000ca5 4c545f52414d 
00000cab 305f434c4541 
00000cb1 5245445f554e 
00000cb7 535045434946 
00000cbd 4945442000 
00000cc2 03             8513 	.byte	3
00000cc3 d601           8514 	.byte	214,1
00000cc5 0d             8515 	.byte	13
00000cc6 01             8516 	.byte	1
00000cc7 8d05           8517 	.byte	141,5
00000cc9 53544f505f53   8518 	.strz	"STOP_SEC_VAR "
00000ccf 45435f564152 
00000cd5 2000 
00000cd7 03             8519 	.byte	3
00000cd8 bb09           8520 	.byte	187,9
00000cda 0e             8521 	.byte	14
00000cdb 04             8522 	.byte	4
00000cdc 04             8523 	.byte	4
00000cdd 04             8524 	.byte	4
00000cde 01             8525 	.byte	1
00000cdf c502           8526 	.byte	197,2
00000ce1 44434d5f5354   8527 	.strz	"DCM_START_SEC_CONST_UNSPECIFIED "
00000ce7 4152545f5345 
00000ced 435f434f4e53 

                                                                      Page 165
                                                              C:\Users\nhuliyap\AppData\Local\Temp\gh_000075o1.s
00000cf3 545f554e5350 
00000cf9 454349464945 
00000cff 442000 
00000d02 03             8528 	.byte	3
00000d03 c602           8529 	.byte	198,2
00000d05 0c             8530 	.byte	12
00000d06 01             8531 	.byte	1
00000d07 06             8532 	.byte	6
00000d08 4d454d4d4150   8533 	.strz	"MEMMAP_ERROR "
00000d0e 5f4552524f52 
00000d14 2000 
00000d16 01             8534 	.byte	1
00000d17 21             8535 	.byte	33
00000d18 4253575f5354   8536 	.strz	"BSW_START_SEC_DEFAULT_CONST_UNSPECIFIED "
00000d1e 4152545f5345 
00000d24 435f44454641 
00000d2a 554c545f434f 
00000d30 4e53545f554e 
00000d36 535045434946 
00000d3c 4945442000 
00000d41 03             8537 	.byte	3
00000d42 22             8538 	.byte	34
00000d43 0d             8539 	.byte	13
00000d44 01             8540 	.byte	1
00000d45 bc05           8541 	.byte	188,5
00000d47 53544152545f   8542 	.strz	"START_SEC_CONST_UNSPECIFIED "
00000d4d 5345435f434f 
00000d53 4e53545f554e 
00000d59 535045434946 
00000d5f 4945442000 
00000d64 03             8543 	.byte	3
00000d65 bb09           8544 	.byte	187,9
00000d67 0e             8545 	.byte	14
00000d68 01             8546 	.byte	1
00000d69 b408           8547 	.byte	180,8
00000d6b 434f4e53545f   8548 	.strz	"CONST_SEC_OPEN "
00000d71 5345435f4f50 
00000d77 454e2000 
00000d7b 04             8549 	.byte	4
00000d7c 04             8550 	.byte	4
00000d7d 01             8551 	.byte	1
00000d7e 26             8552 	.byte	38
00000d7f 44434d5f5741   8553 	.strz	"DCM_WAS_STARTED_SEC_CONST_UNSPECIFIED "
00000d85 535f53544152 
00000d8b 5445445f5345 
00000d91 435f434f4e53 
00000d97 545f554e5350 
00000d9d 454349464945 
00000da3 442000 
00000da6 04             8554 	.byte	4
00000da7 01             8555 	.byte	1
00000da8 c802           8556 	.byte	200,2
00000daa 44434d5f5354   8557 	.strz	"DCM_STOP_SEC_CONST_UNSPECIFIED "
00000db0 4f505f534543 
00000db6 5f434f4e5354 
00000dbc 5f554e535045 
00000dc2 434946494544 
00000dc8 2000 
00000dca 03             8558 	.byte	3
00000dcb c902           8559 	.byte	201,2
00000dcd 0c             8560 	.byte	12

                                                                      Page 166
                                                              C:\Users\nhuliyap\AppData\Local\Temp\gh_000075o1.s
00000dce 01             8561 	.byte	1
00000dcf 06             8562 	.byte	6
00000dd0 4d454d4d4150   8563 	.strz	"MEMMAP_ERROR "
00000dd6 5f4552524f52 
00000ddc 2000 
00000dde 01             8564 	.byte	1
00000ddf 2d             8565 	.byte	45
00000de0 4253575f5354   8566 	.strz	"BSW_STOP_SEC_DEFAULT_CONST_UNSPECIFIED "
00000de6 4f505f534543 
00000dec 5f4445464155 
00000df2 4c545f434f4e 
00000df8 53545f554e53 
00000dfe 504543494649 
00000e04 45442000 
00000e08 03             8567 	.byte	3
00000e09 2e             8568 	.byte	46
00000e0a 0d             8569 	.byte	13
00000e0b 01             8570 	.byte	1
00000e0c bf05           8571 	.byte	191,5
00000e0e 53544f505f53   8572 	.strz	"STOP_SEC_CONST "
00000e14 45435f434f4e 
00000e1a 53542000 
00000e1e 03             8573 	.byte	3
00000e1f bb09           8574 	.byte	187,9
00000e21 0e             8575 	.byte	14
00000e22 04             8576 	.byte	4
00000e23 04             8577 	.byte	4
00000e24 04             8578 	.byte	4
00000e25 01             8579 	.byte	1
00000e26 db02           8580 	.byte	219,2
00000e28 44434d5f5354   8581 	.strz	"DCM_START_SEC_CODE "
00000e2e 4152545f5345 
00000e34 435f434f4445 
00000e3a 2000 
00000e3c 03             8582 	.byte	3
00000e3d dc02           8583 	.byte	220,2
00000e3f 0c             8584 	.byte	12
00000e40 01             8585 	.byte	1
00000e41 06             8586 	.byte	6
00000e42 4d454d4d4150   8587 	.strz	"MEMMAP_ERROR "
00000e48 5f4552524f52 
00000e4e 2000 
00000e50 01             8588 	.byte	1
00000e51 0c             8589 	.byte	12
00000e52 4253575f5354   8590 	.strz	"BSW_START_SEC_DEFAULT_CODE "
00000e58 4152545f5345 
00000e5e 435f44454641 
00000e64 554c545f434f 
00000e6a 44452000 
00000e6e 03             8591 	.byte	3
00000e6f 0d             8592 	.byte	13
00000e70 0d             8593 	.byte	13
00000e71 01             8594 	.byte	1
00000e72 d308           8595 	.byte	211,8
00000e74 53544152545f   8596 	.strz	"START_SEC_CODE "
00000e7a 5345435f434f 
00000e80 44452000 
00000e84 03             8597 	.byte	3
00000e85 bb09           8598 	.byte	187,9
00000e87 0e             8599 	.byte	14
00000e88 01             8600 	.byte	1

                                                                      Page 167
                                                              C:\Users\nhuliyap\AppData\Local\Temp\gh_000075o1.s
00000e89 f307           8601 	.byte	243,7
00000e8b 434f44455f53   8602 	.strz	"CODE_SEC_OPEN "
00000e91 45435f4f5045 
00000e97 4e2000 
00000e9a 04             8603 	.byte	4
00000e9b 04             8604 	.byte	4
00000e9c 01             8605 	.byte	1
00000e9d 11             8606 	.byte	17
00000e9e 44434d5f5741   8607 	.strz	"DCM_WAS_STARTED_SEC_ROM_CODE "
00000ea4 535f53544152 
00000eaa 5445445f5345 
00000eb0 435f524f4d5f 
00000eb6 434f44452000 
00000ebc 04             8608 	.byte	4
00000ebd 01             8609 	.byte	1
00000ebe e202           8610 	.byte	226,2
00000ec0 44434d5f5354   8611 	.strz	"DCM_STOP_SEC_CODE "
00000ec6 4f505f534543 
00000ecc 5f434f444520 
00000ed2 00 
00000ed3 03             8612 	.byte	3
00000ed4 e302           8613 	.byte	227,2
00000ed6 0c             8614 	.byte	12
00000ed7 01             8615 	.byte	1
00000ed8 06             8616 	.byte	6
00000ed9 4d454d4d4150   8617 	.strz	"MEMMAP_ERROR "
00000edf 5f4552524f52 
00000ee5 2000 
00000ee7 01             8618 	.byte	1
00000ee8 18             8619 	.byte	24
00000ee9 4253575f5354   8620 	.strz	"BSW_STOP_SEC_DEFAULT_CODE "
00000eef 4f505f534543 
00000ef5 5f4445464155 
00000efb 4c545f434f44 
00000f01 452000 
00000f04 03             8621 	.byte	3
00000f05 19             8622 	.byte	25
00000f06 0d             8623 	.byte	13
00000f07 01             8624 	.byte	1
00000f08 d608           8625 	.byte	214,8
00000f0a 53544f505f53   8626 	.strz	"STOP_SEC_CODE "
00000f10 45435f434f44 
00000f16 452000 
00000f19 03             8627 	.byte	3
00000f1a bb09           8628 	.byte	187,9
00000f1c 0e             8629 	.byte	14
00000f1d 04             8630 	.byte	4
00000f1e 04             8631 	.byte	4
00000f1f 04             8632 	.byte	4
00000f20 01             8633 	.byte	1
00000f21 e502           8634 	.byte	229,2
00000f23 44434d5f5354   8635 	.strz	"DCM_START_SEC_CODE "
00000f29 4152545f5345 
00000f2f 435f434f4445 
00000f35 2000 
00000f37 03             8636 	.byte	3
00000f38 e602           8637 	.byte	230,2
00000f3a 0c             8638 	.byte	12
00000f3b 01             8639 	.byte	1
00000f3c 06             8640 	.byte	6
00000f3d 4d454d4d4150   8641 	.strz	"MEMMAP_ERROR "

                                                                      Page 168
                                                              C:\Users\nhuliyap\AppData\Local\Temp\gh_000075o1.s
00000f43 5f4552524f52 
00000f49 2000 
00000f4b 01             8642 	.byte	1
00000f4c 0c             8643 	.byte	12
00000f4d 4253575f5354   8644 	.strz	"BSW_START_SEC_DEFAULT_CODE "
00000f53 4152545f5345 
00000f59 435f44454641 
00000f5f 554c545f434f 
00000f65 44452000 
00000f69 03             8645 	.byte	3
00000f6a 0d             8646 	.byte	13
00000f6b 0d             8647 	.byte	13
00000f6c 01             8648 	.byte	1
00000f6d d308           8649 	.byte	211,8
00000f6f 53544152545f   8650 	.strz	"START_SEC_CODE "
00000f75 5345435f434f 
00000f7b 44452000 
00000f7f 03             8651 	.byte	3
00000f80 bb09           8652 	.byte	187,9
00000f82 0e             8653 	.byte	14
00000f83 01             8654 	.byte	1
00000f84 f307           8655 	.byte	243,7
00000f86 434f44455f53   8656 	.strz	"CODE_SEC_OPEN "
00000f8c 45435f4f5045 
00000f92 4e2000 
00000f95 04             8657 	.byte	4
00000f96 04             8658 	.byte	4
00000f97 01             8659 	.byte	1
00000f98 11             8660 	.byte	17
00000f99 44434d5f5741   8661 	.strz	"DCM_WAS_STARTED_SEC_ROM_CODE "
00000f9f 535f53544152 
00000fa5 5445445f5345 
00000fab 435f524f4d5f 
00000fb1 434f44452000 
00000fb7 04             8662 	.byte	4
00000fb8 01             8663 	.byte	1
00000fb9 e802           8664 	.byte	232,2
00000fbb 44434d5f5354   8665 	.strz	"DCM_STOP_SEC_CODE "
00000fc1 4f505f534543 
00000fc7 5f434f444520 
00000fcd 00 
00000fce 03             8666 	.byte	3
00000fcf e902           8667 	.byte	233,2
00000fd1 0c             8668 	.byte	12
00000fd2 01             8669 	.byte	1
00000fd3 06             8670 	.byte	6
00000fd4 4d454d4d4150   8671 	.strz	"MEMMAP_ERROR "
00000fda 5f4552524f52 
00000fe0 2000 
00000fe2 01             8672 	.byte	1
00000fe3 18             8673 	.byte	24
00000fe4 4253575f5354   8674 	.strz	"BSW_STOP_SEC_DEFAULT_CODE "
00000fea 4f505f534543 
00000ff0 5f4445464155 
00000ff6 4c545f434f44 
00000ffc 452000 
00000fff 03             8675 	.byte	3
00001000 19             8676 	.byte	25
00001001 0d             8677 	.byte	13
00001002 01             8678 	.byte	1
00001003 d608           8679 	.byte	214,8

                                                                      Page 169
                                                              C:\Users\nhuliyap\AppData\Local\Temp\gh_000075o1.s
00001005 53544f505f53   8680 	.strz	"STOP_SEC_CODE "
0000100b 45435f434f44 
00001011 452000 
00001014 03             8681 	.byte	3
00001015 bb09           8682 	.byte	187,9
00001017 0e             8683 	.byte	14
00001018 04             8684 	.byte	4
00001019 04             8685 	.byte	4
0000101a 04             8686 	.byte	4
0000101b 01             8687 	.byte	1
0000101c ec02           8688 	.byte	236,2
0000101e 44434d5f5354   8689 	.strz	"DCM_START_SEC_CODE "
00001024 4152545f5345 
0000102a 435f434f4445 
00001030 2000 
00001032 03             8690 	.byte	3
00001033 ed02           8691 	.byte	237,2
00001035 0c             8692 	.byte	12
00001036 01             8693 	.byte	1
00001037 06             8694 	.byte	6
00001038 4d454d4d4150   8695 	.strz	"MEMMAP_ERROR "
0000103e 5f4552524f52 
00001044 2000 
00001046 01             8696 	.byte	1
00001047 0c             8697 	.byte	12
00001048 4253575f5354   8698 	.strz	"BSW_START_SEC_DEFAULT_CODE "
0000104e 4152545f5345 
00001054 435f44454641 
0000105a 554c545f434f 
00001060 44452000 
00001064 03             8699 	.byte	3
00001065 0d             8700 	.byte	13
00001066 0d             8701 	.byte	13
00001067 01             8702 	.byte	1
00001068 d308           8703 	.byte	211,8
0000106a 53544152545f   8704 	.strz	"START_SEC_CODE "
00001070 5345435f434f 
00001076 44452000 
0000107a 03             8705 	.byte	3
0000107b bb09           8706 	.byte	187,9
0000107d 0e             8707 	.byte	14
0000107e 01             8708 	.byte	1
0000107f f307           8709 	.byte	243,7
00001081 434f44455f53   8710 	.strz	"CODE_SEC_OPEN "
00001087 45435f4f5045 
0000108d 4e2000 
00001090 04             8711 	.byte	4
00001091 04             8712 	.byte	4
00001092 01             8713 	.byte	1
00001093 11             8714 	.byte	17
00001094 44434d5f5741   8715 	.strz	"DCM_WAS_STARTED_SEC_ROM_CODE "
0000109a 535f53544152 
000010a0 5445445f5345 
000010a6 435f524f4d5f 
000010ac 434f44452000 
000010b2 04             8716 	.byte	4
000010b3 01             8717 	.byte	1
000010b4 8303           8718 	.byte	131,3
000010b6 44434d5f5354   8719 	.strz	"DCM_STOP_SEC_CODE "
000010bc 4f505f534543 
000010c2 5f434f444520 

                                                                      Page 170
                                                              C:\Users\nhuliyap\AppData\Local\Temp\gh_000075o1.s
000010c8 00 
000010c9 03             8720 	.byte	3
000010ca 8403           8721 	.byte	132,3
000010cc 0c             8722 	.byte	12
000010cd 01             8723 	.byte	1
000010ce 06             8724 	.byte	6
000010cf 4d454d4d4150   8725 	.strz	"MEMMAP_ERROR "
000010d5 5f4552524f52 
000010db 2000 
000010dd 01             8726 	.byte	1
000010de 18             8727 	.byte	24
000010df 4253575f5354   8728 	.strz	"BSW_STOP_SEC_DEFAULT_CODE "
000010e5 4f505f534543 
000010eb 5f4445464155 
000010f1 4c545f434f44 
000010f7 452000 
000010fa 03             8729 	.byte	3
000010fb 19             8730 	.byte	25
000010fc 0d             8731 	.byte	13
000010fd 01             8732 	.byte	1
000010fe d608           8733 	.byte	214,8
00001100 53544f505f53   8734 	.strz	"STOP_SEC_CODE "
00001106 45435f434f44 
0000110c 452000 
0000110f 03             8735 	.byte	3
00001110 bb09           8736 	.byte	187,9
00001112 0e             8737 	.byte	14
00001113 04             8738 	.byte	4
00001114 04             8739 	.byte	4
00001115 04             8740 	.byte	4
00001116 01             8741 	.byte	1
00001117 8603           8742 	.byte	134,3
00001119 44434d5f5354   8743 	.strz	"DCM_START_SEC_VAR_INIT_UNSPECIFIED "
0000111f 4152545f5345 
00001125 435f5641525f 
0000112b 494e49545f55 
00001131 4e5350454349 
00001137 464945442000 
0000113d 03             8744 	.byte	3
0000113e 8703           8745 	.byte	135,3
00001140 0c             8746 	.byte	12
00001141 01             8747 	.byte	1
00001142 06             8748 	.byte	6
00001143 4d454d4d4150   8749 	.strz	"MEMMAP_ERROR "
00001149 5f4552524f52 
0000114f 2000 
00001151 01             8750 	.byte	1
00001152 9b03           8751 	.byte	155,3
00001154 4253575f5354   8752 	.strz	"BSW_START_SEC_DEFAULT_RAM0_INIT_UNSPECIFIED "
0000115a 4152545f5345 
00001160 435f44454641 
00001166 554c545f5241 
0000116c 4d305f494e49 
00001172 545f554e5350 
00001178 454349464945 
0000117e 442000 
00001181 03             8753 	.byte	3
00001182 9c03           8754 	.byte	156,3
00001184 0d             8755 	.byte	13
00001185 01             8756 	.byte	1
00001186 9105           8757 	.byte	145,5

                                                                      Page 171
                                                              C:\Users\nhuliyap\AppData\Local\Temp\gh_000075o1.s
00001188 53544152545f   8758 	.strz	"START_SEC_VAR_INIT_UNSPECIFIED "
0000118e 5345435f5641 
00001194 525f494e4954 
0000119a 5f554e535045 
000011a0 434946494544 
000011a6 2000 
000011a8 03             8759 	.byte	3
000011a9 bb09           8760 	.byte	187,9
000011ab 0e             8761 	.byte	14
000011ac 01             8762 	.byte	1
000011ad a109           8763 	.byte	161,9
000011af 5641525f5345   8764 	.strz	"VAR_SEC_OPEN "
000011b5 435f4f50454e 
000011bb 2000 
000011bd 04             8765 	.byte	4
000011be 04             8766 	.byte	4
000011bf 01             8767 	.byte	1
000011c0 a003           8768 	.byte	160,3
000011c2 44434d5f5741   8769 	.strz	"DCM_WAS_STARTED_SEC_VAR_INIT_UNSPECIFIED "
000011c8 535f53544152 
000011ce 5445445f5345 
000011d4 435f5641525f 
000011da 494e49545f55 
000011e0 4e5350454349 
000011e6 464945442000 
000011ec 04             8770 	.byte	4
000011ed 01             8771 	.byte	1
000011ee 8903           8772 	.byte	137,3
000011f0 44434d5f5354   8773 	.strz	"DCM_STOP_SEC_VAR_INIT_UNSPECIFIED "
000011f6 4f505f534543 
000011fc 5f5641525f49 
00001202 4e49545f554e 
00001208 535045434946 
0000120e 4945442000 
00001213 03             8774 	.byte	3
00001214 8a03           8775 	.byte	138,3
00001216 0c             8776 	.byte	12
00001217 01             8777 	.byte	1
00001218 06             8778 	.byte	6
00001219 4d454d4d4150   8779 	.strz	"MEMMAP_ERROR "
0000121f 5f4552524f52 
00001225 2000 
00001227 01             8780 	.byte	1
00001228 a703           8781 	.byte	167,3
0000122a 4253575f5354   8782 	.strz	"BSW_STOP_SEC_DEFAULT_RAM0_INIT_UNSPECIFIED "
00001230 4f505f534543 
00001236 5f4445464155 
0000123c 4c545f52414d 
00001242 305f494e4954 
00001248 5f554e535045 
0000124e 434946494544 
00001254 2000 
00001256 03             8783 	.byte	3
00001257 a803           8784 	.byte	168,3
00001259 0d             8785 	.byte	13
0000125a 01             8786 	.byte	1
0000125b 9405           8787 	.byte	148,5
0000125d 53544f505f53   8788 	.strz	"STOP_SEC_VAR "
00001263 45435f564152 
00001269 2000 
0000126b 03             8789 	.byte	3

                                                                      Page 172
                                                              C:\Users\nhuliyap\AppData\Local\Temp\gh_000075o1.s
0000126c bb09           8790 	.byte	187,9
0000126e 0e             8791 	.byte	14
0000126f 04             8792 	.byte	4
00001270 04             8793 	.byte	4
00001271 04             8794 	.byte	4
00001272 01             8795 	.byte	1
00001273 8c03           8796 	.byte	140,3
00001275 44434d5f5354   8797 	.strz	"DCM_START_SEC_CONST_8 "
0000127b 4152545f5345 
00001281 435f434f4e53 
00001287 545f382000 
0000128c 03             8798 	.byte	3
0000128d 8d03           8799 	.byte	141,3
0000128f 0c             8800 	.byte	12
00001290 01             8801 	.byte	1
00001291 06             8802 	.byte	6
00001292 4d454d4d4150   8803 	.strz	"MEMMAP_ERROR "
00001298 5f4552524f52 
0000129e 2000 
000012a0 01             8804 	.byte	1
000012a1 36             8805 	.byte	54
000012a2 4253575f5354   8806 	.strz	"BSW_START_SEC_DEFAULT_CONST_8 "
000012a8 4152545f5345 
000012ae 435f44454641 
000012b4 554c545f434f 
000012ba 4e53545f3820 
000012c0 00 
000012c1 03             8807 	.byte	3
000012c2 37             8808 	.byte	55
000012c3 0d             8809 	.byte	13
000012c4 01             8810 	.byte	1
000012c5 c305           8811 	.byte	195,5
000012c7 53544152545f   8812 	.strz	"START_SEC_CONST_8 "
000012cd 5345435f434f 
000012d3 4e53545f3820 
000012d9 00 
000012da 03             8813 	.byte	3
000012db bb09           8814 	.byte	187,9
000012dd 0e             8815 	.byte	14
000012de 01             8816 	.byte	1
000012df 02             8817 	.byte	2
000012e0 53544152545f   8818 	.strz	"START_SEC_CONST_8BIT "
000012e6 5345435f434f 
000012ec 4e53545f3842 
000012f2 49542000 
000012f6 01             8819 	.byte	1
000012f7 8f08           8820 	.byte	143,8
000012f9 434f4e53545f   8821 	.strz	"CONST_SEC_OPEN "
000012ff 5345435f4f50 
00001305 454e2000 
00001309 04             8822 	.byte	4
0000130a 04             8823 	.byte	4
0000130b 01             8824 	.byte	1
0000130c 3b             8825 	.byte	59
0000130d 44434d5f5741   8826 	.strz	"DCM_WAS_STARTED_SEC_CONST_8 "
00001313 535f53544152 
00001319 5445445f5345 
0000131f 435f434f4e53 
00001325 545f382000 
0000132a 04             8827 	.byte	4
0000132b 01             8828 	.byte	1

                                                                      Page 173
                                                              C:\Users\nhuliyap\AppData\Local\Temp\gh_000075o1.s
0000132c 8f03           8829 	.byte	143,3
0000132e 44434d5f5354   8830 	.strz	"DCM_STOP_SEC_CONST_8 "
00001334 4f505f534543 
0000133a 5f434f4e5354 
00001340 5f382000 
00001344 03             8831 	.byte	3
00001345 9003           8832 	.byte	144,3
00001347 0c             8833 	.byte	12
00001348 01             8834 	.byte	1
00001349 06             8835 	.byte	6
0000134a 4d454d4d4150   8836 	.strz	"MEMMAP_ERROR "
00001350 5f4552524f52 
00001356 2000 
00001358 01             8837 	.byte	1
00001359 42             8838 	.byte	66
0000135a 4253575f5354   8839 	.strz	"BSW_STOP_SEC_DEFAULT_CONST_8 "
00001360 4f505f534543 
00001366 5f4445464155 
0000136c 4c545f434f4e 
00001372 53545f382000 
00001378 03             8840 	.byte	3
00001379 43             8841 	.byte	67
0000137a 0d             8842 	.byte	13
0000137b 01             8843 	.byte	1
0000137c c605           8844 	.byte	198,5
0000137e 53544f505f53   8845 	.strz	"STOP_SEC_CONST "
00001384 45435f434f4e 
0000138a 53542000 
0000138e 03             8846 	.byte	3
0000138f bb09           8847 	.byte	187,9
00001391 0e             8848 	.byte	14
00001392 04             8849 	.byte	4
00001393 04             8850 	.byte	4
00001394 04             8851 	.byte	4
00001395 04             8852 	.byte	4
00001396 03             8853 	.byte	3
00001397 0a             8854 	.byte	10
00001398 13             8855 	.byte	19
00001399 01             8856 	.byte	1
0000139a 04             8857 	.byte	4
0000139b 44434d5f4346   8858 	.strz	"DCM_CFG_DSP_DIAGNOSTICSESSIONCONTROL_ENABLED DCM_CFG_ON"
000013a1 475f4453505f 
000013a7 444941474e4f 
000013ad 535449435345 
000013b3 5353494f4e43 
000013b9 4f4e54524f4c 
000013bf 5f454e41424c 
000013c5 45442044434d 
000013cb 5f4346475f4f 
000013d1 4e00 
000013d3 01             8859 	.byte	1
000013d4 05             8860 	.byte	5
000013d5 44434d5f4346   8861 	.strz	"DCM_CFG_DSP_ECURESET_ENABLED DCM_CFG_ON"
000013db 475f4453505f 
000013e1 454355524553 
000013e7 45545f454e41 
000013ed 424c45442044 
000013f3 434d5f434647 
000013f9 5f4f4e00 
000013fd 01             8862 	.byte	1
000013fe 06             8863 	.byte	6

                                                                      Page 174
                                                              C:\Users\nhuliyap\AppData\Local\Temp\gh_000075o1.s
000013ff 44434d5f4346   8864 	.strz	"DCM_CFG_DSP_SECURITYACCESS_ENABLED DCM_CFG_ON"
00001405 475f4453505f 
0000140b 534543555249 
00001411 545941434345 
00001417 53535f454e41 
0000141d 424c45442044 
00001423 434d5f434647 
00001429 5f4f4e00 
0000142d 01             8865 	.byte	1
0000142e 09             8866 	.byte	9
0000142f 44434d5f4346   8867 	.strz	"DCM_CFG_DSP_CONTROLDTCSETTING_ENABLED DCM_CFG_ON"
00001435 475f4453505f 
0000143b 434f4e54524f 
00001441 4c4454435345 
00001447 5454494e475f 
0000144d 454e41424c45 
00001453 442044434d5f 
00001459 4346475f4f4e 
0000145f 00 
00001460 01             8868 	.byte	1
00001461 0a             8869 	.byte	10
00001462 44434d5f4346   8870 	.strz	"DCM_CFG_DSP_CLEARDIAGNOSTICINFORMATION_ENABLED DCM_CFG_ON"
00001468 475f4453505f 
0000146e 434c45415244 
00001474 4941474e4f53 
0000147a 544943494e46 
00001480 4f524d415449 
00001486 4f4e5f454e41 
0000148c 424c45442044 
00001492 434d5f434647 
00001498 5f4f4e00 
0000149c 01             8871 	.byte	1
0000149d 0b             8872 	.byte	11
0000149e 44434d5f4346   8873 	.strz	"DCM_CFG_DSP_ROUTINECONTROL_ENABLED DCM_CFG_ON"
000014a4 475f4453505f 
000014aa 524f5554494e 
000014b0 45434f4e5452 
000014b6 4f4c5f454e41 
000014bc 424c45442044 
000014c2 434d5f434647 
000014c8 5f4f4e00 
000014cc 01             8874 	.byte	1
000014cd 0c             8875 	.byte	12
000014ce 44434d5f4346   8876 	.strz	"DCM_CFG_DSP_IOCBI_ENABLED DCM_CFG_OFF"
000014d4 475f4453505f 
000014da 494f4342495f 
000014e0 454e41424c45 
000014e6 442044434d5f 
000014ec 4346475f4f46 
000014f2 4600 
000014f4 01             8877 	.byte	1
000014f5 0d             8878 	.byte	13
000014f6 5242415f4443   8879 	.strz	"RBA_DCMPMA_CFG_PLANTMODEACTIVATION_ENABLED DCM_CFG_OFF"
000014fc 4d504d415f43 
00001502 46475f504c41 
00001508 4e544d4f4445 
0000150e 414354495641 
00001514 54494f4e5f45 
0000151a 4e41424c4544 
00001520 2044434d5f43 
00001526 46475f4f4646 

                                                                      Page 175
                                                              C:\Users\nhuliyap\AppData\Local\Temp\gh_000075o1.s
0000152c 00 
0000152d 01             8880 	.byte	1
0000152e 0e             8881 	.byte	14
0000152f 44434d5f4346   8882 	.strz	"DCM_CFG_DSP_READDATABYIDENTIFIER_ENABLED DCM_CFG_ON"
00001535 475f4453505f 
0000153b 524541444441 
00001541 544142594944 
00001547 454e54494649 
0000154d 45525f454e41 
00001553 424c45442044 
00001559 434d5f434647 
0000155f 5f4f4e00 
00001563 01             8883 	.byte	1
00001564 0f             8884 	.byte	15
00001565 44434d5f4346   8885 	.strz	"DCM_CFG_DSP_WRITEDATABYIDENTIFIER_ENABLED DCM_CFG_ON"
0000156b 475f4453505f 
00001571 575249544544 
00001577 415441425949 
0000157d 44454e544946 
00001583 4945525f454e 
00001589 41424c454420 
0000158f 44434d5f4346 
00001595 475f4f4e00 
0000159a 01             8886 	.byte	1
0000159b 10             8887 	.byte	16
0000159c 44434d5f4346   8888 	.strz	"DCM_CFG_DSP_TRANSFERDATA_ENABLED DCM_CFG_ON"
000015a2 475f4453505f 
000015a8 5452414e5346 
000015ae 455244415441 
000015b4 5f454e41424c 
000015ba 45442044434d 
000015c0 5f4346475f4f 
000015c6 4e00 
000015c8 01             8889 	.byte	1
000015c9 11             8890 	.byte	17
000015ca 44434d5f4346   8891 	.strz	"DCM_CFG_DSP_DATA_ASYNCHCS_ENABLED DCM_CFG_OFF"
000015d0 475f4453505f 
000015d6 444154415f41 
000015dc 53594e434843 
000015e2 535f454e4142 
000015e8 4c4544204443 
000015ee 4d5f4346475f 
000015f4 4f464600 
000015f8 01             8892 	.byte	1
000015f9 13             8893 	.byte	19
000015fa 44434d5f4346   8894 	.strz	"DCM_CFG_DSP_READ_ASP_ENABLED DCM_CFG_OFF"
00001600 475f4453505f 
00001606 524541445f41 
0000160c 53505f454e41 
00001612 424c45442044 
00001618 434d5f434647 
0000161e 5f4f464600 
00001623 01             8895 	.byte	1
00001624 14             8896 	.byte	20
00001625 44434d5f4346   8897 	.strz	"DCM_CFG_DSP_WRITE_ASP_ENABLED DCM_CFG_OFF"
0000162b 475f4453505f 
00001631 57524954455f 
00001637 4153505f454e 
0000163d 41424c454420 
00001643 44434d5f4346 
00001649 475f4f464600 

                                                                      Page 176
                                                              C:\Users\nhuliyap\AppData\Local\Temp\gh_000075o1.s
0000164f 01             8898 	.byte	1
00001650 19             8899 	.byte	25
00001651 44434d5f4346   8900 	.strz	"DCM_CFG_DSP_WRITE_SR_ENABLED DCM_CFG_OFF"
00001657 475f4453505f 
0000165d 57524954455f 
00001663 53525f454e41 
00001669 424c45442044 
0000166f 434d5f434647 
00001675 5f4f464600 
0000167a 01             8901 	.byte	1
0000167b 23             8902 	.byte	35
0000167c 44434d5f4346   8903 	.strz	"DCM_CFG_DSP_DYNAMICALLYDEFINEIDENTIFIER_ENABLED DCM_CFG_OFF"
00001682 475f4453505f 
00001688 44594e414d49 
0000168e 43414c4c5944 
00001694 4546494e4549 
0000169a 44454e544946 
000016a0 4945525f454e 
000016a6 41424c454420 
000016ac 44434d5f4346 
000016b2 475f4f464600 
000016b8 01             8904 	.byte	1
000016b9 24             8905 	.byte	36
000016ba 44434d5f4346   8906 	.strz	"DCM_CFG_DSP_COMMUNICATIONCONTROL_ENABLED DCM_CFG_ON"
000016c0 475f4453505f 
000016c6 434f4d4d554e 
000016cc 49434154494f 
000016d2 4e434f4e5452 
000016d8 4f4c5f454e41 
000016de 424c45442044 
000016e4 434d5f434647 
000016ea 5f4f4e00 
000016ee 01             8907 	.byte	1
000016ef 25             8908 	.byte	37
000016f0 44434d5f4346   8909 	.strz	"DCM_CFG_DSP_REQUESTUPLOAD_ENABLED DCM_CFG_OFF"
000016f6 475f4453505f 
000016fc 524551554553 
00001702 5455504c4f41 
00001708 445f454e4142 
0000170e 4c4544204443 
00001714 4d5f4346475f 
0000171a 4f464600 
0000171e 01             8910 	.byte	1
0000171f 26             8911 	.byte	38
00001720 44434d5f4346   8912 	.strz	"DCM_CFG_DSP_REQUESTDOWNLOAD_ENABLED DCM_CFG_ON"
00001726 475f4453505f 
0000172c 524551554553 
00001732 54444f574e4c 
00001738 4f41445f454e 
0000173e 41424c454420 
00001744 44434d5f4346 
0000174a 475f4f4e00 
0000174f 01             8913 	.byte	1
00001750 27             8914 	.byte	39
00001751 44434d5f4346   8915 	.strz	"DCM_CFG_DSP_REQUESTTRANSFEREXIT_ENABLED DCM_CFG_ON"
00001757 475f4453505f 
0000175d 524551554553 
00001763 545452414e53 
00001769 464552455849 
0000176f 545f454e4142 
00001775 4c4544204443 

                                                                      Page 177
                                                              C:\Users\nhuliyap\AppData\Local\Temp\gh_000075o1.s
0000177b 4d5f4346475f 
00001781 4f4e00 
00001784 01             8916 	.byte	1
00001785 28             8917 	.byte	40
00001786 44434d5f4346   8918 	.strz	"DCM_CFG_DSP_RESPONSEONEVENT_ENABLED DCM_CFG_OFF"
0000178c 475f4453505f 
00001792 524553504f4e 
00001798 53454f4e4556 
0000179e 454e545f454e 
000017a4 41424c454420 
000017aa 44434d5f4346 
000017b0 475f4f464600 
000017b6 01             8919 	.byte	1
000017b7 2a             8920 	.byte	42
000017b8 44434d5f4346   8921 	.strz	"DCM_CFG_DSP_READMEMORYBYADDRESS_ENABLED DCM_CFG_OFF"
000017be 475f4453505f 
000017c4 524541444d45 
000017ca 4d4f52594259 
000017d0 414444524553 
000017d6 535f454e4142 
000017dc 4c4544204443 
000017e2 4d5f4346475f 
000017e8 4f464600 
000017ec 01             8922 	.byte	1
000017ed 2b             8923 	.byte	43
000017ee 44434d5f4346   8924 	.strz	"DCM_CFG_DSP_WRITEMEMORYBYADDRESS_ENABLED DCM_CFG_OFF"
000017f4 475f4453505f 
000017fa 57524954454d 
00001800 454d4f525942 
00001806 594144445245 
0000180c 53535f454e41 
00001812 424c45442044 
00001818 434d5f434647 
0000181e 5f4f464600 
00001823 01             8925 	.byte	1
00001824 2c             8926 	.byte	44
00001825 44434d5f4346   8927 	.strz	"DCM_CFG_DSP_READDATABYPERIODICIDENTIFIER_ENABLED DCM_CFG_OFF"
0000182b 475f4453505f 
00001831 524541444441 
00001837 544142595045 
0000183d 52494f444943 
00001843 4944454e5449 
00001849 464945525f45 
0000184f 4e41424c4544 
00001855 2044434d5f43 
0000185b 46475f4f4646 
00001861 00 
00001862 01             8928 	.byte	1
00001863 2d             8929 	.byte	45
00001864 44434d5f4346   8930 	.strz	"DCM_CFG_DSP_READDTCINFORMATION_ENABLED DCM_CFG_ON"
0000186a 475f4453505f 
00001870 524541444454 
00001876 43494e464f52 
0000187c 4d4154494f4e 
00001882 5f454e41424c 
00001888 45442044434d 
0000188e 5f4346475f4f 
00001894 4e00 
00001896 01             8931 	.byte	1
00001897 2f             8932 	.byte	47
00001898 44434d5f4346   8933 	.strz	"DCM_CFG_DSP_RDTCSUBFUNC_0x02_ENABLED DCM_CFG_ON"

                                                                      Page 178
                                                              C:\Users\nhuliyap\AppData\Local\Temp\gh_000075o1.s
0000189e 475f4453505f 
000018a4 524454435355 
000018aa 4246554e435f 
000018b0 307830325f45 
000018b6 4e41424c4544 
000018bc 2044434d5f43 
000018c2 46475f4f4e00 
000018c8 01             8934 	.byte	1
000018c9 35             8935 	.byte	53
000018ca 44434d5f4346   8936 	.strz	"DCM_CFG_DSP_RDTCSUBFUNC_0x08_ENABLED DCM_CFG_OFF"
000018d0 475f4453505f 
000018d6 524454435355 
000018dc 4246554e435f 
000018e2 307830385f45 
000018e8 4e41424c4544 
000018ee 2044434d5f43 
000018f4 46475f4f4646 
000018fa 00 
000018fb 01             8937 	.byte	1
000018fc 37             8938 	.byte	55
000018fd 44434d5f4346   8939 	.strz	"DCM_CFG_DSP_RDTCSUBFUNC_0x0A_ENABLED DCM_CFG_ON"
00001903 475f4453505f 
00001909 524454435355 
0000190f 4246554e435f 
00001915 307830415f45 
0000191b 4e41424c4544 
00001921 2044434d5f43 
00001927 46475f4f4e00 
0000192d 01             8940 	.byte	1
0000192e 3c             8941 	.byte	60
0000192f 44434d5f4346   8942 	.strz	"DCM_CFG_DSP_RDTCSUBFUNC_0x0F_ENABLED DCM_CFG_OFF"
00001935 475f4453505f 
0000193b 524454435355 
00001941 4246554e435f 
00001947 307830465f45 
0000194d 4e41424c4544 
00001953 2044434d5f43 
00001959 46475f4f4646 
0000195f 00 
00001960 01             8943 	.byte	1
00001961 40             8944 	.byte	64
00001962 44434d5f4346   8945 	.strz	"DCM_CFG_DSP_RDTCSUBFUNC_0x13_ENABLED DCM_CFG_OFF"
00001968 475f4453505f 
0000196e 524454435355 
00001974 4246554e435f 
0000197a 307831335f45 
00001980 4e41424c4544 
00001986 2044434d5f43 
0000198c 46475f4f4646 
00001992 00 
00001993 01             8946 	.byte	1
00001994 41             8947 	.byte	65
00001995 44434d5f4346   8948 	.strz	"DCM_CFG_DSP_RDTCSUBFUNC_0x14_ENABLED DCM_CFG_OFF"
0000199b 475f4453505f 
000019a1 524454435355 
000019a7 4246554e435f 
000019ad 307831345f45 
000019b3 4e41424c4544 
000019b9 2044434d5f43 
000019bf 46475f4f4646 
000019c5 00 

                                                                      Page 179
                                                              C:\Users\nhuliyap\AppData\Local\Temp\gh_000075o1.s
000019c6 01             8949 	.byte	1
000019c7 42             8950 	.byte	66
000019c8 44434d5f4346   8951 	.strz	"DCM_CFG_DSP_RDTCSUBFUNC_0x15_ENABLED DCM_CFG_OFF"
000019ce 475f4453505f 
000019d4 524454435355 
000019da 4246554e435f 
000019e0 307831355f45 
000019e6 4e41424c4544 
000019ec 2044434d5f43 
000019f2 46475f4f4646 
000019f8 00 
000019f9 01             8952 	.byte	1
000019fa 43             8953 	.byte	67
000019fb 44434d5f4346   8954 	.strz	"DCM_CFG_DSP_RDTCSUBFUNC_0x17_ENABLED DCM_CFG_OFF"
00001a01 475f4453505f 
00001a07 524454435355 
00001a0d 4246554e435f 
00001a13 307831375f45 
00001a19 4e41424c4544 
00001a1f 2044434d5f43 
00001a25 46475f4f4646 
00001a2b 00 
00001a2c 01             8955 	.byte	1
00001a2d 46             8956 	.byte	70
00001a2e 44434d5f4346   8957 	.strz	"DCM_CFG_NUMRDTCSUBFUNC 5u"
00001a34 475f4e554d52 
00001a3a 445443535542 
00001a40 46554e432035 
00001a46 7500 
00001a48 01             8958 	.byte	1
00001a49 4a             8959 	.byte	74
00001a4a 44434d5f4346   8960 	.strz	"DCM_CFG_DSP_CDI_CONDITIONCHECK_ENABLED DCM_CFG_OFF"
00001a50 475f4453505f 
00001a56 4344495f434f 
00001a5c 4e444954494f 
00001a62 4e434845434b 
00001a68 5f454e41424c 
00001a6e 45442044434d 
00001a74 5f4346475f4f 
00001a7a 464600 
00001a7d 01             8961 	.byte	1
00001a7e 4b             8962 	.byte	75
00001a7f 44434d5f4346   8963 	.strz	"DCM_CFG_DSP_NUMSESSIONS 5u"
00001a85 475f4453505f 
00001a8b 4e554d534553 
00001a91 53494f4e5320 
00001a97 357500 
00001a9a 01             8964 	.byte	1
00001a9b 4d             8965 	.byte	77
00001a9c 44434d5f4346   8966 	.strz	"DCM_CFG_DSP_SECA_ASP_ENABLED DCM_CFG_OFF"
00001aa2 475f4453505f 
00001aa8 534543415f41 
00001aae 53505f454e41 
00001ab4 424c45442044 
00001aba 434d5f434647 
00001ac0 5f4f464600 
00001ac5 01             8967 	.byte	1
00001ac6 4e             8968 	.byte	78
00001ac7 44434d5f4346   8969 	.strz	"DCM_CFG_DSP_NUMSECURITY 2u"
00001acd 475f4453505f 
00001ad3 4e554d534543 

                                                                      Page 180
                                                              C:\Users\nhuliyap\AppData\Local\Temp\gh_000075o1.s
00001ad9 555249545920 
00001adf 327500 
00001ae2 01             8970 	.byte	1
00001ae3 4f             8971 	.byte	79
00001ae4 44434d5f4346   8972 	.strz	"DCM_CFG_DSP_USE_ASYNCH_FNC DCM_CFG_ON"
00001aea 475f4453505f 
00001af0 5553455f4153 
00001af6 594e43485f46 
00001afc 4e432044434d 
00001b02 5f4346475f4f 
00001b08 4e00 
00001b0a 01             8973 	.byte	1
00001b0b 50             8974 	.byte	80
00001b0c 44434d5f4346   8975 	.strz	"DCM_CFG_DSP_USE_ASYNCH_CLIENT_SERVER DCM_CFG_OFF"
00001b12 475f4453505f 
00001b18 5553455f4153 
00001b1e 594e43485f43 
00001b24 4c49454e545f 
00001b2a 534552564552 
00001b30 2044434d5f43 
00001b36 46475f4f4646 
00001b3c 00 
00001b3d 01             8976 	.byte	1
00001b3e 5a             8977 	.byte	90
00001b3f 44434d5f4346   8978 	.strz	"DCM_CFG_DSP_SECA_ATTEMPT_COUNTER DCM_CFG_OFF"
00001b45 475f4453505f 
00001b4b 534543415f41 
00001b51 5454454d5054 
00001b57 5f434f554e54 
00001b5d 45522044434d 
00001b63 5f4346475f4f 
00001b69 464600 
00001b6c 01             8979 	.byte	1
00001b6d 5b             8980 	.byte	91
00001b6e 44434d5f4346   8981 	.strz	"DCM_CFG_DSP_SECA_STORESEED DCM_CFG_OFF"
00001b74 475f4453505f 
00001b7a 534543415f53 
00001b80 544f52455345 
00001b86 45442044434d 
00001b8c 5f4346475f4f 
00001b92 464600 
00001b95 01             8982 	.byte	1
00001b96 5c             8983 	.byte	92
00001b97 44434d5f4346   8984 	.strz	"DCM_CFG_DSP_DELAYTIMERMONITORING DCM_PRV_REQUEST_SEED"
00001b9d 475f4453505f 
00001ba3 44454c415954 
00001ba9 494d45524d4f 
00001baf 4e49544f5249 
00001bb5 4e472044434d 
00001bbb 5f5052565f52 
00001bc1 455155455354 
00001bc7 5f5345454400 
00001bcd 01             8985 	.byte	1
00001bce 5d             8986 	.byte	93
00001bcf 44434d5f4346   8987 	.strz	"DCM_CFG_DSP_NRC0x36MAXDELAYCOUNT DCM_CFG_ON"
00001bd5 475f4453505f 
00001bdb 4e5243307833 
00001be1 364d41584445 
00001be7 4c4159434f55 
00001bed 4e542044434d 
00001bf3 5f4346475f4f 

                                                                      Page 181
                                                              C:\Users\nhuliyap\AppData\Local\Temp\gh_000075o1.s
00001bf9 4e00 
00001bfb 01             8988 	.byte	1
00001bfc 68             8989 	.byte	104
00001bfd 44434d5f4346   8990 	.strz	"DCM_CFG_DSP_NUMISDIDAVAIL 0u"
00001c03 475f4453505f 
00001c09 4e554d495344 
00001c0f 494441564149 
00001c15 4c20307500 
00001c1a 01             8991 	.byte	1
00001c1b 6b             8992 	.byte	107
00001c1c 44434d5f4346   8993 	.strz	"DCM_CFG_DSP_READ_SR_ENABLED DCM_CFG_OFF"
00001c22 475f4453505f 
00001c28 524541445f53 
00001c2e 525f454e4142 
00001c34 4c4544204443 
00001c3a 4d5f4346475f 
00001c40 4f464600 
00001c44 01             8994 	.byte	1
00001c45 77             8995 	.byte	119
00001c46 44434d5f4346   8996 	.strz	"DCM_CFG_DSP_MODERULEFORDIDREAD DCM_CFG_OFF"
00001c4c 475f4453505f 
00001c52 4d4f44455255 
00001c58 4c45464f5244 
00001c5e 494452454144 
00001c64 2044434d5f43 
00001c6a 46475f4f4646 
00001c70 00 
00001c71 01             8997 	.byte	1
00001c72 78             8998 	.byte	120
00001c73 44434d5f4346   8999 	.strz	"DCM_CFG_DSP_MODERULEFORDIDWRITE DCM_CFG_OFF"
00001c79 475f4453505f 
00001c7f 4d4f44455255 
00001c85 4c45464f5244 
00001c8b 494457524954 
00001c91 452044434d5f 
00001c97 4346475f4f46 
00001c9d 4600 
00001c9f 01             9000 	.byte	1
00001ca0 7d             9001 	.byte	125
00001ca1 44434d5f4346   9002 	.strz	"DCM_CFG_DIDRANGE_EXTENSION DCM_CFG_OFF"
00001ca7 475f44494452 
00001cad 414e47455f45 
00001cb3 5854454e5349 
00001cb9 4f4e2044434d 
00001cbf 5f4346475f4f 
00001cc5 464600 
00001cc8 01             9003 	.byte	1
00001cc9 7f             9004 	.byte	127
00001cca 44434d5f4346   9005 	.strz	"DCM_CFG_DIDSUPPORT DCM_CFG_ON"
00001cd0 475f44494453 
00001cd6 5550504f5254 
00001cdc 2044434d5f43 
00001ce2 46475f4f4e00 
00001ce8 01             9006 	.byte	1
00001ce9 8001           9007 	.byte	128,1
00001ceb 44434d5f4346   9008 	.strz	"DCM_CFG_DSP_ROEDID_ENABLED DCM_CFG_OFF"
00001cf1 475f4453505f 
00001cf7 524f45444944 
00001cfd 5f454e41424c 
00001d03 45442044434d 
00001d09 5f4346475f4f 

                                                                      Page 182
                                                              C:\Users\nhuliyap\AppData\Local\Temp\gh_000075o1.s
00001d0f 464600 
00001d12 01             9009 	.byte	1
00001d13 8101           9010 	.byte	129,1
00001d15 44434d5f4346   9011 	.strz	"DCM_CFG_DSP_ROEONDTCSTATUSCHANGE_ENABLED DCM_CFG_OFF"
00001d1b 475f4453505f 
00001d21 524f454f4e44 
00001d27 544353544154 
00001d2d 55534348414e 
00001d33 47455f454e41 
00001d39 424c45442044 
00001d3f 434d5f434647 
00001d45 5f4f464600 
00001d4a 01             9012 	.byte	1
00001d4b 8d01           9013 	.byte	141,1
00001d4d 44434d5f4346   9014 	.strz	"DCM_CFG_RDBIPAGEDBUFFERSUPPORT DCM_CFG_OFF"
00001d53 475f52444249 
00001d59 504147454442 
00001d5f 554646455253 
00001d65 5550504f5254 
00001d6b 2044434d5f43 
00001d71 46475f4f4646 
00001d77 00 
00001d78 01             9015 	.byte	1
00001d79 8e01           9016 	.byte	142,1
00001d7b 44434d5f4346   9017 	.strz	"DCM_CFG_RDTCPAGEDBUFFERSUPPORT DCM_CFG_OFF"
00001d81 475f52445443 
00001d87 504147454442 
00001d8d 554646455253 
00001d93 5550504f5254 
00001d99 2044434d5f43 
00001d9f 46475f4f4646 
00001da5 00 
00001da6 01             9018 	.byte	1
00001da7 9501           9019 	.byte	149,1
00001da9 44434d5f4346   9020 	.strz	"DCM_CFG_NUM_SPECIFIC_SUBNETS 0x00"
00001daf 475f4e554d5f 
00001db5 535045434946 
00001dbb 49435f535542 
00001dc1 4e4554532030 
00001dc7 78303000 
00001dcb 01             9021 	.byte	1
00001dcc 9601           9022 	.byte	150,1
00001dce 44434d5f4346   9023 	.strz	"DCM_CFG_NUM_ALLCHANNELS_MODE_INFO 1"
00001dd4 475f4e554d5f 
00001dda 414c4c434841 
00001de0 4e4e454c535f 
00001de6 4d4f44455f49 
00001dec 4e464f203100 
00001df2 01             9024 	.byte	1
00001df3 9701           9025 	.byte	151,1
00001df5 44434d5f4346   9026 	.strz	"DCM_CFG_DSP_MODERULEFORCC DCM_CFG_OFF"
00001dfb 475f4453505f 
00001e01 4d4f44455255 
00001e07 4c45464f5243 
00001e0d 432044434d5f 
00001e13 4346475f4f46 
00001e19 4600 
00001e1b 01             9027 	.byte	1
00001e1c 9a01           9028 	.byte	154,1
00001e1e 44434d5f4346   9029 	.strz	"DCM_CFG_VIN_SUPPORTED DCM_CFG_ON"
00001e24 475f56494e5f 

                                                                      Page 183
                                                              C:\Users\nhuliyap\AppData\Local\Temp\gh_000075o1.s
00001e2a 535550504f52 
00001e30 544544204443 
00001e36 4d5f4346475f 
00001e3c 4f4e00 
00001e3f 01             9030 	.byte	1
00001e40 9f01           9031 	.byte	159,1
00001e42 44434d5f4346   9032 	.strz	"DCM_CFG_ROUTINEVARLENGTH DCM_CFG_OFF"
00001e48 475f524f5554 
00001e4e 494e45564152 
00001e54 4c454e475448 
00001e5a 2044434d5f43 
00001e60 46475f4f4646 
00001e66 00 
00001e67 04             9033 	.byte	4
00001e68 03             9034 	.byte	3
00001e69 0b             9035 	.byte	11
00001e6a 14             9036 	.byte	20
00001e6b 01             9037 	.byte	1
00001e6c 05             9038 	.byte	5
00001e6d 44434d5f5354   9039 	.strz	"DCM_START_SEC_CODE "
00001e73 4152545f5345 
00001e79 435f434f4445 
00001e7f 2000 
00001e81 03             9040 	.byte	3
00001e82 06             9041 	.byte	6
00001e83 0c             9042 	.byte	12
00001e84 01             9043 	.byte	1
00001e85 06             9044 	.byte	6
00001e86 4d454d4d4150   9045 	.strz	"MEMMAP_ERROR "
00001e8c 5f4552524f52 
00001e92 2000 
00001e94 01             9046 	.byte	1
00001e95 0c             9047 	.byte	12
00001e96 4253575f5354   9048 	.strz	"BSW_START_SEC_DEFAULT_CODE "
00001e9c 4152545f5345 
00001ea2 435f44454641 
00001ea8 554c545f434f 
00001eae 44452000 
00001eb2 03             9049 	.byte	3
00001eb3 0d             9050 	.byte	13
00001eb4 0d             9051 	.byte	13
00001eb5 01             9052 	.byte	1
00001eb6 d308           9053 	.byte	211,8
00001eb8 53544152545f   9054 	.strz	"START_SEC_CODE "
00001ebe 5345435f434f 
00001ec4 44452000 
00001ec8 03             9055 	.byte	3
00001ec9 bb09           9056 	.byte	187,9
00001ecb 0e             9057 	.byte	14
00001ecc 01             9058 	.byte	1
00001ecd f307           9059 	.byte	243,7
00001ecf 434f44455f53   9060 	.strz	"CODE_SEC_OPEN "
00001ed5 45435f4f5045 
00001edb 4e2000 
00001ede 04             9061 	.byte	4
00001edf 04             9062 	.byte	4
00001ee0 01             9063 	.byte	1
00001ee1 11             9064 	.byte	17
00001ee2 44434d5f5741   9065 	.strz	"DCM_WAS_STARTED_SEC_ROM_CODE "
00001ee8 535f53544152 
00001eee 5445445f5345 

                                                                      Page 184
                                                              C:\Users\nhuliyap\AppData\Local\Temp\gh_000075o1.s
00001ef4 435f524f4d5f 
00001efa 434f44452000 
00001f00 04             9066 	.byte	4
00001f01 01             9067 	.byte	1
00001f02 08             9068 	.byte	8
00001f03 44434d5f5354   9069 	.strz	"DCM_STOP_SEC_CODE "
00001f09 4f505f534543 
00001f0f 5f434f444520 
00001f15 00 
00001f16 03             9070 	.byte	3
00001f17 09             9071 	.byte	9
00001f18 0c             9072 	.byte	12
00001f19 01             9073 	.byte	1
00001f1a 06             9074 	.byte	6
00001f1b 4d454d4d4150   9075 	.strz	"MEMMAP_ERROR "
00001f21 5f4552524f52 
00001f27 2000 
00001f29 01             9076 	.byte	1
00001f2a 18             9077 	.byte	24
00001f2b 4253575f5354   9078 	.strz	"BSW_STOP_SEC_DEFAULT_CODE "
00001f31 4f505f534543 
00001f37 5f4445464155 
00001f3d 4c545f434f44 
00001f43 452000 
00001f46 03             9079 	.byte	3
00001f47 19             9080 	.byte	25
00001f48 0d             9081 	.byte	13
00001f49 01             9082 	.byte	1
00001f4a d608           9083 	.byte	214,8
00001f4c 53544f505f53   9084 	.strz	"STOP_SEC_CODE "
00001f52 45435f434f44 
00001f58 452000 
00001f5b 03             9085 	.byte	3
00001f5c bb09           9086 	.byte	187,9
00001f5e 0e             9087 	.byte	14
00001f5f 04             9088 	.byte	4
00001f60 04             9089 	.byte	4
00001f61 04             9090 	.byte	4
00001f62 01             9091 	.byte	1
00001f63 0a             9092 	.byte	10
00001f64 44434d5f5354   9093 	.strz	"DCM_START_SEC_CODE "
00001f6a 4152545f5345 
00001f70 435f434f4445 
00001f76 2000 
00001f78 03             9094 	.byte	3
00001f79 0b             9095 	.byte	11
00001f7a 0c             9096 	.byte	12
00001f7b 01             9097 	.byte	1
00001f7c 06             9098 	.byte	6
00001f7d 4d454d4d4150   9099 	.strz	"MEMMAP_ERROR "
00001f83 5f4552524f52 
00001f89 2000 
00001f8b 01             9100 	.byte	1
00001f8c 0c             9101 	.byte	12
00001f8d 4253575f5354   9102 	.strz	"BSW_START_SEC_DEFAULT_CODE "
00001f93 4152545f5345 
00001f99 435f44454641 
00001f9f 554c545f434f 
00001fa5 44452000 
00001fa9 03             9103 	.byte	3
00001faa 0d             9104 	.byte	13

                                                                      Page 185
                                                              C:\Users\nhuliyap\AppData\Local\Temp\gh_000075o1.s
00001fab 0d             9105 	.byte	13
00001fac 01             9106 	.byte	1
00001fad d308           9107 	.byte	211,8
00001faf 53544152545f   9108 	.strz	"START_SEC_CODE "
00001fb5 5345435f434f 
00001fbb 44452000 
00001fbf 03             9109 	.byte	3
00001fc0 bb09           9110 	.byte	187,9
00001fc2 0e             9111 	.byte	14
00001fc3 01             9112 	.byte	1
00001fc4 f307           9113 	.byte	243,7
00001fc6 434f44455f53   9114 	.strz	"CODE_SEC_OPEN "
00001fcc 45435f4f5045 
00001fd2 4e2000 
00001fd5 04             9115 	.byte	4
00001fd6 04             9116 	.byte	4
00001fd7 01             9117 	.byte	1
00001fd8 11             9118 	.byte	17
00001fd9 44434d5f5741   9119 	.strz	"DCM_WAS_STARTED_SEC_ROM_CODE "
00001fdf 535f53544152 
00001fe5 5445445f5345 
00001feb 435f524f4d5f 
00001ff1 434f44452000 
00001ff7 04             9120 	.byte	4
00001ff8 01             9121 	.byte	1
00001ff9 7c             9122 	.byte	124
00001ffa 44434d5f5354   9123 	.strz	"DCM_STOP_SEC_CODE "
00002000 4f505f534543 
00002006 5f434f444520 
0000200c 00 
0000200d 03             9124 	.byte	3
0000200e 7d             9125 	.byte	125
0000200f 0c             9126 	.byte	12
00002010 01             9127 	.byte	1
00002011 06             9128 	.byte	6
00002012 4d454d4d4150   9129 	.strz	"MEMMAP_ERROR "
00002018 5f4552524f52 
0000201e 2000 
00002020 01             9130 	.byte	1
00002021 18             9131 	.byte	24
00002022 4253575f5354   9132 	.strz	"BSW_STOP_SEC_DEFAULT_CODE "
00002028 4f505f534543 
0000202e 5f4445464155 
00002034 4c545f434f44 
0000203a 452000 
0000203d 03             9133 	.byte	3
0000203e 19             9134 	.byte	25
0000203f 0d             9135 	.byte	13
00002040 01             9136 	.byte	1
00002041 d608           9137 	.byte	214,8
00002043 53544f505f53   9138 	.strz	"STOP_SEC_CODE "
00002049 45435f434f44 
0000204f 452000 
00002052 03             9139 	.byte	3
00002053 bb09           9140 	.byte	187,9
00002055 0e             9141 	.byte	14
00002056 04             9142 	.byte	4
00002057 04             9143 	.byte	4
00002058 04             9144 	.byte	4
00002059 01             9145 	.byte	1
0000205a 7f             9146 	.byte	127

                                                                      Page 186
                                                              C:\Users\nhuliyap\AppData\Local\Temp\gh_000075o1.s
0000205b 44434d5f5354   9147 	.strz	"DCM_START_SEC_VAR_CLEARED_16 "
00002061 4152545f5345 
00002067 435f5641525f 
0000206d 434c45415245 
00002073 445f31362000 
00002079 03             9148 	.byte	3
0000207a 8001           9149 	.byte	128,1
0000207c 0c             9150 	.byte	12
0000207d 01             9151 	.byte	1
0000207e 06             9152 	.byte	6
0000207f 4d454d4d4150   9153 	.strz	"MEMMAP_ERROR "
00002085 5f4552524f52 
0000208b 2000 
0000208d 01             9154 	.byte	1
0000208e 8802           9155 	.byte	136,2
00002090 4253575f5354   9156 	.strz	"BSW_START_SEC_DEFAULT_RAM0_CLEARED_16 "
00002096 4152545f5345 
0000209c 435f44454641 
000020a2 554c545f5241 
000020a8 4d305f434c45 
000020ae 415245445f31 
000020b4 362000 
000020b7 03             9157 	.byte	3
000020b8 8902           9158 	.byte	137,2
000020ba 0d             9159 	.byte	13
000020bb 01             9160 	.byte	1
000020bc a405           9161 	.byte	164,5
000020be 53544152545f   9162 	.strz	"START_SEC_VAR_CLEARED_16 "
000020c4 5345435f5641 
000020ca 525f434c4541 
000020d0 5245445f3136 
000020d6 2000 
000020d8 03             9163 	.byte	3
000020d9 bb09           9164 	.byte	187,9
000020db 0e             9165 	.byte	14
000020dc 01             9166 	.byte	1
000020dd 4a             9167 	.byte	74
000020de 53544152545f   9168 	.strz	"START_SEC_VAR_ZERO_INIT_16BIT "
000020e4 5345435f5641 
000020ea 525f5a45524f 
000020f0 5f494e49545f 
000020f6 313642495420 
000020fc 00 
000020fd 01             9169 	.byte	1
000020fe e909           9170 	.byte	233,9
00002100 5641525f5345   9171 	.strz	"VAR_SEC_OPEN "
00002106 435f4f50454e 
0000210c 2000 
0000210e 04             9172 	.byte	4
0000210f 04             9173 	.byte	4
00002110 01             9174 	.byte	1
00002111 8d02           9175 	.byte	141,2
00002113 44434d5f5741   9176 	.strz	"DCM_WAS_STARTED_SEC_VAR_CLEARED_16 "
00002119 535f53544152 
0000211f 5445445f5345 
00002125 435f5641525f 
0000212b 434c45415245 
00002131 445f31362000 
00002137 04             9177 	.byte	4
00002138 01             9178 	.byte	1
00002139 8201           9179 	.byte	130,1

                                                                      Page 187
                                                              C:\Users\nhuliyap\AppData\Local\Temp\gh_000075o1.s
0000213b 44434d5f5354   9180 	.strz	"DCM_STOP_SEC_VAR_CLEARED_16 "
00002141 4f505f534543 
00002147 5f5641525f43 
0000214d 4c4541524544 
00002153 5f31362000 
00002158 03             9181 	.byte	3
00002159 8301           9182 	.byte	131,1
0000215b 0c             9183 	.byte	12
0000215c 01             9184 	.byte	1
0000215d 06             9185 	.byte	6
0000215e 4d454d4d4150   9186 	.strz	"MEMMAP_ERROR "
00002164 5f4552524f52 
0000216a 2000 
0000216c 01             9187 	.byte	1
0000216d 9402           9188 	.byte	148,2
0000216f 4253575f5354   9189 	.strz	"BSW_STOP_SEC_DEFAULT_RAM0_CLEARED_16 "
00002175 4f505f534543 
0000217b 5f4445464155 
00002181 4c545f52414d 
00002187 305f434c4541 
0000218d 5245445f3136 
00002193 2000 
00002195 03             9190 	.byte	3
00002196 9502           9191 	.byte	149,2
00002198 0d             9192 	.byte	13
00002199 01             9193 	.byte	1
0000219a a705           9194 	.byte	167,5
0000219c 53544f505f53   9195 	.strz	"STOP_SEC_VAR "
000021a2 45435f564152 
000021a8 2000 
000021aa 03             9196 	.byte	3
000021ab bb09           9197 	.byte	187,9
000021ad 0e             9198 	.byte	14
000021ae 04             9199 	.byte	4
000021af 04             9200 	.byte	4
000021b0 04             9201 	.byte	4
000021b1 01             9202 	.byte	1
000021b2 8501           9203 	.byte	133,1
000021b4 44434d5f5354   9204 	.strz	"DCM_START_SEC_VAR_CLEARED_32 "
000021ba 4152545f5345 
000021c0 435f5641525f 
000021c6 434c45415245 
000021cc 445f33322000 
000021d2 03             9205 	.byte	3
000021d3 8601           9206 	.byte	134,1
000021d5 0c             9207 	.byte	12
000021d6 01             9208 	.byte	1
000021d7 06             9209 	.byte	6
000021d8 4d454d4d4150   9210 	.strz	"MEMMAP_ERROR "
000021de 5f4552524f52 
000021e4 2000 
000021e6 01             9211 	.byte	1
000021e7 9d02           9212 	.byte	157,2
000021e9 4253575f5354   9213 	.strz	"BSW_START_SEC_DEFAULT_RAM0_CLEARED_32 "
000021ef 4152545f5345 
000021f5 435f44454641 
000021fb 554c545f5241 
00002201 4d305f434c45 
00002207 415245445f33 
0000220d 322000 
00002210 03             9214 	.byte	3

                                                                      Page 188
                                                              C:\Users\nhuliyap\AppData\Local\Temp\gh_000075o1.s
00002211 9e02           9215 	.byte	158,2
00002213 0d             9216 	.byte	13
00002214 01             9217 	.byte	1
00002215 b005           9218 	.byte	176,5
00002217 53544152545f   9219 	.strz	"START_SEC_VAR_CLEARED_32 "
0000221d 5345435f5641 
00002223 525f434c4541 
00002229 5245445f3332 
0000222f 2000 
00002231 03             9220 	.byte	3
00002232 bb09           9221 	.byte	187,9
00002234 0e             9222 	.byte	14
00002235 01             9223 	.byte	1
00002236 4e             9224 	.byte	78
00002237 53544152545f   9225 	.strz	"START_SEC_VAR_ZERO_INIT_32BIT "
0000223d 5345435f5641 
00002243 525f5a45524f 
00002249 5f494e49545f 
0000224f 333242495420 
00002255 00 
00002256 01             9226 	.byte	1
00002257 f209           9227 	.byte	242,9
00002259 5641525f5345   9228 	.strz	"VAR_SEC_OPEN "
0000225f 435f4f50454e 
00002265 2000 
00002267 04             9229 	.byte	4
00002268 04             9230 	.byte	4
00002269 01             9231 	.byte	1
0000226a a202           9232 	.byte	162,2
0000226c 44434d5f5741   9233 	.strz	"DCM_WAS_STARTED_SEC_VAR_CLEARED_32 "
00002272 535f53544152 
00002278 5445445f5345 
0000227e 435f5641525f 
00002284 434c45415245 
0000228a 445f33322000 
00002290 04             9234 	.byte	4
00002291 01             9235 	.byte	1
00002292 8801           9236 	.byte	136,1
00002294 44434d5f5354   9237 	.strz	"DCM_STOP_SEC_VAR_CLEARED_32 "
0000229a 4f505f534543 
000022a0 5f5641525f43 
000022a6 4c4541524544 
000022ac 5f33322000 
000022b1 03             9238 	.byte	3
000022b2 8901           9239 	.byte	137,1
000022b4 0c             9240 	.byte	12
000022b5 01             9241 	.byte	1
000022b6 06             9242 	.byte	6
000022b7 4d454d4d4150   9243 	.strz	"MEMMAP_ERROR "
000022bd 5f4552524f52 
000022c3 2000 
000022c5 01             9244 	.byte	1
000022c6 a902           9245 	.byte	169,2
000022c8 4253575f5354   9246 	.strz	"BSW_STOP_SEC_DEFAULT_RAM0_CLEARED_32 "
000022ce 4f505f534543 
000022d4 5f4445464155 
000022da 4c545f52414d 
000022e0 305f434c4541 
000022e6 5245445f3332 
000022ec 2000 
000022ee 03             9247 	.byte	3

                                                                      Page 189
                                                              C:\Users\nhuliyap\AppData\Local\Temp\gh_000075o1.s
000022ef aa02           9248 	.byte	170,2
000022f1 0d             9249 	.byte	13
000022f2 01             9250 	.byte	1
000022f3 b305           9251 	.byte	179,5
000022f5 53544f505f53   9252 	.strz	"STOP_SEC_VAR "
000022fb 45435f564152 
00002301 2000 
00002303 03             9253 	.byte	3
00002304 bb09           9254 	.byte	187,9
00002306 0e             9255 	.byte	14
00002307 04             9256 	.byte	4
00002308 04             9257 	.byte	4
00002309 04             9258 	.byte	4
0000230a 01             9259 	.byte	1
0000230b 8b01           9260 	.byte	139,1
0000230d 44434d5f5354   9261 	.strz	"DCM_START_SEC_VAR_CLEARED_8 "
00002313 4152545f5345 
00002319 435f5641525f 
0000231f 434c45415245 
00002325 445f382000 
0000232a 03             9262 	.byte	3
0000232b 8c01           9263 	.byte	140,1
0000232d 0c             9264 	.byte	12
0000232e 01             9265 	.byte	1
0000232f 06             9266 	.byte	6
00002330 4d454d4d4150   9267 	.strz	"MEMMAP_ERROR "
00002336 5f4552524f52 
0000233c 2000 
0000233e 01             9268 	.byte	1
0000233f f301           9269 	.byte	243,1
00002341 4253575f5354   9270 	.strz	"BSW_START_SEC_DEFAULT_RAM0_CLEARED_8 "
00002347 4152545f5345 
0000234d 435f44454641 
00002353 554c545f5241 
00002359 4d305f434c45 
0000235f 415245445f38 
00002365 2000 
00002367 03             9271 	.byte	3
00002368 f401           9272 	.byte	244,1
0000236a 0d             9273 	.byte	13
0000236b 01             9274 	.byte	1
0000236c 9805           9275 	.byte	152,5
0000236e 53544152545f   9276 	.strz	"START_SEC_VAR_CLEARED_8 "
00002374 5345435f5641 
0000237a 525f434c4541 
00002380 5245445f3820 
00002386 00 
00002387 03             9277 	.byte	3
00002388 bb09           9278 	.byte	187,9
0000238a 0e             9279 	.byte	14
0000238b 01             9280 	.byte	1
0000238c 46             9281 	.byte	70
0000238d 53544152545f   9282 	.strz	"START_SEC_VAR_ZERO_INIT_8BIT "
00002393 5345435f5641 
00002399 525f5a45524f 
0000239f 5f494e49545f 
000023a5 384249542000 
000023ab 01             9283 	.byte	1
000023ac e009           9284 	.byte	224,9
000023ae 5641525f5345   9285 	.strz	"VAR_SEC_OPEN "
000023b4 435f4f50454e 

                                                                      Page 190
                                                              C:\Users\nhuliyap\AppData\Local\Temp\gh_000075o1.s
000023ba 2000 
000023bc 04             9286 	.byte	4
000023bd 04             9287 	.byte	4
000023be 01             9288 	.byte	1
000023bf f801           9289 	.byte	248,1
000023c1 44434d5f5741   9290 	.strz	"DCM_WAS_STARTED_SEC_VAR_CLEARED_8 "
000023c7 535f53544152 
000023cd 5445445f5345 
000023d3 435f5641525f 
000023d9 434c45415245 
000023df 445f382000 
000023e4 04             9291 	.byte	4
000023e5 01             9292 	.byte	1
000023e6 8e01           9293 	.byte	142,1
000023e8 44434d5f5354   9294 	.strz	"DCM_STOP_SEC_VAR_CLEARED_8 "
000023ee 4f505f534543 
000023f4 5f5641525f43 
000023fa 4c4541524544 
00002400 5f382000 
00002404 03             9295 	.byte	3
00002405 8f01           9296 	.byte	143,1
00002407 0c             9297 	.byte	12
00002408 01             9298 	.byte	1
00002409 06             9299 	.byte	6
0000240a 4d454d4d4150   9300 	.strz	"MEMMAP_ERROR "
00002410 5f4552524f52 
00002416 2000 
00002418 01             9301 	.byte	1
00002419 ff01           9302 	.byte	255,1
0000241b 4253575f5354   9303 	.strz	"BSW_STOP_SEC_DEFAULT_RAM0_CLEARED_8 "
00002421 4f505f534543 
00002427 5f4445464155 
0000242d 4c545f52414d 
00002433 305f434c4541 
00002439 5245445f3820 
0000243f 00 
00002440 03             9304 	.byte	3
00002441 8002           9305 	.byte	128,2
00002443 0d             9306 	.byte	13
00002444 01             9307 	.byte	1
00002445 9b05           9308 	.byte	155,5
00002447 53544f505f53   9309 	.strz	"STOP_SEC_VAR "
0000244d 45435f564152 
00002453 2000 
00002455 03             9310 	.byte	3
00002456 bb09           9311 	.byte	187,9
00002458 0e             9312 	.byte	14
00002459 04             9313 	.byte	4
0000245a 04             9314 	.byte	4
0000245b 04             9315 	.byte	4
0000245c 01             9316 	.byte	1
0000245d 9101           9317 	.byte	145,1
0000245f 44434d5f5354   9318 	.strz	"DCM_START_SEC_VAR_CLEARED_32 "
00002465 4152545f5345 
0000246b 435f5641525f 
00002471 434c45415245 
00002477 445f33322000 
0000247d 03             9319 	.byte	3
0000247e 9201           9320 	.byte	146,1
00002480 0c             9321 	.byte	12
00002481 01             9322 	.byte	1

                                                                      Page 191
                                                              C:\Users\nhuliyap\AppData\Local\Temp\gh_000075o1.s
00002482 06             9323 	.byte	6
00002483 4d454d4d4150   9324 	.strz	"MEMMAP_ERROR "
00002489 5f4552524f52 
0000248f 2000 
00002491 01             9325 	.byte	1
00002492 9d02           9326 	.byte	157,2
00002494 4253575f5354   9327 	.strz	"BSW_START_SEC_DEFAULT_RAM0_CLEARED_32 "
0000249a 4152545f5345 
000024a0 435f44454641 
000024a6 554c545f5241 
000024ac 4d305f434c45 
000024b2 415245445f33 
000024b8 322000 
000024bb 03             9328 	.byte	3
000024bc 9e02           9329 	.byte	158,2
000024be 0d             9330 	.byte	13
000024bf 01             9331 	.byte	1
000024c0 b005           9332 	.byte	176,5
000024c2 53544152545f   9333 	.strz	"START_SEC_VAR_CLEARED_32 "
000024c8 5345435f5641 
000024ce 525f434c4541 
000024d4 5245445f3332 
000024da 2000 
000024dc 03             9334 	.byte	3
000024dd bb09           9335 	.byte	187,9
000024df 0e             9336 	.byte	14
000024e0 01             9337 	.byte	1
000024e1 4e             9338 	.byte	78
000024e2 53544152545f   9339 	.strz	"START_SEC_VAR_ZERO_INIT_32BIT "
000024e8 5345435f5641 
000024ee 525f5a45524f 
000024f4 5f494e49545f 
000024fa 333242495420 
00002500 00 
00002501 01             9340 	.byte	1
00002502 f209           9341 	.byte	242,9
00002504 5641525f5345   9342 	.strz	"VAR_SEC_OPEN "
0000250a 435f4f50454e 
00002510 2000 
00002512 04             9343 	.byte	4
00002513 04             9344 	.byte	4
00002514 01             9345 	.byte	1
00002515 a202           9346 	.byte	162,2
00002517 44434d5f5741   9347 	.strz	"DCM_WAS_STARTED_SEC_VAR_CLEARED_32 "
0000251d 535f53544152 
00002523 5445445f5345 
00002529 435f5641525f 
0000252f 434c45415245 
00002535 445f33322000 
0000253b 04             9348 	.byte	4
0000253c 01             9349 	.byte	1
0000253d 9401           9350 	.byte	148,1
0000253f 44434d5f5354   9351 	.strz	"DCM_STOP_SEC_VAR_CLEARED_32 "
00002545 4f505f534543 
0000254b 5f5641525f43 
00002551 4c4541524544 
00002557 5f33322000 
0000255c 03             9352 	.byte	3
0000255d 9501           9353 	.byte	149,1
0000255f 0c             9354 	.byte	12
00002560 01             9355 	.byte	1

                                                                      Page 192
                                                              C:\Users\nhuliyap\AppData\Local\Temp\gh_000075o1.s
00002561 06             9356 	.byte	6
00002562 4d454d4d4150   9357 	.strz	"MEMMAP_ERROR "
00002568 5f4552524f52 
0000256e 2000 
00002570 01             9358 	.byte	1
00002571 a902           9359 	.byte	169,2
00002573 4253575f5354   9360 	.strz	"BSW_STOP_SEC_DEFAULT_RAM0_CLEARED_32 "
00002579 4f505f534543 
0000257f 5f4445464155 
00002585 4c545f52414d 
0000258b 305f434c4541 
00002591 5245445f3332 
00002597 2000 
00002599 03             9361 	.byte	3
0000259a aa02           9362 	.byte	170,2
0000259c 0d             9363 	.byte	13
0000259d 01             9364 	.byte	1
0000259e b305           9365 	.byte	179,5
000025a0 53544f505f53   9366 	.strz	"STOP_SEC_VAR "
000025a6 45435f564152 
000025ac 2000 
000025ae 03             9367 	.byte	3
000025af bb09           9368 	.byte	187,9
000025b1 0e             9369 	.byte	14
000025b2 04             9370 	.byte	4
000025b3 04             9371 	.byte	4
000025b4 04             9372 	.byte	4
000025b5 01             9373 	.byte	1
000025b6 9701           9374 	.byte	151,1
000025b8 44434d5f5354   9375 	.strz	"DCM_START_SEC_VAR_CLEARED_16 "
000025be 4152545f5345 
000025c4 435f5641525f 
000025ca 434c45415245 
000025d0 445f31362000 
000025d6 03             9376 	.byte	3
000025d7 9801           9377 	.byte	152,1
000025d9 0c             9378 	.byte	12
000025da 01             9379 	.byte	1
000025db 06             9380 	.byte	6
000025dc 4d454d4d4150   9381 	.strz	"MEMMAP_ERROR "
000025e2 5f4552524f52 
000025e8 2000 
000025ea 01             9382 	.byte	1
000025eb 8802           9383 	.byte	136,2
000025ed 4253575f5354   9384 	.strz	"BSW_START_SEC_DEFAULT_RAM0_CLEARED_16 "
000025f3 4152545f5345 
000025f9 435f44454641 
000025ff 554c545f5241 
00002605 4d305f434c45 
0000260b 415245445f31 
00002611 362000 
00002614 03             9385 	.byte	3
00002615 8902           9386 	.byte	137,2
00002617 0d             9387 	.byte	13
00002618 01             9388 	.byte	1
00002619 a405           9389 	.byte	164,5
0000261b 53544152545f   9390 	.strz	"START_SEC_VAR_CLEARED_16 "
00002621 5345435f5641 
00002627 525f434c4541 
0000262d 5245445f3136 
00002633 2000 

                                                                      Page 193
                                                              C:\Users\nhuliyap\AppData\Local\Temp\gh_000075o1.s
00002635 03             9391 	.byte	3
00002636 bb09           9392 	.byte	187,9
00002638 0e             9393 	.byte	14
00002639 01             9394 	.byte	1
0000263a 4a             9395 	.byte	74
0000263b 53544152545f   9396 	.strz	"START_SEC_VAR_ZERO_INIT_16BIT "
00002641 5345435f5641 
00002647 525f5a45524f 
0000264d 5f494e49545f 
00002653 313642495420 
00002659 00 
0000265a 01             9397 	.byte	1
0000265b e909           9398 	.byte	233,9
0000265d 5641525f5345   9399 	.strz	"VAR_SEC_OPEN "
00002663 435f4f50454e 
00002669 2000 
0000266b 04             9400 	.byte	4
0000266c 04             9401 	.byte	4
0000266d 01             9402 	.byte	1
0000266e 8d02           9403 	.byte	141,2
00002670 44434d5f5741   9404 	.strz	"DCM_WAS_STARTED_SEC_VAR_CLEARED_16 "
00002676 535f53544152 
0000267c 5445445f5345 
00002682 435f5641525f 
00002688 434c45415245 
0000268e 445f31362000 
00002694 04             9405 	.byte	4
00002695 01             9406 	.byte	1
00002696 9a01           9407 	.byte	154,1
00002698 44434d5f5354   9408 	.strz	"DCM_STOP_SEC_VAR_CLEARED_16 "
0000269e 4f505f534543 
000026a4 5f5641525f43 
000026aa 4c4541524544 
000026b0 5f31362000 
000026b5 03             9409 	.byte	3
000026b6 9b01           9410 	.byte	155,1
000026b8 0c             9411 	.byte	12
000026b9 01             9412 	.byte	1
000026ba 06             9413 	.byte	6
000026bb 4d454d4d4150   9414 	.strz	"MEMMAP_ERROR "
000026c1 5f4552524f52 
000026c7 2000 
000026c9 01             9415 	.byte	1
000026ca 9402           9416 	.byte	148,2
000026cc 4253575f5354   9417 	.strz	"BSW_STOP_SEC_DEFAULT_RAM0_CLEARED_16 "
000026d2 4f505f534543 
000026d8 5f4445464155 
000026de 4c545f52414d 
000026e4 305f434c4541 
000026ea 5245445f3136 
000026f0 2000 
000026f2 03             9418 	.byte	3
000026f3 9502           9419 	.byte	149,2
000026f5 0d             9420 	.byte	13
000026f6 01             9421 	.byte	1
000026f7 a705           9422 	.byte	167,5
000026f9 53544f505f53   9423 	.strz	"STOP_SEC_VAR "
000026ff 45435f564152 
00002705 2000 
00002707 03             9424 	.byte	3
00002708 bb09           9425 	.byte	187,9

                                                                      Page 194
                                                              C:\Users\nhuliyap\AppData\Local\Temp\gh_000075o1.s
0000270a 0e             9426 	.byte	14
0000270b 04             9427 	.byte	4
0000270c 04             9428 	.byte	4
0000270d 04             9429 	.byte	4
0000270e 01             9430 	.byte	1
0000270f 9d01           9431 	.byte	157,1
00002711 44434d5f5354   9432 	.strz	"DCM_START_SEC_VAR_CLEARED_8 "
00002717 4152545f5345 
0000271d 435f5641525f 
00002723 434c45415245 
00002729 445f382000 
0000272e 03             9433 	.byte	3
0000272f 9e01           9434 	.byte	158,1
00002731 0c             9435 	.byte	12
00002732 01             9436 	.byte	1
00002733 06             9437 	.byte	6
00002734 4d454d4d4150   9438 	.strz	"MEMMAP_ERROR "
0000273a 5f4552524f52 
00002740 2000 
00002742 01             9439 	.byte	1
00002743 f301           9440 	.byte	243,1
00002745 4253575f5354   9441 	.strz	"BSW_START_SEC_DEFAULT_RAM0_CLEARED_8 "
0000274b 4152545f5345 
00002751 435f44454641 
00002757 554c545f5241 
0000275d 4d305f434c45 
00002763 415245445f38 
00002769 2000 
0000276b 03             9442 	.byte	3
0000276c f401           9443 	.byte	244,1
0000276e 0d             9444 	.byte	13
0000276f 01             9445 	.byte	1
00002770 9805           9446 	.byte	152,5
00002772 53544152545f   9447 	.strz	"START_SEC_VAR_CLEARED_8 "
00002778 5345435f5641 
0000277e 525f434c4541 
00002784 5245445f3820 
0000278a 00 
0000278b 03             9448 	.byte	3
0000278c bb09           9449 	.byte	187,9
0000278e 0e             9450 	.byte	14
0000278f 01             9451 	.byte	1
00002790 46             9452 	.byte	70
00002791 53544152545f   9453 	.strz	"START_SEC_VAR_ZERO_INIT_8BIT "
00002797 5345435f5641 
0000279d 525f5a45524f 
000027a3 5f494e49545f 
000027a9 384249542000 
000027af 01             9454 	.byte	1
000027b0 e009           9455 	.byte	224,9
000027b2 5641525f5345   9456 	.strz	"VAR_SEC_OPEN "
000027b8 435f4f50454e 
000027be 2000 
000027c0 04             9457 	.byte	4
000027c1 04             9458 	.byte	4
000027c2 01             9459 	.byte	1
000027c3 f801           9460 	.byte	248,1
000027c5 44434d5f5741   9461 	.strz	"DCM_WAS_STARTED_SEC_VAR_CLEARED_8 "
000027cb 535f53544152 
000027d1 5445445f5345 
000027d7 435f5641525f 

                                                                      Page 195
                                                              C:\Users\nhuliyap\AppData\Local\Temp\gh_000075o1.s
000027dd 434c45415245 
000027e3 445f382000 
000027e8 04             9462 	.byte	4
000027e9 01             9463 	.byte	1
000027ea a001           9464 	.byte	160,1
000027ec 44434d5f5354   9465 	.strz	"DCM_STOP_SEC_VAR_CLEARED_8 "
000027f2 4f505f534543 
000027f8 5f5641525f43 
000027fe 4c4541524544 
00002804 5f382000 
00002808 03             9466 	.byte	3
00002809 a101           9467 	.byte	161,1
0000280b 0c             9468 	.byte	12
0000280c 01             9469 	.byte	1
0000280d 06             9470 	.byte	6
0000280e 4d454d4d4150   9471 	.strz	"MEMMAP_ERROR "
00002814 5f4552524f52 
0000281a 2000 
0000281c 01             9472 	.byte	1
0000281d ff01           9473 	.byte	255,1
0000281f 4253575f5354   9474 	.strz	"BSW_STOP_SEC_DEFAULT_RAM0_CLEARED_8 "
00002825 4f505f534543 
0000282b 5f4445464155 
00002831 4c545f52414d 
00002837 305f434c4541 
0000283d 5245445f3820 
00002843 00 
00002844 03             9475 	.byte	3
00002845 8002           9476 	.byte	128,2
00002847 0d             9477 	.byte	13
00002848 01             9478 	.byte	1
00002849 9b05           9479 	.byte	155,5
0000284b 53544f505f53   9480 	.strz	"STOP_SEC_VAR "
00002851 45435f564152 
00002857 2000 
00002859 03             9481 	.byte	3
0000285a bb09           9482 	.byte	187,9
0000285c 0e             9483 	.byte	14
0000285d 04             9484 	.byte	4
0000285e 04             9485 	.byte	4
0000285f 04             9486 	.byte	4
00002860 04             9487 	.byte	4
00002861 03             9488 	.byte	3
00002862 0c             9489 	.byte	12
00002863 15             9490 	.byte	21
00002864 03             9491 	.byte	3
00002865 07             9492 	.byte	7
00002866 16             9493 	.byte	22
00002867 01             9494 	.byte	1
00002868 0d             9495 	.byte	13
00002869 44434d5f5354   9496 	.strz	"DCM_START_SEC_CONST_UNSPECIFIED "
0000286f 4152545f5345 
00002875 435f434f4e53 
0000287b 545f554e5350 
00002881 454349464945 
00002887 442000 
0000288a 03             9497 	.byte	3
0000288b 0e             9498 	.byte	14
0000288c 0c             9499 	.byte	12
0000288d 01             9500 	.byte	1
0000288e 06             9501 	.byte	6

                                                                      Page 196
                                                              C:\Users\nhuliyap\AppData\Local\Temp\gh_000075o1.s
0000288f 4d454d4d4150   9502 	.strz	"MEMMAP_ERROR "
00002895 5f4552524f52 
0000289b 2000 
0000289d 01             9503 	.byte	1
0000289e 21             9504 	.byte	33
0000289f 4253575f5354   9505 	.strz	"BSW_START_SEC_DEFAULT_CONST_UNSPECIFIED "
000028a5 4152545f5345 
000028ab 435f44454641 
000028b1 554c545f434f 
000028b7 4e53545f554e 
000028bd 535045434946 
000028c3 4945442000 
000028c8 03             9506 	.byte	3
000028c9 22             9507 	.byte	34
000028ca 0d             9508 	.byte	13
000028cb 01             9509 	.byte	1
000028cc bc05           9510 	.byte	188,5
000028ce 53544152545f   9511 	.strz	"START_SEC_CONST_UNSPECIFIED "
000028d4 5345435f434f 
000028da 4e53545f554e 
000028e0 535045434946 
000028e6 4945442000 
000028eb 03             9512 	.byte	3
000028ec bb09           9513 	.byte	187,9
000028ee 0e             9514 	.byte	14
000028ef 01             9515 	.byte	1
000028f0 b408           9516 	.byte	180,8
000028f2 434f4e53545f   9517 	.strz	"CONST_SEC_OPEN "
000028f8 5345435f4f50 
000028fe 454e2000 
00002902 04             9518 	.byte	4
00002903 04             9519 	.byte	4
00002904 01             9520 	.byte	1
00002905 26             9521 	.byte	38
00002906 44434d5f5741   9522 	.strz	"DCM_WAS_STARTED_SEC_CONST_UNSPECIFIED "
0000290c 535f53544152 
00002912 5445445f5345 
00002918 435f434f4e53 
0000291e 545f554e5350 
00002924 454349464945 
0000292a 442000 
0000292d 04             9523 	.byte	4
0000292e 01             9524 	.byte	1
0000292f 10             9525 	.byte	16
00002930 44434d5f5354   9526 	.strz	"DCM_STOP_SEC_CONST_UNSPECIFIED "
00002936 4f505f534543 
0000293c 5f434f4e5354 
00002942 5f554e535045 
00002948 434946494544 
0000294e 2000 
00002950 03             9527 	.byte	3
00002951 11             9528 	.byte	17
00002952 0c             9529 	.byte	12
00002953 01             9530 	.byte	1
00002954 06             9531 	.byte	6
00002955 4d454d4d4150   9532 	.strz	"MEMMAP_ERROR "
0000295b 5f4552524f52 
00002961 2000 
00002963 01             9533 	.byte	1
00002964 2d             9534 	.byte	45
00002965 4253575f5354   9535 	.strz	"BSW_STOP_SEC_DEFAULT_CONST_UNSPECIFIED "

                                                                      Page 197
                                                              C:\Users\nhuliyap\AppData\Local\Temp\gh_000075o1.s
0000296b 4f505f534543 
00002971 5f4445464155 
00002977 4c545f434f4e 
0000297d 53545f554e53 
00002983 504543494649 
00002989 45442000 
0000298d 03             9536 	.byte	3
0000298e 2e             9537 	.byte	46
0000298f 0d             9538 	.byte	13
00002990 01             9539 	.byte	1
00002991 bf05           9540 	.byte	191,5
00002993 53544f505f53   9541 	.strz	"STOP_SEC_CONST "
00002999 45435f434f4e 
0000299f 53542000 
000029a3 03             9542 	.byte	3
000029a4 bb09           9543 	.byte	187,9
000029a6 0e             9544 	.byte	14
000029a7 04             9545 	.byte	4
000029a8 04             9546 	.byte	4
000029a9 04             9547 	.byte	4
000029aa 04             9548 	.byte	4
000029ab 03             9549 	.byte	3
000029ac 0b             9550 	.byte	11
000029ad 17             9551 	.byte	23
000029ae 01             9552 	.byte	1
000029af 08             9553 	.byte	8
000029b0 44434d5f5052   9554 	.strz	"DCM_PRV_REQUEST_SEED 0"
000029b6 565f52455155 
000029bc 4553545f5345 
000029c2 4544203000 
000029c7 01             9555 	.byte	1
000029c8 09             9556 	.byte	9
000029c9 44434d5f5052   9557 	.strz	"DCM_PRV_SEND_KEY 1"
000029cf 565f53454e44 
000029d5 5f4b45592031 
000029db 00 
000029dc 01             9558 	.byte	1
000029dd a801           9559 	.byte	168,1
000029df 44434d5f5354   9560 	.strz	"DCM_START_SEC_VAR_CLEARED_32 "
000029e5 4152545f5345 
000029eb 435f5641525f 
000029f1 434c45415245 
000029f7 445f33322000 
000029fd 03             9561 	.byte	3
000029fe a901           9562 	.byte	169,1
00002a00 0c             9563 	.byte	12
00002a01 01             9564 	.byte	1
00002a02 06             9565 	.byte	6
00002a03 4d454d4d4150   9566 	.strz	"MEMMAP_ERROR "
00002a09 5f4552524f52 
00002a0f 2000 
00002a11 01             9567 	.byte	1
00002a12 9d02           9568 	.byte	157,2
00002a14 4253575f5354   9569 	.strz	"BSW_START_SEC_DEFAULT_RAM0_CLEARED_32 "
00002a1a 4152545f5345 
00002a20 435f44454641 
00002a26 554c545f5241 
00002a2c 4d305f434c45 
00002a32 415245445f33 
00002a38 322000 
00002a3b 03             9570 	.byte	3

                                                                      Page 198
                                                              C:\Users\nhuliyap\AppData\Local\Temp\gh_000075o1.s
00002a3c 9e02           9571 	.byte	158,2
00002a3e 0d             9572 	.byte	13
00002a3f 01             9573 	.byte	1
00002a40 b005           9574 	.byte	176,5
00002a42 53544152545f   9575 	.strz	"START_SEC_VAR_CLEARED_32 "
00002a48 5345435f5641 
00002a4e 525f434c4541 
00002a54 5245445f3332 
00002a5a 2000 
00002a5c 03             9576 	.byte	3
00002a5d bb09           9577 	.byte	187,9
00002a5f 0e             9578 	.byte	14
00002a60 01             9579 	.byte	1
00002a61 4e             9580 	.byte	78
00002a62 53544152545f   9581 	.strz	"START_SEC_VAR_ZERO_INIT_32BIT "
00002a68 5345435f5641 
00002a6e 525f5a45524f 
00002a74 5f494e49545f 
00002a7a 333242495420 
00002a80 00 
00002a81 01             9582 	.byte	1
00002a82 f209           9583 	.byte	242,9
00002a84 5641525f5345   9584 	.strz	"VAR_SEC_OPEN "
00002a8a 435f4f50454e 
00002a90 2000 
00002a92 04             9585 	.byte	4
00002a93 04             9586 	.byte	4
00002a94 01             9587 	.byte	1
00002a95 a202           9588 	.byte	162,2
00002a97 44434d5f5741   9589 	.strz	"DCM_WAS_STARTED_SEC_VAR_CLEARED_32 "
00002a9d 535f53544152 
00002aa3 5445445f5345 
00002aa9 435f5641525f 
00002aaf 434c45415245 
00002ab5 445f33322000 
00002abb 04             9590 	.byte	4
00002abc 01             9591 	.byte	1
00002abd ad01           9592 	.byte	173,1
00002abf 44434d5f5354   9593 	.strz	"DCM_STOP_SEC_VAR_CLEARED_32 "
00002ac5 4f505f534543 
00002acb 5f5641525f43 
00002ad1 4c4541524544 
00002ad7 5f33322000 
00002adc 03             9594 	.byte	3
00002add ae01           9595 	.byte	174,1
00002adf 0c             9596 	.byte	12
00002ae0 01             9597 	.byte	1
00002ae1 06             9598 	.byte	6
00002ae2 4d454d4d4150   9599 	.strz	"MEMMAP_ERROR "
00002ae8 5f4552524f52 
00002aee 2000 
00002af0 01             9600 	.byte	1
00002af1 a902           9601 	.byte	169,2
00002af3 4253575f5354   9602 	.strz	"BSW_STOP_SEC_DEFAULT_RAM0_CLEARED_32 "
00002af9 4f505f534543 
00002aff 5f4445464155 
00002b05 4c545f52414d 
00002b0b 305f434c4541 
00002b11 5245445f3332 
00002b17 2000 
00002b19 03             9603 	.byte	3

                                                                      Page 199
                                                              C:\Users\nhuliyap\AppData\Local\Temp\gh_000075o1.s
00002b1a aa02           9604 	.byte	170,2
00002b1c 0d             9605 	.byte	13
00002b1d 01             9606 	.byte	1
00002b1e b305           9607 	.byte	179,5
00002b20 53544f505f53   9608 	.strz	"STOP_SEC_VAR "
00002b26 45435f564152 
00002b2c 2000 
00002b2e 03             9609 	.byte	3
00002b2f bb09           9610 	.byte	187,9
00002b31 0e             9611 	.byte	14
00002b32 04             9612 	.byte	4
00002b33 04             9613 	.byte	4
00002b34 04             9614 	.byte	4
00002b35 01             9615 	.byte	1
00002b36 af01           9616 	.byte	175,1
00002b38 44434d5f5354   9617 	.strz	"DCM_START_SEC_CODE "
00002b3e 4152545f5345 
00002b44 435f434f4445 
00002b4a 2000 
00002b4c 03             9618 	.byte	3
00002b4d b001           9619 	.byte	176,1
00002b4f 0c             9620 	.byte	12
00002b50 01             9621 	.byte	1
00002b51 06             9622 	.byte	6
00002b52 4d454d4d4150   9623 	.strz	"MEMMAP_ERROR "
00002b58 5f4552524f52 
00002b5e 2000 
00002b60 01             9624 	.byte	1
00002b61 0c             9625 	.byte	12
00002b62 4253575f5354   9626 	.strz	"BSW_START_SEC_DEFAULT_CODE "
00002b68 4152545f5345 
00002b6e 435f44454641 
00002b74 554c545f434f 
00002b7a 44452000 
00002b7e 03             9627 	.byte	3
00002b7f 0d             9628 	.byte	13
00002b80 0d             9629 	.byte	13
00002b81 01             9630 	.byte	1
00002b82 d308           9631 	.byte	211,8
00002b84 53544152545f   9632 	.strz	"START_SEC_CODE "
00002b8a 5345435f434f 
00002b90 44452000 
00002b94 03             9633 	.byte	3
00002b95 bb09           9634 	.byte	187,9
00002b97 0e             9635 	.byte	14
00002b98 01             9636 	.byte	1
00002b99 f307           9637 	.byte	243,7
00002b9b 434f44455f53   9638 	.strz	"CODE_SEC_OPEN "
00002ba1 45435f4f5045 
00002ba7 4e2000 
00002baa 04             9639 	.byte	4
00002bab 04             9640 	.byte	4
00002bac 01             9641 	.byte	1
00002bad 11             9642 	.byte	17
00002bae 44434d5f5741   9643 	.strz	"DCM_WAS_STARTED_SEC_ROM_CODE "
00002bb4 535f53544152 
00002bba 5445445f5345 
00002bc0 435f524f4d5f 
00002bc6 434f44452000 
00002bcc 04             9644 	.byte	4
00002bcd 01             9645 	.byte	1

                                                                      Page 200
                                                              C:\Users\nhuliyap\AppData\Local\Temp\gh_000075o1.s
00002bce b901           9646 	.byte	185,1
00002bd0 44434d5f5354   9647 	.strz	"DCM_STOP_SEC_CODE "
00002bd6 4f505f534543 
00002bdc 5f434f444520 
00002be2 00 
00002be3 03             9648 	.byte	3
00002be4 ba01           9649 	.byte	186,1
00002be6 0c             9650 	.byte	12
00002be7 01             9651 	.byte	1
00002be8 06             9652 	.byte	6
00002be9 4d454d4d4150   9653 	.strz	"MEMMAP_ERROR "
00002bef 5f4552524f52 
00002bf5 2000 
00002bf7 01             9654 	.byte	1
00002bf8 18             9655 	.byte	24
00002bf9 4253575f5354   9656 	.strz	"BSW_STOP_SEC_DEFAULT_CODE "
00002bff 4f505f534543 
00002c05 5f4445464155 
00002c0b 4c545f434f44 
00002c11 452000 
00002c14 03             9657 	.byte	3
00002c15 19             9658 	.byte	25
00002c16 0d             9659 	.byte	13
00002c17 01             9660 	.byte	1
00002c18 d608           9661 	.byte	214,8
00002c1a 53544f505f53   9662 	.strz	"STOP_SEC_CODE "
00002c20 45435f434f44 
00002c26 452000 
00002c29 03             9663 	.byte	3
00002c2a bb09           9664 	.byte	187,9
00002c2c 0e             9665 	.byte	14
00002c2d 04             9666 	.byte	4
00002c2e 04             9667 	.byte	4
00002c2f 04             9668 	.byte	4
00002c30 01             9669 	.byte	1
00002c31 bb01           9670 	.byte	187,1
00002c33 44434d5f5354   9671 	.strz	"DCM_START_SEC_VAR_CLEARED_UNSPECIFIED "
00002c39 4152545f5345 
00002c3f 435f5641525f 
00002c45 434c45415245 
00002c4b 445f554e5350 
00002c51 454349464945 
00002c57 442000 
00002c5a 03             9672 	.byte	3
00002c5b bc01           9673 	.byte	188,1
00002c5d 0c             9674 	.byte	12
00002c5e 01             9675 	.byte	1
00002c5f 06             9676 	.byte	6
00002c60 4d454d4d4150   9677 	.strz	"MEMMAP_ERROR "
00002c66 5f4552524f52 
00002c6c 2000 
00002c6e 01             9678 	.byte	1
00002c6f c901           9679 	.byte	201,1
00002c71 4253575f5354   9680 	.strz	"BSW_START_SEC_DEFAULT_RAM0_CLEARED_UNSPECIFIED "
00002c77 4152545f5345 
00002c7d 435f44454641 
00002c83 554c545f5241 
00002c89 4d305f434c45 
00002c8f 415245445f55 
00002c95 4e5350454349 
00002c9b 464945442000 

                                                                      Page 201
                                                              C:\Users\nhuliyap\AppData\Local\Temp\gh_000075o1.s
00002ca1 03             9681 	.byte	3
00002ca2 ca01           9682 	.byte	202,1
00002ca4 0d             9683 	.byte	13
00002ca5 01             9684 	.byte	1
00002ca6 8a05           9685 	.byte	138,5
00002ca8 53544152545f   9686 	.strz	"START_SEC_VAR_CLEARED_UNSPECIFIED "
00002cae 5345435f5641 
00002cb4 525f434c4541 
00002cba 5245445f554e 
00002cc0 535045434946 
00002cc6 4945442000 
00002ccb 03             9687 	.byte	3
00002ccc bb09           9688 	.byte	187,9
00002cce 0e             9689 	.byte	14
00002ccf 01             9690 	.byte	1
00002cd0 56             9691 	.byte	86
00002cd1 53544152545f   9692 	.strz	"START_SEC_VAR_ZERO_INIT_UNSPECIFIED "
00002cd7 5345435f5641 
00002cdd 525f5a45524f 
00002ce3 5f494e49545f 
00002ce9 554e53504543 
00002cef 494649454420 
00002cf5 00 
00002cf6 01             9693 	.byte	1
00002cf7 840a           9694 	.byte	132,10
00002cf9 5641525f5345   9695 	.strz	"VAR_SEC_OPEN "
00002cff 435f4f50454e 
00002d05 2000 
00002d07 04             9696 	.byte	4
00002d08 04             9697 	.byte	4
00002d09 01             9698 	.byte	1
00002d0a ce01           9699 	.byte	206,1
00002d0c 44434d5f5741   9700 	.strz	"DCM_WAS_STARTED_SEC_VAR_CLEARED_UNSPECIFIED "
00002d12 535f53544152 
00002d18 5445445f5345 
00002d1e 435f5641525f 
00002d24 434c45415245 
00002d2a 445f554e5350 
00002d30 454349464945 
00002d36 442000 
00002d39 04             9701 	.byte	4
00002d3a 01             9702 	.byte	1
00002d3b bf01           9703 	.byte	191,1
00002d3d 44434d5f5354   9704 	.strz	"DCM_STOP_SEC_VAR_CLEARED_UNSPECIFIED "
00002d43 4f505f534543 
00002d49 5f5641525f43 
00002d4f 4c4541524544 
00002d55 5f554e535045 
00002d5b 434946494544 
00002d61 2000 
00002d63 03             9705 	.byte	3
00002d64 c001           9706 	.byte	192,1
00002d66 0c             9707 	.byte	12
00002d67 01             9708 	.byte	1
00002d68 06             9709 	.byte	6
00002d69 4d454d4d4150   9710 	.strz	"MEMMAP_ERROR "
00002d6f 5f4552524f52 
00002d75 2000 
00002d77 01             9711 	.byte	1
00002d78 d501           9712 	.byte	213,1
00002d7a 4253575f5354   9713 	.strz	"BSW_STOP_SEC_DEFAULT_RAM0_CLEARED_UNSPECIFIED "

                                                                      Page 202
                                                              C:\Users\nhuliyap\AppData\Local\Temp\gh_000075o1.s
00002d80 4f505f534543 
00002d86 5f4445464155 
00002d8c 4c545f52414d 
00002d92 305f434c4541 
00002d98 5245445f554e 
00002d9e 535045434946 
00002da4 4945442000 
00002da9 03             9714 	.byte	3
00002daa d601           9715 	.byte	214,1
00002dac 0d             9716 	.byte	13
00002dad 01             9717 	.byte	1
00002dae 8d05           9718 	.byte	141,5
00002db0 53544f505f53   9719 	.strz	"STOP_SEC_VAR "
00002db6 45435f564152 
00002dbc 2000 
00002dbe 03             9720 	.byte	3
00002dbf bb09           9721 	.byte	187,9
00002dc1 0e             9722 	.byte	14
00002dc2 04             9723 	.byte	4
00002dc3 04             9724 	.byte	4
00002dc4 04             9725 	.byte	4
00002dc5 01             9726 	.byte	1
00002dc6 c101           9727 	.byte	193,1
00002dc8 44434d5f5354   9728 	.strz	"DCM_START_SEC_CONST_UNSPECIFIED "
00002dce 4152545f5345 
00002dd4 435f434f4e53 
00002dda 545f554e5350 
00002de0 454349464945 
00002de6 442000 
00002de9 03             9729 	.byte	3
00002dea c201           9730 	.byte	194,1
00002dec 0c             9731 	.byte	12
00002ded 01             9732 	.byte	1
00002dee 06             9733 	.byte	6
00002def 4d454d4d4150   9734 	.strz	"MEMMAP_ERROR "
00002df5 5f4552524f52 
00002dfb 2000 
00002dfd 01             9735 	.byte	1
00002dfe 21             9736 	.byte	33
00002dff 4253575f5354   9737 	.strz	"BSW_START_SEC_DEFAULT_CONST_UNSPECIFIED "
00002e05 4152545f5345 
00002e0b 435f44454641 
00002e11 554c545f434f 
00002e17 4e53545f554e 
00002e1d 535045434946 
00002e23 4945442000 
00002e28 03             9738 	.byte	3
00002e29 22             9739 	.byte	34
00002e2a 0d             9740 	.byte	13
00002e2b 01             9741 	.byte	1
00002e2c bc05           9742 	.byte	188,5
00002e2e 53544152545f   9743 	.strz	"START_SEC_CONST_UNSPECIFIED "
00002e34 5345435f434f 
00002e3a 4e53545f554e 
00002e40 535045434946 
00002e46 4945442000 
00002e4b 03             9744 	.byte	3
00002e4c bb09           9745 	.byte	187,9
00002e4e 0e             9746 	.byte	14
00002e4f 01             9747 	.byte	1
00002e50 b408           9748 	.byte	180,8

                                                                      Page 203
                                                              C:\Users\nhuliyap\AppData\Local\Temp\gh_000075o1.s
00002e52 434f4e53545f   9749 	.strz	"CONST_SEC_OPEN "
00002e58 5345435f4f50 
00002e5e 454e2000 
00002e62 04             9750 	.byte	4
00002e63 04             9751 	.byte	4
00002e64 01             9752 	.byte	1
00002e65 26             9753 	.byte	38
00002e66 44434d5f5741   9754 	.strz	"DCM_WAS_STARTED_SEC_CONST_UNSPECIFIED "
00002e6c 535f53544152 
00002e72 5445445f5345 
00002e78 435f434f4e53 
00002e7e 545f554e5350 
00002e84 454349464945 
00002e8a 442000 
00002e8d 04             9755 	.byte	4
00002e8e 01             9756 	.byte	1
00002e8f c501           9757 	.byte	197,1
00002e91 44434d5f5354   9758 	.strz	"DCM_STOP_SEC_CONST_UNSPECIFIED "
00002e97 4f505f534543 
00002e9d 5f434f4e5354 
00002ea3 5f554e535045 
00002ea9 434946494544 
00002eaf 2000 
00002eb1 03             9759 	.byte	3
00002eb2 c601           9760 	.byte	198,1
00002eb4 0c             9761 	.byte	12
00002eb5 01             9762 	.byte	1
00002eb6 06             9763 	.byte	6
00002eb7 4d454d4d4150   9764 	.strz	"MEMMAP_ERROR "
00002ebd 5f4552524f52 
00002ec3 2000 
00002ec5 01             9765 	.byte	1
00002ec6 2d             9766 	.byte	45
00002ec7 4253575f5354   9767 	.strz	"BSW_STOP_SEC_DEFAULT_CONST_UNSPECIFIED "
00002ecd 4f505f534543 
00002ed3 5f4445464155 
00002ed9 4c545f434f4e 
00002edf 53545f554e53 
00002ee5 504543494649 
00002eeb 45442000 
00002eef 03             9768 	.byte	3
00002ef0 2e             9769 	.byte	46
00002ef1 0d             9770 	.byte	13
00002ef2 01             9771 	.byte	1
00002ef3 bf05           9772 	.byte	191,5
00002ef5 53544f505f53   9773 	.strz	"STOP_SEC_CONST "
00002efb 45435f434f4e 
00002f01 53542000 
00002f05 03             9774 	.byte	3
00002f06 bb09           9775 	.byte	187,9
00002f08 0e             9776 	.byte	14
00002f09 04             9777 	.byte	4
00002f0a 04             9778 	.byte	4
00002f0b 04             9779 	.byte	4
00002f0c 04             9780 	.byte	4
00002f0d 03             9781 	.byte	3
00002f0e 0f             9782 	.byte	15
00002f0f 18             9783 	.byte	24
00002f10 01             9784 	.byte	1
00002f11 18             9785 	.byte	24
00002f12 44434d5f5354   9786 	.strz	"DCM_START_SEC_CODE "

                                                                      Page 204
                                                              C:\Users\nhuliyap\AppData\Local\Temp\gh_000075o1.s
00002f18 4152545f5345 
00002f1e 435f434f4445 
00002f24 2000 
00002f26 03             9787 	.byte	3
00002f27 19             9788 	.byte	25
00002f28 0c             9789 	.byte	12
00002f29 01             9790 	.byte	1
00002f2a 06             9791 	.byte	6
00002f2b 4d454d4d4150   9792 	.strz	"MEMMAP_ERROR "
00002f31 5f4552524f52 
00002f37 2000 
00002f39 01             9793 	.byte	1
00002f3a 0c             9794 	.byte	12
00002f3b 4253575f5354   9795 	.strz	"BSW_START_SEC_DEFAULT_CODE "
00002f41 4152545f5345 
00002f47 435f44454641 
00002f4d 554c545f434f 
00002f53 44452000 
00002f57 03             9796 	.byte	3
00002f58 0d             9797 	.byte	13
00002f59 0d             9798 	.byte	13
00002f5a 01             9799 	.byte	1
00002f5b d308           9800 	.byte	211,8
00002f5d 53544152545f   9801 	.strz	"START_SEC_CODE "
00002f63 5345435f434f 
00002f69 44452000 
00002f6d 03             9802 	.byte	3
00002f6e bb09           9803 	.byte	187,9
00002f70 0e             9804 	.byte	14
00002f71 01             9805 	.byte	1
00002f72 f307           9806 	.byte	243,7
00002f74 434f44455f53   9807 	.strz	"CODE_SEC_OPEN "
00002f7a 45435f4f5045 
00002f80 4e2000 
00002f83 04             9808 	.byte	4
00002f84 04             9809 	.byte	4
00002f85 01             9810 	.byte	1
00002f86 11             9811 	.byte	17
00002f87 44434d5f5741   9812 	.strz	"DCM_WAS_STARTED_SEC_ROM_CODE "
00002f8d 535f53544152 
00002f93 5445445f5345 
00002f99 435f524f4d5f 
00002f9f 434f44452000 
00002fa5 04             9813 	.byte	4
00002fa6 01             9814 	.byte	1
00002fa7 21             9815 	.byte	33
00002fa8 44434d5f5354   9816 	.strz	"DCM_STOP_SEC_CODE "
00002fae 4f505f534543 
00002fb4 5f434f444520 
00002fba 00 
00002fbb 03             9817 	.byte	3
00002fbc 22             9818 	.byte	34
00002fbd 0c             9819 	.byte	12
00002fbe 01             9820 	.byte	1
00002fbf 06             9821 	.byte	6
00002fc0 4d454d4d4150   9822 	.strz	"MEMMAP_ERROR "
00002fc6 5f4552524f52 
00002fcc 2000 
00002fce 01             9823 	.byte	1
00002fcf 18             9824 	.byte	24
00002fd0 4253575f5354   9825 	.strz	"BSW_STOP_SEC_DEFAULT_CODE "

                                                                      Page 205
                                                              C:\Users\nhuliyap\AppData\Local\Temp\gh_000075o1.s
00002fd6 4f505f534543 
00002fdc 5f4445464155 
00002fe2 4c545f434f44 
00002fe8 452000 
00002feb 03             9826 	.byte	3
00002fec 19             9827 	.byte	25
00002fed 0d             9828 	.byte	13
00002fee 01             9829 	.byte	1
00002fef d608           9830 	.byte	214,8
00002ff1 53544f505f53   9831 	.strz	"STOP_SEC_CODE "
00002ff7 45435f434f44 
00002ffd 452000 
00003000 03             9832 	.byte	3
00003001 bb09           9833 	.byte	187,9
00003003 0e             9834 	.byte	14
00003004 04             9835 	.byte	4
00003005 04             9836 	.byte	4
00003006 04             9837 	.byte	4
00003007 01             9838 	.byte	1
00003008 23             9839 	.byte	35
00003009 44434d5f5354   9840 	.strz	"DCM_START_SEC_CONST_UNSPECIFIED "
0000300f 4152545f5345 
00003015 435f434f4e53 
0000301b 545f554e5350 
00003021 454349464945 
00003027 442000 
0000302a 03             9841 	.byte	3
0000302b 24             9842 	.byte	36
0000302c 0c             9843 	.byte	12
0000302d 01             9844 	.byte	1
0000302e 06             9845 	.byte	6
0000302f 4d454d4d4150   9846 	.strz	"MEMMAP_ERROR "
00003035 5f4552524f52 
0000303b 2000 
0000303d 01             9847 	.byte	1
0000303e 21             9848 	.byte	33
0000303f 4253575f5354   9849 	.strz	"BSW_START_SEC_DEFAULT_CONST_UNSPECIFIED "
00003045 4152545f5345 
0000304b 435f44454641 
00003051 554c545f434f 
00003057 4e53545f554e 
0000305d 535045434946 
00003063 4945442000 
00003068 03             9850 	.byte	3
00003069 22             9851 	.byte	34
0000306a 0d             9852 	.byte	13
0000306b 01             9853 	.byte	1
0000306c bc05           9854 	.byte	188,5
0000306e 53544152545f   9855 	.strz	"START_SEC_CONST_UNSPECIFIED "
00003074 5345435f434f 
0000307a 4e53545f554e 
00003080 535045434946 
00003086 4945442000 
0000308b 03             9856 	.byte	3
0000308c bb09           9857 	.byte	187,9
0000308e 0e             9858 	.byte	14
0000308f 01             9859 	.byte	1
00003090 b408           9860 	.byte	180,8
00003092 434f4e53545f   9861 	.strz	"CONST_SEC_OPEN "
00003098 5345435f4f50 
0000309e 454e2000 

                                                                      Page 206
                                                              C:\Users\nhuliyap\AppData\Local\Temp\gh_000075o1.s
000030a2 04             9862 	.byte	4
000030a3 04             9863 	.byte	4
000030a4 01             9864 	.byte	1
000030a5 26             9865 	.byte	38
000030a6 44434d5f5741   9866 	.strz	"DCM_WAS_STARTED_SEC_CONST_UNSPECIFIED "
000030ac 535f53544152 
000030b2 5445445f5345 
000030b8 435f434f4e53 
000030be 545f554e5350 
000030c4 454349464945 
000030ca 442000 
000030cd 04             9867 	.byte	4
000030ce 01             9868 	.byte	1
000030cf 26             9869 	.byte	38
000030d0 44434d5f5354   9870 	.strz	"DCM_STOP_SEC_CONST_UNSPECIFIED "
000030d6 4f505f534543 
000030dc 5f434f4e5354 
000030e2 5f554e535045 
000030e8 434946494544 
000030ee 2000 
000030f0 03             9871 	.byte	3
000030f1 27             9872 	.byte	39
000030f2 0c             9873 	.byte	12
000030f3 01             9874 	.byte	1
000030f4 06             9875 	.byte	6
000030f5 4d454d4d4150   9876 	.strz	"MEMMAP_ERROR "
000030fb 5f4552524f52 
00003101 2000 
00003103 01             9877 	.byte	1
00003104 2d             9878 	.byte	45
00003105 4253575f5354   9879 	.strz	"BSW_STOP_SEC_DEFAULT_CONST_UNSPECIFIED "
0000310b 4f505f534543 
00003111 5f4445464155 
00003117 4c545f434f4e 
0000311d 53545f554e53 
00003123 504543494649 
00003129 45442000 
0000312d 03             9880 	.byte	3
0000312e 2e             9881 	.byte	46
0000312f 0d             9882 	.byte	13
00003130 01             9883 	.byte	1
00003131 bf05           9884 	.byte	191,5
00003133 53544f505f53   9885 	.strz	"STOP_SEC_CONST "
00003139 45435f434f4e 
0000313f 53542000 
00003143 03             9886 	.byte	3
00003144 bb09           9887 	.byte	187,9
00003146 0e             9888 	.byte	14
00003147 04             9889 	.byte	4
00003148 04             9890 	.byte	4
00003149 04             9891 	.byte	4
0000314a 01             9892 	.byte	1
0000314b 29             9893 	.byte	41
0000314c 44434d5f5354   9894 	.strz	"DCM_START_SEC_CODE "
00003152 4152545f5345 
00003158 435f434f4445 
0000315e 2000 
00003160 03             9895 	.byte	3
00003161 2a             9896 	.byte	42
00003162 0c             9897 	.byte	12
00003163 01             9898 	.byte	1

                                                                      Page 207
                                                              C:\Users\nhuliyap\AppData\Local\Temp\gh_000075o1.s
00003164 06             9899 	.byte	6
00003165 4d454d4d4150   9900 	.strz	"MEMMAP_ERROR "
0000316b 5f4552524f52 
00003171 2000 
00003173 01             9901 	.byte	1
00003174 0c             9902 	.byte	12
00003175 4253575f5354   9903 	.strz	"BSW_START_SEC_DEFAULT_CODE "
0000317b 4152545f5345 
00003181 435f44454641 
00003187 554c545f434f 
0000318d 44452000 
00003191 03             9904 	.byte	3
00003192 0d             9905 	.byte	13
00003193 0d             9906 	.byte	13
00003194 01             9907 	.byte	1
00003195 d308           9908 	.byte	211,8
00003197 53544152545f   9909 	.strz	"START_SEC_CODE "
0000319d 5345435f434f 
000031a3 44452000 
000031a7 03             9910 	.byte	3
000031a8 bb09           9911 	.byte	187,9
000031aa 0e             9912 	.byte	14
000031ab 01             9913 	.byte	1
000031ac f307           9914 	.byte	243,7
000031ae 434f44455f53   9915 	.strz	"CODE_SEC_OPEN "
000031b4 45435f4f5045 
000031ba 4e2000 
000031bd 04             9916 	.byte	4
000031be 04             9917 	.byte	4
000031bf 01             9918 	.byte	1
000031c0 11             9919 	.byte	17
000031c1 44434d5f5741   9920 	.strz	"DCM_WAS_STARTED_SEC_ROM_CODE "
000031c7 535f53544152 
000031cd 5445445f5345 
000031d3 435f524f4d5f 
000031d9 434f44452000 
000031df 04             9921 	.byte	4
000031e0 01             9922 	.byte	1
000031e1 31             9923 	.byte	49
000031e2 44434d5f5354   9924 	.strz	"DCM_STOP_SEC_CODE "
000031e8 4f505f534543 
000031ee 5f434f444520 
000031f4 00 
000031f5 03             9925 	.byte	3
000031f6 32             9926 	.byte	50
000031f7 0c             9927 	.byte	12
000031f8 01             9928 	.byte	1
000031f9 06             9929 	.byte	6
000031fa 4d454d4d4150   9930 	.strz	"MEMMAP_ERROR "
00003200 5f4552524f52 
00003206 2000 
00003208 01             9931 	.byte	1
00003209 18             9932 	.byte	24
0000320a 4253575f5354   9933 	.strz	"BSW_STOP_SEC_DEFAULT_CODE "
00003210 4f505f534543 
00003216 5f4445464155 
0000321c 4c545f434f44 
00003222 452000 
00003225 03             9934 	.byte	3
00003226 19             9935 	.byte	25
00003227 0d             9936 	.byte	13

                                                                      Page 208
                                                              C:\Users\nhuliyap\AppData\Local\Temp\gh_000075o1.s
00003228 01             9937 	.byte	1
00003229 d608           9938 	.byte	214,8
0000322b 53544f505f53   9939 	.strz	"STOP_SEC_CODE "
00003231 45435f434f44 
00003237 452000 
0000323a 03             9940 	.byte	3
0000323b bb09           9941 	.byte	187,9
0000323d 0e             9942 	.byte	14
0000323e 04             9943 	.byte	4
0000323f 04             9944 	.byte	4
00003240 04             9945 	.byte	4
00003241 04             9946 	.byte	4
00003242 03             9947 	.byte	3
00003243 13             9948 	.byte	19
00003244 19             9949 	.byte	25
00003245 01             9950 	.byte	1
00003246 22             9951 	.byte	34
00003247 44434d5f5354   9952 	.strz	"DCM_START_SEC_CONST_UNSPECIFIED "
0000324d 4152545f5345 
00003253 435f434f4e53 
00003259 545f554e5350 
0000325f 454349464945 
00003265 442000 
00003268 03             9953 	.byte	3
00003269 23             9954 	.byte	35
0000326a 0c             9955 	.byte	12
0000326b 01             9956 	.byte	1
0000326c 06             9957 	.byte	6
0000326d 4d454d4d4150   9958 	.strz	"MEMMAP_ERROR "
00003273 5f4552524f52 
00003279 2000 
0000327b 01             9959 	.byte	1
0000327c 21             9960 	.byte	33
0000327d 4253575f5354   9961 	.strz	"BSW_START_SEC_DEFAULT_CONST_UNSPECIFIED "
00003283 4152545f5345 
00003289 435f44454641 
0000328f 554c545f434f 
00003295 4e53545f554e 
0000329b 535045434946 
000032a1 4945442000 
000032a6 03             9962 	.byte	3
000032a7 22             9963 	.byte	34
000032a8 0d             9964 	.byte	13
000032a9 01             9965 	.byte	1
000032aa bc05           9966 	.byte	188,5
000032ac 53544152545f   9967 	.strz	"START_SEC_CONST_UNSPECIFIED "
000032b2 5345435f434f 
000032b8 4e53545f554e 
000032be 535045434946 
000032c4 4945442000 
000032c9 03             9968 	.byte	3
000032ca bb09           9969 	.byte	187,9
000032cc 0e             9970 	.byte	14
000032cd 01             9971 	.byte	1
000032ce b408           9972 	.byte	180,8
000032d0 434f4e53545f   9973 	.strz	"CONST_SEC_OPEN "
000032d6 5345435f4f50 
000032dc 454e2000 
000032e0 04             9974 	.byte	4
000032e1 04             9975 	.byte	4
000032e2 01             9976 	.byte	1

                                                                      Page 209
                                                              C:\Users\nhuliyap\AppData\Local\Temp\gh_000075o1.s
000032e3 26             9977 	.byte	38
000032e4 44434d5f5741   9978 	.strz	"DCM_WAS_STARTED_SEC_CONST_UNSPECIFIED "
000032ea 535f53544152 
000032f0 5445445f5345 
000032f6 435f434f4e53 
000032fc 545f554e5350 
00003302 454349464945 
00003308 442000 
0000330b 04             9979 	.byte	4
0000330c 01             9980 	.byte	1
0000330d 26             9981 	.byte	38
0000330e 44434d5f5354   9982 	.strz	"DCM_STOP_SEC_CONST_UNSPECIFIED "
00003314 4f505f534543 
0000331a 5f434f4e5354 
00003320 5f554e535045 
00003326 434946494544 
0000332c 2000 
0000332e 03             9983 	.byte	3
0000332f 27             9984 	.byte	39
00003330 0c             9985 	.byte	12
00003331 01             9986 	.byte	1
00003332 06             9987 	.byte	6
00003333 4d454d4d4150   9988 	.strz	"MEMMAP_ERROR "
00003339 5f4552524f52 
0000333f 2000 
00003341 01             9989 	.byte	1
00003342 2d             9990 	.byte	45
00003343 4253575f5354   9991 	.strz	"BSW_STOP_SEC_DEFAULT_CONST_UNSPECIFIED "
00003349 4f505f534543 
0000334f 5f4445464155 
00003355 4c545f434f4e 
0000335b 53545f554e53 
00003361 504543494649 
00003367 45442000 
0000336b 03             9992 	.byte	3
0000336c 2e             9993 	.byte	46
0000336d 0d             9994 	.byte	13
0000336e 01             9995 	.byte	1
0000336f bf05           9996 	.byte	191,5
00003371 53544f505f53   9997 	.strz	"STOP_SEC_CONST "
00003377 45435f434f4e 
0000337d 53542000 
00003381 03             9998 	.byte	3
00003382 bb09           9999 	.byte	187,9
00003384 0e            10000 	.byte	14
00003385 04            10001 	.byte	4
00003386 04            10002 	.byte	4
00003387 04            10003 	.byte	4
00003388 01            10004 	.byte	1
00003389 32            10005 	.byte	50
0000338a 44434d5f5354  10006 	.strz	"DCM_START_SEC_VAR_INIT_UNSPECIFIED "
00003390 4152545f5345 
00003396 435f5641525f 
0000339c 494e49545f55 
000033a2 4e5350454349 
000033a8 464945442000 
000033ae 03            10007 	.byte	3
000033af 33            10008 	.byte	51
000033b0 0c            10009 	.byte	12
000033b1 01            10010 	.byte	1
000033b2 06            10011 	.byte	6

                                                                      Page 210
                                                              C:\Users\nhuliyap\AppData\Local\Temp\gh_000075o1.s
000033b3 4d454d4d4150  10012 	.strz	"MEMMAP_ERROR "
000033b9 5f4552524f52 
000033bf 2000 
000033c1 01            10013 	.byte	1
000033c2 9b03          10014 	.byte	155,3
000033c4 4253575f5354  10015 	.strz	"BSW_START_SEC_DEFAULT_RAM0_INIT_UNSPECIFIED "
000033ca 4152545f5345 
000033d0 435f44454641 
000033d6 554c545f5241 
000033dc 4d305f494e49 
000033e2 545f554e5350 
000033e8 454349464945 
000033ee 442000 
000033f1 03            10016 	.byte	3
000033f2 9c03          10017 	.byte	156,3
000033f4 0d            10018 	.byte	13
000033f5 01            10019 	.byte	1
000033f6 9105          10020 	.byte	145,5
000033f8 53544152545f  10021 	.strz	"START_SEC_VAR_INIT_UNSPECIFIED "
000033fe 5345435f5641 
00003404 525f494e4954 
0000340a 5f554e535045 
00003410 434946494544 
00003416 2000 
00003418 03            10022 	.byte	3
00003419 bb09          10023 	.byte	187,9
0000341b 0e            10024 	.byte	14
0000341c 01            10025 	.byte	1
0000341d a109          10026 	.byte	161,9
0000341f 5641525f5345  10027 	.strz	"VAR_SEC_OPEN "
00003425 435f4f50454e 
0000342b 2000 
0000342d 04            10028 	.byte	4
0000342e 04            10029 	.byte	4
0000342f 01            10030 	.byte	1
00003430 a003          10031 	.byte	160,3
00003432 44434d5f5741  10032 	.strz	"DCM_WAS_STARTED_SEC_VAR_INIT_UNSPECIFIED "
00003438 535f53544152 
0000343e 5445445f5345 
00003444 435f5641525f 
0000344a 494e49545f55 
00003450 4e5350454349 
00003456 464945442000 
0000345c 04            10033 	.byte	4
0000345d 01            10034 	.byte	1
0000345e 36            10035 	.byte	54
0000345f 44434d5f5354  10036 	.strz	"DCM_STOP_SEC_VAR_INIT_UNSPECIFIED "
00003465 4f505f534543 
0000346b 5f5641525f49 
00003471 4e49545f554e 
00003477 535045434946 
0000347d 4945442000 
00003482 03            10037 	.byte	3
00003483 37            10038 	.byte	55
00003484 0c            10039 	.byte	12
00003485 01            10040 	.byte	1
00003486 06            10041 	.byte	6
00003487 4d454d4d4150  10042 	.strz	"MEMMAP_ERROR "
0000348d 5f4552524f52 
00003493 2000 
00003495 01            10043 	.byte	1

                                                                      Page 211
                                                              C:\Users\nhuliyap\AppData\Local\Temp\gh_000075o1.s
00003496 a703          10044 	.byte	167,3
00003498 4253575f5354  10045 	.strz	"BSW_STOP_SEC_DEFAULT_RAM0_INIT_UNSPECIFIED "
0000349e 4f505f534543 
000034a4 5f4445464155 
000034aa 4c545f52414d 
000034b0 305f494e4954 
000034b6 5f554e535045 
000034bc 434946494544 
000034c2 2000 
000034c4 03            10046 	.byte	3
000034c5 a803          10047 	.byte	168,3
000034c7 0d            10048 	.byte	13
000034c8 01            10049 	.byte	1
000034c9 9405          10050 	.byte	148,5
000034cb 53544f505f53  10051 	.strz	"STOP_SEC_VAR "
000034d1 45435f564152 
000034d7 2000 
000034d9 03            10052 	.byte	3
000034da bb09          10053 	.byte	187,9
000034dc 0e            10054 	.byte	14
000034dd 04            10055 	.byte	4
000034de 04            10056 	.byte	4
000034df 04            10057 	.byte	4
000034e0 04            10058 	.byte	4
000034e1 03            10059 	.byte	3
000034e2 17            10060 	.byte	23
000034e3 1a            10061 	.byte	26
000034e4 01            10062 	.byte	1
000034e5 12            10063 	.byte	18
000034e6 44434d5f5354  10064 	.strz	"DCM_START_SEC_CODE "
000034ec 4152545f5345 
000034f2 435f434f4445 
000034f8 2000 
000034fa 03            10065 	.byte	3
000034fb 13            10066 	.byte	19
000034fc 0c            10067 	.byte	12
000034fd 01            10068 	.byte	1
000034fe 06            10069 	.byte	6
000034ff 4d454d4d4150  10070 	.strz	"MEMMAP_ERROR "
00003505 5f4552524f52 
0000350b 2000 
0000350d 01            10071 	.byte	1
0000350e 0c            10072 	.byte	12
0000350f 4253575f5354  10073 	.strz	"BSW_START_SEC_DEFAULT_CODE "
00003515 4152545f5345 
0000351b 435f44454641 
00003521 554c545f434f 
00003527 44452000 
0000352b 03            10074 	.byte	3
0000352c 0d            10075 	.byte	13
0000352d 0d            10076 	.byte	13
0000352e 01            10077 	.byte	1
0000352f d308          10078 	.byte	211,8
00003531 53544152545f  10079 	.strz	"START_SEC_CODE "
00003537 5345435f434f 
0000353d 44452000 
00003541 03            10080 	.byte	3
00003542 bb09          10081 	.byte	187,9
00003544 0e            10082 	.byte	14
00003545 01            10083 	.byte	1
00003546 f307          10084 	.byte	243,7

                                                                      Page 212
                                                              C:\Users\nhuliyap\AppData\Local\Temp\gh_000075o1.s
00003548 434f44455f53  10085 	.strz	"CODE_SEC_OPEN "
0000354e 45435f4f5045 
00003554 4e2000 
00003557 04            10086 	.byte	4
00003558 04            10087 	.byte	4
00003559 01            10088 	.byte	1
0000355a 11            10089 	.byte	17
0000355b 44434d5f5741  10090 	.strz	"DCM_WAS_STARTED_SEC_ROM_CODE "
00003561 535f53544152 
00003567 5445445f5345 
0000356d 435f524f4d5f 
00003573 434f44452000 
00003579 04            10091 	.byte	4
0000357a 01            10092 	.byte	1
0000357b 16            10093 	.byte	22
0000357c 44434d5f5354  10094 	.strz	"DCM_STOP_SEC_CODE "
00003582 4f505f534543 
00003588 5f434f444520 
0000358e 00 
0000358f 03            10095 	.byte	3
00003590 17            10096 	.byte	23
00003591 0c            10097 	.byte	12
00003592 01            10098 	.byte	1
00003593 06            10099 	.byte	6
00003594 4d454d4d4150  10100 	.strz	"MEMMAP_ERROR "
0000359a 5f4552524f52 
000035a0 2000 
000035a2 01            10101 	.byte	1
000035a3 18            10102 	.byte	24
000035a4 4253575f5354  10103 	.strz	"BSW_STOP_SEC_DEFAULT_CODE "
000035aa 4f505f534543 
000035b0 5f4445464155 
000035b6 4c545f434f44 
000035bc 452000 
000035bf 03            10104 	.byte	3
000035c0 19            10105 	.byte	25
000035c1 0d            10106 	.byte	13
000035c2 01            10107 	.byte	1
000035c3 d608          10108 	.byte	214,8
000035c5 53544f505f53  10109 	.strz	"STOP_SEC_CODE "
000035cb 45435f434f44 
000035d1 452000 
000035d4 03            10110 	.byte	3
000035d5 bb09          10111 	.byte	187,9
000035d7 0e            10112 	.byte	14
000035d8 04            10113 	.byte	4
000035d9 04            10114 	.byte	4
000035da 04            10115 	.byte	4
000035db 04            10116 	.byte	4
000035dc 03            10117 	.byte	3
000035dd 23            10118 	.byte	35
000035de 1b            10119 	.byte	27
000035df 04            10120 	.byte	4
000035e0 01            10121 	.byte	1
000035e1 26            10122 	.byte	38
000035e2 44434d5f5354  10123 	.strz	"DCM_START_SEC_CODE "
000035e8 4152545f5345 
000035ee 435f434f4445 
000035f4 2000 
000035f6 03            10124 	.byte	3
000035f7 27            10125 	.byte	39

                                                                      Page 213
                                                              C:\Users\nhuliyap\AppData\Local\Temp\gh_000075o1.s
000035f8 0c            10126 	.byte	12
000035f9 01            10127 	.byte	1
000035fa 06            10128 	.byte	6
000035fb 4d454d4d4150  10129 	.strz	"MEMMAP_ERROR "
00003601 5f4552524f52 
00003607 2000 
00003609 01            10130 	.byte	1
0000360a 0c            10131 	.byte	12
0000360b 4253575f5354  10132 	.strz	"BSW_START_SEC_DEFAULT_CODE "
00003611 4152545f5345 
00003617 435f44454641 
0000361d 554c545f434f 
00003623 44452000 
00003627 03            10133 	.byte	3
00003628 0d            10134 	.byte	13
00003629 0d            10135 	.byte	13
0000362a 01            10136 	.byte	1
0000362b d308          10137 	.byte	211,8
0000362d 53544152545f  10138 	.strz	"START_SEC_CODE "
00003633 5345435f434f 
00003639 44452000 
0000363d 03            10139 	.byte	3
0000363e bb09          10140 	.byte	187,9
00003640 0e            10141 	.byte	14
00003641 01            10142 	.byte	1
00003642 f307          10143 	.byte	243,7
00003644 434f44455f53  10144 	.strz	"CODE_SEC_OPEN "
0000364a 45435f4f5045 
00003650 4e2000 
00003653 04            10145 	.byte	4
00003654 04            10146 	.byte	4
00003655 01            10147 	.byte	1
00003656 11            10148 	.byte	17
00003657 44434d5f5741  10149 	.strz	"DCM_WAS_STARTED_SEC_ROM_CODE "
0000365d 535f53544152 
00003663 5445445f5345 
00003669 435f524f4d5f 
0000366f 434f44452000 
00003675 04            10150 	.byte	4
00003676 01            10151 	.byte	1
00003677 2a            10152 	.byte	42
00003678 44434d5f5354  10153 	.strz	"DCM_STOP_SEC_CODE "
0000367e 4f505f534543 
00003684 5f434f444520 
0000368a 00 
0000368b 03            10154 	.byte	3
0000368c 2b            10155 	.byte	43
0000368d 0c            10156 	.byte	12
0000368e 01            10157 	.byte	1
0000368f 06            10158 	.byte	6
00003690 4d454d4d4150  10159 	.strz	"MEMMAP_ERROR "
00003696 5f4552524f52 
0000369c 2000 
0000369e 01            10160 	.byte	1
0000369f 18            10161 	.byte	24
000036a0 4253575f5354  10162 	.strz	"BSW_STOP_SEC_DEFAULT_CODE "
000036a6 4f505f534543 
000036ac 5f4445464155 
000036b2 4c545f434f44 
000036b8 452000 
000036bb 03            10163 	.byte	3

                                                                      Page 214
                                                              C:\Users\nhuliyap\AppData\Local\Temp\gh_000075o1.s
000036bc 19            10164 	.byte	25
000036bd 0d            10165 	.byte	13
000036be 01            10166 	.byte	1
000036bf d608          10167 	.byte	214,8
000036c1 53544f505f53  10168 	.strz	"STOP_SEC_CODE "
000036c7 45435f434f44 
000036cd 452000 
000036d0 03            10169 	.byte	3
000036d1 bb09          10170 	.byte	187,9
000036d3 0e            10171 	.byte	14
000036d4 04            10172 	.byte	4
000036d5 04            10173 	.byte	4
000036d6 04            10174 	.byte	4
000036d7 01            10175 	.byte	1
000036d8 9301          10176 	.byte	147,1
000036da 44434d5f5354  10177 	.strz	"DCM_START_SEC_CODE "
000036e0 4152545f5345 
000036e6 435f434f4445 
000036ec 2000 
000036ee 03            10178 	.byte	3
000036ef 9401          10179 	.byte	148,1
000036f1 0c            10180 	.byte	12
000036f2 01            10181 	.byte	1
000036f3 06            10182 	.byte	6
000036f4 4d454d4d4150  10183 	.strz	"MEMMAP_ERROR "
000036fa 5f4552524f52 
00003700 2000 
00003702 01            10184 	.byte	1
00003703 0c            10185 	.byte	12
00003704 4253575f5354  10186 	.strz	"BSW_START_SEC_DEFAULT_CODE "
0000370a 4152545f5345 
00003710 435f44454641 
00003716 554c545f434f 
0000371c 44452000 
00003720 03            10187 	.byte	3
00003721 0d            10188 	.byte	13
00003722 0d            10189 	.byte	13
00003723 01            10190 	.byte	1
00003724 d308          10191 	.byte	211,8
00003726 53544152545f  10192 	.strz	"START_SEC_CODE "
0000372c 5345435f434f 
00003732 44452000 
00003736 03            10193 	.byte	3
00003737 bb09          10194 	.byte	187,9
00003739 0e            10195 	.byte	14
0000373a 01            10196 	.byte	1
0000373b f307          10197 	.byte	243,7
0000373d 434f44455f53  10198 	.strz	"CODE_SEC_OPEN "
00003743 45435f4f5045 
00003749 4e2000 
0000374c 04            10199 	.byte	4
0000374d 04            10200 	.byte	4
0000374e 01            10201 	.byte	1
0000374f 11            10202 	.byte	17
00003750 44434d5f5741  10203 	.strz	"DCM_WAS_STARTED_SEC_ROM_CODE "
00003756 535f53544152 
0000375c 5445445f5345 
00003762 435f524f4d5f 
00003768 434f44452000 
0000376e 04            10204 	.byte	4
0000376f 01            10205 	.byte	1

                                                                      Page 215
                                                              C:\Users\nhuliyap\AppData\Local\Temp\gh_000075o1.s
00003770 c401          10206 	.byte	196,1
00003772 44434d5f5354  10207 	.strz	"DCM_STOP_SEC_CODE "
00003778 4f505f534543 
0000377e 5f434f444520 
00003784 00 
00003785 03            10208 	.byte	3
00003786 c501          10209 	.byte	197,1
00003788 0c            10210 	.byte	12
00003789 01            10211 	.byte	1
0000378a 06            10212 	.byte	6
0000378b 4d454d4d4150  10213 	.strz	"MEMMAP_ERROR "
00003791 5f4552524f52 
00003797 2000 
00003799 01            10214 	.byte	1
0000379a 18            10215 	.byte	24
0000379b 4253575f5354  10216 	.strz	"BSW_STOP_SEC_DEFAULT_CODE "
000037a1 4f505f534543 
000037a7 5f4445464155 
000037ad 4c545f434f44 
000037b3 452000 
000037b6 03            10217 	.byte	3
000037b7 19            10218 	.byte	25
000037b8 0d            10219 	.byte	13
000037b9 01            10220 	.byte	1
000037ba d608          10221 	.byte	214,8
000037bc 53544f505f53  10222 	.strz	"STOP_SEC_CODE "
000037c2 45435f434f44 
000037c8 452000 
000037cb 03            10223 	.byte	3
000037cc bb09          10224 	.byte	187,9
000037ce 0e            10225 	.byte	14
000037cf 04            10226 	.byte	4
000037d0 04            10227 	.byte	4
000037d1 04            10228 	.byte	4
000037d2 01            10229 	.byte	1
000037d3 c901          10230 	.byte	201,1
000037d5 44434d5f5354  10231 	.strz	"DCM_START_SEC_CODE "
000037db 4152545f5345 
000037e1 435f434f4445 
000037e7 2000 
000037e9 03            10232 	.byte	3
000037ea ca01          10233 	.byte	202,1
000037ec 0c            10234 	.byte	12
000037ed 01            10235 	.byte	1
000037ee 06            10236 	.byte	6
000037ef 4d454d4d4150  10237 	.strz	"MEMMAP_ERROR "
000037f5 5f4552524f52 
000037fb 2000 
000037fd 01            10238 	.byte	1
000037fe 0c            10239 	.byte	12
000037ff 4253575f5354  10240 	.strz	"BSW_START_SEC_DEFAULT_CODE "
00003805 4152545f5345 
0000380b 435f44454641 
00003811 554c545f434f 
00003817 44452000 
0000381b 03            10241 	.byte	3
0000381c 0d            10242 	.byte	13
0000381d 0d            10243 	.byte	13
0000381e 01            10244 	.byte	1
0000381f d308          10245 	.byte	211,8
00003821 53544152545f  10246 	.strz	"START_SEC_CODE "

                                                                      Page 216
                                                              C:\Users\nhuliyap\AppData\Local\Temp\gh_000075o1.s
00003827 5345435f434f 
0000382d 44452000 
00003831 03            10247 	.byte	3
00003832 bb09          10248 	.byte	187,9
00003834 0e            10249 	.byte	14
00003835 01            10250 	.byte	1
00003836 f307          10251 	.byte	243,7
00003838 434f44455f53  10252 	.strz	"CODE_SEC_OPEN "
0000383e 45435f4f5045 
00003844 4e2000 
00003847 04            10253 	.byte	4
00003848 04            10254 	.byte	4
00003849 01            10255 	.byte	1
0000384a 11            10256 	.byte	17
0000384b 44434d5f5741  10257 	.strz	"DCM_WAS_STARTED_SEC_ROM_CODE "
00003851 535f53544152 
00003857 5445445f5345 
0000385d 435f524f4d5f 
00003863 434f44452000 
00003869 04            10258 	.byte	4
0000386a 01            10259 	.byte	1
0000386b cc01          10260 	.byte	204,1
0000386d 44434d5f5354  10261 	.strz	"DCM_STOP_SEC_CODE "
00003873 4f505f534543 
00003879 5f434f444520 
0000387f 00 
00003880 03            10262 	.byte	3
00003881 cd01          10263 	.byte	205,1
00003883 0c            10264 	.byte	12
00003884 01            10265 	.byte	1
00003885 06            10266 	.byte	6
00003886 4d454d4d4150  10267 	.strz	"MEMMAP_ERROR "
0000388c 5f4552524f52 
00003892 2000 
00003894 01            10268 	.byte	1
00003895 18            10269 	.byte	24
00003896 4253575f5354  10270 	.strz	"BSW_STOP_SEC_DEFAULT_CODE "
0000389c 4f505f534543 
000038a2 5f4445464155 
000038a8 4c545f434f44 
000038ae 452000 
000038b1 03            10271 	.byte	3
000038b2 19            10272 	.byte	25
000038b3 0d            10273 	.byte	13
000038b4 01            10274 	.byte	1
000038b5 d608          10275 	.byte	214,8
000038b7 53544f505f53  10276 	.strz	"STOP_SEC_CODE "
000038bd 45435f434f44 
000038c3 452000 
000038c6 03            10277 	.byte	3
000038c7 bb09          10278 	.byte	187,9
000038c9 0e            10279 	.byte	14
000038ca 04            10280 	.byte	4
000038cb 04            10281 	.byte	4
000038cc 04            10282 	.byte	4
000038cd 04            10283 	.byte	4
000038ce 03            10284 	.byte	3
000038cf 0f            10285 	.byte	15
000038d0 1c            10286 	.byte	28
000038d1 01            10287 	.byte	1
000038d2 04            10288 	.byte	4

                                                                      Page 217
                                                              C:\Users\nhuliyap\AppData\Local\Temp\gh_000075o1.s
000038d3 44434d5f5354  10289 	.strz	"DCM_START_SEC_CODE "
000038d9 4152545f5345 
000038df 435f434f4445 
000038e5 2000 
000038e7 03            10290 	.byte	3
000038e8 05            10291 	.byte	5
000038e9 0c            10292 	.byte	12
000038ea 01            10293 	.byte	1
000038eb 06            10294 	.byte	6
000038ec 4d454d4d4150  10295 	.strz	"MEMMAP_ERROR "
000038f2 5f4552524f52 
000038f8 2000 
000038fa 01            10296 	.byte	1
000038fb 0c            10297 	.byte	12
000038fc 4253575f5354  10298 	.strz	"BSW_START_SEC_DEFAULT_CODE "
00003902 4152545f5345 
00003908 435f44454641 
0000390e 554c545f434f 
00003914 44452000 
00003918 03            10299 	.byte	3
00003919 0d            10300 	.byte	13
0000391a 0d            10301 	.byte	13
0000391b 01            10302 	.byte	1
0000391c d308          10303 	.byte	211,8
0000391e 53544152545f  10304 	.strz	"START_SEC_CODE "
00003924 5345435f434f 
0000392a 44452000 
0000392e 03            10305 	.byte	3
0000392f bb09          10306 	.byte	187,9
00003931 0e            10307 	.byte	14
00003932 01            10308 	.byte	1
00003933 f307          10309 	.byte	243,7
00003935 434f44455f53  10310 	.strz	"CODE_SEC_OPEN "
0000393b 45435f4f5045 
00003941 4e2000 
00003944 04            10311 	.byte	4
00003945 04            10312 	.byte	4
00003946 01            10313 	.byte	1
00003947 11            10314 	.byte	17
00003948 44434d5f5741  10315 	.strz	"DCM_WAS_STARTED_SEC_ROM_CODE "
0000394e 535f53544152 
00003954 5445445f5345 
0000395a 435f524f4d5f 
00003960 434f44452000 
00003966 04            10316 	.byte	4
00003967 01            10317 	.byte	1
00003968 3e            10318 	.byte	62
00003969 44434d5f5354  10319 	.strz	"DCM_STOP_SEC_CODE "
0000396f 4f505f534543 
00003975 5f434f444520 
0000397b 00 
0000397c 03            10320 	.byte	3
0000397d 3f            10321 	.byte	63
0000397e 0c            10322 	.byte	12
0000397f 01            10323 	.byte	1
00003980 06            10324 	.byte	6
00003981 4d454d4d4150  10325 	.strz	"MEMMAP_ERROR "
00003987 5f4552524f52 
0000398d 2000 
0000398f 01            10326 	.byte	1
00003990 18            10327 	.byte	24

                                                                      Page 218
                                                              C:\Users\nhuliyap\AppData\Local\Temp\gh_000075o1.s
00003991 4253575f5354  10328 	.strz	"BSW_STOP_SEC_DEFAULT_CODE "
00003997 4f505f534543 
0000399d 5f4445464155 
000039a3 4c545f434f44 
000039a9 452000 
000039ac 03            10329 	.byte	3
000039ad 19            10330 	.byte	25
000039ae 0d            10331 	.byte	13
000039af 01            10332 	.byte	1
000039b0 d608          10333 	.byte	214,8
000039b2 53544f505f53  10334 	.strz	"STOP_SEC_CODE "
000039b8 45435f434f44 
000039be 452000 
000039c1 03            10335 	.byte	3
000039c2 bb09          10336 	.byte	187,9
000039c4 0e            10337 	.byte	14
000039c5 04            10338 	.byte	4
000039c6 04            10339 	.byte	4
000039c7 04            10340 	.byte	4
000039c8 04            10341 	.byte	4
000039c9 01            10342 	.byte	1
000039ca 13            10343 	.byte	19
000039cb 44434d5f5052  10344 	.strz	"DCM_PRV_EXPORTAPI2LEGACY "
000039d1 565f4558504f 
000039d7 525441504932 
000039dd 4c4547414359 
000039e3 2000 
000039e5 01            10345 	.byte	1
000039e6 1c            10346 	.byte	28
000039e7 44434d5f5354  10347 	.strz	"DCM_START_SEC_CODE "
000039ed 4152545f5345 
000039f3 435f434f4445 
000039f9 2000 
000039fb 03            10348 	.byte	3
000039fc 1d            10349 	.byte	29
000039fd 0c            10350 	.byte	12
000039fe 01            10351 	.byte	1
000039ff 06            10352 	.byte	6
00003a00 4d454d4d4150  10353 	.strz	"MEMMAP_ERROR "
00003a06 5f4552524f52 
00003a0c 2000 
00003a0e 01            10354 	.byte	1
00003a0f 0c            10355 	.byte	12
00003a10 4253575f5354  10356 	.strz	"BSW_START_SEC_DEFAULT_CODE "
00003a16 4152545f5345 
00003a1c 435f44454641 
00003a22 554c545f434f 
00003a28 44452000 
00003a2c 03            10357 	.byte	3
00003a2d 0d            10358 	.byte	13
00003a2e 0d            10359 	.byte	13
00003a2f 01            10360 	.byte	1
00003a30 d308          10361 	.byte	211,8
00003a32 53544152545f  10362 	.strz	"START_SEC_CODE "
00003a38 5345435f434f 
00003a3e 44452000 
00003a42 03            10363 	.byte	3
00003a43 bb09          10364 	.byte	187,9
00003a45 0e            10365 	.byte	14
00003a46 01            10366 	.byte	1
00003a47 f307          10367 	.byte	243,7

                                                                      Page 219
                                                              C:\Users\nhuliyap\AppData\Local\Temp\gh_000075o1.s
00003a49 434f44455f53  10368 	.strz	"CODE_SEC_OPEN "
00003a4f 45435f4f5045 
00003a55 4e2000 
00003a58 04            10369 	.byte	4
00003a59 04            10370 	.byte	4
00003a5a 01            10371 	.byte	1
00003a5b 11            10372 	.byte	17
00003a5c 44434d5f5741  10373 	.strz	"DCM_WAS_STARTED_SEC_ROM_CODE "
00003a62 535f53544152 
00003a68 5445445f5345 
00003a6e 435f524f4d5f 
00003a74 434f44452000 
00003a7a 04            10374 	.byte	4
00003a7b 01            10375 	.byte	1
00003a7c 1f            10376 	.byte	31
00003a7d 44434d5f5354  10377 	.strz	"DCM_STOP_SEC_CODE "
00003a83 4f505f534543 
00003a89 5f434f444520 
00003a8f 00 
00003a90 03            10378 	.byte	3
00003a91 20            10379 	.byte	32
00003a92 0c            10380 	.byte	12
00003a93 01            10381 	.byte	1
00003a94 06            10382 	.byte	6
00003a95 4d454d4d4150  10383 	.strz	"MEMMAP_ERROR "
00003a9b 5f4552524f52 
00003aa1 2000 
00003aa3 01            10384 	.byte	1
00003aa4 18            10385 	.byte	24
00003aa5 4253575f5354  10386 	.strz	"BSW_STOP_SEC_DEFAULT_CODE "
00003aab 4f505f534543 
00003ab1 5f4445464155 
00003ab7 4c545f434f44 
00003abd 452000 
00003ac0 03            10387 	.byte	3
00003ac1 19            10388 	.byte	25
00003ac2 0d            10389 	.byte	13
00003ac3 01            10390 	.byte	1
00003ac4 d608          10391 	.byte	214,8
00003ac6 53544f505f53  10392 	.strz	"STOP_SEC_CODE "
00003acc 45435f434f44 
00003ad2 452000 
00003ad5 03            10393 	.byte	3
00003ad6 bb09          10394 	.byte	187,9
00003ad8 0e            10395 	.byte	14
00003ad9 04            10396 	.byte	4
00003ada 04            10397 	.byte	4
00003adb 04            10398 	.byte	4
00003adc 01            10399 	.byte	1
00003add 27            10400 	.byte	39
00003ade 44434d5f5354  10401 	.strz	"DCM_START_SEC_VAR_CLEARED_8 "
00003ae4 4152545f5345 
00003aea 435f5641525f 
00003af0 434c45415245 
00003af6 445f382000 
00003afb 03            10402 	.byte	3
00003afc 28            10403 	.byte	40
00003afd 0c            10404 	.byte	12
00003afe 01            10405 	.byte	1
00003aff 06            10406 	.byte	6
00003b00 4d454d4d4150  10407 	.strz	"MEMMAP_ERROR "

                                                                      Page 220
                                                              C:\Users\nhuliyap\AppData\Local\Temp\gh_000075o1.s
00003b06 5f4552524f52 
00003b0c 2000 
00003b0e 01            10408 	.byte	1
00003b0f f301          10409 	.byte	243,1
00003b11 4253575f5354  10410 	.strz	"BSW_START_SEC_DEFAULT_RAM0_CLEARED_8 "
00003b17 4152545f5345 
00003b1d 435f44454641 
00003b23 554c545f5241 
00003b29 4d305f434c45 
00003b2f 415245445f38 
00003b35 2000 
00003b37 03            10411 	.byte	3
00003b38 f401          10412 	.byte	244,1
00003b3a 0d            10413 	.byte	13
00003b3b 01            10414 	.byte	1
00003b3c 9805          10415 	.byte	152,5
00003b3e 53544152545f  10416 	.strz	"START_SEC_VAR_CLEARED_8 "
00003b44 5345435f5641 
00003b4a 525f434c4541 
00003b50 5245445f3820 
00003b56 00 
00003b57 03            10417 	.byte	3
00003b58 bb09          10418 	.byte	187,9
00003b5a 0e            10419 	.byte	14
00003b5b 01            10420 	.byte	1
00003b5c 46            10421 	.byte	70
00003b5d 53544152545f  10422 	.strz	"START_SEC_VAR_ZERO_INIT_8BIT "
00003b63 5345435f5641 
00003b69 525f5a45524f 
00003b6f 5f494e49545f 
00003b75 384249542000 
00003b7b 01            10423 	.byte	1
00003b7c e009          10424 	.byte	224,9
00003b7e 5641525f5345  10425 	.strz	"VAR_SEC_OPEN "
00003b84 435f4f50454e 
00003b8a 2000 
00003b8c 04            10426 	.byte	4
00003b8d 04            10427 	.byte	4
00003b8e 01            10428 	.byte	1
00003b8f f801          10429 	.byte	248,1
00003b91 44434d5f5741  10430 	.strz	"DCM_WAS_STARTED_SEC_VAR_CLEARED_8 "
00003b97 535f53544152 
00003b9d 5445445f5345 
00003ba3 435f5641525f 
00003ba9 434c45415245 
00003baf 445f382000 
00003bb4 04            10431 	.byte	4
00003bb5 01            10432 	.byte	1
00003bb6 2a            10433 	.byte	42
00003bb7 44434d5f5354  10434 	.strz	"DCM_STOP_SEC_VAR_CLEARED_8 "
00003bbd 4f505f534543 
00003bc3 5f5641525f43 
00003bc9 4c4541524544 
00003bcf 5f382000 
00003bd3 03            10435 	.byte	3
00003bd4 2b            10436 	.byte	43
00003bd5 0c            10437 	.byte	12
00003bd6 01            10438 	.byte	1
00003bd7 06            10439 	.byte	6
00003bd8 4d454d4d4150  10440 	.strz	"MEMMAP_ERROR "
00003bde 5f4552524f52 

                                                                      Page 221
                                                              C:\Users\nhuliyap\AppData\Local\Temp\gh_000075o1.s
00003be4 2000 
00003be6 01            10441 	.byte	1
00003be7 ff01          10442 	.byte	255,1
00003be9 4253575f5354  10443 	.strz	"BSW_STOP_SEC_DEFAULT_RAM0_CLEARED_8 "
00003bef 4f505f534543 
00003bf5 5f4445464155 
00003bfb 4c545f52414d 
00003c01 305f434c4541 
00003c07 5245445f3820 
00003c0d 00 
00003c0e 03            10444 	.byte	3
00003c0f 8002          10445 	.byte	128,2
00003c11 0d            10446 	.byte	13
00003c12 01            10447 	.byte	1
00003c13 9b05          10448 	.byte	155,5
00003c15 53544f505f53  10449 	.strz	"STOP_SEC_VAR "
00003c1b 45435f564152 
00003c21 2000 
00003c23 03            10450 	.byte	3
00003c24 bb09          10451 	.byte	187,9
00003c26 0e            10452 	.byte	14
00003c27 04            10453 	.byte	4
00003c28 04            10454 	.byte	4
00003c29 04            10455 	.byte	4
00003c2a 04            10456 	.byte	4
00003c2b 03            10457 	.byte	3
00003c2c 0d            10458 	.byte	13
00003c2d 1d            10459 	.byte	29
00003c2e 03            10460 	.byte	3
00003c2f 05            10461 	.byte	5
00003c30 1e            10462 	.byte	30
00003c31 03            10463 	.byte	3
00003c32 04            10464 	.byte	4
00003c33 1f            10465 	.byte	31
00003c34 03            10466 	.byte	3
00003c35 04            10467 	.byte	4
00003c36 20            10468 	.byte	32
00003c37 04            10469 	.byte	4
00003c38 04            10470 	.byte	4
00003c39 01            10471 	.byte	1
00003c3a 08            10472 	.byte	8
00003c3b 4445545f4346  10473 	.strz	"DET_CFG_CHECK_API_CONSISTENCY TRUE"
00003c41 475f43484543 
00003c47 4b5f4150495f 
00003c4d 434f4e534953 
00003c53 54454e435920 
00003c59 5452554500 
00003c5e 01            10474 	.byte	1
00003c5f 0a            10475 	.byte	10
00003c60 4445545f5354  10476 	.strz	"DET_START_SEC_ROM_CODE "
00003c66 4152545f5345 
00003c6c 435f524f4d5f 
00003c72 434f44452000 
00003c78 03            10477 	.byte	3
00003c79 0b            10478 	.byte	11
00003c7a 21            10479 	.byte	33
00003c7b 01            10480 	.byte	1
00003c7c 06            10481 	.byte	6
00003c7d 4d454d4d4150  10482 	.strz	"MEMMAP_ERROR "
00003c83 5f4552524f52 
00003c89 2000 

                                                                      Page 222
                                                              C:\Users\nhuliyap\AppData\Local\Temp\gh_000075o1.s
00003c8b 01            10483 	.byte	1
00003c8c 51            10484 	.byte	81
00003c8d 4253575f5354  10485 	.strz	"BSW_START_SEC_DEFAULT_CODE "
00003c93 4152545f5345 
00003c99 435f44454641 
00003c9f 554c545f434f 
00003ca5 44452000 
00003ca9 03            10486 	.byte	3
00003caa 52            10487 	.byte	82
00003cab 0d            10488 	.byte	13
00003cac 01            10489 	.byte	1
00003cad d308          10490 	.byte	211,8
00003caf 53544152545f  10491 	.strz	"START_SEC_CODE "
00003cb5 5345435f434f 
00003cbb 44452000 
00003cbf 03            10492 	.byte	3
00003cc0 bb09          10493 	.byte	187,9
00003cc2 0e            10494 	.byte	14
00003cc3 01            10495 	.byte	1
00003cc4 f307          10496 	.byte	243,7
00003cc6 434f44455f53  10497 	.strz	"CODE_SEC_OPEN "
00003ccc 45435f4f5045 
00003cd2 4e2000 
00003cd5 04            10498 	.byte	4
00003cd6 04            10499 	.byte	4
00003cd7 01            10500 	.byte	1
00003cd8 56            10501 	.byte	86
00003cd9 4445545f5741  10502 	.strz	"DET_WAS_STARTED_SEC_ROM_CODE "
00003cdf 535f53544152 
00003ce5 5445445f5345 
00003ceb 435f524f4d5f 
00003cf1 434f44452000 
00003cf7 04            10503 	.byte	4
00003cf8 01            10504 	.byte	1
00003cf9 20            10505 	.byte	32
00003cfa 4445545f5354  10506 	.strz	"DET_STOP_SEC_ROM_CODE "
00003d00 4f505f534543 
00003d06 5f524f4d5f43 
00003d0c 4f44452000 
00003d11 03            10507 	.byte	3
00003d12 21            10508 	.byte	33
00003d13 21            10509 	.byte	33
00003d14 01            10510 	.byte	1
00003d15 06            10511 	.byte	6
00003d16 4d454d4d4150  10512 	.strz	"MEMMAP_ERROR "
00003d1c 5f4552524f52 
00003d22 2000 
00003d24 01            10513 	.byte	1
00003d25 5e            10514 	.byte	94
00003d26 4253575f5354  10515 	.strz	"BSW_STOP_SEC_DEFAULT_CODE "
00003d2c 4f505f534543 
00003d32 5f4445464155 
00003d38 4c545f434f44 
00003d3e 452000 
00003d41 03            10516 	.byte	3
00003d42 5f            10517 	.byte	95
00003d43 0d            10518 	.byte	13
00003d44 01            10519 	.byte	1
00003d45 d608          10520 	.byte	214,8
00003d47 53544f505f53  10521 	.strz	"STOP_SEC_CODE "
00003d4d 45435f434f44 

                                                                      Page 223
                                                              C:\Users\nhuliyap\AppData\Local\Temp\gh_000075o1.s
00003d53 452000 
00003d56 03            10522 	.byte	3
00003d57 bb09          10523 	.byte	187,9
00003d59 0e            10524 	.byte	14
00003d5a 04            10525 	.byte	4
00003d5b 04            10526 	.byte	4
00003d5c 04            10527 	.byte	4
00003d5d 04            10528 	.byte	4
00003d5e 03            10529 	.byte	3
00003d5f 08            10530 	.byte	8
00003d60 22            10531 	.byte	34
00003d61 01            10532 	.byte	1
00003d62 10            10533 	.byte	16
00003d63 44434d5f5354  10534 	.strz	"DCM_START_SEC_VAR_CLEARED_UNSPECIFIED "
00003d69 4152545f5345 
00003d6f 435f5641525f 
00003d75 434c45415245 
00003d7b 445f554e5350 
00003d81 454349464945 
00003d87 442000 
00003d8a 03            10535 	.byte	3
00003d8b 11            10536 	.byte	17
00003d8c 0c            10537 	.byte	12
00003d8d 01            10538 	.byte	1
00003d8e 06            10539 	.byte	6
00003d8f 4d454d4d4150  10540 	.strz	"MEMMAP_ERROR "
00003d95 5f4552524f52 
00003d9b 2000 
00003d9d 01            10541 	.byte	1
00003d9e c901          10542 	.byte	201,1
00003da0 4253575f5354  10543 	.strz	"BSW_START_SEC_DEFAULT_RAM0_CLEARED_UNSPECIFIED "
00003da6 4152545f5345 
00003dac 435f44454641 
00003db2 554c545f5241 
00003db8 4d305f434c45 
00003dbe 415245445f55 
00003dc4 4e5350454349 
00003dca 464945442000 
00003dd0 03            10544 	.byte	3
00003dd1 ca01          10545 	.byte	202,1
00003dd3 0d            10546 	.byte	13
00003dd4 01            10547 	.byte	1
00003dd5 8a05          10548 	.byte	138,5
00003dd7 53544152545f  10549 	.strz	"START_SEC_VAR_CLEARED_UNSPECIFIED "
00003ddd 5345435f5641 
00003de3 525f434c4541 
00003de9 5245445f554e 
00003def 535045434946 
00003df5 4945442000 
00003dfa 03            10550 	.byte	3
00003dfb bb09          10551 	.byte	187,9
00003dfd 0e            10552 	.byte	14
00003dfe 01            10553 	.byte	1
00003dff 56            10554 	.byte	86
00003e00 53544152545f  10555 	.strz	"START_SEC_VAR_ZERO_INIT_UNSPECIFIED "
00003e06 5345435f5641 
00003e0c 525f5a45524f 
00003e12 5f494e49545f 
00003e18 554e53504543 
00003e1e 494649454420 
00003e24 00 

                                                                      Page 224
                                                              C:\Users\nhuliyap\AppData\Local\Temp\gh_000075o1.s
00003e25 01            10556 	.byte	1
00003e26 840a          10557 	.byte	132,10
00003e28 5641525f5345  10558 	.strz	"VAR_SEC_OPEN "
00003e2e 435f4f50454e 
00003e34 2000 
00003e36 04            10559 	.byte	4
00003e37 04            10560 	.byte	4
00003e38 01            10561 	.byte	1
00003e39 ce01          10562 	.byte	206,1
00003e3b 44434d5f5741  10563 	.strz	"DCM_WAS_STARTED_SEC_VAR_CLEARED_UNSPECIFIED "
00003e41 535f53544152 
00003e47 5445445f5345 
00003e4d 435f5641525f 
00003e53 434c45415245 
00003e59 445f554e5350 
00003e5f 454349464945 
00003e65 442000 
00003e68 04            10564 	.byte	4
00003e69 01            10565 	.byte	1
00003e6a 13            10566 	.byte	19
00003e6b 44434d5f5354  10567 	.strz	"DCM_STOP_SEC_VAR_CLEARED_UNSPECIFIED "
00003e71 4f505f534543 
00003e77 5f5641525f43 
00003e7d 4c4541524544 
00003e83 5f554e535045 
00003e89 434946494544 
00003e8f 2000 
00003e91 03            10568 	.byte	3
00003e92 14            10569 	.byte	20
00003e93 0c            10570 	.byte	12
00003e94 01            10571 	.byte	1
00003e95 06            10572 	.byte	6
00003e96 4d454d4d4150  10573 	.strz	"MEMMAP_ERROR "
00003e9c 5f4552524f52 
00003ea2 2000 
00003ea4 01            10574 	.byte	1
00003ea5 d501          10575 	.byte	213,1
00003ea7 4253575f5354  10576 	.strz	"BSW_STOP_SEC_DEFAULT_RAM0_CLEARED_UNSPECIFIED "
00003ead 4f505f534543 
00003eb3 5f4445464155 
00003eb9 4c545f52414d 
00003ebf 305f434c4541 
00003ec5 5245445f554e 
00003ecb 535045434946 
00003ed1 4945442000 
00003ed6 03            10577 	.byte	3
00003ed7 d601          10578 	.byte	214,1
00003ed9 0d            10579 	.byte	13
00003eda 01            10580 	.byte	1
00003edb 8d05          10581 	.byte	141,5
00003edd 53544f505f53  10582 	.strz	"STOP_SEC_VAR "
00003ee3 45435f564152 
00003ee9 2000 
00003eeb 03            10583 	.byte	3
00003eec bb09          10584 	.byte	187,9
00003eee 0e            10585 	.byte	14
00003eef 04            10586 	.byte	4
00003ef0 04            10587 	.byte	4
00003ef1 04            10588 	.byte	4
00003ef2 01            10589 	.byte	1
00003ef3 16            10590 	.byte	22

                                                                      Page 225
                                                              C:\Users\nhuliyap\AppData\Local\Temp\gh_000075o1.s
00003ef4 44434d5f5354  10591 	.strz	"DCM_START_SEC_CODE "
00003efa 4152545f5345 
00003f00 435f434f4445 
00003f06 2000 
00003f08 03            10592 	.byte	3
00003f09 17            10593 	.byte	23
00003f0a 0c            10594 	.byte	12
00003f0b 01            10595 	.byte	1
00003f0c 06            10596 	.byte	6
00003f0d 4d454d4d4150  10597 	.strz	"MEMMAP_ERROR "
00003f13 5f4552524f52 
00003f19 2000 
00003f1b 01            10598 	.byte	1
00003f1c 0c            10599 	.byte	12
00003f1d 4253575f5354  10600 	.strz	"BSW_START_SEC_DEFAULT_CODE "
00003f23 4152545f5345 
00003f29 435f44454641 
00003f2f 554c545f434f 
00003f35 44452000 
00003f39 03            10601 	.byte	3
00003f3a 0d            10602 	.byte	13
00003f3b 0d            10603 	.byte	13
00003f3c 01            10604 	.byte	1
00003f3d d308          10605 	.byte	211,8
00003f3f 53544152545f  10606 	.strz	"START_SEC_CODE "
00003f45 5345435f434f 
00003f4b 44452000 
00003f4f 03            10607 	.byte	3
00003f50 bb09          10608 	.byte	187,9
00003f52 0e            10609 	.byte	14
00003f53 01            10610 	.byte	1
00003f54 f307          10611 	.byte	243,7
00003f56 434f44455f53  10612 	.strz	"CODE_SEC_OPEN "
00003f5c 45435f4f5045 
00003f62 4e2000 
00003f65 04            10613 	.byte	4
00003f66 04            10614 	.byte	4
00003f67 01            10615 	.byte	1
00003f68 11            10616 	.byte	17
00003f69 44434d5f5741  10617 	.strz	"DCM_WAS_STARTED_SEC_ROM_CODE "
00003f6f 535f53544152 
00003f75 5445445f5345 
00003f7b 435f524f4d5f 
00003f81 434f44452000 
00003f87 04            10618 	.byte	4
00003f88 01            10619 	.byte	1
00003f89 1d            10620 	.byte	29
00003f8a 44434d5f5354  10621 	.strz	"DCM_STOP_SEC_CODE "
00003f90 4f505f534543 
00003f96 5f434f444520 
00003f9c 00 
00003f9d 03            10622 	.byte	3
00003f9e 1e            10623 	.byte	30
00003f9f 0c            10624 	.byte	12
00003fa0 01            10625 	.byte	1
00003fa1 06            10626 	.byte	6
00003fa2 4d454d4d4150  10627 	.strz	"MEMMAP_ERROR "
00003fa8 5f4552524f52 
00003fae 2000 
00003fb0 01            10628 	.byte	1
00003fb1 18            10629 	.byte	24

                                                                      Page 226
                                                              C:\Users\nhuliyap\AppData\Local\Temp\gh_000075o1.s
00003fb2 4253575f5354  10630 	.strz	"BSW_STOP_SEC_DEFAULT_CODE "
00003fb8 4f505f534543 
00003fbe 5f4445464155 
00003fc4 4c545f434f44 
00003fca 452000 
00003fcd 03            10631 	.byte	3
00003fce 19            10632 	.byte	25
00003fcf 0d            10633 	.byte	13
00003fd0 01            10634 	.byte	1
00003fd1 d608          10635 	.byte	214,8
00003fd3 53544f505f53  10636 	.strz	"STOP_SEC_CODE "
00003fd9 45435f434f44 
00003fdf 452000 
00003fe2 03            10637 	.byte	3
00003fe3 bb09          10638 	.byte	187,9
00003fe5 0e            10639 	.byte	14
00003fe6 04            10640 	.byte	4
00003fe7 04            10641 	.byte	4
00003fe8 04            10642 	.byte	4
00003fe9 04            10643 	.byte	4
00003fea 01            10644 	.byte	1
00003feb 0e            10645 	.byte	14
00003fec 44434d5f4d45  10646 	.strz	"DCM_MEMCOPY(xDest_pv,xSrc_pcv,numBytes_u32) (void)LibAutosar_vptrMemCopy((xDest_pv),(xSrc_pcv),(uint32)(numBytes_u32))"
00003ff2 4d434f505928 
00003ff8 78446573745f 
00003ffe 70762c785372 
00004004 635f7063762c 
0000400a 6e756d427974 
00004010 65735f753332 
00004016 292028766f69 
0000401c 64294c696241 
00004022 75746f736172 
00004028 5f767074724d 
0000402e 656d436f7079 
00004034 282878446573 
0000403a 745f7076292c 
00004040 28785372635f 
00004046 706376292c28 
0000404c 75696e743332 
00004052 29286e756d42 
00004058 797465735f75 
0000405e 3332292900 
00004063 01            10647 	.byte	1
00004064 18            10648 	.byte	24
00004065 44434d5f5354  10649 	.strz	"DCM_START_SEC_VAR_CLEARED_UNSPECIFIED "
0000406b 4152545f5345 
00004071 435f5641525f 
00004077 434c45415245 
0000407d 445f554e5350 
00004083 454349464945 
00004089 442000 
0000408c 03            10650 	.byte	3
0000408d 19            10651 	.byte	25
0000408e 0c            10652 	.byte	12
0000408f 01            10653 	.byte	1
00004090 06            10654 	.byte	6
00004091 4d454d4d4150  10655 	.strz	"MEMMAP_ERROR "
00004097 5f4552524f52 
0000409d 2000 
0000409f 01            10656 	.byte	1
000040a0 c901          10657 	.byte	201,1

                                                                      Page 227
                                                              C:\Users\nhuliyap\AppData\Local\Temp\gh_000075o1.s
000040a2 4253575f5354  10658 	.strz	"BSW_START_SEC_DEFAULT_RAM0_CLEARED_UNSPECIFIED "
000040a8 4152545f5345 
000040ae 435f44454641 
000040b4 554c545f5241 
000040ba 4d305f434c45 
000040c0 415245445f55 
000040c6 4e5350454349 
000040cc 464945442000 
000040d2 03            10659 	.byte	3
000040d3 ca01          10660 	.byte	202,1
000040d5 0d            10661 	.byte	13
000040d6 01            10662 	.byte	1
000040d7 8a05          10663 	.byte	138,5
000040d9 53544152545f  10664 	.strz	"START_SEC_VAR_CLEARED_UNSPECIFIED "
000040df 5345435f5641 
000040e5 525f434c4541 
000040eb 5245445f554e 
000040f1 535045434946 
000040f7 4945442000 
000040fc 03            10665 	.byte	3
000040fd bb09          10666 	.byte	187,9
000040ff 0e            10667 	.byte	14
00004100 01            10668 	.byte	1
00004101 56            10669 	.byte	86
00004102 53544152545f  10670 	.strz	"START_SEC_VAR_ZERO_INIT_UNSPECIFIED "
00004108 5345435f5641 
0000410e 525f5a45524f 
00004114 5f494e49545f 
0000411a 554e53504543 
00004120 494649454420 
00004126 00 
00004127 01            10671 	.byte	1
00004128 840a          10672 	.byte	132,10
0000412a 5641525f5345  10673 	.strz	"VAR_SEC_OPEN "
00004130 435f4f50454e 
00004136 2000 
00004138 04            10674 	.byte	4
00004139 04            10675 	.byte	4
0000413a 01            10676 	.byte	1
0000413b ce01          10677 	.byte	206,1
0000413d 44434d5f5741  10678 	.strz	"DCM_WAS_STARTED_SEC_VAR_CLEARED_UNSPECIFIED "
00004143 535f53544152 
00004149 5445445f5345 
0000414f 435f5641525f 
00004155 434c45415245 
0000415b 445f554e5350 
00004161 454349464945 
00004167 442000 
0000416a 04            10679 	.byte	4
0000416b 01            10680 	.byte	1
0000416c 1b            10681 	.byte	27
0000416d 44434d5f5354  10682 	.strz	"DCM_STOP_SEC_VAR_CLEARED_UNSPECIFIED "
00004173 4f505f534543 
00004179 5f5641525f43 
0000417f 4c4541524544 
00004185 5f554e535045 
0000418b 434946494544 
00004191 2000 
00004193 03            10683 	.byte	3
00004194 1c            10684 	.byte	28
00004195 0c            10685 	.byte	12

                                                                      Page 228
                                                              C:\Users\nhuliyap\AppData\Local\Temp\gh_000075o1.s
00004196 01            10686 	.byte	1
00004197 06            10687 	.byte	6
00004198 4d454d4d4150  10688 	.strz	"MEMMAP_ERROR "
0000419e 5f4552524f52 
000041a4 2000 
000041a6 01            10689 	.byte	1
000041a7 d501          10690 	.byte	213,1
000041a9 4253575f5354  10691 	.strz	"BSW_STOP_SEC_DEFAULT_RAM0_CLEARED_UNSPECIFIED "
000041af 4f505f534543 
000041b5 5f4445464155 
000041bb 4c545f52414d 
000041c1 305f434c4541 
000041c7 5245445f554e 
000041cd 535045434946 
000041d3 4945442000 
000041d8 03            10692 	.byte	3
000041d9 d601          10693 	.byte	214,1
000041db 0d            10694 	.byte	13
000041dc 01            10695 	.byte	1
000041dd 8d05          10696 	.byte	141,5
000041df 53544f505f53  10697 	.strz	"STOP_SEC_VAR "
000041e5 45435f564152 
000041eb 2000 
000041ed 03            10698 	.byte	3
000041ee bb09          10699 	.byte	187,9
000041f0 0e            10700 	.byte	14
000041f1 04            10701 	.byte	4
000041f2 04            10702 	.byte	4
000041f3 04            10703 	.byte	4
000041f4 01            10704 	.byte	1
000041f5 31            10705 	.byte	49
000041f6 44434d5f5354  10706 	.strz	"DCM_START_SEC_VAR_CLEARED_UNSPECIFIED "
000041fc 4152545f5345 
00004202 435f5641525f 
00004208 434c45415245 
0000420e 445f554e5350 
00004214 454349464945 
0000421a 442000 
0000421d 03            10707 	.byte	3
0000421e 32            10708 	.byte	50
0000421f 0c            10709 	.byte	12
00004220 01            10710 	.byte	1
00004221 06            10711 	.byte	6
00004222 4d454d4d4150  10712 	.strz	"MEMMAP_ERROR "
00004228 5f4552524f52 
0000422e 2000 
00004230 01            10713 	.byte	1
00004231 c901          10714 	.byte	201,1
00004233 4253575f5354  10715 	.strz	"BSW_START_SEC_DEFAULT_RAM0_CLEARED_UNSPECIFIED "
00004239 4152545f5345 
0000423f 435f44454641 
00004245 554c545f5241 
0000424b 4d305f434c45 
00004251 415245445f55 
00004257 4e5350454349 
0000425d 464945442000 
00004263 03            10716 	.byte	3
00004264 ca01          10717 	.byte	202,1
00004266 0d            10718 	.byte	13
00004267 01            10719 	.byte	1
00004268 8a05          10720 	.byte	138,5

                                                                      Page 229
                                                              C:\Users\nhuliyap\AppData\Local\Temp\gh_000075o1.s
0000426a 53544152545f  10721 	.strz	"START_SEC_VAR_CLEARED_UNSPECIFIED "
00004270 5345435f5641 
00004276 525f434c4541 
0000427c 5245445f554e 
00004282 535045434946 
00004288 4945442000 
0000428d 03            10722 	.byte	3
0000428e bb09          10723 	.byte	187,9
00004290 0e            10724 	.byte	14
00004291 01            10725 	.byte	1
00004292 56            10726 	.byte	86
00004293 53544152545f  10727 	.strz	"START_SEC_VAR_ZERO_INIT_UNSPECIFIED "
00004299 5345435f5641 
0000429f 525f5a45524f 
000042a5 5f494e49545f 
000042ab 554e53504543 
000042b1 494649454420 
000042b7 00 
000042b8 01            10728 	.byte	1
000042b9 840a          10729 	.byte	132,10
000042bb 5641525f5345  10730 	.strz	"VAR_SEC_OPEN "
000042c1 435f4f50454e 
000042c7 2000 
000042c9 04            10731 	.byte	4
000042ca 04            10732 	.byte	4
000042cb 01            10733 	.byte	1
000042cc ce01          10734 	.byte	206,1
000042ce 44434d5f5741  10735 	.strz	"DCM_WAS_STARTED_SEC_VAR_CLEARED_UNSPECIFIED "
000042d4 535f53544152 
000042da 5445445f5345 
000042e0 435f5641525f 
000042e6 434c45415245 
000042ec 445f554e5350 
000042f2 454349464945 
000042f8 442000 
000042fb 04            10736 	.byte	4
000042fc 01            10737 	.byte	1
000042fd 34            10738 	.byte	52
000042fe 44434d5f5354  10739 	.strz	"DCM_STOP_SEC_VAR_CLEARED_UNSPECIFIED "
00004304 4f505f534543 
0000430a 5f5641525f43 
00004310 4c4541524544 
00004316 5f554e535045 
0000431c 434946494544 
00004322 2000 
00004324 03            10740 	.byte	3
00004325 35            10741 	.byte	53
00004326 0c            10742 	.byte	12
00004327 01            10743 	.byte	1
00004328 06            10744 	.byte	6
00004329 4d454d4d4150  10745 	.strz	"MEMMAP_ERROR "
0000432f 5f4552524f52 
00004335 2000 
00004337 01            10746 	.byte	1
00004338 d501          10747 	.byte	213,1
0000433a 4253575f5354  10748 	.strz	"BSW_STOP_SEC_DEFAULT_RAM0_CLEARED_UNSPECIFIED "
00004340 4f505f534543 
00004346 5f4445464155 
0000434c 4c545f52414d 
00004352 305f434c4541 
00004358 5245445f554e 

                                                                      Page 230
                                                              C:\Users\nhuliyap\AppData\Local\Temp\gh_000075o1.s
0000435e 535045434946 
00004364 4945442000 
00004369 03            10749 	.byte	3
0000436a d601          10750 	.byte	214,1
0000436c 0d            10751 	.byte	13
0000436d 01            10752 	.byte	1
0000436e 8d05          10753 	.byte	141,5
00004370 53544f505f53  10754 	.strz	"STOP_SEC_VAR "
00004376 45435f564152 
0000437c 2000 
0000437e 03            10755 	.byte	3
0000437f bb09          10756 	.byte	187,9
00004381 0e            10757 	.byte	14
00004382 04            10758 	.byte	4
00004383 04            10759 	.byte	4
00004384 04            10760 	.byte	4
00004385 01            10761 	.byte	1
00004386 36            10762 	.byte	54
00004387 44434d5f5354  10763 	.strz	"DCM_START_SEC_CODE "
0000438d 4152545f5345 
00004393 435f434f4445 
00004399 2000 
0000439b 03            10764 	.byte	3
0000439c 37            10765 	.byte	55
0000439d 0c            10766 	.byte	12
0000439e 01            10767 	.byte	1
0000439f 06            10768 	.byte	6
000043a0 4d454d4d4150  10769 	.strz	"MEMMAP_ERROR "
000043a6 5f4552524f52 
000043ac 2000 
000043ae 01            10770 	.byte	1
000043af 0c            10771 	.byte	12
000043b0 4253575f5354  10772 	.strz	"BSW_START_SEC_DEFAULT_CODE "
000043b6 4152545f5345 
000043bc 435f44454641 
000043c2 554c545f434f 
000043c8 44452000 
000043cc 03            10773 	.byte	3
000043cd 0d            10774 	.byte	13
000043ce 0d            10775 	.byte	13
000043cf 01            10776 	.byte	1
000043d0 d308          10777 	.byte	211,8
000043d2 53544152545f  10778 	.strz	"START_SEC_CODE "
000043d8 5345435f434f 
000043de 44452000 
000043e2 03            10779 	.byte	3
000043e3 bb09          10780 	.byte	187,9
000043e5 0e            10781 	.byte	14
000043e6 01            10782 	.byte	1
000043e7 f307          10783 	.byte	243,7
000043e9 434f44455f53  10784 	.strz	"CODE_SEC_OPEN "
000043ef 45435f4f5045 
000043f5 4e2000 
000043f8 04            10785 	.byte	4
000043f9 04            10786 	.byte	4
000043fa 01            10787 	.byte	1
000043fb 11            10788 	.byte	17
000043fc 44434d5f5741  10789 	.strz	"DCM_WAS_STARTED_SEC_ROM_CODE "
00004402 535f53544152 
00004408 5445445f5345 
0000440e 435f524f4d5f 

                                                                      Page 231
                                                              C:\Users\nhuliyap\AppData\Local\Temp\gh_000075o1.s
00004414 434f44452000 
0000441a 04            10790 	.byte	4
0000441b 01            10791 	.byte	1
0000441c 3d            10792 	.byte	61
0000441d 44434d5f5354  10793 	.strz	"DCM_STOP_SEC_CODE "
00004423 4f505f534543 
00004429 5f434f444520 
0000442f 00 
00004430 03            10794 	.byte	3
00004431 3e            10795 	.byte	62
00004432 0c            10796 	.byte	12
00004433 01            10797 	.byte	1
00004434 06            10798 	.byte	6
00004435 4d454d4d4150  10799 	.strz	"MEMMAP_ERROR "
0000443b 5f4552524f52 
00004441 2000 
00004443 01            10800 	.byte	1
00004444 18            10801 	.byte	24
00004445 4253575f5354  10802 	.strz	"BSW_STOP_SEC_DEFAULT_CODE "
0000444b 4f505f534543 
00004451 5f4445464155 
00004457 4c545f434f44 
0000445d 452000 
00004460 03            10803 	.byte	3
00004461 19            10804 	.byte	25
00004462 0d            10805 	.byte	13
00004463 01            10806 	.byte	1
00004464 d608          10807 	.byte	214,8
00004466 53544f505f53  10808 	.strz	"STOP_SEC_CODE "
0000446c 45435f434f44 
00004472 452000 
00004475 03            10809 	.byte	3
00004476 bb09          10810 	.byte	187,9
00004478 0e            10811 	.byte	14
00004479 04            10812 	.byte	4
0000447a 04            10813 	.byte	4
0000447b 04            10814 	.byte	4
0000447c 01            10815 	.byte	1
0000447d 9301          10816 	.byte	147,1
0000447f 44434d5f5354  10817 	.strz	"DCM_START_SEC_VAR_CLEARED_8 "
00004485 4152545f5345 
0000448b 435f5641525f 
00004491 434c45415245 
00004497 445f382000 
0000449c 03            10818 	.byte	3
0000449d 9401          10819 	.byte	148,1
0000449f 0c            10820 	.byte	12
000044a0 01            10821 	.byte	1
000044a1 06            10822 	.byte	6
000044a2 4d454d4d4150  10823 	.strz	"MEMMAP_ERROR "
000044a8 5f4552524f52 
000044ae 2000 
000044b0 01            10824 	.byte	1
000044b1 f301          10825 	.byte	243,1
000044b3 4253575f5354  10826 	.strz	"BSW_START_SEC_DEFAULT_RAM0_CLEARED_8 "
000044b9 4152545f5345 
000044bf 435f44454641 
000044c5 554c545f5241 
000044cb 4d305f434c45 
000044d1 415245445f38 
000044d7 2000 

                                                                      Page 232
                                                              C:\Users\nhuliyap\AppData\Local\Temp\gh_000075o1.s
000044d9 03            10827 	.byte	3
000044da f401          10828 	.byte	244,1
000044dc 0d            10829 	.byte	13
000044dd 01            10830 	.byte	1
000044de 9805          10831 	.byte	152,5
000044e0 53544152545f  10832 	.strz	"START_SEC_VAR_CLEARED_8 "
000044e6 5345435f5641 
000044ec 525f434c4541 
000044f2 5245445f3820 
000044f8 00 
000044f9 03            10833 	.byte	3
000044fa bb09          10834 	.byte	187,9
000044fc 0e            10835 	.byte	14
000044fd 01            10836 	.byte	1
000044fe 46            10837 	.byte	70
000044ff 53544152545f  10838 	.strz	"START_SEC_VAR_ZERO_INIT_8BIT "
00004505 5345435f5641 
0000450b 525f5a45524f 
00004511 5f494e49545f 
00004517 384249542000 
0000451d 01            10839 	.byte	1
0000451e e009          10840 	.byte	224,9
00004520 5641525f5345  10841 	.strz	"VAR_SEC_OPEN "
00004526 435f4f50454e 
0000452c 2000 
0000452e 04            10842 	.byte	4
0000452f 04            10843 	.byte	4
00004530 01            10844 	.byte	1
00004531 f801          10845 	.byte	248,1
00004533 44434d5f5741  10846 	.strz	"DCM_WAS_STARTED_SEC_VAR_CLEARED_8 "
00004539 535f53544152 
0000453f 5445445f5345 
00004545 435f5641525f 
0000454b 434c45415245 
00004551 445f382000 
00004556 04            10847 	.byte	4
00004557 01            10848 	.byte	1
00004558 9701          10849 	.byte	151,1
0000455a 44434d5f5354  10850 	.strz	"DCM_STOP_SEC_VAR_CLEARED_8 "
00004560 4f505f534543 
00004566 5f5641525f43 
0000456c 4c4541524544 
00004572 5f382000 
00004576 03            10851 	.byte	3
00004577 9801          10852 	.byte	152,1
00004579 0c            10853 	.byte	12
0000457a 01            10854 	.byte	1
0000457b 06            10855 	.byte	6
0000457c 4d454d4d4150  10856 	.strz	"MEMMAP_ERROR "
00004582 5f4552524f52 
00004588 2000 
0000458a 01            10857 	.byte	1
0000458b ff01          10858 	.byte	255,1
0000458d 4253575f5354  10859 	.strz	"BSW_STOP_SEC_DEFAULT_RAM0_CLEARED_8 "
00004593 4f505f534543 
00004599 5f4445464155 
0000459f 4c545f52414d 
000045a5 305f434c4541 
000045ab 5245445f3820 
000045b1 00 
000045b2 03            10860 	.byte	3

                                                                      Page 233
                                                              C:\Users\nhuliyap\AppData\Local\Temp\gh_000075o1.s
000045b3 8002          10861 	.byte	128,2
000045b5 0d            10862 	.byte	13
000045b6 01            10863 	.byte	1
000045b7 9b05          10864 	.byte	155,5
000045b9 53544f505f53  10865 	.strz	"STOP_SEC_VAR "
000045bf 45435f564152 
000045c5 2000 
000045c7 03            10866 	.byte	3
000045c8 bb09          10867 	.byte	187,9
000045ca 0e            10868 	.byte	14
000045cb 04            10869 	.byte	4
000045cc 04            10870 	.byte	4
000045cd 04            10871 	.byte	4
000045ce 01            10872 	.byte	1
000045cf 9c01          10873 	.byte	156,1
000045d1 44434d5f5354  10874 	.strz	"DCM_START_SEC_CODE "
000045d7 4152545f5345 
000045dd 435f434f4445 
000045e3 2000 
000045e5 03            10875 	.byte	3
000045e6 9d01          10876 	.byte	157,1
000045e8 0c            10877 	.byte	12
000045e9 01            10878 	.byte	1
000045ea 06            10879 	.byte	6
000045eb 4d454d4d4150  10880 	.strz	"MEMMAP_ERROR "
000045f1 5f4552524f52 
000045f7 2000 
000045f9 01            10881 	.byte	1
000045fa 0c            10882 	.byte	12
000045fb 4253575f5354  10883 	.strz	"BSW_START_SEC_DEFAULT_CODE "
00004601 4152545f5345 
00004607 435f44454641 
0000460d 554c545f434f 
00004613 44452000 
00004617 03            10884 	.byte	3
00004618 0d            10885 	.byte	13
00004619 0d            10886 	.byte	13
0000461a 01            10887 	.byte	1
0000461b d308          10888 	.byte	211,8
0000461d 53544152545f  10889 	.strz	"START_SEC_CODE "
00004623 5345435f434f 
00004629 44452000 
0000462d 03            10890 	.byte	3
0000462e bb09          10891 	.byte	187,9
00004630 0e            10892 	.byte	14
00004631 01            10893 	.byte	1
00004632 f307          10894 	.byte	243,7
00004634 434f44455f53  10895 	.strz	"CODE_SEC_OPEN "
0000463a 45435f4f5045 
00004640 4e2000 
00004643 04            10896 	.byte	4
00004644 04            10897 	.byte	4
00004645 01            10898 	.byte	1
00004646 11            10899 	.byte	17
00004647 44434d5f5741  10900 	.strz	"DCM_WAS_STARTED_SEC_ROM_CODE "
0000464d 535f53544152 
00004653 5445445f5345 
00004659 435f524f4d5f 
0000465f 434f44452000 
00004665 04            10901 	.byte	4
00004666 01            10902 	.byte	1

                                                                      Page 234
                                                              C:\Users\nhuliyap\AppData\Local\Temp\gh_000075o1.s
00004667 b601          10903 	.byte	182,1
00004669 44434d5f5354  10904 	.strz	"DCM_STOP_SEC_CODE "
0000466f 4f505f534543 
00004675 5f434f444520 
0000467b 00 
0000467c 03            10905 	.byte	3
0000467d b701          10906 	.byte	183,1
0000467f 0c            10907 	.byte	12
00004680 01            10908 	.byte	1
00004681 06            10909 	.byte	6
00004682 4d454d4d4150  10910 	.strz	"MEMMAP_ERROR "
00004688 5f4552524f52 
0000468e 2000 
00004690 01            10911 	.byte	1
00004691 18            10912 	.byte	24
00004692 4253575f5354  10913 	.strz	"BSW_STOP_SEC_DEFAULT_CODE "
00004698 4f505f534543 
0000469e 5f4445464155 
000046a4 4c545f434f44 
000046aa 452000 
000046ad 03            10914 	.byte	3
000046ae 19            10915 	.byte	25
000046af 0d            10916 	.byte	13
000046b0 01            10917 	.byte	1
000046b1 d608          10918 	.byte	214,8
000046b3 53544f505f53  10919 	.strz	"STOP_SEC_CODE "
000046b9 45435f434f44 
000046bf 452000 
000046c2 03            10920 	.byte	3
000046c3 bb09          10921 	.byte	187,9
000046c5 0e            10922 	.byte	14
000046c6 04            10923 	.byte	4
000046c7 04            10924 	.byte	4
000046c8 04            10925 	.byte	4
000046c9 01            10926 	.byte	1
000046ca 8c02          10927 	.byte	140,2
000046cc 44434d5f5354  10928 	.strz	"DCM_START_SEC_CODE "
000046d2 4152545f5345 
000046d8 435f434f4445 
000046de 2000 
000046e0 03            10929 	.byte	3
000046e1 8d02          10930 	.byte	141,2
000046e3 0c            10931 	.byte	12
000046e4 01            10932 	.byte	1
000046e5 06            10933 	.byte	6
000046e6 4d454d4d4150  10934 	.strz	"MEMMAP_ERROR "
000046ec 5f4552524f52 
000046f2 2000 
000046f4 01            10935 	.byte	1
000046f5 0c            10936 	.byte	12
000046f6 4253575f5354  10937 	.strz	"BSW_START_SEC_DEFAULT_CODE "
000046fc 4152545f5345 
00004702 435f44454641 
00004708 554c545f434f 
0000470e 44452000 
00004712 03            10938 	.byte	3
00004713 0d            10939 	.byte	13
00004714 0d            10940 	.byte	13
00004715 01            10941 	.byte	1
00004716 d308          10942 	.byte	211,8
00004718 53544152545f  10943 	.strz	"START_SEC_CODE "

                                                                      Page 235
                                                              C:\Users\nhuliyap\AppData\Local\Temp\gh_000075o1.s
0000471e 5345435f434f 
00004724 44452000 
00004728 03            10944 	.byte	3
00004729 bb09          10945 	.byte	187,9
0000472b 0e            10946 	.byte	14
0000472c 01            10947 	.byte	1
0000472d f307          10948 	.byte	243,7
0000472f 434f44455f53  10949 	.strz	"CODE_SEC_OPEN "
00004735 45435f4f5045 
0000473b 4e2000 
0000473e 04            10950 	.byte	4
0000473f 04            10951 	.byte	4
00004740 01            10952 	.byte	1
00004741 11            10953 	.byte	17
00004742 44434d5f5741  10954 	.strz	"DCM_WAS_STARTED_SEC_ROM_CODE "
00004748 535f53544152 
0000474e 5445445f5345 
00004754 435f524f4d5f 
0000475a 434f44452000 
00004760 04            10955 	.byte	4
00004761 01            10956 	.byte	1
00004762 8f02          10957 	.byte	143,2
00004764 44434d5f5354  10958 	.strz	"DCM_STOP_SEC_CODE "
0000476a 4f505f534543 
00004770 5f434f444520 
00004776 00 
00004777 03            10959 	.byte	3
00004778 9002          10960 	.byte	144,2
0000477a 0c            10961 	.byte	12
0000477b 01            10962 	.byte	1
0000477c 06            10963 	.byte	6
0000477d 4d454d4d4150  10964 	.strz	"MEMMAP_ERROR "
00004783 5f4552524f52 
00004789 2000 
0000478b 01            10965 	.byte	1
0000478c 18            10966 	.byte	24
0000478d 4253575f5354  10967 	.strz	"BSW_STOP_SEC_DEFAULT_CODE "
00004793 4f505f534543 
00004799 5f4445464155 
0000479f 4c545f434f44 
000047a5 452000 
000047a8 03            10968 	.byte	3
000047a9 19            10969 	.byte	25
000047aa 0d            10970 	.byte	13
000047ab 01            10971 	.byte	1
000047ac d608          10972 	.byte	214,8
000047ae 53544f505f53  10973 	.strz	"STOP_SEC_CODE "
000047b4 45435f434f44 
000047ba 452000 
000047bd 03            10974 	.byte	3
000047be bb09          10975 	.byte	187,9
000047c0 0e            10976 	.byte	14
000047c1 04            10977 	.byte	4
000047c2 04            10978 	.byte	4
000047c3 04            10979 	.byte	4
000047c4 01            10980 	.byte	1
000047c5 9202          10981 	.byte	146,2
000047c7 44434d5f5354  10982 	.strz	"DCM_START_SEC_VAR_CLEARED_8 "
000047cd 4152545f5345 
000047d3 435f5641525f 
000047d9 434c45415245 

                                                                      Page 236
                                                              C:\Users\nhuliyap\AppData\Local\Temp\gh_000075o1.s
000047df 445f382000 
000047e4 03            10983 	.byte	3
000047e5 9302          10984 	.byte	147,2
000047e7 0c            10985 	.byte	12
000047e8 01            10986 	.byte	1
000047e9 06            10987 	.byte	6
000047ea 4d454d4d4150  10988 	.strz	"MEMMAP_ERROR "
000047f0 5f4552524f52 
000047f6 2000 
000047f8 01            10989 	.byte	1
000047f9 f301          10990 	.byte	243,1
000047fb 4253575f5354  10991 	.strz	"BSW_START_SEC_DEFAULT_RAM0_CLEARED_8 "
00004801 4152545f5345 
00004807 435f44454641 
0000480d 554c545f5241 
00004813 4d305f434c45 
00004819 415245445f38 
0000481f 2000 
00004821 03            10992 	.byte	3
00004822 f401          10993 	.byte	244,1
00004824 0d            10994 	.byte	13
00004825 01            10995 	.byte	1
00004826 9805          10996 	.byte	152,5
00004828 53544152545f  10997 	.strz	"START_SEC_VAR_CLEARED_8 "
0000482e 5345435f5641 
00004834 525f434c4541 
0000483a 5245445f3820 
00004840 00 
00004841 03            10998 	.byte	3
00004842 bb09          10999 	.byte	187,9
00004844 0e            11000 	.byte	14
00004845 01            11001 	.byte	1
00004846 46            11002 	.byte	70
00004847 53544152545f  11003 	.strz	"START_SEC_VAR_ZERO_INIT_8BIT "
0000484d 5345435f5641 
00004853 525f5a45524f 
00004859 5f494e49545f 
0000485f 384249542000 
00004865 01            11004 	.byte	1
00004866 e009          11005 	.byte	224,9
00004868 5641525f5345  11006 	.strz	"VAR_SEC_OPEN "
0000486e 435f4f50454e 
00004874 2000 
00004876 04            11007 	.byte	4
00004877 04            11008 	.byte	4
00004878 01            11009 	.byte	1
00004879 f801          11010 	.byte	248,1
0000487b 44434d5f5741  11011 	.strz	"DCM_WAS_STARTED_SEC_VAR_CLEARED_8 "
00004881 535f53544152 
00004887 5445445f5345 
0000488d 435f5641525f 
00004893 434c45415245 
00004899 445f382000 
0000489e 04            11012 	.byte	4
0000489f 01            11013 	.byte	1
000048a0 9702          11014 	.byte	151,2
000048a2 44434d5f5354  11015 	.strz	"DCM_STOP_SEC_VAR_CLEARED_8 "
000048a8 4f505f534543 
000048ae 5f5641525f43 
000048b4 4c4541524544 
000048ba 5f382000 

                                                                      Page 237
                                                              C:\Users\nhuliyap\AppData\Local\Temp\gh_000075o1.s
000048be 03            11016 	.byte	3
000048bf 9802          11017 	.byte	152,2
000048c1 0c            11018 	.byte	12
000048c2 01            11019 	.byte	1
000048c3 06            11020 	.byte	6
000048c4 4d454d4d4150  11021 	.strz	"MEMMAP_ERROR "
000048ca 5f4552524f52 
000048d0 2000 
000048d2 01            11022 	.byte	1
000048d3 ff01          11023 	.byte	255,1
000048d5 4253575f5354  11024 	.strz	"BSW_STOP_SEC_DEFAULT_RAM0_CLEARED_8 "
000048db 4f505f534543 
000048e1 5f4445464155 
000048e7 4c545f52414d 
000048ed 305f434c4541 
000048f3 5245445f3820 
000048f9 00 
000048fa 03            11025 	.byte	3
000048fb 8002          11026 	.byte	128,2
000048fd 0d            11027 	.byte	13
000048fe 01            11028 	.byte	1
000048ff 9b05          11029 	.byte	155,5
00004901 53544f505f53  11030 	.strz	"STOP_SEC_VAR "
00004907 45435f564152 
0000490d 2000 
0000490f 03            11031 	.byte	3
00004910 bb09          11032 	.byte	187,9
00004912 0e            11033 	.byte	14
00004913 04            11034 	.byte	4
00004914 04            11035 	.byte	4
00004915 04            11036 	.byte	4
00004916 01            11037 	.byte	1
00004917 9902          11038 	.byte	153,2
00004919 44434d5f5354  11039 	.strz	"DCM_START_SEC_VAR_CLEARED_UNSPECIFIED "
0000491f 4152545f5345 
00004925 435f5641525f 
0000492b 434c45415245 
00004931 445f554e5350 
00004937 454349464945 
0000493d 442000 
00004940 03            11040 	.byte	3
00004941 9a02          11041 	.byte	154,2
00004943 0c            11042 	.byte	12
00004944 01            11043 	.byte	1
00004945 06            11044 	.byte	6
00004946 4d454d4d4150  11045 	.strz	"MEMMAP_ERROR "
0000494c 5f4552524f52 
00004952 2000 
00004954 01            11046 	.byte	1
00004955 c901          11047 	.byte	201,1
00004957 4253575f5354  11048 	.strz	"BSW_START_SEC_DEFAULT_RAM0_CLEARED_UNSPECIFIED "
0000495d 4152545f5345 
00004963 435f44454641 
00004969 554c545f5241 
0000496f 4d305f434c45 
00004975 415245445f55 
0000497b 4e5350454349 
00004981 464945442000 
00004987 03            11049 	.byte	3
00004988 ca01          11050 	.byte	202,1
0000498a 0d            11051 	.byte	13

                                                                      Page 238
                                                              C:\Users\nhuliyap\AppData\Local\Temp\gh_000075o1.s
0000498b 01            11052 	.byte	1
0000498c 8a05          11053 	.byte	138,5
0000498e 53544152545f  11054 	.strz	"START_SEC_VAR_CLEARED_UNSPECIFIED "
00004994 5345435f5641 
0000499a 525f434c4541 
000049a0 5245445f554e 
000049a6 535045434946 
000049ac 4945442000 
000049b1 03            11055 	.byte	3
000049b2 bb09          11056 	.byte	187,9
000049b4 0e            11057 	.byte	14
000049b5 01            11058 	.byte	1
000049b6 56            11059 	.byte	86
000049b7 53544152545f  11060 	.strz	"START_SEC_VAR_ZERO_INIT_UNSPECIFIED "
000049bd 5345435f5641 
000049c3 525f5a45524f 
000049c9 5f494e49545f 
000049cf 554e53504543 
000049d5 494649454420 
000049db 00 
000049dc 01            11061 	.byte	1
000049dd 840a          11062 	.byte	132,10
000049df 5641525f5345  11063 	.strz	"VAR_SEC_OPEN "
000049e5 435f4f50454e 
000049eb 2000 
000049ed 04            11064 	.byte	4
000049ee 04            11065 	.byte	4
000049ef 01            11066 	.byte	1
000049f0 ce01          11067 	.byte	206,1
000049f2 44434d5f5741  11068 	.strz	"DCM_WAS_STARTED_SEC_VAR_CLEARED_UNSPECIFIED "
000049f8 535f53544152 
000049fe 5445445f5345 
00004a04 435f5641525f 
00004a0a 434c45415245 
00004a10 445f554e5350 
00004a16 454349464945 
00004a1c 442000 
00004a1f 04            11069 	.byte	4
00004a20 01            11070 	.byte	1
00004a21 9d02          11071 	.byte	157,2
00004a23 44434d5f5354  11072 	.strz	"DCM_STOP_SEC_VAR_CLEARED_UNSPECIFIED "
00004a29 4f505f534543 
00004a2f 5f5641525f43 
00004a35 4c4541524544 
00004a3b 5f554e535045 
00004a41 434946494544 
00004a47 2000 
00004a49 03            11073 	.byte	3
00004a4a 9e02          11074 	.byte	158,2
00004a4c 0c            11075 	.byte	12
00004a4d 01            11076 	.byte	1
00004a4e 06            11077 	.byte	6
00004a4f 4d454d4d4150  11078 	.strz	"MEMMAP_ERROR "
00004a55 5f4552524f52 
00004a5b 2000 
00004a5d 01            11079 	.byte	1
00004a5e d501          11080 	.byte	213,1
00004a60 4253575f5354  11081 	.strz	"BSW_STOP_SEC_DEFAULT_RAM0_CLEARED_UNSPECIFIED "
00004a66 4f505f534543 
00004a6c 5f4445464155 
00004a72 4c545f52414d 

                                                                      Page 239
                                                              C:\Users\nhuliyap\AppData\Local\Temp\gh_000075o1.s
00004a78 305f434c4541 
00004a7e 5245445f554e 
00004a84 535045434946 
00004a8a 4945442000 
00004a8f 03            11082 	.byte	3
00004a90 d601          11083 	.byte	214,1
00004a92 0d            11084 	.byte	13
00004a93 01            11085 	.byte	1
00004a94 8d05          11086 	.byte	141,5
00004a96 53544f505f53  11087 	.strz	"STOP_SEC_VAR "
00004a9c 45435f564152 
00004aa2 2000 
00004aa4 03            11088 	.byte	3
00004aa5 bb09          11089 	.byte	187,9
00004aa7 0e            11090 	.byte	14
00004aa8 04            11091 	.byte	4
00004aa9 04            11092 	.byte	4
00004aaa 04            11093 	.byte	4
00004aab 01            11094 	.byte	1
00004aac 9f02          11095 	.byte	159,2
00004aae 44434d5f5354  11096 	.strz	"DCM_START_SEC_VAR_CLEARED_UNSPECIFIED "
00004ab4 4152545f5345 
00004aba 435f5641525f 
00004ac0 434c45415245 
00004ac6 445f554e5350 
00004acc 454349464945 
00004ad2 442000 
00004ad5 03            11097 	.byte	3
00004ad6 a002          11098 	.byte	160,2
00004ad8 0c            11099 	.byte	12
00004ad9 01            11100 	.byte	1
00004ada 06            11101 	.byte	6
00004adb 4d454d4d4150  11102 	.strz	"MEMMAP_ERROR "
00004ae1 5f4552524f52 
00004ae7 2000 
00004ae9 01            11103 	.byte	1
00004aea c901          11104 	.byte	201,1
00004aec 4253575f5354  11105 	.strz	"BSW_START_SEC_DEFAULT_RAM0_CLEARED_UNSPECIFIED "
00004af2 4152545f5345 
00004af8 435f44454641 
00004afe 554c545f5241 
00004b04 4d305f434c45 
00004b0a 415245445f55 
00004b10 4e5350454349 
00004b16 464945442000 
00004b1c 03            11106 	.byte	3
00004b1d ca01          11107 	.byte	202,1
00004b1f 0d            11108 	.byte	13
00004b20 01            11109 	.byte	1
00004b21 8a05          11110 	.byte	138,5
00004b23 53544152545f  11111 	.strz	"START_SEC_VAR_CLEARED_UNSPECIFIED "
00004b29 5345435f5641 
00004b2f 525f434c4541 
00004b35 5245445f554e 
00004b3b 535045434946 
00004b41 4945442000 
00004b46 03            11112 	.byte	3
00004b47 bb09          11113 	.byte	187,9
00004b49 0e            11114 	.byte	14
00004b4a 01            11115 	.byte	1
00004b4b 56            11116 	.byte	86

                                                                      Page 240
                                                              C:\Users\nhuliyap\AppData\Local\Temp\gh_000075o1.s
00004b4c 53544152545f  11117 	.strz	"START_SEC_VAR_ZERO_INIT_UNSPECIFIED "
00004b52 5345435f5641 
00004b58 525f5a45524f 
00004b5e 5f494e49545f 
00004b64 554e53504543 
00004b6a 494649454420 
00004b70 00 
00004b71 01            11118 	.byte	1
00004b72 840a          11119 	.byte	132,10
00004b74 5641525f5345  11120 	.strz	"VAR_SEC_OPEN "
00004b7a 435f4f50454e 
00004b80 2000 
00004b82 04            11121 	.byte	4
00004b83 04            11122 	.byte	4
00004b84 01            11123 	.byte	1
00004b85 ce01          11124 	.byte	206,1
00004b87 44434d5f5741  11125 	.strz	"DCM_WAS_STARTED_SEC_VAR_CLEARED_UNSPECIFIED "
00004b8d 535f53544152 
00004b93 5445445f5345 
00004b99 435f5641525f 
00004b9f 434c45415245 
00004ba5 445f554e5350 
00004bab 454349464945 
00004bb1 442000 
00004bb4 04            11126 	.byte	4
00004bb5 01            11127 	.byte	1
00004bb6 a202          11128 	.byte	162,2
00004bb8 44434d5f5354  11129 	.strz	"DCM_STOP_SEC_VAR_CLEARED_UNSPECIFIED "
00004bbe 4f505f534543 
00004bc4 5f5641525f43 
00004bca 4c4541524544 
00004bd0 5f554e535045 
00004bd6 434946494544 
00004bdc 2000 
00004bde 03            11130 	.byte	3
00004bdf a302          11131 	.byte	163,2
00004be1 0c            11132 	.byte	12
00004be2 01            11133 	.byte	1
00004be3 06            11134 	.byte	6
00004be4 4d454d4d4150  11135 	.strz	"MEMMAP_ERROR "
00004bea 5f4552524f52 
00004bf0 2000 
00004bf2 01            11136 	.byte	1
00004bf3 d501          11137 	.byte	213,1
00004bf5 4253575f5354  11138 	.strz	"BSW_STOP_SEC_DEFAULT_RAM0_CLEARED_UNSPECIFIED "
00004bfb 4f505f534543 
00004c01 5f4445464155 
00004c07 4c545f52414d 
00004c0d 305f434c4541 
00004c13 5245445f554e 
00004c19 535045434946 
00004c1f 4945442000 
00004c24 03            11139 	.byte	3
00004c25 d601          11140 	.byte	214,1
00004c27 0d            11141 	.byte	13
00004c28 01            11142 	.byte	1
00004c29 8d05          11143 	.byte	141,5
00004c2b 53544f505f53  11144 	.strz	"STOP_SEC_VAR "
00004c31 45435f564152 
00004c37 2000 
00004c39 03            11145 	.byte	3

                                                                      Page 241
                                                              C:\Users\nhuliyap\AppData\Local\Temp\gh_000075o1.s
00004c3a bb09          11146 	.byte	187,9
00004c3c 0e            11147 	.byte	14
00004c3d 04            11148 	.byte	4
00004c3e 04            11149 	.byte	4
00004c3f 04            11150 	.byte	4
00004c40 01            11151 	.byte	1
00004c41 a402          11152 	.byte	164,2
00004c43 44434d5f5354  11153 	.strz	"DCM_START_SEC_VAR_CLEARED_BOOLEAN "
00004c49 4152545f5345 
00004c4f 435f5641525f 
00004c55 434c45415245 
00004c5b 445f424f4f4c 
00004c61 45414e2000 
00004c66 03            11154 	.byte	3
00004c67 a502          11155 	.byte	165,2
00004c69 0c            11156 	.byte	12
00004c6a 01            11157 	.byte	1
00004c6b 06            11158 	.byte	6
00004c6c 4d454d4d4150  11159 	.strz	"MEMMAP_ERROR "
00004c72 5f4552524f52 
00004c78 2000 
00004c7a 01            11160 	.byte	1
00004c7b de01          11161 	.byte	222,1
00004c7d 4253575f5354  11162 	.strz	"BSW_START_SEC_DEFAULT_RAM0_CLEARED_UNSPECIFIED "
00004c83 4152545f5345 
00004c89 435f44454641 
00004c8f 554c545f5241 
00004c95 4d305f434c45 
00004c9b 415245445f55 
00004ca1 4e5350454349 
00004ca7 464945442000 
00004cad 03            11163 	.byte	3
00004cae df01          11164 	.byte	223,1
00004cb0 0d            11165 	.byte	13
00004cb1 01            11166 	.byte	1
00004cb2 8a05          11167 	.byte	138,5
00004cb4 53544152545f  11168 	.strz	"START_SEC_VAR_CLEARED_UNSPECIFIED "
00004cba 5345435f5641 
00004cc0 525f434c4541 
00004cc6 5245445f554e 
00004ccc 535045434946 
00004cd2 4945442000 
00004cd7 03            11169 	.byte	3
00004cd8 bb09          11170 	.byte	187,9
00004cda 0e            11171 	.byte	14
00004cdb 01            11172 	.byte	1
00004cdc 56            11173 	.byte	86
00004cdd 53544152545f  11174 	.strz	"START_SEC_VAR_ZERO_INIT_UNSPECIFIED "
00004ce3 5345435f5641 
00004ce9 525f5a45524f 
00004cef 5f494e49545f 
00004cf5 554e53504543 
00004cfb 494649454420 
00004d01 00 
00004d02 01            11175 	.byte	1
00004d03 840a          11176 	.byte	132,10
00004d05 5641525f5345  11177 	.strz	"VAR_SEC_OPEN "
00004d0b 435f4f50454e 
00004d11 2000 
00004d13 04            11178 	.byte	4
00004d14 04            11179 	.byte	4

                                                                      Page 242
                                                              C:\Users\nhuliyap\AppData\Local\Temp\gh_000075o1.s
00004d15 01            11180 	.byte	1
00004d16 e301          11181 	.byte	227,1
00004d18 44434d5f5741  11182 	.strz	"DCM_WAS_STARTED_SEC_VAR_CLEARED_BOOLEAN "
00004d1e 535f53544152 
00004d24 5445445f5345 
00004d2a 435f5641525f 
00004d30 434c45415245 
00004d36 445f424f4f4c 
00004d3c 45414e2000 
00004d41 04            11183 	.byte	4
00004d42 01            11184 	.byte	1
00004d43 ab02          11185 	.byte	171,2
00004d45 44434d5f5354  11186 	.strz	"DCM_STOP_SEC_VAR_CLEARED_BOOLEAN "
00004d4b 4f505f534543 
00004d51 5f5641525f43 
00004d57 4c4541524544 
00004d5d 5f424f4f4c45 
00004d63 414e2000 
00004d67 03            11187 	.byte	3
00004d68 ac02          11188 	.byte	172,2
00004d6a 0c            11189 	.byte	12
00004d6b 01            11190 	.byte	1
00004d6c 06            11191 	.byte	6
00004d6d 4d454d4d4150  11192 	.strz	"MEMMAP_ERROR "
00004d73 5f4552524f52 
00004d79 2000 
00004d7b 01            11193 	.byte	1
00004d7c ea01          11194 	.byte	234,1
00004d7e 4253575f5354  11195 	.strz	"BSW_STOP_SEC_DEFAULT_RAM0_CLEARED_UNSPECIFIED "
00004d84 4f505f534543 
00004d8a 5f4445464155 
00004d90 4c545f52414d 
00004d96 305f434c4541 
00004d9c 5245445f554e 
00004da2 535045434946 
00004da8 4945442000 
00004dad 03            11196 	.byte	3
00004dae eb01          11197 	.byte	235,1
00004db0 0d            11198 	.byte	13
00004db1 01            11199 	.byte	1
00004db2 8d05          11200 	.byte	141,5
00004db4 53544f505f53  11201 	.strz	"STOP_SEC_VAR "
00004dba 45435f564152 
00004dc0 2000 
00004dc2 03            11202 	.byte	3
00004dc3 bb09          11203 	.byte	187,9
00004dc5 0e            11204 	.byte	14
00004dc6 04            11205 	.byte	4
00004dc7 04            11206 	.byte	4
00004dc8 04            11207 	.byte	4
00004dc9 01            11208 	.byte	1
00004dca ae02          11209 	.byte	174,2
00004dcc 44434d5f5354  11210 	.strz	"DCM_START_SEC_VAR_CLEARED_BOOLEAN "
00004dd2 4152545f5345 
00004dd8 435f5641525f 
00004dde 434c45415245 
00004de4 445f424f4f4c 
00004dea 45414e2000 
00004def 03            11211 	.byte	3
00004df0 af02          11212 	.byte	175,2
00004df2 0c            11213 	.byte	12

                                                                      Page 243
                                                              C:\Users\nhuliyap\AppData\Local\Temp\gh_000075o1.s
00004df3 01            11214 	.byte	1
00004df4 06            11215 	.byte	6
00004df5 4d454d4d4150  11216 	.strz	"MEMMAP_ERROR "
00004dfb 5f4552524f52 
00004e01 2000 
00004e03 01            11217 	.byte	1
00004e04 de01          11218 	.byte	222,1
00004e06 4253575f5354  11219 	.strz	"BSW_START_SEC_DEFAULT_RAM0_CLEARED_UNSPECIFIED "
00004e0c 4152545f5345 
00004e12 435f44454641 
00004e18 554c545f5241 
00004e1e 4d305f434c45 
00004e24 415245445f55 
00004e2a 4e5350454349 
00004e30 464945442000 
00004e36 03            11220 	.byte	3
00004e37 df01          11221 	.byte	223,1
00004e39 0d            11222 	.byte	13
00004e3a 01            11223 	.byte	1
00004e3b 8a05          11224 	.byte	138,5
00004e3d 53544152545f  11225 	.strz	"START_SEC_VAR_CLEARED_UNSPECIFIED "
00004e43 5345435f5641 
00004e49 525f434c4541 
00004e4f 5245445f554e 
00004e55 535045434946 
00004e5b 4945442000 
00004e60 03            11226 	.byte	3
00004e61 bb09          11227 	.byte	187,9
00004e63 0e            11228 	.byte	14
00004e64 01            11229 	.byte	1
00004e65 56            11230 	.byte	86
00004e66 53544152545f  11231 	.strz	"START_SEC_VAR_ZERO_INIT_UNSPECIFIED "
00004e6c 5345435f5641 
00004e72 525f5a45524f 
00004e78 5f494e49545f 
00004e7e 554e53504543 
00004e84 494649454420 
00004e8a 00 
00004e8b 01            11232 	.byte	1
00004e8c 840a          11233 	.byte	132,10
00004e8e 5641525f5345  11234 	.strz	"VAR_SEC_OPEN "
00004e94 435f4f50454e 
00004e9a 2000 
00004e9c 04            11235 	.byte	4
00004e9d 04            11236 	.byte	4
00004e9e 01            11237 	.byte	1
00004e9f e301          11238 	.byte	227,1
00004ea1 44434d5f5741  11239 	.strz	"DCM_WAS_STARTED_SEC_VAR_CLEARED_BOOLEAN "
00004ea7 535f53544152 
00004ead 5445445f5345 
00004eb3 435f5641525f 
00004eb9 434c45415245 
00004ebf 445f424f4f4c 
00004ec5 45414e2000 
00004eca 04            11240 	.byte	4
00004ecb 01            11241 	.byte	1
00004ecc b202          11242 	.byte	178,2
00004ece 44434d5f5354  11243 	.strz	"DCM_STOP_SEC_VAR_CLEARED_BOOLEAN "
00004ed4 4f505f534543 
00004eda 5f5641525f43 
00004ee0 4c4541524544 

                                                                      Page 244
                                                              C:\Users\nhuliyap\AppData\Local\Temp\gh_000075o1.s
00004ee6 5f424f4f4c45 
00004eec 414e2000 
00004ef0 03            11244 	.byte	3
00004ef1 b302          11245 	.byte	179,2
00004ef3 0c            11246 	.byte	12
00004ef4 01            11247 	.byte	1
00004ef5 06            11248 	.byte	6
00004ef6 4d454d4d4150  11249 	.strz	"MEMMAP_ERROR "
00004efc 5f4552524f52 
00004f02 2000 
00004f04 01            11250 	.byte	1
00004f05 ea01          11251 	.byte	234,1
00004f07 4253575f5354  11252 	.strz	"BSW_STOP_SEC_DEFAULT_RAM0_CLEARED_UNSPECIFIED "
00004f0d 4f505f534543 
00004f13 5f4445464155 
00004f19 4c545f52414d 
00004f1f 305f434c4541 
00004f25 5245445f554e 
00004f2b 535045434946 
00004f31 4945442000 
00004f36 03            11253 	.byte	3
00004f37 eb01          11254 	.byte	235,1
00004f39 0d            11255 	.byte	13
00004f3a 01            11256 	.byte	1
00004f3b 8d05          11257 	.byte	141,5
00004f3d 53544f505f53  11258 	.strz	"STOP_SEC_VAR "
00004f43 45435f564152 
00004f49 2000 
00004f4b 03            11259 	.byte	3
00004f4c bb09          11260 	.byte	187,9
00004f4e 0e            11261 	.byte	14
00004f4f 04            11262 	.byte	4
00004f50 04            11263 	.byte	4
00004f51 04            11264 	.byte	4
00004f52 01            11265 	.byte	1
00004f53 b502          11266 	.byte	181,2
00004f55 44434d5f5354  11267 	.strz	"DCM_START_SEC_VAR_CLEARED_UNSPECIFIED "
00004f5b 4152545f5345 
00004f61 435f5641525f 
00004f67 434c45415245 
00004f6d 445f554e5350 
00004f73 454349464945 
00004f79 442000 
00004f7c 03            11268 	.byte	3
00004f7d b602          11269 	.byte	182,2
00004f7f 0c            11270 	.byte	12
00004f80 01            11271 	.byte	1
00004f81 06            11272 	.byte	6
00004f82 4d454d4d4150  11273 	.strz	"MEMMAP_ERROR "
00004f88 5f4552524f52 
00004f8e 2000 
00004f90 01            11274 	.byte	1
00004f91 c901          11275 	.byte	201,1
00004f93 4253575f5354  11276 	.strz	"BSW_START_SEC_DEFAULT_RAM0_CLEARED_UNSPECIFIED "
00004f99 4152545f5345 
00004f9f 435f44454641 
00004fa5 554c545f5241 
00004fab 4d305f434c45 
00004fb1 415245445f55 
00004fb7 4e5350454349 
00004fbd 464945442000 

                                                                      Page 245
                                                              C:\Users\nhuliyap\AppData\Local\Temp\gh_000075o1.s
00004fc3 03            11277 	.byte	3
00004fc4 ca01          11278 	.byte	202,1
00004fc6 0d            11279 	.byte	13
00004fc7 01            11280 	.byte	1
00004fc8 8a05          11281 	.byte	138,5
00004fca 53544152545f  11282 	.strz	"START_SEC_VAR_CLEARED_UNSPECIFIED "
00004fd0 5345435f5641 
00004fd6 525f434c4541 
00004fdc 5245445f554e 
00004fe2 535045434946 
00004fe8 4945442000 
00004fed 03            11283 	.byte	3
00004fee bb09          11284 	.byte	187,9
00004ff0 0e            11285 	.byte	14
00004ff1 01            11286 	.byte	1
00004ff2 56            11287 	.byte	86
00004ff3 53544152545f  11288 	.strz	"START_SEC_VAR_ZERO_INIT_UNSPECIFIED "
00004ff9 5345435f5641 
00004fff 525f5a45524f 
00005005 5f494e49545f 
0000500b 554e53504543 
00005011 494649454420 
00005017 00 
00005018 01            11289 	.byte	1
00005019 840a          11290 	.byte	132,10
0000501b 5641525f5345  11291 	.strz	"VAR_SEC_OPEN "
00005021 435f4f50454e 
00005027 2000 
00005029 04            11292 	.byte	4
0000502a 04            11293 	.byte	4
0000502b 01            11294 	.byte	1
0000502c ce01          11295 	.byte	206,1
0000502e 44434d5f5741  11296 	.strz	"DCM_WAS_STARTED_SEC_VAR_CLEARED_UNSPECIFIED "
00005034 535f53544152 
0000503a 5445445f5345 
00005040 435f5641525f 
00005046 434c45415245 
0000504c 445f554e5350 
00005052 454349464945 
00005058 442000 
0000505b 04            11297 	.byte	4
0000505c 01            11298 	.byte	1
0000505d b802          11299 	.byte	184,2
0000505f 44434d5f5354  11300 	.strz	"DCM_STOP_SEC_VAR_CLEARED_UNSPECIFIED "
00005065 4f505f534543 
0000506b 5f5641525f43 
00005071 4c4541524544 
00005077 5f554e535045 
0000507d 434946494544 
00005083 2000 
00005085 03            11301 	.byte	3
00005086 b902          11302 	.byte	185,2
00005088 0c            11303 	.byte	12
00005089 01            11304 	.byte	1
0000508a 06            11305 	.byte	6
0000508b 4d454d4d4150  11306 	.strz	"MEMMAP_ERROR "
00005091 5f4552524f52 
00005097 2000 
00005099 01            11307 	.byte	1
0000509a d501          11308 	.byte	213,1
0000509c 4253575f5354  11309 	.strz	"BSW_STOP_SEC_DEFAULT_RAM0_CLEARED_UNSPECIFIED "

                                                                      Page 246
                                                              C:\Users\nhuliyap\AppData\Local\Temp\gh_000075o1.s
000050a2 4f505f534543 
000050a8 5f4445464155 
000050ae 4c545f52414d 
000050b4 305f434c4541 
000050ba 5245445f554e 
000050c0 535045434946 
000050c6 4945442000 
000050cb 03            11310 	.byte	3
000050cc d601          11311 	.byte	214,1
000050ce 0d            11312 	.byte	13
000050cf 01            11313 	.byte	1
000050d0 8d05          11314 	.byte	141,5
000050d2 53544f505f53  11315 	.strz	"STOP_SEC_VAR "
000050d8 45435f564152 
000050de 2000 
000050e0 03            11316 	.byte	3
000050e1 bb09          11317 	.byte	187,9
000050e3 0e            11318 	.byte	14
000050e4 04            11319 	.byte	4
000050e5 04            11320 	.byte	4
000050e6 04            11321 	.byte	4
000050e7 01            11322 	.byte	1
000050e8 ba02          11323 	.byte	186,2
000050ea 44434d5f5354  11324 	.strz	"DCM_START_SEC_VAR_CLEARED_UNSPECIFIED "
000050f0 4152545f5345 
000050f6 435f5641525f 
000050fc 434c45415245 
00005102 445f554e5350 
00005108 454349464945 
0000510e 442000 
00005111 03            11325 	.byte	3
00005112 bb02          11326 	.byte	187,2
00005114 0c            11327 	.byte	12
00005115 01            11328 	.byte	1
00005116 06            11329 	.byte	6
00005117 4d454d4d4150  11330 	.strz	"MEMMAP_ERROR "
0000511d 5f4552524f52 
00005123 2000 
00005125 01            11331 	.byte	1
00005126 c901          11332 	.byte	201,1
00005128 4253575f5354  11333 	.strz	"BSW_START_SEC_DEFAULT_RAM0_CLEARED_UNSPECIFIED "
0000512e 4152545f5345 
00005134 435f44454641 
0000513a 554c545f5241 
00005140 4d305f434c45 
00005146 415245445f55 
0000514c 4e5350454349 
00005152 464945442000 
00005158 03            11334 	.byte	3
00005159 ca01          11335 	.byte	202,1
0000515b 0d            11336 	.byte	13
0000515c 01            11337 	.byte	1
0000515d 8a05          11338 	.byte	138,5
0000515f 53544152545f  11339 	.strz	"START_SEC_VAR_CLEARED_UNSPECIFIED "
00005165 5345435f5641 
0000516b 525f434c4541 
00005171 5245445f554e 
00005177 535045434946 
0000517d 4945442000 
00005182 03            11340 	.byte	3
00005183 bb09          11341 	.byte	187,9

                                                                      Page 247
                                                              C:\Users\nhuliyap\AppData\Local\Temp\gh_000075o1.s
00005185 0e            11342 	.byte	14
00005186 01            11343 	.byte	1
00005187 56            11344 	.byte	86
00005188 53544152545f  11345 	.strz	"START_SEC_VAR_ZERO_INIT_UNSPECIFIED "
0000518e 5345435f5641 
00005194 525f5a45524f 
0000519a 5f494e49545f 
000051a0 554e53504543 
000051a6 494649454420 
000051ac 00 
000051ad 01            11346 	.byte	1
000051ae 840a          11347 	.byte	132,10
000051b0 5641525f5345  11348 	.strz	"VAR_SEC_OPEN "
000051b6 435f4f50454e 
000051bc 2000 
000051be 04            11349 	.byte	4
000051bf 04            11350 	.byte	4
000051c0 01            11351 	.byte	1
000051c1 ce01          11352 	.byte	206,1
000051c3 44434d5f5741  11353 	.strz	"DCM_WAS_STARTED_SEC_VAR_CLEARED_UNSPECIFIED "
000051c9 535f53544152 
000051cf 5445445f5345 
000051d5 435f5641525f 
000051db 434c45415245 
000051e1 445f554e5350 
000051e7 454349464945 
000051ed 442000 
000051f0 04            11354 	.byte	4
000051f1 01            11355 	.byte	1
000051f2 be02          11356 	.byte	190,2
000051f4 44434d5f5354  11357 	.strz	"DCM_STOP_SEC_VAR_CLEARED_UNSPECIFIED "
000051fa 4f505f534543 
00005200 5f5641525f43 
00005206 4c4541524544 
0000520c 5f554e535045 
00005212 434946494544 
00005218 2000 
0000521a 03            11358 	.byte	3
0000521b bf02          11359 	.byte	191,2
0000521d 0c            11360 	.byte	12
0000521e 01            11361 	.byte	1
0000521f 06            11362 	.byte	6
00005220 4d454d4d4150  11363 	.strz	"MEMMAP_ERROR "
00005226 5f4552524f52 
0000522c 2000 
0000522e 01            11364 	.byte	1
0000522f d501          11365 	.byte	213,1
00005231 4253575f5354  11366 	.strz	"BSW_STOP_SEC_DEFAULT_RAM0_CLEARED_UNSPECIFIED "
00005237 4f505f534543 
0000523d 5f4445464155 
00005243 4c545f52414d 
00005249 305f434c4541 
0000524f 5245445f554e 
00005255 535045434946 
0000525b 4945442000 
00005260 03            11367 	.byte	3
00005261 d601          11368 	.byte	214,1
00005263 0d            11369 	.byte	13
00005264 01            11370 	.byte	1
00005265 8d05          11371 	.byte	141,5
00005267 53544f505f53  11372 	.strz	"STOP_SEC_VAR "

                                                                      Page 248
                                                              C:\Users\nhuliyap\AppData\Local\Temp\gh_000075o1.s
0000526d 45435f564152 
00005273 2000 
00005275 03            11373 	.byte	3
00005276 bb09          11374 	.byte	187,9
00005278 0e            11375 	.byte	14
00005279 04            11376 	.byte	4
0000527a 04            11377 	.byte	4
0000527b 04            11378 	.byte	4
0000527c 01            11379 	.byte	1
0000527d c002          11380 	.byte	192,2
0000527f 44434d5f5354  11381 	.strz	"DCM_START_SEC_VAR_CLEARED_UNSPECIFIED "
00005285 4152545f5345 
0000528b 435f5641525f 
00005291 434c45415245 
00005297 445f554e5350 
0000529d 454349464945 
000052a3 442000 
000052a6 03            11382 	.byte	3
000052a7 c102          11383 	.byte	193,2
000052a9 0c            11384 	.byte	12
000052aa 01            11385 	.byte	1
000052ab 06            11386 	.byte	6
000052ac 4d454d4d4150  11387 	.strz	"MEMMAP_ERROR "
000052b2 5f4552524f52 
000052b8 2000 
000052ba 01            11388 	.byte	1
000052bb c901          11389 	.byte	201,1
000052bd 4253575f5354  11390 	.strz	"BSW_START_SEC_DEFAULT_RAM0_CLEARED_UNSPECIFIED "
000052c3 4152545f5345 
000052c9 435f44454641 
000052cf 554c545f5241 
000052d5 4d305f434c45 
000052db 415245445f55 
000052e1 4e5350454349 
000052e7 464945442000 
000052ed 03            11391 	.byte	3
000052ee ca01          11392 	.byte	202,1
000052f0 0d            11393 	.byte	13
000052f1 01            11394 	.byte	1
000052f2 8a05          11395 	.byte	138,5
000052f4 53544152545f  11396 	.strz	"START_SEC_VAR_CLEARED_UNSPECIFIED "
000052fa 5345435f5641 
00005300 525f434c4541 
00005306 5245445f554e 
0000530c 535045434946 
00005312 4945442000 
00005317 03            11397 	.byte	3
00005318 bb09          11398 	.byte	187,9
0000531a 0e            11399 	.byte	14
0000531b 01            11400 	.byte	1
0000531c 56            11401 	.byte	86
0000531d 53544152545f  11402 	.strz	"START_SEC_VAR_ZERO_INIT_UNSPECIFIED "
00005323 5345435f5641 
00005329 525f5a45524f 
0000532f 5f494e49545f 
00005335 554e53504543 
0000533b 494649454420 
00005341 00 
00005342 01            11403 	.byte	1
00005343 840a          11404 	.byte	132,10
00005345 5641525f5345  11405 	.strz	"VAR_SEC_OPEN "

                                                                      Page 249
                                                              C:\Users\nhuliyap\AppData\Local\Temp\gh_000075o1.s
0000534b 435f4f50454e 
00005351 2000 
00005353 04            11406 	.byte	4
00005354 04            11407 	.byte	4
00005355 01            11408 	.byte	1
00005356 ce01          11409 	.byte	206,1
00005358 44434d5f5741  11410 	.strz	"DCM_WAS_STARTED_SEC_VAR_CLEARED_UNSPECIFIED "
0000535e 535f53544152 
00005364 5445445f5345 
0000536a 435f5641525f 
00005370 434c45415245 
00005376 445f554e5350 
0000537c 454349464945 
00005382 442000 
00005385 04            11411 	.byte	4
00005386 01            11412 	.byte	1
00005387 c302          11413 	.byte	195,2
00005389 44434d5f5354  11414 	.strz	"DCM_STOP_SEC_VAR_CLEARED_UNSPECIFIED "
0000538f 4f505f534543 
00005395 5f5641525f43 
0000539b 4c4541524544 
000053a1 5f554e535045 
000053a7 434946494544 
000053ad 2000 
000053af 03            11415 	.byte	3
000053b0 c402          11416 	.byte	196,2
000053b2 0c            11417 	.byte	12
000053b3 01            11418 	.byte	1
000053b4 06            11419 	.byte	6
000053b5 4d454d4d4150  11420 	.strz	"MEMMAP_ERROR "
000053bb 5f4552524f52 
000053c1 2000 
000053c3 01            11421 	.byte	1
000053c4 d501          11422 	.byte	213,1
000053c6 4253575f5354  11423 	.strz	"BSW_STOP_SEC_DEFAULT_RAM0_CLEARED_UNSPECIFIED "
000053cc 4f505f534543 
000053d2 5f4445464155 
000053d8 4c545f52414d 
000053de 305f434c4541 
000053e4 5245445f554e 
000053ea 535045434946 
000053f0 4945442000 
000053f5 03            11424 	.byte	3
000053f6 d601          11425 	.byte	214,1
000053f8 0d            11426 	.byte	13
000053f9 01            11427 	.byte	1
000053fa 8d05          11428 	.byte	141,5
000053fc 53544f505f53  11429 	.strz	"STOP_SEC_VAR "
00005402 45435f564152 
00005408 2000 
0000540a 03            11430 	.byte	3
0000540b bb09          11431 	.byte	187,9
0000540d 0e            11432 	.byte	14
0000540e 04            11433 	.byte	4
0000540f 04            11434 	.byte	4
00005410 04            11435 	.byte	4
00005411 01            11436 	.byte	1
00005412 c502          11437 	.byte	197,2
00005414 44434d5f5354  11438 	.strz	"DCM_START_SEC_VAR_CLEARED_BOOLEAN "
0000541a 4152545f5345 
00005420 435f5641525f 

                                                                      Page 250
                                                              C:\Users\nhuliyap\AppData\Local\Temp\gh_000075o1.s
00005426 434c45415245 
0000542c 445f424f4f4c 
00005432 45414e2000 
00005437 03            11439 	.byte	3
00005438 c602          11440 	.byte	198,2
0000543a 0c            11441 	.byte	12
0000543b 01            11442 	.byte	1
0000543c 06            11443 	.byte	6
0000543d 4d454d4d4150  11444 	.strz	"MEMMAP_ERROR "
00005443 5f4552524f52 
00005449 2000 
0000544b 01            11445 	.byte	1
0000544c de01          11446 	.byte	222,1
0000544e 4253575f5354  11447 	.strz	"BSW_START_SEC_DEFAULT_RAM0_CLEARED_UNSPECIFIED "
00005454 4152545f5345 
0000545a 435f44454641 
00005460 554c545f5241 
00005466 4d305f434c45 
0000546c 415245445f55 
00005472 4e5350454349 
00005478 464945442000 
0000547e 03            11448 	.byte	3
0000547f df01          11449 	.byte	223,1
00005481 0d            11450 	.byte	13
00005482 01            11451 	.byte	1
00005483 8a05          11452 	.byte	138,5
00005485 53544152545f  11453 	.strz	"START_SEC_VAR_CLEARED_UNSPECIFIED "
0000548b 5345435f5641 
00005491 525f434c4541 
00005497 5245445f554e 
0000549d 535045434946 
000054a3 4945442000 
000054a8 03            11454 	.byte	3
000054a9 bb09          11455 	.byte	187,9
000054ab 0e            11456 	.byte	14
000054ac 01            11457 	.byte	1
000054ad 56            11458 	.byte	86
000054ae 53544152545f  11459 	.strz	"START_SEC_VAR_ZERO_INIT_UNSPECIFIED "
000054b4 5345435f5641 
000054ba 525f5a45524f 
000054c0 5f494e49545f 
000054c6 554e53504543 
000054cc 494649454420 
000054d2 00 
000054d3 01            11460 	.byte	1
000054d4 840a          11461 	.byte	132,10
000054d6 5641525f5345  11462 	.strz	"VAR_SEC_OPEN "
000054dc 435f4f50454e 
000054e2 2000 
000054e4 04            11463 	.byte	4
000054e5 04            11464 	.byte	4
000054e6 01            11465 	.byte	1
000054e7 e301          11466 	.byte	227,1
000054e9 44434d5f5741  11467 	.strz	"DCM_WAS_STARTED_SEC_VAR_CLEARED_BOOLEAN "
000054ef 535f53544152 
000054f5 5445445f5345 
000054fb 435f5641525f 
00005501 434c45415245 
00005507 445f424f4f4c 
0000550d 45414e2000 
00005512 04            11468 	.byte	4

                                                                      Page 251
                                                              C:\Users\nhuliyap\AppData\Local\Temp\gh_000075o1.s
00005513 01            11469 	.byte	1
00005514 ca02          11470 	.byte	202,2
00005516 44434d5f5354  11471 	.strz	"DCM_STOP_SEC_VAR_CLEARED_BOOLEAN "
0000551c 4f505f534543 
00005522 5f5641525f43 
00005528 4c4541524544 
0000552e 5f424f4f4c45 
00005534 414e2000 
00005538 03            11472 	.byte	3
00005539 cb02          11473 	.byte	203,2
0000553b 0c            11474 	.byte	12
0000553c 01            11475 	.byte	1
0000553d 06            11476 	.byte	6
0000553e 4d454d4d4150  11477 	.strz	"MEMMAP_ERROR "
00005544 5f4552524f52 
0000554a 2000 
0000554c 01            11478 	.byte	1
0000554d ea01          11479 	.byte	234,1
0000554f 4253575f5354  11480 	.strz	"BSW_STOP_SEC_DEFAULT_RAM0_CLEARED_UNSPECIFIED "
00005555 4f505f534543 
0000555b 5f4445464155 
00005561 4c545f52414d 
00005567 305f434c4541 
0000556d 5245445f554e 
00005573 535045434946 
00005579 4945442000 
0000557e 03            11481 	.byte	3
0000557f eb01          11482 	.byte	235,1
00005581 0d            11483 	.byte	13
00005582 01            11484 	.byte	1
00005583 8d05          11485 	.byte	141,5
00005585 53544f505f53  11486 	.strz	"STOP_SEC_VAR "
0000558b 45435f564152 
00005591 2000 
00005593 03            11487 	.byte	3
00005594 bb09          11488 	.byte	187,9
00005596 0e            11489 	.byte	14
00005597 04            11490 	.byte	4
00005598 04            11491 	.byte	4
00005599 04            11492 	.byte	4
0000559a 01            11493 	.byte	1
0000559b cc02          11494 	.byte	204,2
0000559d 44434d5f5354  11495 	.strz	"DCM_START_SEC_VAR_CLEARED_UNSPECIFIED "
000055a3 4152545f5345 
000055a9 435f5641525f 
000055af 434c45415245 
000055b5 445f554e5350 
000055bb 454349464945 
000055c1 442000 
000055c4 03            11496 	.byte	3
000055c5 cd02          11497 	.byte	205,2
000055c7 0c            11498 	.byte	12
000055c8 01            11499 	.byte	1
000055c9 06            11500 	.byte	6
000055ca 4d454d4d4150  11501 	.strz	"MEMMAP_ERROR "
000055d0 5f4552524f52 
000055d6 2000 
000055d8 01            11502 	.byte	1
000055d9 c901          11503 	.byte	201,1
000055db 4253575f5354  11504 	.strz	"BSW_START_SEC_DEFAULT_RAM0_CLEARED_UNSPECIFIED "
000055e1 4152545f5345 

                                                                      Page 252
                                                              C:\Users\nhuliyap\AppData\Local\Temp\gh_000075o1.s
000055e7 435f44454641 
000055ed 554c545f5241 
000055f3 4d305f434c45 
000055f9 415245445f55 
000055ff 4e5350454349 
00005605 464945442000 
0000560b 03            11505 	.byte	3
0000560c ca01          11506 	.byte	202,1
0000560e 0d            11507 	.byte	13
0000560f 01            11508 	.byte	1
00005610 8a05          11509 	.byte	138,5
00005612 53544152545f  11510 	.strz	"START_SEC_VAR_CLEARED_UNSPECIFIED "
00005618 5345435f5641 
0000561e 525f434c4541 
00005624 5245445f554e 
0000562a 535045434946 
00005630 4945442000 
00005635 03            11511 	.byte	3
00005636 bb09          11512 	.byte	187,9
00005638 0e            11513 	.byte	14
00005639 01            11514 	.byte	1
0000563a 56            11515 	.byte	86
0000563b 53544152545f  11516 	.strz	"START_SEC_VAR_ZERO_INIT_UNSPECIFIED "
00005641 5345435f5641 
00005647 525f5a45524f 
0000564d 5f494e49545f 
00005653 554e53504543 
00005659 494649454420 
0000565f 00 
00005660 01            11517 	.byte	1
00005661 840a          11518 	.byte	132,10
00005663 5641525f5345  11519 	.strz	"VAR_SEC_OPEN "
00005669 435f4f50454e 
0000566f 2000 
00005671 04            11520 	.byte	4
00005672 04            11521 	.byte	4
00005673 01            11522 	.byte	1
00005674 ce01          11523 	.byte	206,1
00005676 44434d5f5741  11524 	.strz	"DCM_WAS_STARTED_SEC_VAR_CLEARED_UNSPECIFIED "
0000567c 535f53544152 
00005682 5445445f5345 
00005688 435f5641525f 
0000568e 434c45415245 
00005694 445f554e5350 
0000569a 454349464945 
000056a0 442000 
000056a3 04            11525 	.byte	4
000056a4 01            11526 	.byte	1
000056a5 d002          11527 	.byte	208,2
000056a7 44434d5f5354  11528 	.strz	"DCM_STOP_SEC_VAR_CLEARED_UNSPECIFIED "
000056ad 4f505f534543 
000056b3 5f5641525f43 
000056b9 4c4541524544 
000056bf 5f554e535045 
000056c5 434946494544 
000056cb 2000 
000056cd 03            11529 	.byte	3
000056ce d102          11530 	.byte	209,2
000056d0 0c            11531 	.byte	12
000056d1 01            11532 	.byte	1
000056d2 06            11533 	.byte	6

                                                                      Page 253
                                                              C:\Users\nhuliyap\AppData\Local\Temp\gh_000075o1.s
000056d3 4d454d4d4150  11534 	.strz	"MEMMAP_ERROR "
000056d9 5f4552524f52 
000056df 2000 
000056e1 01            11535 	.byte	1
000056e2 d501          11536 	.byte	213,1
000056e4 4253575f5354  11537 	.strz	"BSW_STOP_SEC_DEFAULT_RAM0_CLEARED_UNSPECIFIED "
000056ea 4f505f534543 
000056f0 5f4445464155 
000056f6 4c545f52414d 
000056fc 305f434c4541 
00005702 5245445f554e 
00005708 535045434946 
0000570e 4945442000 
00005713 03            11538 	.byte	3
00005714 d601          11539 	.byte	214,1
00005716 0d            11540 	.byte	13
00005717 01            11541 	.byte	1
00005718 8d05          11542 	.byte	141,5
0000571a 53544f505f53  11543 	.strz	"STOP_SEC_VAR "
00005720 45435f564152 
00005726 2000 
00005728 03            11544 	.byte	3
00005729 bb09          11545 	.byte	187,9
0000572b 0e            11546 	.byte	14
0000572c 04            11547 	.byte	4
0000572d 04            11548 	.byte	4
0000572e 04            11549 	.byte	4
0000572f 01            11550 	.byte	1
00005730 d202          11551 	.byte	210,2
00005732 44434d5f5354  11552 	.strz	"DCM_START_SEC_VAR_CLEARED_UNSPECIFIED "
00005738 4152545f5345 
0000573e 435f5641525f 
00005744 434c45415245 
0000574a 445f554e5350 
00005750 454349464945 
00005756 442000 
00005759 03            11553 	.byte	3
0000575a d302          11554 	.byte	211,2
0000575c 0c            11555 	.byte	12
0000575d 01            11556 	.byte	1
0000575e 06            11557 	.byte	6
0000575f 4d454d4d4150  11558 	.strz	"MEMMAP_ERROR "
00005765 5f4552524f52 
0000576b 2000 
0000576d 01            11559 	.byte	1
0000576e c901          11560 	.byte	201,1
00005770 4253575f5354  11561 	.strz	"BSW_START_SEC_DEFAULT_RAM0_CLEARED_UNSPECIFIED "
00005776 4152545f5345 
0000577c 435f44454641 
00005782 554c545f5241 
00005788 4d305f434c45 
0000578e 415245445f55 
00005794 4e5350454349 
0000579a 464945442000 
000057a0 03            11562 	.byte	3
000057a1 ca01          11563 	.byte	202,1
000057a3 0d            11564 	.byte	13
000057a4 01            11565 	.byte	1
000057a5 8a05          11566 	.byte	138,5
000057a7 53544152545f  11567 	.strz	"START_SEC_VAR_CLEARED_UNSPECIFIED "
000057ad 5345435f5641 

                                                                      Page 254
                                                              C:\Users\nhuliyap\AppData\Local\Temp\gh_000075o1.s
000057b3 525f434c4541 
000057b9 5245445f554e 
000057bf 535045434946 
000057c5 4945442000 
000057ca 03            11568 	.byte	3
000057cb bb09          11569 	.byte	187,9
000057cd 0e            11570 	.byte	14
000057ce 01            11571 	.byte	1
000057cf 56            11572 	.byte	86
000057d0 53544152545f  11573 	.strz	"START_SEC_VAR_ZERO_INIT_UNSPECIFIED "
000057d6 5345435f5641 
000057dc 525f5a45524f 
000057e2 5f494e49545f 
000057e8 554e53504543 
000057ee 494649454420 
000057f4 00 
000057f5 01            11574 	.byte	1
000057f6 840a          11575 	.byte	132,10
000057f8 5641525f5345  11576 	.strz	"VAR_SEC_OPEN "
000057fe 435f4f50454e 
00005804 2000 
00005806 04            11577 	.byte	4
00005807 04            11578 	.byte	4
00005808 01            11579 	.byte	1
00005809 ce01          11580 	.byte	206,1
0000580b 44434d5f5741  11581 	.strz	"DCM_WAS_STARTED_SEC_VAR_CLEARED_UNSPECIFIED "
00005811 535f53544152 
00005817 5445445f5345 
0000581d 435f5641525f 
00005823 434c45415245 
00005829 445f554e5350 
0000582f 454349464945 
00005835 442000 
00005838 04            11582 	.byte	4
00005839 01            11583 	.byte	1
0000583a d502          11584 	.byte	213,2
0000583c 44434d5f5354  11585 	.strz	"DCM_STOP_SEC_VAR_CLEARED_UNSPECIFIED "
00005842 4f505f534543 
00005848 5f5641525f43 
0000584e 4c4541524544 
00005854 5f554e535045 
0000585a 434946494544 
00005860 2000 
00005862 03            11586 	.byte	3
00005863 d602          11587 	.byte	214,2
00005865 0c            11588 	.byte	12
00005866 01            11589 	.byte	1
00005867 06            11590 	.byte	6
00005868 4d454d4d4150  11591 	.strz	"MEMMAP_ERROR "
0000586e 5f4552524f52 
00005874 2000 
00005876 01            11592 	.byte	1
00005877 d501          11593 	.byte	213,1
00005879 4253575f5354  11594 	.strz	"BSW_STOP_SEC_DEFAULT_RAM0_CLEARED_UNSPECIFIED "
0000587f 4f505f534543 
00005885 5f4445464155 
0000588b 4c545f52414d 
00005891 305f434c4541 
00005897 5245445f554e 
0000589d 535045434946 
000058a3 4945442000 

                                                                      Page 255
                                                              C:\Users\nhuliyap\AppData\Local\Temp\gh_000075o1.s
000058a8 03            11595 	.byte	3
000058a9 d601          11596 	.byte	214,1
000058ab 0d            11597 	.byte	13
000058ac 01            11598 	.byte	1
000058ad 8d05          11599 	.byte	141,5
000058af 53544f505f53  11600 	.strz	"STOP_SEC_VAR "
000058b5 45435f564152 
000058bb 2000 
000058bd 03            11601 	.byte	3
000058be bb09          11602 	.byte	187,9
000058c0 0e            11603 	.byte	14
000058c1 04            11604 	.byte	4
000058c2 04            11605 	.byte	4
000058c3 04            11606 	.byte	4
000058c4 01            11607 	.byte	1
000058c5 d702          11608 	.byte	215,2
000058c7 44434d5f5354  11609 	.strz	"DCM_START_SEC_VAR_CLEARED_UNSPECIFIED "
000058cd 4152545f5345 
000058d3 435f5641525f 
000058d9 434c45415245 
000058df 445f554e5350 
000058e5 454349464945 
000058eb 442000 
000058ee 03            11610 	.byte	3
000058ef d802          11611 	.byte	216,2
000058f1 0c            11612 	.byte	12
000058f2 01            11613 	.byte	1
000058f3 06            11614 	.byte	6
000058f4 4d454d4d4150  11615 	.strz	"MEMMAP_ERROR "
000058fa 5f4552524f52 
00005900 2000 
00005902 01            11616 	.byte	1
00005903 c901          11617 	.byte	201,1
00005905 4253575f5354  11618 	.strz	"BSW_START_SEC_DEFAULT_RAM0_CLEARED_UNSPECIFIED "
0000590b 4152545f5345 
00005911 435f44454641 
00005917 554c545f5241 
0000591d 4d305f434c45 
00005923 415245445f55 
00005929 4e5350454349 
0000592f 464945442000 
00005935 03            11619 	.byte	3
00005936 ca01          11620 	.byte	202,1
00005938 0d            11621 	.byte	13
00005939 01            11622 	.byte	1
0000593a 8a05          11623 	.byte	138,5
0000593c 53544152545f  11624 	.strz	"START_SEC_VAR_CLEARED_UNSPECIFIED "
00005942 5345435f5641 
00005948 525f434c4541 
0000594e 5245445f554e 
00005954 535045434946 
0000595a 4945442000 
0000595f 03            11625 	.byte	3
00005960 bb09          11626 	.byte	187,9
00005962 0e            11627 	.byte	14
00005963 01            11628 	.byte	1
00005964 56            11629 	.byte	86
00005965 53544152545f  11630 	.strz	"START_SEC_VAR_ZERO_INIT_UNSPECIFIED "
0000596b 5345435f5641 
00005971 525f5a45524f 
00005977 5f494e49545f 

                                                                      Page 256
                                                              C:\Users\nhuliyap\AppData\Local\Temp\gh_000075o1.s
0000597d 554e53504543 
00005983 494649454420 
00005989 00 
0000598a 01            11631 	.byte	1
0000598b 840a          11632 	.byte	132,10
0000598d 5641525f5345  11633 	.strz	"VAR_SEC_OPEN "
00005993 435f4f50454e 
00005999 2000 
0000599b 04            11634 	.byte	4
0000599c 04            11635 	.byte	4
0000599d 01            11636 	.byte	1
0000599e ce01          11637 	.byte	206,1
000059a0 44434d5f5741  11638 	.strz	"DCM_WAS_STARTED_SEC_VAR_CLEARED_UNSPECIFIED "
000059a6 535f53544152 
000059ac 5445445f5345 
000059b2 435f5641525f 
000059b8 434c45415245 
000059be 445f554e5350 
000059c4 454349464945 
000059ca 442000 
000059cd 04            11639 	.byte	4
000059ce 01            11640 	.byte	1
000059cf da02          11641 	.byte	218,2
000059d1 44434d5f5354  11642 	.strz	"DCM_STOP_SEC_VAR_CLEARED_UNSPECIFIED "
000059d7 4f505f534543 
000059dd 5f5641525f43 
000059e3 4c4541524544 
000059e9 5f554e535045 
000059ef 434946494544 
000059f5 2000 
000059f7 03            11643 	.byte	3
000059f8 db02          11644 	.byte	219,2
000059fa 0c            11645 	.byte	12
000059fb 01            11646 	.byte	1
000059fc 06            11647 	.byte	6
000059fd 4d454d4d4150  11648 	.strz	"MEMMAP_ERROR "
00005a03 5f4552524f52 
00005a09 2000 
00005a0b 01            11649 	.byte	1
00005a0c d501          11650 	.byte	213,1
00005a0e 4253575f5354  11651 	.strz	"BSW_STOP_SEC_DEFAULT_RAM0_CLEARED_UNSPECIFIED "
00005a14 4f505f534543 
00005a1a 5f4445464155 
00005a20 4c545f52414d 
00005a26 305f434c4541 
00005a2c 5245445f554e 
00005a32 535045434946 
00005a38 4945442000 
00005a3d 03            11652 	.byte	3
00005a3e d601          11653 	.byte	214,1
00005a40 0d            11654 	.byte	13
00005a41 01            11655 	.byte	1
00005a42 8d05          11656 	.byte	141,5
00005a44 53544f505f53  11657 	.strz	"STOP_SEC_VAR "
00005a4a 45435f564152 
00005a50 2000 
00005a52 03            11658 	.byte	3
00005a53 bb09          11659 	.byte	187,9
00005a55 0e            11660 	.byte	14
00005a56 04            11661 	.byte	4
00005a57 04            11662 	.byte	4

                                                                      Page 257
                                                              C:\Users\nhuliyap\AppData\Local\Temp\gh_000075o1.s
00005a58 04            11663 	.byte	4
00005a59 01            11664 	.byte	1
00005a5a dc02          11665 	.byte	220,2
00005a5c 44434d5f5354  11666 	.strz	"DCM_START_SEC_VAR_CLEARED_UNSPECIFIED "
00005a62 4152545f5345 
00005a68 435f5641525f 
00005a6e 434c45415245 
00005a74 445f554e5350 
00005a7a 454349464945 
00005a80 442000 
00005a83 03            11667 	.byte	3
00005a84 dd02          11668 	.byte	221,2
00005a86 0c            11669 	.byte	12
00005a87 01            11670 	.byte	1
00005a88 06            11671 	.byte	6
00005a89 4d454d4d4150  11672 	.strz	"MEMMAP_ERROR "
00005a8f 5f4552524f52 
00005a95 2000 
00005a97 01            11673 	.byte	1
00005a98 c901          11674 	.byte	201,1
00005a9a 4253575f5354  11675 	.strz	"BSW_START_SEC_DEFAULT_RAM0_CLEARED_UNSPECIFIED "
00005aa0 4152545f5345 
00005aa6 435f44454641 
00005aac 554c545f5241 
00005ab2 4d305f434c45 
00005ab8 415245445f55 
00005abe 4e5350454349 
00005ac4 464945442000 
00005aca 03            11676 	.byte	3
00005acb ca01          11677 	.byte	202,1
00005acd 0d            11678 	.byte	13
00005ace 01            11679 	.byte	1
00005acf 8a05          11680 	.byte	138,5
00005ad1 53544152545f  11681 	.strz	"START_SEC_VAR_CLEARED_UNSPECIFIED "
00005ad7 5345435f5641 
00005add 525f434c4541 
00005ae3 5245445f554e 
00005ae9 535045434946 
00005aef 4945442000 
00005af4 03            11682 	.byte	3
00005af5 bb09          11683 	.byte	187,9
00005af7 0e            11684 	.byte	14
00005af8 01            11685 	.byte	1
00005af9 56            11686 	.byte	86
00005afa 53544152545f  11687 	.strz	"START_SEC_VAR_ZERO_INIT_UNSPECIFIED "
00005b00 5345435f5641 
00005b06 525f5a45524f 
00005b0c 5f494e49545f 
00005b12 554e53504543 
00005b18 494649454420 
00005b1e 00 
00005b1f 01            11688 	.byte	1
00005b20 840a          11689 	.byte	132,10
00005b22 5641525f5345  11690 	.strz	"VAR_SEC_OPEN "
00005b28 435f4f50454e 
00005b2e 2000 
00005b30 04            11691 	.byte	4
00005b31 04            11692 	.byte	4
00005b32 01            11693 	.byte	1
00005b33 ce01          11694 	.byte	206,1
00005b35 44434d5f5741  11695 	.strz	"DCM_WAS_STARTED_SEC_VAR_CLEARED_UNSPECIFIED "

                                                                      Page 258
                                                              C:\Users\nhuliyap\AppData\Local\Temp\gh_000075o1.s
00005b3b 535f53544152 
00005b41 5445445f5345 
00005b47 435f5641525f 
00005b4d 434c45415245 
00005b53 445f554e5350 
00005b59 454349464945 
00005b5f 442000 
00005b62 04            11696 	.byte	4
00005b63 01            11697 	.byte	1
00005b64 df02          11698 	.byte	223,2
00005b66 44434d5f5354  11699 	.strz	"DCM_STOP_SEC_VAR_CLEARED_UNSPECIFIED "
00005b6c 4f505f534543 
00005b72 5f5641525f43 
00005b78 4c4541524544 
00005b7e 5f554e535045 
00005b84 434946494544 
00005b8a 2000 
00005b8c 03            11700 	.byte	3
00005b8d e002          11701 	.byte	224,2
00005b8f 0c            11702 	.byte	12
00005b90 01            11703 	.byte	1
00005b91 06            11704 	.byte	6
00005b92 4d454d4d4150  11705 	.strz	"MEMMAP_ERROR "
00005b98 5f4552524f52 
00005b9e 2000 
00005ba0 01            11706 	.byte	1
00005ba1 d501          11707 	.byte	213,1
00005ba3 4253575f5354  11708 	.strz	"BSW_STOP_SEC_DEFAULT_RAM0_CLEARED_UNSPECIFIED "
00005ba9 4f505f534543 
00005baf 5f4445464155 
00005bb5 4c545f52414d 
00005bbb 305f434c4541 
00005bc1 5245445f554e 
00005bc7 535045434946 
00005bcd 4945442000 
00005bd2 03            11709 	.byte	3
00005bd3 d601          11710 	.byte	214,1
00005bd5 0d            11711 	.byte	13
00005bd6 01            11712 	.byte	1
00005bd7 8d05          11713 	.byte	141,5
00005bd9 53544f505f53  11714 	.strz	"STOP_SEC_VAR "
00005bdf 45435f564152 
00005be5 2000 
00005be7 03            11715 	.byte	3
00005be8 bb09          11716 	.byte	187,9
00005bea 0e            11717 	.byte	14
00005beb 04            11718 	.byte	4
00005bec 04            11719 	.byte	4
00005bed 04            11720 	.byte	4
00005bee 01            11721 	.byte	1
00005bef e202          11722 	.byte	226,2
00005bf1 44434d5f5354  11723 	.strz	"DCM_START_SEC_VAR_CLEARED_8 "
00005bf7 4152545f5345 
00005bfd 435f5641525f 
00005c03 434c45415245 
00005c09 445f382000 
00005c0e 03            11724 	.byte	3
00005c0f e302          11725 	.byte	227,2
00005c11 0c            11726 	.byte	12
00005c12 01            11727 	.byte	1
00005c13 06            11728 	.byte	6

                                                                      Page 259
                                                              C:\Users\nhuliyap\AppData\Local\Temp\gh_000075o1.s
00005c14 4d454d4d4150  11729 	.strz	"MEMMAP_ERROR "
00005c1a 5f4552524f52 
00005c20 2000 
00005c22 01            11730 	.byte	1
00005c23 f301          11731 	.byte	243,1
00005c25 4253575f5354  11732 	.strz	"BSW_START_SEC_DEFAULT_RAM0_CLEARED_8 "
00005c2b 4152545f5345 
00005c31 435f44454641 
00005c37 554c545f5241 
00005c3d 4d305f434c45 
00005c43 415245445f38 
00005c49 2000 
00005c4b 03            11733 	.byte	3
00005c4c f401          11734 	.byte	244,1
00005c4e 0d            11735 	.byte	13
00005c4f 01            11736 	.byte	1
00005c50 9805          11737 	.byte	152,5
00005c52 53544152545f  11738 	.strz	"START_SEC_VAR_CLEARED_8 "
00005c58 5345435f5641 
00005c5e 525f434c4541 
00005c64 5245445f3820 
00005c6a 00 
00005c6b 03            11739 	.byte	3
00005c6c bb09          11740 	.byte	187,9
00005c6e 0e            11741 	.byte	14
00005c6f 01            11742 	.byte	1
00005c70 46            11743 	.byte	70
00005c71 53544152545f  11744 	.strz	"START_SEC_VAR_ZERO_INIT_8BIT "
00005c77 5345435f5641 
00005c7d 525f5a45524f 
00005c83 5f494e49545f 
00005c89 384249542000 
00005c8f 01            11745 	.byte	1
00005c90 e009          11746 	.byte	224,9
00005c92 5641525f5345  11747 	.strz	"VAR_SEC_OPEN "
00005c98 435f4f50454e 
00005c9e 2000 
00005ca0 04            11748 	.byte	4
00005ca1 04            11749 	.byte	4
00005ca2 01            11750 	.byte	1
00005ca3 f801          11751 	.byte	248,1
00005ca5 44434d5f5741  11752 	.strz	"DCM_WAS_STARTED_SEC_VAR_CLEARED_8 "
00005cab 535f53544152 
00005cb1 5445445f5345 
00005cb7 435f5641525f 
00005cbd 434c45415245 
00005cc3 445f382000 
00005cc8 04            11753 	.byte	4
00005cc9 01            11754 	.byte	1
00005cca e502          11755 	.byte	229,2
00005ccc 44434d5f5354  11756 	.strz	"DCM_STOP_SEC_VAR_CLEARED_8 "
00005cd2 4f505f534543 
00005cd8 5f5641525f43 
00005cde 4c4541524544 
00005ce4 5f382000 
00005ce8 03            11757 	.byte	3
00005ce9 e602          11758 	.byte	230,2
00005ceb 0c            11759 	.byte	12
00005cec 01            11760 	.byte	1
00005ced 06            11761 	.byte	6
00005cee 4d454d4d4150  11762 	.strz	"MEMMAP_ERROR "

                                                                      Page 260
                                                              C:\Users\nhuliyap\AppData\Local\Temp\gh_000075o1.s
00005cf4 5f4552524f52 
00005cfa 2000 
00005cfc 01            11763 	.byte	1
00005cfd ff01          11764 	.byte	255,1
00005cff 4253575f5354  11765 	.strz	"BSW_STOP_SEC_DEFAULT_RAM0_CLEARED_8 "
00005d05 4f505f534543 
00005d0b 5f4445464155 
00005d11 4c545f52414d 
00005d17 305f434c4541 
00005d1d 5245445f3820 
00005d23 00 
00005d24 03            11766 	.byte	3
00005d25 8002          11767 	.byte	128,2
00005d27 0d            11768 	.byte	13
00005d28 01            11769 	.byte	1
00005d29 9b05          11770 	.byte	155,5
00005d2b 53544f505f53  11771 	.strz	"STOP_SEC_VAR "
00005d31 45435f564152 
00005d37 2000 
00005d39 03            11772 	.byte	3
00005d3a bb09          11773 	.byte	187,9
00005d3c 0e            11774 	.byte	14
00005d3d 04            11775 	.byte	4
00005d3e 04            11776 	.byte	4
00005d3f 04            11777 	.byte	4
00005d40 01            11778 	.byte	1
00005d41 e802          11779 	.byte	232,2
00005d43 44434d5f5354  11780 	.strz	"DCM_START_SEC_CODE "
00005d49 4152545f5345 
00005d4f 435f434f4445 
00005d55 2000 
00005d57 03            11781 	.byte	3
00005d58 e902          11782 	.byte	233,2
00005d5a 0c            11783 	.byte	12
00005d5b 01            11784 	.byte	1
00005d5c 06            11785 	.byte	6
00005d5d 4d454d4d4150  11786 	.strz	"MEMMAP_ERROR "
00005d63 5f4552524f52 
00005d69 2000 
00005d6b 01            11787 	.byte	1
00005d6c 0c            11788 	.byte	12
00005d6d 4253575f5354  11789 	.strz	"BSW_START_SEC_DEFAULT_CODE "
00005d73 4152545f5345 
00005d79 435f44454641 
00005d7f 554c545f434f 
00005d85 44452000 
00005d89 03            11790 	.byte	3
00005d8a 0d            11791 	.byte	13
00005d8b 0d            11792 	.byte	13
00005d8c 01            11793 	.byte	1
00005d8d d308          11794 	.byte	211,8
00005d8f 53544152545f  11795 	.strz	"START_SEC_CODE "
00005d95 5345435f434f 
00005d9b 44452000 
00005d9f 03            11796 	.byte	3
00005da0 bb09          11797 	.byte	187,9
00005da2 0e            11798 	.byte	14
00005da3 01            11799 	.byte	1
00005da4 f307          11800 	.byte	243,7
00005da6 434f44455f53  11801 	.strz	"CODE_SEC_OPEN "
00005dac 45435f4f5045 

                                                                      Page 261
                                                              C:\Users\nhuliyap\AppData\Local\Temp\gh_000075o1.s
00005db2 4e2000 
00005db5 04            11802 	.byte	4
00005db6 04            11803 	.byte	4
00005db7 01            11804 	.byte	1
00005db8 11            11805 	.byte	17
00005db9 44434d5f5741  11806 	.strz	"DCM_WAS_STARTED_SEC_ROM_CODE "
00005dbf 535f53544152 
00005dc5 5445445f5345 
00005dcb 435f524f4d5f 
00005dd1 434f44452000 
00005dd7 04            11807 	.byte	4
00005dd8 01            11808 	.byte	1
00005dd9 a903          11809 	.byte	169,3
00005ddb 44434d5f5354  11810 	.strz	"DCM_STOP_SEC_CODE "
00005de1 4f505f534543 
00005de7 5f434f444520 
00005ded 00 
00005dee 03            11811 	.byte	3
00005def aa03          11812 	.byte	170,3
00005df1 0c            11813 	.byte	12
00005df2 01            11814 	.byte	1
00005df3 06            11815 	.byte	6
00005df4 4d454d4d4150  11816 	.strz	"MEMMAP_ERROR "
00005dfa 5f4552524f52 
00005e00 2000 
00005e02 01            11817 	.byte	1
00005e03 18            11818 	.byte	24
00005e04 4253575f5354  11819 	.strz	"BSW_STOP_SEC_DEFAULT_CODE "
00005e0a 4f505f534543 
00005e10 5f4445464155 
00005e16 4c545f434f44 
00005e1c 452000 
00005e1f 03            11820 	.byte	3
00005e20 19            11821 	.byte	25
00005e21 0d            11822 	.byte	13
00005e22 01            11823 	.byte	1
00005e23 d608          11824 	.byte	214,8
00005e25 53544f505f53  11825 	.strz	"STOP_SEC_CODE "
00005e2b 45435f434f44 
00005e31 452000 
00005e34 03            11826 	.byte	3
00005e35 bb09          11827 	.byte	187,9
00005e37 0e            11828 	.byte	14
00005e38 04            11829 	.byte	4
00005e39 04            11830 	.byte	4
00005e3a 04            11831 	.byte	4
00005e3b 04            11832 	.byte	4
00005e3c 03            11833 	.byte	3
00005e3d 0e            11834 	.byte	14
00005e3e 23            11835 	.byte	35
00005e3f 01            11836 	.byte	1
00005e40 07            11837 	.byte	7
00005e41 44434d5f5354  11838 	.strz	"DCM_START_SEC_CODE "
00005e47 4152545f5345 
00005e4d 435f434f4445 
00005e53 2000 
00005e55 03            11839 	.byte	3
00005e56 08            11840 	.byte	8
00005e57 0c            11841 	.byte	12
00005e58 01            11842 	.byte	1
00005e59 06            11843 	.byte	6

                                                                      Page 262
                                                              C:\Users\nhuliyap\AppData\Local\Temp\gh_000075o1.s
00005e5a 4d454d4d4150  11844 	.strz	"MEMMAP_ERROR "
00005e60 5f4552524f52 
00005e66 2000 
00005e68 01            11845 	.byte	1
00005e69 0c            11846 	.byte	12
00005e6a 4253575f5354  11847 	.strz	"BSW_START_SEC_DEFAULT_CODE "
00005e70 4152545f5345 
00005e76 435f44454641 
00005e7c 554c545f434f 
00005e82 44452000 
00005e86 03            11848 	.byte	3
00005e87 0d            11849 	.byte	13
00005e88 0d            11850 	.byte	13
00005e89 01            11851 	.byte	1
00005e8a d308          11852 	.byte	211,8
00005e8c 53544152545f  11853 	.strz	"START_SEC_CODE "
00005e92 5345435f434f 
00005e98 44452000 
00005e9c 03            11854 	.byte	3
00005e9d bb09          11855 	.byte	187,9
00005e9f 0e            11856 	.byte	14
00005ea0 01            11857 	.byte	1
00005ea1 f307          11858 	.byte	243,7
00005ea3 434f44455f53  11859 	.strz	"CODE_SEC_OPEN "
00005ea9 45435f4f5045 
00005eaf 4e2000 
00005eb2 04            11860 	.byte	4
00005eb3 04            11861 	.byte	4
00005eb4 01            11862 	.byte	1
00005eb5 11            11863 	.byte	17
00005eb6 44434d5f5741  11864 	.strz	"DCM_WAS_STARTED_SEC_ROM_CODE "
00005ebc 535f53544152 
00005ec2 5445445f5345 
00005ec8 435f524f4d5f 
00005ece 434f44452000 
00005ed4 04            11865 	.byte	4
00005ed5 01            11866 	.byte	1
00005ed6 26            11867 	.byte	38
00005ed7 44434d5f5354  11868 	.strz	"DCM_STOP_SEC_CODE "
00005edd 4f505f534543 
00005ee3 5f434f444520 
00005ee9 00 
00005eea 03            11869 	.byte	3
00005eeb 27            11870 	.byte	39
00005eec 0c            11871 	.byte	12
00005eed 01            11872 	.byte	1
00005eee 06            11873 	.byte	6
00005eef 4d454d4d4150  11874 	.strz	"MEMMAP_ERROR "
00005ef5 5f4552524f52 
00005efb 2000 
00005efd 01            11875 	.byte	1
00005efe 18            11876 	.byte	24
00005eff 4253575f5354  11877 	.strz	"BSW_STOP_SEC_DEFAULT_CODE "
00005f05 4f505f534543 
00005f0b 5f4445464155 
00005f11 4c545f434f44 
00005f17 452000 
00005f1a 03            11878 	.byte	3
00005f1b 19            11879 	.byte	25
00005f1c 0d            11880 	.byte	13
00005f1d 01            11881 	.byte	1

                                                                      Page 263
                                                              C:\Users\nhuliyap\AppData\Local\Temp\gh_000075o1.s
00005f1e d608          11882 	.byte	214,8
00005f20 53544f505f53  11883 	.strz	"STOP_SEC_CODE "
00005f26 45435f434f44 
00005f2c 452000 
00005f2f 03            11884 	.byte	3
00005f30 bb09          11885 	.byte	187,9
00005f32 0e            11886 	.byte	14
00005f33 04            11887 	.byte	4
00005f34 04            11888 	.byte	4
00005f35 04            11889 	.byte	4
00005f36 01            11890 	.byte	1
00005f37 5c            11891 	.byte	92
00005f38 44434d5f5649  11892 	.strz	"DCM_VIN_DATALEN 17"
00005f3e 4e5f44415441 
00005f44 4c454e203137 
00005f4a 00 
00005f4b 01            11893 	.byte	1
00005f4c 5e            11894 	.byte	94
00005f4d 44434d5f5354  11895 	.strz	"DCM_START_SEC_VAR_CLEARED_8 "
00005f53 4152545f5345 
00005f59 435f5641525f 
00005f5f 434c45415245 
00005f65 445f382000 
00005f6a 03            11896 	.byte	3
00005f6b 5f            11897 	.byte	95
00005f6c 0c            11898 	.byte	12
00005f6d 01            11899 	.byte	1
00005f6e 06            11900 	.byte	6
00005f6f 4d454d4d4150  11901 	.strz	"MEMMAP_ERROR "
00005f75 5f4552524f52 
00005f7b 2000 
00005f7d 01            11902 	.byte	1
00005f7e f301          11903 	.byte	243,1
00005f80 4253575f5354  11904 	.strz	"BSW_START_SEC_DEFAULT_RAM0_CLEARED_8 "
00005f86 4152545f5345 
00005f8c 435f44454641 
00005f92 554c545f5241 
00005f98 4d305f434c45 
00005f9e 415245445f38 
00005fa4 2000 
00005fa6 03            11905 	.byte	3
00005fa7 f401          11906 	.byte	244,1
00005fa9 0d            11907 	.byte	13
00005faa 01            11908 	.byte	1
00005fab 9805          11909 	.byte	152,5
00005fad 53544152545f  11910 	.strz	"START_SEC_VAR_CLEARED_8 "
00005fb3 5345435f5641 
00005fb9 525f434c4541 
00005fbf 5245445f3820 
00005fc5 00 
00005fc6 03            11911 	.byte	3
00005fc7 bb09          11912 	.byte	187,9
00005fc9 0e            11913 	.byte	14
00005fca 01            11914 	.byte	1
00005fcb 46            11915 	.byte	70
00005fcc 53544152545f  11916 	.strz	"START_SEC_VAR_ZERO_INIT_8BIT "
00005fd2 5345435f5641 
00005fd8 525f5a45524f 
00005fde 5f494e49545f 
00005fe4 384249542000 
00005fea 01            11917 	.byte	1

                                                                      Page 264
                                                              C:\Users\nhuliyap\AppData\Local\Temp\gh_000075o1.s
00005feb e009          11918 	.byte	224,9
00005fed 5641525f5345  11919 	.strz	"VAR_SEC_OPEN "
00005ff3 435f4f50454e 
00005ff9 2000 
00005ffb 04            11920 	.byte	4
00005ffc 04            11921 	.byte	4
00005ffd 01            11922 	.byte	1
00005ffe f801          11923 	.byte	248,1
00006000 44434d5f5741  11924 	.strz	"DCM_WAS_STARTED_SEC_VAR_CLEARED_8 "
00006006 535f53544152 
0000600c 5445445f5345 
00006012 435f5641525f 
00006018 434c45415245 
0000601e 445f382000 
00006023 04            11925 	.byte	4
00006024 01            11926 	.byte	1
00006025 61            11927 	.byte	97
00006026 44434d5f5354  11928 	.strz	"DCM_STOP_SEC_VAR_CLEARED_8 "
0000602c 4f505f534543 
00006032 5f5641525f43 
00006038 4c4541524544 
0000603e 5f382000 
00006042 03            11929 	.byte	3
00006043 62            11930 	.byte	98
00006044 0c            11931 	.byte	12
00006045 01            11932 	.byte	1
00006046 06            11933 	.byte	6
00006047 4d454d4d4150  11934 	.strz	"MEMMAP_ERROR "
0000604d 5f4552524f52 
00006053 2000 
00006055 01            11935 	.byte	1
00006056 ff01          11936 	.byte	255,1
00006058 4253575f5354  11937 	.strz	"BSW_STOP_SEC_DEFAULT_RAM0_CLEARED_8 "
0000605e 4f505f534543 
00006064 5f4445464155 
0000606a 4c545f52414d 
00006070 305f434c4541 
00006076 5245445f3820 
0000607c 00 
0000607d 03            11938 	.byte	3
0000607e 8002          11939 	.byte	128,2
00006080 0d            11940 	.byte	13
00006081 01            11941 	.byte	1
00006082 9b05          11942 	.byte	155,5
00006084 53544f505f53  11943 	.strz	"STOP_SEC_VAR "
0000608a 45435f564152 
00006090 2000 
00006092 03            11944 	.byte	3
00006093 bb09          11945 	.byte	187,9
00006095 0e            11946 	.byte	14
00006096 04            11947 	.byte	4
00006097 04            11948 	.byte	4
00006098 04            11949 	.byte	4
00006099 01            11950 	.byte	1
0000609a 64            11951 	.byte	100
0000609b 44434d5f5354  11952 	.strz	"DCM_START_SEC_VAR_CLEARED_BOOLEAN "
000060a1 4152545f5345 
000060a7 435f5641525f 
000060ad 434c45415245 
000060b3 445f424f4f4c 
000060b9 45414e2000 

                                                                      Page 265
                                                              C:\Users\nhuliyap\AppData\Local\Temp\gh_000075o1.s
000060be 03            11953 	.byte	3
000060bf 65            11954 	.byte	101
000060c0 0c            11955 	.byte	12
000060c1 01            11956 	.byte	1
000060c2 06            11957 	.byte	6
000060c3 4d454d4d4150  11958 	.strz	"MEMMAP_ERROR "
000060c9 5f4552524f52 
000060cf 2000 
000060d1 01            11959 	.byte	1
000060d2 de01          11960 	.byte	222,1
000060d4 4253575f5354  11961 	.strz	"BSW_START_SEC_DEFAULT_RAM0_CLEARED_UNSPECIFIED "
000060da 4152545f5345 
000060e0 435f44454641 
000060e6 554c545f5241 
000060ec 4d305f434c45 
000060f2 415245445f55 
000060f8 4e5350454349 
000060fe 464945442000 
00006104 03            11962 	.byte	3
00006105 df01          11963 	.byte	223,1
00006107 0d            11964 	.byte	13
00006108 01            11965 	.byte	1
00006109 8a05          11966 	.byte	138,5
0000610b 53544152545f  11967 	.strz	"START_SEC_VAR_CLEARED_UNSPECIFIED "
00006111 5345435f5641 
00006117 525f434c4541 
0000611d 5245445f554e 
00006123 535045434946 
00006129 4945442000 
0000612e 03            11968 	.byte	3
0000612f bb09          11969 	.byte	187,9
00006131 0e            11970 	.byte	14
00006132 01            11971 	.byte	1
00006133 56            11972 	.byte	86
00006134 53544152545f  11973 	.strz	"START_SEC_VAR_ZERO_INIT_UNSPECIFIED "
0000613a 5345435f5641 
00006140 525f5a45524f 
00006146 5f494e49545f 
0000614c 554e53504543 
00006152 494649454420 
00006158 00 
00006159 01            11974 	.byte	1
0000615a 840a          11975 	.byte	132,10
0000615c 5641525f5345  11976 	.strz	"VAR_SEC_OPEN "
00006162 435f4f50454e 
00006168 2000 
0000616a 04            11977 	.byte	4
0000616b 04            11978 	.byte	4
0000616c 01            11979 	.byte	1
0000616d e301          11980 	.byte	227,1
0000616f 44434d5f5741  11981 	.strz	"DCM_WAS_STARTED_SEC_VAR_CLEARED_BOOLEAN "
00006175 535f53544152 
0000617b 5445445f5345 
00006181 435f5641525f 
00006187 434c45415245 
0000618d 445f424f4f4c 
00006193 45414e2000 
00006198 04            11982 	.byte	4
00006199 01            11983 	.byte	1
0000619a 67            11984 	.byte	103
0000619b 44434d5f5354  11985 	.strz	"DCM_STOP_SEC_VAR_CLEARED_BOOLEAN "

                                                                      Page 266
                                                              C:\Users\nhuliyap\AppData\Local\Temp\gh_000075o1.s
000061a1 4f505f534543 
000061a7 5f5641525f43 
000061ad 4c4541524544 
000061b3 5f424f4f4c45 
000061b9 414e2000 
000061bd 03            11986 	.byte	3
000061be 68            11987 	.byte	104
000061bf 0c            11988 	.byte	12
000061c0 01            11989 	.byte	1
000061c1 06            11990 	.byte	6
000061c2 4d454d4d4150  11991 	.strz	"MEMMAP_ERROR "
000061c8 5f4552524f52 
000061ce 2000 
000061d0 01            11992 	.byte	1
000061d1 ea01          11993 	.byte	234,1
000061d3 4253575f5354  11994 	.strz	"BSW_STOP_SEC_DEFAULT_RAM0_CLEARED_UNSPECIFIED "
000061d9 4f505f534543 
000061df 5f4445464155 
000061e5 4c545f52414d 
000061eb 305f434c4541 
000061f1 5245445f554e 
000061f7 535045434946 
000061fd 4945442000 
00006202 03            11995 	.byte	3
00006203 eb01          11996 	.byte	235,1
00006205 0d            11997 	.byte	13
00006206 01            11998 	.byte	1
00006207 8d05          11999 	.byte	141,5
00006209 53544f505f53  12000 	.strz	"STOP_SEC_VAR "
0000620f 45435f564152 
00006215 2000 
00006217 03            12001 	.byte	3
00006218 bb09          12002 	.byte	187,9
0000621a 0e            12003 	.byte	14
0000621b 04            12004 	.byte	4
0000621c 04            12005 	.byte	4
0000621d 04            12006 	.byte	4
0000621e 01            12007 	.byte	1
0000621f ef02          12008 	.byte	239,2
00006221 44434d5f5354  12009 	.strz	"DCM_START_SEC_CODE "
00006227 4152545f5345 
0000622d 435f434f4445 
00006233 2000 
00006235 03            12010 	.byte	3
00006236 f002          12011 	.byte	240,2
00006238 0c            12012 	.byte	12
00006239 01            12013 	.byte	1
0000623a 06            12014 	.byte	6
0000623b 4d454d4d4150  12015 	.strz	"MEMMAP_ERROR "
00006241 5f4552524f52 
00006247 2000 
00006249 01            12016 	.byte	1
0000624a 0c            12017 	.byte	12
0000624b 4253575f5354  12018 	.strz	"BSW_START_SEC_DEFAULT_CODE "
00006251 4152545f5345 
00006257 435f44454641 
0000625d 554c545f434f 
00006263 44452000 
00006267 03            12019 	.byte	3
00006268 0d            12020 	.byte	13
00006269 0d            12021 	.byte	13

                                                                      Page 267
                                                              C:\Users\nhuliyap\AppData\Local\Temp\gh_000075o1.s
0000626a 01            12022 	.byte	1
0000626b d308          12023 	.byte	211,8
0000626d 53544152545f  12024 	.strz	"START_SEC_CODE "
00006273 5345435f434f 
00006279 44452000 
0000627d 03            12025 	.byte	3
0000627e bb09          12026 	.byte	187,9
00006280 0e            12027 	.byte	14
00006281 01            12028 	.byte	1
00006282 f307          12029 	.byte	243,7
00006284 434f44455f53  12030 	.strz	"CODE_SEC_OPEN "
0000628a 45435f4f5045 
00006290 4e2000 
00006293 04            12031 	.byte	4
00006294 04            12032 	.byte	4
00006295 01            12033 	.byte	1
00006296 11            12034 	.byte	17
00006297 44434d5f5741  12035 	.strz	"DCM_WAS_STARTED_SEC_ROM_CODE "
0000629d 535f53544152 
000062a3 5445445f5345 
000062a9 435f524f4d5f 
000062af 434f44452000 
000062b5 04            12036 	.byte	4
000062b6 01            12037 	.byte	1
000062b7 f202          12038 	.byte	242,2
000062b9 44434d5f5354  12039 	.strz	"DCM_STOP_SEC_CODE "
000062bf 4f505f534543 
000062c5 5f434f444520 
000062cb 00 
000062cc 03            12040 	.byte	3
000062cd f302          12041 	.byte	243,2
000062cf 0c            12042 	.byte	12
000062d0 01            12043 	.byte	1
000062d1 06            12044 	.byte	6
000062d2 4d454d4d4150  12045 	.strz	"MEMMAP_ERROR "
000062d8 5f4552524f52 
000062de 2000 
000062e0 01            12046 	.byte	1
000062e1 18            12047 	.byte	24
000062e2 4253575f5354  12048 	.strz	"BSW_STOP_SEC_DEFAULT_CODE "
000062e8 4f505f534543 
000062ee 5f4445464155 
000062f4 4c545f434f44 
000062fa 452000 
000062fd 03            12049 	.byte	3
000062fe 19            12050 	.byte	25
000062ff 0d            12051 	.byte	13
00006300 01            12052 	.byte	1
00006301 d608          12053 	.byte	214,8
00006303 53544f505f53  12054 	.strz	"STOP_SEC_CODE "
00006309 45435f434f44 
0000630f 452000 
00006312 03            12055 	.byte	3
00006313 bb09          12056 	.byte	187,9
00006315 0e            12057 	.byte	14
00006316 04            12058 	.byte	4
00006317 04            12059 	.byte	4
00006318 04            12060 	.byte	4
00006319 01            12061 	.byte	1
0000631a f602          12062 	.byte	246,2
0000631c 44434d5f5354  12063 	.strz	"DCM_START_SEC_CODE "

                                                                      Page 268
                                                              C:\Users\nhuliyap\AppData\Local\Temp\gh_000075o1.s
00006322 4152545f5345 
00006328 435f434f4445 
0000632e 2000 
00006330 03            12064 	.byte	3
00006331 f702          12065 	.byte	247,2
00006333 0c            12066 	.byte	12
00006334 01            12067 	.byte	1
00006335 06            12068 	.byte	6
00006336 4d454d4d4150  12069 	.strz	"MEMMAP_ERROR "
0000633c 5f4552524f52 
00006342 2000 
00006344 01            12070 	.byte	1
00006345 0c            12071 	.byte	12
00006346 4253575f5354  12072 	.strz	"BSW_START_SEC_DEFAULT_CODE "
0000634c 4152545f5345 
00006352 435f44454641 
00006358 554c545f434f 
0000635e 44452000 
00006362 03            12073 	.byte	3
00006363 0d            12074 	.byte	13
00006364 0d            12075 	.byte	13
00006365 01            12076 	.byte	1
00006366 d308          12077 	.byte	211,8
00006368 53544152545f  12078 	.strz	"START_SEC_CODE "
0000636e 5345435f434f 
00006374 44452000 
00006378 03            12079 	.byte	3
00006379 bb09          12080 	.byte	187,9
0000637b 0e            12081 	.byte	14
0000637c 01            12082 	.byte	1
0000637d f307          12083 	.byte	243,7
0000637f 434f44455f53  12084 	.strz	"CODE_SEC_OPEN "
00006385 45435f4f5045 
0000638b 4e2000 
0000638e 04            12085 	.byte	4
0000638f 04            12086 	.byte	4
00006390 01            12087 	.byte	1
00006391 11            12088 	.byte	17
00006392 44434d5f5741  12089 	.strz	"DCM_WAS_STARTED_SEC_ROM_CODE "
00006398 535f53544152 
0000639e 5445445f5345 
000063a4 435f524f4d5f 
000063aa 434f44452000 
000063b0 04            12090 	.byte	4
000063b1 01            12091 	.byte	1
000063b2 f902          12092 	.byte	249,2
000063b4 44434d5f5354  12093 	.strz	"DCM_STOP_SEC_CODE "
000063ba 4f505f534543 
000063c0 5f434f444520 
000063c6 00 
000063c7 03            12094 	.byte	3
000063c8 fa02          12095 	.byte	250,2
000063ca 0c            12096 	.byte	12
000063cb 01            12097 	.byte	1
000063cc 06            12098 	.byte	6
000063cd 4d454d4d4150  12099 	.strz	"MEMMAP_ERROR "
000063d3 5f4552524f52 
000063d9 2000 
000063db 01            12100 	.byte	1
000063dc 18            12101 	.byte	24
000063dd 4253575f5354  12102 	.strz	"BSW_STOP_SEC_DEFAULT_CODE "

                                                                      Page 269
                                                              C:\Users\nhuliyap\AppData\Local\Temp\gh_000075o1.s
000063e3 4f505f534543 
000063e9 5f4445464155 
000063ef 4c545f434f44 
000063f5 452000 
000063f8 03            12103 	.byte	3
000063f9 19            12104 	.byte	25
000063fa 0d            12105 	.byte	13
000063fb 01            12106 	.byte	1
000063fc d608          12107 	.byte	214,8
000063fe 53544f505f53  12108 	.strz	"STOP_SEC_CODE "
00006404 45435f434f44 
0000640a 452000 
0000640d 03            12109 	.byte	3
0000640e bb09          12110 	.byte	187,9
00006410 0e            12111 	.byte	14
00006411 04            12112 	.byte	4
00006412 04            12113 	.byte	4
00006413 04            12114 	.byte	4
00006414 01            12115 	.byte	1
00006415 9103          12116 	.byte	145,3
00006417 44434d5f5354  12117 	.strz	"DCM_START_SEC_CODE "
0000641d 4152545f5345 
00006423 435f434f4445 
00006429 2000 
0000642b 03            12118 	.byte	3
0000642c 9203          12119 	.byte	146,3
0000642e 0c            12120 	.byte	12
0000642f 01            12121 	.byte	1
00006430 06            12122 	.byte	6
00006431 4d454d4d4150  12123 	.strz	"MEMMAP_ERROR "
00006437 5f4552524f52 
0000643d 2000 
0000643f 01            12124 	.byte	1
00006440 0c            12125 	.byte	12
00006441 4253575f5354  12126 	.strz	"BSW_START_SEC_DEFAULT_CODE "
00006447 4152545f5345 
0000644d 435f44454641 
00006453 554c545f434f 
00006459 44452000 
0000645d 03            12127 	.byte	3
0000645e 0d            12128 	.byte	13
0000645f 0d            12129 	.byte	13
00006460 01            12130 	.byte	1
00006461 d308          12131 	.byte	211,8
00006463 53544152545f  12132 	.strz	"START_SEC_CODE "
00006469 5345435f434f 
0000646f 44452000 
00006473 03            12133 	.byte	3
00006474 bb09          12134 	.byte	187,9
00006476 0e            12135 	.byte	14
00006477 01            12136 	.byte	1
00006478 f307          12137 	.byte	243,7
0000647a 434f44455f53  12138 	.strz	"CODE_SEC_OPEN "
00006480 45435f4f5045 
00006486 4e2000 
00006489 04            12139 	.byte	4
0000648a 04            12140 	.byte	4
0000648b 01            12141 	.byte	1
0000648c 11            12142 	.byte	17
0000648d 44434d5f5741  12143 	.strz	"DCM_WAS_STARTED_SEC_ROM_CODE "
00006493 535f53544152 

                                                                      Page 270
                                                              C:\Users\nhuliyap\AppData\Local\Temp\gh_000075o1.s
00006499 5445445f5345 
0000649f 435f524f4d5f 
000064a5 434f44452000 
000064ab 04            12144 	.byte	4
000064ac 01            12145 	.byte	1
000064ad 9403          12146 	.byte	148,3
000064af 44434d5f5354  12147 	.strz	"DCM_STOP_SEC_CODE "
000064b5 4f505f534543 
000064bb 5f434f444520 
000064c1 00 
000064c2 03            12148 	.byte	3
000064c3 9503          12149 	.byte	149,3
000064c5 0c            12150 	.byte	12
000064c6 01            12151 	.byte	1
000064c7 06            12152 	.byte	6
000064c8 4d454d4d4150  12153 	.strz	"MEMMAP_ERROR "
000064ce 5f4552524f52 
000064d4 2000 
000064d6 01            12154 	.byte	1
000064d7 18            12155 	.byte	24
000064d8 4253575f5354  12156 	.strz	"BSW_STOP_SEC_DEFAULT_CODE "
000064de 4f505f534543 
000064e4 5f4445464155 
000064ea 4c545f434f44 
000064f0 452000 
000064f3 03            12157 	.byte	3
000064f4 19            12158 	.byte	25
000064f5 0d            12159 	.byte	13
000064f6 01            12160 	.byte	1
000064f7 d608          12161 	.byte	214,8
000064f9 53544f505f53  12162 	.strz	"STOP_SEC_CODE "
000064ff 45435f434f44 
00006505 452000 
00006508 03            12163 	.byte	3
00006509 bb09          12164 	.byte	187,9
0000650b 0e            12165 	.byte	14
0000650c 04            12166 	.byte	4
0000650d 04            12167 	.byte	4
0000650e 04            12168 	.byte	4
0000650f 01            12169 	.byte	1
00006510 9603          12170 	.byte	150,3
00006512 44434d5f5354  12171 	.strz	"DCM_START_SEC_CONST_UNSPECIFIED "
00006518 4152545f5345 
0000651e 435f434f4e53 
00006524 545f554e5350 
0000652a 454349464945 
00006530 442000 
00006533 03            12172 	.byte	3
00006534 9703          12173 	.byte	151,3
00006536 0c            12174 	.byte	12
00006537 01            12175 	.byte	1
00006538 06            12176 	.byte	6
00006539 4d454d4d4150  12177 	.strz	"MEMMAP_ERROR "
0000653f 5f4552524f52 
00006545 2000 
00006547 01            12178 	.byte	1
00006548 21            12179 	.byte	33
00006549 4253575f5354  12180 	.strz	"BSW_START_SEC_DEFAULT_CONST_UNSPECIFIED "
0000654f 4152545f5345 
00006555 435f44454641 
0000655b 554c545f434f 

                                                                      Page 271
                                                              C:\Users\nhuliyap\AppData\Local\Temp\gh_000075o1.s
00006561 4e53545f554e 
00006567 535045434946 
0000656d 4945442000 
00006572 03            12181 	.byte	3
00006573 22            12182 	.byte	34
00006574 0d            12183 	.byte	13
00006575 01            12184 	.byte	1
00006576 bc05          12185 	.byte	188,5
00006578 53544152545f  12186 	.strz	"START_SEC_CONST_UNSPECIFIED "
0000657e 5345435f434f 
00006584 4e53545f554e 
0000658a 535045434946 
00006590 4945442000 
00006595 03            12187 	.byte	3
00006596 bb09          12188 	.byte	187,9
00006598 0e            12189 	.byte	14
00006599 01            12190 	.byte	1
0000659a b408          12191 	.byte	180,8
0000659c 434f4e53545f  12192 	.strz	"CONST_SEC_OPEN "
000065a2 5345435f4f50 
000065a8 454e2000 
000065ac 04            12193 	.byte	4
000065ad 04            12194 	.byte	4
000065ae 01            12195 	.byte	1
000065af 26            12196 	.byte	38
000065b0 44434d5f5741  12197 	.strz	"DCM_WAS_STARTED_SEC_CONST_UNSPECIFIED "
000065b6 535f53544152 
000065bc 5445445f5345 
000065c2 435f434f4e53 
000065c8 545f554e5350 
000065ce 454349464945 
000065d4 442000 
000065d7 04            12198 	.byte	4
000065d8 01            12199 	.byte	1
000065d9 a203          12200 	.byte	162,3
000065db 44434d5f5354  12201 	.strz	"DCM_STOP_SEC_CONST_UNSPECIFIED "
000065e1 4f505f534543 
000065e7 5f434f4e5354 
000065ed 5f554e535045 
000065f3 434946494544 
000065f9 2000 
000065fb 03            12202 	.byte	3
000065fc a303          12203 	.byte	163,3
000065fe 0c            12204 	.byte	12
000065ff 01            12205 	.byte	1
00006600 06            12206 	.byte	6
00006601 4d454d4d4150  12207 	.strz	"MEMMAP_ERROR "
00006607 5f4552524f52 
0000660d 2000 
0000660f 01            12208 	.byte	1
00006610 2d            12209 	.byte	45
00006611 4253575f5354  12210 	.strz	"BSW_STOP_SEC_DEFAULT_CONST_UNSPECIFIED "
00006617 4f505f534543 
0000661d 5f4445464155 
00006623 4c545f434f4e 
00006629 53545f554e53 
0000662f 504543494649 
00006635 45442000 
00006639 03            12211 	.byte	3
0000663a 2e            12212 	.byte	46
0000663b 0d            12213 	.byte	13

                                                                      Page 272
                                                              C:\Users\nhuliyap\AppData\Local\Temp\gh_000075o1.s
0000663c 01            12214 	.byte	1
0000663d bf05          12215 	.byte	191,5
0000663f 53544f505f53  12216 	.strz	"STOP_SEC_CONST "
00006645 45435f434f4e 
0000664b 53542000 
0000664f 03            12217 	.byte	3
00006650 bb09          12218 	.byte	187,9
00006652 0e            12219 	.byte	14
00006653 04            12220 	.byte	4
00006654 04            12221 	.byte	4
00006655 04            12222 	.byte	4
00006656 01            12223 	.byte	1
00006657 a503          12224 	.byte	165,3
00006659 44434d5f5354  12225 	.strz	"DCM_START_SEC_CONST_UNSPECIFIED "
0000665f 4152545f5345 
00006665 435f434f4e53 
0000666b 545f554e5350 
00006671 454349464945 
00006677 442000 
0000667a 03            12226 	.byte	3
0000667b a603          12227 	.byte	166,3
0000667d 0c            12228 	.byte	12
0000667e 01            12229 	.byte	1
0000667f 06            12230 	.byte	6
00006680 4d454d4d4150  12231 	.strz	"MEMMAP_ERROR "
00006686 5f4552524f52 
0000668c 2000 
0000668e 01            12232 	.byte	1
0000668f 21            12233 	.byte	33
00006690 4253575f5354  12234 	.strz	"BSW_START_SEC_DEFAULT_CONST_UNSPECIFIED "
00006696 4152545f5345 
0000669c 435f44454641 
000066a2 554c545f434f 
000066a8 4e53545f554e 
000066ae 535045434946 
000066b4 4945442000 
000066b9 03            12235 	.byte	3
000066ba 22            12236 	.byte	34
000066bb 0d            12237 	.byte	13
000066bc 01            12238 	.byte	1
000066bd bc05          12239 	.byte	188,5
000066bf 53544152545f  12240 	.strz	"START_SEC_CONST_UNSPECIFIED "
000066c5 5345435f434f 
000066cb 4e53545f554e 
000066d1 535045434946 
000066d7 4945442000 
000066dc 03            12241 	.byte	3
000066dd bb09          12242 	.byte	187,9
000066df 0e            12243 	.byte	14
000066e0 01            12244 	.byte	1
000066e1 b408          12245 	.byte	180,8
000066e3 434f4e53545f  12246 	.strz	"CONST_SEC_OPEN "
000066e9 5345435f4f50 
000066ef 454e2000 
000066f3 04            12247 	.byte	4
000066f4 04            12248 	.byte	4
000066f5 01            12249 	.byte	1
000066f6 26            12250 	.byte	38
000066f7 44434d5f5741  12251 	.strz	"DCM_WAS_STARTED_SEC_CONST_UNSPECIFIED "
000066fd 535f53544152 
00006703 5445445f5345 

                                                                      Page 273
                                                              C:\Users\nhuliyap\AppData\Local\Temp\gh_000075o1.s
00006709 435f434f4e53 
0000670f 545f554e5350 
00006715 454349464945 
0000671b 442000 
0000671e 04            12252 	.byte	4
0000671f 01            12253 	.byte	1
00006720 aa03          12254 	.byte	170,3
00006722 44434d5f5354  12255 	.strz	"DCM_STOP_SEC_CONST_UNSPECIFIED "
00006728 4f505f534543 
0000672e 5f434f4e5354 
00006734 5f554e535045 
0000673a 434946494544 
00006740 2000 
00006742 03            12256 	.byte	3
00006743 ab03          12257 	.byte	171,3
00006745 0c            12258 	.byte	12
00006746 01            12259 	.byte	1
00006747 06            12260 	.byte	6
00006748 4d454d4d4150  12261 	.strz	"MEMMAP_ERROR "
0000674e 5f4552524f52 
00006754 2000 
00006756 01            12262 	.byte	1
00006757 2d            12263 	.byte	45
00006758 4253575f5354  12264 	.strz	"BSW_STOP_SEC_DEFAULT_CONST_UNSPECIFIED "
0000675e 4f505f534543 
00006764 5f4445464155 
0000676a 4c545f434f4e 
00006770 53545f554e53 
00006776 504543494649 
0000677c 45442000 
00006780 03            12265 	.byte	3
00006781 2e            12266 	.byte	46
00006782 0d            12267 	.byte	13
00006783 01            12268 	.byte	1
00006784 bf05          12269 	.byte	191,5
00006786 53544f505f53  12270 	.strz	"STOP_SEC_CONST "
0000678c 45435f434f4e 
00006792 53542000 
00006796 03            12271 	.byte	3
00006797 bb09          12272 	.byte	187,9
00006799 0e            12273 	.byte	14
0000679a 04            12274 	.byte	4
0000679b 04            12275 	.byte	4
0000679c 04            12276 	.byte	4
0000679d 01            12277 	.byte	1
0000679e ad03          12278 	.byte	173,3
000067a0 44434d5f5354  12279 	.strz	"DCM_START_SEC_VAR_INIT_UNSPECIFIED "
000067a6 4152545f5345 
000067ac 435f5641525f 
000067b2 494e49545f55 
000067b8 4e5350454349 
000067be 464945442000 
000067c4 03            12280 	.byte	3
000067c5 ae03          12281 	.byte	174,3
000067c7 0c            12282 	.byte	12
000067c8 01            12283 	.byte	1
000067c9 06            12284 	.byte	6
000067ca 4d454d4d4150  12285 	.strz	"MEMMAP_ERROR "
000067d0 5f4552524f52 
000067d6 2000 
000067d8 01            12286 	.byte	1

                                                                      Page 274
                                                              C:\Users\nhuliyap\AppData\Local\Temp\gh_000075o1.s
000067d9 9b03          12287 	.byte	155,3
000067db 4253575f5354  12288 	.strz	"BSW_START_SEC_DEFAULT_RAM0_INIT_UNSPECIFIED "
000067e1 4152545f5345 
000067e7 435f44454641 
000067ed 554c545f5241 
000067f3 4d305f494e49 
000067f9 545f554e5350 
000067ff 454349464945 
00006805 442000 
00006808 03            12289 	.byte	3
00006809 9c03          12290 	.byte	156,3
0000680b 0d            12291 	.byte	13
0000680c 01            12292 	.byte	1
0000680d 9105          12293 	.byte	145,5
0000680f 53544152545f  12294 	.strz	"START_SEC_VAR_INIT_UNSPECIFIED "
00006815 5345435f5641 
0000681b 525f494e4954 
00006821 5f554e535045 
00006827 434946494544 
0000682d 2000 
0000682f 03            12295 	.byte	3
00006830 bb09          12296 	.byte	187,9
00006832 0e            12297 	.byte	14
00006833 01            12298 	.byte	1
00006834 a109          12299 	.byte	161,9
00006836 5641525f5345  12300 	.strz	"VAR_SEC_OPEN "
0000683c 435f4f50454e 
00006842 2000 
00006844 04            12301 	.byte	4
00006845 04            12302 	.byte	4
00006846 01            12303 	.byte	1
00006847 a003          12304 	.byte	160,3
00006849 44434d5f5741  12305 	.strz	"DCM_WAS_STARTED_SEC_VAR_INIT_UNSPECIFIED "
0000684f 535f53544152 
00006855 5445445f5345 
0000685b 435f5641525f 
00006861 494e49545f55 
00006867 4e5350454349 
0000686d 464945442000 
00006873 04            12306 	.byte	4
00006874 01            12307 	.byte	1
00006875 b203          12308 	.byte	178,3
00006877 44434d5f5354  12309 	.strz	"DCM_STOP_SEC_VAR_INIT_UNSPECIFIED "
0000687d 4f505f534543 
00006883 5f5641525f49 
00006889 4e49545f554e 
0000688f 535045434946 
00006895 4945442000 
0000689a 03            12310 	.byte	3
0000689b b303          12311 	.byte	179,3
0000689d 0c            12312 	.byte	12
0000689e 01            12313 	.byte	1
0000689f 06            12314 	.byte	6
000068a0 4d454d4d4150  12315 	.strz	"MEMMAP_ERROR "
000068a6 5f4552524f52 
000068ac 2000 
000068ae 01            12316 	.byte	1
000068af a703          12317 	.byte	167,3
000068b1 4253575f5354  12318 	.strz	"BSW_STOP_SEC_DEFAULT_RAM0_INIT_UNSPECIFIED "
000068b7 4f505f534543 
000068bd 5f4445464155 

                                                                      Page 275
                                                              C:\Users\nhuliyap\AppData\Local\Temp\gh_000075o1.s
000068c3 4c545f52414d 
000068c9 305f494e4954 
000068cf 5f554e535045 
000068d5 434946494544 
000068db 2000 
000068dd 03            12319 	.byte	3
000068de a803          12320 	.byte	168,3
000068e0 0d            12321 	.byte	13
000068e1 01            12322 	.byte	1
000068e2 9405          12323 	.byte	148,5
000068e4 53544f505f53  12324 	.strz	"STOP_SEC_VAR "
000068ea 45435f564152 
000068f0 2000 
000068f2 03            12325 	.byte	3
000068f3 bb09          12326 	.byte	187,9
000068f5 0e            12327 	.byte	14
000068f6 04            12328 	.byte	4
000068f7 04            12329 	.byte	4
000068f8 04            12330 	.byte	4
000068f9 01            12331 	.byte	1
000068fa b503          12332 	.byte	181,3
000068fc 44434d5f5354  12333 	.strz	"DCM_START_SEC_VAR_INIT_UNSPECIFIED "
00006902 4152545f5345 
00006908 435f5641525f 
0000690e 494e49545f55 
00006914 4e5350454349 
0000691a 464945442000 
00006920 03            12334 	.byte	3
00006921 b603          12335 	.byte	182,3
00006923 0c            12336 	.byte	12
00006924 01            12337 	.byte	1
00006925 06            12338 	.byte	6
00006926 4d454d4d4150  12339 	.strz	"MEMMAP_ERROR "
0000692c 5f4552524f52 
00006932 2000 
00006934 01            12340 	.byte	1
00006935 9b03          12341 	.byte	155,3
00006937 4253575f5354  12342 	.strz	"BSW_START_SEC_DEFAULT_RAM0_INIT_UNSPECIFIED "
0000693d 4152545f5345 
00006943 435f44454641 
00006949 554c545f5241 
0000694f 4d305f494e49 
00006955 545f554e5350 
0000695b 454349464945 
00006961 442000 
00006964 03            12343 	.byte	3
00006965 9c03          12344 	.byte	156,3
00006967 0d            12345 	.byte	13
00006968 01            12346 	.byte	1
00006969 9105          12347 	.byte	145,5
0000696b 53544152545f  12348 	.strz	"START_SEC_VAR_INIT_UNSPECIFIED "
00006971 5345435f5641 
00006977 525f494e4954 
0000697d 5f554e535045 
00006983 434946494544 
00006989 2000 
0000698b 03            12349 	.byte	3
0000698c bb09          12350 	.byte	187,9
0000698e 0e            12351 	.byte	14
0000698f 01            12352 	.byte	1
00006990 a109          12353 	.byte	161,9

                                                                      Page 276
                                                              C:\Users\nhuliyap\AppData\Local\Temp\gh_000075o1.s
00006992 5641525f5345  12354 	.strz	"VAR_SEC_OPEN "
00006998 435f4f50454e 
0000699e 2000 
000069a0 04            12355 	.byte	4
000069a1 04            12356 	.byte	4
000069a2 01            12357 	.byte	1
000069a3 a003          12358 	.byte	160,3
000069a5 44434d5f5741  12359 	.strz	"DCM_WAS_STARTED_SEC_VAR_INIT_UNSPECIFIED "
000069ab 535f53544152 
000069b1 5445445f5345 
000069b7 435f5641525f 
000069bd 494e49545f55 
000069c3 4e5350454349 
000069c9 464945442000 
000069cf 04            12360 	.byte	4
000069d0 01            12361 	.byte	1
000069d1 ba03          12362 	.byte	186,3
000069d3 44434d5f5354  12363 	.strz	"DCM_STOP_SEC_VAR_INIT_UNSPECIFIED "
000069d9 4f505f534543 
000069df 5f5641525f49 
000069e5 4e49545f554e 
000069eb 535045434946 
000069f1 4945442000 
000069f6 03            12364 	.byte	3
000069f7 bb03          12365 	.byte	187,3
000069f9 0c            12366 	.byte	12
000069fa 01            12367 	.byte	1
000069fb 06            12368 	.byte	6
000069fc 4d454d4d4150  12369 	.strz	"MEMMAP_ERROR "
00006a02 5f4552524f52 
00006a08 2000 
00006a0a 01            12370 	.byte	1
00006a0b a703          12371 	.byte	167,3
00006a0d 4253575f5354  12372 	.strz	"BSW_STOP_SEC_DEFAULT_RAM0_INIT_UNSPECIFIED "
00006a13 4f505f534543 
00006a19 5f4445464155 
00006a1f 4c545f52414d 
00006a25 305f494e4954 
00006a2b 5f554e535045 
00006a31 434946494544 
00006a37 2000 
00006a39 03            12373 	.byte	3
00006a3a a803          12374 	.byte	168,3
00006a3c 0d            12375 	.byte	13
00006a3d 01            12376 	.byte	1
00006a3e 9405          12377 	.byte	148,5
00006a40 53544f505f53  12378 	.strz	"STOP_SEC_VAR "
00006a46 45435f564152 
00006a4c 2000 
00006a4e 03            12379 	.byte	3
00006a4f bb09          12380 	.byte	187,9
00006a51 0e            12381 	.byte	14
00006a52 04            12382 	.byte	4
00006a53 04            12383 	.byte	4
00006a54 04            12384 	.byte	4
00006a55 01            12385 	.byte	1
00006a56 bd03          12386 	.byte	189,3
00006a58 44434d5f5354  12387 	.strz	"DCM_START_SEC_VAR_CLEARED_16 "
00006a5e 4152545f5345 
00006a64 435f5641525f 
00006a6a 434c45415245 

                                                                      Page 277
                                                              C:\Users\nhuliyap\AppData\Local\Temp\gh_000075o1.s
00006a70 445f31362000 
00006a76 03            12388 	.byte	3
00006a77 be03          12389 	.byte	190,3
00006a79 0c            12390 	.byte	12
00006a7a 01            12391 	.byte	1
00006a7b 06            12392 	.byte	6
00006a7c 4d454d4d4150  12393 	.strz	"MEMMAP_ERROR "
00006a82 5f4552524f52 
00006a88 2000 
00006a8a 01            12394 	.byte	1
00006a8b 8802          12395 	.byte	136,2
00006a8d 4253575f5354  12396 	.strz	"BSW_START_SEC_DEFAULT_RAM0_CLEARED_16 "
00006a93 4152545f5345 
00006a99 435f44454641 
00006a9f 554c545f5241 
00006aa5 4d305f434c45 
00006aab 415245445f31 
00006ab1 362000 
00006ab4 03            12397 	.byte	3
00006ab5 8902          12398 	.byte	137,2
00006ab7 0d            12399 	.byte	13
00006ab8 01            12400 	.byte	1
00006ab9 a405          12401 	.byte	164,5
00006abb 53544152545f  12402 	.strz	"START_SEC_VAR_CLEARED_16 "
00006ac1 5345435f5641 
00006ac7 525f434c4541 
00006acd 5245445f3136 
00006ad3 2000 
00006ad5 03            12403 	.byte	3
00006ad6 bb09          12404 	.byte	187,9
00006ad8 0e            12405 	.byte	14
00006ad9 01            12406 	.byte	1
00006ada 4a            12407 	.byte	74
00006adb 53544152545f  12408 	.strz	"START_SEC_VAR_ZERO_INIT_16BIT "
00006ae1 5345435f5641 
00006ae7 525f5a45524f 
00006aed 5f494e49545f 
00006af3 313642495420 
00006af9 00 
00006afa 01            12409 	.byte	1
00006afb e909          12410 	.byte	233,9
00006afd 5641525f5345  12411 	.strz	"VAR_SEC_OPEN "
00006b03 435f4f50454e 
00006b09 2000 
00006b0b 04            12412 	.byte	4
00006b0c 04            12413 	.byte	4
00006b0d 01            12414 	.byte	1
00006b0e 8d02          12415 	.byte	141,2
00006b10 44434d5f5741  12416 	.strz	"DCM_WAS_STARTED_SEC_VAR_CLEARED_16 "
00006b16 535f53544152 
00006b1c 5445445f5345 
00006b22 435f5641525f 
00006b28 434c45415245 
00006b2e 445f31362000 
00006b34 04            12417 	.byte	4
00006b35 01            12418 	.byte	1
00006b36 c003          12419 	.byte	192,3
00006b38 44434d5f5354  12420 	.strz	"DCM_STOP_SEC_VAR_CLEARED_16 "
00006b3e 4f505f534543 
00006b44 5f5641525f43 
00006b4a 4c4541524544 

                                                                      Page 278
                                                              C:\Users\nhuliyap\AppData\Local\Temp\gh_000075o1.s
00006b50 5f31362000 
00006b55 03            12421 	.byte	3
00006b56 c103          12422 	.byte	193,3
00006b58 0c            12423 	.byte	12
00006b59 01            12424 	.byte	1
00006b5a 06            12425 	.byte	6
00006b5b 4d454d4d4150  12426 	.strz	"MEMMAP_ERROR "
00006b61 5f4552524f52 
00006b67 2000 
00006b69 01            12427 	.byte	1
00006b6a 9402          12428 	.byte	148,2
00006b6c 4253575f5354  12429 	.strz	"BSW_STOP_SEC_DEFAULT_RAM0_CLEARED_16 "
00006b72 4f505f534543 
00006b78 5f4445464155 
00006b7e 4c545f52414d 
00006b84 305f434c4541 
00006b8a 5245445f3136 
00006b90 2000 
00006b92 03            12430 	.byte	3
00006b93 9502          12431 	.byte	149,2
00006b95 0d            12432 	.byte	13
00006b96 01            12433 	.byte	1
00006b97 a705          12434 	.byte	167,5
00006b99 53544f505f53  12435 	.strz	"STOP_SEC_VAR "
00006b9f 45435f564152 
00006ba5 2000 
00006ba7 03            12436 	.byte	3
00006ba8 bb09          12437 	.byte	187,9
00006baa 0e            12438 	.byte	14
00006bab 04            12439 	.byte	4
00006bac 04            12440 	.byte	4
00006bad 04            12441 	.byte	4
00006bae 01            12442 	.byte	1
00006baf c303          12443 	.byte	195,3
00006bb1 44434d5f5354  12444 	.strz	"DCM_START_SEC_VAR_CLEARED_BOOLEAN "
00006bb7 4152545f5345 
00006bbd 435f5641525f 
00006bc3 434c45415245 
00006bc9 445f424f4f4c 
00006bcf 45414e2000 
00006bd4 03            12445 	.byte	3
00006bd5 c403          12446 	.byte	196,3
00006bd7 0c            12447 	.byte	12
00006bd8 01            12448 	.byte	1
00006bd9 06            12449 	.byte	6
00006bda 4d454d4d4150  12450 	.strz	"MEMMAP_ERROR "
00006be0 5f4552524f52 
00006be6 2000 
00006be8 01            12451 	.byte	1
00006be9 de01          12452 	.byte	222,1
00006beb 4253575f5354  12453 	.strz	"BSW_START_SEC_DEFAULT_RAM0_CLEARED_UNSPECIFIED "
00006bf1 4152545f5345 
00006bf7 435f44454641 
00006bfd 554c545f5241 
00006c03 4d305f434c45 
00006c09 415245445f55 
00006c0f 4e5350454349 
00006c15 464945442000 
00006c1b 03            12454 	.byte	3
00006c1c df01          12455 	.byte	223,1
00006c1e 0d            12456 	.byte	13

                                                                      Page 279
                                                              C:\Users\nhuliyap\AppData\Local\Temp\gh_000075o1.s
00006c1f 01            12457 	.byte	1
00006c20 8a05          12458 	.byte	138,5
00006c22 53544152545f  12459 	.strz	"START_SEC_VAR_CLEARED_UNSPECIFIED "
00006c28 5345435f5641 
00006c2e 525f434c4541 
00006c34 5245445f554e 
00006c3a 535045434946 
00006c40 4945442000 
00006c45 03            12460 	.byte	3
00006c46 bb09          12461 	.byte	187,9
00006c48 0e            12462 	.byte	14
00006c49 01            12463 	.byte	1
00006c4a 56            12464 	.byte	86
00006c4b 53544152545f  12465 	.strz	"START_SEC_VAR_ZERO_INIT_UNSPECIFIED "
00006c51 5345435f5641 
00006c57 525f5a45524f 
00006c5d 5f494e49545f 
00006c63 554e53504543 
00006c69 494649454420 
00006c6f 00 
00006c70 01            12466 	.byte	1
00006c71 840a          12467 	.byte	132,10
00006c73 5641525f5345  12468 	.strz	"VAR_SEC_OPEN "
00006c79 435f4f50454e 
00006c7f 2000 
00006c81 04            12469 	.byte	4
00006c82 04            12470 	.byte	4
00006c83 01            12471 	.byte	1
00006c84 e301          12472 	.byte	227,1
00006c86 44434d5f5741  12473 	.strz	"DCM_WAS_STARTED_SEC_VAR_CLEARED_BOOLEAN "
00006c8c 535f53544152 
00006c92 5445445f5345 
00006c98 435f5641525f 
00006c9e 434c45415245 
00006ca4 445f424f4f4c 
00006caa 45414e2000 
00006caf 04            12474 	.byte	4
00006cb0 01            12475 	.byte	1
00006cb1 c603          12476 	.byte	198,3
00006cb3 44434d5f5354  12477 	.strz	"DCM_STOP_SEC_VAR_CLEARED_BOOLEAN "
00006cb9 4f505f534543 
00006cbf 5f5641525f43 
00006cc5 4c4541524544 
00006ccb 5f424f4f4c45 
00006cd1 414e2000 
00006cd5 03            12478 	.byte	3
00006cd6 c703          12479 	.byte	199,3
00006cd8 0c            12480 	.byte	12
00006cd9 01            12481 	.byte	1
00006cda 06            12482 	.byte	6
00006cdb 4d454d4d4150  12483 	.strz	"MEMMAP_ERROR "
00006ce1 5f4552524f52 
00006ce7 2000 
00006ce9 01            12484 	.byte	1
00006cea ea01          12485 	.byte	234,1
00006cec 4253575f5354  12486 	.strz	"BSW_STOP_SEC_DEFAULT_RAM0_CLEARED_UNSPECIFIED "
00006cf2 4f505f534543 
00006cf8 5f4445464155 
00006cfe 4c545f52414d 
00006d04 305f434c4541 
00006d0a 5245445f554e 

                                                                      Page 280
                                                              C:\Users\nhuliyap\AppData\Local\Temp\gh_000075o1.s
00006d10 535045434946 
00006d16 4945442000 
00006d1b 03            12487 	.byte	3
00006d1c eb01          12488 	.byte	235,1
00006d1e 0d            12489 	.byte	13
00006d1f 01            12490 	.byte	1
00006d20 8d05          12491 	.byte	141,5
00006d22 53544f505f53  12492 	.strz	"STOP_SEC_VAR "
00006d28 45435f564152 
00006d2e 2000 
00006d30 03            12493 	.byte	3
00006d31 bb09          12494 	.byte	187,9
00006d33 0e            12495 	.byte	14
00006d34 04            12496 	.byte	4
00006d35 04            12497 	.byte	4
00006d36 04            12498 	.byte	4
00006d37 01            12499 	.byte	1
00006d38 c903          12500 	.byte	201,3
00006d3a 44434d5f5354  12501 	.strz	"DCM_START_SEC_VAR_CLEARED_8 "
00006d40 4152545f5345 
00006d46 435f5641525f 
00006d4c 434c45415245 
00006d52 445f382000 
00006d57 03            12502 	.byte	3
00006d58 ca03          12503 	.byte	202,3
00006d5a 0c            12504 	.byte	12
00006d5b 01            12505 	.byte	1
00006d5c 06            12506 	.byte	6
00006d5d 4d454d4d4150  12507 	.strz	"MEMMAP_ERROR "
00006d63 5f4552524f52 
00006d69 2000 
00006d6b 01            12508 	.byte	1
00006d6c f301          12509 	.byte	243,1
00006d6e 4253575f5354  12510 	.strz	"BSW_START_SEC_DEFAULT_RAM0_CLEARED_8 "
00006d74 4152545f5345 
00006d7a 435f44454641 
00006d80 554c545f5241 
00006d86 4d305f434c45 
00006d8c 415245445f38 
00006d92 2000 
00006d94 03            12511 	.byte	3
00006d95 f401          12512 	.byte	244,1
00006d97 0d            12513 	.byte	13
00006d98 01            12514 	.byte	1
00006d99 9805          12515 	.byte	152,5
00006d9b 53544152545f  12516 	.strz	"START_SEC_VAR_CLEARED_8 "
00006da1 5345435f5641 
00006da7 525f434c4541 
00006dad 5245445f3820 
00006db3 00 
00006db4 03            12517 	.byte	3
00006db5 bb09          12518 	.byte	187,9
00006db7 0e            12519 	.byte	14
00006db8 01            12520 	.byte	1
00006db9 46            12521 	.byte	70
00006dba 53544152545f  12522 	.strz	"START_SEC_VAR_ZERO_INIT_8BIT "
00006dc0 5345435f5641 
00006dc6 525f5a45524f 
00006dcc 5f494e49545f 
00006dd2 384249542000 
00006dd8 01            12523 	.byte	1

                                                                      Page 281
                                                              C:\Users\nhuliyap\AppData\Local\Temp\gh_000075o1.s
00006dd9 e009          12524 	.byte	224,9
00006ddb 5641525f5345  12525 	.strz	"VAR_SEC_OPEN "
00006de1 435f4f50454e 
00006de7 2000 
00006de9 04            12526 	.byte	4
00006dea 04            12527 	.byte	4
00006deb 01            12528 	.byte	1
00006dec f801          12529 	.byte	248,1
00006dee 44434d5f5741  12530 	.strz	"DCM_WAS_STARTED_SEC_VAR_CLEARED_8 "
00006df4 535f53544152 
00006dfa 5445445f5345 
00006e00 435f5641525f 
00006e06 434c45415245 
00006e0c 445f382000 
00006e11 04            12531 	.byte	4
00006e12 01            12532 	.byte	1
00006e13 cd03          12533 	.byte	205,3
00006e15 44434d5f5354  12534 	.strz	"DCM_STOP_SEC_VAR_CLEARED_8 "
00006e1b 4f505f534543 
00006e21 5f5641525f43 
00006e27 4c4541524544 
00006e2d 5f382000 
00006e31 03            12535 	.byte	3
00006e32 ce03          12536 	.byte	206,3
00006e34 0c            12537 	.byte	12
00006e35 01            12538 	.byte	1
00006e36 06            12539 	.byte	6
00006e37 4d454d4d4150  12540 	.strz	"MEMMAP_ERROR "
00006e3d 5f4552524f52 
00006e43 2000 
00006e45 01            12541 	.byte	1
00006e46 ff01          12542 	.byte	255,1
00006e48 4253575f5354  12543 	.strz	"BSW_STOP_SEC_DEFAULT_RAM0_CLEARED_8 "
00006e4e 4f505f534543 
00006e54 5f4445464155 
00006e5a 4c545f52414d 
00006e60 305f434c4541 
00006e66 5245445f3820 
00006e6c 00 
00006e6d 03            12544 	.byte	3
00006e6e 8002          12545 	.byte	128,2
00006e70 0d            12546 	.byte	13
00006e71 01            12547 	.byte	1
00006e72 9b05          12548 	.byte	155,5
00006e74 53544f505f53  12549 	.strz	"STOP_SEC_VAR "
00006e7a 45435f564152 
00006e80 2000 
00006e82 03            12550 	.byte	3
00006e83 bb09          12551 	.byte	187,9
00006e85 0e            12552 	.byte	14
00006e86 04            12553 	.byte	4
00006e87 04            12554 	.byte	4
00006e88 04            12555 	.byte	4
00006e89 01            12556 	.byte	1
00006e8a d803          12557 	.byte	216,3
00006e8c 44434d5f5354  12558 	.strz	"DCM_START_SEC_VAR_CLEARED_8 "
00006e92 4152545f5345 
00006e98 435f5641525f 
00006e9e 434c45415245 
00006ea4 445f382000 
00006ea9 03            12559 	.byte	3

                                                                      Page 282
                                                              C:\Users\nhuliyap\AppData\Local\Temp\gh_000075o1.s
00006eaa d903          12560 	.byte	217,3
00006eac 0c            12561 	.byte	12
00006ead 01            12562 	.byte	1
00006eae 06            12563 	.byte	6
00006eaf 4d454d4d4150  12564 	.strz	"MEMMAP_ERROR "
00006eb5 5f4552524f52 
00006ebb 2000 
00006ebd 01            12565 	.byte	1
00006ebe f301          12566 	.byte	243,1
00006ec0 4253575f5354  12567 	.strz	"BSW_START_SEC_DEFAULT_RAM0_CLEARED_8 "
00006ec6 4152545f5345 
00006ecc 435f44454641 
00006ed2 554c545f5241 
00006ed8 4d305f434c45 
00006ede 415245445f38 
00006ee4 2000 
00006ee6 03            12568 	.byte	3
00006ee7 f401          12569 	.byte	244,1
00006ee9 0d            12570 	.byte	13
00006eea 01            12571 	.byte	1
00006eeb 9805          12572 	.byte	152,5
00006eed 53544152545f  12573 	.strz	"START_SEC_VAR_CLEARED_8 "
00006ef3 5345435f5641 
00006ef9 525f434c4541 
00006eff 5245445f3820 
00006f05 00 
00006f06 03            12574 	.byte	3
00006f07 bb09          12575 	.byte	187,9
00006f09 0e            12576 	.byte	14
00006f0a 01            12577 	.byte	1
00006f0b 46            12578 	.byte	70
00006f0c 53544152545f  12579 	.strz	"START_SEC_VAR_ZERO_INIT_8BIT "
00006f12 5345435f5641 
00006f18 525f5a45524f 
00006f1e 5f494e49545f 
00006f24 384249542000 
00006f2a 01            12580 	.byte	1
00006f2b e009          12581 	.byte	224,9
00006f2d 5641525f5345  12582 	.strz	"VAR_SEC_OPEN "
00006f33 435f4f50454e 
00006f39 2000 
00006f3b 04            12583 	.byte	4
00006f3c 04            12584 	.byte	4
00006f3d 01            12585 	.byte	1
00006f3e f801          12586 	.byte	248,1
00006f40 44434d5f5741  12587 	.strz	"DCM_WAS_STARTED_SEC_VAR_CLEARED_8 "
00006f46 535f53544152 
00006f4c 5445445f5345 
00006f52 435f5641525f 
00006f58 434c45415245 
00006f5e 445f382000 
00006f63 04            12588 	.byte	4
00006f64 01            12589 	.byte	1
00006f65 dd03          12590 	.byte	221,3
00006f67 44434d5f5354  12591 	.strz	"DCM_STOP_SEC_VAR_CLEARED_8 "
00006f6d 4f505f534543 
00006f73 5f5641525f43 
00006f79 4c4541524544 
00006f7f 5f382000 
00006f83 03            12592 	.byte	3
00006f84 de03          12593 	.byte	222,3

                                                                      Page 283
                                                              C:\Users\nhuliyap\AppData\Local\Temp\gh_000075o1.s
00006f86 0c            12594 	.byte	12
00006f87 01            12595 	.byte	1
00006f88 06            12596 	.byte	6
00006f89 4d454d4d4150  12597 	.strz	"MEMMAP_ERROR "
00006f8f 5f4552524f52 
00006f95 2000 
00006f97 01            12598 	.byte	1
00006f98 ff01          12599 	.byte	255,1
00006f9a 4253575f5354  12600 	.strz	"BSW_STOP_SEC_DEFAULT_RAM0_CLEARED_8 "
00006fa0 4f505f534543 
00006fa6 5f4445464155 
00006fac 4c545f52414d 
00006fb2 305f434c4541 
00006fb8 5245445f3820 
00006fbe 00 
00006fbf 03            12601 	.byte	3
00006fc0 8002          12602 	.byte	128,2
00006fc2 0d            12603 	.byte	13
00006fc3 01            12604 	.byte	1
00006fc4 9b05          12605 	.byte	155,5
00006fc6 53544f505f53  12606 	.strz	"STOP_SEC_VAR "
00006fcc 45435f564152 
00006fd2 2000 
00006fd4 03            12607 	.byte	3
00006fd5 bb09          12608 	.byte	187,9
00006fd7 0e            12609 	.byte	14
00006fd8 04            12610 	.byte	4
00006fd9 04            12611 	.byte	4
00006fda 04            12612 	.byte	4
00006fdb 01            12613 	.byte	1
00006fdc e803          12614 	.byte	232,3
00006fde 44434d5f5354  12615 	.strz	"DCM_START_SEC_CODE "
00006fe4 4152545f5345 
00006fea 435f434f4445 
00006ff0 2000 
00006ff2 03            12616 	.byte	3
00006ff3 e903          12617 	.byte	233,3
00006ff5 0c            12618 	.byte	12
00006ff6 01            12619 	.byte	1
00006ff7 06            12620 	.byte	6
00006ff8 4d454d4d4150  12621 	.strz	"MEMMAP_ERROR "
00006ffe 5f4552524f52 
00007004 2000 
00007006 01            12622 	.byte	1
00007007 0c            12623 	.byte	12
00007008 4253575f5354  12624 	.strz	"BSW_START_SEC_DEFAULT_CODE "
0000700e 4152545f5345 
00007014 435f44454641 
0000701a 554c545f434f 
00007020 44452000 
00007024 03            12625 	.byte	3
00007025 0d            12626 	.byte	13
00007026 0d            12627 	.byte	13
00007027 01            12628 	.byte	1
00007028 d308          12629 	.byte	211,8
0000702a 53544152545f  12630 	.strz	"START_SEC_CODE "
00007030 5345435f434f 
00007036 44452000 
0000703a 03            12631 	.byte	3
0000703b bb09          12632 	.byte	187,9
0000703d 0e            12633 	.byte	14

                                                                      Page 284
                                                              C:\Users\nhuliyap\AppData\Local\Temp\gh_000075o1.s
0000703e 01            12634 	.byte	1
0000703f f307          12635 	.byte	243,7
00007041 434f44455f53  12636 	.strz	"CODE_SEC_OPEN "
00007047 45435f4f5045 
0000704d 4e2000 
00007050 04            12637 	.byte	4
00007051 04            12638 	.byte	4
00007052 01            12639 	.byte	1
00007053 11            12640 	.byte	17
00007054 44434d5f5741  12641 	.strz	"DCM_WAS_STARTED_SEC_ROM_CODE "
0000705a 535f53544152 
00007060 5445445f5345 
00007066 435f524f4d5f 
0000706c 434f44452000 
00007072 04            12642 	.byte	4
00007073 01            12643 	.byte	1
00007074 eb03          12644 	.byte	235,3
00007076 44434d5f5354  12645 	.strz	"DCM_STOP_SEC_CODE "
0000707c 4f505f534543 
00007082 5f434f444520 
00007088 00 
00007089 03            12646 	.byte	3
0000708a ec03          12647 	.byte	236,3
0000708c 0c            12648 	.byte	12
0000708d 01            12649 	.byte	1
0000708e 06            12650 	.byte	6
0000708f 4d454d4d4150  12651 	.strz	"MEMMAP_ERROR "
00007095 5f4552524f52 
0000709b 2000 
0000709d 01            12652 	.byte	1
0000709e 18            12653 	.byte	24
0000709f 4253575f5354  12654 	.strz	"BSW_STOP_SEC_DEFAULT_CODE "
000070a5 4f505f534543 
000070ab 5f4445464155 
000070b1 4c545f434f44 
000070b7 452000 
000070ba 03            12655 	.byte	3
000070bb 19            12656 	.byte	25
000070bc 0d            12657 	.byte	13
000070bd 01            12658 	.byte	1
000070be d608          12659 	.byte	214,8
000070c0 53544f505f53  12660 	.strz	"STOP_SEC_CODE "
000070c6 45435f434f44 
000070cc 452000 
000070cf 03            12661 	.byte	3
000070d0 bb09          12662 	.byte	187,9
000070d2 0e            12663 	.byte	14
000070d3 04            12664 	.byte	4
000070d4 04            12665 	.byte	4
000070d5 04            12666 	.byte	4
000070d6 01            12667 	.byte	1
000070d7 f003          12668 	.byte	240,3
000070d9 44434d5f5354  12669 	.strz	"DCM_START_SEC_CODE "
000070df 4152545f5345 
000070e5 435f434f4445 
000070eb 2000 
000070ed 03            12670 	.byte	3
000070ee f103          12671 	.byte	241,3
000070f0 0c            12672 	.byte	12
000070f1 01            12673 	.byte	1
000070f2 06            12674 	.byte	6

                                                                      Page 285
                                                              C:\Users\nhuliyap\AppData\Local\Temp\gh_000075o1.s
000070f3 4d454d4d4150  12675 	.strz	"MEMMAP_ERROR "
000070f9 5f4552524f52 
000070ff 2000 
00007101 01            12676 	.byte	1
00007102 0c            12677 	.byte	12
00007103 4253575f5354  12678 	.strz	"BSW_START_SEC_DEFAULT_CODE "
00007109 4152545f5345 
0000710f 435f44454641 
00007115 554c545f434f 
0000711b 44452000 
0000711f 03            12679 	.byte	3
00007120 0d            12680 	.byte	13
00007121 0d            12681 	.byte	13
00007122 01            12682 	.byte	1
00007123 d308          12683 	.byte	211,8
00007125 53544152545f  12684 	.strz	"START_SEC_CODE "
0000712b 5345435f434f 
00007131 44452000 
00007135 03            12685 	.byte	3
00007136 bb09          12686 	.byte	187,9
00007138 0e            12687 	.byte	14
00007139 01            12688 	.byte	1
0000713a f307          12689 	.byte	243,7
0000713c 434f44455f53  12690 	.strz	"CODE_SEC_OPEN "
00007142 45435f4f5045 
00007148 4e2000 
0000714b 04            12691 	.byte	4
0000714c 04            12692 	.byte	4
0000714d 01            12693 	.byte	1
0000714e 11            12694 	.byte	17
0000714f 44434d5f5741  12695 	.strz	"DCM_WAS_STARTED_SEC_ROM_CODE "
00007155 535f53544152 
0000715b 5445445f5345 
00007161 435f524f4d5f 
00007167 434f44452000 
0000716d 04            12696 	.byte	4
0000716e 01            12697 	.byte	1
0000716f f403          12698 	.byte	244,3
00007171 44434d5f5354  12699 	.strz	"DCM_STOP_SEC_CODE "
00007177 4f505f534543 
0000717d 5f434f444520 
00007183 00 
00007184 03            12700 	.byte	3
00007185 f503          12701 	.byte	245,3
00007187 0c            12702 	.byte	12
00007188 01            12703 	.byte	1
00007189 06            12704 	.byte	6
0000718a 4d454d4d4150  12705 	.strz	"MEMMAP_ERROR "
00007190 5f4552524f52 
00007196 2000 
00007198 01            12706 	.byte	1
00007199 18            12707 	.byte	24
0000719a 4253575f5354  12708 	.strz	"BSW_STOP_SEC_DEFAULT_CODE "
000071a0 4f505f534543 
000071a6 5f4445464155 
000071ac 4c545f434f44 
000071b2 452000 
000071b5 03            12709 	.byte	3
000071b6 19            12710 	.byte	25
000071b7 0d            12711 	.byte	13
000071b8 01            12712 	.byte	1

                                                                      Page 286
                                                              C:\Users\nhuliyap\AppData\Local\Temp\gh_000075o1.s
000071b9 d608          12713 	.byte	214,8
000071bb 53544f505f53  12714 	.strz	"STOP_SEC_CODE "
000071c1 45435f434f44 
000071c7 452000 
000071ca 03            12715 	.byte	3
000071cb bb09          12716 	.byte	187,9
000071cd 0e            12717 	.byte	14
000071ce 04            12718 	.byte	4
000071cf 04            12719 	.byte	4
000071d0 04            12720 	.byte	4
000071d1 04            12721 	.byte	4
000071d2 03            12722 	.byte	3
000071d3 13            12723 	.byte	19
000071d4 24            12724 	.byte	36
000071d5 01            12725 	.byte	1
000071d6 02            12726 	.byte	2
000071d7 44434d415050  12727 	.strz	"DCMAPPL_H "
000071dd 4c5f482000 
000071e2 03            12728 	.byte	3
000071e3 04            12729 	.byte	4
000071e4 25            12730 	.byte	37
000071e5 03            12731 	.byte	3
000071e6 0d            12732 	.byte	13
000071e7 26            12733 	.byte	38
000071e8 03            12734 	.byte	3
000071e9 07            12735 	.byte	7
000071ea 27            12736 	.byte	39
000071eb 03            12737 	.byte	3
000071ec 04            12738 	.byte	4
000071ed 28            12739 	.byte	40
000071ee 01            12740 	.byte	1
000071ef 02            12741 	.byte	2
000071f0 44454d5f5459  12742 	.strz	"DEM_TYPES_H "
000071f6 5045535f4820 
000071fc 00 
000071fd 03            12743 	.byte	3
000071fe 04            12744 	.byte	4
000071ff 29            12745 	.byte	41
00007200 01            12746 	.byte	1
00007201 04            12747 	.byte	4
00007202 44454d5f4346  12748 	.strz	"DEM_CFG_OBD_OFF 0"
00007208 475f4f42445f 
0000720e 4f4646203000 
00007214 01            12749 	.byte	1
00007215 05            12750 	.byte	5
00007216 44454d5f4346  12751 	.strz	"DEM_CFG_OBD_ON 1"
0000721c 475f4f42445f 
00007222 4f4e203100 
00007227 01            12752 	.byte	1
00007228 06            12753 	.byte	6
00007229 44454d5f4346  12754 	.strz	"DEM_CFG_OBD DEM_CFG_OBD_OFF"
0000722f 475f4f424420 
00007235 44454d5f4346 
0000723b 475f4f42445f 
00007241 4f464600 
00007245 01            12755 	.byte	1
00007246 07            12756 	.byte	7
00007247 44454d5f4346  12757 	.strz	"DEM_CFG_J1939DCM_OFF 0"
0000724d 475f4a313933 
00007253 3944434d5f4f 
00007259 4646203000 

                                                                      Page 287
                                                              C:\Users\nhuliyap\AppData\Local\Temp\gh_000075o1.s
0000725e 01            12758 	.byte	1
0000725f 09            12759 	.byte	9
00007260 44454d5f4346  12760 	.strz	"DEM_CFG_J1939DCM DEM_CFG_J1939DCM_OFF"
00007266 475f4a313933 
0000726c 3944434d2044 
00007272 454d5f434647 
00007278 5f4a31393339 
0000727e 44434d5f4f46 
00007284 4600 
00007286 01            12761 	.byte	1
00007287 20            12762 	.byte	32
00007288 44454d5f4346  12763 	.strz	"DEM_CFG_TRIGGER_TO_STORE_NVM_SUPPORTED FALSE"
0000728e 475f54524947 
00007294 4745525f544f 
0000729a 5f53544f5245 
000072a0 5f4e564d5f53 
000072a6 5550504f5254 
000072ac 45442046414c 
000072b2 534500 
000072b5 01            12764 	.byte	1
000072b6 21            12765 	.byte	33
000072b7 44454d5f4346  12766 	.strz	"DEM_CFG_SUSPICIOUS_SUPPORT FALSE"
000072bd 475f53555350 
000072c3 4943494f5553 
000072c9 5f535550504f 
000072cf 52542046414c 
000072d5 534500 
000072d8 01            12767 	.byte	1
000072d9 22            12768 	.byte	34
000072da 44454d5f4346  12769 	.strz	"DEM_CFG_DEBTIMEBASED_CONFIGURED_CYCLICTASKTIME TRUE"
000072e0 475f44454254 
000072e6 494d45424153 
000072ec 45445f434f4e 
000072f2 464947555245 
000072f8 445f4359434c 
000072fe 49435441534b 
00007304 54494d452054 
0000730a 52554500 
0000730e 01            12770 	.byte	1
0000730f 23            12771 	.byte	35
00007310 44454d5f4346  12772 	.strz	"DEM_CFG_EVMEMGENERIC_SUPPORTED TRUE"
00007316 475f45564d45 
0000731c 4d47454e4552 
00007322 49435f535550 
00007328 504f52544544 
0000732e 205452554500 
00007334 01            12773 	.byte	1
00007335 24            12774 	.byte	36
00007336 44454d5f4346  12775 	.strz	"DEM_CFG_VERSION_INFO_API_OFF STD_OFF"
0000733c 475f56455253 
00007342 494f4e5f494e 
00007348 464f5f415049 
0000734e 5f4f46462053 
00007354 54445f4f4646 
0000735a 00 
0000735b 01            12776 	.byte	1
0000735c 25            12777 	.byte	37
0000735d 44454d5f4346  12778 	.strz	"DEM_CFG_VERSION_INFO_API_ON STD_ON"
00007363 475f56455253 
00007369 494f4e5f494e 
0000736f 464f5f415049 

                                                                      Page 288
                                                              C:\Users\nhuliyap\AppData\Local\Temp\gh_000075o1.s
00007375 5f4f4e205354 
0000737b 445f4f4e00 
00007380 01            12779 	.byte	1
00007381 26            12780 	.byte	38
00007382 44454d5f4346  12781 	.strz	"DEM_CFG_VERSION_INFO_API DEM_CFG_VERSION_INFO_API_OFF"
00007388 475f56455253 
0000738e 494f4e5f494e 
00007394 464f5f415049 
0000739a 2044454d5f43 
000073a0 46475f564552 
000073a6 53494f4e5f49 
000073ac 4e464f5f4150 
000073b2 495f4f464600 
000073b8 01            12782 	.byte	1
000073b9 27            12783 	.byte	39
000073ba 44454d5f4346  12784 	.strz	"DEM_CFG_ALTERNATIVEDTC_OFF STD_OFF"
000073c0 475f414c5445 
000073c6 524e41544956 
000073cc 454454435f4f 
000073d2 464620535444 
000073d8 5f4f464600 
000073dd 01            12785 	.byte	1
000073de 28            12786 	.byte	40
000073df 44454d5f4346  12787 	.strz	"DEM_CFG_ALTERNATIVEDTC_ON STD_ON"
000073e5 475f414c5445 
000073eb 524e41544956 
000073f1 454454435f4f 
000073f7 4e205354445f 
000073fd 4f4e00 
00007400 01            12788 	.byte	1
00007401 29            12789 	.byte	41
00007402 44454d5f4346  12790 	.strz	"DEM_CFG_ALTERNATIVEDTC DEM_CFG_ALTERNATIVEDTC_OFF"
00007408 475f414c5445 
0000740e 524e41544956 
00007414 454454432044 
0000741a 454d5f434647 
00007420 5f414c544552 
00007426 4e4154495645 
0000742c 4454435f4f46 
00007432 4600 
00007434 01            12791 	.byte	1
00007435 2a            12792 	.byte	42
00007436 44454d5f4346  12793 	.strz	"DEM_CFG_ERASE_ALL_OFF 0u"
0000743c 475f45524153 
00007442 455f414c4c5f 
00007448 4f4646203075 
0000744e 00 
0000744f 01            12794 	.byte	1
00007450 2d            12795 	.byte	45
00007451 44454d5f4346  12796 	.strz	"DEM_CFG_ERASE_ALL_DATA_SUPPORTED DEM_CFG_ERASE_ALL_OFF"
00007457 475f45524153 
0000745d 455f414c4c5f 
00007463 444154415f53 
00007469 5550504f5254 
0000746f 45442044454d 
00007475 5f4346475f45 
0000747b 524153455f41 
00007481 4c4c5f4f4646 
00007487 00 
00007488 01            12797 	.byte	1
00007489 2e            12798 	.byte	46

                                                                      Page 289
                                                              C:\Users\nhuliyap\AppData\Local\Temp\gh_000075o1.s
0000748a 44454d5f4346  12799 	.strz	"DEM_CFG_DEPENDENCY_OFF STD_OFF"
00007490 475f44455045 
00007496 4e44454e4359 
0000749c 5f4f46462053 
000074a2 54445f4f4646 
000074a8 00 
000074a9 01            12800 	.byte	1
000074aa 2f            12801 	.byte	47
000074ab 44454d5f4346  12802 	.strz	"DEM_CFG_DEPENDENCY_ON STD_ON"
000074b1 475f44455045 
000074b7 4e44454e4359 
000074bd 5f4f4e205354 
000074c3 445f4f4e00 
000074c8 01            12803 	.byte	1
000074c9 30            12804 	.byte	48
000074ca 44454d5f4346  12805 	.strz	"DEM_CFG_DEPENDENCY DEM_CFG_DEPENDENCY_OFF"
000074d0 475f44455045 
000074d6 4e44454e4359 
000074dc 2044454d5f43 
000074e2 46475f444550 
000074e8 454e44454e43 
000074ee 595f4f464600 
000074f4 01            12806 	.byte	1
000074f5 31            12807 	.byte	49
000074f6 44454d5f4346  12808 	.strz	"DEM_CFG_TESTMODE_SUPPORT_ON STD_ON"
000074fc 475f54455354 
00007502 4d4f44455f53 
00007508 5550504f5254 
0000750e 5f4f4e205354 
00007514 445f4f4e00 
00007519 01            12809 	.byte	1
0000751a 32            12810 	.byte	50
0000751b 44454d5f4346  12811 	.strz	"DEM_CFG_TESTMODE_SUPPORT_OFF STD_OFF"
00007521 475f54455354 
00007527 4d4f44455f53 
0000752d 5550504f5254 
00007533 5f4f46462053 
00007539 54445f4f4646 
0000753f 00 
00007540 01            12812 	.byte	1
00007541 33            12813 	.byte	51
00007542 44454d5f4346  12814 	.strz	"DEM_CFG_TESTMODE_SUPPORT DEM_CFG_TESTMODE_SUPPORT_OFF"
00007548 475f54455354 
0000754e 4d4f44455f53 
00007554 5550504f5254 
0000755a 2044454d5f43 
00007560 46475f544553 
00007566 544d4f44455f 
0000756c 535550504f52 
00007572 545f4f464600 
00007578 01            12815 	.byte	1
00007579 34            12816 	.byte	52
0000757a 44454d5f4346  12817 	.strz	"DEM_CFG_CHECKAPICONSISTENCY TRUE"
00007580 475f43484543 
00007586 4b415049434f 
0000758c 4e5349535445 
00007592 4e4359205452 
00007598 554500 
0000759b 01            12818 	.byte	1
0000759c 35            12819 	.byte	53
0000759d 44454d5f4346  12820 	.strz	"DEM_CFG_DEBUGDATA_OFF 0"

                                                                      Page 290
                                                              C:\Users\nhuliyap\AppData\Local\Temp\gh_000075o1.s
000075a3 475f44454255 
000075a9 47444154415f 
000075af 4f4646203000 
000075b5 01            12821 	.byte	1
000075b6 37            12822 	.byte	55
000075b7 44454d5f4346  12823 	.strz	"DEM_CFG_DEBUGDATA_32BIT (0+4)"
000075bd 475f44454255 
000075c3 47444154415f 
000075c9 333242495420 
000075cf 28302b342900 
000075d5 01            12824 	.byte	1
000075d6 38            12825 	.byte	56
000075d7 44454d5f4346  12826 	.strz	"DEM_CFG_DEBUGDATA DEM_CFG_DEBUGDATA_32BIT"
000075dd 475f44454255 
000075e3 474441544120 
000075e9 44454d5f4346 
000075ef 475f44454255 
000075f5 47444154415f 
000075fb 333242495400 
00007601 04            12827 	.byte	4
00007602 03            12828 	.byte	3
00007603 05            12829 	.byte	5
00007604 2a            12830 	.byte	42
00007605 03            12831 	.byte	3
00007606 04            12832 	.byte	4
00007607 2b            12833 	.byte	43
00007608 03            12834 	.byte	3
00007609 06            12835 	.byte	6
0000760a 28            12836 	.byte	40
0000760b 04            12837 	.byte	4
0000760c 04            12838 	.byte	4
0000760d 04            12839 	.byte	4
0000760e 03            12840 	.byte	3
0000760f 06            12841 	.byte	6
00007610 2c            12842 	.byte	44
00007611 01            12843 	.byte	1
00007612 05            12844 	.byte	5
00007613 44454d5f4e4f  12845 	.strz	"DEM_NODEID_COUNT 6u"
00007619 444549445f43 
0000761f 4f554e542036 
00007625 7500 
00007627 01            12846 	.byte	1
00007628 06            12847 	.byte	6
00007629 44454d5f4e4f  12848 	.strz	"DEM_NODEID_ARRAYLENGTH (DEM_NODEID_COUNT+1u)"
0000762f 444549445f41 
00007635 525241594c45 
0000763b 4e4754482028 
00007641 44454d5f4e4f 
00007647 444549445f43 
0000764d 4f554e542b31 
00007653 752900 
00007656 04            12849 	.byte	4
00007657 03            12850 	.byte	3
00007658 07            12851 	.byte	7
00007659 2d            12852 	.byte	45
0000765a 04            12853 	.byte	4
0000765b 03            12854 	.byte	3
0000765c 08            12855 	.byte	8
0000765d 2e            12856 	.byte	46
0000765e 04            12857 	.byte	4
0000765f 01            12858 	.byte	1

                                                                      Page 291
                                                              C:\Users\nhuliyap\AppData\Local\Temp\gh_000075o1.s
00007660 10            12859 	.byte	16
00007661 44454d5f455f  12860 	.strz	"DEM_E_NO_DTC_AVAILABLE 2"
00007667 4e4f5f445443 
0000766d 5f415641494c 
00007673 41424c452032 
00007679 00 
0000767a 01            12861 	.byte	1
0000767b 12            12862 	.byte	18
0000767c 455f4e4f5f44  12863 	.strz	"E_NO_DTC_AVAILABLE DEM_E_NO_DTC_AVAILABLE"
00007682 54435f415641 
00007688 494c41424c45 
0000768e 2044454d5f45 
00007694 5f4e4f5f4454 
0000769a 435f41564149 
000076a0 4c41424c4500 
000076a6 01            12864 	.byte	1
000076a7 19            12865 	.byte	25
000076a8 44454d5f455f  12866 	.strz	"DEM_E_NO_FDC_AVAILABLE 3"
000076ae 4e4f5f464443 
000076b4 5f415641494c 
000076ba 41424c452033 
000076c0 00 
000076c1 01            12867 	.byte	1
000076c2 1b            12868 	.byte	27
000076c3 455f4e4f5f46  12869 	.strz	"E_NO_FDC_AVAILABLE DEM_E_NO_FDC_AVAILABLE"
000076c9 44435f415641 
000076cf 494c41424c45 
000076d5 2044454d5f45 
000076db 5f4e4f5f4644 
000076e1 435f41564149 
000076e7 4c41424c4500 
000076ed 04            12870 	.byte	4
000076ee 03            12871 	.byte	3
000076ef 07            12872 	.byte	7
000076f0 2f            12873 	.byte	47
000076f1 04            12874 	.byte	4
000076f2 03            12875 	.byte	3
000076f3 08            12876 	.byte	8
000076f4 30            12877 	.byte	48
000076f5 01            12878 	.byte	1
000076f6 08            12879 	.byte	8
000076f7 44454d5f4346  12880 	.strz	"DEM_CFG_EVCOMB_DISABLED 1u"
000076fd 475f4556434f 
00007703 4d425f444953 
00007709 41424c454420 
0000770f 317500 
00007712 01            12881 	.byte	1
00007713 0b            12882 	.byte	11
00007714 44454d5f4346  12883 	.strz	"DEM_CFG_EVCOMB DEM_CFG_EVCOMB_DISABLED"
0000771a 475f4556434f 
00007720 4d422044454d 
00007726 5f4346475f45 
0000772c 56434f4d425f 
00007732 44495341424c 
00007738 454400 
0000773b 04            12884 	.byte	4
0000773c 03            12885 	.byte	3
0000773d 0a            12886 	.byte	10
0000773e 31            12887 	.byte	49
0000773f 01            12888 	.byte	1
00007740 1b            12889 	.byte	27

                                                                      Page 292
                                                              C:\Users\nhuliyap\AppData\Local\Temp\gh_000075o1.s
00007741 44454d5f4556  12890 	.strz	"DEM_EVENT_SUPPRESSION STD_ON"
00007747 454e545f5355 
0000774d 505052455353 
00007753 494f4e205354 
00007759 445f4f4e00 
0000775e 01            12891 	.byte	1
0000775f 1c            12892 	.byte	28
00007760 44454d5f4454  12893 	.strz	"DEM_DTC_SUPPRESSION (STD_ON+STD_OFF+1)"
00007766 435f53555050 
0000776c 52455353494f 
00007772 4e2028535444 
00007778 5f4f4e2b5354 
0000777e 445f4f46462b 
00007784 312900 
00007787 01            12894 	.byte	1
00007788 1d            12895 	.byte	29
00007789 44454d5f4556  12896 	.strz	"DEM_EVENT_AND_DTC_SUPPRESSION (DEM_DTC_SUPPRESSION+1)"
0000778f 454e545f414e 
00007795 445f4454435f 
0000779b 535550505245 
000077a1 5353494f4e20 
000077a7 2844454d5f44 
000077ad 54435f535550 
000077b3 505245535349 
000077b9 4f4e2b312900 
000077bf 01            12897 	.byte	1
000077c0 1e            12898 	.byte	30
000077c1 44454d5f4346  12899 	.strz	"DEM_CFG_SUPPRESSION DEM_EVENT_SUPPRESSION"
000077c7 475f53555050 
000077cd 52455353494f 
000077d3 4e2044454d5f 
000077d9 4556454e545f 
000077df 535550505245 
000077e5 5353494f4e00 
000077eb 04            12900 	.byte	4
000077ec 03            12901 	.byte	3
000077ed 0b            12902 	.byte	11
000077ee 32            12903 	.byte	50
000077ef 04            12904 	.byte	4
000077f0 03            12905 	.byte	3
000077f1 0c            12906 	.byte	12
000077f2 33            12907 	.byte	51
000077f3 01            12908 	.byte	1
000077f4 04            12909 	.byte	4
000077f5 44454d5f4346  12910 	.strz	"DEM_CFG_ENABLECONDITION_ON STD_ON"
000077fb 475f454e4142 
00007801 4c45434f4e44 
00007807 4954494f4e5f 
0000780d 4f4e20535444 
00007813 5f4f4e00 
00007817 01            12911 	.byte	1
00007818 05            12912 	.byte	5
00007819 44454d5f4346  12913 	.strz	"DEM_CFG_ENABLECONDITION_OFF STD_OFF"
0000781f 475f454e4142 
00007825 4c45434f4e44 
0000782b 4954494f4e5f 
00007831 4f4646205354 
00007837 445f4f464600 
0000783d 01            12914 	.byte	1
0000783e 06            12915 	.byte	6
0000783f 44454d5f4346  12916 	.strz	"DEM_CFG_ENABLECONDITION DEM_CFG_ENABLECONDITION_OFF"

                                                                      Page 293
                                                              C:\Users\nhuliyap\AppData\Local\Temp\gh_000075o1.s
00007845 475f454e4142 
0000784b 4c45434f4e44 
00007851 4954494f4e20 
00007857 44454d5f4346 
0000785d 475f454e4142 
00007863 4c45434f4e44 
00007869 4954494f4e5f 
0000786f 4f464600 
00007873 01            12917 	.byte	1
00007874 07            12918 	.byte	7
00007875 44454d5f454e  12919 	.strz	"DEM_ENABLECONDITION_COUNT 0u"
0000787b 41424c45434f 
00007881 4e444954494f 
00007887 4e5f434f554e 
0000788d 5420307500 
00007892 01            12920 	.byte	1
00007893 08            12921 	.byte	8
00007894 44454d5f454e  12922 	.strz	"DEM_ENABLECONDITION_ARRAYLENGTH (DEM_ENABLECONDITION_COUNT)"
0000789a 41424c45434f 
000078a0 4e444954494f 
000078a6 4e5f41525241 
000078ac 594c454e4754 
000078b2 48202844454d 
000078b8 5f454e41424c 
000078be 45434f4e4449 
000078c4 54494f4e5f43 
000078ca 4f554e542900 
000078d0 04            12923 	.byte	4
000078d1 03            12924 	.byte	3
000078d2 0d            12925 	.byte	13
000078d3 34            12926 	.byte	52
000078d4 01            12927 	.byte	1
000078d5 04            12928 	.byte	4
000078d6 44454d5f4346  12929 	.strz	"DEM_CFG_EVTCATEGORY_OFF STD_OFF"
000078dc 475f45565443 
000078e2 415445474f52 
000078e8 595f4f464620 
000078ee 5354445f4f46 
000078f4 4600 
000078f6 01            12930 	.byte	1
000078f7 05            12931 	.byte	5
000078f8 44454d5f4346  12932 	.strz	"DEM_CFG_EVTCATEGORY_ON STD_ON"
000078fe 475f45565443 
00007904 415445474f52 
0000790a 595f4f4e2053 
00007910 54445f4f4e00 
00007916 01            12933 	.byte	1
00007917 06            12934 	.byte	6
00007918 44454d5f4346  12935 	.strz	"DEM_CFG_EVTCATEGORY DEM_CFG_EVTCATEGORY_OFF"
0000791e 475f45565443 
00007924 415445474f52 
0000792a 592044454d5f 
00007930 4346475f4556 
00007936 544341544547 
0000793c 4f52595f4f46 
00007942 4600 
00007944 04            12936 	.byte	4
00007945 03            12937 	.byte	3
00007946 0e            12938 	.byte	14
00007947 35            12939 	.byte	53
00007948 01            12940 	.byte	1

                                                                      Page 294
                                                              C:\Users\nhuliyap\AppData\Local\Temp\gh_000075o1.s
00007949 06            12941 	.byte	6
0000794a 44454d5f4346  12942 	.strz	"DEM_CFG_EVT_INDICATOR_OFF 0u"
00007950 475f4556545f 
00007956 494e44494341 
0000795c 544f525f4f46 
00007962 4620307500 
00007967 01            12943 	.byte	1
00007968 09            12944 	.byte	9
00007969 44454d5f4346  12945 	.strz	"DEM_CFG_EVT_INDICATOR DEM_CFG_EVT_INDICATOR_OFF"
0000796f 475f4556545f 
00007975 494e44494341 
0000797b 544f52204445 
00007981 4d5f4346475f 
00007987 4556545f494e 
0000798d 44494341544f 
00007993 525f4f464600 
00007999 04            12946 	.byte	4
0000799a 03            12947 	.byte	3
0000799b 0f            12948 	.byte	15
0000799c 36            12949 	.byte	54
0000799d 03            12950 	.byte	3
0000799e 06            12951 	.byte	6
0000799f 37            12952 	.byte	55
000079a0 04            12953 	.byte	4
000079a1 03            12954 	.byte	3
000079a2 07            12955 	.byte	7
000079a3 38            12956 	.byte	56
000079a4 04            12957 	.byte	4
000079a5 03            12958 	.byte	3
000079a6 08            12959 	.byte	8
000079a7 39            12960 	.byte	57
000079a8 04            12961 	.byte	4
000079a9 01            12962 	.byte	1
000079aa 10            12963 	.byte	16
000079ab 44454d5f4f50  12964 	.strz	"DEM_OPERATIONCYCLE_COUNT 3"
000079b1 45524154494f 
000079b7 4e4359434c45 
000079bd 5f434f554e54 
000079c3 203300 
000079c6 04            12965 	.byte	4
000079c7 03            12966 	.byte	3
000079c8 10            12967 	.byte	16
000079c9 3a            12968 	.byte	58
000079ca 01            12969 	.byte	1
000079cb 04            12970 	.byte	4
000079cc 44454d5f4346  12971 	.strz	"DEM_CFG_STORAGECONDITION_ON STD_ON"
000079d2 475f53544f52 
000079d8 414745434f4e 
000079de 444954494f4e 
000079e4 5f4f4e205354 
000079ea 445f4f4e00 
000079ef 01            12972 	.byte	1
000079f0 05            12973 	.byte	5
000079f1 44454d5f4346  12974 	.strz	"DEM_CFG_STORAGECONDITION_OFF STD_OFF"
000079f7 475f53544f52 
000079fd 414745434f4e 
00007a03 444954494f4e 
00007a09 5f4f46462053 
00007a0f 54445f4f4646 
00007a15 00 
00007a16 01            12975 	.byte	1

                                                                      Page 295
                                                              C:\Users\nhuliyap\AppData\Local\Temp\gh_000075o1.s
00007a17 06            12976 	.byte	6
00007a18 44454d5f4346  12977 	.strz	"DEM_CFG_STORAGECONDITION DEM_CFG_STORAGECONDITION_OFF"
00007a1e 475f53544f52 
00007a24 414745434f4e 
00007a2a 444954494f4e 
00007a30 2044454d5f43 
00007a36 46475f53544f 
00007a3c 52414745434f 
00007a42 4e444954494f 
00007a48 4e5f4f464600 
00007a4e 01            12978 	.byte	1
00007a4f 07            12979 	.byte	7
00007a50 44454d5f5354  12980 	.strz	"DEM_STORAGECONDITION_COUNT 0u"
00007a56 4f5241474543 
00007a5c 4f4e44495449 
00007a62 4f4e5f434f55 
00007a68 4e5420307500 
00007a6e 01            12981 	.byte	1
00007a6f 08            12982 	.byte	8
00007a70 44454d5f5354  12983 	.strz	"DEM_STORAGECONDITION_ARRAYLENGTH (DEM_STORAGECONDITION_COUNT)"
00007a76 4f5241474543 
00007a7c 4f4e44495449 
00007a82 4f4e5f415252 
00007a88 41594c454e47 
00007a8e 544820284445 
00007a94 4d5f53544f52 
00007a9a 414745434f4e 
00007aa0 444954494f4e 
00007aa6 5f434f554e54 
00007aac 2900 
00007aae 04            12984 	.byte	4
00007aaf 03            12985 	.byte	3
00007ab0 11            12986 	.byte	17
00007ab1 3b            12987 	.byte	59
00007ab2 01            12988 	.byte	1
00007ab3 08            12989 	.byte	8
00007ab4 44454d5f5354  12990 	.strz	"DEM_START_SEC_ROM_CODE "
00007aba 4152545f5345 
00007ac0 435f524f4d5f 
00007ac6 434f44452000 
00007acc 03            12991 	.byte	3
00007acd 09            12992 	.byte	9
00007ace 3c            12993 	.byte	60
00007acf 01            12994 	.byte	1
00007ad0 06            12995 	.byte	6
00007ad1 44454d5f4d45  12996 	.strz	"DEM_MEMMAP_ERROR "
00007ad7 4d4d41505f45 
00007add 52524f522000 
00007ae3 01            12997 	.byte	1
00007ae4 51            12998 	.byte	81
00007ae5 4253575f5354  12999 	.strz	"BSW_START_SEC_CODE "
00007aeb 4152545f5345 
00007af1 435f434f4445 
00007af7 2000 
00007af9 03            13000 	.byte	3
00007afa 52            13001 	.byte	82
00007afb 0d            13002 	.byte	13
00007afc 01            13003 	.byte	1
00007afd da08          13004 	.byte	218,8
00007aff 53544152545f  13005 	.strz	"START_SEC_CODE "
00007b05 5345435f434f 

                                                                      Page 296
                                                              C:\Users\nhuliyap\AppData\Local\Temp\gh_000075o1.s
00007b0b 44452000 
00007b0f 03            13006 	.byte	3
00007b10 bb09          13007 	.byte	187,9
00007b12 0e            13008 	.byte	14
00007b13 01            13009 	.byte	1
00007b14 f307          13010 	.byte	243,7
00007b16 434f44455f53  13011 	.strz	"CODE_SEC_OPEN "
00007b1c 45435f4f5045 
00007b22 4e2000 
00007b25 04            13012 	.byte	4
00007b26 04            13013 	.byte	4
00007b27 01            13014 	.byte	1
00007b28 56            13015 	.byte	86
00007b29 44454d5f5741  13016 	.strz	"DEM_WAS_STARTED_SEC_ROM_CODE "
00007b2f 535f53544152 
00007b35 5445445f5345 
00007b3b 435f524f4d5f 
00007b41 434f44452000 
00007b47 04            13017 	.byte	4
00007b48 01            13018 	.byte	1
00007b49 0f            13019 	.byte	15
00007b4a 44454d5f5354  13020 	.strz	"DEM_STOP_SEC_ROM_CODE "
00007b50 4f505f534543 
00007b56 5f524f4d5f43 
00007b5c 4f44452000 
00007b61 03            13021 	.byte	3
00007b62 10            13022 	.byte	16
00007b63 3c            13023 	.byte	60
00007b64 01            13024 	.byte	1
00007b65 06            13025 	.byte	6
00007b66 44454d5f4d45  13026 	.strz	"DEM_MEMMAP_ERROR "
00007b6c 4d4d41505f45 
00007b72 52524f522000 
00007b78 01            13027 	.byte	1
00007b79 5e            13028 	.byte	94
00007b7a 4253575f5354  13029 	.strz	"BSW_STOP_SEC_CODE "
00007b80 4f505f534543 
00007b86 5f434f444520 
00007b8c 00 
00007b8d 03            13030 	.byte	3
00007b8e 5f            13031 	.byte	95
00007b8f 0d            13032 	.byte	13
00007b90 01            13033 	.byte	1
00007b91 de08          13034 	.byte	222,8
00007b93 53544f505f53  13035 	.strz	"STOP_SEC_CODE "
00007b99 45435f434f44 
00007b9f 452000 
00007ba2 03            13036 	.byte	3
00007ba3 bb09          13037 	.byte	187,9
00007ba5 0e            13038 	.byte	14
00007ba6 04            13039 	.byte	4
00007ba7 04            13040 	.byte	4
00007ba8 04            13041 	.byte	4
00007ba9 04            13042 	.byte	4
00007baa 03            13043 	.byte	3
00007bab 12            13044 	.byte	18
00007bac 3d            13045 	.byte	61
00007bad 01            13046 	.byte	1
00007bae 07            13047 	.byte	7
00007baf 44454d5f5354  13048 	.strz	"DEM_START_SEC_ROM_CODE "
00007bb5 4152545f5345 

                                                                      Page 297
                                                              C:\Users\nhuliyap\AppData\Local\Temp\gh_000075o1.s
00007bbb 435f524f4d5f 
00007bc1 434f44452000 
00007bc7 03            13049 	.byte	3
00007bc8 08            13050 	.byte	8
00007bc9 3c            13051 	.byte	60
00007bca 01            13052 	.byte	1
00007bcb 06            13053 	.byte	6
00007bcc 44454d5f4d45  13054 	.strz	"DEM_MEMMAP_ERROR "
00007bd2 4d4d41505f45 
00007bd8 52524f522000 
00007bde 01            13055 	.byte	1
00007bdf 51            13056 	.byte	81
00007be0 4253575f5354  13057 	.strz	"BSW_START_SEC_CODE "
00007be6 4152545f5345 
00007bec 435f434f4445 
00007bf2 2000 
00007bf4 03            13058 	.byte	3
00007bf5 52            13059 	.byte	82
00007bf6 0d            13060 	.byte	13
00007bf7 01            13061 	.byte	1
00007bf8 da08          13062 	.byte	218,8
00007bfa 53544152545f  13063 	.strz	"START_SEC_CODE "
00007c00 5345435f434f 
00007c06 44452000 
00007c0a 03            13064 	.byte	3
00007c0b bb09          13065 	.byte	187,9
00007c0d 0e            13066 	.byte	14
00007c0e 01            13067 	.byte	1
00007c0f f307          13068 	.byte	243,7
00007c11 434f44455f53  13069 	.strz	"CODE_SEC_OPEN "
00007c17 45435f4f5045 
00007c1d 4e2000 
00007c20 04            13070 	.byte	4
00007c21 04            13071 	.byte	4
00007c22 01            13072 	.byte	1
00007c23 56            13073 	.byte	86
00007c24 44454d5f5741  13074 	.strz	"DEM_WAS_STARTED_SEC_ROM_CODE "
00007c2a 535f53544152 
00007c30 5445445f5345 
00007c36 435f524f4d5f 
00007c3c 434f44452000 
00007c42 04            13075 	.byte	4
00007c43 01            13076 	.byte	1
00007c44 53            13077 	.byte	83
00007c45 44454d5f5354  13078 	.strz	"DEM_STOP_SEC_ROM_CODE "
00007c4b 4f505f534543 
00007c51 5f524f4d5f43 
00007c57 4f44452000 
00007c5c 03            13079 	.byte	3
00007c5d 54            13080 	.byte	84
00007c5e 3c            13081 	.byte	60
00007c5f 01            13082 	.byte	1
00007c60 06            13083 	.byte	6
00007c61 44454d5f4d45  13084 	.strz	"DEM_MEMMAP_ERROR "
00007c67 4d4d41505f45 
00007c6d 52524f522000 
00007c73 01            13085 	.byte	1
00007c74 5e            13086 	.byte	94
00007c75 4253575f5354  13087 	.strz	"BSW_STOP_SEC_CODE "
00007c7b 4f505f534543 
00007c81 5f434f444520 

                                                                      Page 298
                                                              C:\Users\nhuliyap\AppData\Local\Temp\gh_000075o1.s
00007c87 00 
00007c88 03            13088 	.byte	3
00007c89 5f            13089 	.byte	95
00007c8a 0d            13090 	.byte	13
00007c8b 01            13091 	.byte	1
00007c8c de08          13092 	.byte	222,8
00007c8e 53544f505f53  13093 	.strz	"STOP_SEC_CODE "
00007c94 45435f434f44 
00007c9a 452000 
00007c9d 03            13094 	.byte	3
00007c9e bb09          13095 	.byte	187,9
00007ca0 0e            13096 	.byte	14
00007ca1 04            13097 	.byte	4
00007ca2 04            13098 	.byte	4
00007ca3 04            13099 	.byte	4
00007ca4 04            13100 	.byte	4
00007ca5 03            13101 	.byte	3
00007ca6 13            13102 	.byte	19
00007ca7 3e            13103 	.byte	62
00007ca8 04            13104 	.byte	4
00007ca9 01            13105 	.byte	1
00007caa 19            13106 	.byte	25
00007cab 44454d5f5354  13107 	.strz	"DEM_START_SEC_ROM_CODE "
00007cb1 4152545f5345 
00007cb7 435f524f4d5f 
00007cbd 434f44452000 
00007cc3 03            13108 	.byte	3
00007cc4 1a            13109 	.byte	26
00007cc5 3c            13110 	.byte	60
00007cc6 01            13111 	.byte	1
00007cc7 06            13112 	.byte	6
00007cc8 44454d5f4d45  13113 	.strz	"DEM_MEMMAP_ERROR "
00007cce 4d4d41505f45 
00007cd4 52524f522000 
00007cda 01            13114 	.byte	1
00007cdb 51            13115 	.byte	81
00007cdc 4253575f5354  13116 	.strz	"BSW_START_SEC_CODE "
00007ce2 4152545f5345 
00007ce8 435f434f4445 
00007cee 2000 
00007cf0 03            13117 	.byte	3
00007cf1 52            13118 	.byte	82
00007cf2 0d            13119 	.byte	13
00007cf3 01            13120 	.byte	1
00007cf4 da08          13121 	.byte	218,8
00007cf6 53544152545f  13122 	.strz	"START_SEC_CODE "
00007cfc 5345435f434f 
00007d02 44452000 
00007d06 03            13123 	.byte	3
00007d07 bb09          13124 	.byte	187,9
00007d09 0e            13125 	.byte	14
00007d0a 01            13126 	.byte	1
00007d0b f307          13127 	.byte	243,7
00007d0d 434f44455f53  13128 	.strz	"CODE_SEC_OPEN "
00007d13 45435f4f5045 
00007d19 4e2000 
00007d1c 04            13129 	.byte	4
00007d1d 04            13130 	.byte	4
00007d1e 01            13131 	.byte	1
00007d1f 56            13132 	.byte	86
00007d20 44454d5f5741  13133 	.strz	"DEM_WAS_STARTED_SEC_ROM_CODE "

                                                                      Page 299
                                                              C:\Users\nhuliyap\AppData\Local\Temp\gh_000075o1.s
00007d26 535f53544152 
00007d2c 5445445f5345 
00007d32 435f524f4d5f 
00007d38 434f44452000 
00007d3e 04            13134 	.byte	4
00007d3f 01            13135 	.byte	1
00007d40 c401          13136 	.byte	196,1
00007d42 44454d5f5354  13137 	.strz	"DEM_STOP_SEC_ROM_CODE "
00007d48 4f505f534543 
00007d4e 5f524f4d5f43 
00007d54 4f44452000 
00007d59 03            13138 	.byte	3
00007d5a c501          13139 	.byte	197,1
00007d5c 3c            13140 	.byte	60
00007d5d 01            13141 	.byte	1
00007d5e 06            13142 	.byte	6
00007d5f 44454d5f4d45  13143 	.strz	"DEM_MEMMAP_ERROR "
00007d65 4d4d41505f45 
00007d6b 52524f522000 
00007d71 01            13144 	.byte	1
00007d72 5e            13145 	.byte	94
00007d73 4253575f5354  13146 	.strz	"BSW_STOP_SEC_CODE "
00007d79 4f505f534543 
00007d7f 5f434f444520 
00007d85 00 
00007d86 03            13147 	.byte	3
00007d87 5f            13148 	.byte	95
00007d88 0d            13149 	.byte	13
00007d89 01            13150 	.byte	1
00007d8a de08          13151 	.byte	222,8
00007d8c 53544f505f53  13152 	.strz	"STOP_SEC_CODE "
00007d92 45435f434f44 
00007d98 452000 
00007d9b 03            13153 	.byte	3
00007d9c bb09          13154 	.byte	187,9
00007d9e 0e            13155 	.byte	14
00007d9f 04            13156 	.byte	4
00007da0 04            13157 	.byte	4
00007da1 04            13158 	.byte	4
00007da2 01            13159 	.byte	1
00007da3 c701          13160 	.byte	199,1
00007da5 44454d5f5354  13161 	.strz	"DEM_START_SEC_ROM_CONST "
00007dab 4152545f5345 
00007db1 435f524f4d5f 
00007db7 434f4e535420 
00007dbd 00 
00007dbe 03            13162 	.byte	3
00007dbf c801          13163 	.byte	200,1
00007dc1 3c            13164 	.byte	60
00007dc2 01            13165 	.byte	1
00007dc3 06            13166 	.byte	6
00007dc4 44454d5f4d45  13167 	.strz	"DEM_MEMMAP_ERROR "
00007dca 4d4d41505f45 
00007dd0 52524f522000 
00007dd6 01            13168 	.byte	1
00007dd7 3a            13169 	.byte	58
00007dd8 4253575f5354  13170 	.strz	"BSW_START_SEC_CONST_UNSPECIFIED "
00007dde 4152545f5345 
00007de4 435f434f4e53 
00007dea 545f554e5350 
00007df0 454349464945 

                                                                      Page 300
                                                              C:\Users\nhuliyap\AppData\Local\Temp\gh_000075o1.s
00007df6 442000 
00007df9 03            13171 	.byte	3
00007dfa 3b            13172 	.byte	59
00007dfb 0d            13173 	.byte	13
00007dfc 01            13174 	.byte	1
00007dfd f005          13175 	.byte	240,5
00007dff 53544152545f  13176 	.strz	"START_SEC_CONST_UNSPECIFIED "
00007e05 5345435f434f 
00007e0b 4e53545f554e 
00007e11 535045434946 
00007e17 4945442000 
00007e1c 03            13177 	.byte	3
00007e1d bb09          13178 	.byte	187,9
00007e1f 0e            13179 	.byte	14
00007e20 01            13180 	.byte	1
00007e21 b408          13181 	.byte	180,8
00007e23 434f4e53545f  13182 	.strz	"CONST_SEC_OPEN "
00007e29 5345435f4f50 
00007e2f 454e2000 
00007e33 04            13183 	.byte	4
00007e34 04            13184 	.byte	4
00007e35 01            13185 	.byte	1
00007e36 3f            13186 	.byte	63
00007e37 44454d5f5741  13187 	.strz	"DEM_WAS_STARTED_SEC_ROM_CONST "
00007e3d 535f53544152 
00007e43 5445445f5345 
00007e49 435f524f4d5f 
00007e4f 434f4e535420 
00007e55 00 
00007e56 04            13188 	.byte	4
00007e57 01            13189 	.byte	1
00007e58 ca01          13190 	.byte	202,1
00007e5a 44454d5f5354  13191 	.strz	"DEM_STOP_SEC_ROM_CONST "
00007e60 4f505f534543 
00007e66 5f524f4d5f43 
00007e6c 4f4e53542000 
00007e72 03            13192 	.byte	3
00007e73 cb01          13193 	.byte	203,1
00007e75 3c            13194 	.byte	60
00007e76 01            13195 	.byte	1
00007e77 06            13196 	.byte	6
00007e78 44454d5f4d45  13197 	.strz	"DEM_MEMMAP_ERROR "
00007e7e 4d4d41505f45 
00007e84 52524f522000 
00007e8a 01            13198 	.byte	1
00007e8b 47            13199 	.byte	71
00007e8c 4253575f5354  13200 	.strz	"BSW_STOP_SEC_CONST_UNSPECIFIED "
00007e92 4f505f534543 
00007e98 5f434f4e5354 
00007e9e 5f554e535045 
00007ea4 434946494544 
00007eaa 2000 
00007eac 03            13201 	.byte	3
00007ead 48            13202 	.byte	72
00007eae 0d            13203 	.byte	13
00007eaf 01            13204 	.byte	1
00007eb0 f405          13205 	.byte	244,5
00007eb2 53544f505f53  13206 	.strz	"STOP_SEC_CONST "
00007eb8 45435f434f4e 
00007ebe 53542000 
00007ec2 03            13207 	.byte	3

                                                                      Page 301
                                                              C:\Users\nhuliyap\AppData\Local\Temp\gh_000075o1.s
00007ec3 bb09          13208 	.byte	187,9
00007ec5 0e            13209 	.byte	14
00007ec6 04            13210 	.byte	4
00007ec7 04            13211 	.byte	4
00007ec8 04            13212 	.byte	4
00007ec9 01            13213 	.byte	1
00007eca cd01          13214 	.byte	205,1
00007ecc 44454d5f5354  13215 	.strz	"DEM_START_SEC_ROM_CODE "
00007ed2 4152545f5345 
00007ed8 435f524f4d5f 
00007ede 434f44452000 
00007ee4 03            13216 	.byte	3
00007ee5 ce01          13217 	.byte	206,1
00007ee7 3c            13218 	.byte	60
00007ee8 01            13219 	.byte	1
00007ee9 06            13220 	.byte	6
00007eea 44454d5f4d45  13221 	.strz	"DEM_MEMMAP_ERROR "
00007ef0 4d4d41505f45 
00007ef6 52524f522000 
00007efc 01            13222 	.byte	1
00007efd 51            13223 	.byte	81
00007efe 4253575f5354  13224 	.strz	"BSW_START_SEC_CODE "
00007f04 4152545f5345 
00007f0a 435f434f4445 
00007f10 2000 
00007f12 03            13225 	.byte	3
00007f13 52            13226 	.byte	82
00007f14 0d            13227 	.byte	13
00007f15 01            13228 	.byte	1
00007f16 da08          13229 	.byte	218,8
00007f18 53544152545f  13230 	.strz	"START_SEC_CODE "
00007f1e 5345435f434f 
00007f24 44452000 
00007f28 03            13231 	.byte	3
00007f29 bb09          13232 	.byte	187,9
00007f2b 0e            13233 	.byte	14
00007f2c 01            13234 	.byte	1
00007f2d f307          13235 	.byte	243,7
00007f2f 434f44455f53  13236 	.strz	"CODE_SEC_OPEN "
00007f35 45435f4f5045 
00007f3b 4e2000 
00007f3e 04            13237 	.byte	4
00007f3f 04            13238 	.byte	4
00007f40 01            13239 	.byte	1
00007f41 56            13240 	.byte	86
00007f42 44454d5f5741  13241 	.strz	"DEM_WAS_STARTED_SEC_ROM_CODE "
00007f48 535f53544152 
00007f4e 5445445f5345 
00007f54 435f524f4d5f 
00007f5a 434f44452000 
00007f60 04            13242 	.byte	4
00007f61 01            13243 	.byte	1
00007f62 d201          13244 	.byte	210,1
00007f64 44454d5f5354  13245 	.strz	"DEM_STOP_SEC_ROM_CODE "
00007f6a 4f505f534543 
00007f70 5f524f4d5f43 
00007f76 4f44452000 
00007f7b 03            13246 	.byte	3
00007f7c d301          13247 	.byte	211,1
00007f7e 3c            13248 	.byte	60
00007f7f 01            13249 	.byte	1

                                                                      Page 302
                                                              C:\Users\nhuliyap\AppData\Local\Temp\gh_000075o1.s
00007f80 06            13250 	.byte	6
00007f81 44454d5f4d45  13251 	.strz	"DEM_MEMMAP_ERROR "
00007f87 4d4d41505f45 
00007f8d 52524f522000 
00007f93 01            13252 	.byte	1
00007f94 5e            13253 	.byte	94
00007f95 4253575f5354  13254 	.strz	"BSW_STOP_SEC_CODE "
00007f9b 4f505f534543 
00007fa1 5f434f444520 
00007fa7 00 
00007fa8 03            13255 	.byte	3
00007fa9 5f            13256 	.byte	95
00007faa 0d            13257 	.byte	13
00007fab 01            13258 	.byte	1
00007fac de08          13259 	.byte	222,8
00007fae 53544f505f53  13260 	.strz	"STOP_SEC_CODE "
00007fb4 45435f434f44 
00007fba 452000 
00007fbd 03            13261 	.byte	3
00007fbe bb09          13262 	.byte	187,9
00007fc0 0e            13263 	.byte	14
00007fc1 04            13264 	.byte	4
00007fc2 04            13265 	.byte	4
00007fc3 04            13266 	.byte	4
00007fc4 04            13267 	.byte	4
00007fc5 01            13268 	.byte	1
00007fc6 08            13269 	.byte	8
00007fc7 44434d5f5354  13270 	.strz	"DCM_START_SEC_VAR_CLEARED_BOOLEAN "
00007fcd 4152545f5345 
00007fd3 435f5641525f 
00007fd9 434c45415245 
00007fdf 445f424f4f4c 
00007fe5 45414e2000 
00007fea 03            13271 	.byte	3
00007feb 09            13272 	.byte	9
00007fec 0c            13273 	.byte	12
00007fed 01            13274 	.byte	1
00007fee 06            13275 	.byte	6
00007fef 4d454d4d4150  13276 	.strz	"MEMMAP_ERROR "
00007ff5 5f4552524f52 
00007ffb 2000 
00007ffd 01            13277 	.byte	1
00007ffe de01          13278 	.byte	222,1
00008000 4253575f5354  13279 	.strz	"BSW_START_SEC_DEFAULT_RAM0_CLEARED_UNSPECIFIED "
00008006 4152545f5345 
0000800c 435f44454641 
00008012 554c545f5241 
00008018 4d305f434c45 
0000801e 415245445f55 
00008024 4e5350454349 
0000802a 464945442000 
00008030 03            13280 	.byte	3
00008031 df01          13281 	.byte	223,1
00008033 0d            13282 	.byte	13
00008034 01            13283 	.byte	1
00008035 8a05          13284 	.byte	138,5
00008037 53544152545f  13285 	.strz	"START_SEC_VAR_CLEARED_UNSPECIFIED "
0000803d 5345435f5641 
00008043 525f434c4541 
00008049 5245445f554e 
0000804f 535045434946 

                                                                      Page 303
                                                              C:\Users\nhuliyap\AppData\Local\Temp\gh_000075o1.s
00008055 4945442000 
0000805a 03            13286 	.byte	3
0000805b bb09          13287 	.byte	187,9
0000805d 0e            13288 	.byte	14
0000805e 01            13289 	.byte	1
0000805f 56            13290 	.byte	86
00008060 53544152545f  13291 	.strz	"START_SEC_VAR_ZERO_INIT_UNSPECIFIED "
00008066 5345435f5641 
0000806c 525f5a45524f 
00008072 5f494e49545f 
00008078 554e53504543 
0000807e 494649454420 
00008084 00 
00008085 01            13292 	.byte	1
00008086 840a          13293 	.byte	132,10
00008088 5641525f5345  13294 	.strz	"VAR_SEC_OPEN "
0000808e 435f4f50454e 
00008094 2000 
00008096 04            13295 	.byte	4
00008097 04            13296 	.byte	4
00008098 01            13297 	.byte	1
00008099 e301          13298 	.byte	227,1
0000809b 44434d5f5741  13299 	.strz	"DCM_WAS_STARTED_SEC_VAR_CLEARED_BOOLEAN "
000080a1 535f53544152 
000080a7 5445445f5345 
000080ad 435f5641525f 
000080b3 434c45415245 
000080b9 445f424f4f4c 
000080bf 45414e2000 
000080c4 04            13300 	.byte	4
000080c5 01            13301 	.byte	1
000080c6 0b            13302 	.byte	11
000080c7 44434d5f5354  13303 	.strz	"DCM_STOP_SEC_VAR_CLEARED_BOOLEAN "
000080cd 4f505f534543 
000080d3 5f5641525f43 
000080d9 4c4541524544 
000080df 5f424f4f4c45 
000080e5 414e2000 
000080e9 03            13304 	.byte	3
000080ea 0c            13305 	.byte	12
000080eb 0c            13306 	.byte	12
000080ec 01            13307 	.byte	1
000080ed 06            13308 	.byte	6
000080ee 4d454d4d4150  13309 	.strz	"MEMMAP_ERROR "
000080f4 5f4552524f52 
000080fa 2000 
000080fc 01            13310 	.byte	1
000080fd ea01          13311 	.byte	234,1
000080ff 4253575f5354  13312 	.strz	"BSW_STOP_SEC_DEFAULT_RAM0_CLEARED_UNSPECIFIED "
00008105 4f505f534543 
0000810b 5f4445464155 
00008111 4c545f52414d 
00008117 305f434c4541 
0000811d 5245445f554e 
00008123 535045434946 
00008129 4945442000 
0000812e 03            13313 	.byte	3
0000812f eb01          13314 	.byte	235,1
00008131 0d            13315 	.byte	13
00008132 01            13316 	.byte	1
00008133 8d05          13317 	.byte	141,5

                                                                      Page 304
                                                              C:\Users\nhuliyap\AppData\Local\Temp\gh_000075o1.s
00008135 53544f505f53  13318 	.strz	"STOP_SEC_VAR "
0000813b 45435f564152 
00008141 2000 
00008143 03            13319 	.byte	3
00008144 bb09          13320 	.byte	187,9
00008146 0e            13321 	.byte	14
00008147 04            13322 	.byte	4
00008148 04            13323 	.byte	4
00008149 04            13324 	.byte	4
0000814a 01            13325 	.byte	1
0000814b 0d            13326 	.byte	13
0000814c 44434d5f5354  13327 	.strz	"DCM_START_SEC_CODE "
00008152 4152545f5345 
00008158 435f434f4445 
0000815e 2000 
00008160 03            13328 	.byte	3
00008161 0e            13329 	.byte	14
00008162 0c            13330 	.byte	12
00008163 01            13331 	.byte	1
00008164 06            13332 	.byte	6
00008165 4d454d4d4150  13333 	.strz	"MEMMAP_ERROR "
0000816b 5f4552524f52 
00008171 2000 
00008173 01            13334 	.byte	1
00008174 0c            13335 	.byte	12
00008175 4253575f5354  13336 	.strz	"BSW_START_SEC_DEFAULT_CODE "
0000817b 4152545f5345 
00008181 435f44454641 
00008187 554c545f434f 
0000818d 44452000 
00008191 03            13337 	.byte	3
00008192 0d            13338 	.byte	13
00008193 0d            13339 	.byte	13
00008194 01            13340 	.byte	1
00008195 d308          13341 	.byte	211,8
00008197 53544152545f  13342 	.strz	"START_SEC_CODE "
0000819d 5345435f434f 
000081a3 44452000 
000081a7 03            13343 	.byte	3
000081a8 bb09          13344 	.byte	187,9
000081aa 0e            13345 	.byte	14
000081ab 01            13346 	.byte	1
000081ac f307          13347 	.byte	243,7
000081ae 434f44455f53  13348 	.strz	"CODE_SEC_OPEN "
000081b4 45435f4f5045 
000081ba 4e2000 
000081bd 04            13349 	.byte	4
000081be 04            13350 	.byte	4
000081bf 01            13351 	.byte	1
000081c0 11            13352 	.byte	17
000081c1 44434d5f5741  13353 	.strz	"DCM_WAS_STARTED_SEC_ROM_CODE "
000081c7 535f53544152 
000081cd 5445445f5345 
000081d3 435f524f4d5f 
000081d9 434f44452000 
000081df 04            13354 	.byte	4
000081e0 01            13355 	.byte	1
000081e1 13            13356 	.byte	19
000081e2 44434d5f5354  13357 	.strz	"DCM_STOP_SEC_CODE "
000081e8 4f505f534543 
000081ee 5f434f444520 

                                                                      Page 305
                                                              C:\Users\nhuliyap\AppData\Local\Temp\gh_000075o1.s
000081f4 00 
000081f5 03            13358 	.byte	3
000081f6 14            13359 	.byte	20
000081f7 0c            13360 	.byte	12
000081f8 01            13361 	.byte	1
000081f9 06            13362 	.byte	6
000081fa 4d454d4d4150  13363 	.strz	"MEMMAP_ERROR "
00008200 5f4552524f52 
00008206 2000 
00008208 01            13364 	.byte	1
00008209 18            13365 	.byte	24
0000820a 4253575f5354  13366 	.strz	"BSW_STOP_SEC_DEFAULT_CODE "
00008210 4f505f534543 
00008216 5f4445464155 
0000821c 4c545f434f44 
00008222 452000 
00008225 03            13367 	.byte	3
00008226 19            13368 	.byte	25
00008227 0d            13369 	.byte	13
00008228 01            13370 	.byte	1
00008229 d608          13371 	.byte	214,8
0000822b 53544f505f53  13372 	.strz	"STOP_SEC_CODE "
00008231 45435f434f44 
00008237 452000 
0000823a 03            13373 	.byte	3
0000823b bb09          13374 	.byte	187,9
0000823d 0e            13375 	.byte	14
0000823e 04            13376 	.byte	4
0000823f 04            13377 	.byte	4
00008240 04            13378 	.byte	4
00008241 04            13379 	.byte	4
00008242 03            13380 	.byte	3
00008243 0e            13381 	.byte	14
00008244 3f            13382 	.byte	63
00008245 04            13383 	.byte	4
00008246 03            13384 	.byte	3
00008247 10            13385 	.byte	16
00008248 24            13386 	.byte	36
00008249 04            13387 	.byte	4
0000824a 04            13388 	.byte	4
0000824b 01            13389 	.byte	1
0000824c 08            13390 	.byte	8
0000824d 44434d5f5354  13391 	.strz	"DCM_START_SEC_CODE "
00008253 4152545f5345 
00008259 435f434f4445 
0000825f 2000 
00008261 03            13392 	.byte	3
00008262 09            13393 	.byte	9
00008263 0c            13394 	.byte	12
00008264 01            13395 	.byte	1
00008265 06            13396 	.byte	6
00008266 4d454d4d4150  13397 	.strz	"MEMMAP_ERROR "
0000826c 5f4552524f52 
00008272 2000 
00008274 01            13398 	.byte	1
00008275 0c            13399 	.byte	12
00008276 4253575f5354  13400 	.strz	"BSW_START_SEC_DEFAULT_CODE "
0000827c 4152545f5345 
00008282 435f44454641 
00008288 554c545f434f 
0000828e 44452000 

                                                                      Page 306
                                                              C:\Users\nhuliyap\AppData\Local\Temp\gh_000075o1.s
00008292 03            13401 	.byte	3
00008293 0d            13402 	.byte	13
00008294 0d            13403 	.byte	13
00008295 01            13404 	.byte	1
00008296 d308          13405 	.byte	211,8
00008298 53544152545f  13406 	.strz	"START_SEC_CODE "
0000829e 5345435f434f 
000082a4 44452000 
000082a8 03            13407 	.byte	3
000082a9 bb09          13408 	.byte	187,9
000082ab 0e            13409 	.byte	14
000082ac 01            13410 	.byte	1
000082ad f307          13411 	.byte	243,7
000082af 434f44455f53  13412 	.strz	"CODE_SEC_OPEN "
000082b5 45435f4f5045 
000082bb 4e2000 
000082be 04            13413 	.byte	4
000082bf 04            13414 	.byte	4
000082c0 01            13415 	.byte	1
000082c1 11            13416 	.byte	17
000082c2 44434d5f5741  13417 	.strz	"DCM_WAS_STARTED_SEC_ROM_CODE "
000082c8 535f53544152 
000082ce 5445445f5345 
000082d4 435f524f4d5f 
000082da 434f44452000 
000082e0 04            13418 	.byte	4
000082e1 01            13419 	.byte	1
000082e2 f301          13420 	.byte	243,1
000082e4 44434d5f5354  13421 	.strz	"DCM_STOP_SEC_CODE "
000082ea 4f505f534543 
000082f0 5f434f444520 
000082f6 00 
000082f7 03            13422 	.byte	3
000082f8 f401          13423 	.byte	244,1
000082fa 0c            13424 	.byte	12
000082fb 01            13425 	.byte	1
000082fc 06            13426 	.byte	6
000082fd 4d454d4d4150  13427 	.strz	"MEMMAP_ERROR "
00008303 5f4552524f52 
00008309 2000 
0000830b 01            13428 	.byte	1
0000830c 18            13429 	.byte	24
0000830d 4253575f5354  13430 	.strz	"BSW_STOP_SEC_DEFAULT_CODE "
00008313 4f505f534543 
00008319 5f4445464155 
0000831f 4c545f434f44 
00008325 452000 
00008328 03            13431 	.byte	3
00008329 19            13432 	.byte	25
0000832a 0d            13433 	.byte	13
0000832b 01            13434 	.byte	1
0000832c d608          13435 	.byte	214,8
0000832e 53544f505f53  13436 	.strz	"STOP_SEC_CODE "
00008334 45435f434f44 
0000833a 452000 
0000833d 03            13437 	.byte	3
0000833e bb09          13438 	.byte	187,9
00008340 0e            13439 	.byte	14
00008341 04            13440 	.byte	4
00008342 04            13441 	.byte	4
00008343 04            13442 	.byte	4

                                                                      Page 307
                                                              C:\Users\nhuliyap\AppData\Local\Temp\gh_000075o1.s
00008344 04            13443 	.byte	4
00008345 03            13444 	.byte	3
00008346 16            13445 	.byte	22
00008347 40            13446 	.byte	64
00008348 01            13447 	.byte	1
00008349 10            13448 	.byte	16
0000834a 5242415f4253  13449 	.strz	"RBA_BSWSRV_START_SEC_CODE "
00008350 575352565f53 
00008356 544152545f53 
0000835c 45435f434f44 
00008362 452000 
00008365 03            13450 	.byte	3
00008366 11            13451 	.byte	17
00008367 41            13452 	.byte	65
00008368 01            13453 	.byte	1
00008369 37            13454 	.byte	55
0000836a 4253575f5354  13455 	.strz	"BSW_START_SEC_DEFAULT_CODE "
00008370 4152545f5345 
00008376 435f44454641 
0000837c 554c545f434f 
00008382 44452000 
00008386 03            13456 	.byte	3
00008387 38            13457 	.byte	56
00008388 0d            13458 	.byte	13
00008389 01            13459 	.byte	1
0000838a d308          13460 	.byte	211,8
0000838c 53544152545f  13461 	.strz	"START_SEC_CODE "
00008392 5345435f434f 
00008398 44452000 
0000839c 03            13462 	.byte	3
0000839d bb09          13463 	.byte	187,9
0000839f 0e            13464 	.byte	14
000083a0 01            13465 	.byte	1
000083a1 f307          13466 	.byte	243,7
000083a3 434f44455f53  13467 	.strz	"CODE_SEC_OPEN "
000083a9 45435f4f5045 
000083af 4e2000 
000083b2 04            13468 	.byte	4
000083b3 04            13469 	.byte	4
000083b4 04            13470 	.byte	4
000083b5 01            13471 	.byte	1
000083b6 15            13472 	.byte	21
000083b7 5242415f4253  13473 	.strz	"RBA_BSWSRV_STOP_SEC_CODE "
000083bd 575352565f53 
000083c3 544f505f5345 
000083c9 435f434f4445 
000083cf 2000 
000083d1 03            13474 	.byte	3
000083d2 16            13475 	.byte	22
000083d3 41            13476 	.byte	65
000083d4 01            13477 	.byte	1
000083d5 3b            13478 	.byte	59
000083d6 4253575f5354  13479 	.strz	"BSW_STOP_SEC_DEFAULT_CODE "
000083dc 4f505f534543 
000083e2 5f4445464155 
000083e8 4c545f434f44 
000083ee 452000 
000083f1 03            13480 	.byte	3
000083f2 3c            13481 	.byte	60
000083f3 0d            13482 	.byte	13
000083f4 01            13483 	.byte	1

                                                                      Page 308
                                                              C:\Users\nhuliyap\AppData\Local\Temp\gh_000075o1.s
000083f5 d608          13484 	.byte	214,8
000083f7 53544f505f53  13485 	.strz	"STOP_SEC_CODE "
000083fd 45435f434f44 
00008403 452000 
00008406 03            13486 	.byte	3
00008407 bb09          13487 	.byte	187,9
00008409 0e            13488 	.byte	14
0000840a 04            13489 	.byte	4
0000840b 04            13490 	.byte	4
0000840c 04            13491 	.byte	4
0000840d 04            13492 	.byte	4
0000840e 04            13493 	.byte	4
0000840f 03            13494 	.byte	3
00008410 06            13495 	.byte	6
00008411 42            13496 	.byte	66
00008412 01            13497 	.byte	1
00008413 0e            13498 	.byte	14
00008414 44434d5f5354  13499 	.strz	"DCM_START_SEC_VAR_CLEARED_8 "
0000841a 4152545f5345 
00008420 435f5641525f 
00008426 434c45415245 
0000842c 445f382000 
00008431 03            13500 	.byte	3
00008432 0f            13501 	.byte	15
00008433 0c            13502 	.byte	12
00008434 01            13503 	.byte	1
00008435 06            13504 	.byte	6
00008436 4d454d4d4150  13505 	.strz	"MEMMAP_ERROR "
0000843c 5f4552524f52 
00008442 2000 
00008444 01            13506 	.byte	1
00008445 f301          13507 	.byte	243,1
00008447 4253575f5354  13508 	.strz	"BSW_START_SEC_DEFAULT_RAM0_CLEARED_8 "
0000844d 4152545f5345 
00008453 435f44454641 
00008459 554c545f5241 
0000845f 4d305f434c45 
00008465 415245445f38 
0000846b 2000 
0000846d 03            13509 	.byte	3
0000846e f401          13510 	.byte	244,1
00008470 0d            13511 	.byte	13
00008471 01            13512 	.byte	1
00008472 9805          13513 	.byte	152,5
00008474 53544152545f  13514 	.strz	"START_SEC_VAR_CLEARED_8 "
0000847a 5345435f5641 
00008480 525f434c4541 
00008486 5245445f3820 
0000848c 00 
0000848d 03            13515 	.byte	3
0000848e bb09          13516 	.byte	187,9
00008490 0e            13517 	.byte	14
00008491 01            13518 	.byte	1
00008492 46            13519 	.byte	70
00008493 53544152545f  13520 	.strz	"START_SEC_VAR_ZERO_INIT_8BIT "
00008499 5345435f5641 
0000849f 525f5a45524f 
000084a5 5f494e49545f 
000084ab 384249542000 
000084b1 01            13521 	.byte	1
000084b2 e009          13522 	.byte	224,9

                                                                      Page 309
                                                              C:\Users\nhuliyap\AppData\Local\Temp\gh_000075o1.s
000084b4 5641525f5345  13523 	.strz	"VAR_SEC_OPEN "
000084ba 435f4f50454e 
000084c0 2000 
000084c2 04            13524 	.byte	4
000084c3 04            13525 	.byte	4
000084c4 01            13526 	.byte	1
000084c5 f801          13527 	.byte	248,1
000084c7 44434d5f5741  13528 	.strz	"DCM_WAS_STARTED_SEC_VAR_CLEARED_8 "
000084cd 535f53544152 
000084d3 5445445f5345 
000084d9 435f5641525f 
000084df 434c45415245 
000084e5 445f382000 
000084ea 04            13529 	.byte	4
000084eb 01            13530 	.byte	1
000084ec 17            13531 	.byte	23
000084ed 44434d5f5354  13532 	.strz	"DCM_STOP_SEC_VAR_CLEARED_8 "
000084f3 4f505f534543 
000084f9 5f5641525f43 
000084ff 4c4541524544 
00008505 5f382000 
00008509 03            13533 	.byte	3
0000850a 18            13534 	.byte	24
0000850b 0c            13535 	.byte	12
0000850c 01            13536 	.byte	1
0000850d 06            13537 	.byte	6
0000850e 4d454d4d4150  13538 	.strz	"MEMMAP_ERROR "
00008514 5f4552524f52 
0000851a 2000 
0000851c 01            13539 	.byte	1
0000851d ff01          13540 	.byte	255,1
0000851f 4253575f5354  13541 	.strz	"BSW_STOP_SEC_DEFAULT_RAM0_CLEARED_8 "
00008525 4f505f534543 
0000852b 5f4445464155 
00008531 4c545f52414d 
00008537 305f434c4541 
0000853d 5245445f3820 
00008543 00 
00008544 03            13542 	.byte	3
00008545 8002          13543 	.byte	128,2
00008547 0d            13544 	.byte	13
00008548 01            13545 	.byte	1
00008549 9b05          13546 	.byte	155,5
0000854b 53544f505f53  13547 	.strz	"STOP_SEC_VAR "
00008551 45435f564152 
00008557 2000 
00008559 03            13548 	.byte	3
0000855a bb09          13549 	.byte	187,9
0000855c 0e            13550 	.byte	14
0000855d 04            13551 	.byte	4
0000855e 04            13552 	.byte	4
0000855f 04            13553 	.byte	4
00008560 01            13554 	.byte	1
00008561 1a            13555 	.byte	26
00008562 44434d5f5354  13556 	.strz	"DCM_START_SEC_VAR_CLEARED_UNSPECIFIED "
00008568 4152545f5345 
0000856e 435f5641525f 
00008574 434c45415245 
0000857a 445f554e5350 
00008580 454349464945 
00008586 442000 

                                                                      Page 310
                                                              C:\Users\nhuliyap\AppData\Local\Temp\gh_000075o1.s
00008589 03            13557 	.byte	3
0000858a 1b            13558 	.byte	27
0000858b 0c            13559 	.byte	12
0000858c 01            13560 	.byte	1
0000858d 06            13561 	.byte	6
0000858e 4d454d4d4150  13562 	.strz	"MEMMAP_ERROR "
00008594 5f4552524f52 
0000859a 2000 
0000859c 01            13563 	.byte	1
0000859d c901          13564 	.byte	201,1
0000859f 4253575f5354  13565 	.strz	"BSW_START_SEC_DEFAULT_RAM0_CLEARED_UNSPECIFIED "
000085a5 4152545f5345 
000085ab 435f44454641 
000085b1 554c545f5241 
000085b7 4d305f434c45 
000085bd 415245445f55 
000085c3 4e5350454349 
000085c9 464945442000 
000085cf 03            13566 	.byte	3
000085d0 ca01          13567 	.byte	202,1
000085d2 0d            13568 	.byte	13
000085d3 01            13569 	.byte	1
000085d4 8a05          13570 	.byte	138,5
000085d6 53544152545f  13571 	.strz	"START_SEC_VAR_CLEARED_UNSPECIFIED "
000085dc 5345435f5641 
000085e2 525f434c4541 
000085e8 5245445f554e 
000085ee 535045434946 
000085f4 4945442000 
000085f9 03            13572 	.byte	3
000085fa bb09          13573 	.byte	187,9
000085fc 0e            13574 	.byte	14
000085fd 01            13575 	.byte	1
000085fe 56            13576 	.byte	86
000085ff 53544152545f  13577 	.strz	"START_SEC_VAR_ZERO_INIT_UNSPECIFIED "
00008605 5345435f5641 
0000860b 525f5a45524f 
00008611 5f494e49545f 
00008617 554e53504543 
0000861d 494649454420 
00008623 00 
00008624 01            13578 	.byte	1
00008625 840a          13579 	.byte	132,10
00008627 5641525f5345  13580 	.strz	"VAR_SEC_OPEN "
0000862d 435f4f50454e 
00008633 2000 
00008635 04            13581 	.byte	4
00008636 04            13582 	.byte	4
00008637 01            13583 	.byte	1
00008638 ce01          13584 	.byte	206,1
0000863a 44434d5f5741  13585 	.strz	"DCM_WAS_STARTED_SEC_VAR_CLEARED_UNSPECIFIED "
00008640 535f53544152 
00008646 5445445f5345 
0000864c 435f5641525f 
00008652 434c45415245 
00008658 445f554e5350 
0000865e 454349464945 
00008664 442000 
00008667 04            13586 	.byte	4
00008668 01            13587 	.byte	1
00008669 1d            13588 	.byte	29

                                                                      Page 311
                                                              C:\Users\nhuliyap\AppData\Local\Temp\gh_000075o1.s
0000866a 44434d5f5354  13589 	.strz	"DCM_STOP_SEC_VAR_CLEARED_UNSPECIFIED "
00008670 4f505f534543 
00008676 5f5641525f43 
0000867c 4c4541524544 
00008682 5f554e535045 
00008688 434946494544 
0000868e 2000 
00008690 03            13590 	.byte	3
00008691 1e            13591 	.byte	30
00008692 0c            13592 	.byte	12
00008693 01            13593 	.byte	1
00008694 06            13594 	.byte	6
00008695 4d454d4d4150  13595 	.strz	"MEMMAP_ERROR "
0000869b 5f4552524f52 
000086a1 2000 
000086a3 01            13596 	.byte	1
000086a4 d501          13597 	.byte	213,1
000086a6 4253575f5354  13598 	.strz	"BSW_STOP_SEC_DEFAULT_RAM0_CLEARED_UNSPECIFIED "
000086ac 4f505f534543 
000086b2 5f4445464155 
000086b8 4c545f52414d 
000086be 305f434c4541 
000086c4 5245445f554e 
000086ca 535045434946 
000086d0 4945442000 
000086d5 03            13599 	.byte	3
000086d6 d601          13600 	.byte	214,1
000086d8 0d            13601 	.byte	13
000086d9 01            13602 	.byte	1
000086da 8d05          13603 	.byte	141,5
000086dc 53544f505f53  13604 	.strz	"STOP_SEC_VAR "
000086e2 45435f564152 
000086e8 2000 
000086ea 03            13605 	.byte	3
000086eb bb09          13606 	.byte	187,9
000086ed 0e            13607 	.byte	14
000086ee 04            13608 	.byte	4
000086ef 04            13609 	.byte	4
000086f0 04            13610 	.byte	4
000086f1 01            13611 	.byte	1
000086f2 1f            13612 	.byte	31
000086f3 44434d5f5354  13613 	.strz	"DCM_START_SEC_VAR_CLEARED_BOOLEAN "
000086f9 4152545f5345 
000086ff 435f5641525f 
00008705 434c45415245 
0000870b 445f424f4f4c 
00008711 45414e2000 
00008716 03            13614 	.byte	3
00008717 20            13615 	.byte	32
00008718 0c            13616 	.byte	12
00008719 01            13617 	.byte	1
0000871a 06            13618 	.byte	6
0000871b 4d454d4d4150  13619 	.strz	"MEMMAP_ERROR "
00008721 5f4552524f52 
00008727 2000 
00008729 01            13620 	.byte	1
0000872a de01          13621 	.byte	222,1
0000872c 4253575f5354  13622 	.strz	"BSW_START_SEC_DEFAULT_RAM0_CLEARED_UNSPECIFIED "
00008732 4152545f5345 
00008738 435f44454641 
0000873e 554c545f5241 

                                                                      Page 312
                                                              C:\Users\nhuliyap\AppData\Local\Temp\gh_000075o1.s
00008744 4d305f434c45 
0000874a 415245445f55 
00008750 4e5350454349 
00008756 464945442000 
0000875c 03            13623 	.byte	3
0000875d df01          13624 	.byte	223,1
0000875f 0d            13625 	.byte	13
00008760 01            13626 	.byte	1
00008761 8a05          13627 	.byte	138,5
00008763 53544152545f  13628 	.strz	"START_SEC_VAR_CLEARED_UNSPECIFIED "
00008769 5345435f5641 
0000876f 525f434c4541 
00008775 5245445f554e 
0000877b 535045434946 
00008781 4945442000 
00008786 03            13629 	.byte	3
00008787 bb09          13630 	.byte	187,9
00008789 0e            13631 	.byte	14
0000878a 01            13632 	.byte	1
0000878b 56            13633 	.byte	86
0000878c 53544152545f  13634 	.strz	"START_SEC_VAR_ZERO_INIT_UNSPECIFIED "
00008792 5345435f5641 
00008798 525f5a45524f 
0000879e 5f494e49545f 
000087a4 554e53504543 
000087aa 494649454420 
000087b0 00 
000087b1 01            13635 	.byte	1
000087b2 840a          13636 	.byte	132,10
000087b4 5641525f5345  13637 	.strz	"VAR_SEC_OPEN "
000087ba 435f4f50454e 
000087c0 2000 
000087c2 04            13638 	.byte	4
000087c3 04            13639 	.byte	4
000087c4 01            13640 	.byte	1
000087c5 e301          13641 	.byte	227,1
000087c7 44434d5f5741  13642 	.strz	"DCM_WAS_STARTED_SEC_VAR_CLEARED_BOOLEAN "
000087cd 535f53544152 
000087d3 5445445f5345 
000087d9 435f5641525f 
000087df 434c45415245 
000087e5 445f424f4f4c 
000087eb 45414e2000 
000087f0 04            13643 	.byte	4
000087f1 01            13644 	.byte	1
000087f2 22            13645 	.byte	34
000087f3 44434d5f5354  13646 	.strz	"DCM_STOP_SEC_VAR_CLEARED_BOOLEAN "
000087f9 4f505f534543 
000087ff 5f5641525f43 
00008805 4c4541524544 
0000880b 5f424f4f4c45 
00008811 414e2000 
00008815 03            13647 	.byte	3
00008816 23            13648 	.byte	35
00008817 0c            13649 	.byte	12
00008818 01            13650 	.byte	1
00008819 06            13651 	.byte	6
0000881a 4d454d4d4150  13652 	.strz	"MEMMAP_ERROR "
00008820 5f4552524f52 
00008826 2000 
00008828 01            13653 	.byte	1

                                                                      Page 313
                                                              C:\Users\nhuliyap\AppData\Local\Temp\gh_000075o1.s
00008829 ea01          13654 	.byte	234,1
0000882b 4253575f5354  13655 	.strz	"BSW_STOP_SEC_DEFAULT_RAM0_CLEARED_UNSPECIFIED "
00008831 4f505f534543 
00008837 5f4445464155 
0000883d 4c545f52414d 
00008843 305f434c4541 
00008849 5245445f554e 
0000884f 535045434946 
00008855 4945442000 
0000885a 03            13656 	.byte	3
0000885b eb01          13657 	.byte	235,1
0000885d 0d            13658 	.byte	13
0000885e 01            13659 	.byte	1
0000885f 8d05          13660 	.byte	141,5
00008861 53544f505f53  13661 	.strz	"STOP_SEC_VAR "
00008867 45435f564152 
0000886d 2000 
0000886f 03            13662 	.byte	3
00008870 bb09          13663 	.byte	187,9
00008872 0e            13664 	.byte	14
00008873 04            13665 	.byte	4
00008874 04            13666 	.byte	4
00008875 04            13667 	.byte	4
00008876 01            13668 	.byte	1
00008877 24            13669 	.byte	36
00008878 44434d5f5354  13670 	.strz	"DCM_START_SEC_CODE "
0000887e 4152545f5345 
00008884 435f434f4445 
0000888a 2000 
0000888c 03            13671 	.byte	3
0000888d 25            13672 	.byte	37
0000888e 0c            13673 	.byte	12
0000888f 01            13674 	.byte	1
00008890 06            13675 	.byte	6
00008891 4d454d4d4150  13676 	.strz	"MEMMAP_ERROR "
00008897 5f4552524f52 
0000889d 2000 
0000889f 01            13677 	.byte	1
000088a0 0c            13678 	.byte	12
000088a1 4253575f5354  13679 	.strz	"BSW_START_SEC_DEFAULT_CODE "
000088a7 4152545f5345 
000088ad 435f44454641 
000088b3 554c545f434f 
000088b9 44452000 
000088bd 03            13680 	.byte	3
000088be 0d            13681 	.byte	13
000088bf 0d            13682 	.byte	13
000088c0 01            13683 	.byte	1
000088c1 d308          13684 	.byte	211,8
000088c3 53544152545f  13685 	.strz	"START_SEC_CODE "
000088c9 5345435f434f 
000088cf 44452000 
000088d3 03            13686 	.byte	3
000088d4 bb09          13687 	.byte	187,9
000088d6 0e            13688 	.byte	14
000088d7 01            13689 	.byte	1
000088d8 f307          13690 	.byte	243,7
000088da 434f44455f53  13691 	.strz	"CODE_SEC_OPEN "
000088e0 45435f4f5045 
000088e6 4e2000 
000088e9 04            13692 	.byte	4

                                                                      Page 314
                                                              C:\Users\nhuliyap\AppData\Local\Temp\gh_000075o1.s
000088ea 04            13693 	.byte	4
000088eb 01            13694 	.byte	1
000088ec 11            13695 	.byte	17
000088ed 44434d5f5741  13696 	.strz	"DCM_WAS_STARTED_SEC_ROM_CODE "
000088f3 535f53544152 
000088f9 5445445f5345 
000088ff 435f524f4d5f 
00008905 434f44452000 
0000890b 04            13697 	.byte	4
0000890c 01            13698 	.byte	1
0000890d 2c            13699 	.byte	44
0000890e 44434d5f5354  13700 	.strz	"DCM_STOP_SEC_CODE "
00008914 4f505f534543 
0000891a 5f434f444520 
00008920 00 
00008921 03            13701 	.byte	3
00008922 2d            13702 	.byte	45
00008923 0c            13703 	.byte	12
00008924 01            13704 	.byte	1
00008925 06            13705 	.byte	6
00008926 4d454d4d4150  13706 	.strz	"MEMMAP_ERROR "
0000892c 5f4552524f52 
00008932 2000 
00008934 01            13707 	.byte	1
00008935 18            13708 	.byte	24
00008936 4253575f5354  13709 	.strz	"BSW_STOP_SEC_DEFAULT_CODE "
0000893c 4f505f534543 
00008942 5f4445464155 
00008948 4c545f434f44 
0000894e 452000 
00008951 03            13710 	.byte	3
00008952 19            13711 	.byte	25
00008953 0d            13712 	.byte	13
00008954 01            13713 	.byte	1
00008955 d608          13714 	.byte	214,8
00008957 53544f505f53  13715 	.strz	"STOP_SEC_CODE "
0000895d 45435f434f44 
00008963 452000 
00008966 03            13716 	.byte	3
00008967 bb09          13717 	.byte	187,9
00008969 0e            13718 	.byte	14
0000896a 04            13719 	.byte	4
0000896b 04            13720 	.byte	4
0000896c 04            13721 	.byte	4
0000896d 04            13722 	.byte	4
0000896e 01            13723 	.byte	1
0000896f 07            13724 	.byte	7
00008970 44434d5f5354  13725 	.strz	"DCM_START_SEC_VAR_CLEARED_8 "
00008976 4152545f5345 
0000897c 435f5641525f 
00008982 434c45415245 
00008988 445f382000 
0000898d 03            13726 	.byte	3
0000898e 08            13727 	.byte	8
0000898f 0c            13728 	.byte	12
00008990 01            13729 	.byte	1
00008991 06            13730 	.byte	6
00008992 4d454d4d4150  13731 	.strz	"MEMMAP_ERROR "
00008998 5f4552524f52 
0000899e 2000 
000089a0 01            13732 	.byte	1

                                                                      Page 315
                                                              C:\Users\nhuliyap\AppData\Local\Temp\gh_000075o1.s
000089a1 f301          13733 	.byte	243,1
000089a3 4253575f5354  13734 	.strz	"BSW_START_SEC_DEFAULT_RAM0_CLEARED_8 "
000089a9 4152545f5345 
000089af 435f44454641 
000089b5 554c545f5241 
000089bb 4d305f434c45 
000089c1 415245445f38 
000089c7 2000 
000089c9 03            13735 	.byte	3
000089ca f401          13736 	.byte	244,1
000089cc 0d            13737 	.byte	13
000089cd 01            13738 	.byte	1
000089ce 9805          13739 	.byte	152,5
000089d0 53544152545f  13740 	.strz	"START_SEC_VAR_CLEARED_8 "
000089d6 5345435f5641 
000089dc 525f434c4541 
000089e2 5245445f3820 
000089e8 00 
000089e9 03            13741 	.byte	3
000089ea bb09          13742 	.byte	187,9
000089ec 0e            13743 	.byte	14
000089ed 01            13744 	.byte	1
000089ee 46            13745 	.byte	70
000089ef 53544152545f  13746 	.strz	"START_SEC_VAR_ZERO_INIT_8BIT "
000089f5 5345435f5641 
000089fb 525f5a45524f 
00008a01 5f494e49545f 
00008a07 384249542000 
00008a0d 01            13747 	.byte	1
00008a0e e009          13748 	.byte	224,9
00008a10 5641525f5345  13749 	.strz	"VAR_SEC_OPEN "
00008a16 435f4f50454e 
00008a1c 2000 
00008a1e 04            13750 	.byte	4
00008a1f 04            13751 	.byte	4
00008a20 01            13752 	.byte	1
00008a21 f801          13753 	.byte	248,1
00008a23 44434d5f5741  13754 	.strz	"DCM_WAS_STARTED_SEC_VAR_CLEARED_8 "
00008a29 535f53544152 
00008a2f 5445445f5345 
00008a35 435f5641525f 
00008a3b 434c45415245 
00008a41 445f382000 
00008a46 04            13755 	.byte	4
00008a47 01            13756 	.byte	1
00008a48 0d            13757 	.byte	13
00008a49 44434d5f5354  13758 	.strz	"DCM_STOP_SEC_VAR_CLEARED_8 "
00008a4f 4f505f534543 
00008a55 5f5641525f43 
00008a5b 4c4541524544 
00008a61 5f382000 
00008a65 03            13759 	.byte	3
00008a66 0e            13760 	.byte	14
00008a67 0c            13761 	.byte	12
00008a68 01            13762 	.byte	1
00008a69 06            13763 	.byte	6
00008a6a 4d454d4d4150  13764 	.strz	"MEMMAP_ERROR "
00008a70 5f4552524f52 
00008a76 2000 
00008a78 01            13765 	.byte	1
00008a79 ff01          13766 	.byte	255,1

                                                                      Page 316
                                                              C:\Users\nhuliyap\AppData\Local\Temp\gh_000075o1.s
00008a7b 4253575f5354  13767 	.strz	"BSW_STOP_SEC_DEFAULT_RAM0_CLEARED_8 "
00008a81 4f505f534543 
00008a87 5f4445464155 
00008a8d 4c545f52414d 
00008a93 305f434c4541 
00008a99 5245445f3820 
00008a9f 00 
00008aa0 03            13768 	.byte	3
00008aa1 8002          13769 	.byte	128,2
00008aa3 0d            13770 	.byte	13
00008aa4 01            13771 	.byte	1
00008aa5 9b05          13772 	.byte	155,5
00008aa7 53544f505f53  13773 	.strz	"STOP_SEC_VAR "
00008aad 45435f564152 
00008ab3 2000 
00008ab5 03            13774 	.byte	3
00008ab6 bb09          13775 	.byte	187,9
00008ab8 0e            13776 	.byte	14
00008ab9 04            13777 	.byte	4
00008aba 04            13778 	.byte	4
00008abb 04            13779 	.byte	4
00008abc 01            13780 	.byte	1
00008abd 10            13781 	.byte	16
00008abe 44434d5f5354  13782 	.strz	"DCM_START_SEC_VAR_CLEARED_UNSPECIFIED "
00008ac4 4152545f5345 
00008aca 435f5641525f 
00008ad0 434c45415245 
00008ad6 445f554e5350 
00008adc 454349464945 
00008ae2 442000 
00008ae5 03            13783 	.byte	3
00008ae6 11            13784 	.byte	17
00008ae7 0c            13785 	.byte	12
00008ae8 01            13786 	.byte	1
00008ae9 06            13787 	.byte	6
00008aea 4d454d4d4150  13788 	.strz	"MEMMAP_ERROR "
00008af0 5f4552524f52 
00008af6 2000 
00008af8 01            13789 	.byte	1
00008af9 c901          13790 	.byte	201,1
00008afb 4253575f5354  13791 	.strz	"BSW_START_SEC_DEFAULT_RAM0_CLEARED_UNSPECIFIED "
00008b01 4152545f5345 
00008b07 435f44454641 
00008b0d 554c545f5241 
00008b13 4d305f434c45 
00008b19 415245445f55 
00008b1f 4e5350454349 
00008b25 464945442000 
00008b2b 03            13792 	.byte	3
00008b2c ca01          13793 	.byte	202,1
00008b2e 0d            13794 	.byte	13
00008b2f 01            13795 	.byte	1
00008b30 8a05          13796 	.byte	138,5
00008b32 53544152545f  13797 	.strz	"START_SEC_VAR_CLEARED_UNSPECIFIED "
00008b38 5345435f5641 
00008b3e 525f434c4541 
00008b44 5245445f554e 
00008b4a 535045434946 
00008b50 4945442000 
00008b55 03            13798 	.byte	3
00008b56 bb09          13799 	.byte	187,9

                                                                      Page 317
                                                              C:\Users\nhuliyap\AppData\Local\Temp\gh_000075o1.s
00008b58 0e            13800 	.byte	14
00008b59 01            13801 	.byte	1
00008b5a 56            13802 	.byte	86
00008b5b 53544152545f  13803 	.strz	"START_SEC_VAR_ZERO_INIT_UNSPECIFIED "
00008b61 5345435f5641 
00008b67 525f5a45524f 
00008b6d 5f494e49545f 
00008b73 554e53504543 
00008b79 494649454420 
00008b7f 00 
00008b80 01            13804 	.byte	1
00008b81 840a          13805 	.byte	132,10
00008b83 5641525f5345  13806 	.strz	"VAR_SEC_OPEN "
00008b89 435f4f50454e 
00008b8f 2000 
00008b91 04            13807 	.byte	4
00008b92 04            13808 	.byte	4
00008b93 01            13809 	.byte	1
00008b94 ce01          13810 	.byte	206,1
00008b96 44434d5f5741  13811 	.strz	"DCM_WAS_STARTED_SEC_VAR_CLEARED_UNSPECIFIED "
00008b9c 535f53544152 
00008ba2 5445445f5345 
00008ba8 435f5641525f 
00008bae 434c45415245 
00008bb4 445f554e5350 
00008bba 454349464945 
00008bc0 442000 
00008bc3 04            13812 	.byte	4
00008bc4 01            13813 	.byte	1
00008bc5 26            13814 	.byte	38
00008bc6 44434d5f5354  13815 	.strz	"DCM_STOP_SEC_VAR_CLEARED_UNSPECIFIED "
00008bcc 4f505f534543 
00008bd2 5f5641525f43 
00008bd8 4c4541524544 
00008bde 5f554e535045 
00008be4 434946494544 
00008bea 2000 
00008bec 03            13816 	.byte	3
00008bed 27            13817 	.byte	39
00008bee 0c            13818 	.byte	12
00008bef 01            13819 	.byte	1
00008bf0 06            13820 	.byte	6
00008bf1 4d454d4d4150  13821 	.strz	"MEMMAP_ERROR "
00008bf7 5f4552524f52 
00008bfd 2000 
00008bff 01            13822 	.byte	1
00008c00 d501          13823 	.byte	213,1
00008c02 4253575f5354  13824 	.strz	"BSW_STOP_SEC_DEFAULT_RAM0_CLEARED_UNSPECIFIED "
00008c08 4f505f534543 
00008c0e 5f4445464155 
00008c14 4c545f52414d 
00008c1a 305f434c4541 
00008c20 5245445f554e 
00008c26 535045434946 
00008c2c 4945442000 
00008c31 03            13825 	.byte	3
00008c32 d601          13826 	.byte	214,1
00008c34 0d            13827 	.byte	13
00008c35 01            13828 	.byte	1
00008c36 8d05          13829 	.byte	141,5
00008c38 53544f505f53  13830 	.strz	"STOP_SEC_VAR "

                                                                      Page 318
                                                              C:\Users\nhuliyap\AppData\Local\Temp\gh_000075o1.s
00008c3e 45435f564152 
00008c44 2000 
00008c46 03            13831 	.byte	3
00008c47 bb09          13832 	.byte	187,9
00008c49 0e            13833 	.byte	14
00008c4a 04            13834 	.byte	4
00008c4b 04            13835 	.byte	4
00008c4c 04            13836 	.byte	4
00008c4d 01            13837 	.byte	1
00008c4e 29            13838 	.byte	41
00008c4f 44434d5f5354  13839 	.strz	"DCM_START_SEC_VAR_CLEARED_BOOLEAN "
00008c55 4152545f5345 
00008c5b 435f5641525f 
00008c61 434c45415245 
00008c67 445f424f4f4c 
00008c6d 45414e2000 
00008c72 03            13840 	.byte	3
00008c73 2a            13841 	.byte	42
00008c74 0c            13842 	.byte	12
00008c75 01            13843 	.byte	1
00008c76 06            13844 	.byte	6
00008c77 4d454d4d4150  13845 	.strz	"MEMMAP_ERROR "
00008c7d 5f4552524f52 
00008c83 2000 
00008c85 01            13846 	.byte	1
00008c86 de01          13847 	.byte	222,1
00008c88 4253575f5354  13848 	.strz	"BSW_START_SEC_DEFAULT_RAM0_CLEARED_UNSPECIFIED "
00008c8e 4152545f5345 
00008c94 435f44454641 
00008c9a 554c545f5241 
00008ca0 4d305f434c45 
00008ca6 415245445f55 
00008cac 4e5350454349 
00008cb2 464945442000 
00008cb8 03            13849 	.byte	3
00008cb9 df01          13850 	.byte	223,1
00008cbb 0d            13851 	.byte	13
00008cbc 01            13852 	.byte	1
00008cbd 8a05          13853 	.byte	138,5
00008cbf 53544152545f  13854 	.strz	"START_SEC_VAR_CLEARED_UNSPECIFIED "
00008cc5 5345435f5641 
00008ccb 525f434c4541 
00008cd1 5245445f554e 
00008cd7 535045434946 
00008cdd 4945442000 
00008ce2 03            13855 	.byte	3
00008ce3 bb09          13856 	.byte	187,9
00008ce5 0e            13857 	.byte	14
00008ce6 01            13858 	.byte	1
00008ce7 56            13859 	.byte	86
00008ce8 53544152545f  13860 	.strz	"START_SEC_VAR_ZERO_INIT_UNSPECIFIED "
00008cee 5345435f5641 
00008cf4 525f5a45524f 
00008cfa 5f494e49545f 
00008d00 554e53504543 
00008d06 494649454420 
00008d0c 00 
00008d0d 01            13861 	.byte	1
00008d0e 840a          13862 	.byte	132,10
00008d10 5641525f5345  13863 	.strz	"VAR_SEC_OPEN "
00008d16 435f4f50454e 

                                                                      Page 319
                                                              C:\Users\nhuliyap\AppData\Local\Temp\gh_000075o1.s
00008d1c 2000 
00008d1e 04            13864 	.byte	4
00008d1f 04            13865 	.byte	4
00008d20 01            13866 	.byte	1
00008d21 e301          13867 	.byte	227,1
00008d23 44434d5f5741  13868 	.strz	"DCM_WAS_STARTED_SEC_VAR_CLEARED_BOOLEAN "
00008d29 535f53544152 
00008d2f 5445445f5345 
00008d35 435f5641525f 
00008d3b 434c45415245 
00008d41 445f424f4f4c 
00008d47 45414e2000 
00008d4c 04            13869 	.byte	4
00008d4d 01            13870 	.byte	1
00008d4e 31            13871 	.byte	49
00008d4f 44434d5f5354  13872 	.strz	"DCM_STOP_SEC_VAR_CLEARED_BOOLEAN "
00008d55 4f505f534543 
00008d5b 5f5641525f43 
00008d61 4c4541524544 
00008d67 5f424f4f4c45 
00008d6d 414e2000 
00008d71 03            13873 	.byte	3
00008d72 32            13874 	.byte	50
00008d73 0c            13875 	.byte	12
00008d74 01            13876 	.byte	1
00008d75 06            13877 	.byte	6
00008d76 4d454d4d4150  13878 	.strz	"MEMMAP_ERROR "
00008d7c 5f4552524f52 
00008d82 2000 
00008d84 01            13879 	.byte	1
00008d85 ea01          13880 	.byte	234,1
00008d87 4253575f5354  13881 	.strz	"BSW_STOP_SEC_DEFAULT_RAM0_CLEARED_UNSPECIFIED "
00008d8d 4f505f534543 
00008d93 5f4445464155 
00008d99 4c545f52414d 
00008d9f 305f434c4541 
00008da5 5245445f554e 
00008dab 535045434946 
00008db1 4945442000 
00008db6 03            13882 	.byte	3
00008db7 eb01          13883 	.byte	235,1
00008db9 0d            13884 	.byte	13
00008dba 01            13885 	.byte	1
00008dbb 8d05          13886 	.byte	141,5
00008dbd 53544f505f53  13887 	.strz	"STOP_SEC_VAR "
00008dc3 45435f564152 
00008dc9 2000 
00008dcb 03            13888 	.byte	3
00008dcc bb09          13889 	.byte	187,9
00008dce 0e            13890 	.byte	14
00008dcf 04            13891 	.byte	4
00008dd0 04            13892 	.byte	4
00008dd1 04            13893 	.byte	4
00008dd2 01            13894 	.byte	1
00008dd3 34            13895 	.byte	52
00008dd4 44434d5f5354  13896 	.strz	"DCM_START_SEC_CODE "
00008dda 4152545f5345 
00008de0 435f434f4445 
00008de6 2000 
00008de8 03            13897 	.byte	3
00008de9 35            13898 	.byte	53

                                                                      Page 320
                                                              C:\Users\nhuliyap\AppData\Local\Temp\gh_000075o1.s
00008dea 0c            13899 	.byte	12
00008deb 01            13900 	.byte	1
00008dec 06            13901 	.byte	6
00008ded 4d454d4d4150  13902 	.strz	"MEMMAP_ERROR "
00008df3 5f4552524f52 
00008df9 2000 
00008dfb 01            13903 	.byte	1
00008dfc 0c            13904 	.byte	12
00008dfd 4253575f5354  13905 	.strz	"BSW_START_SEC_DEFAULT_CODE "
00008e03 4152545f5345 
00008e09 435f44454641 
00008e0f 554c545f434f 
00008e15 44452000 
00008e19 03            13906 	.byte	3
00008e1a 0d            13907 	.byte	13
00008e1b 0d            13908 	.byte	13
00008e1c 01            13909 	.byte	1
00008e1d d308          13910 	.byte	211,8
00008e1f 53544152545f  13911 	.strz	"START_SEC_CODE "
00008e25 5345435f434f 
00008e2b 44452000 
00008e2f 03            13912 	.byte	3
00008e30 bb09          13913 	.byte	187,9
00008e32 0e            13914 	.byte	14
00008e33 01            13915 	.byte	1
00008e34 f307          13916 	.byte	243,7
00008e36 434f44455f53  13917 	.strz	"CODE_SEC_OPEN "
00008e3c 45435f4f5045 
00008e42 4e2000 
00008e45 04            13918 	.byte	4
00008e46 04            13919 	.byte	4
00008e47 01            13920 	.byte	1
00008e48 11            13921 	.byte	17
00008e49 44434d5f5741  13922 	.strz	"DCM_WAS_STARTED_SEC_ROM_CODE "
00008e4f 535f53544152 
00008e55 5445445f5345 
00008e5b 435f524f4d5f 
00008e61 434f44452000 
00008e67 04            13923 	.byte	4
00008e68 01            13924 	.byte	1
00008e69 be0a          13925 	.byte	190,10
00008e6b 44434d5f5354  13926 	.strz	"DCM_STOP_SEC_CODE "
00008e71 4f505f534543 
00008e77 5f434f444520 
00008e7d 00 
00008e7e 03            13927 	.byte	3
00008e7f bf0a          13928 	.byte	191,10
00008e81 0c            13929 	.byte	12
00008e82 01            13930 	.byte	1
00008e83 06            13931 	.byte	6
00008e84 4d454d4d4150  13932 	.strz	"MEMMAP_ERROR "
00008e8a 5f4552524f52 
00008e90 2000 
00008e92 01            13933 	.byte	1
00008e93 18            13934 	.byte	24
00008e94 4253575f5354  13935 	.strz	"BSW_STOP_SEC_DEFAULT_CODE "
00008e9a 4f505f534543 
00008ea0 5f4445464155 
00008ea6 4c545f434f44 
00008eac 452000 
00008eaf 03            13936 	.byte	3

                                                                      Page 321
                                                              C:\Users\nhuliyap\AppData\Local\Temp\gh_000075o1.s
00008eb0 19            13937 	.byte	25
00008eb1 0d            13938 	.byte	13
00008eb2 01            13939 	.byte	1
00008eb3 d608          13940 	.byte	214,8
00008eb5 53544f505f53  13941 	.strz	"STOP_SEC_CODE "
00008ebb 45435f434f44 
00008ec1 452000 
00008ec4 03            13942 	.byte	3
00008ec5 bb09          13943 	.byte	187,9
00008ec7 0e            13944 	.byte	14
00008ec8 04            13945 	.byte	4
00008ec9 04            13946 	.byte	4
00008eca 04            13947 	.byte	4
00008ecb 04            13948 	.byte	4
00008ecc 00            13949 	.byte	0
                       13950 	.section	.debug_abbrev
00000196 00            13951 	.byte	0
                       13952 	.section	.debug_info
                       13953 .Ldw_end:
                       13954 .rh850_flags REGMODE32,DATA_ALIGN8,GP_FIX,EP_NONFIX,TP_FIX,REG2_RESERVE,G3K,GHS_MISALIGN,SDA_EXTRA_REGS_0
