                                                                      Page 1
                                                              C:\Users\nhuliyap\AppData\Local\Temp\gh_000091s1.s
Command Line: C:\ghs\comp_201517\ease850.exe -w -elf -b0 -I../source/common -I../source/ProjectCompiler -I../source/ProjectCfg -I../source/SwcApplTpms -I../source/SwcApplEcuM -I../source/SwcServiceBswM -I../source/SwcServiceEcuM -I../source/SwcServiceNvM -I../source/SwcServiceOs -I../source/SwcServiceStartUp -I../source/McalAdc -I../source/McalDio -I../source/McalGpt -I../source/McalMcu -I../source/McalWdg -I../source/wrappers -I../source/wrappers/McalAta -I../source/McalLin -I../source/McalCan -I../source/wrappers/OS -I../source/McalFls -I../source/EcuabFee -I../source/EcuabMemIf -I../source/wrappers/VStdLib -I../source/wrappers/Crc -I../source/wrappers/FBL_APPL -I../source/wrappers/NVM_MANAGER -I../source/wrappers/DEM_MANAGER -I../source/wrappers/RDC_MANAGER -I../source/wrappers/ENV_MANAGER -I../source/wrappers/SYS_MANAGER -I../source/wrappers/EcuabCanIf -I../source/EcuabCanTrcv -I../source/wrappers/SwcServiceCanSM -I../source/wrappers/SwcServiceCanTp -I../source/wrappers/SwcServiceCanTp_PreCompile -I../source/wrappers/SwcServiceCom -I../source/wrappers/SwcServiceComM -I../source/wrappers/SwcServiceDcm -I../source/wrappers/SwcServicePduR -I../source/wrappers/SwcServiceEcuM -I../source/wrappers/Bfx -I../source/wrappers/SwcServiceDem -I../source/SwcServiceCom -I../source/SwcServiceDet -I../source/SwcServiceFiM -I../source/SwcServicePduR -I../source/SwcServiceSchM -I../source/wrappers/LibAutosarDiag -I../source/wrappers/rba_BswSrv -IC:\ghs\comp_201517\lib\rh850 -cg_underscore -cpu=rh850g3k -no_v850_simd -rh850_fpsimd=none -nomacro -patch_dbo=C:\_ECU2\ECU_Rivian_A1\Target\repo_projects\pRealEcu\cR_LATEST\make\output\objects\Fee_30_SmallSector_InstanceHandler.dbo -source=Fee_30_SmallSector_InstanceHandler.c -o output\objects\gh_000091s1.o -list=output\list\Fee_30_SmallSector_InstanceHandler.lst C:\Users\nhuliyap\AppData\Local\Temp\gh_000091s1.s 
Original File: C:\Users\nhuliyap\AppData\Local\Temp\gh_000091s1.s
Source File: Fee_30_SmallSector_InstanceHandler.c
Directory: C:\_ECU2\ECU_Rivian_A1\Target\repo_projects\pRealEcu\cR_LATEST\make
Host OS: Windows
EASE: Copyright (C) 1983-2015 Green Hills Software.  All Rights Reserved.
Release: Compiler v2015.1.7
Build Directory: [Directory] BTOWORKER6:c:/build_2015_1_bto/2015-10-21.2100-2015_1_bto/win32-comp-ecom
Revision: [VCInfo] http://toolsvc/branches/release-branch-70-bto/src@544153 (built by build)
Revision Date: Thu Oct 22 07:50:13 2015

Release Date: Thu Oct 22 09:32:32 2015

                           1 --Driver Command: ccv850 ../source/EcuabFee/Fee_30_SmallSector_InstanceHandler.c
                           2 --		-cpu=rh850 -fhard -ignore_callt_state_in_interrupts -large_sda
                           3 --		-misalign_pack -nofarcalls -nofloatio -no_callt -Ogeneral
                           4 --		-Onounroll -prepare_dispose -registermode=32 -reserve_r2 -sda=0
                           5 --		-shorten_loads -Wshadow --brief_diagnostics --no_commons
                           6 --		--no_wrap_diagnostics --prototype_errors --short_enum -list -G
                           7 --		-dual_debug -dwarf -X5523 -lnk=-no_xda_modifications -D
                           8 --		NOT_READY_FOR_TESTING_OR_DEPLOYMENT -D IBTCM_SW_ANPASSUNGEN -D
                           9 --		BUILD_RIVIAN -c -inline_prologue -I../source/common
                          10 --		-I../source/ProjectCompiler -I../source/ProjectCfg
                          11 --		-I../source/SwcApplTpms -I../source/SwcApplEcuM
                          12 --		-I../source/SwcServiceBswM -I../source/SwcServiceEcuM
                          13 --		-I../source/SwcServiceNvM -I../source/SwcServiceOs
                          14 --		-I../source/SwcServiceStartUp -I../source/McalAdc
                          15 --		-I../source/McalDio -I../source/McalGpt -I../source/McalMcu
                          16 --		-I../source/McalWdg -I../source/wrappers
                          17 --		-I../source/wrappers/McalAta -I../source/McalLin
                          18 --		-I../source/McalCan -I../source/wrappers/OS -I../source/McalFls
                          19 --		-I../source/EcuabFee -I../source/EcuabMemIf
                          20 --		-I../source/wrappers/VStdLib -I../source/wrappers
                          21 --		-I../source/wrappers/Crc -I../source/wrappers/FBL_APPL
                          22 --		-I../source/wrappers/NVM_MANAGER -I../source/wrappers/DEM_MANAGER
                          23 --		-I../source/wrappers/RDC_MANAGER -I../source/wrappers/ENV_MANAGER
                          24 --		-I../source/wrappers/SYS_MANAGER -I../source/wrappers/EcuabCanIf
                          25 --		-I../source/EcuabCanTrcv -I../source/wrappers/SwcServiceCanSM
                          26 --		-I../source/wrappers/SwcServiceCanTp
                          27 --		-I../source/wrappers/SwcServiceCanTp_PreCompile
                          28 --		-I../source/wrappers/SwcServiceCom
                          29 --		-I../source/wrappers/SwcServiceComM
                          30 --		-I../source/wrappers/SwcServiceDcm
                          31 --		-I../source/wrappers/SwcServicePduR
                          32 --		-I../source/wrappers/SwcServiceEcuM -I../source/wrappers/Bfx
                          33 --		-I../source/wrappers/SwcServiceDem -I../source/SwcServiceCom
                          34 --		-I../source/SwcServiceDet -I../source/SwcServiceFiM
                          35 --		-I../source/SwcServicePduR -I../source/SwcServiceSchM
                          36 --		-I../source/wrappers/LibAutosarDiag
                          37 --		-I../source/wrappers/rba_BswSrv -object_dir=output/objects
                          38 --		-list_dir=output/list
                          39 --Source File:   ../source/EcuabFee/Fee_30_SmallSector_InstanceHandler.c
                          40 --Directory:     
                          41 --		C:\_ECU2\ECU_Rivian_A1\Target\repo_projects\pRealEcu\cR_LATEST\make
                          42 --Compile Date:  Fri Sep 15 14:07:30 2023
                          43 --Host OS:       Win32
                          44 --Version:       C-RH850 2015.1.7 RELEASE VERSION
                          45 --Release:       Compiler v2015.1.7
                          46 --Revision Date: Thu Oct 22 08:06:12 2015
                          47 --Release Date:  Thu Oct 22 09:34:32 2015
                          48 -- ecom  -g -w -OM
                          49 	.text
                          50 ..bof.C.3A.5C_ECU2.5CECU_Rivian_A1.5CTarget.5Crepo_projects.5CpRealEcu.5CcR_LATEST.5Cmake.5Coutput.5Cobjects.5CFee_30_SmallSector_InstanceHandler...43.3A.5C_ECU2.5CECU_Rivian_A1.5CTarget.5Crepo_projects.5CpRealEcu.5CcR_LATEST.5Cmake..65044902..0::

                                                                      Page 2
                                                              C:\Users\nhuliyap\AppData\Local\Temp\gh_000091s1.s
                          51 	.align	2
                          52 ..gh.f.f.1.e.0:
                          53 	.type	..gh.f.f.1.e.0,@object
                          54 	.size	..gh.f.f.1.e.0,0
                          55 	.global	_Fee_30_SmallSector_Ih_IsValidManagement..C.3A.5C_ECU2.5CECU_Rivian_A1.5CTarget.5Crepo_projects.5CpRealEcu.5CcR_LATEST.5Cmake.5Coutput.5Cobjects.5CFee_30_SmallSector_InstanceHandler.
                          56 _Fee_30_SmallSector_Ih_IsValidManagement..C.3A.5C_ECU2.5CECU_Rivian_A1.5CTarget.5Crepo_projects.5CpRealEcu.5CcR_LATEST.5Cmake.5Coutput.5Cobjects.5CFee_30_SmallSector_InstanceHandler.:
                          57 _Fee_30_SmallSector_Ih_IsValidManagement:
00000000 8600             58 	zxb	r6
                          59 --	    .bf
                          60 .LDW01:
00000002 060610ff         61 	addi	-240,r6,zero
00000006 e2570000         62 	setfe	r10
                          63 --	    .ef
                          64 .LDW11:
0000000a 7f00             65 	jmp	[lp]
                          66 ___ghs_eofn_Fee_30_SmallSector_Ih_IsValidManagement:
                          67 	.type	_Fee_30_SmallSector_Ih_IsValidManagement,@function
                          68 	.size	_Fee_30_SmallSector_Ih_IsValidManagement,.-_Fee_30_SmallSector_Ih_IsValidManagement
                          69 	.type	_Fee_30_SmallSector_Ih_IsValidManagement..C.3A.5C_ECU2.5CECU_Rivian_A1.5CTarget.5Crepo_projects.5CpRealEcu.5CcR_LATEST.5Cmake.5Coutput.5Cobjects.5CFee_30_SmallSector_InstanceHandler.,@function
                          70 	.size	_Fee_30_SmallSector_Ih_IsValidManagement..C.3A.5C_ECU2.5CECU_Rivian_A1.5CTarget.5Crepo_projects.5CpRealEcu.5CcR_LATEST.5Cmake.5Coutput.5Cobjects.5CFee_30_SmallSector_InstanceHandler.,.-_Fee_30_SmallSector_Ih_IsValidManagement..C.3A.5C_ECU2.5CECU_Rivian_A1.5CTarget.5Crepo_projects.5CpRealEcu.5CcR_LATEST.5Cmake.5Coutput.5Cobjects.5CFee_30_SmallSector_InstanceHandler.
                          71 	.align	2
                          72 
                          73 --_ManagementByte	r6	param
                          74 
                          75 	.section ".bss","awb"
                          76 .L33:
                          77 	.type	.L33,@object
                          78 	.size	.L33,0
                          79 	.data
                          80 	.text
                          81 	.align	2
                          82 	.align	2
                          83 ..gh.f.f.1.e.1:
                          84 	.type	..gh.f.f.1.e.1,@object
                          85 	.size	..gh.f.f.1.e.1,0
                          86 	.global	_Fee_30_SmallSector_Ih_IsInvalidManagement..C.3A.5C_ECU2.5CECU_Rivian_A1.5CTarget.5Crepo_projects.5CpRealEcu.5CcR_LATEST.5Cmake.5Coutput.5Cobjects.5CFee_30_SmallSector_InstanceHandler.
                          87 _Fee_30_SmallSector_Ih_IsInvalidManagement..C.3A.5C_ECU2.5CECU_Rivian_A1.5CTarget.5Crepo_projects.5CpRealEcu.5CcR_LATEST.5Cmake.5Coutput.5Cobjects.5CFee_30_SmallSector_InstanceHandler.:
                          88 _Fee_30_SmallSector_Ih_IsInvalidManagement:
0000000c 8600             89 	zxb	r6
                          90 --	    .bf
                          91 .LDW21:
0000000e 6f32             92 	cmp	15,r6
00000010 e2570000         93 	setfe	r10
                          94 --	    .ef
                          95 .LDW31:
00000014 7f00             96 	jmp	[lp]
                          97 ___ghs_eofn_Fee_30_SmallSector_Ih_IsInvalidManagement:
                          98 	.type	_Fee_30_SmallSector_Ih_IsInvalidManagement,@function
                          99 	.size	_Fee_30_SmallSector_Ih_IsInvalidManagement,.-_Fee_30_SmallSector_Ih_IsInvalidManagement
                         100 	.type	_Fee_30_SmallSector_Ih_IsInvalidManagement..C.3A.5C_ECU2.5CECU_Rivian_A1.5CTarget.5Crepo_projects.5CpRealEcu.5CcR_LATEST.5Cmake.5Coutput.5Cobjects.5CFee_30_SmallSector_InstanceHandler.,@function
                         101 	.size	_Fee_30_SmallSector_Ih_IsInvalidManagement..C.3A.5C_ECU2.5CECU_Rivian_A1.5CTarget.5Crepo_projects.5CpRealEcu.5CcR_LATEST.5Cmake.5Coutput.5Cobjects.5CFee_30_SmallSector_InstanceHandler.,.-_Fee_30_SmallSector_Ih_IsInvalidManagement..C.3A.5C_ECU2.5CECU_Rivian_A1.5CTarget.5Crepo_projects.5CpRealEcu.5CcR_LATEST.5Cmake.5Coutput.5Cobjects.5CFee_30_SmallSector_InstanceHandler.
                         102 	.align	2
                         103 
                         104 --_ManagementByte	r6	param
                         105 
                         106 	.section ".bss","awb"
                         107 .L81:
                         108 	.type	.L81,@object
                         109 	.size	.L81,0
                         110 	.data
                         111 	.text

                                                                      Page 3
                                                              C:\Users\nhuliyap\AppData\Local\Temp\gh_000091s1.s
                         112 	.align	2
                         113 	.align	2
                         114 	.align	2
                         115 ..gh.f.f.1.e.2:
                         116 	.type	..gh.f.f.1.e.2,@object
                         117 	.size	..gh.f.f.1.e.2,0
                         118 	.global	_Fee_30_SmallSector_Ih_FillBufferWithStaticPattern..C.3A.5C_ECU2.5CECU_Rivian_A1.5CTarget.5Crepo_projects.5CpRealEcu.5CcR_LATEST.5Cmake.5Coutput.5Cobjects.5CFee_30_SmallSector_InstanceHandler.
                         119 _Fee_30_SmallSector_Ih_FillBufferWithStaticPattern..C.3A.5C_ECU2.5CECU_Rivian_A1.5CTarget.5Crepo_projects.5CpRealEcu.5CcR_LATEST.5Cmake.5Coutput.5Cobjects.5CFee_30_SmallSector_InstanceHandler.:
                         120 _Fee_30_SmallSector_Ih_FillBufferWithStaticPattern:
                         121 --	    .bf
                         122 .LDW41:
00000016 0092            123 	mov	0,r18
                         124 .L103:
00000018 3e0600000000*   125 	mov	_Fee_30_SmallSector_Ih_WriteBuffer,ep
0000001e d2f1            126 	add	r18,ep
00000020 2086aaff        127 	movea	-86,zero,r16
                         128 --line86
                         129 ..lin.C.3A.5C_ECU2.5CECU_Rivian_A1.5CTarget.5Crepo_projects.5CpRealEcu.5CcR_LATEST.5Cmake.5Coutput.5Cobjects.5CFee_30_SmallSector_InstanceHandler.1::
                         130 .LDWlin1:
00000024 4192            131 	add	1,r18
00000026 8083            132 	sst.b	r16,0[ep]
00000028 6892            133 	cmp	8,r18
0000002a f1f5*           134 	bl	.L103
                         135 --	    .ef
                         136 .LDW51:
                         137 --line90
                         138 ..lin.C.3A.5C_ECU2.5CECU_Rivian_A1.5CTarget.5Crepo_projects.5CpRealEcu.5CcR_LATEST.5Cmake.5Coutput.5Cobjects.5CFee_30_SmallSector_InstanceHandler.2::
                         139 .LDWlin2:
0000002c 7f00            140 	jmp	[lp]
                         141 ___ghs_eofn_Fee_30_SmallSector_Ih_FillBufferWithStaticPattern:
                         142 	.type	_Fee_30_SmallSector_Ih_FillBufferWithStaticPattern,@function
                         143 	.size	_Fee_30_SmallSector_Ih_FillBufferWithStaticPattern,.-_Fee_30_SmallSector_Ih_FillBufferWithStaticPattern
                         144 	.type	_Fee_30_SmallSector_Ih_FillBufferWithStaticPattern..C.3A.5C_ECU2.5CECU_Rivian_A1.5CTarget.5Crepo_projects.5CpRealEcu.5CcR_LATEST.5Cmake.5Coutput.5Cobjects.5CFee_30_SmallSector_InstanceHandler.,@function
                         145 	.size	_Fee_30_SmallSector_Ih_FillBufferWithStaticPattern..C.3A.5C_ECU2.5CECU_Rivian_A1.5CTarget.5Crepo_projects.5CpRealEcu.5CcR_LATEST.5Cmake.5Coutput.5Cobjects.5CFee_30_SmallSector_InstanceHandler.,.-_Fee_30_SmallSector_Ih_FillBufferWithStaticPattern..C.3A.5C_ECU2.5CECU_Rivian_A1.5CTarget.5Crepo_projects.5CpRealEcu.5CcR_LATEST.5Cmake.5Coutput.5Cobjects.5CFee_30_SmallSector_InstanceHandler.
                         146 	.align	2
                         147 --_LoopCounter	r18	local
                         148 
                         149 	.section ".bss","awb"
                         150 	.align	4
                         151 .L134:
                         152 	.type	.L134,@object
                         153 	.size	.L134,0
                         154 	.global	_Fee_30_SmallSector_Ih_WriteBuffer..C.3A.5C_ECU2.5CECU_Rivian_A1.5CTarget.5Crepo_projects.5CpRealEcu.5CcR_LATEST.5Cmake.5Coutput.5Cobjects.5CFee_30_SmallSector_InstanceHandler.
                         155 _Fee_30_SmallSector_Ih_WriteBuffer..C.3A.5C_ECU2.5CECU_Rivian_A1.5CTarget.5Crepo_projects.5CpRealEcu.5CcR_LATEST.5Cmake.5Coutput.5Cobjects.5CFee_30_SmallSector_InstanceHandler.:
00000000 000000000000    156 _Fee_30_SmallSector_Ih_WriteBuffer:	.space	8
00000006 0000 
                         157 	.type	_Fee_30_SmallSector_Ih_WriteBuffer..C.3A.5C_ECU2.5CECU_Rivian_A1.5CTarget.5Crepo_projects.5CpRealEcu.5CcR_LATEST.5Cmake.5Coutput.5Cobjects.5CFee_30_SmallSector_InstanceHandler.,@object
                         158 	.size	_Fee_30_SmallSector_Ih_WriteBuffer..C.3A.5C_ECU2.5CECU_Rivian_A1.5CTarget.5Crepo_projects.5CpRealEcu.5CcR_LATEST.5Cmake.5Coutput.5Cobjects.5CFee_30_SmallSector_InstanceHandler.,8
                         159 	.type	_Fee_30_SmallSector_Ih_WriteBuffer,@object
                         160 	.size	_Fee_30_SmallSector_Ih_WriteBuffer,8
                         161 	.section ".rodata","a"
                         162 	.global	_Fee_30_SmallSector_Ih_ValidManagementValue..C.3A.5C_ECU2.5CECU_Rivian_A1.5CTarget.5Crepo_projects.5CpRealEcu.5CcR_LATEST.5Cmake.5Coutput.5Cobjects.5CFee_30_SmallSector_InstanceHandler.
                         163 _Fee_30_SmallSector_Ih_ValidManagementValue..C.3A.5C_ECU2.5CECU_Rivian_A1.5CTarget.5Crepo_projects.5CpRealEcu.5CcR_LATEST.5Cmake.5Coutput.5Cobjects.5CFee_30_SmallSector_InstanceHandler.:
00000000 f0              164 _Fee_30_SmallSector_Ih_ValidManagementValue:	.byte	240
                         165 	.type	_Fee_30_SmallSector_Ih_ValidManagementValue..C.3A.5C_ECU2.5CECU_Rivian_A1.5CTarget.5Crepo_projects.5CpRealEcu.5CcR_LATEST.5Cmake.5Coutput.5Cobjects.5CFee_30_SmallSector_InstanceHandler.,@object
                         166 	.size	_Fee_30_SmallSector_Ih_ValidManagementValue..C.3A.5C_ECU2.5CECU_Rivian_A1.5CTarget.5Crepo_projects.5CpRealEcu.5CcR_LATEST.5Cmake.5Coutput.5Cobjects.5CFee_30_SmallSector_InstanceHandler.,1
                         167 	.type	_Fee_30_SmallSector_Ih_ValidManagementValue,@object
                         168 	.size	_Fee_30_SmallSector_Ih_ValidManagementValue,1
                         169 	.global	_Fee_30_SmallSector_Ih_InvalidManagementValue..C.3A.5C_ECU2.5CECU_Rivian_A1.5CTarget.5Crepo_projects.5CpRealEcu.5CcR_LATEST.5Cmake.5Coutput.5Cobjects.5CFee_30_SmallSector_InstanceHandler.
                         170 _Fee_30_SmallSector_Ih_InvalidManagementValue..C.3A.5C_ECU2.5CECU_Rivian_A1.5CTarget.5Crepo_projects.5CpRealEcu.5CcR_LATEST.5Cmake.5Coutput.5Cobjects.5CFee_30_SmallSector_InstanceHandler.:
00000001 0f              171 _Fee_30_SmallSector_Ih_InvalidManagementValue:	.byte	15

                                                                      Page 4
                                                              C:\Users\nhuliyap\AppData\Local\Temp\gh_000091s1.s
                         172 	.type	_Fee_30_SmallSector_Ih_InvalidManagementValue..C.3A.5C_ECU2.5CECU_Rivian_A1.5CTarget.5Crepo_projects.5CpRealEcu.5CcR_LATEST.5Cmake.5Coutput.5Cobjects.5CFee_30_SmallSector_InstanceHandler.,@object
                         173 	.size	_Fee_30_SmallSector_Ih_InvalidManagementValue..C.3A.5C_ECU2.5CECU_Rivian_A1.5CTarget.5Crepo_projects.5CpRealEcu.5CcR_LATEST.5Cmake.5Coutput.5Cobjects.5CFee_30_SmallSector_InstanceHandler.,1
                         174 	.type	_Fee_30_SmallSector_Ih_InvalidManagementValue,@object
                         175 	.size	_Fee_30_SmallSector_Ih_InvalidManagementValue,1
                         176 	.section ".bss","awb"
                         177 	.global	_Fee_30_SmallSector_Ih_ReadBuffer..C.3A.5C_ECU2.5CECU_Rivian_A1.5CTarget.5Crepo_projects.5CpRealEcu.5CcR_LATEST.5Cmake.5Coutput.5Cobjects.5CFee_30_SmallSector_InstanceHandler.
                         178 _Fee_30_SmallSector_Ih_ReadBuffer..C.3A.5C_ECU2.5CECU_Rivian_A1.5CTarget.5Crepo_projects.5CpRealEcu.5CcR_LATEST.5Cmake.5Coutput.5Cobjects.5CFee_30_SmallSector_InstanceHandler.:
00000008 000000000000    179 _Fee_30_SmallSector_Ih_ReadBuffer:	.space	24
0000000e 000000000000 
00000014 000000000000 
0000001a 000000000000 
                         180 	.type	_Fee_30_SmallSector_Ih_ReadBuffer..C.3A.5C_ECU2.5CECU_Rivian_A1.5CTarget.5Crepo_projects.5CpRealEcu.5CcR_LATEST.5Cmake.5Coutput.5Cobjects.5CFee_30_SmallSector_InstanceHandler.,@object
                         181 	.size	_Fee_30_SmallSector_Ih_ReadBuffer..C.3A.5C_ECU2.5CECU_Rivian_A1.5CTarget.5Crepo_projects.5CpRealEcu.5CcR_LATEST.5Cmake.5Coutput.5Cobjects.5CFee_30_SmallSector_InstanceHandler.,24
                         182 	.type	_Fee_30_SmallSector_Ih_ReadBuffer,@object
                         183 	.size	_Fee_30_SmallSector_Ih_ReadBuffer,24
                         184 	.data
                         185 	.text
                         186 	.align	2
                         187 	.align	2
                         188 ..gh.f.f.1.e.3:
                         189 	.type	..gh.f.f.1.e.3,@object
                         190 	.size	..gh.f.f.1.e.3,0
                         191 	.global	_Fee_30_SmallSector_Ih_FillBufferWithErasedValue..C.3A.5C_ECU2.5CECU_Rivian_A1.5CTarget.5Crepo_projects.5CpRealEcu.5CcR_LATEST.5Cmake.5Coutput.5Cobjects.5CFee_30_SmallSector_InstanceHandler.
                         192 _Fee_30_SmallSector_Ih_FillBufferWithErasedValue..C.3A.5C_ECU2.5CECU_Rivian_A1.5CTarget.5Crepo_projects.5CpRealEcu.5CcR_LATEST.5Cmake.5Coutput.5Cobjects.5CFee_30_SmallSector_InstanceHandler.:
                         193 _Fee_30_SmallSector_Ih_FillBufferWithErasedValue:
0000002e 8007e100        194 	prepare	{r28,r29,r31},0
                         195 --	    .bf
                         196 .LDW61:
00000032 00ea            197 	mov	0,r29
                         198 .L172:
00000034 40e60000*       199 	movhi	hi(_Fee_30_SmallSector_Ih_WriteBuffer),zero,r28
00000038 dde1            200 	add	r29,r28
                         201 	jarl	_Fee_30_SmallSector_Ph_GetFlsEraseValue,lp
                         201 <EXPANSION BEGIN>
                         201 jarl22 _Fee_30_SmallSector_Ph_GetFlsEraseValue , lp 
0000003a 80ff0000*       201 <EXPANSION END>
                         202 --line95
                         203 ..lin.C.3A.5C_ECU2.5CECU_Rivian_A1.5CTarget.5Crepo_projects.5CpRealEcu.5CcR_LATEST.5Cmake.5Coutput.5Cobjects.5CFee_30_SmallSector_InstanceHandler.3::
                         204 .LDWlin3:
0000003e 41ea            205 	add	1,r29
00000040 5c570000*       206 	st.b	r10,lo(_Fee_30_SmallSector_Ih_WriteBuffer)[r28]
00000044 68ea            207 	cmp	8,r29
00000046 f1f5*           208 	bl	.L172
                         209 --	    .ef
                         210 .LDW71:
                         211 --line99
                         212 ..lin.C.3A.5C_ECU2.5CECU_Rivian_A1.5CTarget.5Crepo_projects.5CpRealEcu.5CcR_LATEST.5Cmake.5Coutput.5Cobjects.5CFee_30_SmallSector_InstanceHandler.4::
                         213 .LDWlin4:
00000048 4006ff00        214 	dispose	0,{r28,r29,r31},[lp]
                         215 ___ghs_eofn_Fee_30_SmallSector_Ih_FillBufferWithErasedValue:
                         216 	.type	_Fee_30_SmallSector_Ih_FillBufferWithErasedValue,@function
                         217 	.size	_Fee_30_SmallSector_Ih_FillBufferWithErasedValue,.-_Fee_30_SmallSector_Ih_FillBufferWithErasedValue
                         218 	.type	_Fee_30_SmallSector_Ih_FillBufferWithErasedValue..C.3A.5C_ECU2.5CECU_Rivian_A1.5CTarget.5Crepo_projects.5CpRealEcu.5CcR_LATEST.5Cmake.5Coutput.5Cobjects.5CFee_30_SmallSector_InstanceHandler.,@function
                         219 	.size	_Fee_30_SmallSector_Ih_FillBufferWithErasedValue..C.3A.5C_ECU2.5CECU_Rivian_A1.5CTarget.5Crepo_projects.5CpRealEcu.5CcR_LATEST.5Cmake.5Coutput.5Cobjects.5CFee_30_SmallSector_InstanceHandler.,.-_Fee_30_SmallSector_Ih_FillBufferWithErasedValue..C.3A.5C_ECU2.5CECU_Rivian_A1.5CTarget.5Crepo_projects.5CpRealEcu.5CcR_LATEST.5Cmake.5Coutput.5Cobjects.5CFee_30_SmallSector_InstanceHandler.
                         220 	.align	2
                         221 --_LoopCounter	r29	local
                         222 
                         223 	.data
                         224 	.text
                         225 	.align	2
                         226 	.align	2

                                                                      Page 5
                                                              C:\Users\nhuliyap\AppData\Local\Temp\gh_000091s1.s
                         227 ..gh.f.f.1.e.4:
                         228 	.type	..gh.f.f.1.e.4,@object
                         229 	.size	..gh.f.f.1.e.4,0
                         230 	.global	_Fee_30_SmallSector_Ih_GetInstanceDataLength
                         231 _Fee_30_SmallSector_Ih_GetInstanceDataLength:
0000004c 06f0            232 	mov	r6,ep
                         233 --	    .bf
                         234 .LDW81:
0000004e 7650            235 	sld.hu	12[ep],r10
                         236 --	    .ef
                         237 .LDW91:
00000050 7f00            238 	jmp	[lp]
                         239 	.global	___ghs_eofn_Fee_30_SmallSector_Ih_GetInstanceDataLength
                         240 ___ghs_eofn_Fee_30_SmallSector_Ih_GetInstanceDataLength:
                         241 	.type	_Fee_30_SmallSector_Ih_GetInstanceDataLength,@function
                         242 	.size	_Fee_30_SmallSector_Ih_GetInstanceDataLength,.-_Fee_30_SmallSector_Ih_GetInstanceDataLength
                         243 	.align	2
                         244 
                         245 --_Instance	ep	param
                         246 
                         247 	.section ".bss","awb"
                         248 .L260:
                         249 	.type	.L260,@object
                         250 	.size	.L260,0
                         251 	.data
                         252 	.text
                         253 	.align	2
                         254 	.align	2
                         255 ..gh.f.f.1.e.5:
                         256 	.type	..gh.f.f.1.e.5,@object
                         257 	.size	..gh.f.f.1.e.5,0
                         258 	.global	_Fee_30_SmallSector_Ih_IsLastPageNecessary
                         259 _Fee_30_SmallSector_Ih_IsLastPageNecessary:
00000052 80076100        260 	prepare	{r29,r31},0
                         261 --	    .bf
                         262 .LDW02:
                         263 	jarl	_Fee_30_SmallSector_Ih_GetInstanceDataLength,lp
                         263 <EXPANSION BEGIN>
                         263 jarl22 _Fee_30_SmallSector_Ih_GetInstanceDataLength , lp 
00000056 bffff6ff*       263 <EXPANSION END>
0000005a 0aee0100        264 	addi	1,r10,r29
                         265 	jarl	_Fee_30_SmallSector_Ph_GetPartitionWriteAlignment,lp
                         265 <EXPANSION BEGIN>
                         265 jarl22 _Fee_30_SmallSector_Ph_GetPartitionWriteAlignment , lp 
0000005e 80ff0000*       265 <EXPANSION END>
00000062 eaeffe4a        266 	divqu	r10,r29,r9
00000066 d84a            267 	shl	24,r9
00000068 ea570000        268 	setfne	r10
                         269 --	    .ef
                         270 .LDW12:
                         271 --line102
                         272 ..lin.C.3A.5C_ECU2.5CECU_Rivian_A1.5CTarget.5Crepo_projects.5CpRealEcu.5CcR_LATEST.5Cmake.5Coutput.5Cobjects.5CFee_30_SmallSector_InstanceHandler.5::
                         273 .LDWlin5:
0000006c 40067f00        274 	dispose	0,{r29,r31},[lp]
                         275 	.global	___ghs_eofn_Fee_30_SmallSector_Ih_IsLastPageNecessary
                         276 ___ghs_eofn_Fee_30_SmallSector_Ih_IsLastPageNecessary:
                         277 	.type	_Fee_30_SmallSector_Ih_IsLastPageNecessary,@function
                         278 	.size	_Fee_30_SmallSector_Ih_IsLastPageNecessary,.-_Fee_30_SmallSector_Ih_IsLastPageNecessary
                         279 	.align	2
                         280 
                         281 --_Instance	r6	param

                                                                      Page 6
                                                              C:\Users\nhuliyap\AppData\Local\Temp\gh_000091s1.s
                         282 
                         283 	.section ".bss","awb"
                         284 .L305:
                         285 	.type	.L305,@object
                         286 	.size	.L305,0
                         287 	.data
                         288 	.text
                         289 	.align	2
                         290 	.align	2
                         291 ..gh.f.f.1.e.6:
                         292 	.type	..gh.f.f.1.e.6,@object
                         293 	.size	..gh.f.f.1.e.6,0
                         294 	.global	_Fee_30_SmallSector_Ih_CreateInstance
                         295 _Fee_30_SmallSector_Ih_CreateInstance:
00000070 8007e110        296 	prepare	{r27,r28,r29,r31},0
00000074 06e8            297 	mov	r6,r29
00000076 07e0            298 	mov	r7,r28
00000078 08d8            299 	mov	r8,r27
                         300 --	    .bf
                         301 .LDW22:
0000007a 663f0100        302 	st.w	r7,0[r6]
                         303 	jarl	_Fee_30_SmallSector_Ph_GetPartitionWriteAlignment,lp
                         303 <EXPANSION BEGIN>
                         303 jarl22 _Fee_30_SmallSector_Ph_GetPartitionWriteAlignment , lp 
0000007e 80ff0000*       303 <EXPANSION END>
00000082 dc51            304 	add	r28,r10
00000084 7d570500        305 	st.w	r10,4[r29]
                         306 --line112
                         307 ..lin.C.3A.5C_ECU2.5CECU_Rivian_A1.5CTarget.5Crepo_projects.5CpRealEcu.5CcR_LATEST.5Cmake.5Coutput.5Cobjects.5CFee_30_SmallSector_InstanceHandler.6::
                         308 .LDWlin6:
                         309 	jarl	_Fee_30_SmallSector_Ph_GetPartitionWriteAlignment,lp
                         309 <EXPANSION BEGIN>
                         309 jarl22 _Fee_30_SmallSector_Ph_GetPartitionWriteAlignment , lp 
00000088 80ff0000*       309 <EXPANSION END>
0000008c c152            310 	shl	1,r10
0000008e dc51            311 	add	r28,r10
00000090 1df0            312 	mov	r29,ep
00000092 0555            313 	sst.w	r10,8[ep]
                         314 --line113
                         315 ..lin.C.3A.5C_ECU2.5CECU_Rivian_A1.5CTarget.5Crepo_projects.5CpRealEcu.5CcR_LATEST.5Cmake.5Coutput.5Cobjects.5CFee_30_SmallSector_InstanceHandler.7::
                         316 .LDWlin7:
00000094 86dc            317 	sst.h	r27,12[ep]
                         318 	jarl	_Fee_30_SmallSector_Ph_GetFlsEraseValue,lp
                         318 <EXPANSION BEGIN>
                         318 jarl22 _Fee_30_SmallSector_Ph_GetFlsEraseValue , lp 
00000096 80ff0000*       318 <EXPANSION END>
0000009a 1df0            319 	mov	r29,ep
0000009c 9153            320 	sst.b	r10,17[ep]
                         321 --line115
                         322 ..lin.C.3A.5C_ECU2.5CECU_Rivian_A1.5CTarget.5Crepo_projects.5CpRealEcu.5CcR_LATEST.5Cmake.5Coutput.5Cobjects.5CFee_30_SmallSector_InstanceHandler.8::
                         323 .LDWlin8:
0000009e 8e03            324 	sst.b	zero,14[ep]
000000a0 8f03            325 	sst.b	zero,15[ep]
000000a2 9003            326 	sst.b	zero,16[ep]
000000a4 9203            327 	sst.b	zero,18[ep]
                         328 --	    .ef
                         329 .LDW32:
000000a6 4006ff10        330 	dispose	0,{r27,r28,r29,r31},[lp]
                         331 	.global	___ghs_eofn_Fee_30_SmallSector_Ih_CreateInstance
                         332 ___ghs_eofn_Fee_30_SmallSector_Ih_CreateInstance:
                         333 	.type	_Fee_30_SmallSector_Ih_CreateInstance,@function

                                                                      Page 7
                                                              C:\Users\nhuliyap\AppData\Local\Temp\gh_000091s1.s
                         334 	.size	_Fee_30_SmallSector_Ih_CreateInstance,.-_Fee_30_SmallSector_Ih_CreateInstance
                         335 	.align	2
                         336 
                         337 --_Instance	r29	param
                         338 --_InstanceStartAddress	r28	param
                         339 --_DataLength	r27	param
                         340 
                         341 	.section ".bss","awb"
                         342 .L353:
                         343 	.type	.L353,@object
                         344 	.size	.L353,0
                         345 	.data
                         346 	.text
                         347 	.align	2
                         348 	.align	2
                         349 ..gh.f.f.1.e.7:
                         350 	.type	..gh.f.f.1.e.7,@object
                         351 	.size	..gh.f.f.1.e.7,0
                         352 	.global	_Fee_30_SmallSector_Ih_InitInstance
                         353 _Fee_30_SmallSector_Ih_InitInstance:
000000aa 06f0            354 	mov	r6,ep
                         355 --	    .bf
                         356 .LDW42:
000000ac 0105            357 	sst.w	zero,0[ep]
000000ae 0305            358 	sst.w	zero,4[ep]
000000b0 0505            359 	sst.w	zero,8[ep]
000000b2 8604            360 	sst.h	zero,12[ep]
000000b4 8e03            361 	sst.b	zero,14[ep]
000000b6 8f03            362 	sst.b	zero,15[ep]
000000b8 9103            363 	sst.b	zero,17[ep]
000000ba 9203            364 	sst.b	zero,18[ep]
                         365 --	    .ef
                         366 .LDW52:
000000bc 7f00            367 	jmp	[lp]
                         368 	.global	___ghs_eofn_Fee_30_SmallSector_Ih_InitInstance
                         369 ___ghs_eofn_Fee_30_SmallSector_Ih_InitInstance:
                         370 	.type	_Fee_30_SmallSector_Ih_InitInstance,@function
                         371 	.size	_Fee_30_SmallSector_Ih_InitInstance,.-_Fee_30_SmallSector_Ih_InitInstance
                         372 	.align	2
                         373 
                         374 --_Instance	ep	param
                         375 
                         376 	.section ".bss","awb"
                         377 .L401:
                         378 	.type	.L401,@object
                         379 	.size	.L401,0
                         380 	.data
                         381 	.text
                         382 	.align	2
                         383 	.align	2
                         384 ..gh.f.f.1.e.8:
                         385 	.type	..gh.f.f.1.e.8,@object
                         386 	.size	..gh.f.f.1.e.8,0
                         387 	.global	_Fee_30_SmallSector_Ih_GetInstanceStartAddress
                         388 _Fee_30_SmallSector_Ih_GetInstanceStartAddress:
000000be 06f0            389 	mov	r6,ep
                         390 --	    .bf
                         391 .LDW62:
000000c0 0055            392 	sld.w	0[ep],r10
                         393 --	    .ef
                         394 .LDW72:

                                                                      Page 8
                                                              C:\Users\nhuliyap\AppData\Local\Temp\gh_000091s1.s
000000c2 7f00            395 	jmp	[lp]
                         396 	.global	___ghs_eofn_Fee_30_SmallSector_Ih_GetInstanceStartAddress
                         397 ___ghs_eofn_Fee_30_SmallSector_Ih_GetInstanceStartAddress:
                         398 	.type	_Fee_30_SmallSector_Ih_GetInstanceStartAddress,@function
                         399 	.size	_Fee_30_SmallSector_Ih_GetInstanceStartAddress,.-_Fee_30_SmallSector_Ih_GetInstanceStartAddress
                         400 	.align	2
                         401 
                         402 --_Instance	ep	param
                         403 
                         404 	.section ".bss","awb"
                         405 .L449:
                         406 	.type	.L449,@object
                         407 	.size	.L449,0
                         408 	.data
                         409 	.text
                         410 	.align	2
                         411 	.align	2
                         412 ..gh.f.f.1.e.9:
                         413 	.type	..gh.f.f.1.e.9,@object
                         414 	.size	..gh.f.f.1.e.9,0
                         415 	.global	_Fee_30_SmallSector_Ih_GetEndPatternAddress
                         416 _Fee_30_SmallSector_Ih_GetEndPatternAddress:
000000c4 06f0            417 	mov	r6,ep
                         418 --	    .bf
                         419 .LDW82:
000000c6 0255            420 	sld.w	4[ep],r10
                         421 --	    .ef
                         422 .LDW92:
000000c8 7f00            423 	jmp	[lp]
                         424 	.global	___ghs_eofn_Fee_30_SmallSector_Ih_GetEndPatternAddress
                         425 ___ghs_eofn_Fee_30_SmallSector_Ih_GetEndPatternAddress:
                         426 	.type	_Fee_30_SmallSector_Ih_GetEndPatternAddress,@function
                         427 	.size	_Fee_30_SmallSector_Ih_GetEndPatternAddress,.-_Fee_30_SmallSector_Ih_GetEndPatternAddress
                         428 	.align	2
                         429 
                         430 --_Instance	ep	param
                         431 
                         432 	.section ".bss","awb"
                         433 .L497:
                         434 	.type	.L497,@object
                         435 	.size	.L497,0
                         436 	.data
                         437 	.text
                         438 	.align	2
                         439 	.align	2
                         440 ..gh.f.f.1.e.10:
                         441 	.type	..gh.f.f.1.e.10,@object
                         442 	.size	..gh.f.f.1.e.10,0
                         443 	.global	_Fee_30_SmallSector_Ih_GetManagementAddress
                         444 _Fee_30_SmallSector_Ih_GetManagementAddress:
000000ca 06f0            445 	mov	r6,ep
                         446 --	    .bf
                         447 .LDW03:
000000cc 0455            448 	sld.w	8[ep],r10
                         449 --	    .ef
                         450 .LDW13:
000000ce 7f00            451 	jmp	[lp]
                         452 	.global	___ghs_eofn_Fee_30_SmallSector_Ih_GetManagementAddress
                         453 ___ghs_eofn_Fee_30_SmallSector_Ih_GetManagementAddress:
                         454 	.type	_Fee_30_SmallSector_Ih_GetManagementAddress,@function
                         455 	.size	_Fee_30_SmallSector_Ih_GetManagementAddress,.-_Fee_30_SmallSector_Ih_GetManagementAddress

                                                                      Page 9
                                                              C:\Users\nhuliyap\AppData\Local\Temp\gh_000091s1.s
                         456 	.align	2
                         457 
                         458 --_Instance	ep	param
                         459 
                         460 	.section ".bss","awb"
                         461 .L545:
                         462 	.type	.L545,@object
                         463 	.size	.L545,0
                         464 	.data
                         465 	.text
                         466 	.align	2
                         467 	.align	2
                         468 ..gh.f.f.1.e.11:
                         469 	.type	..gh.f.f.1.e.11,@object
                         470 	.size	..gh.f.f.1.e.11,0
                         471 	.global	_Fee_30_SmallSector_Ih_GetEndAddress
                         472 _Fee_30_SmallSector_Ih_GetEndAddress:
000000d0 80076110        473 	prepare	{r27,r29,r31},0
000000d4 06e8            474 	mov	r6,r29
                         475 --	    .bf
                         476 .LDW23:
                         477 	jarl	_Fee_30_SmallSector_Ph_GetPartitionWriteAlignment,lp
                         477 <EXPANSION BEGIN>
                         477 jarl22 _Fee_30_SmallSector_Ph_GetPartitionWriteAlignment , lp 
000000d6 80ff0000*       477 <EXPANSION END>
000000da 0a38            478 	mov	r10,r7
000000dc 1d30            479 	mov	r29,r6
                         480 	jarl	_Fee_30_SmallSector_Ih_GetManagementAddress,lp
                         480 <EXPANSION BEGIN>
                         480 jarl22 _Fee_30_SmallSector_Ih_GetManagementAddress , lp 
000000de bfffecff*       480 <EXPANSION END>
000000e2 0ad8            481 	mov	r10,r27
                         482 	jarl	_Fee_30_SmallSector_Ih_GetInstanceDataLength,lp
                         482 <EXPANSION BEGIN>
                         482 jarl22 _Fee_30_SmallSector_Ih_GetInstanceDataLength , lp 
000000e4 bfff68ff*       482 <EXPANSION END>
000000e8 db51            483 	add	r27,r10
000000ea 0a360100        484 	addi	1,r10,r6
                         485 	jarl	_Fee_30_SmallSector_AlignValue,lp
                         485 <EXPANSION BEGIN>
                         485 jarl22 _Fee_30_SmallSector_AlignValue , lp 
000000ee 80ff0000*       485 <EXPANSION END>
                         486 --	    .ef
                         487 .LDW33:
                         488 --line149
                         489 ..lin.C.3A.5C_ECU2.5CECU_Rivian_A1.5CTarget.5Crepo_projects.5CpRealEcu.5CcR_LATEST.5Cmake.5Coutput.5Cobjects.5CFee_30_SmallSector_InstanceHandler.9::
                         490 .LDWlin9:
000000f2 40067f10        491 	dispose	0,{r27,r29,r31},[lp]
                         492 	.global	___ghs_eofn_Fee_30_SmallSector_Ih_GetEndAddress
                         493 ___ghs_eofn_Fee_30_SmallSector_Ih_GetEndAddress:
                         494 	.type	_Fee_30_SmallSector_Ih_GetEndAddress,@function
                         495 	.size	_Fee_30_SmallSector_Ih_GetEndAddress,.-_Fee_30_SmallSector_Ih_GetEndAddress
                         496 	.align	2
                         497 
                         498 --_Instance	r29	param
                         499 
                         500 	.section ".bss","awb"
                         501 .L593:
                         502 	.type	.L593,@object
                         503 	.size	.L593,0
                         504 	.data

                                                                      Page 10
                                                              C:\Users\nhuliyap\AppData\Local\Temp\gh_000091s1.s
                         505 	.text
                         506 	.align	2
                         507 	.align	2
                         508 ..gh.f.f.1.e.12:
                         509 	.type	..gh.f.f.1.e.12,@object
                         510 	.size	..gh.f.f.1.e.12,0
                         511 	.global	_Fee_30_SmallSector_Ih_GetInstanceStatus
                         512 _Fee_30_SmallSector_Ih_GetInstanceStatus:
000000f6 06f0            513 	mov	r6,ep
                         514 --	    .bf
                         515 .LDW43:
000000f8 1253            516 	sld.b	18[ep],r10
                         517 --	    .ef
                         518 .LDW53:
000000fa 7f00            519 	jmp	[lp]
                         520 	.global	___ghs_eofn_Fee_30_SmallSector_Ih_GetInstanceStatus
                         521 ___ghs_eofn_Fee_30_SmallSector_Ih_GetInstanceStatus:
                         522 	.type	_Fee_30_SmallSector_Ih_GetInstanceStatus,@function
                         523 	.size	_Fee_30_SmallSector_Ih_GetInstanceStatus,.-_Fee_30_SmallSector_Ih_GetInstanceStatus
                         524 	.align	2
                         525 
                         526 --_Instance	ep	param
                         527 
                         528 	.section ".bss","awb"
                         529 .L641:
                         530 	.type	.L641,@object
                         531 	.size	.L641,0
                         532 	.data
                         533 	.text
                         534 	.align	2
                         535 	.align	2
                         536 ..gh.f.f.1.e.13:
                         537 	.type	..gh.f.f.1.e.13,@object
                         538 	.size	..gh.f.f.1.e.13,0
                         539 	.global	_Fee_30_SmallSector_Ih_GetMgmtValue
                         540 _Fee_30_SmallSector_Ih_GetMgmtValue:
                         541 --	    .bf
                         542 .LDW63:
000000fc a6571100        543 	ld.bu	17[r6],r10
                         544 --	    .ef
                         545 .LDW73:
00000100 7f00            546 	jmp	[lp]
                         547 	.global	___ghs_eofn_Fee_30_SmallSector_Ih_GetMgmtValue
                         548 ___ghs_eofn_Fee_30_SmallSector_Ih_GetMgmtValue:
                         549 	.type	_Fee_30_SmallSector_Ih_GetMgmtValue,@function
                         550 	.size	_Fee_30_SmallSector_Ih_GetMgmtValue,.-_Fee_30_SmallSector_Ih_GetMgmtValue
                         551 	.align	2
                         552 
                         553 --_Instance	ep	param
                         554 
                         555 	.section ".bss","awb"
                         556 .L692:
                         557 	.type	.L692,@object
                         558 	.size	.L692,0
                         559 	.data
                         560 	.text
                         561 	.align	2
                         562 	.align	2
                         563 ..gh.f.f.1.e.14:
                         564 	.type	..gh.f.f.1.e.14,@object
                         565 	.size	..gh.f.f.1.e.14,0

                                                                      Page 11
                                                              C:\Users\nhuliyap\AppData\Local\Temp\gh_000091s1.s
                         566 	.global	_Fee_30_SmallSector_Ih_GetWP1State
                         567 _Fee_30_SmallSector_Ih_GetWP1State:
00000102 06f0            568 	mov	r6,ep
                         569 --	    .bf
                         570 .LDW83:
00000104 0e53            571 	sld.b	14[ep],r10
                         572 --	    .ef
                         573 .LDW93:
00000106 7f00            574 	jmp	[lp]
                         575 	.global	___ghs_eofn_Fee_30_SmallSector_Ih_GetWP1State
                         576 ___ghs_eofn_Fee_30_SmallSector_Ih_GetWP1State:
                         577 	.type	_Fee_30_SmallSector_Ih_GetWP1State,@function
                         578 	.size	_Fee_30_SmallSector_Ih_GetWP1State,.-_Fee_30_SmallSector_Ih_GetWP1State
                         579 	.align	2
                         580 
                         581 --_Instance	ep	param
                         582 
                         583 	.section ".bss","awb"
                         584 .L737:
                         585 	.type	.L737,@object
                         586 	.size	.L737,0
                         587 	.data
                         588 	.text
                         589 	.align	2
                         590 	.align	2
                         591 ..gh.f.f.1.e.15:
                         592 	.type	..gh.f.f.1.e.15,@object
                         593 	.size	..gh.f.f.1.e.15,0
                         594 	.global	_Fee_30_SmallSector_Ih_GetWP2State
                         595 _Fee_30_SmallSector_Ih_GetWP2State:
00000108 06f0            596 	mov	r6,ep
                         597 --	    .bf
                         598 .LDW04:
0000010a 0f53            599 	sld.b	15[ep],r10
                         600 --	    .ef
                         601 .LDW14:
0000010c 7f00            602 	jmp	[lp]
                         603 	.global	___ghs_eofn_Fee_30_SmallSector_Ih_GetWP2State
                         604 ___ghs_eofn_Fee_30_SmallSector_Ih_GetWP2State:
                         605 	.type	_Fee_30_SmallSector_Ih_GetWP2State,@function
                         606 	.size	_Fee_30_SmallSector_Ih_GetWP2State,.-_Fee_30_SmallSector_Ih_GetWP2State
                         607 	.align	2
                         608 
                         609 --_Instance	ep	param
                         610 
                         611 	.section ".bss","awb"
                         612 .L785:
                         613 	.type	.L785,@object
                         614 	.size	.L785,0
                         615 	.data
                         616 	.text
                         617 	.align	2
                         618 	.align	2
                         619 ..gh.f.f.1.e.16:
                         620 	.type	..gh.f.f.1.e.16,@object
                         621 	.size	..gh.f.f.1.e.16,0
                         622 	.global	_Fee_30_SmallSector_Ih_GetLastPageState
                         623 _Fee_30_SmallSector_Ih_GetLastPageState:
0000010e 06f0            624 	mov	r6,ep
                         625 --	    .bf
                         626 .LDW24:

                                                                      Page 12
                                                              C:\Users\nhuliyap\AppData\Local\Temp\gh_000091s1.s
00000110 1053            627 	sld.b	16[ep],r10
                         628 --	    .ef
                         629 .LDW34:
00000112 7f00            630 	jmp	[lp]
                         631 	.global	___ghs_eofn_Fee_30_SmallSector_Ih_GetLastPageState
                         632 ___ghs_eofn_Fee_30_SmallSector_Ih_GetLastPageState:
                         633 	.type	_Fee_30_SmallSector_Ih_GetLastPageState,@function
                         634 	.size	_Fee_30_SmallSector_Ih_GetLastPageState,.-_Fee_30_SmallSector_Ih_GetLastPageState
                         635 	.align	2
                         636 
                         637 --_Instance	ep	param
                         638 
                         639 	.section ".bss","awb"
                         640 .L833:
                         641 	.type	.L833,@object
                         642 	.size	.L833,0
                         643 	.data
                         644 	.text
                         645 	.align	2
                         646 	.align	2
                         647 ..gh.f.f.1.e.17:
                         648 	.type	..gh.f.f.1.e.17,@object
                         649 	.size	..gh.f.f.1.e.17,0
                         650 	.global	_Fee_30_SmallSector_Ih_StoreMgmtValueFromBuffer
                         651 _Fee_30_SmallSector_Ih_StoreMgmtValueFromBuffer:
00000114 80076100        652 	prepare	{r29,r31},0
00000118 06e8            653 	mov	r6,r29
                         654 --	    .bf
                         655 .LDW44:
                         656 	jarl	_Fee_30_SmallSector_Ph_GetPartitionWriteAlignment,lp
                         656 <EXPANSION BEGIN>
                         656 jarl22 _Fee_30_SmallSector_Ph_GetPartitionWriteAlignment , lp 
0000011a 80ff0000*       656 <EXPANSION END>
0000011e 0af0            657 	mov	r10,ep
00000120 c1f2            658 	shl	1,ep
00000122 320600000000*   659 	mov	_Fee_30_SmallSector_Ih_ReadBuffer,r18
00000128 d2f1            660 	add	r18,ep
0000012a 6088            661 	sld.bu	0[ep],r17
0000012c 5d8f1100        662 	st.b	r17,17[r29]
                         663 --	    .ef
                         664 .LDW54:
                         665 --line189
                         666 ..lin.C.3A.5C_ECU2.5CECU_Rivian_A1.5CTarget.5Crepo_projects.5CpRealEcu.5CcR_LATEST.5Cmake.5Coutput.5Cobjects.5CFee_30_SmallSector_InstanceHandler.10::
                         667 .LDWlin10:
00000130 40067f00        668 	dispose	0,{r29,r31},[lp]
                         669 	.global	___ghs_eofn_Fee_30_SmallSector_Ih_StoreMgmtValueFromBuffer
                         670 ___ghs_eofn_Fee_30_SmallSector_Ih_StoreMgmtValueFromBuffer:
                         671 	.type	_Fee_30_SmallSector_Ih_StoreMgmtValueFromBuffer,@function
                         672 	.size	_Fee_30_SmallSector_Ih_StoreMgmtValueFromBuffer,.-_Fee_30_SmallSector_Ih_StoreMgmtValueFromBuffer
                         673 	.align	2
                         674 
                         675 --_Instance	r29	param
                         676 
                         677 	.data
                         678 	.text
                         679 	.align	2
                         680 	.align	2
                         681 ..gh.f.f.1.e.18:
                         682 	.type	..gh.f.f.1.e.18,@object
                         683 	.size	..gh.f.f.1.e.18,0
                         684 	.global	_Fee_30_SmallSector_Ih_SetInstanceStatus

                                                                      Page 13
                                                              C:\Users\nhuliyap\AppData\Local\Temp\gh_000091s1.s
                         685 _Fee_30_SmallSector_Ih_SetInstanceStatus:
00000134 06f0            686 	mov	r6,ep
                         687 --	    .bf
                         688 .LDW64:
00000136 923b            689 	sst.b	r7,18[ep]
                         690 --	    .ef
                         691 .LDW74:
00000138 7f00            692 	jmp	[lp]
                         693 	.global	___ghs_eofn_Fee_30_SmallSector_Ih_SetInstanceStatus
                         694 ___ghs_eofn_Fee_30_SmallSector_Ih_SetInstanceStatus:
                         695 	.type	_Fee_30_SmallSector_Ih_SetInstanceStatus,@function
                         696 	.size	_Fee_30_SmallSector_Ih_SetInstanceStatus,.-_Fee_30_SmallSector_Ih_SetInstanceStatus
                         697 	.align	2
                         698 
                         699 --_Instance	ep	param
                         700 --_status	r7	param
                         701 
                         702 	.section ".bss","awb"
                         703 .L929:
                         704 	.type	.L929,@object
                         705 	.size	.L929,0
                         706 	.data
                         707 	.text
                         708 	.align	2
                         709 	.align	2
                         710 ..gh.f.f.1.e.19:
                         711 	.type	..gh.f.f.1.e.19,@object
                         712 	.size	..gh.f.f.1.e.19,0
                         713 	.global	_Fee_30_SmallSector_Ih_SetWP1State
                         714 _Fee_30_SmallSector_Ih_SetWP1State:
0000013a 06f0            715 	mov	r6,ep
                         716 --	    .bf
                         717 .LDW84:
0000013c 8e3b            718 	sst.b	r7,14[ep]
                         719 --	    .ef
                         720 .LDW94:
0000013e 7f00            721 	jmp	[lp]
                         722 	.global	___ghs_eofn_Fee_30_SmallSector_Ih_SetWP1State
                         723 ___ghs_eofn_Fee_30_SmallSector_Ih_SetWP1State:
                         724 	.type	_Fee_30_SmallSector_Ih_SetWP1State,@function
                         725 	.size	_Fee_30_SmallSector_Ih_SetWP1State,.-_Fee_30_SmallSector_Ih_SetWP1State
                         726 	.align	2
                         727 
                         728 --_Instance	ep	param
                         729 --_state	r7	param
                         730 
                         731 	.section ".bss","awb"
                         732 .L977:
                         733 	.type	.L977,@object
                         734 	.size	.L977,0
                         735 	.data
                         736 	.text
                         737 	.align	2
                         738 	.align	2
                         739 ..gh.f.f.1.e.20:
                         740 	.type	..gh.f.f.1.e.20,@object
                         741 	.size	..gh.f.f.1.e.20,0
                         742 	.global	_Fee_30_SmallSector_Ih_SetWP2State
                         743 _Fee_30_SmallSector_Ih_SetWP2State:
00000140 06f0            744 	mov	r6,ep
                         745 --	    .bf

                                                                      Page 14
                                                              C:\Users\nhuliyap\AppData\Local\Temp\gh_000091s1.s
                         746 .LDW05:
00000142 8f3b            747 	sst.b	r7,15[ep]
                         748 --	    .ef
                         749 .LDW15:
00000144 7f00            750 	jmp	[lp]
                         751 	.global	___ghs_eofn_Fee_30_SmallSector_Ih_SetWP2State
                         752 ___ghs_eofn_Fee_30_SmallSector_Ih_SetWP2State:
                         753 	.type	_Fee_30_SmallSector_Ih_SetWP2State,@function
                         754 	.size	_Fee_30_SmallSector_Ih_SetWP2State,.-_Fee_30_SmallSector_Ih_SetWP2State
                         755 	.align	2
                         756 
                         757 --_Instance	ep	param
                         758 --_state	r7	param
                         759 
                         760 	.section ".bss","awb"
                         761 .L1025:
                         762 	.type	.L1025,@object
                         763 	.size	.L1025,0
                         764 	.data
                         765 	.text
                         766 	.align	2
                         767 	.align	2
                         768 ..gh.f.f.1.e.21:
                         769 	.type	..gh.f.f.1.e.21,@object
                         770 	.size	..gh.f.f.1.e.21,0
                         771 	.global	_Fee_30_SmallSector_Ih_SetLastPageState
                         772 _Fee_30_SmallSector_Ih_SetLastPageState:
00000146 06f0            773 	mov	r6,ep
                         774 --	    .bf
                         775 .LDW25:
00000148 903b            776 	sst.b	r7,16[ep]
                         777 --	    .ef
                         778 .LDW35:
0000014a 7f00            779 	jmp	[lp]
                         780 	.global	___ghs_eofn_Fee_30_SmallSector_Ih_SetLastPageState
                         781 ___ghs_eofn_Fee_30_SmallSector_Ih_SetLastPageState:
                         782 	.type	_Fee_30_SmallSector_Ih_SetLastPageState,@function
                         783 	.size	_Fee_30_SmallSector_Ih_SetLastPageState,.-_Fee_30_SmallSector_Ih_SetLastPageState
                         784 	.align	2
                         785 
                         786 --_Instance	ep	param
                         787 --_state	r7	param
                         788 
                         789 	.section ".bss","awb"
                         790 .L1073:
                         791 	.type	.L1073,@object
                         792 	.size	.L1073,0
                         793 	.data
                         794 	.text
                         795 	.align	2
                         796 	.align	2
                         797 ..gh.f.f.1.e.22:
                         798 	.type	..gh.f.f.1.e.22,@object
                         799 	.size	..gh.f.f.1.e.22,0
                         800 	.global	_Fee_30_SmallSector_Ih_PrepareNextInstanceProperties
                         801 _Fee_30_SmallSector_Ih_PrepareNextInstanceProperties:
0000014c 8007e100        802 	prepare	{r28,r29,r31},0
00000150 06e8            803 	mov	r6,r29
00000152 07e0            804 	mov	r7,r28
                         805 --	    .bf
                         806 .LDW45:

                                                                      Page 15
                                                              C:\Users\nhuliyap\AppData\Local\Temp\gh_000091s1.s
00000154 663f0100        807 	st.w	r7,0[r6]
                         808 	jarl	_Fee_30_SmallSector_Ph_GetPartitionWriteAlignment,lp
                         808 <EXPANSION BEGIN>
                         808 jarl22 _Fee_30_SmallSector_Ph_GetPartitionWriteAlignment , lp 
00000158 80ff0000*       808 <EXPANSION END>
0000015c dc51            809 	add	r28,r10
0000015e 7d570500        810 	st.w	r10,4[r29]
                         811 --line217
                         812 ..lin.C.3A.5C_ECU2.5CECU_Rivian_A1.5CTarget.5Crepo_projects.5CpRealEcu.5CcR_LATEST.5Cmake.5Coutput.5Cobjects.5CFee_30_SmallSector_InstanceHandler.11::
                         813 .LDWlin11:
                         814 	jarl	_Fee_30_SmallSector_Ph_GetPartitionWriteAlignment,lp
                         814 <EXPANSION BEGIN>
                         814 jarl22 _Fee_30_SmallSector_Ph_GetPartitionWriteAlignment , lp 
00000162 80ff0000*       814 <EXPANSION END>
00000166 c152            815 	shl	1,r10
00000168 dc51            816 	add	r28,r10
0000016a 7d570900        817 	st.w	r10,8[r29]
                         818 --line219
                         819 ..lin.C.3A.5C_ECU2.5CECU_Rivian_A1.5CTarget.5Crepo_projects.5CpRealEcu.5CcR_LATEST.5Cmake.5Coutput.5Cobjects.5CFee_30_SmallSector_InstanceHandler.12::
                         820 .LDWlin12:
                         821 	jarl	_Fee_30_SmallSector_Ph_GetFlsEraseValue,lp
                         821 <EXPANSION BEGIN>
                         821 jarl22 _Fee_30_SmallSector_Ph_GetFlsEraseValue , lp 
0000016e 80ff0000*       821 <EXPANSION END>
00000172 1df0            822 	mov	r29,ep
00000174 9153            823 	sst.b	r10,17[ep]
                         824 --line220
                         825 ..lin.C.3A.5C_ECU2.5CECU_Rivian_A1.5CTarget.5Crepo_projects.5CpRealEcu.5CcR_LATEST.5Cmake.5Coutput.5Cobjects.5CFee_30_SmallSector_InstanceHandler.13::
                         826 .LDWlin13:
00000176 8e03            827 	sst.b	zero,14[ep]
00000178 8f03            828 	sst.b	zero,15[ep]
0000017a 9003            829 	sst.b	zero,16[ep]
0000017c 9203            830 	sst.b	zero,18[ep]
                         831 --	    .ef
                         832 .LDW55:
0000017e 4006ff00        833 	dispose	0,{r28,r29,r31},[lp]
                         834 	.global	___ghs_eofn_Fee_30_SmallSector_Ih_PrepareNextInstanceProperties
                         835 ___ghs_eofn_Fee_30_SmallSector_Ih_PrepareNextInstanceProperties:
                         836 	.type	_Fee_30_SmallSector_Ih_PrepareNextInstanceProperties,@function
                         837 	.size	_Fee_30_SmallSector_Ih_PrepareNextInstanceProperties,.-_Fee_30_SmallSector_Ih_PrepareNextInstanceProperties
                         838 	.align	2
                         839 
                         840 --_Instance	r29	param
                         841 --_StartAddress	r28	param
                         842 
                         843 	.section ".bss","awb"
                         844 .L1121:
                         845 	.type	.L1121,@object
                         846 	.size	.L1121,0
                         847 	.data
                         848 	.text
                         849 	.align	2
                         850 	.align	2
                         851 ..gh.f.f.1.e.23:
                         852 	.type	..gh.f.f.1.e.23,@object
                         853 	.size	..gh.f.f.1.e.23,0
                         854 	.global	_Fee_30_SmallSector_Ih_SetManagementValuesAccordingToStatus
                         855 _Fee_30_SmallSector_Ih_SetManagementValuesAccordingToStatus:
00000182 8007a100        856 	prepare	{r28,r31},0
                         857 --	    .bf
                         858 .LDW65:

                                                                      Page 16
                                                              C:\Users\nhuliyap\AppData\Local\Temp\gh_000091s1.s
00000186 20e6f000        859 	movea	240,zero,r28
                         860 	jarl	_Fee_30_SmallSector_Ih_GetInstanceStatus,lp
                         860 <EXPANSION BEGIN>
                         860 jarl22 _Fee_30_SmallSector_Ih_GetInstanceStatus , lp 
0000018a bfff6cff*       860 <EXPANSION END>
0000018e 6152            861 	cmp	1,r10
00000190 efe71493        862 	cmovne	15,r28,r18
                         863 --line236
                         864 ..lin.C.3A.5C_ECU2.5CECU_Rivian_A1.5CTarget.5Crepo_projects.5CpRealEcu.5CcR_LATEST.5Cmake.5Coutput.5Cobjects.5CFee_30_SmallSector_InstanceHandler.14::
                         865 .LDWlin14:
00000194 46971100        866 	st.b	r18,17[r6]
                         867 --	    .ef
                         868 .LDW75:
00000198 4006bf00        869 	dispose	0,{r28,r31},[lp]
                         870 	.global	___ghs_eofn_Fee_30_SmallSector_Ih_SetManagementValuesAccordingToStatus
                         871 ___ghs_eofn_Fee_30_SmallSector_Ih_SetManagementValuesAccordingToStatus:
                         872 	.type	_Fee_30_SmallSector_Ih_SetManagementValuesAccordingToStatus,@function
                         873 	.size	_Fee_30_SmallSector_Ih_SetManagementValuesAccordingToStatus,.-_Fee_30_SmallSector_Ih_SetManagementValuesAccordingToStatus
                         874 	.align	2
                         875 
                         876 --_Instance	r29	param
                         877 
                         878 	.section ".bss","awb"
                         879 .L1183:
                         880 	.type	.L1183,@object
                         881 	.size	.L1183,0
                         882 	.data
                         883 	.text
                         884 	.align	2
                         885 	.align	2
                         886 ..gh.f.f.1.e.24:
                         887 	.type	..gh.f.f.1.e.24,@object
                         888 	.size	..gh.f.f.1.e.24,0
                         889 	.global	_Fee_30_SmallSector_Ih_SetNegativeJobResultAccordingToStatus
                         890 _Fee_30_SmallSector_Ih_SetNegativeJobResultAccordingToStatus:
0000019c 80072100        891 	prepare	{r31},0
                         892 --	    .bf
                         893 .LDW85:
                         894 	jarl	_Fee_30_SmallSector_Ih_GetInstanceStatus,lp
                         894 <EXPANSION BEGIN>
                         894 jarl22 _Fee_30_SmallSector_Ih_GetInstanceStatus , lp 
000001a0 bfff56ff*       894 <EXPANSION END>
000001a4 e051            895 	cmp	zero,r10
000001a6 820d*           896 	be	.L1208
000001a8 6252            897 	cmp	2,r10
                         898 --line251
                         899 ..lin.C.3A.5C_ECU2.5CECU_Rivian_A1.5CTarget.5Crepo_projects.5CpRealEcu.5CcR_LATEST.5Cmake.5Coutput.5Cobjects.5CFee_30_SmallSector_InstanceHandler.15::
                         900 .LDWlin15:
000001aa e4571453        901 	cmovne	4,r10,r10
000001ae e5570453        902 	cmove	5,r10,r10
000001b2 40063f00        903 	dispose	0,{r31},[lp]
                         904 .L1208:
                         905 --line248
                         906 ..lin.C.3A.5C_ECU2.5CECU_Rivian_A1.5CTarget.5Crepo_projects.5CpRealEcu.5CcR_LATEST.5Cmake.5Coutput.5Cobjects.5CFee_30_SmallSector_InstanceHandler.16::
                         907 .LDWlin16:
000001b6 0552            908 	mov	5,r10
                         909 --	    .ef
                         910 .LDW95:
000001b8 40063f00        911 	dispose	0,{r31},[lp]
                         912 	.global	___ghs_eofn_Fee_30_SmallSector_Ih_SetNegativeJobResultAccordingToStatus
                         913 ___ghs_eofn_Fee_30_SmallSector_Ih_SetNegativeJobResultAccordingToStatus:

                                                                      Page 17
                                                              C:\Users\nhuliyap\AppData\Local\Temp\gh_000091s1.s
                         914 	.type	_Fee_30_SmallSector_Ih_SetNegativeJobResultAccordingToStatus,@function
                         915 	.size	_Fee_30_SmallSector_Ih_SetNegativeJobResultAccordingToStatus,.-_Fee_30_SmallSector_Ih_SetNegativeJobResultAccordingToStatus
                         916 	.align	2
                         917 --_retVal	r10	local
                         918 
                         919 --_Instance	r6	param
                         920 
                         921 	.section ".bss","awb"
                         922 .L1248:
                         923 	.type	.L1248,@object
                         924 	.size	.L1248,0
                         925 	.data
                         926 	.text
                         927 	.align	2
                         928 	.align	2
                         929 ..gh.f.f.1.e.25:
                         930 	.type	..gh.f.f.1.e.25,@object
                         931 	.size	..gh.f.f.1.e.25,0
                         932 	.global	_Fee_30_SmallSector_Ih_DetermineInstanceStatus
                         933 _Fee_30_SmallSector_Ih_DetermineInstanceStatus:
000001bc 8007e170        934 	prepare	{r25,r26,r27,r28,r29,r31},0
                         935 --	    .bf
                         936 .LDW06:
                         937 	jarl	_Fee_30_SmallSector_Ih_GetMgmtValue,lp
                         937 <EXPANSION BEGIN>
                         937 jarl22 _Fee_30_SmallSector_Ih_GetMgmtValue , lp 
000001c0 bfff3cff*       937 <EXPANSION END>
000001c4 0ae0            938 	mov	r10,r28
                         939 --line262
                         940 ..lin.C.3A.5C_ECU2.5CECU_Rivian_A1.5CTarget.5Crepo_projects.5CpRealEcu.5CcR_LATEST.5Cmake.5Coutput.5Cobjects.5CFee_30_SmallSector_InstanceHandler.17::
                         941 .LDWlin17:
                         942 	jarl	_Fee_30_SmallSector_Ih_GetWP1State,lp
                         942 <EXPANSION BEGIN>
                         942 jarl22 _Fee_30_SmallSector_Ih_GetWP1State , lp 
000001c6 bfff3cff*       942 <EXPANSION END>
000001ca 0ad8            943 	mov	r10,r27
                         944 --line263
                         945 ..lin.C.3A.5C_ECU2.5CECU_Rivian_A1.5CTarget.5Crepo_projects.5CpRealEcu.5CcR_LATEST.5Cmake.5Coutput.5Cobjects.5CFee_30_SmallSector_InstanceHandler.18::
                         946 .LDWlin18:
                         947 	jarl	_Fee_30_SmallSector_Ih_GetWP2State,lp
                         947 <EXPANSION BEGIN>
                         947 jarl22 _Fee_30_SmallSector_Ih_GetWP2State , lp 
000001cc bfff3cff*       947 <EXPANSION END>
000001d0 0ad0            948 	mov	r10,r26
                         949 --line264
                         950 ..lin.C.3A.5C_ECU2.5CECU_Rivian_A1.5CTarget.5Crepo_projects.5CpRealEcu.5CcR_LATEST.5Cmake.5Coutput.5Cobjects.5CFee_30_SmallSector_InstanceHandler.19::
                         951 .LDWlin19:
000001d2 06e8            952 	mov	r6,r29
                         953 	jarl	_Fee_30_SmallSector_Ih_GetLastPageState,lp
                         953 <EXPANSION BEGIN>
                         953 jarl22 _Fee_30_SmallSector_Ih_GetLastPageState , lp 
000001d4 bfff3aff*       953 <EXPANSION END>
                         954 --line266
                         955 ..lin.C.3A.5C_ECU2.5CECU_Rivian_A1.5CTarget.5Crepo_projects.5CpRealEcu.5CcR_LATEST.5Cmake.5Coutput.5Cobjects.5CFee_30_SmallSector_InstanceHandler.20::
                         956 .LDWlin20:
000001d8 61da            957 	cmp	1,r27
000001da aa0d*           958 	bne	.L1306
000001dc 61d2            959 	cmp	1,r26
000001de ca1d*           960 	bne	.L1311
000001e0 6152            961 	cmp	1,r10
                         962 --line271

                                                                      Page 18
                                                              C:\Users\nhuliyap\AppData\Local\Temp\gh_000091s1.s
                         963 ..lin.C.3A.5C_ECU2.5CECU_Rivian_A1.5CTarget.5Crepo_projects.5CpRealEcu.5CcR_LATEST.5Cmake.5Coutput.5Cobjects.5CFee_30_SmallSector_InstanceHandler.21::
                         964 .LDWlin21:
000001e2 0092            965 	mov	0,r18
000001e4 9a1d*           966 	bne	.L1311
                         967 .L1310:
                         968 --line299
                         969 ..lin.C.3A.5C_ECU2.5CECU_Rivian_A1.5CTarget.5Crepo_projects.5CpRealEcu.5CcR_LATEST.5Cmake.5Coutput.5Cobjects.5CFee_30_SmallSector_InstanceHandler.22::
                         970 .LDWlin22:
000001e6 5d971200        971 	st.b	r18,18[r29]
                         972 --	    .ef
                         973 .LDW16:
000001ea 4006ff70        974 	dispose	0,{r25,r26,r27,r28,r29,r31},[lp]
                         975 .L1306:
000001ee 0ac8            976 	mov	r10,r25
                         977 --line274
                         978 ..lin.C.3A.5C_ECU2.5CECU_Rivian_A1.5CTarget.5Crepo_projects.5CpRealEcu.5CcR_LATEST.5Cmake.5Coutput.5Cobjects.5CFee_30_SmallSector_InstanceHandler.23::
                         979 .LDWlin23:
000001f0 62da            980 	cmp	2,r27
000001f2 aa15*           981 	bne	.L1311
000001f4 62d2            982 	cmp	2,r26
000001f6 8a15*           983 	bne	.L1311
                         984 --line278
                         985 ..lin.C.3A.5C_ECU2.5CECU_Rivian_A1.5CTarget.5Crepo_projects.5CpRealEcu.5CcR_LATEST.5Cmake.5Coutput.5Cobjects.5CFee_30_SmallSector_InstanceHandler.24::
                         986 .LDWlin24:
000001f8 1c30            987 	mov	r28,r6
                         988 	jarl	_Fee_30_SmallSector_Ih_IsValidManagement,lp
                         988 <EXPANSION BEGIN>
                         988 jarl22 _Fee_30_SmallSector_Ih_IsValidManagement , lp 
000001fa bfff06fe*       988 <EXPANSION END>
000001fe 6152            989 	cmp	1,r10
00000200 ca05*           990 	bne	.L1314
00000202 61ca            991 	cmp	1,r25
                         992 --line281
                         993 ..lin.C.3A.5C_ECU2.5CECU_Rivian_A1.5CTarget.5Crepo_projects.5CpRealEcu.5CcR_LATEST.5Cmake.5Coutput.5Cobjects.5CFee_30_SmallSector_InstanceHandler.25::
                         994 .LDWlin25:
00000204 0a90            995 	mov	r10,r18
00000206 8af5*           996 	bne	.L1310
                         997 .L1314:
                         998 --line284
                         999 ..lin.C.3A.5C_ECU2.5CECU_Rivian_A1.5CTarget.5Crepo_projects.5CpRealEcu.5CcR_LATEST.5Cmake.5Coutput.5Cobjects.5CFee_30_SmallSector_InstanceHandler.26::
                        1000 .LDWlin26:
00000208 1c30           1001 	mov	r28,r6
                        1002 	jarl	_Fee_30_SmallSector_Ih_IsInvalidManagement,lp
                        1002 <EXPANSION BEGIN>
                        1002 jarl22 _Fee_30_SmallSector_Ih_IsInvalidManagement , lp 
0000020a bfff02fe*      1002 <EXPANSION END>
0000020e 6152           1003 	cmp	1,r10
                        1004 --line286
                        1005 ..lin.C.3A.5C_ECU2.5CECU_Rivian_A1.5CTarget.5Crepo_projects.5CpRealEcu.5CcR_LATEST.5Cmake.5Coutput.5Cobjects.5CFee_30_SmallSector_InstanceHandler.27::
                        1006 .LDWlin27:
00000210 e3d71493       1007 	cmovne	3,r26,r18
00000214 95ed*          1008 	br	.L1310
                        1009 .L1311:
                        1010 --line296
                        1011 ..lin.C.3A.5C_ECU2.5CECU_Rivian_A1.5CTarget.5Crepo_projects.5CpRealEcu.5CcR_LATEST.5Cmake.5Coutput.5Cobjects.5CFee_30_SmallSector_InstanceHandler.28::
                        1012 .LDWlin28:
00000216 0392           1013 	mov	3,r18
00000218 f5e5*          1014 	br	.L1310
                        1015 	.global	___ghs_eofn_Fee_30_SmallSector_Ih_DetermineInstanceStatus
                        1016 ___ghs_eofn_Fee_30_SmallSector_Ih_DetermineInstanceStatus:
                        1017 	.type	_Fee_30_SmallSector_Ih_DetermineInstanceStatus,@function

                                                                      Page 19
                                                              C:\Users\nhuliyap\AppData\Local\Temp\gh_000091s1.s
                        1018 	.size	_Fee_30_SmallSector_Ih_DetermineInstanceStatus,.-_Fee_30_SmallSector_Ih_DetermineInstanceStatus
                        1019 	.align	2
                        1020 --_status	r18	local
                        1021 --_mgmtValue	r28	local
                        1022 --_wp1State	r27	local
                        1023 --_wp2State	r26	local
                        1024 --_lastPageState	r25	local
                        1025 
                        1026 --_Instance	r29	param
                        1027 
                        1028 	.section ".bss","awb"
                        1029 .L1437:
                        1030 	.type	.L1437,@object
                        1031 	.size	.L1437,0
                        1032 	.data
                        1033 	.text
                        1034 	.align	2
                        1035 	.align	2
                        1036 ..gh.f.f.1.e.26:
                        1037 	.type	..gh.f.f.1.e.26,@object
                        1038 	.size	..gh.f.f.1.e.26,0
                        1039 	.global	_Fee_30_SmallSector_Ih_GetStartPatternFromBuffer
                        1040 _Fee_30_SmallSector_Ih_GetStartPatternFromBuffer:
0000021a 8007e170       1041 	prepare	{r25,r26,r27,r28,r29,r31},0
0000021e 06c8           1042 	mov	r6,r25
                        1043 --	    .bf
                        1044 .LDW26:
00000220 00e2           1045 	mov	0,r28
00000222 1cd8           1046 	mov	r28,r27
00000224 1bd0           1047 	mov	r27,r26
00000226 1ae8           1048 	mov	r26,r29
00000228 d515*          1049 	br	.L1557
                        1050 .L1556:
                        1051 --line349
                        1052 ..lin.C.3A.5C_ECU2.5CECU_Rivian_A1.5CTarget.5Crepo_projects.5CpRealEcu.5CcR_LATEST.5Cmake.5Coutput.5Cobjects.5CFee_30_SmallSector_InstanceHandler.29::
                        1053 .LDWlin29:
0000022a 3e0600000000*  1054 	mov	_Fee_30_SmallSector_Ih_ReadBuffer,ep
00000230 ddf1           1055 	add	r29,ep
00000232 60e0           1056 	sld.bu	0[ep],r28
00000234 1c0656ff       1057 	addi	-170,r28,zero
                        1058 --line352
                        1059 ..lin.C.3A.5C_ECU2.5CECU_Rivian_A1.5CTarget.5Crepo_projects.5CpRealEcu.5CcR_LATEST.5Cmake.5Coutput.5Cobjects.5CFee_30_SmallSector_InstanceHandler.30::
                        1060 .LDWlin30:
00000238 e1df04db       1061 	cmove	1,r27,r27
0000023c e2e704e3       1062 	cmove	2,r28,r28
00000240 f205*          1063 	be	.L1555
                        1064 --line355
                        1065 ..lin.C.3A.5C_ECU2.5CECU_Rivian_A1.5CTarget.5Crepo_projects.5CpRealEcu.5CcR_LATEST.5Cmake.5Coutput.5Cobjects.5CFee_30_SmallSector_InstanceHandler.31::
                        1066 .LDWlin31:
                        1067 	jarl	_Fee_30_SmallSector_Ph_GetFlsEraseValue,lp
                        1067 <EXPANSION BEGIN>
                        1067 jarl22 _Fee_30_SmallSector_Ph_GetFlsEraseValue , lp 
00000242 80ff0000*      1067 <EXPANSION END>
                        1068 --line355
                        1069 ..lin.C.3A.5C_ECU2.5CECU_Rivian_A1.5CTarget.5Crepo_projects.5CpRealEcu.5CcR_LATEST.5Cmake.5Coutput.5Cobjects.5CFee_30_SmallSector_InstanceHandler.32::
                        1070 .LDWlin32:
00000246 01d2           1071 	mov	1,r26
00000248 eae1           1072 	cmp	r10,r28
0000024a ba15*          1073 	bne	.L1571
0000024c 01e2           1074 	mov	1,r28
                        1075 .L1555:

                                                                      Page 20
                                                              C:\Users\nhuliyap\AppData\Local\Temp\gh_000091s1.s
                        1076 --line346
                        1077 ..lin.C.3A.5C_ECU2.5CECU_Rivian_A1.5CTarget.5Crepo_projects.5CpRealEcu.5CcR_LATEST.5Cmake.5Coutput.5Cobjects.5CFee_30_SmallSector_InstanceHandler.33::
                        1078 .LDWlin33:
0000024e 41ea           1079 	add	1,r29
00000250 dd00           1080 	zxh	r29
                        1081 .L1557:
                        1082 	jarl	_Fee_30_SmallSector_Ph_GetPartitionWriteAlignment,lp
                        1082 <EXPANSION BEGIN>
                        1082 jarl22 _Fee_30_SmallSector_Ph_GetPartitionWriteAlignment , lp 
00000252 80ff0000*      1082 <EXPANSION END>
00000256 eae9           1083 	cmp	r10,r29
00000258 91ed*          1084 	bl	.L1556
                        1085 --line368
                        1086 ..lin.C.3A.5C_ECU2.5CECU_Rivian_A1.5CTarget.5Crepo_projects.5CpRealEcu.5CcR_LATEST.5Cmake.5Coutput.5Cobjects.5CFee_30_SmallSector_InstanceHandler.34::
                        1087 .LDWlin34:
0000025a 3bd1           1088 	xor	r27,r26
0000025c a20d*          1089 	be	.L1571
                        1090 --line373
                        1091 ..lin.C.3A.5C_ECU2.5CECU_Rivian_A1.5CTarget.5Crepo_projects.5CpRealEcu.5CcR_LATEST.5Cmake.5Coutput.5Cobjects.5CFee_30_SmallSector_InstanceHandler.35::
                        1092 .LDWlin35:
0000025e 1930           1093 	mov	r25,r6
                        1094 	jarl	_Fee_30_SmallSector_Ih_GetWP1State,lp
                        1094 <EXPANSION BEGIN>
                        1094 jarl22 _Fee_30_SmallSector_Ih_GetWP1State , lp 
00000260 bfffa2fe*      1094 <EXPANSION END>
00000264 6352           1095 	cmp	3,r10
00000266 ea05*          1096 	bne	.L1568
                        1097 --line375
                        1098 ..lin.C.3A.5C_ECU2.5CECU_Rivian_A1.5CTarget.5Crepo_projects.5CpRealEcu.5CcR_LATEST.5Cmake.5Coutput.5Cobjects.5CFee_30_SmallSector_InstanceHandler.36::
                        1099 .LDWlin36:
00000268 61e2           1100 	cmp	1,r28
0000026a e3e704e3       1101 	cmove	3,r28,r28
0000026e a505*          1102 	br	.L1568
                        1103 .L1571:
                        1104 --line378
                        1105 ..lin.C.3A.5C_ECU2.5CECU_Rivian_A1.5CTarget.5Crepo_projects.5CpRealEcu.5CcR_LATEST.5Cmake.5Coutput.5Cobjects.5CFee_30_SmallSector_InstanceHandler.37::
                        1106 .LDWlin37:
00000270 03e2           1107 	mov	3,r28
                        1108 .L1568:
00000272 1c50           1109 	mov	r28,r10
                        1110 --	    .ef
                        1111 .LDW36:
00000274 4006ff70       1112 	dispose	0,{r25,r26,r27,r28,r29,r31},[lp]
                        1113 	.global	___ghs_eofn_Fee_30_SmallSector_Ih_GetStartPatternFromBuffer
                        1114 ___ghs_eofn_Fee_30_SmallSector_Ih_GetStartPatternFromBuffer:
                        1115 	.type	_Fee_30_SmallSector_Ih_GetStartPatternFromBuffer,@function
                        1116 	.size	_Fee_30_SmallSector_Ih_GetStartPatternFromBuffer,.-_Fee_30_SmallSector_Ih_GetStartPatternFromBuffer
                        1117 	.align	2
                        1118 --_LoopCounter	r29	local
                        1119 --_retVal	r28	local
                        1120 --_isPatternValid	r27	local
                        1121 --_isPatternBlank	r26	local
                        1122 
                        1123 --_Instance	r25	param
                        1124 
                        1125 	.data
                        1126 	.text
                        1127 	.align	2
                        1128 	.align	2
                        1129 ..gh.f.f.1.e.27:
                        1130 	.type	..gh.f.f.1.e.27,@object

                                                                      Page 21
                                                              C:\Users\nhuliyap\AppData\Local\Temp\gh_000091s1.s
                        1131 	.size	..gh.f.f.1.e.27,0
                        1132 	.global	_Fee_30_SmallSector_Ih_GetEndPatternFromBuffer
                        1133 _Fee_30_SmallSector_Ih_GetEndPatternFromBuffer:
00000278 8007e170       1134 	prepare	{r25,r26,r27,r28,r29,r31},0
0000027c 06c8           1135 	mov	r6,r25
                        1136 --	    .bf
                        1137 .LDW46:
0000027e 00e2           1138 	mov	0,r28
00000280 1cd8           1139 	mov	r28,r27
00000282 1bd0           1140 	mov	r27,r26
                        1141 	jarl	_Fee_30_SmallSector_Ph_GetPartitionWriteAlignment,lp
                        1141 <EXPANSION BEGIN>
                        1141 jarl22 _Fee_30_SmallSector_Ph_GetPartitionWriteAlignment , lp 
00000284 80ff0000*      1141 <EXPANSION END>
00000288 0ae8           1142 	mov	r10,r29
                        1143 --line393
                        1144 ..lin.C.3A.5C_ECU2.5CECU_Rivian_A1.5CTarget.5Crepo_projects.5CpRealEcu.5CcR_LATEST.5Cmake.5Coutput.5Cobjects.5CFee_30_SmallSector_InstanceHandler.38::
                        1145 .LDWlin38:
0000028a d515*          1146 	br	.L1836
                        1147 .L1835:
                        1148 --line396
                        1149 ..lin.C.3A.5C_ECU2.5CECU_Rivian_A1.5CTarget.5Crepo_projects.5CpRealEcu.5CcR_LATEST.5Cmake.5Coutput.5Cobjects.5CFee_30_SmallSector_InstanceHandler.39::
                        1150 .LDWlin39:
0000028c 3e0600000000*  1151 	mov	_Fee_30_SmallSector_Ih_ReadBuffer,ep
00000292 ddf1           1152 	add	r29,ep
00000294 60e0           1153 	sld.bu	0[ep],r28
00000296 1c0656ff       1154 	addi	-170,r28,zero
                        1155 --line399
                        1156 ..lin.C.3A.5C_ECU2.5CECU_Rivian_A1.5CTarget.5Crepo_projects.5CpRealEcu.5CcR_LATEST.5Cmake.5Coutput.5Cobjects.5CFee_30_SmallSector_InstanceHandler.40::
                        1157 .LDWlin40:
0000029a e1df04db       1158 	cmove	1,r27,r27
0000029e e2e704e3       1159 	cmove	2,r28,r28
000002a2 f205*          1160 	be	.L1834
                        1161 --line402
                        1162 ..lin.C.3A.5C_ECU2.5CECU_Rivian_A1.5CTarget.5Crepo_projects.5CpRealEcu.5CcR_LATEST.5Cmake.5Coutput.5Cobjects.5CFee_30_SmallSector_InstanceHandler.41::
                        1163 .LDWlin41:
                        1164 	jarl	_Fee_30_SmallSector_Ph_GetFlsEraseValue,lp
                        1164 <EXPANSION BEGIN>
                        1164 jarl22 _Fee_30_SmallSector_Ph_GetFlsEraseValue , lp 
000002a4 80ff0000*      1164 <EXPANSION END>
                        1165 --line402
                        1166 ..lin.C.3A.5C_ECU2.5CECU_Rivian_A1.5CTarget.5Crepo_projects.5CpRealEcu.5CcR_LATEST.5Cmake.5Coutput.5Cobjects.5CFee_30_SmallSector_InstanceHandler.42::
                        1167 .LDWlin42:
000002a8 01d2           1168 	mov	1,r26
000002aa eae1           1169 	cmp	r10,r28
000002ac ca15*          1170 	bne	.L1850
000002ae 01e2           1171 	mov	1,r28
                        1172 .L1834:
                        1173 --line393
                        1174 ..lin.C.3A.5C_ECU2.5CECU_Rivian_A1.5CTarget.5Crepo_projects.5CpRealEcu.5CcR_LATEST.5Cmake.5Coutput.5Cobjects.5CFee_30_SmallSector_InstanceHandler.43::
                        1175 .LDWlin43:
000002b0 41ea           1176 	add	1,r29
000002b2 dd00           1177 	zxh	r29
                        1178 .L1836:
                        1179 	jarl	_Fee_30_SmallSector_Ph_GetPartitionWriteAlignment,lp
                        1179 <EXPANSION BEGIN>
                        1179 jarl22 _Fee_30_SmallSector_Ph_GetPartitionWriteAlignment , lp 
000002b4 80ff0000*      1179 <EXPANSION END>
000002b8 c152           1180 	shl	1,r10
000002ba eae9           1181 	cmp	r10,r29
000002bc 86ed*          1182 	blt	.L1835

                                                                      Page 22
                                                              C:\Users\nhuliyap\AppData\Local\Temp\gh_000091s1.s
                        1183 --line415
                        1184 ..lin.C.3A.5C_ECU2.5CECU_Rivian_A1.5CTarget.5Crepo_projects.5CpRealEcu.5CcR_LATEST.5Cmake.5Coutput.5Cobjects.5CFee_30_SmallSector_InstanceHandler.44::
                        1185 .LDWlin44:
000002be 3bd1           1186 	xor	r27,r26
000002c0 a20d*          1187 	be	.L1850
                        1188 --line420
                        1189 ..lin.C.3A.5C_ECU2.5CECU_Rivian_A1.5CTarget.5Crepo_projects.5CpRealEcu.5CcR_LATEST.5Cmake.5Coutput.5Cobjects.5CFee_30_SmallSector_InstanceHandler.45::
                        1190 .LDWlin45:
000002c2 1930           1191 	mov	r25,r6
                        1192 	jarl	_Fee_30_SmallSector_Ih_GetWP2State,lp
                        1192 <EXPANSION BEGIN>
                        1192 jarl22 _Fee_30_SmallSector_Ih_GetWP2State , lp 
000002c4 bfff44fe*      1192 <EXPANSION END>
000002c8 6352           1193 	cmp	3,r10
000002ca ea05*          1194 	bne	.L1847
                        1195 --line422
                        1196 ..lin.C.3A.5C_ECU2.5CECU_Rivian_A1.5CTarget.5Crepo_projects.5CpRealEcu.5CcR_LATEST.5Cmake.5Coutput.5Cobjects.5CFee_30_SmallSector_InstanceHandler.46::
                        1197 .LDWlin46:
000002cc 61e2           1198 	cmp	1,r28
000002ce e3e704e3       1199 	cmove	3,r28,r28
000002d2 a505*          1200 	br	.L1847
                        1201 .L1850:
                        1202 --line425
                        1203 ..lin.C.3A.5C_ECU2.5CECU_Rivian_A1.5CTarget.5Crepo_projects.5CpRealEcu.5CcR_LATEST.5Cmake.5Coutput.5Cobjects.5CFee_30_SmallSector_InstanceHandler.47::
                        1204 .LDWlin47:
000002d4 03e2           1205 	mov	3,r28
                        1206 .L1847:
000002d6 1c50           1207 	mov	r28,r10
                        1208 --	    .ef
                        1209 .LDW56:
000002d8 4006ff70       1210 	dispose	0,{r25,r26,r27,r28,r29,r31},[lp]
                        1211 	.global	___ghs_eofn_Fee_30_SmallSector_Ih_GetEndPatternFromBuffer
                        1212 ___ghs_eofn_Fee_30_SmallSector_Ih_GetEndPatternFromBuffer:
                        1213 	.type	_Fee_30_SmallSector_Ih_GetEndPatternFromBuffer,@function
                        1214 	.size	_Fee_30_SmallSector_Ih_GetEndPatternFromBuffer,.-_Fee_30_SmallSector_Ih_GetEndPatternFromBuffer
                        1215 	.align	2
                        1216 --_LoopCounter	r29	local
                        1217 --_retVal	r28	local
                        1218 --_isPatternValid	r27	local
                        1219 --_isPatternBlank	r26	local
                        1220 
                        1221 --_Instance	r25	param
                        1222 
                        1223 	.data
                        1224 	.text
                        1225 	.align	2
                        1226 	.align	2
                        1227 ..gh.f.f.1.e.28:
                        1228 	.type	..gh.f.f.1.e.28,@object
                        1229 	.size	..gh.f.f.1.e.28,0
                        1230 	.global	_Fee_30_SmallSector_Ih_GetPageStatusFromBuffer
                        1231 _Fee_30_SmallSector_Ih_GetPageStatusFromBuffer:
000002dc 8007e110       1232 	prepare	{r27,r28,r29,r31},0
                        1233 --	    .bf
                        1234 .LDW66:
000002e0 01da           1235 	mov	1,r27
000002e2 00ea           1236 	mov	0,r29
000002e4 e50d*          1237 	br	.L2108
                        1238 .L2107:
                        1239 --line440
                        1240 ..lin.C.3A.5C_ECU2.5CECU_Rivian_A1.5CTarget.5Crepo_projects.5CpRealEcu.5CcR_LATEST.5Cmake.5Coutput.5Cobjects.5CFee_30_SmallSector_InstanceHandler.48::

                                                                      Page 23
                                                              C:\Users\nhuliyap\AppData\Local\Temp\gh_000091s1.s
                        1241 .LDWlin48:
000002e6 40e60000*      1242 	movhi	hi(_Fee_30_SmallSector_Ih_ReadBuffer),zero,r28
000002ea dde1           1243 	add	r29,r28
                        1244 	jarl	_Fee_30_SmallSector_Ph_GetFlsEraseValue,lp
                        1244 <EXPANSION BEGIN>
                        1244 jarl22 _Fee_30_SmallSector_Ph_GetFlsEraseValue , lp 
000002ec 80ff0000*      1244 <EXPANSION END>
000002f0 9c4f0100*      1245 	ld.bu	lo(_Fee_30_SmallSector_Ih_ReadBuffer)[r28],r9
000002f4 ea49           1246 	cmp	r10,r9
                        1247 --line443
                        1248 ..lin.C.3A.5C_ECU2.5CECU_Rivian_A1.5CTarget.5Crepo_projects.5CpRealEcu.5CcR_LATEST.5Cmake.5Coutput.5Cobjects.5CFee_30_SmallSector_InstanceHandler.49::
                        1249 .LDWlin49:
000002f6 e3df14db       1250 	cmovne	3,r27,r27
000002fa fa05*          1251 	bne	.L2111
                        1252 --line437
                        1253 ..lin.C.3A.5C_ECU2.5CECU_Rivian_A1.5CTarget.5Crepo_projects.5CpRealEcu.5CcR_LATEST.5Cmake.5Coutput.5Cobjects.5CFee_30_SmallSector_InstanceHandler.50::
                        1254 .LDWlin50:
000002fc 41ea           1255 	add	1,r29
000002fe dd00           1256 	zxh	r29
                        1257 .L2108:
                        1258 	jarl	_Fee_30_SmallSector_Ph_GetPartitionWriteAlignment,lp
                        1258 <EXPANSION BEGIN>
                        1258 jarl22 _Fee_30_SmallSector_Ph_GetPartitionWriteAlignment , lp 
00000300 80ff0000*      1258 <EXPANSION END>
00000304 eae9           1259 	cmp	r10,r29
00000306 81f5*          1260 	bl	.L2107
                        1261 .L2111:
                        1262 --line447
                        1263 ..lin.C.3A.5C_ECU2.5CECU_Rivian_A1.5CTarget.5Crepo_projects.5CpRealEcu.5CcR_LATEST.5Cmake.5Coutput.5Cobjects.5CFee_30_SmallSector_InstanceHandler.51::
                        1264 .LDWlin51:
00000308 1b50           1265 	mov	r27,r10
                        1266 --	    .ef
                        1267 .LDW76:
0000030a 4006ff10       1268 	dispose	0,{r27,r28,r29,r31},[lp]
                        1269 	.global	___ghs_eofn_Fee_30_SmallSector_Ih_GetPageStatusFromBuffer
                        1270 ___ghs_eofn_Fee_30_SmallSector_Ih_GetPageStatusFromBuffer:
                        1271 	.type	_Fee_30_SmallSector_Ih_GetPageStatusFromBuffer,@function
                        1272 	.size	_Fee_30_SmallSector_Ih_GetPageStatusFromBuffer,.-_Fee_30_SmallSector_Ih_GetPageStatusFromBuffer
                        1273 	.align	2
                        1274 --_LoopCounter	r29	local
                        1275 --_retVal	r27	local
                        1276 
                        1277 	.data
                        1278 	.text
                        1279 	.align	2
                        1280 	.align	2
                        1281 ..gh.f.f.1.e.29:
                        1282 	.type	..gh.f.f.1.e.29,@object
                        1283 	.size	..gh.f.f.1.e.29,0
                        1284 	.global	_Fee_30_SmallSector_Ih_BlankCheckStartPattern
                        1285 _Fee_30_SmallSector_Ih_BlankCheckStartPattern:
0000030e 80076100       1286 	prepare	{r29,r31},0
00000312 06e8           1287 	mov	r6,r29
                        1288 --	    .bf
                        1289 .LDW86:
                        1290 	jarl	_Fee_30_SmallSector_Ph_GetPartitionWriteAlignment,lp
                        1290 <EXPANSION BEGIN>
                        1290 jarl22 _Fee_30_SmallSector_Ph_GetPartitionWriteAlignment , lp 
00000314 80ff0000*      1290 <EXPANSION END>
00000318 0a38           1291 	mov	r10,r7
0000031a 1d30           1292 	mov	r29,r6

                                                                      Page 24
                                                              C:\Users\nhuliyap\AppData\Local\Temp\gh_000091s1.s
                        1293 	jarl	_Fee_30_SmallSector_Ih_GetInstanceStartAddress,lp
                        1293 <EXPANSION BEGIN>
                        1293 jarl22 _Fee_30_SmallSector_Ih_GetInstanceStartAddress , lp 
0000031c bfffa2fd*      1293 <EXPANSION END>
00000320 0a30           1294 	mov	r10,r6
                        1295 	jarl	_Fee_30_SmallSector_Fls_BlankCheck,lp
                        1295 <EXPANSION BEGIN>
                        1295 jarl22 _Fee_30_SmallSector_Fls_BlankCheck , lp 
00000322 80ff0000*      1295 <EXPANSION END>
                        1296 --	    .ef
                        1297 .LDW96:
                        1298 --line451
                        1299 ..lin.C.3A.5C_ECU2.5CECU_Rivian_A1.5CTarget.5Crepo_projects.5CpRealEcu.5CcR_LATEST.5Cmake.5Coutput.5Cobjects.5CFee_30_SmallSector_InstanceHandler.52::
                        1300 .LDWlin52:
00000326 40067f00       1301 	dispose	0,{r29,r31},[lp]
                        1302 	.global	___ghs_eofn_Fee_30_SmallSector_Ih_BlankCheckStartPattern
                        1303 ___ghs_eofn_Fee_30_SmallSector_Ih_BlankCheckStartPattern:
                        1304 	.type	_Fee_30_SmallSector_Ih_BlankCheckStartPattern,@function
                        1305 	.size	_Fee_30_SmallSector_Ih_BlankCheckStartPattern,.-_Fee_30_SmallSector_Ih_BlankCheckStartPattern
                        1306 	.align	2
                        1307 
                        1308 --_Instance	r29	param
                        1309 
                        1310 	.section ".bss","awb"
                        1311 .L2244:
                        1312 	.type	.L2244,@object
                        1313 	.size	.L2244,0
                        1314 	.data
                        1315 	.text
                        1316 	.align	2
                        1317 	.align	2
                        1318 ..gh.f.f.1.e.30:
                        1319 	.type	..gh.f.f.1.e.30,@object
                        1320 	.size	..gh.f.f.1.e.30,0
                        1321 	.global	_Fee_30_SmallSector_Ih_BlankCheckEndPattern
                        1322 _Fee_30_SmallSector_Ih_BlankCheckEndPattern:
0000032a 80076100       1323 	prepare	{r29,r31},0
0000032e 06e8           1324 	mov	r6,r29
                        1325 --	    .bf
                        1326 .LDW07:
                        1327 	jarl	_Fee_30_SmallSector_Ph_GetPartitionWriteAlignment,lp
                        1327 <EXPANSION BEGIN>
                        1327 jarl22 _Fee_30_SmallSector_Ph_GetPartitionWriteAlignment , lp 
00000330 80ff0000*      1327 <EXPANSION END>
00000334 0a38           1328 	mov	r10,r7
00000336 1d30           1329 	mov	r29,r6
                        1330 	jarl	_Fee_30_SmallSector_Ih_GetEndPatternAddress,lp
                        1330 <EXPANSION BEGIN>
                        1330 jarl22 _Fee_30_SmallSector_Ih_GetEndPatternAddress , lp 
00000338 bfff8cfd*      1330 <EXPANSION END>
0000033c 0a30           1331 	mov	r10,r6
                        1332 	jarl	_Fee_30_SmallSector_Fls_BlankCheck,lp
                        1332 <EXPANSION BEGIN>
                        1332 jarl22 _Fee_30_SmallSector_Fls_BlankCheck , lp 
0000033e 80ff0000*      1332 <EXPANSION END>
                        1333 --	    .ef
                        1334 .LDW17:
                        1335 --line456
                        1336 ..lin.C.3A.5C_ECU2.5CECU_Rivian_A1.5CTarget.5Crepo_projects.5CpRealEcu.5CcR_LATEST.5Cmake.5Coutput.5Cobjects.5CFee_30_SmallSector_InstanceHandler.53::
                        1337 .LDWlin53:
00000342 40067f00       1338 	dispose	0,{r29,r31},[lp]

                                                                      Page 25
                                                              C:\Users\nhuliyap\AppData\Local\Temp\gh_000091s1.s
                        1339 	.global	___ghs_eofn_Fee_30_SmallSector_Ih_BlankCheckEndPattern
                        1340 ___ghs_eofn_Fee_30_SmallSector_Ih_BlankCheckEndPattern:
                        1341 	.type	_Fee_30_SmallSector_Ih_BlankCheckEndPattern,@function
                        1342 	.size	_Fee_30_SmallSector_Ih_BlankCheckEndPattern,.-_Fee_30_SmallSector_Ih_BlankCheckEndPattern
                        1343 	.align	2
                        1344 
                        1345 --_Instance	r29	param
                        1346 
                        1347 	.section ".bss","awb"
                        1348 .L2292:
                        1349 	.type	.L2292,@object
                        1350 	.size	.L2292,0
                        1351 	.data
                        1352 	.text
                        1353 	.align	2
                        1354 	.align	2
                        1355 ..gh.f.f.1.e.31:
                        1356 	.type	..gh.f.f.1.e.31,@object
                        1357 	.size	..gh.f.f.1.e.31,0
                        1358 	.global	_Fee_30_SmallSector_Ih_BlankCheckLastPage
                        1359 _Fee_30_SmallSector_Ih_BlankCheckLastPage:
00000346 8007e100       1360 	prepare	{r28,r29,r31},0
0000034a 06e8           1361 	mov	r6,r29
                        1362 --	    .bf
                        1363 .LDW27:
                        1364 	jarl	_Fee_30_SmallSector_Ph_GetPartitionWriteAlignment,lp
                        1364 <EXPANSION BEGIN>
                        1364 jarl22 _Fee_30_SmallSector_Ph_GetPartitionWriteAlignment , lp 
0000034c 80ff0000*      1364 <EXPANSION END>
00000350 0ae0           1365 	mov	r10,r28
00000352 1d30           1366 	mov	r29,r6
                        1367 	jarl	_Fee_30_SmallSector_Ih_GetEndAddress,lp
                        1367 <EXPANSION BEGIN>
                        1367 jarl22 _Fee_30_SmallSector_Ih_GetEndAddress , lp 
00000354 bfff7cfd*      1367 <EXPANSION END>
00000358 0ae8           1368 	mov	r10,r29
                        1369 	jarl	_Fee_30_SmallSector_Ph_GetPartitionWriteAlignment,lp
                        1369 <EXPANSION BEGIN>
                        1369 jarl22 _Fee_30_SmallSector_Ph_GetPartitionWriteAlignment , lp 
0000035a 80ff0000*      1369 <EXPANSION END>
0000035e 1d30           1370 	mov	r29,r6
00000360 aa31           1371 	sub	r10,r6
00000362 1c38           1372 	mov	r28,r7
                        1373 	jarl	_Fee_30_SmallSector_Fls_BlankCheck,lp
                        1373 <EXPANSION BEGIN>
                        1373 jarl22 _Fee_30_SmallSector_Fls_BlankCheck , lp 
00000364 80ff0000*      1373 <EXPANSION END>
                        1374 --	    .ef
                        1375 .LDW37:
                        1376 --line461
                        1377 ..lin.C.3A.5C_ECU2.5CECU_Rivian_A1.5CTarget.5Crepo_projects.5CpRealEcu.5CcR_LATEST.5Cmake.5Coutput.5Cobjects.5CFee_30_SmallSector_InstanceHandler.54::
                        1378 .LDWlin54:
00000368 4006ff00       1379 	dispose	0,{r28,r29,r31},[lp]
                        1380 	.global	___ghs_eofn_Fee_30_SmallSector_Ih_BlankCheckLastPage
                        1381 ___ghs_eofn_Fee_30_SmallSector_Ih_BlankCheckLastPage:
                        1382 	.type	_Fee_30_SmallSector_Ih_BlankCheckLastPage,@function
                        1383 	.size	_Fee_30_SmallSector_Ih_BlankCheckLastPage,.-_Fee_30_SmallSector_Ih_BlankCheckLastPage
                        1384 	.align	2
                        1385 
                        1386 --_Instance	r29	param
                        1387 

                                                                      Page 26
                                                              C:\Users\nhuliyap\AppData\Local\Temp\gh_000091s1.s
                        1388 	.section ".bss","awb"
                        1389 .L2340:
                        1390 	.type	.L2340,@object
                        1391 	.size	.L2340,0
                        1392 	.data
                        1393 	.text
                        1394 	.align	2
                        1395 	.align	2
                        1396 ..gh.f.f.1.e.32:
                        1397 	.type	..gh.f.f.1.e.32,@object
                        1398 	.size	..gh.f.f.1.e.32,0
                        1399 	.global	_Fee_30_SmallSector_Ih_ReadLastPage
                        1400 _Fee_30_SmallSector_Ih_ReadLastPage:
0000036c 8007e100       1401 	prepare	{r28,r29,r31},0
00000370 06e8           1402 	mov	r6,r29
                        1403 --	    .bf
                        1404 .LDW47:
                        1405 	jarl	_Fee_30_SmallSector_Ph_GetPartitionWriteAlignment,lp
                        1405 <EXPANSION BEGIN>
                        1405 jarl22 _Fee_30_SmallSector_Ph_GetPartitionWriteAlignment , lp 
00000372 80ff0000*      1405 <EXPANSION END>
00000376 0ae0           1406 	mov	r10,r28
00000378 1d30           1407 	mov	r29,r6
                        1408 	jarl	_Fee_30_SmallSector_Ih_GetEndAddress,lp
                        1408 <EXPANSION BEGIN>
                        1408 jarl22 _Fee_30_SmallSector_Ih_GetEndAddress , lp 
0000037a bfff56fd*      1408 <EXPANSION END>
0000037e 0ae8           1409 	mov	r10,r29
                        1410 	jarl	_Fee_30_SmallSector_Ph_GetPartitionWriteAlignment,lp
                        1410 <EXPANSION BEGIN>
                        1410 jarl22 _Fee_30_SmallSector_Ph_GetPartitionWriteAlignment , lp 
00000380 80ff0000*      1410 <EXPANSION END>
00000384 1d30           1411 	mov	r29,r6
00000386 aa31           1412 	sub	r10,r6
00000388 1c40           1413 	mov	r28,r8
0000038a 270600000000*  1414 	mov	_Fee_30_SmallSector_Ih_ReadBuffer,r7
                        1415 	jarl	_Fee_30_SmallSector_Fls_Read,lp
                        1415 <EXPANSION BEGIN>
                        1415 jarl22 _Fee_30_SmallSector_Fls_Read , lp 
00000390 80ff0000*      1415 <EXPANSION END>
                        1416 --	    .ef
                        1417 .LDW57:
                        1418 --line467
                        1419 ..lin.C.3A.5C_ECU2.5CECU_Rivian_A1.5CTarget.5Crepo_projects.5CpRealEcu.5CcR_LATEST.5Cmake.5Coutput.5Cobjects.5CFee_30_SmallSector_InstanceHandler.55::
                        1420 .LDWlin55:
00000394 4006ff00       1421 	dispose	0,{r28,r29,r31},[lp]
                        1422 	.global	___ghs_eofn_Fee_30_SmallSector_Ih_ReadLastPage
                        1423 ___ghs_eofn_Fee_30_SmallSector_Ih_ReadLastPage:
                        1424 	.type	_Fee_30_SmallSector_Ih_ReadLastPage,@function
                        1425 	.size	_Fee_30_SmallSector_Ih_ReadLastPage,.-_Fee_30_SmallSector_Ih_ReadLastPage
                        1426 	.align	2
                        1427 
                        1428 --_Instance	r29	param
                        1429 
                        1430 	.data
                        1431 	.text
                        1432 	.align	2
                        1433 	.align	2
                        1434 ..gh.f.f.1.e.33:
                        1435 	.type	..gh.f.f.1.e.33,@object
                        1436 	.size	..gh.f.f.1.e.33,0

                                                                      Page 27
                                                              C:\Users\nhuliyap\AppData\Local\Temp\gh_000091s1.s
                        1437 	.global	_Fee_30_SmallSector_Ih_ReadAllMgmt
                        1438 _Fee_30_SmallSector_Ih_ReadAllMgmt:
00000398 8007e100       1439 	prepare	{r28,r29,r31},0
0000039c 06e8           1440 	mov	r6,r29
                        1441 --	    .bf
                        1442 .LDW67:
                        1443 	jarl	_Fee_30_SmallSector_Ph_GetPartitionReadAlignment,lp
                        1443 <EXPANSION BEGIN>
                        1443 jarl22 _Fee_30_SmallSector_Ph_GetPartitionReadAlignment , lp 
0000039e 80ff0000*      1443 <EXPANSION END>
000003a2 0ae0           1444 	mov	r10,r28
                        1445 	jarl	_Fee_30_SmallSector_Ph_GetPartitionWriteAlignment,lp
                        1445 <EXPANSION BEGIN>
                        1445 jarl22 _Fee_30_SmallSector_Ph_GetPartitionWriteAlignment , lp 
000003a4 80ff0000*      1445 <EXPANSION END>
000003a8 c152           1446 	shl	1,r10
000003aa 0a360100       1447 	addi	1,r10,r6
000003ae 1c38           1448 	mov	r28,r7
                        1449 	jarl	_Fee_30_SmallSector_AlignValue,lp
                        1449 <EXPANSION BEGIN>
                        1449 jarl22 _Fee_30_SmallSector_AlignValue , lp 
000003b0 80ff0000*      1449 <EXPANSION END>
000003b4 0a40           1450 	mov	r10,r8
000003b6 c800           1451 	zxh	r8
                        1452 --line476
                        1453 ..lin.C.3A.5C_ECU2.5CECU_Rivian_A1.5CTarget.5Crepo_projects.5CpRealEcu.5CcR_LATEST.5Cmake.5Coutput.5Cobjects.5CFee_30_SmallSector_InstanceHandler.56::
                        1454 .LDWlin56:
000003b8 1d30           1455 	mov	r29,r6
                        1456 	jarl	_Fee_30_SmallSector_Ih_GetInstanceStartAddress,lp
                        1456 <EXPANSION BEGIN>
                        1456 jarl22 _Fee_30_SmallSector_Ih_GetInstanceStartAddress , lp 
000003ba bfff04fd*      1456 <EXPANSION END>
000003be 0a30           1457 	mov	r10,r6
000003c0 270600000000*  1458 	mov	_Fee_30_SmallSector_Ih_ReadBuffer,r7
                        1459 	jarl	_Fee_30_SmallSector_Fls_Read,lp
                        1459 <EXPANSION BEGIN>
                        1459 jarl22 _Fee_30_SmallSector_Fls_Read , lp 
000003c6 80ff0000*      1459 <EXPANSION END>
                        1460 --	    .ef
                        1461 .LDW77:
                        1462 --line476
                        1463 ..lin.C.3A.5C_ECU2.5CECU_Rivian_A1.5CTarget.5Crepo_projects.5CpRealEcu.5CcR_LATEST.5Cmake.5Coutput.5Cobjects.5CFee_30_SmallSector_InstanceHandler.57::
                        1464 .LDWlin57:
000003ca 4006ff00       1465 	dispose	0,{r28,r29,r31},[lp]
                        1466 	.global	___ghs_eofn_Fee_30_SmallSector_Ih_ReadAllMgmt
                        1467 ___ghs_eofn_Fee_30_SmallSector_Ih_ReadAllMgmt:
                        1468 	.type	_Fee_30_SmallSector_Ih_ReadAllMgmt,@function
                        1469 	.size	_Fee_30_SmallSector_Ih_ReadAllMgmt,.-_Fee_30_SmallSector_Ih_ReadAllMgmt
                        1470 	.align	2
                        1471 
                        1472 --_Instance	r29	param
                        1473 
                        1474 	.data
                        1475 	.text
                        1476 	.align	2
                        1477 	.align	2
                        1478 ..gh.f.f.1.e.34:
                        1479 	.type	..gh.f.f.1.e.34,@object
                        1480 	.size	..gh.f.f.1.e.34,0
                        1481 	.global	_Fee_30_SmallSector_Ih_ReadData
                        1482 _Fee_30_SmallSector_Ih_ReadData:

                                                                      Page 28
                                                              C:\Users\nhuliyap\AppData\Local\Temp\gh_000091s1.s
000003ce 8007a100       1483 	prepare	{r28,r31},0
000003d2 08e0           1484 	mov	r8,r28
000003d4 dc00           1485 	zxh	r28
000003d6 c946ffff       1486 	andi	65535,r9,r8
                        1487 --	    .bf
                        1488 .LDW87:
                        1489 	jarl	_Fee_30_SmallSector_Ih_GetManagementAddress,lp
                        1489 <EXPANSION BEGIN>
                        1489 jarl22 _Fee_30_SmallSector_Ih_GetManagementAddress , lp 
000003da bffff0fc*      1489 <EXPANSION END>
000003de cae1           1490 	add	r10,r28
000003e0 1c360100       1491 	addi	1,r28,r6
                        1492 --line486
                        1493 ..lin.C.3A.5C_ECU2.5CECU_Rivian_A1.5CTarget.5Crepo_projects.5CpRealEcu.5CcR_LATEST.5Cmake.5Coutput.5Cobjects.5CFee_30_SmallSector_InstanceHandler.58::
                        1494 .LDWlin58:
                        1495 	jarl	_Fee_30_SmallSector_Fls_Read,lp
                        1495 <EXPANSION BEGIN>
                        1495 jarl22 _Fee_30_SmallSector_Fls_Read , lp 
000003e4 80ff0000*      1495 <EXPANSION END>
                        1496 --	    .ef
                        1497 .LDW97:
                        1498 --line486
                        1499 ..lin.C.3A.5C_ECU2.5CECU_Rivian_A1.5CTarget.5Crepo_projects.5CpRealEcu.5CcR_LATEST.5Cmake.5Coutput.5Cobjects.5CFee_30_SmallSector_InstanceHandler.59::
                        1500 .LDWlin59:
000003e8 4006bf00       1501 	dispose	0,{r28,r31},[lp]
                        1502 	.global	___ghs_eofn_Fee_30_SmallSector_Ih_ReadData
                        1503 ___ghs_eofn_Fee_30_SmallSector_Ih_ReadData:
                        1504 	.type	_Fee_30_SmallSector_Ih_ReadData,@function
                        1505 	.size	_Fee_30_SmallSector_Ih_ReadData,.-_Fee_30_SmallSector_Ih_ReadData
                        1506 	.align	2
                        1507 
                        1508 --_Instance	r6	param
                        1509 --_DataBufferPtr	r29	param
                        1510 --_BlockOffset	r28	param
                        1511 --_ReadLength	r27	param
                        1512 
                        1513 	.section ".bss","awb"
                        1514 .L2484:
                        1515 	.type	.L2484,@object
                        1516 	.size	.L2484,0
                        1517 	.data
                        1518 	.text
                        1519 	.align	2
                        1520 	.align	2
                        1521 ..gh.f.f.1.e.35:
                        1522 	.type	..gh.f.f.1.e.35,@object
                        1523 	.size	..gh.f.f.1.e.35,0
                        1524 	.global	_Fee_30_SmallSector_Ih_WriteStartPattern
                        1525 _Fee_30_SmallSector_Ih_WriteStartPattern:
000003ec 8007e110       1526 	prepare	{r27,r28,r29,r31},0
000003f0 06d8           1527 	mov	r6,r27
000003f2 07e8           1528 	mov	r7,r29
                        1529 --	    .bf
                        1530 .LDW08:
                        1531 	jarl	_Fee_30_SmallSector_Ih_FillBufferWithStaticPattern,lp
                        1531 <EXPANSION BEGIN>
                        1531 jarl22 _Fee_30_SmallSector_Ih_FillBufferWithStaticPattern , lp 
000003f4 bfff22fc*      1531 <EXPANSION END>
                        1532 --line495
                        1533 ..lin.C.3A.5C_ECU2.5CECU_Rivian_A1.5CTarget.5Crepo_projects.5CpRealEcu.5CcR_LATEST.5Cmake.5Coutput.5Cobjects.5CFee_30_SmallSector_InstanceHandler.60::
                        1534 .LDWlin60:

                                                                      Page 29
                                                              C:\Users\nhuliyap\AppData\Local\Temp\gh_000091s1.s
                        1535 	jarl	_Fee_30_SmallSector_Ih_GetInstanceStartAddress,lp
                        1535 <EXPANSION BEGIN>
                        1535 jarl22 _Fee_30_SmallSector_Ih_GetInstanceStartAddress , lp 
000003f8 bfffc6fc*      1535 <EXPANSION END>
000003fc 07f0           1536 	mov	r7,ep
                        1537 --line496
                        1538 ..lin.C.3A.5C_ECU2.5CECU_Rivian_A1.5CTarget.5Crepo_projects.5CpRealEcu.5CcR_LATEST.5Cmake.5Coutput.5Cobjects.5CFee_30_SmallSector_InstanceHandler.61::
                        1539 .LDWlin61:
000003fe 3c0600000000*  1540 	mov	_Fee_30_SmallSector_Ih_WriteBuffer,r28
00000404 0155           1541 	sst.w	r10,0[ep]
00000406 05e5           1542 	sst.w	r28,8[ep]
                        1543 --line497
                        1544 ..lin.C.3A.5C_ECU2.5CECU_Rivian_A1.5CTarget.5Crepo_projects.5CpRealEcu.5CcR_LATEST.5Cmake.5Coutput.5Cobjects.5CFee_30_SmallSector_InstanceHandler.62::
                        1545 .LDWlin62:
                        1546 	jarl	_Fee_30_SmallSector_Ph_GetPartitionWriteAlignment,lp
                        1546 <EXPANSION BEGIN>
                        1546 jarl22 _Fee_30_SmallSector_Ph_GetPartitionWriteAlignment , lp 
00000408 80ff0000*      1546 <EXPANSION END>
0000040c 7d570400       1547 	st.h	r10,4[r29]
                        1548 --line499
                        1549 ..lin.C.3A.5C_ECU2.5CECU_Rivian_A1.5CTarget.5Crepo_projects.5CpRealEcu.5CcR_LATEST.5Cmake.5Coutput.5Cobjects.5CFee_30_SmallSector_InstanceHandler.63::
                        1550 .LDWlin63:
                        1551 	jarl	_Fee_30_SmallSector_Ph_GetPartitionWriteAlignment,lp
                        1551 <EXPANSION BEGIN>
                        1551 jarl22 _Fee_30_SmallSector_Ph_GetPartitionWriteAlignment , lp 
00000410 80ff0000*      1551 <EXPANSION END>
00000414 0a40           1552 	mov	r10,r8
00000416 1b30           1553 	mov	r27,r6
                        1554 	jarl	_Fee_30_SmallSector_Ih_GetInstanceStartAddress,lp
                        1554 <EXPANSION BEGIN>
                        1554 jarl22 _Fee_30_SmallSector_Ih_GetInstanceStartAddress , lp 
00000418 bfffa6fc*      1554 <EXPANSION END>
0000041c 0a30           1555 	mov	r10,r6
0000041e 1c38           1556 	mov	r28,r7
                        1557 	jarl	_Fee_30_SmallSector_Fls_Write,lp
                        1557 <EXPANSION BEGIN>
                        1557 jarl22 _Fee_30_SmallSector_Fls_Write , lp 
00000420 80ff0000*      1557 <EXPANSION END>
                        1558 --	    .ef
                        1559 .LDW18:
                        1560 --line499
                        1561 ..lin.C.3A.5C_ECU2.5CECU_Rivian_A1.5CTarget.5Crepo_projects.5CpRealEcu.5CcR_LATEST.5Cmake.5Coutput.5Cobjects.5CFee_30_SmallSector_InstanceHandler.64::
                        1562 .LDWlin64:
00000424 4006ff10       1563 	dispose	0,{r27,r28,r29,r31},[lp]
                        1564 	.global	___ghs_eofn_Fee_30_SmallSector_Ih_WriteStartPattern
                        1565 ___ghs_eofn_Fee_30_SmallSector_Ih_WriteStartPattern:
                        1566 	.type	_Fee_30_SmallSector_Ih_WriteStartPattern,@function
                        1567 	.size	_Fee_30_SmallSector_Ih_WriteStartPattern,.-_Fee_30_SmallSector_Ih_WriteStartPattern
                        1568 	.align	2
                        1569 
                        1570 --_Instance	r27	param
                        1571 --_CompareParameter	r29	param
                        1572 
                        1573 	.data
                        1574 	.text
                        1575 	.align	2
                        1576 	.align	2
                        1577 ..gh.f.f.1.e.36:
                        1578 	.type	..gh.f.f.1.e.36,@object
                        1579 	.size	..gh.f.f.1.e.36,0
                        1580 	.global	_Fee_30_SmallSector_Ih_WriteManagementPage

                                                                      Page 30
                                                              C:\Users\nhuliyap\AppData\Local\Temp\gh_000091s1.s
                        1581 _Fee_30_SmallSector_Ih_WriteManagementPage:
00000428 031edcff       1582 	addi	-36,sp,sp
0000042c 03f0           1583 	mov	sp,ep
0000042e 07d5           1584 	sst.w	r26,12[ep]
00000430 05dd           1585 	sst.w	r27,8[ep]
00000432 114d           1586 	sst.w	r9,32[ep]
00000434 0f45           1587 	sst.w	r8,28[ep]
00000436 0d3d           1588 	sst.w	r7,24[ep]
00000438 09fd           1589 	sst.w	lp,16[ep]
0000043a 03e5           1590 	sst.w	r28,4[ep]
0000043c 01ed           1591 	sst.w	r29,0[ep]
0000043e 06d8           1592 	mov	r6,r27
00000440 14d5           1593 	sld.w	40[ep],r26
                        1594 --	    .bf
                        1595 .LDW28:
                        1596 	jarl	_Fee_30_SmallSector_Ph_GetPartitionWriteAlignment,lp
                        1596 <EXPANSION BEGIN>
                        1596 jarl22 _Fee_30_SmallSector_Ph_GetPartitionWriteAlignment , lp 
00000442 80ff0000*      1596 <EXPANSION END>
00000446 0aeeffff       1597 	addi	-1,r10,r29
0000044a dd00           1598 	zxh	r29
                        1599 --line508
                        1600 ..lin.C.3A.5C_ECU2.5CECU_Rivian_A1.5CTarget.5Crepo_projects.5CpRealEcu.5CcR_LATEST.5Cmake.5Coutput.5Cobjects.5CFee_30_SmallSector_InstanceHandler.65::
                        1601 .LDWlin65:
                        1602 	jarl	_Fee_30_SmallSector_Ih_FillBufferWithErasedValue,lp
                        1602 <EXPANSION BEGIN>
                        1602 jarl22 _Fee_30_SmallSector_Ih_FillBufferWithErasedValue , lp 
0000044c bfffe2fb*      1602 <EXPANSION END>
                        1603 --line510
                        1604 ..lin.C.3A.5C_ECU2.5CECU_Rivian_A1.5CTarget.5Crepo_projects.5CpRealEcu.5CcR_LATEST.5Cmake.5Coutput.5Cobjects.5CFee_30_SmallSector_InstanceHandler.66::
                        1605 .LDWlin66:
00000450 3c0600000000*  1606 	mov	_Fee_30_SmallSector_Ih_WriteBuffer,r28
00000456 1b30           1607 	mov	r27,r6
                        1608 	jarl	_Fee_30_SmallSector_Ih_GetMgmtValue,lp
                        1608 <EXPANSION BEGIN>
                        1608 jarl22 _Fee_30_SmallSector_Ih_GetMgmtValue , lp 
00000458 bfffa4fc*      1608 <EXPANSION END>
0000045c 5c570000       1609 	st.b	r10,0[r28]
                        1610 --line512
                        1611 ..lin.C.3A.5C_ECU2.5CECU_Rivian_A1.5CTarget.5Crepo_projects.5CpRealEcu.5CcR_LATEST.5Cmake.5Coutput.5Cobjects.5CFee_30_SmallSector_InstanceHandler.67::
                        1612 .LDWlin67:
                        1613 	jarl	_Fee_30_SmallSector_Ih_GetInstanceDataLength,lp
                        1613 <EXPANSION BEGIN>
                        1613 jarl22 _Fee_30_SmallSector_Ih_GetInstanceDataLength , lp 
00000460 bfffecfb*      1613 <EXPANSION END>
                        1614 --line517
                        1615 ..lin.C.3A.5C_ECU2.5CECU_Rivian_A1.5CTarget.5Crepo_projects.5CpRealEcu.5CcR_LATEST.5Cmake.5Coutput.5Cobjects.5CFee_30_SmallSector_InstanceHandler.68::
                        1616 .LDWlin68:
00000464 034f2400       1617 	ld.b	36[sp],r9
00000468 fd51           1618 	cmp	r29,r10
0000046a fd5732eb       1619 	cmovnl	r29,r10,r29
0000046e 614a           1620 	cmp	1,r9
00000470 fa0d*          1621 	bne	.L2553
00000472 0092           1622 	mov	0,r18
00000474 b50d*          1623 	br	.L2558
                        1624 .L2557:
                        1625 --line521
                        1626 ..lin.C.3A.5C_ECU2.5CECU_Rivian_A1.5CTarget.5Crepo_projects.5CpRealEcu.5CcR_LATEST.5Cmake.5Coutput.5Cobjects.5CFee_30_SmallSector_InstanceHandler.69::
                        1627 .LDWlin69:
00000476 238f2100       1628 	ld.w	32[sp],r17
0000047a 12f0           1629 	mov	r18,ep

                                                                      Page 31
                                                              C:\Users\nhuliyap\AppData\Local\Temp\gh_000091s1.s
0000047c dcf1           1630 	add	r28,ep
0000047e d289           1631 	add	r18,r17
00000480 913f0100       1632 	ld.bu	0[r17],r7
00000484 4192           1633 	add	1,r18
00000486 d200           1634 	zxh	r18
00000488 813b           1635 	sst.b	r7,1[ep]
                        1636 .L2558:
0000048a fd91           1637 	cmp	r29,r18
0000048c d1f5*          1638 	bl	.L2557
                        1639 .L2553:
                        1640 --line525
                        1641 ..lin.C.3A.5C_ECU2.5CECU_Rivian_A1.5CTarget.5Crepo_projects.5CpRealEcu.5CcR_LATEST.5Cmake.5Coutput.5Cobjects.5CFee_30_SmallSector_InstanceHandler.70::
                        1642 .LDWlin70:
                        1643 	jarl	_Fee_30_SmallSector_Ih_GetManagementAddress,lp
                        1643 <EXPANSION BEGIN>
                        1643 jarl22 _Fee_30_SmallSector_Ih_GetManagementAddress , lp 
0000048e bfff3cfc*      1643 <EXPANSION END>
00000492 1af0           1644 	mov	r26,ep
00000494 0155           1645 	sst.w	r10,0[ep]
                        1646 --line526
                        1647 ..lin.C.3A.5C_ECU2.5CECU_Rivian_A1.5CTarget.5Crepo_projects.5CpRealEcu.5CcR_LATEST.5Cmake.5Coutput.5Cobjects.5CFee_30_SmallSector_InstanceHandler.71::
                        1648 .LDWlin71:
00000496 05e5           1649 	sst.w	r28,8[ep]
                        1650 	jarl	_Fee_30_SmallSector_Ph_GetPartitionWriteAlignment,lp
                        1650 <EXPANSION BEGIN>
                        1650 jarl22 _Fee_30_SmallSector_Ph_GetPartitionWriteAlignment , lp 
00000498 80ff0000*      1650 <EXPANSION END>
0000049c 7a570400       1651 	st.h	r10,4[r26]
                        1652 --line529
                        1653 ..lin.C.3A.5C_ECU2.5CECU_Rivian_A1.5CTarget.5Crepo_projects.5CpRealEcu.5CcR_LATEST.5Cmake.5Coutput.5Cobjects.5CFee_30_SmallSector_InstanceHandler.72::
                        1654 .LDWlin72:
                        1655 	jarl	_Fee_30_SmallSector_Ph_GetPartitionWriteAlignment,lp
                        1655 <EXPANSION BEGIN>
                        1655 jarl22 _Fee_30_SmallSector_Ph_GetPartitionWriteAlignment , lp 
000004a0 80ff0000*      1655 <EXPANSION END>
000004a4 0a40           1656 	mov	r10,r8
000004a6 1b30           1657 	mov	r27,r6
                        1658 	jarl	_Fee_30_SmallSector_Ih_GetManagementAddress,lp
                        1658 <EXPANSION BEGIN>
                        1658 jarl22 _Fee_30_SmallSector_Ih_GetManagementAddress , lp 
000004a8 bfff22fc*      1658 <EXPANSION END>
000004ac 0a30           1659 	mov	r10,r6
000004ae 1c38           1660 	mov	r28,r7
                        1661 	jarl	_Fee_30_SmallSector_Fls_Write,lp
                        1661 <EXPANSION BEGIN>
                        1661 jarl22 _Fee_30_SmallSector_Fls_Write , lp 
000004b0 80ff0000*      1661 <EXPANSION END>
                        1662 --	    .ef
                        1663 .LDW38:
                        1664 --line529
                        1665 ..lin.C.3A.5C_ECU2.5CECU_Rivian_A1.5CTarget.5Crepo_projects.5CpRealEcu.5CcR_LATEST.5Cmake.5Coutput.5Cobjects.5CFee_30_SmallSector_InstanceHandler.73::
                        1666 .LDWlin73:
000004b4 03f0           1667 	mov	sp,ep
000004b6 08fd           1668 	sld.w	16[ep],lp
000004b8 00ed           1669 	sld.w	0[ep],r29
000004ba 02e5           1670 	sld.w	4[ep],r28
000004bc 04dd           1671 	sld.w	8[ep],r27
000004be 06d5           1672 	sld.w	12[ep],r26
000004c0 031e2400       1673 	addi	36,sp,sp
000004c4 7f00           1674 	jmp	[lp]
                        1675 	.global	___ghs_eofn_Fee_30_SmallSector_Ih_WriteManagementPage

                                                                      Page 32
                                                              C:\Users\nhuliyap\AppData\Local\Temp\gh_000091s1.s
                        1676 ___ghs_eofn_Fee_30_SmallSector_Ih_WriteManagementPage:
                        1677 	.type	_Fee_30_SmallSector_Ih_WriteManagementPage,@function
                        1678 	.size	_Fee_30_SmallSector_Ih_WriteManagementPage,.-_Fee_30_SmallSector_Ih_WriteManagementPage
                        1679 	.align	2
                        1680 --_LoopCounter	r18	local
                        1681 --_FillLength	r29	local
                        1682 
                        1683 --_Instance	r27	param
                        1684 --_UserJobParameter	24[sp]	param
                        1685 --_CompareParameter	r26	param
                        1686 
                        1687 	.data
                        1688 	.text
                        1689 	.align	2
                        1690 	.align	2
                        1691 ..gh.f.f.1.e.37:
                        1692 	.type	..gh.f.f.1.e.37,@object
                        1693 	.size	..gh.f.f.1.e.37,0
                        1694 	.global	_Fee_30_SmallSector_Ih_WritePayload
                        1695 _Fee_30_SmallSector_Ih_WritePayload:
000004c6 031ed8ff       1696 	addi	-40,sp,sp
000004ca 03f0           1697 	mov	sp,ep
000004cc 09cd           1698 	sst.w	r25,16[ep]
000004ce 07d5           1699 	sst.w	r26,12[ep]
000004d0 134d           1700 	sst.w	r9,36[ep]
000004d2 1145           1701 	sst.w	r8,32[ep]
000004d4 0f3d           1702 	sst.w	r7,28[ep]
000004d6 0bfd           1703 	sst.w	lp,20[ep]
000004d8 05dd           1704 	sst.w	r27,8[ep]
000004da 03e5           1705 	sst.w	r28,4[ep]
000004dc 01ed           1706 	sst.w	r29,0[ep]
000004de 06c8           1707 	mov	r6,r25
000004e0 16d5           1708 	sld.w	44[ep],r26
                        1709 --	    .bf
                        1710 .LDW48:
                        1711 	jarl	_Fee_30_SmallSector_Ph_GetPartitionWriteAlignment,lp
                        1711 <EXPANSION BEGIN>
                        1711 jarl22 _Fee_30_SmallSector_Ph_GetPartitionWriteAlignment , lp 
000004e2 80ff0000*      1711 <EXPANSION END>
000004e6 0ae8           1712 	mov	r10,r29
                        1713 --line537
                        1714 ..lin.C.3A.5C_ECU2.5CECU_Rivian_A1.5CTarget.5Crepo_projects.5CpRealEcu.5CcR_LATEST.5Cmake.5Coutput.5Cobjects.5CFee_30_SmallSector_InstanceHandler.74::
                        1715 .LDWlin74:
000004e8 1930           1716 	mov	r25,r6
                        1717 	jarl	_Fee_30_SmallSector_Ih_GetManagementAddress,lp
                        1717 <EXPANSION BEGIN>
                        1717 jarl22 _Fee_30_SmallSector_Ih_GetManagementAddress , lp 
000004ea bfffe0fb*      1717 <EXPANSION END>
000004ee 1de0           1718 	mov	r29,r28
                        1719 --line539
                        1720 ..lin.C.3A.5C_ECU2.5CECU_Rivian_A1.5CTarget.5Crepo_projects.5CpRealEcu.5CcR_LATEST.5Cmake.5Coutput.5Cobjects.5CFee_30_SmallSector_InstanceHandler.75::
                        1721 .LDWlin75:
000004f0 1ddeffff       1722 	addi	-1,r29,r27
000004f4 cae1           1723 	add	r10,r28
000004f6 db00           1724 	zxh	r27
                        1725 	jarl	_Fee_30_SmallSector_Ih_GetInstanceDataLength,lp
                        1725 <EXPANSION BEGIN>
                        1725 jarl22 _Fee_30_SmallSector_Ih_GetInstanceDataLength , lp 
000004f8 bfff54fb*      1725 <EXPANSION END>
000004fc bb51           1726 	sub	r27,r10
000004fe fd57fc02       1727 	divq	r29,r10,zero

                                                                      Page 33
                                                              C:\Users\nhuliyap\AppData\Local\Temp\gh_000091s1.s
                        1728 --line544
                        1729 ..lin.C.3A.5C_ECU2.5CECU_Rivian_A1.5CTarget.5Crepo_projects.5CpRealEcu.5CcR_LATEST.5Cmake.5Coutput.5Cobjects.5CFee_30_SmallSector_InstanceHandler.76::
                        1730 .LDWlin76:
00000502 233f2500       1731 	ld.w	36[sp],r7
00000506 1af0           1732 	mov	r26,ep
00000508 01e5           1733 	sst.w	r28,0[ep]
0000050a fd50           1734 	mulh	r29,r10
0000050c db39           1735 	add	r27,r7
0000050e 053d           1736 	sst.w	r7,8[ep]
00000510 1c30           1737 	mov	r28,r6
00000512 0a40           1738 	mov	r10,r8
00000514 c800           1739 	zxh	r8
00000516 8244           1740 	sst.h	r8,4[ep]
                        1741 	jarl	_Fee_30_SmallSector_Fls_Write,lp
                        1741 <EXPANSION BEGIN>
                        1741 jarl22 _Fee_30_SmallSector_Fls_Write , lp 
00000518 80ff0000*      1741 <EXPANSION END>
                        1742 --	    .ef
                        1743 .LDW58:
                        1744 --line544
                        1745 ..lin.C.3A.5C_ECU2.5CECU_Rivian_A1.5CTarget.5Crepo_projects.5CpRealEcu.5CcR_LATEST.5Cmake.5Coutput.5Cobjects.5CFee_30_SmallSector_InstanceHandler.77::
                        1746 .LDWlin77:
0000051c 03f0           1747 	mov	sp,ep
0000051e 0afd           1748 	sld.w	20[ep],lp
00000520 00ed           1749 	sld.w	0[ep],r29
00000522 02e5           1750 	sld.w	4[ep],r28
00000524 04dd           1751 	sld.w	8[ep],r27
00000526 06d5           1752 	sld.w	12[ep],r26
00000528 08cd           1753 	sld.w	16[ep],r25
0000052a 031e2800       1754 	addi	40,sp,sp
0000052e 7f00           1755 	jmp	[lp]
                        1756 	.global	___ghs_eofn_Fee_30_SmallSector_Ih_WritePayload
                        1757 ___ghs_eofn_Fee_30_SmallSector_Ih_WritePayload:
                        1758 	.type	_Fee_30_SmallSector_Ih_WritePayload,@function
                        1759 	.size	_Fee_30_SmallSector_Ih_WritePayload,.-_Fee_30_SmallSector_Ih_WritePayload
                        1760 	.align	2
                        1761 --_pageSize	r29	local
                        1762 --_startAddress	r28	local
                        1763 --_BufferIndex	r27	local
                        1764 --_length	r10	local
                        1765 
                        1766 --_Instance	r25	param
                        1767 --_UserJobParameter	28[sp]	param
                        1768 --_CompareParameter	r26	param
                        1769 
                        1770 	.section ".bss","awb"
                        1771 .L2692:
                        1772 	.type	.L2692,@object
                        1773 	.size	.L2692,0
                        1774 	.data
                        1775 	.text
                        1776 	.align	2
                        1777 	.align	2
                        1778 ..gh.f.f.1.e.38:
                        1779 	.type	..gh.f.f.1.e.38,@object
                        1780 	.size	..gh.f.f.1.e.38,0
                        1781 	.global	_Fee_30_SmallSector_Ih_WriteLastPage
                        1782 _Fee_30_SmallSector_Ih_WriteLastPage:
00000530 031ed4ff       1783 	addi	-44,sp,sp
00000534 03f0           1784 	mov	sp,ep
00000536 0bc5           1785 	sst.w	r24,20[ep]

                                                                      Page 34
                                                              C:\Users\nhuliyap\AppData\Local\Temp\gh_000091s1.s
00000538 09cd           1786 	sst.w	r25,16[ep]
0000053a 01ed           1787 	sst.w	r29,0[ep]
0000053c 154d           1788 	sst.w	r9,40[ep]
0000053e 1345           1789 	sst.w	r8,36[ep]
00000540 113d           1790 	sst.w	r7,32[ep]
00000542 0dfd           1791 	sst.w	lp,24[ep]
00000544 07d5           1792 	sst.w	r26,12[ep]
00000546 05dd           1793 	sst.w	r27,8[ep]
00000548 03e5           1794 	sst.w	r28,4[ep]
0000054a 06c0           1795 	mov	r6,r24
0000054c 18cd           1796 	sld.w	48[ep],r25
0000054e 3d0600000000*  1797 	mov	_Fee_30_SmallSector_Ih_WriteBuffer,r29
                        1798 --	    .bf
                        1799 .LDW68:
                        1800 --line556
                        1801 ..lin.C.3A.5C_ECU2.5CECU_Rivian_A1.5CTarget.5Crepo_projects.5CpRealEcu.5CcR_LATEST.5Cmake.5Coutput.5Cobjects.5CFee_30_SmallSector_InstanceHandler.78::
                        1802 .LDWlin78:
                        1803 	jarl	_Fee_30_SmallSector_Ph_GetPartitionWriteAlignment,lp
                        1803 <EXPANSION BEGIN>
                        1803 jarl22 _Fee_30_SmallSector_Ph_GetPartitionWriteAlignment , lp 
00000554 80ff0000*      1803 <EXPANSION END>
00000558 0ad0           1804 	mov	r10,r26
                        1805 --line558
                        1806 ..lin.C.3A.5C_ECU2.5CECU_Rivian_A1.5CTarget.5Crepo_projects.5CpRealEcu.5CcR_LATEST.5Cmake.5Coutput.5Cobjects.5CFee_30_SmallSector_InstanceHandler.79::
                        1807 .LDWlin79:
0000055a 1830           1808 	mov	r24,r6
                        1809 	jarl	_Fee_30_SmallSector_Ih_GetInstanceDataLength,lp
                        1809 <EXPANSION BEGIN>
                        1809 jarl22 _Fee_30_SmallSector_Ih_GetInstanceDataLength , lp 
0000055c bffff0fa*      1809 <EXPANSION END>
00000560 0a9e0100       1810 	addi	1,r10,r19
00000564 d300           1811 	zxh	r19
00000566 fa9ffcda       1812 	divq	r26,r19,r27
                        1813 --line560
                        1814 ..lin.C.3A.5C_ECU2.5CECU_Rivian_A1.5CTarget.5Crepo_projects.5CpRealEcu.5CcR_LATEST.5Cmake.5Coutput.5Cobjects.5CFee_30_SmallSector_InstanceHandler.80::
                        1815 .LDWlin80:
0000056a dbdeffff       1816 	andi	65535,r27,r27
0000056e fadf24db       1817 	cmove	r26,r27,r27
00000572 bb51           1818 	sub	r27,r10
00000574 0ae0           1819 	mov	r10,r28
00000576 dc00           1820 	zxh	r28
                        1821 	jarl	_Fee_30_SmallSector_Ih_GetManagementAddress,lp
                        1821 <EXPANSION BEGIN>
                        1821 jarl22 _Fee_30_SmallSector_Ih_GetManagementAddress , lp 
00000578 bfff52fb*      1821 <EXPANSION END>
0000057c 1c88           1822 	mov	r28,r17
0000057e ca89           1823 	add	r10,r17
00000580 11c60100       1824 	addi	1,r17,r24
                        1825 --line570
                        1826 ..lin.C.3A.5C_ECU2.5CECU_Rivian_A1.5CTarget.5Crepo_projects.5CpRealEcu.5CcR_LATEST.5Cmake.5Coutput.5Cobjects.5CFee_30_SmallSector_InstanceHandler.81::
                        1827 .LDWlin81:
                        1828 	jarl	_Fee_30_SmallSector_Ih_FillBufferWithErasedValue,lp
                        1828 <EXPANSION BEGIN>
                        1828 jarl22 _Fee_30_SmallSector_Ih_FillBufferWithErasedValue , lp 
00000584 bfffaafa*      1828 <EXPANSION END>
                        1829 --line572
                        1830 ..lin.C.3A.5C_ECU2.5CECU_Rivian_A1.5CTarget.5Crepo_projects.5CpRealEcu.5CcR_LATEST.5Cmake.5Coutput.5Cobjects.5CFee_30_SmallSector_InstanceHandler.82::
                        1831 .LDWlin82:
00000588 0092           1832 	mov	0,r18
0000058a 1d38           1833 	mov	r29,r7
0000058c d50d*          1834 	br	.L2717

                                                                      Page 35
                                                              C:\Users\nhuliyap\AppData\Local\Temp\gh_000091s1.s
                        1835 .L2716:
                        1836 --line574
                        1837 ..lin.C.3A.5C_ECU2.5CECU_Rivian_A1.5CTarget.5Crepo_projects.5CpRealEcu.5CcR_LATEST.5Cmake.5Coutput.5Cobjects.5CFee_30_SmallSector_InstanceHandler.83::
                        1838 .LDWlin83:
0000058e 23372900       1839 	ld.w	40[sp],r6
00000592 12f0           1840 	mov	r18,ep
00000594 ddf1           1841 	add	r29,ep
00000596 4192           1842 	add	1,r18
00000598 dc31           1843 	add	r28,r6
0000059a 86870100       1844 	ld.bu	0[r6],r16
0000059e 41e2           1845 	add	1,r28
000005a0 dc00           1846 	zxh	r28
000005a2 d200           1847 	zxh	r18
000005a4 8083           1848 	sst.b	r16,0[ep]
                        1849 .L2717:
000005a6 fb91           1850 	cmp	r27,r18
000005a8 b1f5*          1851 	bl	.L2716
                        1852 --line578
                        1853 ..lin.C.3A.5C_ECU2.5CECU_Rivian_A1.5CTarget.5Crepo_projects.5CpRealEcu.5CcR_LATEST.5Cmake.5Coutput.5Cobjects.5CFee_30_SmallSector_InstanceHandler.84::
                        1854 .LDWlin84:
000005aa 19f0           1855 	mov	r25,ep
000005ac 01c5           1856 	sst.w	r24,0[ep]
000005ae 05ed           1857 	sst.w	r29,8[ep]
000005b0 82d4           1858 	sst.h	r26,4[ep]
000005b2 1830           1859 	mov	r24,r6
000005b4 1a40           1860 	mov	r26,r8
                        1861 	jarl	_Fee_30_SmallSector_Fls_Write,lp
                        1861 <EXPANSION BEGIN>
                        1861 jarl22 _Fee_30_SmallSector_Fls_Write , lp 
000005b6 80ff0000*      1861 <EXPANSION END>
                        1862 --	    .ef
                        1863 .LDW78:
                        1864 --line578
                        1865 ..lin.C.3A.5C_ECU2.5CECU_Rivian_A1.5CTarget.5Crepo_projects.5CpRealEcu.5CcR_LATEST.5Cmake.5Coutput.5Cobjects.5CFee_30_SmallSector_InstanceHandler.85::
                        1866 .LDWlin85:
000005ba 03f0           1867 	mov	sp,ep
000005bc 0cfd           1868 	sld.w	24[ep],lp
000005be 00ed           1869 	sld.w	0[ep],r29
000005c0 02e5           1870 	sld.w	4[ep],r28
000005c2 04dd           1871 	sld.w	8[ep],r27
000005c4 06d5           1872 	sld.w	12[ep],r26
000005c6 08cd           1873 	sld.w	16[ep],r25
000005c8 0ac5           1874 	sld.w	20[ep],r24
000005ca 031e2c00       1875 	addi	44,sp,sp
000005ce 7f00           1876 	jmp	[lp]
                        1877 	.global	___ghs_eofn_Fee_30_SmallSector_Ih_WriteLastPage
                        1878 ___ghs_eofn_Fee_30_SmallSector_Ih_WriteLastPage:
                        1879 	.type	_Fee_30_SmallSector_Ih_WriteLastPage,@function
                        1880 	.size	_Fee_30_SmallSector_Ih_WriteLastPage,.-_Fee_30_SmallSector_Ih_WriteLastPage
                        1881 	.align	2
                        1882 --_LoopCounter	r18	local
                        1883 --_BufferIndex	r28	local
                        1884 --_startAddress	r24	local
                        1885 --_PageSize	r26	local
                        1886 --_ResidualLength	r27	local
                        1887 
                        1888 --_Instance	r24	param
                        1889 --_UserJobParameter	32[sp]	param
                        1890 --_CompareParameter	r25	param
                        1891 
                        1892 	.data

                                                                      Page 36
                                                              C:\Users\nhuliyap\AppData\Local\Temp\gh_000091s1.s
                        1893 	.text
                        1894 	.align	2
                        1895 	.align	2
                        1896 ..gh.f.f.1.e.39:
                        1897 	.type	..gh.f.f.1.e.39,@object
                        1898 	.size	..gh.f.f.1.e.39,0
                        1899 	.global	_Fee_30_SmallSector_Ih_WriteEndPattern
                        1900 _Fee_30_SmallSector_Ih_WriteEndPattern:
000005d0 8007e110       1901 	prepare	{r27,r28,r29,r31},0
000005d4 06d8           1902 	mov	r6,r27
000005d6 07e8           1903 	mov	r7,r29
                        1904 --	    .bf
                        1905 .LDW88:
                        1906 	jarl	_Fee_30_SmallSector_Ih_FillBufferWithStaticPattern,lp
                        1906 <EXPANSION BEGIN>
                        1906 jarl22 _Fee_30_SmallSector_Ih_FillBufferWithStaticPattern , lp 
000005d8 bfff3efa*      1906 <EXPANSION END>
                        1907 --line591
                        1908 ..lin.C.3A.5C_ECU2.5CECU_Rivian_A1.5CTarget.5Crepo_projects.5CpRealEcu.5CcR_LATEST.5Cmake.5Coutput.5Cobjects.5CFee_30_SmallSector_InstanceHandler.86::
                        1909 .LDWlin86:
                        1910 	jarl	_Fee_30_SmallSector_Ih_GetEndPatternAddress,lp
                        1910 <EXPANSION BEGIN>
                        1910 jarl22 _Fee_30_SmallSector_Ih_GetEndPatternAddress , lp 
000005dc bfffe8fa*      1910 <EXPANSION END>
000005e0 07f0           1911 	mov	r7,ep
                        1912 --line592
                        1913 ..lin.C.3A.5C_ECU2.5CECU_Rivian_A1.5CTarget.5Crepo_projects.5CpRealEcu.5CcR_LATEST.5Cmake.5Coutput.5Cobjects.5CFee_30_SmallSector_InstanceHandler.87::
                        1914 .LDWlin87:
000005e2 3c0600000000*  1915 	mov	_Fee_30_SmallSector_Ih_WriteBuffer,r28
000005e8 0155           1916 	sst.w	r10,0[ep]
000005ea 05e5           1917 	sst.w	r28,8[ep]
                        1918 --line593
                        1919 ..lin.C.3A.5C_ECU2.5CECU_Rivian_A1.5CTarget.5Crepo_projects.5CpRealEcu.5CcR_LATEST.5Cmake.5Coutput.5Cobjects.5CFee_30_SmallSector_InstanceHandler.88::
                        1920 .LDWlin88:
                        1921 	jarl	_Fee_30_SmallSector_Ph_GetPartitionWriteAlignment,lp
                        1921 <EXPANSION BEGIN>
                        1921 jarl22 _Fee_30_SmallSector_Ph_GetPartitionWriteAlignment , lp 
000005ec 80ff0000*      1921 <EXPANSION END>
000005f0 7d570400       1922 	st.h	r10,4[r29]
                        1923 --line595
                        1924 ..lin.C.3A.5C_ECU2.5CECU_Rivian_A1.5CTarget.5Crepo_projects.5CpRealEcu.5CcR_LATEST.5Cmake.5Coutput.5Cobjects.5CFee_30_SmallSector_InstanceHandler.89::
                        1925 .LDWlin89:
                        1926 	jarl	_Fee_30_SmallSector_Ph_GetPartitionWriteAlignment,lp
                        1926 <EXPANSION BEGIN>
                        1926 jarl22 _Fee_30_SmallSector_Ph_GetPartitionWriteAlignment , lp 
000005f4 80ff0000*      1926 <EXPANSION END>
000005f8 0a40           1927 	mov	r10,r8
000005fa 1b30           1928 	mov	r27,r6
                        1929 	jarl	_Fee_30_SmallSector_Ih_GetEndPatternAddress,lp
                        1929 <EXPANSION BEGIN>
                        1929 jarl22 _Fee_30_SmallSector_Ih_GetEndPatternAddress , lp 
000005fc bfffc8fa*      1929 <EXPANSION END>
00000600 0a30           1930 	mov	r10,r6
00000602 1c38           1931 	mov	r28,r7
                        1932 	jarl	_Fee_30_SmallSector_Fls_Write,lp
                        1932 <EXPANSION BEGIN>
                        1932 jarl22 _Fee_30_SmallSector_Fls_Write , lp 
00000604 80ff0000*      1932 <EXPANSION END>
                        1933 --	    .ef
                        1934 .LDW98:
                        1935 --line595

                                                                      Page 37
                                                              C:\Users\nhuliyap\AppData\Local\Temp\gh_000091s1.s
                        1936 ..lin.C.3A.5C_ECU2.5CECU_Rivian_A1.5CTarget.5Crepo_projects.5CpRealEcu.5CcR_LATEST.5Cmake.5Coutput.5Cobjects.5CFee_30_SmallSector_InstanceHandler.90::
                        1937 .LDWlin90:
00000608 4006ff10       1938 	dispose	0,{r27,r28,r29,r31},[lp]
                        1939 	.global	___ghs_eofn_Fee_30_SmallSector_Ih_WriteEndPattern
                        1940 ___ghs_eofn_Fee_30_SmallSector_Ih_WriteEndPattern:
                        1941 	.type	_Fee_30_SmallSector_Ih_WriteEndPattern,@function
                        1942 	.size	_Fee_30_SmallSector_Ih_WriteEndPattern,.-_Fee_30_SmallSector_Ih_WriteEndPattern
                        1943 	.align	2
                        1944 
                        1945 --_Instance	r27	param
                        1946 --_CompareParameter	r29	param
                        1947 
                        1948 	.data
                        1949 	.text
                        1950 	.align	2
                        1951 	.align	2
                        1952 ..gh.f.f.1.e.40:
                        1953 	.type	..gh.f.f.1.e.40,@object
                        1954 	.size	..gh.f.f.1.e.40,0
                        1955 	.global	_Fee_30_SmallSector_Ih_VerifyData
                        1956 _Fee_30_SmallSector_Ih_VerifyData:
0000060c 031eecff       1957 	addi	-20,sp,sp
00000610 03f0           1958 	mov	sp,ep
00000612 0745           1959 	sst.w	r8,12[ep]
00000614 053d           1960 	sst.w	r7,8[ep]
00000616 0335           1961 	sst.w	r6,4[ep]
00000618 01fd           1962 	sst.w	lp,0[ep]
                        1963 --	    .bf
                        1964 .LDW09:
0000061a 0838           1965 	mov	r8,r7
0000061c 7440           1966 	sld.hu	8[ep],r8
                        1967 	jarl	_Fee_30_SmallSector_Fls_Compare,lp
                        1967 <EXPANSION BEGIN>
                        1967 jarl22 _Fee_30_SmallSector_Fls_Compare , lp 
0000061e 80ff0000*      1967 <EXPANSION END>
                        1968 --	    .ef
                        1969 .LDW19:
                        1970 --line599
                        1971 ..lin.C.3A.5C_ECU2.5CECU_Rivian_A1.5CTarget.5Crepo_projects.5CpRealEcu.5CcR_LATEST.5Cmake.5Coutput.5Cobjects.5CFee_30_SmallSector_InstanceHandler.91::
                        1972 .LDWlin91:
00000622 23ff0100       1973 	ld.w	0[sp],lp
00000626 031e1400       1974 	addi	20,sp,sp
0000062a 7f00           1975 	jmp	[lp]
                        1976 	.global	___ghs_eofn_Fee_30_SmallSector_Ih_VerifyData
                        1977 ___ghs_eofn_Fee_30_SmallSector_Ih_VerifyData:
                        1978 	.type	_Fee_30_SmallSector_Ih_VerifyData,@function
                        1979 	.size	_Fee_30_SmallSector_Ih_VerifyData,.-_Fee_30_SmallSector_Ih_VerifyData
                        1980 	.align	2
                        1981 
                        1982 --_CompareParameter	4[sp]	param
                        1983 
                        1984 	.section ".bss","awb"
                        1985 .L2900:
                        1986 	.type	.L2900,@object
                        1987 	.size	.L2900,0
                        1988 	.data
                        1989 	.text
                        1990 	.align	2
                        1991 --_Fee_30_SmallSector_Ih_ReadBuffer	_Fee_30_SmallSector_Ih_ReadBuffer	static
                        1992 --_Fee_30_SmallSector_Ih_WriteBuffer	_Fee_30_SmallSector_Ih_WriteBuffer	static
                        1993 --_Fee_30_SmallSector_Ih_ValidManagementValue	_Fee_30_SmallSector_Ih_ValidManagementValue	static

                                                                      Page 38
                                                              C:\Users\nhuliyap\AppData\Local\Temp\gh_000091s1.s
                        1994 --_Fee_30_SmallSector_Ih_InvalidManagementValue	_Fee_30_SmallSector_Ih_InvalidManagementValue	static
                        1995 
                        1996 	.data
                        1997 	.ghsnote version,17
                        1998 	.ghsnote tools,3
                        1999 	.ghsnote options,144
                        2000 	.text
                        2001 	.align	2
                        2002 ..eof.C.3A.5C_ECU2.5CECU_Rivian_A1.5CTarget.5Crepo_projects.5CpRealEcu.5CcR_LATEST.5Cmake.5Coutput.5Cobjects.5CFee_30_SmallSector_InstanceHandler...43.3A.5C_ECU2.5CECU_Rivian_A1.5CTarget.5Crepo_projects.5CpRealEcu.5CcR_LATEST.5Cmake..65044902..0::
                        2003 	.section	.debug_info
                        2004 .Ldw_begin:
00000000 f7220000       2005 	.word	.Ldw_end-.Ldw_begin-4
00000004 0200           2006 	.byte	2,0
00000006 00000000*      2007 	.word	.Ldw_abbr_begin
0000000a 04             2008 	.byte	4
                        2009 	.section	.debug_abbrev
                        2010 .Ldw_abbr_begin:
                        2011 	.section	.debug_info
0000000b 01             2012 	.byte	1
0000000c 00000000*      2013 	.word	..bof.C.3A.5C_ECU2.5CECU_Rivian_A1.5CTarget.5Crepo_projects.5CpRealEcu.5CcR_LATEST.5Cmake.5Coutput.5Cobjects.5CFee_30_SmallSector_InstanceHandler...43.3A.5C_ECU2.5CECU_Rivian_A1.5CTarget.5Crepo_projects.5CpRealEcu.5CcR_LATEST.5Cmake..65044902..0
00000010 00000000*      2014 	.word	..eof.C.3A.5C_ECU2.5CECU_Rivian_A1.5CTarget.5Crepo_projects.5CpRealEcu.5CcR_LATEST.5Cmake.5Coutput.5Cobjects.5CFee_30_SmallSector_InstanceHandler...43.3A.5C_ECU2.5CECU_Rivian_A1.5CTarget.5Crepo_projects.5CpRealEcu.5CcR_LATEST.5Cmake..65044902..0
00000014 2e2e2f736f75   2015 	.strz	"../source/EcuabFee/Fee_30_SmallSector_InstanceHandler.c"
0000001a 7263652f4563 
00000020 756162466565 
00000026 2f4665655f33 
0000002c 305f536d616c 
00000032 6c536563746f 
00000038 725f496e7374 
0000003e 616e63654861 
00000044 6e646c65722e 
0000004a 6300 
0000004c 433a5c5f4543   2016 	.strz	"C:\\_ECU2\\ECU_Rivian_A1\\Target\\repo_projects\\pRealEcu\\cR_LATEST\\make"
00000052 55325c454355 
00000058 5f5269766961 
0000005e 6e5f41315c54 
00000064 61726765745c 
0000006a 7265706f5f70 
00000070 726f6a656374 
00000076 735c70526561 
0000007c 6c4563755c63 
00000082 525f4c415445 
00000088 53545c6d616b 
0000008e 6500 
00000090 474853204320   2017 	.strz	"GHS C 2015.1.7 [dual]"
00000096 323031352e31 
0000009c 2e37205b6475 
000000a2 616c5d00 
000000a6 0100           2018 	.byte	1,0
000000a8 00000000*      2019 	.word	.Ldw_line_begin
000000ac 00000000*      2020 	.word	.Ldw_macinfo_begin
000000b0 00             2021 	.byte	0
                        2022 
                        2023 	.section	.debug_abbrev
00000000 01             2024 	.byte	1
00000001 11             2025 	.byte	17
00000002 01             2026 	.byte	1
00000003 1101           2027 	.byte	17,1
00000005 1201           2028 	.byte	18,1
00000007 0308           2029 	.byte	3,8
00000009 1b08           2030 	.byte	27,8
0000000b 2508           2031 	.byte	37,8

                                                                      Page 39
                                                              C:\Users\nhuliyap\AppData\Local\Temp\gh_000091s1.s
0000000d 1305           2032 	.byte	19,5
0000000f 1006           2033 	.byte	16,6
00000011 4306           2034 	.byte	67,6
00000013 420b           2035 	.byte	66,11
00000015 0000           2036 	.byte	0,0
                        2037 
                        2038 	.section	.debug_line
                        2039 .Ldw_line_begin:
00000000 5c0b0000       2040 	.word	.Ldw_line_end-.Ldw_line_begin-4
00000004 0200           2041 	.byte	2,0
00000006 00000000*      2042 	.word	.Ldw_lpro_end-.Ldw_lpro_begin
                        2043 .Ldw_lpro_begin:
0000000a 01             2044 	.byte	1
0000000b 00             2045 	.byte	0
0000000c 00             2046 	.byte	0
0000000d 04             2047 	.byte	4
0000000e 0a             2048 	.byte	10
0000000f 000101         2049 	.byte	0,1,1
00000012 010100         2050 	.byte	1,1,0
00000015 000001         2051 	.byte	0,0,1
00000018 00             2052 	.byte	0
00000019 2e2e2f736f75   2053 	.strz	"../source/EcuabFee/Fee_30_SmallSector_InstanceHandler.c"
0000001f 7263652f4563 
00000025 756162466565 
0000002b 2f4665655f33 
00000031 305f536d616c 
00000037 6c536563746f 
0000003d 725f496e7374 
00000043 616e63654861 
00000049 6e646c65722e 
0000004f 6300 
00000051 000000         2054 	.byte	0,0,0
00000054 2e2e2f736f75   2055 	.strz	"../source/common/Std_Types.hpp"
0000005a 7263652f636f 
00000060 6d6d6f6e2f53 
00000066 74645f547970 
0000006c 65732e687070 
00000072 00 
00000073 000000         2056 	.byte	0,0,0
00000076 2e2e2f736f75   2057 	.strz	"../source/common/Platform_Types.hpp"
0000007c 7263652f636f 
00000082 6d6d6f6e2f50 
00000088 6c6174666f72 
0000008e 6d5f54797065 
00000094 732e68707000 
0000009a 000000         2058 	.byte	0,0,0
0000009d 2e2e2f736f75   2059 	.strz	"../source/common/Compiler.hpp"
000000a3 7263652f636f 
000000a9 6d6d6f6e2f43 
000000af 6f6d70696c65 
000000b5 722e68707000 
000000bb 000000         2060 	.byte	0,0,0
000000be 2e2e2f736f75   2061 	.strz	"../source/ProjectCompiler/Compiler_Cfg.hpp"
000000c4 7263652f5072 
000000ca 6f6a65637443 
000000d0 6f6d70696c65 
000000d6 722f436f6d70 
000000dc 696c65725f43 
000000e2 66672e687070 
000000e8 00 
000000e9 000000         2062 	.byte	0,0,0

                                                                      Page 40
                                                              C:\Users\nhuliyap\AppData\Local\Temp\gh_000091s1.s
000000ec 2e2e2f736f75   2063 	.strz	"../source/ProjectCompiler/CompilerCfg_SwcServiceOs.hpp"
000000f2 7263652f5072 
000000f8 6f6a65637443 
000000fe 6f6d70696c65 
00000104 722f436f6d70 
0000010a 696c65724366 
00000110 675f53776353 
00000116 657276696365 
0000011c 4f732e687070 
00000122 00 
00000123 000000         2064 	.byte	0,0,0
00000126 2e2e2f736f75   2065 	.strz	"../source/EcuabFee/Fee_30_SmallSector_InstanceHandler.hpp"
0000012c 7263652f4563 
00000132 756162466565 
00000138 2f4665655f33 
0000013e 305f536d616c 
00000144 6c536563746f 
0000014a 725f496e7374 
00000150 616e63654861 
00000156 6e646c65722e 
0000015c 68707000 
00000160 000000         2066 	.byte	0,0,0
00000163 2e2e2f736f75   2067 	.strz	"../source/EcuabFee/Fee_30_SmallSector.hpp"
00000169 7263652f4563 
0000016f 756162466565 
00000175 2f4665655f33 
0000017b 305f536d616c 
00000181 6c536563746f 
00000187 722e68707000 
0000018d 000000         2068 	.byte	0,0,0
00000190 2e2e2f736f75   2069 	.strz	"../source/EcuabMemIf/MemIf_Types.hpp"
00000196 7263652f4563 
0000019c 7561624d656d 
000001a2 49662f4d656d 
000001a8 49665f547970 
000001ae 65732e687070 
000001b4 00 
000001b5 000000         2070 	.byte	0,0,0
000001b8 2e2e2f736f75   2071 	.strz	"../source/ProjectCfg/Fee_30_SmallSector_Cfg.hpp"
000001be 7263652f5072 
000001c4 6f6a65637443 
000001ca 66672f466565 
000001d0 5f33305f536d 
000001d6 616c6c536563 
000001dc 746f725f4366 
000001e2 672e68707000 
000001e8 000000         2072 	.byte	0,0,0
000001eb 2e2e2f736f75   2073 	.strz	"../source/McalFls/Fls.hpp"
000001f1 7263652f4d63 
000001f7 616c466c732f 
000001fd 466c732e6870 
00000203 7000 
00000205 000000         2074 	.byte	0,0,0
00000208 2e2e2f736f75   2075 	.strz	"../source/ProjectCfg/Fls_Cfg.hpp"
0000020e 7263652f5072 
00000214 6f6a65637443 
0000021a 66672f466c73 
00000220 5f4366672e68 
00000226 707000 
00000229 000000         2076 	.byte	0,0,0
0000022c 2e2e2f736f75   2077 	.strz	"../source/McalFls/Fls_Types.hpp"

                                                                      Page 41
                                                              C:\Users\nhuliyap\AppData\Local\Temp\gh_000091s1.s
00000232 7263652f4d63 
00000238 616c466c732f 
0000023e 466c735f5479 
00000244 7065732e6870 
0000024a 7000 
0000024c 000000         2078 	.byte	0,0,0
0000024f 2e2e2f736f75   2079 	.strz	"../source/McalFls/Fls_PBTypes.hpp"
00000255 7263652f4d63 
0000025b 616c466c732f 
00000261 466c735f5042 
00000267 54797065732e 
0000026d 68707000 
00000271 000000         2080 	.byte	0,0,0
00000274 2e2e2f736f75   2081 	.strz	"../source/ProjectCompiler/MemMap.hpp"
0000027a 7263652f5072 
00000280 6f6a65637443 
00000286 6f6d70696c65 
0000028c 722f4d656d4d 
00000292 61702e687070 
00000298 00 
00000299 000000         2082 	.byte	0,0,0
0000029c 2e2e2f736f75   2083 	.strz	"../source/ProjectCompiler/MemMap_Common.hpp"
000002a2 7263652f5072 
000002a8 6f6a65637443 
000002ae 6f6d70696c65 
000002b4 722f4d656d4d 
000002ba 61705f436f6d 
000002c0 6d6f6e2e6870 
000002c6 7000 
000002c8 000000         2084 	.byte	0,0,0
000002cb 2e2e2f736f75   2085 	.strz	"../source/McalFls/r_typedefs.hpp"
000002d1 7263652f4d63 
000002d7 616c466c732f 
000002dd 725f74797065 
000002e3 646566732e68 
000002e9 707000 
000002ec 000000         2086 	.byte	0,0,0
000002ef 2e2e2f736f75   2087 	.strz	"../source/McalMcu/Types.hpp"
000002f5 7263652f4d63 
000002fb 616c4d63752f 
00000301 54797065732e 
00000307 68707000 
0000030b 000000         2088 	.byte	0,0,0
0000030e 2e2e2f736f75   2089 	.strz	"../source/McalFls/r_fdl_types.hpp"
00000314 7263652f4d63 
0000031a 616c466c732f 
00000320 725f66646c5f 
00000326 74797065732e 
0000032c 68707000 
00000330 000000         2090 	.byte	0,0,0
00000333 2e2e2f736f75   2091 	.strz	"../source/McalFls/fdl_descriptor.hpp"
00000339 7263652f4d63 
0000033f 616c466c732f 
00000345 66646c5f6465 
0000034b 736372697074 
00000351 6f722e687070 
00000357 00 
00000358 000000         2092 	.byte	0,0,0
0000035b 2e2e2f736f75   2093 	.strz	"../source/EcuabFee/Fee_30_SmallSector_PartitionHandler.hpp"
00000361 7263652f4563 
00000367 756162466565 

                                                                      Page 42
                                                              C:\Users\nhuliyap\AppData\Local\Temp\gh_000091s1.s
0000036d 2f4665655f33 
00000373 305f536d616c 
00000379 6c536563746f 
0000037f 725f50617274 
00000385 6974696f6e48 
0000038b 616e646c6572 
00000391 2e68707000 
00000396 000000         2094 	.byte	0,0,0
00000399 2e2e2f736f75   2095 	.strz	"../source/EcuabFee/Fee_30_SmallSector_FlsCoordinator.hpp"
0000039f 7263652f4563 
000003a5 756162466565 
000003ab 2f4665655f33 
000003b1 305f536d616c 
000003b7 6c536563746f 
000003bd 725f466c7343 
000003c3 6f6f7264696e 
000003c9 61746f722e68 
000003cf 707000 
000003d2 000000         2096 	.byte	0,0,0
000003d5 00             2097 	.byte	0
                        2098 .Ldw_lpro_end:
                        2099 	.section	.debug_macinfo
                        2100 .Ldw_macinfo_begin:
                        2101 	.section	.debug_frame
                        2102 .LDW_4d1fd60:
00000000 00000000*      2103 	.word	.LDW_unq_2-.LDW_unq_1
                        2104 .LDW_unq_1:
00000004 ffffffff       2105 	.byte	255,255,255,255
00000008 01             2106 	.byte	1
00000009 00             2107 	.byte	0
0000000a 01             2108 	.byte	1
0000000b 01             2109 	.byte	1
0000000c 1f             2110 	.byte	31
0000000d 0c             2111 	.byte	12
0000000e 03             2112 	.byte	3
0000000f 00             2113 	.byte	0
00000010 07             2114 	.byte	7
00000011 00             2115 	.byte	0
00000012 07             2116 	.byte	7
00000013 01             2117 	.byte	1
00000014 07             2118 	.byte	7
00000015 02             2119 	.byte	2
00000016 07             2120 	.byte	7
00000017 03             2121 	.byte	3
00000018 07             2122 	.byte	7
00000019 04             2123 	.byte	4
0000001a 07             2124 	.byte	7
0000001b 05             2125 	.byte	5
0000001c 07             2126 	.byte	7
0000001d 06             2127 	.byte	6
0000001e 07             2128 	.byte	7
0000001f 07             2129 	.byte	7
00000020 07             2130 	.byte	7
00000021 08             2131 	.byte	8
00000022 07             2132 	.byte	7
00000023 09             2133 	.byte	9
00000024 07             2134 	.byte	7
00000025 0a             2135 	.byte	10
00000026 07             2136 	.byte	7
00000027 0b             2137 	.byte	11
00000028 07             2138 	.byte	7

                                                                      Page 43
                                                              C:\Users\nhuliyap\AppData\Local\Temp\gh_000091s1.s
00000029 0c             2139 	.byte	12
0000002a 07             2140 	.byte	7
0000002b 0d             2141 	.byte	13
0000002c 07             2142 	.byte	7
0000002d 0e             2143 	.byte	14
0000002e 07             2144 	.byte	7
0000002f 0f             2145 	.byte	15
00000030 07             2146 	.byte	7
00000031 10             2147 	.byte	16
00000032 07             2148 	.byte	7
00000033 11             2149 	.byte	17
00000034 07             2150 	.byte	7
00000035 12             2151 	.byte	18
00000036 07             2152 	.byte	7
00000037 13             2153 	.byte	19
00000038 08             2154 	.byte	8
00000039 14             2155 	.byte	20
0000003a 08             2156 	.byte	8
0000003b 15             2157 	.byte	21
0000003c 08             2158 	.byte	8
0000003d 16             2159 	.byte	22
0000003e 08             2160 	.byte	8
0000003f 17             2161 	.byte	23
00000040 08             2162 	.byte	8
00000041 18             2163 	.byte	24
00000042 08             2164 	.byte	8
00000043 19             2165 	.byte	25
00000044 08             2166 	.byte	8
00000045 1a             2167 	.byte	26
00000046 08             2168 	.byte	8
00000047 1b             2169 	.byte	27
00000048 08             2170 	.byte	8
00000049 1c             2171 	.byte	28
0000004a 08             2172 	.byte	8
0000004b 1d             2173 	.byte	29
0000004c 07             2174 	.byte	7
0000004d 1e             2175 	.byte	30
0000004e 08             2176 	.byte	8
0000004f 1f             2177 	.byte	31
00000050 07             2178 	.byte	7
00000051 20             2179 	.byte	32
00000052 07             2180 	.byte	7
00000053 21             2181 	.byte	33
00000054 07             2182 	.byte	7
00000055 22             2183 	.byte	34
00000056 07             2184 	.byte	7
00000057 23             2185 	.byte	35
00000058 07             2186 	.byte	7
00000059 24             2187 	.byte	36
0000005a 07             2188 	.byte	7
0000005b 25             2189 	.byte	37
0000005c 07             2190 	.byte	7
0000005d 26             2191 	.byte	38
0000005e 07             2192 	.byte	7
0000005f 27             2193 	.byte	39
00000060 07             2194 	.byte	7
00000061 28             2195 	.byte	40
00000062 07             2196 	.byte	7
00000063 29             2197 	.byte	41
00000064 07             2198 	.byte	7
00000065 2a             2199 	.byte	42

                                                                      Page 44
                                                              C:\Users\nhuliyap\AppData\Local\Temp\gh_000091s1.s
00000066 07             2200 	.byte	7
00000067 2b             2201 	.byte	43
00000068 07             2202 	.byte	7
00000069 2c             2203 	.byte	44
0000006a 07             2204 	.byte	7
0000006b 2d             2205 	.byte	45
0000006c 07             2206 	.byte	7
0000006d 2e             2207 	.byte	46
0000006e 07             2208 	.byte	7
0000006f 2f             2209 	.byte	47
00000070 07             2210 	.byte	7
00000071 30             2211 	.byte	48
00000072 07             2212 	.byte	7
00000073 31             2213 	.byte	49
00000074 07             2214 	.byte	7
00000075 32             2215 	.byte	50
00000076 07             2216 	.byte	7
00000077 33             2217 	.byte	51
00000078 07             2218 	.byte	7
00000079 34             2219 	.byte	52
0000007a 07             2220 	.byte	7
0000007b 35             2221 	.byte	53
0000007c 07             2222 	.byte	7
0000007d 36             2223 	.byte	54
0000007e 07             2224 	.byte	7
0000007f 37             2225 	.byte	55
00000080 07             2226 	.byte	7
00000081 38             2227 	.byte	56
00000082 07             2228 	.byte	7
00000083 39             2229 	.byte	57
00000084 07             2230 	.byte	7
00000085 3a             2231 	.byte	58
00000086 07             2232 	.byte	7
00000087 3b             2233 	.byte	59
00000088 07             2234 	.byte	7
00000089 3c             2235 	.byte	60
0000008a 07             2236 	.byte	7
0000008b 3d             2237 	.byte	61
0000008c 07             2238 	.byte	7
0000008d 3e             2239 	.byte	62
0000008e 07             2240 	.byte	7
0000008f 3f             2241 	.byte	63
                        2242 .LDW_unq_2:
                        2243 	.section	.debug_info
                        2244 .LDW_41e6e00:
000000b1 25             2245 	.byte	37
000000b2 756e7369676e   2246 	.strz	"unsigned char"
000000b8 656420636861 
000000be 7200 
000000c0 08             2247 	.byte	8
000000c1 01             2248 	.byte	1
                        2249 
                        2250 	.section	.debug_abbrev
00000017 25             2251 	.byte	37
00000018 24             2252 	.byte	36
00000019 00             2253 	.byte	0
0000001a 0308           2254 	.byte	3,8
0000001c 3e0b           2255 	.byte	62,11
0000001e 0b0b           2256 	.byte	11,11
00000020 0000           2257 	.byte	0,0
                        2258 

                                                                      Page 45
                                                              C:\Users\nhuliyap\AppData\Local\Temp\gh_000091s1.s
                        2259 	.section	.debug_info
                        2260 .LDW_41e6fc0:
000000c2 44             2261 	.byte	68
000000c3 00000000*      2262 	.word	.LDW_422ef78
000000c7 01             2263 	.byte	1
                        2264 
                        2265 	.section	.debug_abbrev
00000022 44             2266 	.byte	68
00000023 15             2267 	.byte	21
00000024 01             2268 	.byte	1
00000025 4910           2269 	.byte	73,16
00000027 270c           2270 	.byte	39,12
00000029 0000           2271 	.byte	0,0
                        2272 
                        2273 	.section	.debug_info
                        2274 .LDW_41e1a20:
000000c8 12             2275 	.byte	18
000000c9 00000000*      2276 	.word	.LDW_422dc80
000000cd 00             2277 	.byte	0
                        2278 
                        2279 	.section	.debug_abbrev
0000002b 12             2280 	.byte	18
0000002c 05             2281 	.byte	5
0000002d 00             2282 	.byte	0
0000002e 4910           2283 	.byte	73,16
00000030 4b0c           2284 	.byte	75,12
00000032 0000           2285 	.byte	0,0
                        2286 
                        2287 	.section	.debug_info
000000ce 00             2288 	.byte	0
                        2289 
                        2290 .LDW_41e72d0:
000000cf 44             2291 	.byte	68
000000d0 00000000*      2292 	.word	.LDW_422ef78
000000d4 01             2293 	.byte	1
                        2294 
                        2295 .LDW_41e1480:
000000d5 12             2296 	.byte	18
000000d6 00000000*      2297 	.word	.LDW_422dc80
000000da 00             2298 	.byte	0
                        2299 
000000db 00             2300 	.byte	0
                        2301 
                        2302 .LDW_41e6f50:
000000dc 45             2303 	.byte	69
000000dd 01             2304 	.byte	1
                        2305 
                        2306 	.section	.debug_abbrev
00000034 45             2307 	.byte	69
00000035 15             2308 	.byte	21
00000036 01             2309 	.byte	1
00000037 270c           2310 	.byte	39,12
00000039 0000           2311 	.byte	0,0
                        2312 
                        2313 	.section	.debug_info
000000de 00             2314 	.byte	0
                        2315 
                        2316 .LDW_41e6ce8:
000000df 45             2317 	.byte	69
000000e0 01             2318 	.byte	1
                        2319 

                                                                      Page 46
                                                              C:\Users\nhuliyap\AppData\Local\Temp\gh_000091s1.s
000000e1 00             2320 	.byte	0
                        2321 
                        2322 .LDW_41fb698:
000000e2 29             2323 	.byte	41
000000e3 00000000*      2324 	.word	.LDW_41fb640
                        2325 
                        2326 	.section	.debug_abbrev
0000003b 29             2327 	.byte	41
0000003c 26             2328 	.byte	38
0000003d 00             2329 	.byte	0
0000003e 4910           2330 	.byte	73,16
00000040 0000           2331 	.byte	0,0
                        2332 
                        2333 	.section	.debug_info
                        2334 .LDW_41e7030:
000000e7 2f             2335 	.byte	47
000000e8 00000000*      2336 	.word	.LDW_41fb698
                        2337 
                        2338 	.section	.debug_abbrev
00000042 2f             2339 	.byte	47
00000043 0f             2340 	.byte	15
00000044 00             2341 	.byte	0
00000045 4910           2342 	.byte	73,16
00000047 0000           2343 	.byte	0,0
                        2344 
                        2345 	.section	.debug_info
                        2346 .LDW_41e6f88:
000000ec 44             2347 	.byte	68
000000ed 00000000*      2348 	.word	.LDW_422ef78
000000f1 01             2349 	.byte	1
                        2350 
                        2351 .LDW_41e1bd0:
000000f2 12             2352 	.byte	18
000000f3 00000000*      2353 	.word	.LDW_41fb6f0
000000f7 00             2354 	.byte	0
                        2355 
000000f8 00             2356 	.byte	0
                        2357 
                        2358 .LDW_41e70a0:
000000f9 2f             2359 	.byte	47
000000fa 00000000*      2360 	.word	.LDW_41fb640
                        2361 
                        2362 .LDW_41e6d58:
000000fe 25             2363 	.byte	37
000000ff 756e7369676e   2364 	.strz	"unsigned long"
00000105 6564206c6f6e 
0000010b 6700 
0000010d 07             2365 	.byte	7
0000010e 04             2366 	.byte	4
                        2367 
                        2368 .LDW_41e6d90:
0000010f 25             2369 	.byte	37
00000110 756e7369676e   2370 	.strz	"unsigned short"
00000116 65642073686f 
0000011c 727400 
0000011f 07             2371 	.byte	7
00000120 02             2372 	.byte	2
                        2373 
                        2374 .LDW_41e6e70:
00000121 45             2375 	.byte	69
00000122 01             2376 	.byte	1

                                                                      Page 47
                                                              C:\Users\nhuliyap\AppData\Local\Temp\gh_000091s1.s
                        2377 
                        2378 .LDW_41e1ae0:
00000123 12             2379 	.byte	18
00000124 00000000*      2380 	.word	.LDW_41fb838
00000128 00             2381 	.byte	0
                        2382 
                        2383 .LDW_41e1b10:
00000129 12             2384 	.byte	18
0000012a 00000000*      2385 	.word	.LDW_41fb8e8
0000012e 00             2386 	.byte	0
                        2387 
                        2388 .LDW_41e1b40:
0000012f 12             2389 	.byte	18
00000130 00000000*      2390 	.word	.LDW_41fb940
00000134 00             2391 	.byte	0
                        2392 
00000135 00             2393 	.byte	0
                        2394 
                        2395 .LDW_41e6d20:
00000136 45             2396 	.byte	69
00000137 01             2397 	.byte	1
                        2398 
                        2399 .LDW_4c89948:
00000138 12             2400 	.byte	18
00000139 00000000*      2401 	.word	.LDW_41fb838
0000013d 00             2402 	.byte	0
                        2403 
0000013e 00             2404 	.byte	0
                        2405 
                        2406 .LDW_41e6ea8:
0000013f 44             2407 	.byte	68
00000140 00000000*      2408 	.word	.LDW_41fb8e8
00000144 01             2409 	.byte	1
                        2410 
                        2411 .LDW_4c89c48:
00000145 12             2412 	.byte	18
00000146 00000000*      2413 	.word	.LDW_41fb6f0
0000014a 00             2414 	.byte	0
                        2415 
0000014b 00             2416 	.byte	0
                        2417 
                        2418 .LDW_41e6c08:
0000014c 44             2419 	.byte	68
0000014d 00000000*      2420 	.word	.LDW_41fb8e8
00000151 01             2421 	.byte	1
                        2422 
                        2423 .LDW_4c89d98:
00000152 12             2424 	.byte	18
00000153 00000000*      2425 	.word	.LDW_41fb6f0
00000157 00             2426 	.byte	0
                        2427 
00000158 00             2428 	.byte	0
                        2429 
                        2430 .LDW_41e70d8:
00000159 44             2431 	.byte	68
0000015a 00000000*      2432 	.word	.LDW_41fb8e8
0000015e 01             2433 	.byte	1
                        2434 
                        2435 .LDW_4c89c18:
0000015f 12             2436 	.byte	18
00000160 00000000*      2437 	.word	.LDW_41fb6f0

                                                                      Page 48
                                                              C:\Users\nhuliyap\AppData\Local\Temp\gh_000091s1.s
00000164 00             2438 	.byte	0
                        2439 
00000165 00             2440 	.byte	0
                        2441 
                        2442 .LDW_41e6c40:
00000166 44             2443 	.byte	68
00000167 00000000*      2444 	.word	.LDW_41fb8e8
0000016b 01             2445 	.byte	1
                        2446 
                        2447 .LDW_4c89888:
0000016c 12             2448 	.byte	18
0000016d 00000000*      2449 	.word	.LDW_41fb6f0
00000171 00             2450 	.byte	0
                        2451 
00000172 00             2452 	.byte	0
                        2453 
                        2454 .LDW_41e6f18:
00000173 44             2455 	.byte	68
00000174 00000000*      2456 	.word	.LDW_41fb940
00000178 01             2457 	.byte	1
                        2458 
                        2459 .LDW_4c89b58:
00000179 12             2460 	.byte	18
0000017a 00000000*      2461 	.word	.LDW_41fb6f0
0000017e 00             2462 	.byte	0
                        2463 
0000017f 00             2464 	.byte	0
                        2465 
                        2466 .LDW_41e7148:
00000180 44             2467 	.byte	68
00000181 00000000*      2468 	.word	.LDW_4c73ff0
00000185 01             2469 	.byte	1
                        2470 
                        2471 .LDW_4c89918:
00000186 12             2472 	.byte	18
00000187 00000000*      2473 	.word	.LDW_41fb6f0
0000018b 00             2474 	.byte	0
                        2475 
0000018c 00             2476 	.byte	0
                        2477 
                        2478 .LDW_41e7180:
0000018d 44             2479 	.byte	68
0000018e 00000000*      2480 	.word	.LDW_422dc80
00000192 01             2481 	.byte	1
                        2482 
                        2483 .LDW_4c89be8:
00000193 12             2484 	.byte	18
00000194 00000000*      2485 	.word	.LDW_41fb6f0
00000198 00             2486 	.byte	0
                        2487 
00000199 00             2488 	.byte	0
                        2489 
                        2490 .LDW_41e6ee0:
0000019a 44             2491 	.byte	68
0000019b 00000000*      2492 	.word	.LDW_4c74200
0000019f 01             2493 	.byte	1
                        2494 
                        2495 .LDW_4c899d8:
000001a0 12             2496 	.byte	18
000001a1 00000000*      2497 	.word	.LDW_41fb6f0
000001a5 00             2498 	.byte	0

                                                                      Page 49
                                                              C:\Users\nhuliyap\AppData\Local\Temp\gh_000091s1.s
                        2499 
000001a6 00             2500 	.byte	0
                        2501 
                        2502 .LDW_41e7298:
000001a7 44             2503 	.byte	68
000001a8 00000000*      2504 	.word	.LDW_4c74200
000001ac 01             2505 	.byte	1
                        2506 
                        2507 .LDW_4c89a38:
000001ad 12             2508 	.byte	18
000001ae 00000000*      2509 	.word	.LDW_41fb6f0
000001b2 00             2510 	.byte	0
                        2511 
000001b3 00             2512 	.byte	0
                        2513 
                        2514 .LDW_41e6c78:
000001b4 44             2515 	.byte	68
000001b5 00000000*      2516 	.word	.LDW_4c74200
000001b9 01             2517 	.byte	1
                        2518 
                        2519 .LDW_4c89d08:
000001ba 12             2520 	.byte	18
000001bb 00000000*      2521 	.word	.LDW_41fb6f0
000001bf 00             2522 	.byte	0
                        2523 
000001c0 00             2524 	.byte	0
                        2525 
                        2526 .LDW_41e6cb0:
000001c1 45             2527 	.byte	69
000001c2 01             2528 	.byte	1
                        2529 
                        2530 .LDW_4c897f8:
000001c3 12             2531 	.byte	18
000001c4 00000000*      2532 	.word	.LDW_41fb838
000001c8 00             2533 	.byte	0
                        2534 
000001c9 00             2535 	.byte	0
                        2536 
                        2537 .LDW_41e7340:
000001ca 45             2538 	.byte	69
000001cb 01             2539 	.byte	1
                        2540 
                        2541 .LDW_4c89a68:
000001cc 12             2542 	.byte	18
000001cd 00000000*      2543 	.word	.LDW_41fb838
000001d1 00             2544 	.byte	0
                        2545 
                        2546 .LDW_4c89a98:
000001d2 12             2547 	.byte	18
000001d3 00000000*      2548 	.word	.LDW_4c73ff0
000001d7 00             2549 	.byte	0
                        2550 
000001d8 00             2551 	.byte	0
                        2552 
                        2553 .LDW_41e7308:
000001d9 45             2554 	.byte	69
000001da 01             2555 	.byte	1
                        2556 
                        2557 .LDW_4c89828:
000001db 12             2558 	.byte	18
000001dc 00000000*      2559 	.word	.LDW_41fb838

                                                                      Page 50
                                                              C:\Users\nhuliyap\AppData\Local\Temp\gh_000091s1.s
000001e0 00             2560 	.byte	0
                        2561 
                        2562 .LDW_4c89ac8:
000001e1 12             2563 	.byte	18
000001e2 00000000*      2564 	.word	.LDW_4c74200
000001e6 00             2565 	.byte	0
                        2566 
000001e7 00             2567 	.byte	0
                        2568 
                        2569 .LDW_41e7378:
000001e8 45             2570 	.byte	69
000001e9 01             2571 	.byte	1
                        2572 
                        2573 .LDW_4c89b88:
000001ea 12             2574 	.byte	18
000001eb 00000000*      2575 	.word	.LDW_41fb838
000001ef 00             2576 	.byte	0
                        2577 
                        2578 .LDW_4c89858:
000001f0 12             2579 	.byte	18
000001f1 00000000*      2580 	.word	.LDW_4c74200
000001f5 00             2581 	.byte	0
                        2582 
000001f6 00             2583 	.byte	0
                        2584 
                        2585 .LDW_4c8fc10:
000001f7 45             2586 	.byte	69
000001f8 01             2587 	.byte	1
                        2588 
                        2589 .LDW_4c89e88:
000001f9 12             2590 	.byte	18
000001fa 00000000*      2591 	.word	.LDW_41fb838
000001fe 00             2592 	.byte	0
                        2593 
                        2594 .LDW_4c89df8:
000001ff 12             2595 	.byte	18
00000200 00000000*      2596 	.word	.LDW_4c74200
00000204 00             2597 	.byte	0
                        2598 
00000205 00             2599 	.byte	0
                        2600 
                        2601 .LDW_4c8fa50:
00000206 45             2602 	.byte	69
00000207 01             2603 	.byte	1
                        2604 
                        2605 .LDW_4c89eb8:
00000208 12             2606 	.byte	18
00000209 00000000*      2607 	.word	.LDW_41fb838
0000020d 00             2608 	.byte	0
                        2609 
                        2610 .LDW_4c89e58:
0000020e 12             2611 	.byte	18
0000020f 00000000*      2612 	.word	.LDW_41fb8e8
00000213 00             2613 	.byte	0
                        2614 
00000214 00             2615 	.byte	0
                        2616 
                        2617 .LDW_4c8fa88:
00000215 45             2618 	.byte	69
00000216 01             2619 	.byte	1
                        2620 

                                                                      Page 51
                                                              C:\Users\nhuliyap\AppData\Local\Temp\gh_000091s1.s
                        2621 .LDW_4c89f78:
00000217 12             2622 	.byte	18
00000218 00000000*      2623 	.word	.LDW_41fb838
0000021c 00             2624 	.byte	0
                        2625 
0000021d 00             2626 	.byte	0
                        2627 
                        2628 .LDW_4c8faf8:
0000021e 44             2629 	.byte	68
0000021f 00000000*      2630 	.word	.LDW_4ca15f0
00000223 01             2631 	.byte	1
                        2632 
                        2633 .LDW_4d4c448:
00000224 12             2634 	.byte	18
00000225 00000000*      2635 	.word	.LDW_41fb6f0
00000229 00             2636 	.byte	0
                        2637 
0000022a 00             2638 	.byte	0
                        2639 
                        2640 .LDW_4c8fd98:
0000022b 45             2641 	.byte	69
0000022c 01             2642 	.byte	1
                        2643 
                        2644 .LDW_4d4c388:
0000022d 12             2645 	.byte	18
0000022e 00000000*      2646 	.word	.LDW_41fb838
00000232 00             2647 	.byte	0
                        2648 
00000233 00             2649 	.byte	0
                        2650 
                        2651 .LDW_4c8f9e0:
00000234 44             2652 	.byte	68
00000235 00000000*      2653 	.word	.LDW_4c74200
00000239 01             2654 	.byte	1
                        2655 
                        2656 .LDW_4d4c058:
0000023a 12             2657 	.byte	18
0000023b 00000000*      2658 	.word	.LDW_41fb6f0
0000023f 00             2659 	.byte	0
                        2660 
00000240 00             2661 	.byte	0
                        2662 
                        2663 .LDW_4c8fcf0:
00000241 44             2664 	.byte	68
00000242 00000000*      2665 	.word	.LDW_4c74200
00000246 01             2666 	.byte	1
                        2667 
                        2668 .LDW_4d4be78:
00000247 12             2669 	.byte	18
00000248 00000000*      2670 	.word	.LDW_41fb6f0
0000024c 00             2671 	.byte	0
                        2672 
0000024d 00             2673 	.byte	0
                        2674 
                        2675 .LDW_4c8f8c8:
0000024e 44             2676 	.byte	68
0000024f 00000000*      2677 	.word	.LDW_4c74200
00000253 01             2678 	.byte	1
                        2679 
00000254 00             2680 	.byte	0
                        2681 

                                                                      Page 52
                                                              C:\Users\nhuliyap\AppData\Local\Temp\gh_000091s1.s
                        2682 .LDW_4c8fac0:
00000255 44             2683 	.byte	68
00000256 00000000*      2684 	.word	.LDW_4ca0ca8
0000025a 01             2685 	.byte	1
                        2686 
                        2687 .LDW_4d4c2c8:
0000025b 12             2688 	.byte	18
0000025c 00000000*      2689 	.word	.LDW_41fb6f0
00000260 00             2690 	.byte	0
                        2691 
00000261 00             2692 	.byte	0
                        2693 
                        2694 .LDW_4c8f820:
00000262 44             2695 	.byte	68
00000263 00000000*      2696 	.word	.LDW_4ca0ca8
00000267 01             2697 	.byte	1
                        2698 
                        2699 .LDW_4d4c2f8:
00000268 12             2700 	.byte	18
00000269 00000000*      2701 	.word	.LDW_41fb6f0
0000026d 00             2702 	.byte	0
                        2703 
0000026e 00             2704 	.byte	0
                        2705 
                        2706 .LDW_4c8fd60:
0000026f 44             2707 	.byte	68
00000270 00000000*      2708 	.word	.LDW_4ca0ca8
00000274 01             2709 	.byte	1
                        2710 
                        2711 .LDW_4d4bea8:
00000275 12             2712 	.byte	18
00000276 00000000*      2713 	.word	.LDW_41fb6f0
0000027a 00             2714 	.byte	0
                        2715 
0000027b 00             2716 	.byte	0
                        2717 
                        2718 .LDW_4c8fb68:
0000027c 44             2719 	.byte	68
0000027d 00000000*      2720 	.word	.LDW_4ca0ca8
00000281 01             2721 	.byte	1
                        2722 
                        2723 .LDW_4d4c1d8:
00000282 12             2724 	.byte	18
00000283 00000000*      2725 	.word	.LDW_41fb6f0
00000287 00             2726 	.byte	0
                        2727 
00000288 00             2728 	.byte	0
                        2729 
                        2730 .LDW_4c8fdd0:
00000289 44             2731 	.byte	68
0000028a 00000000*      2732 	.word	.LDW_4ca0ca8
0000028e 01             2733 	.byte	1
                        2734 
                        2735 .LDW_4d4c3b8:
0000028f 12             2736 	.byte	18
00000290 00000000*      2737 	.word	.LDW_41fb6f0
00000294 00             2738 	.byte	0
                        2739 
00000295 00             2740 	.byte	0
                        2741 
                        2742 .LDW_4c8fb30:

                                                                      Page 53
                                                              C:\Users\nhuliyap\AppData\Local\Temp\gh_000091s1.s
00000296 2f             2743 	.byte	47
00000297 00000000*      2744 	.word	.LDW_422dc80
                        2745 
                        2746 .LDW_4c8f9a8:
0000029b 44             2747 	.byte	68
0000029c 00000000*      2748 	.word	.LDW_4ca0ca8
000002a0 01             2749 	.byte	1
                        2750 
                        2751 .LDW_4d4bed8:
000002a1 12             2752 	.byte	18
000002a2 00000000*      2753 	.word	.LDW_41fb6f0
000002a6 00             2754 	.byte	0
                        2755 
                        2756 .LDW_4d4c088:
000002a7 12             2757 	.byte	18
000002a8 00000000*      2758 	.word	.LDW_4ca0f68
000002ac 00             2759 	.byte	0
                        2760 
                        2761 .LDW_4d4bfc8:
000002ad 12             2762 	.byte	18
000002ae 00000000*      2763 	.word	.LDW_41fb940
000002b2 00             2764 	.byte	0
                        2765 
                        2766 .LDW_4d4bff8:
000002b3 12             2767 	.byte	18
000002b4 00000000*      2768 	.word	.LDW_41fb940
000002b8 00             2769 	.byte	0
                        2770 
000002b9 00             2771 	.byte	0
                        2772 
                        2773 .LDW_4c8fa18:
000002ba 2f             2774 	.byte	47
000002bb 00000000*      2775 	.word	.LDW_4ca08e0
                        2776 
                        2777 .LDW_4c8fe78:
000002bf 44             2778 	.byte	68
000002c0 00000000*      2779 	.word	.LDW_4ca0ca8
000002c4 01             2780 	.byte	1
                        2781 
                        2782 .LDW_4d4c028:
000002c5 12             2783 	.byte	18
000002c6 00000000*      2784 	.word	.LDW_41fb6f0
000002ca 00             2785 	.byte	0
                        2786 
                        2787 .LDW_4d4c0b8:
000002cb 12             2788 	.byte	18
000002cc 00000000*      2789 	.word	.LDW_4ca12d8
000002d0 00             2790 	.byte	0
                        2791 
000002d1 00             2792 	.byte	0
                        2793 
                        2794 .LDW_4c8fc48:
000002d2 44             2795 	.byte	68
000002d3 00000000*      2796 	.word	.LDW_4ca0ca8
000002d7 01             2797 	.byte	1
                        2798 
                        2799 .LDW_4d4c418:
000002d8 12             2800 	.byte	18
000002d9 00000000*      2801 	.word	.LDW_41fb6f0
000002dd 00             2802 	.byte	0
                        2803 

                                                                      Page 54
                                                              C:\Users\nhuliyap\AppData\Local\Temp\gh_000091s1.s
                        2804 .LDW_4d4c0e8:
000002de 12             2805 	.byte	18
000002df 00000000*      2806 	.word	.LDW_4ca1280
000002e3 00             2807 	.byte	0
                        2808 
                        2809 .LDW_4d4c118:
000002e4 12             2810 	.byte	18
000002e5 00000000*      2811 	.word	.LDW_4ca12d8
000002e9 00             2812 	.byte	0
                        2813 
000002ea 00             2814 	.byte	0
                        2815 
                        2816 .LDW_4c8fba0:
000002eb 44             2817 	.byte	68
000002ec 00000000*      2818 	.word	.LDW_4ca0ca8
000002f0 01             2819 	.byte	1
                        2820 
                        2821 .LDW_4d4c238:
000002f1 12             2822 	.byte	18
000002f2 00000000*      2823 	.word	.LDW_41fb6f0
000002f6 00             2824 	.byte	0
                        2825 
                        2826 .LDW_4d4c478:
000002f7 12             2827 	.byte	18
000002f8 00000000*      2828 	.word	.LDW_4ca1280
000002fc 00             2829 	.byte	0
                        2830 
                        2831 .LDW_4d4c5f8:
000002fd 12             2832 	.byte	18
000002fe 00000000*      2833 	.word	.LDW_4ca12d8
00000302 00             2834 	.byte	0
                        2835 
00000303 00             2836 	.byte	0
                        2837 
                        2838 .LDW_4c8fd28:
00000304 44             2839 	.byte	68
00000305 00000000*      2840 	.word	.LDW_4ca0ca8
00000309 01             2841 	.byte	1
                        2842 
                        2843 .LDW_4d4c7a8:
0000030a 12             2844 	.byte	18
0000030b 00000000*      2845 	.word	.LDW_41fb6f0
0000030f 00             2846 	.byte	0
                        2847 
                        2848 .LDW_4d4c4d8:
00000310 12             2849 	.byte	18
00000311 00000000*      2850 	.word	.LDW_4ca1280
00000315 00             2851 	.byte	0
                        2852 
                        2853 .LDW_4d4c508:
00000316 12             2854 	.byte	18
00000317 00000000*      2855 	.word	.LDW_4ca12d8
0000031b 00             2856 	.byte	0
                        2857 
0000031c 00             2858 	.byte	0
                        2859 
                        2860 .LDW_4c8fee8:
0000031d 44             2861 	.byte	68
0000031e 00000000*      2862 	.word	.LDW_4ca0ca8
00000322 01             2863 	.byte	1
                        2864 

                                                                      Page 55
                                                              C:\Users\nhuliyap\AppData\Local\Temp\gh_000091s1.s
                        2865 .LDW_4d4c748:
00000323 12             2866 	.byte	18
00000324 00000000*      2867 	.word	.LDW_41fb6f0
00000328 00             2868 	.byte	0
                        2869 
                        2870 .LDW_4d4c4a8:
00000329 12             2871 	.byte	18
0000032a 00000000*      2872 	.word	.LDW_4ca12d8
0000032e 00             2873 	.byte	0
                        2874 
0000032f 00             2875 	.byte	0
                        2876 
                        2877 .LDW_4c8f858:
00000330 44             2878 	.byte	68
00000331 00000000*      2879 	.word	.LDW_4ca0ca8
00000335 01             2880 	.byte	1
                        2881 
                        2882 .LDW_4d4c598:
00000336 12             2883 	.byte	18
00000337 00000000*      2884 	.word	.LDW_4ca08e0
0000033b 00             2885 	.byte	0
                        2886 
0000033c 00             2887 	.byte	0
                        2888 
                        2889 .LDW_4c8feb0:
0000033d 25             2890 	.byte	37
0000033e 756e7369676e   2891 	.strz	"unsigned int"
00000344 656420696e74 
0000034a 00 
0000034b 07             2892 	.byte	7
0000034c 04             2893 	.byte	4
                        2894 
                        2895 .LDW_4d61808:
0000034d 29             2896 	.byte	41
0000034e 00000000*      2897 	.word	.LDW_422dc80
                        2898 
                        2899 .LDW_4c8fe40:
00000352 2f             2900 	.byte	47
00000353 00000000*      2901 	.word	.LDW_4d61808
                        2902 
                        2903 .LDW_4d62ef8:
00000357 25             2904 	.byte	37
00000358 696e7400       2905 	.strz	"int"
0000035c 05             2906 	.byte	5
0000035d 04             2907 	.byte	4
                        2908 
                        2909 .LDW_4c8fff8:
0000035e 3a             2910 	.byte	58
0000035f 00             2911 	.byte	0
00000360 18             2912 	.byte	24
00000361 00000000*      2913 	.word	.LDW_422dc80
                        2914 
                        2915 	.section	.debug_abbrev
00000049 3a             2916 	.byte	58
0000004a 01             2917 	.byte	1
0000004b 01             2918 	.byte	1
0000004c 090b           2919 	.byte	9,11
0000004e 0b0f           2920 	.byte	11,15
00000050 4910           2921 	.byte	73,16
00000052 0000           2922 	.byte	0,0
                        2923 

                                                                      Page 56
                                                              C:\Users\nhuliyap\AppData\Local\Temp\gh_000091s1.s
                        2924 	.section	.debug_info
00000365 32             2925 	.byte	50
00000366 00000000*      2926 	.word	.LDW_4d62ef8
0000036a 04             2927 	.byte	4
0000036b 00             2928 	.byte	0
0000036c 17             2929 	.byte	23
                        2930 
                        2931 	.section	.debug_abbrev
00000054 32             2932 	.byte	50
00000055 21             2933 	.byte	33
00000056 00             2934 	.byte	0
00000057 4910           2935 	.byte	73,16
00000059 0b0f           2936 	.byte	11,15
0000005b 220d           2937 	.byte	34,13
0000005d 2f0d           2938 	.byte	47,13
0000005f 0000           2939 	.byte	0,0
                        2940 
                        2941 	.section	.debug_info
0000036d 00             2942 	.byte	0
                        2943 
                        2944 .LDW_4c90080:
0000036e 3a             2945 	.byte	58
0000036f 00             2946 	.byte	0
00000370 08             2947 	.byte	8
00000371 00000000*      2948 	.word	.LDW_422dc80
                        2949 
00000375 32             2950 	.byte	50
00000376 00000000*      2951 	.word	.LDW_4d62ef8
0000037a 04             2952 	.byte	4
0000037b 00             2953 	.byte	0
0000037c 07             2954 	.byte	7
                        2955 
0000037d 00             2956 	.byte	0
                        2957 
                        2958 .LDW_4d67248:
0000037e 44             2959 	.byte	68
0000037f 00000000*      2960 	.word	.LDW_41fb890
00000383 01             2961 	.byte	1
                        2962 
                        2963 .LDW_4d67a48:
00000384 12             2964 	.byte	18
00000385 00000000*      2965 	.word	.LDW_41fb890
00000389 00             2966 	.byte	0
                        2967 
                        2968 .LDW_4d67b08:
0000038a 12             2969 	.byte	18
0000038b 00000000*      2970 	.word	.LDW_41fb940
0000038f 00             2971 	.byte	0
                        2972 
00000390 00             2973 	.byte	0
                        2974 
                        2975 .LDW_4d67408:
00000391 44             2976 	.byte	68
00000392 00000000*      2977 	.word	.LDW_41fb940
00000396 01             2978 	.byte	1
                        2979 
00000397 00             2980 	.byte	0
                        2981 
                        2982 .LDW_4d67590:
00000398 44             2983 	.byte	68
00000399 00000000*      2984 	.word	.LDW_41fb940

                                                                      Page 57
                                                              C:\Users\nhuliyap\AppData\Local\Temp\gh_000091s1.s
0000039d 01             2985 	.byte	1
                        2986 
0000039e 00             2987 	.byte	0
                        2988 
                        2989 .LDW_4d67718:
0000039f 44             2990 	.byte	68
000003a0 00000000*      2991 	.word	.LDW_422dc80
000003a4 01             2992 	.byte	1
                        2993 
000003a5 00             2994 	.byte	0
                        2995 
                        2996 .LDW_4d672b8:
000003a6 44             2997 	.byte	68
000003a7 00000000*      2998 	.word	.LDW_4ca0ca8
000003ab 01             2999 	.byte	1
                        3000 
                        3001 .LDW_4d67958:
000003ac 12             3002 	.byte	18
000003ad 00000000*      3003 	.word	.LDW_41fb8e8
000003b1 00             3004 	.byte	0
                        3005 
                        3006 .LDW_4d67e08:
000003b2 12             3007 	.byte	18
000003b3 00000000*      3008 	.word	.LDW_4c506b0
000003b7 00             3009 	.byte	0
                        3010 
                        3011 .LDW_4d67d78:
000003b8 12             3012 	.byte	18
000003b9 00000000*      3013 	.word	.LDW_41fb940
000003bd 00             3014 	.byte	0
                        3015 
000003be 00             3016 	.byte	0
                        3017 
                        3018 .LDW_4d672f0:
000003bf 44             3019 	.byte	68
000003c0 00000000*      3020 	.word	.LDW_4ca0ca8
000003c4 01             3021 	.byte	1
                        3022 
                        3023 .LDW_4d67e98:
000003c5 12             3024 	.byte	18
000003c6 00000000*      3025 	.word	.LDW_41fb8e8
000003ca 00             3026 	.byte	0
                        3027 
                        3028 .LDW_4d67e68:
000003cb 12             3029 	.byte	18
000003cc 00000000*      3030 	.word	.LDW_4c50b28
000003d0 00             3031 	.byte	0
                        3032 
                        3033 .LDW_4d67d48:
000003d1 12             3034 	.byte	18
000003d2 00000000*      3035 	.word	.LDW_41fb940
000003d6 00             3036 	.byte	0
                        3037 
000003d7 00             3038 	.byte	0
                        3039 
                        3040 .LDW_4d67670:
000003d8 44             3041 	.byte	68
000003d9 00000000*      3042 	.word	.LDW_4ca0ca8
000003dd 01             3043 	.byte	1
                        3044 
                        3045 .LDW_4d67da8:

                                                                      Page 58
                                                              C:\Users\nhuliyap\AppData\Local\Temp\gh_000091s1.s
000003de 12             3046 	.byte	18
000003df 00000000*      3047 	.word	.LDW_41fb8e8
000003e3 00             3048 	.byte	0
                        3049 
                        3050 .LDW_4d67928:
000003e4 12             3051 	.byte	18
000003e5 00000000*      3052 	.word	.LDW_4c50b28
000003e9 00             3053 	.byte	0
                        3054 
                        3055 .LDW_4d67b68:
000003ea 12             3056 	.byte	18
000003eb 00000000*      3057 	.word	.LDW_41fb940
000003ef 00             3058 	.byte	0
                        3059 
000003f0 00             3060 	.byte	0
                        3061 
                        3062 .LDW_4d67130:
000003f1 44             3063 	.byte	68
000003f2 00000000*      3064 	.word	.LDW_4ca0ca8
000003f6 01             3065 	.byte	1
                        3066 
                        3067 .LDW_4d679e8:
000003f7 12             3068 	.byte	18
000003f8 00000000*      3069 	.word	.LDW_41fb8e8
000003fc 00             3070 	.byte	0
                        3071 
                        3072 .LDW_4d67dd8:
000003fd 12             3073 	.byte	18
000003fe 00000000*      3074 	.word	.LDW_41fb940
00000402 00             3075 	.byte	0
                        3076 
00000403 00             3077 	.byte	0
                        3078 
                        3079 .LDW_422ef78:
00000404 28             3080 	.byte	40
00000405 626f6f6c6561   3081 	.strz	"boolean"
0000040b 6e00 
0000040d 4e             3082 	.byte	78
0000040e 49             3083 	.byte	73
0000040f 03             3084 	.byte	3
00000410 00000000*      3085 	.word	.LDW_41e6e00
                        3086 
                        3087 	.section	.debug_abbrev
00000061 28             3088 	.byte	40
00000062 16             3089 	.byte	22
00000063 00             3090 	.byte	0
00000064 0308           3091 	.byte	3,8
00000066 3b0f           3092 	.byte	59,15
00000068 390f           3093 	.byte	57,15
0000006a 3a0f           3094 	.byte	58,15
0000006c 4910           3095 	.byte	73,16
0000006e 0000           3096 	.byte	0,0
                        3097 
                        3098 	.section	.debug_info
                        3099 .LDW_422dc80:
00000414 28             3100 	.byte	40
00000415 75696e743800   3101 	.strz	"uint8"
0000041b 50             3102 	.byte	80
0000041c 4b             3103 	.byte	75
0000041d 03             3104 	.byte	3
0000041e 00000000*      3105 	.word	.LDW_41e6e00

                                                                      Page 59
                                                              C:\Users\nhuliyap\AppData\Local\Temp\gh_000091s1.s
                        3106 
                        3107 .LDW_41fb940:
00000422 28             3108 	.byte	40
00000423 75696e743136   3109 	.strz	"uint16"
00000429 00 
0000042a 52             3110 	.byte	82
0000042b 4a             3111 	.byte	74
0000042c 03             3112 	.byte	3
0000042d 00000000*      3113 	.word	.LDW_41e6d90
                        3114 
                        3115 .LDW_41fb890:
00000431 28             3116 	.byte	40
00000432 75696e743332   3117 	.strz	"uint32"
00000438 00 
00000439 54             3118 	.byte	84
0000043a 4a             3119 	.byte	74
0000043b 03             3120 	.byte	3
0000043c 00000000*      3121 	.word	.LDW_41e6d58
                        3122 
                        3123 .LDW_4ca0ca8:
00000440 28             3124 	.byte	40
00000441 5374645f5265   3125 	.strz	"Std_ReturnType"
00000447 7475726e5479 
0000044d 706500 
00000450 4e             3126 	.byte	78
00000451 0f             3127 	.byte	15
00000452 02             3128 	.byte	2
00000453 00000000*      3129 	.word	.LDW_422dc80
                        3130 
                        3131 .LDW_4c8a1c0:
00000457 2e             3132 	.byte	46
00000458 00             3133 	.byte	0
00000459 15             3134 	.byte	21
0000045a 0d             3135 	.byte	13
0000045b 09             3136 	.byte	9
0000045c 01             3137 	.byte	1
0000045d 01             3138 	.byte	1
                        3139 
                        3140 	.section	.debug_abbrev
00000070 2e             3141 	.byte	46
00000071 04             3142 	.byte	4
00000072 01             3143 	.byte	1
00000073 0308           3144 	.byte	3,8
00000075 3b0f           3145 	.byte	59,15
00000077 390f           3146 	.byte	57,15
00000079 3a0f           3147 	.byte	58,15
0000007b 0b0f           3148 	.byte	11,15
0000007d 320b           3149 	.byte	50,11
0000007f 0000           3150 	.byte	0,0
                        3151 
                        3152 	.section	.debug_info
                        3153 .LDW_4c8a210:
0000045e 2d             3154 	.byte	45
0000045f 4d454d49465f   3155 	.strz	"MEMIF_JOB_OK"
00000465 4a4f425f4f4b 
0000046b 00 
0000046c 16             3156 	.byte	22
0000046d 03             3157 	.byte	3
0000046e 09             3158 	.byte	9
0000046f 00             3159 	.byte	0
                        3160 

                                                                      Page 60
                                                              C:\Users\nhuliyap\AppData\Local\Temp\gh_000091s1.s
                        3161 	.section	.debug_abbrev
00000081 2d             3162 	.byte	45
00000082 28             3163 	.byte	40
00000083 00             3164 	.byte	0
00000084 0308           3165 	.byte	3,8
00000086 3b0f           3166 	.byte	59,15
00000088 390f           3167 	.byte	57,15
0000008a 3a0f           3168 	.byte	58,15
0000008c 1c0d           3169 	.byte	28,13
0000008e 0000           3170 	.byte	0,0
                        3171 
                        3172 	.section	.debug_info
                        3173 .LDW_4d4b768:
00000470 2d             3174 	.byte	45
00000471 4d454d49465f   3175 	.strz	"MEMIF_JOB_FAILED"
00000477 4a4f425f4641 
0000047d 494c454400 
00000482 17             3176 	.byte	23
00000483 07             3177 	.byte	7
00000484 09             3178 	.byte	9
00000485 01             3179 	.byte	1
                        3180 
                        3181 .LDW_4d4b568:
00000486 2d             3182 	.byte	45
00000487 4d454d49465f   3183 	.strz	"MEMIF_JOB_PENDING"
0000048d 4a4f425f5045 
00000493 4e44494e4700 
00000499 18             3184 	.byte	24
0000049a 07             3185 	.byte	7
0000049b 09             3186 	.byte	9
0000049c 02             3187 	.byte	2
                        3188 
                        3189 .LDW_4d4b328:
0000049d 2d             3190 	.byte	45
0000049e 4d454d49465f   3191 	.strz	"MEMIF_JOB_CANCELED"
000004a4 4a4f425f4341 
000004aa 4e43454c4544 
000004b0 00 
000004b1 19             3192 	.byte	25
000004b2 07             3193 	.byte	7
000004b3 09             3194 	.byte	9
000004b4 03             3195 	.byte	3
                        3196 
                        3197 .LDW_4d4b2e8:
000004b5 2d             3198 	.byte	45
000004b6 4d454d49465f   3199 	.strz	"MEMIF_BLOCK_INCONSISTENT"
000004bc 424c4f434b5f 
000004c2 494e434f4e53 
000004c8 495354454e54 
000004ce 00 
000004cf 1a             3200 	.byte	26
000004d0 07             3201 	.byte	7
000004d1 09             3202 	.byte	9
000004d2 04             3203 	.byte	4
                        3204 
                        3205 .LDW_4d4b368:
000004d3 2d             3206 	.byte	45
000004d4 4d454d49465f   3207 	.strz	"MEMIF_BLOCK_INVALID"
000004da 424c4f434b5f 
000004e0 494e56414c49 
000004e6 4400 

                                                                      Page 61
                                                              C:\Users\nhuliyap\AppData\Local\Temp\gh_000091s1.s
000004e8 1b             3208 	.byte	27
000004e9 07             3209 	.byte	7
000004ea 09             3210 	.byte	9
000004eb 05             3211 	.byte	5
                        3212 
000004ec 00             3213 	.byte	0
                        3214 
                        3215 .LDW_4ca15f0:
000004ed 28             3216 	.byte	40
000004ee 4d656d49665f   3217 	.strz	"MemIf_JobResultType"
000004f4 4a6f62526573 
000004fa 756c74547970 
00000500 6500 
00000502 1c             3218 	.byte	28
00000503 02             3219 	.byte	2
00000504 09             3220 	.byte	9
00000505 00000000*      3221 	.word	.LDW_4c8a1c0
                        3222 
                        3223 .LDW_41fb8e8:
00000509 28             3224 	.byte	40
0000050a 4665655f3330   3225 	.strz	"Fee_30_SmallSector_AddressType"
00000510 5f536d616c6c 
00000516 536563746f72 
0000051c 5f4164647265 
00000522 737354797065 
00000528 00 
00000529 57             3226 	.byte	87
0000052a 10             3227 	.byte	16
0000052b 0a             3228 	.byte	10
0000052c 00000000*      3229 	.word	.LDW_41fb890
                        3230 
                        3231 .LDW_4c506b0:
00000530 28             3232 	.byte	40
00000531 4665655f3330   3233 	.strz	"Fee_30_SmallSector_DataPtr"
00000537 5f536d616c6c 
0000053d 536563746f72 
00000543 5f4461746150 
00000549 747200 
0000054c 70             3234 	.byte	112
0000054d 3f             3235 	.byte	63
0000054e 0a             3236 	.byte	10
0000054f 00000000*      3237 	.word	.LDW_4c8fb30
                        3238 
                        3239 .LDW_4c50b28:
00000553 28             3240 	.byte	40
00000554 4665655f3330   3241 	.strz	"Fee_30_SmallSector_ConstDataPtr"
0000055a 5f536d616c6c 
00000560 536563746f72 
00000566 5f436f6e7374 
0000056c 446174615074 
00000572 7200 
00000574 71             3242 	.byte	113
00000575 41             3243 	.byte	65
00000576 0a             3244 	.byte	10
00000577 00000000*      3245 	.word	.LDW_4c8fe40
                        3246 
                        3247 .LDW_4d65028:
0000057b 28             3248 	.byte	40
0000057c 4665655f3330   3249 	.strz	"Fee_30_SmallSector_VarDataPtrType"
00000582 5f536d616c6c 
00000588 536563746f72 

                                                                      Page 62
                                                              C:\Users\nhuliyap\AppData\Local\Temp\gh_000091s1.s
0000058e 5f5661724461 
00000594 746150747254 
0000059a 79706500 
0000059e 2a             3250 	.byte	42
0000059f 3f             3251 	.byte	63
000005a0 08             3252 	.byte	8
000005a1 00000000*      3253 	.word	.LDW_4c8fb30
                        3254 
                        3255 .LDW_4c8a558:
000005a5 2e             3256 	.byte	46
000005a6 00             3257 	.byte	0
000005a7 2c             3258 	.byte	44
000005a8 0d             3259 	.byte	13
000005a9 08             3260 	.byte	8
000005aa 01             3261 	.byte	1
000005ab 01             3262 	.byte	1
                        3263 
                        3264 .LDW_4d62058:
000005ac 2d             3265 	.byte	45
000005ad 4645455f3330   3266 	.strz	"FEE_30_SMALLSECTOR_READ_JOB"
000005b3 5f534d414c4c 
000005b9 534543544f52 
000005bf 5f524541445f 
000005c5 4a4f4200 
000005c9 2d             3267 	.byte	45
000005ca 03             3268 	.byte	3
000005cb 08             3269 	.byte	8
000005cc 00             3270 	.byte	0
                        3271 
                        3272 .LDW_4d61d18:
000005cd 2d             3273 	.byte	45
000005ce 4645455f3330   3274 	.strz	"FEE_30_SMALLSECTOR_WRITE_JOB"
000005d4 5f534d414c4c 
000005da 534543544f52 
000005e0 5f5752495445 
000005e6 5f4a4f4200 
000005eb 2e             3275 	.byte	46
000005ec 07             3276 	.byte	7
000005ed 08             3277 	.byte	8
000005ee 01             3278 	.byte	1
                        3279 
                        3280 .LDW_4d61e18:
000005ef 2d             3281 	.byte	45
000005f0 4645455f3330   3282 	.strz	"FEE_30_SMALLSECTOR_INVALIDATE_JOB"
000005f6 5f534d414c4c 
000005fc 534543544f52 
00000602 5f494e56414c 
00000608 49444154455f 
0000060e 4a4f4200 
00000612 2f             3283 	.byte	47
00000613 07             3284 	.byte	7
00000614 08             3285 	.byte	8
00000615 02             3286 	.byte	2
                        3287 
                        3288 .LDW_4d61e98:
00000616 2d             3289 	.byte	45
00000617 4645455f3330   3290 	.strz	"FEE_30_SMALLSECTOR_ERASE_JOB"
0000061d 5f534d414c4c 
00000623 534543544f52 
00000629 5f4552415345 
0000062f 5f4a4f4200 

                                                                      Page 63
                                                              C:\Users\nhuliyap\AppData\Local\Temp\gh_000091s1.s
00000634 30             3291 	.byte	48
00000635 07             3292 	.byte	7
00000636 08             3293 	.byte	8
00000637 03             3294 	.byte	3
                        3295 
00000638 00             3296 	.byte	0
                        3297 
                        3298 .LDW_4d64bb0:
00000639 28             3299 	.byte	40
0000063a 4665655f3330   3300 	.strz	"Fee_30_SmallSector_JobType"
00000640 5f536d616c6c 
00000646 536563746f72 
0000064c 5f4a6f625479 
00000652 706500 
00000655 31             3301 	.byte	49
00000656 02             3302 	.byte	2
00000657 08             3303 	.byte	8
00000658 00000000*      3304 	.word	.LDW_4c8a558
                        3305 
                        3306 .LDW_4c74e28:
0000065c 2e             3307 	.byte	46
0000065d 00             3308 	.byte	0
0000065e 33             3309 	.byte	51
0000065f 0d             3310 	.byte	13
00000660 08             3311 	.byte	8
00000661 01             3312 	.byte	1
00000662 01             3313 	.byte	1
                        3314 
                        3315 .LDW_4c74e78:
00000663 2d             3316 	.byte	45
00000664 4645455f3330   3317 	.strz	"FEE_30_SMALLSECTOR_PATTERN_INIT"
0000066a 5f534d414c4c 
00000670 534543544f52 
00000676 5f5041545445 
0000067c 524e5f494e49 
00000682 5400 
00000684 34             3318 	.byte	52
00000685 03             3319 	.byte	3
00000686 08             3320 	.byte	8
00000687 00             3321 	.byte	0
                        3322 
                        3323 .LDW_4c89fd0:
00000688 2d             3324 	.byte	45
00000689 4645455f3330   3325 	.strz	"FEE_30_SMALLSECTOR_PATTERN_BLANK"
0000068f 5f534d414c4c 
00000695 534543544f52 
0000069b 5f5041545445 
000006a1 524e5f424c41 
000006a7 4e4b00 
000006aa 35             3326 	.byte	53
000006ab 07             3327 	.byte	7
000006ac 08             3328 	.byte	8
000006ad 01             3329 	.byte	1
                        3330 
                        3331 .LDW_4c8a010:
000006ae 2d             3332 	.byte	45
000006af 4645455f3330   3333 	.strz	"FEE_30_SMALLSECTOR_PATTERN_VALID"
000006b5 5f534d414c4c 
000006bb 534543544f52 
000006c1 5f5041545445 
000006c7 524e5f56414c 

                                                                      Page 64
                                                              C:\Users\nhuliyap\AppData\Local\Temp\gh_000091s1.s
000006cd 494400 
000006d0 36             3334 	.byte	54
000006d1 07             3335 	.byte	7
000006d2 08             3336 	.byte	8
000006d3 02             3337 	.byte	2
                        3338 
                        3339 .LDW_4c8a050:
000006d4 2d             3340 	.byte	45
000006d5 4645455f3330   3341 	.strz	"FEE_30_SMALLSECTOR_PATTERN_INCONSISTENT"
000006db 5f534d414c4c 
000006e1 534543544f52 
000006e7 5f5041545445 
000006ed 524e5f494e43 
000006f3 4f4e53495354 
000006f9 454e5400 
000006fd 37             3342 	.byte	55
000006fe 07             3343 	.byte	7
000006ff 08             3344 	.byte	8
00000700 03             3345 	.byte	3
                        3346 
00000701 00             3347 	.byte	0
                        3348 
                        3349 .LDW_4c74200:
00000702 28             3350 	.byte	40
00000703 4665655f3330   3351 	.strz	"Fee_30_SmallSector_StaticPatternState"
00000709 5f536d616c6c 
0000070f 536563746f72 
00000715 5f5374617469 
0000071b 635061747465 
00000721 726e53746174 
00000727 6500 
00000729 38             3352 	.byte	56
0000072a 02             3353 	.byte	2
0000072b 08             3354 	.byte	8
0000072c 00000000*      3355 	.word	.LDW_4c74e28
                        3356 
                        3357 .LDW_4ca1070:
00000730 41             3358 	.byte	65
00000731 3a             3359 	.byte	58
00000732 0f             3360 	.byte	15
00000733 08             3361 	.byte	8
00000734 10             3362 	.byte	16
00000735 01             3363 	.byte	1
                        3364 
                        3365 	.section	.debug_abbrev
00000090 41             3366 	.byte	65
00000091 13             3367 	.byte	19
00000092 01             3368 	.byte	1
00000093 3b0f           3369 	.byte	59,15
00000095 390f           3370 	.byte	57,15
00000097 3a0f           3371 	.byte	58,15
00000099 0b0f           3372 	.byte	11,15
0000009b 320b           3373 	.byte	50,11
0000009d 0000           3374 	.byte	0,0
                        3375 
                        3376 	.section	.debug_info
                        3377 .LDW_4d630f0:
00000736 23             3378 	.byte	35
00000737 426c6f636b4e   3379 	.strz	"BlockNumber"
0000073d 756d62657200 
00000743 3b             3380 	.byte	59

                                                                      Page 65
                                                              C:\Users\nhuliyap\AppData\Local\Temp\gh_000091s1.s
00000744 0a             3381 	.byte	10
00000745 08             3382 	.byte	8
00000746 00000000*      3383 	.word	.LDW_41fb940
0000074a 0223           3384 	.byte	2,35
0000074c 00             3385 	.byte	0
0000074d 01             3386 	.byte	1
                        3387 
                        3388 	.section	.debug_abbrev
0000009f 23             3389 	.byte	35
000000a0 0d             3390 	.byte	13
000000a1 00             3391 	.byte	0
000000a2 0308           3392 	.byte	3,8
000000a4 3b0f           3393 	.byte	59,15
000000a6 390f           3394 	.byte	57,15
000000a8 3a0f           3395 	.byte	58,15
000000aa 4910           3396 	.byte	73,16
000000ac 380a           3397 	.byte	56,10
000000ae 320b           3398 	.byte	50,11
000000b0 0000           3399 	.byte	0,0
                        3400 
                        3401 	.section	.debug_info
                        3402 .LDW_4d63768:
0000074e 23             3403 	.byte	35
0000074f 426c6f636b4f   3404 	.strz	"BlockOffset"
00000755 666673657400 
0000075b 3c             3405 	.byte	60
0000075c 0a             3406 	.byte	10
0000075d 08             3407 	.byte	8
0000075e 00000000*      3408 	.word	.LDW_41fb940
00000762 0223           3409 	.byte	2,35
00000764 02             3410 	.byte	2
00000765 01             3411 	.byte	1
                        3412 
                        3413 .LDW_4d635b8:
00000766 23             3414 	.byte	35
00000767 4c656e677468   3415 	.strz	"Length"
0000076d 00 
0000076e 3d             3416 	.byte	61
0000076f 0a             3417 	.byte	10
00000770 08             3418 	.byte	8
00000771 00000000*      3419 	.word	.LDW_41fb940
00000775 0223           3420 	.byte	2,35
00000777 04             3421 	.byte	4
00000778 01             3422 	.byte	1
                        3423 
                        3424 .LDW_4d638d0:
00000779 23             3425 	.byte	35
0000077a 446174614275   3426 	.strz	"DataBufferPtr"
00000780 666665725074 
00000786 7200 
00000788 3e             3427 	.byte	62
00000789 25             3428 	.byte	37
0000078a 08             3429 	.byte	8
0000078b 00000000*      3430 	.word	.LDW_4d65028
0000078f 0223           3431 	.byte	2,35
00000791 08             3432 	.byte	8
00000792 01             3433 	.byte	1
                        3434 
                        3435 .LDW_4d631c8:
00000793 23             3436 	.byte	35
00000794 4a6f62547970   3437 	.strz	"JobType"

                                                                      Page 66
                                                              C:\Users\nhuliyap\AppData\Local\Temp\gh_000091s1.s
0000079a 6500 
0000079c 3f             3438 	.byte	63
0000079d 1e             3439 	.byte	30
0000079e 08             3440 	.byte	8
0000079f 00000000*      3441 	.word	.LDW_4d64bb0
000007a3 0223           3442 	.byte	2,35
000007a5 0c             3443 	.byte	12
000007a6 01             3444 	.byte	1
                        3445 
000007a7 00             3446 	.byte	0
                        3447 
                        3448 .LDW_4ca1280:
000007a8 28             3449 	.byte	40
000007a9 4665655f3330   3450 	.strz	"Fee_30_SmallSector_UserJobParameterType"
000007af 5f536d616c6c 
000007b5 536563746f72 
000007bb 5f557365724a 
000007c1 6f6250617261 
000007c7 6d6574657254 
000007cd 79706500 
000007d1 40             3451 	.byte	64
000007d2 02             3452 	.byte	2
000007d3 08             3453 	.byte	8
000007d4 00000000*      3454 	.word	.LDW_4ca1070
                        3455 
                        3456 .LDW_422e0f0:
000007d8 2e             3457 	.byte	46
000007d9 00             3458 	.byte	0
000007da 06             3459 	.byte	6
000007db 0d             3460 	.byte	13
000007dc 07             3461 	.byte	7
000007dd 01             3462 	.byte	1
000007de 01             3463 	.byte	1
                        3464 
                        3465 .LDW_4c74bf8:
000007df 2d             3466 	.byte	45
000007e0 494e5354414e   3467 	.strz	"INSTANCE_STATUS_ERASED"
000007e6 43455f535441 
000007ec 5455535f4552 
000007f2 4153454400 
000007f7 07             3468 	.byte	7
000007f8 03             3469 	.byte	3
000007f9 07             3470 	.byte	7
000007fa 00             3471 	.byte	0
                        3472 
                        3473 .LDW_4c74c38:
000007fb 2d             3474 	.byte	45
000007fc 494e5354414e   3475 	.strz	"INSTANCE_STATUS_OK"
00000802 43455f535441 
00000808 5455535f4f4b 
0000080e 00 
0000080f 08             3476 	.byte	8
00000810 07             3477 	.byte	7
00000811 07             3478 	.byte	7
00000812 01             3479 	.byte	1
                        3480 
                        3481 .LDW_4c74c78:
00000813 2d             3482 	.byte	45
00000814 494e5354414e   3483 	.strz	"INSTANCE_STATUS_INVALID"
0000081a 43455f535441 
00000820 5455535f494e 

                                                                      Page 67
                                                              C:\Users\nhuliyap\AppData\Local\Temp\gh_000091s1.s
00000826 56414c494400 
0000082c 09             3484 	.byte	9
0000082d 07             3485 	.byte	7
0000082e 07             3486 	.byte	7
0000082f 02             3487 	.byte	2
                        3488 
                        3489 .LDW_4c74cb8:
00000830 2d             3490 	.byte	45
00000831 494e5354414e   3491 	.strz	"INSTANCE_STATUS_INCONSISTENT"
00000837 43455f535441 
0000083d 5455535f494e 
00000843 434f4e534953 
00000849 54454e5400 
0000084e 0a             3492 	.byte	10
0000084f 07             3493 	.byte	7
00000850 07             3494 	.byte	7
00000851 03             3495 	.byte	3
                        3496 
00000852 00             3497 	.byte	0
                        3498 
                        3499 .LDW_4c73ff0:
00000853 28             3500 	.byte	40
00000854 4665655f3330   3501 	.strz	"Fee_30_SmallSector_Ih_InstanceStatusType"
0000085a 5f536d616c6c 
00000860 536563746f72 
00000866 5f49685f496e 
0000086c 7374616e6365 
00000872 537461747573 
00000878 5479706500 
0000087d 0b             3502 	.byte	11
0000087e 02             3503 	.byte	2
0000087f 07             3504 	.byte	7
00000880 00000000*      3505 	.word	.LDW_422e0f0
                        3506 
                        3507 .LDW_4ca0f68:
00000884 28             3508 	.byte	40
00000885 4665655f3330   3509 	.strz	"Fee_30_SmallSector_Ih_BufferPointerType"
0000088b 5f536d616c6c 
00000891 536563746f72 
00000897 5f49685f4275 
0000089d 66666572506f 
000008a3 696e74657254 
000008a9 79706500 
000008ad 0d             3510 	.byte	13
000008ae 3f             3511 	.byte	63
000008af 07             3512 	.byte	7
000008b0 00000000*      3513 	.word	.LDW_4c8fb30
                        3514 
                        3515 .LDW_4ca1120:
000008b4 41             3516 	.byte	65
000008b5 0f             3517 	.byte	15
000008b6 0f             3518 	.byte	15
000008b7 07             3519 	.byte	7
000008b8 0c             3520 	.byte	12
000008b9 01             3521 	.byte	1
                        3522 
                        3523 .LDW_4d63138:
000008ba 23             3524 	.byte	35
000008bb 4665655f3330   3525 	.strz	"Fee_30_SmallSector_Ih_CompareAddress"
000008c1 5f536d616c6c 
000008c7 536563746f72 

                                                                      Page 68
                                                              C:\Users\nhuliyap\AppData\Local\Temp\gh_000091s1.s
000008cd 5f49685f436f 
000008d3 6d7061726541 
000008d9 646472657373 
000008df 00 
000008e0 10             3526 	.byte	16
000008e1 22             3527 	.byte	34
000008e2 07             3528 	.byte	7
000008e3 00000000*      3529 	.word	.LDW_41fb8e8
000008e7 0223           3530 	.byte	2,35
000008e9 00             3531 	.byte	0
000008ea 01             3532 	.byte	1
                        3533 
                        3534 .LDW_4d63918:
000008eb 23             3535 	.byte	35
000008ec 4665655f3330   3536 	.strz	"Fee_30_SmallSector_Ih_CompareLength"
000008f2 5f536d616c6c 
000008f8 536563746f72 
000008fe 5f49685f436f 
00000904 6d706172654c 
0000090a 656e67746800 
00000910 11             3537 	.byte	17
00000911 0a             3538 	.byte	10
00000912 07             3539 	.byte	7
00000913 00000000*      3540 	.word	.LDW_41fb940
00000917 0223           3541 	.byte	2,35
00000919 04             3542 	.byte	4
0000091a 01             3543 	.byte	1
                        3544 
                        3545 .LDW_4d63210:
0000091b 23             3546 	.byte	35
0000091c 4665655f3330   3547 	.strz	"Fee_30_SmallSector_Ih_CompareBufferPtr"
00000922 5f536d616c6c 
00000928 536563746f72 
0000092e 5f49685f436f 
00000934 6d7061726542 
0000093a 756666657250 
00000940 747200 
00000943 12             3548 	.byte	18
00000944 2b             3549 	.byte	43
00000945 07             3550 	.byte	7
00000946 00000000*      3551 	.word	.LDW_4ca0f68
0000094a 0223           3552 	.byte	2,35
0000094c 08             3553 	.byte	8
0000094d 01             3554 	.byte	1
                        3555 
0000094e 00             3556 	.byte	0
                        3557 
                        3558 .LDW_4ca08e0:
0000094f 28             3559 	.byte	40
00000950 4665655f3330   3560 	.strz	"Fee_30_SmallSector_Ih_CompareParameterType"
00000956 5f536d616c6c 
0000095c 536563746f72 
00000962 5f49685f436f 
00000968 6d7061726550 
0000096e 6172616d6574 
00000974 657254797065 
0000097a 00 
0000097b 13             3561 	.byte	19
0000097c 02             3562 	.byte	2
0000097d 07             3563 	.byte	7
0000097e 00000000*      3564 	.word	.LDW_4ca1120

                                                                      Page 69
                                                              C:\Users\nhuliyap\AppData\Local\Temp\gh_000091s1.s
                        3565 
                        3566 .LDW_422e098:
00000982 41             3567 	.byte	65
00000983 15             3568 	.byte	21
00000984 0f             3569 	.byte	15
00000985 07             3570 	.byte	7
00000986 14             3571 	.byte	20
00000987 01             3572 	.byte	1
                        3573 
                        3574 .LDW_4d63d98:
00000988 23             3575 	.byte	35
00000989 537461727441   3576 	.strz	"StartAddress"
0000098f 646472657373 
00000995 00 
00000996 16             3577 	.byte	22
00000997 22             3578 	.byte	34
00000998 07             3579 	.byte	7
00000999 00000000*      3580 	.word	.LDW_41fb8e8
0000099d 0223           3581 	.byte	2,35
0000099f 00             3582 	.byte	0
000009a0 01             3583 	.byte	1
                        3584 
                        3585 .LDW_4d63d08:
000009a1 23             3586 	.byte	35
000009a2 575032416464   3587 	.strz	"WP2Address"
000009a8 7265737300 
000009ad 17             3588 	.byte	23
000009ae 22             3589 	.byte	34
000009af 07             3590 	.byte	7
000009b0 00000000*      3591 	.word	.LDW_41fb8e8
000009b4 0223           3592 	.byte	2,35
000009b6 04             3593 	.byte	4
000009b7 01             3594 	.byte	1
                        3595 
                        3596 .LDW_4d639a8:
000009b8 23             3597 	.byte	35
000009b9 4d676d744164   3598 	.strz	"MgmtAddress"
000009bf 647265737300 
000009c5 18             3599 	.byte	24
000009c6 22             3600 	.byte	34
000009c7 07             3601 	.byte	7
000009c8 00000000*      3602 	.word	.LDW_41fb8e8
000009cc 0223           3603 	.byte	2,35
000009ce 08             3604 	.byte	8
000009cf 01             3605 	.byte	1
                        3606 
                        3607 .LDW_4d63b10:
000009d0 23             3608 	.byte	35
000009d1 446174614c65   3609 	.strz	"DataLength"
000009d7 6e67746800 
000009dc 19             3610 	.byte	25
000009dd 0a             3611 	.byte	10
000009de 07             3612 	.byte	7
000009df 00000000*      3613 	.word	.LDW_41fb940
000009e3 0223           3614 	.byte	2,35
000009e5 0c             3615 	.byte	12
000009e6 01             3616 	.byte	1
                        3617 
                        3618 .LDW_4d63c30:
000009e7 23             3619 	.byte	35
000009e8 575031537461   3620 	.strz	"WP1State"

                                                                      Page 70
                                                              C:\Users\nhuliyap\AppData\Local\Temp\gh_000091s1.s
000009ee 746500 
000009f1 1a             3621 	.byte	26
000009f2 29             3622 	.byte	41
000009f3 07             3623 	.byte	7
000009f4 00000000*      3624 	.word	.LDW_4c74200
000009f8 0223           3625 	.byte	2,35
000009fa 0e             3626 	.byte	14
000009fb 01             3627 	.byte	1
                        3628 
                        3629 .LDW_4d63f90:
000009fc 23             3630 	.byte	35
000009fd 575032537461   3631 	.strz	"WP2State"
00000a03 746500 
00000a06 1b             3632 	.byte	27
00000a07 29             3633 	.byte	41
00000a08 07             3634 	.byte	7
00000a09 00000000*      3635 	.word	.LDW_4c74200
00000a0d 0223           3636 	.byte	2,35
00000a0f 0f             3637 	.byte	15
00000a10 01             3638 	.byte	1
                        3639 
                        3640 .LDW_4d63f48:
00000a11 23             3641 	.byte	35
00000a12 4c6173745061   3642 	.strz	"LastPageState"
00000a18 676553746174 
00000a1e 6500 
00000a20 1c             3643 	.byte	28
00000a21 29             3644 	.byte	41
00000a22 07             3645 	.byte	7
00000a23 00000000*      3646 	.word	.LDW_4c74200
00000a27 0223           3647 	.byte	2,35
00000a29 10             3648 	.byte	16
00000a2a 01             3649 	.byte	1
                        3650 
                        3651 .LDW_4d63fd8:
00000a2b 23             3652 	.byte	35
00000a2c 4d676d745661   3653 	.strz	"MgmtValue"
00000a32 6c756500 
00000a36 1d             3654 	.byte	29
00000a37 09             3655 	.byte	9
00000a38 07             3656 	.byte	7
00000a39 00000000*      3657 	.word	.LDW_422dc80
00000a3d 0223           3658 	.byte	2,35
00000a3f 11             3659 	.byte	17
00000a40 01             3660 	.byte	1
                        3661 
                        3662 .LDW_4d63a38:
00000a41 23             3663 	.byte	35
00000a42 496e7374616e   3664 	.strz	"InstanceStatus"
00000a48 636553746174 
00000a4e 757300 
00000a51 1e             3665 	.byte	30
00000a52 2c             3666 	.byte	44
00000a53 07             3667 	.byte	7
00000a54 00000000*      3668 	.word	.LDW_4c73ff0
00000a58 0223           3669 	.byte	2,35
00000a5a 12             3670 	.byte	18
00000a5b 01             3671 	.byte	1
                        3672 
00000a5c 00             3673 	.byte	0
                        3674 

                                                                      Page 71
                                                              C:\Users\nhuliyap\AppData\Local\Temp\gh_000091s1.s
                        3675 .LDW_41fb640:
00000a5d 28             3676 	.byte	40
00000a5e 4665655f3330   3677 	.strz	"Fee_30_SmallSector_Ih_InstanceType"
00000a64 5f536d616c6c 
00000a6a 536563746f72 
00000a70 5f49685f496e 
00000a76 7374616e6365 
00000a7c 5479706500 
00000a81 1f             3678 	.byte	31
00000a82 02             3679 	.byte	2
00000a83 07             3680 	.byte	7
00000a84 00000000*      3681 	.word	.LDW_422e098
                        3682 
                        3683 .LDW_4ca12d8:
00000a88 28             3684 	.byte	40
00000a89 4665655f3330   3685 	.strz	"Fee_30_SmallSector_Ih_CompareParameterPointerType"
00000a8f 5f536d616c6c 
00000a95 536563746f72 
00000a9b 5f49685f436f 
00000aa1 6d7061726550 
00000aa7 6172616d6574 
00000aad 6572506f696e 
00000ab3 746572547970 
00000ab9 6500 
00000abb 21             3686 	.byte	33
00000abc 64             3687 	.byte	100
00000abd 07             3688 	.byte	7
00000abe 00000000*      3689 	.word	.LDW_4c8fa18
                        3690 
                        3691 .LDW_41fb838:
00000ac2 28             3692 	.byte	40
00000ac3 4665655f3330   3693 	.strz	"Fee_30_SmallSector_Ih_InstanceVarPointerType"
00000ac9 5f536d616c6c 
00000acf 536563746f72 
00000ad5 5f49685f496e 
00000adb 7374616e6365 
00000ae1 566172506f69 
00000ae7 6e7465725479 
00000aed 706500 
00000af0 22             3694 	.byte	34
00000af1 5c             3695 	.byte	92
00000af2 07             3696 	.byte	7
00000af3 00000000*      3697 	.word	.LDW_41e70a0
                        3698 
                        3699 .LDW_41fb6f0:
00000af7 28             3700 	.byte	40
00000af8 4665655f3330   3701 	.strz	"Fee_30_SmallSector_Ih_InstanceConstPointerType"
00000afe 5f536d616c6c 
00000b04 536563746f72 
00000b0a 5f49685f496e 
00000b10 7374616e6365 
00000b16 436f6e737450 
00000b1c 6f696e746572 
00000b22 5479706500 
00000b27 23             3702 	.byte	35
00000b28 5e             3703 	.byte	94
00000b29 07             3704 	.byte	7
00000b2a 00000000*      3705 	.word	.LDW_41e7030
                        3706 
                        3707 .LDW_4d64b58:
00000b2e 04             3708 	.byte	4

                                                                      Page 72
                                                              C:\Users\nhuliyap\AppData\Local\Temp\gh_000091s1.s
00000b2f 4665655f3330   3709 	.strz	"Fee_30_SmallSector_Ih_ReadBuffer"
00000b35 5f536d616c6c 
00000b3b 536563746f72 
00000b41 5f49685f5265 
00000b47 616442756666 
00000b4d 657200 
00000b50 12             3710 	.byte	18
00000b51 43             3711 	.byte	67
00000b52 01             3712 	.byte	1
00000b53 00000000*      3713 	.word	.LDW_4c8fff8
00000b57 00             3714 	.byte	0
00000b58 00             3715 	.byte	0
00000b59 0503           3716 	.byte	5,3
00000b5b 00000000*      3717 	.word	_Fee_30_SmallSector_Ih_ReadBuffer..C.3A.5C_ECU2.5CECU_Rivian_A1.5CTarget.5Crepo_projects.5CpRealEcu.5CcR_LATEST.5Cmake.5Coutput.5Cobjects.5CFee_30_SmallSector_InstanceHandler.
                        3718 
                        3719 	.section	.debug_abbrev
000000b2 04             3720 	.byte	4
000000b3 34             3721 	.byte	52
000000b4 00             3722 	.byte	0
000000b5 0308           3723 	.byte	3,8
000000b7 3b0f           3724 	.byte	59,15
000000b9 390f           3725 	.byte	57,15
000000bb 3a0f           3726 	.byte	58,15
000000bd 4910           3727 	.byte	73,16
000000bf 3f0c           3728 	.byte	63,12
000000c1 3c0c           3729 	.byte	60,12
000000c3 020a           3730 	.byte	2,10
000000c5 0000           3731 	.byte	0,0
                        3732 
                        3733 	.section	.debug_info
                        3734 .LDW_4d647e8:
00000b5f 04             3735 	.byte	4
00000b60 4665655f3330   3736 	.strz	"Fee_30_SmallSector_Ih_WriteBuffer"
00000b66 5f536d616c6c 
00000b6c 536563746f72 
00000b72 5f49685f5772 
00000b78 697465427566 
00000b7e 66657200 
00000b82 13             3737 	.byte	19
00000b83 43             3738 	.byte	67
00000b84 01             3739 	.byte	1
00000b85 00000000*      3740 	.word	.LDW_4c90080
00000b89 00             3741 	.byte	0
00000b8a 00             3742 	.byte	0
00000b8b 0503           3743 	.byte	5,3
00000b8d 00000000*      3744 	.word	_Fee_30_SmallSector_Ih_WriteBuffer..C.3A.5C_ECU2.5CECU_Rivian_A1.5CTarget.5Crepo_projects.5CpRealEcu.5CcR_LATEST.5Cmake.5Coutput.5Cobjects.5CFee_30_SmallSector_InstanceHandler.
                        3745 
                        3746 .LDW_4d64790:
00000b91 04             3747 	.byte	4
00000b92 4665655f3330   3748 	.strz	"Fee_30_SmallSector_Ih_ValidManagementValue"
00000b98 5f536d616c6c 
00000b9e 536563746f72 
00000ba4 5f49685f5661 
00000baa 6c69644d616e 
00000bb0 6167656d656e 
00000bb6 7456616c7565 
00000bbc 00 
00000bbd 1b             3749 	.byte	27
00000bbe 45             3750 	.byte	69
00000bbf 01             3751 	.byte	1
00000bc0 00000000*      3752 	.word	.LDW_4d61808

                                                                      Page 73
                                                              C:\Users\nhuliyap\AppData\Local\Temp\gh_000091s1.s
00000bc4 00             3753 	.byte	0
00000bc5 00             3754 	.byte	0
00000bc6 0503           3755 	.byte	5,3
00000bc8 00000000*      3756 	.word	_Fee_30_SmallSector_Ih_ValidManagementValue..C.3A.5C_ECU2.5CECU_Rivian_A1.5CTarget.5Crepo_projects.5CpRealEcu.5CcR_LATEST.5Cmake.5Coutput.5Cobjects.5CFee_30_SmallSector_InstanceHandler.
                        3757 
                        3758 .LDW_4d649a0:
00000bcc 04             3759 	.byte	4
00000bcd 4665655f3330   3760 	.strz	"Fee_30_SmallSector_Ih_InvalidManagementValue"
00000bd3 5f536d616c6c 
00000bd9 536563746f72 
00000bdf 5f49685f496e 
00000be5 76616c69644d 
00000beb 616e6167656d 
00000bf1 656e7456616c 
00000bf7 756500 
00000bfa 1c             3761 	.byte	28
00000bfb 45             3762 	.byte	69
00000bfc 01             3763 	.byte	1
00000bfd 00000000*      3764 	.word	.LDW_4d61808
00000c01 00             3765 	.byte	0
00000c02 00             3766 	.byte	0
00000c03 0503           3767 	.byte	5,3
00000c05 00000000*      3768 	.word	_Fee_30_SmallSector_Ih_InvalidManagementValue..C.3A.5C_ECU2.5CECU_Rivian_A1.5CTarget.5Crepo_projects.5CpRealEcu.5CcR_LATEST.5Cmake.5Coutput.5Cobjects.5CFee_30_SmallSector_InstanceHandler.
                        3769 
                        3770 .LDW_4d651e8:
00000c09 16             3771 	.byte	22
00000c0a 4665655f3330   3772 	.strz	"Fee_30_SmallSector_AlignValue"
00000c10 5f536d616c6c 
00000c16 536563746f72 
00000c1c 5f416c69676e 
00000c22 56616c756500 
00000c28 5b             3773 	.byte	91
00000c29 2f             3774 	.byte	47
00000c2a 08             3775 	.byte	8
00000c2b 00000000*      3776 	.word	.LDW_41fb890
00000c2f 01             3777 	.byte	1
00000c30 00             3778 	.byte	0
00000c31 01             3779 	.byte	1
00000c32 01             3780 	.byte	1
00000c33 00             3781 	.byte	0
00000c34 01             3782 	.byte	1
                        3783 
                        3784 	.section	.debug_abbrev
000000c7 16             3785 	.byte	22
000000c8 2e             3786 	.byte	46
000000c9 01             3787 	.byte	1
000000ca 0308           3788 	.byte	3,8
000000cc 3b0f           3789 	.byte	59,15
000000ce 390f           3790 	.byte	57,15
000000d0 3a0f           3791 	.byte	58,15
000000d2 4910           3792 	.byte	73,16
000000d4 3c0c           3793 	.byte	60,12
000000d6 200b           3794 	.byte	32,11
000000d8 3f0c           3795 	.byte	63,12
000000da 320b           3796 	.byte	50,11
000000dc 4c0b           3797 	.byte	76,11
000000de 270c           3798 	.byte	39,12
000000e0 0000           3799 	.byte	0,0
                        3800 
                        3801 	.section	.debug_info
00000c35 00             3802 	.byte	0

                                                                      Page 74
                                                              C:\Users\nhuliyap\AppData\Local\Temp\gh_000091s1.s
                        3803 
                        3804 .LDW_4d660c0:
00000c36 16             3805 	.byte	22
00000c37 4665655f3330   3806 	.strz	"Fee_30_SmallSector_Ph_GetPartitionWriteAlignment"
00000c3d 5f536d616c6c 
00000c43 536563746f72 
00000c49 5f50685f4765 
00000c4f 745061727469 
00000c55 74696f6e5772 
00000c5b 697465416c69 
00000c61 676e6d656e74 
00000c67 00 
00000c68 0a             3807 	.byte	10
00000c69 2f             3808 	.byte	47
00000c6a 15             3809 	.byte	21
00000c6b 00000000*      3810 	.word	.LDW_41fb940
00000c6f 01             3811 	.byte	1
00000c70 00             3812 	.byte	0
00000c71 01             3813 	.byte	1
00000c72 01             3814 	.byte	1
00000c73 00             3815 	.byte	0
00000c74 01             3816 	.byte	1
                        3817 
00000c75 00             3818 	.byte	0
                        3819 
                        3820 .LDW_4d65d30:
00000c76 16             3821 	.byte	22
00000c77 4665655f3330   3822 	.strz	"Fee_30_SmallSector_Ph_GetPartitionReadAlignment"
00000c7d 5f536d616c6c 
00000c83 536563746f72 
00000c89 5f50685f4765 
00000c8f 745061727469 
00000c95 74696f6e5265 
00000c9b 6164416c6967 
00000ca1 6e6d656e7400 
00000ca7 0c             3823 	.byte	12
00000ca8 2f             3824 	.byte	47
00000ca9 15             3825 	.byte	21
00000caa 00000000*      3826 	.word	.LDW_41fb940
00000cae 01             3827 	.byte	1
00000caf 00             3828 	.byte	0
00000cb0 01             3829 	.byte	1
00000cb1 01             3830 	.byte	1
00000cb2 00             3831 	.byte	0
00000cb3 01             3832 	.byte	1
                        3833 
00000cb4 00             3834 	.byte	0
                        3835 
                        3836 .LDW_4d66320:
00000cb5 16             3837 	.byte	22
00000cb6 4665655f3330   3838 	.strz	"Fee_30_SmallSector_Ph_GetFlsEraseValue"
00000cbc 5f536d616c6c 
00000cc2 536563746f72 
00000cc8 5f50685f4765 
00000cce 74466c734572 
00000cd4 61736556616c 
00000cda 756500 
00000cdd 0e             3839 	.byte	14
00000cde 2e             3840 	.byte	46
00000cdf 15             3841 	.byte	21
00000ce0 00000000*      3842 	.word	.LDW_422dc80

                                                                      Page 75
                                                              C:\Users\nhuliyap\AppData\Local\Temp\gh_000091s1.s
00000ce4 01             3843 	.byte	1
00000ce5 00             3844 	.byte	0
00000ce6 01             3845 	.byte	1
00000ce7 01             3846 	.byte	1
00000ce8 00             3847 	.byte	0
00000ce9 01             3848 	.byte	1
                        3849 
00000cea 00             3850 	.byte	0
                        3851 
                        3852 .LDW_4d650b8:
00000ceb 16             3853 	.byte	22
00000cec 4665655f3330   3854 	.strz	"Fee_30_SmallSector_Fls_Read"
00000cf2 5f536d616c6c 
00000cf8 536563746f72 
00000cfe 5f466c735f52 
00000d04 65616400 
00000d08 0b             3855 	.byte	11
00000d09 37             3856 	.byte	55
00000d0a 16             3857 	.byte	22
00000d0b 00000000*      3858 	.word	.LDW_4ca0ca8
00000d0f 01             3859 	.byte	1
00000d10 00             3860 	.byte	0
00000d11 01             3861 	.byte	1
00000d12 01             3862 	.byte	1
00000d13 00             3863 	.byte	0
00000d14 01             3864 	.byte	1
                        3865 
00000d15 00             3866 	.byte	0
                        3867 
                        3868 .LDW_4d65740:
00000d16 16             3869 	.byte	22
00000d17 4665655f3330   3870 	.strz	"Fee_30_SmallSector_Fls_Write"
00000d1d 5f536d616c6c 
00000d23 536563746f72 
00000d29 5f466c735f57 
00000d2f 7269746500 
00000d34 0e             3871 	.byte	14
00000d35 37             3872 	.byte	55
00000d36 16             3873 	.byte	22
00000d37 00000000*      3874 	.word	.LDW_4ca0ca8
00000d3b 01             3875 	.byte	1
00000d3c 00             3876 	.byte	0
00000d3d 01             3877 	.byte	1
00000d3e 01             3878 	.byte	1
00000d3f 00             3879 	.byte	0
00000d40 01             3880 	.byte	1
                        3881 
00000d41 00             3882 	.byte	0
                        3883 
                        3884 .LDW_4d65610:
00000d42 16             3885 	.byte	22
00000d43 4665655f3330   3886 	.strz	"Fee_30_SmallSector_Fls_Compare"
00000d49 5f536d616c6c 
00000d4f 536563746f72 
00000d55 5f466c735f43 
00000d5b 6f6d70617265 
00000d61 00 
00000d62 11             3887 	.byte	17
00000d63 37             3888 	.byte	55
00000d64 16             3889 	.byte	22
00000d65 00000000*      3890 	.word	.LDW_4ca0ca8

                                                                      Page 76
                                                              C:\Users\nhuliyap\AppData\Local\Temp\gh_000091s1.s
00000d69 01             3891 	.byte	1
00000d6a 00             3892 	.byte	0
00000d6b 01             3893 	.byte	1
00000d6c 01             3894 	.byte	1
00000d6d 00             3895 	.byte	0
00000d6e 01             3896 	.byte	1
                        3897 
00000d6f 00             3898 	.byte	0
                        3899 
                        3900 .LDW_4d65280:
00000d70 16             3901 	.byte	22
00000d71 4665655f3330   3902 	.strz	"Fee_30_SmallSector_Fls_BlankCheck"
00000d77 5f536d616c6c 
00000d7d 536563746f72 
00000d83 5f466c735f42 
00000d89 6c616e6b4368 
00000d8f 65636b00 
00000d93 16             3903 	.byte	22
00000d94 37             3904 	.byte	55
00000d95 16             3905 	.byte	22
00000d96 00000000*      3906 	.word	.LDW_4ca0ca8
00000d9a 01             3907 	.byte	1
00000d9b 00             3908 	.byte	0
00000d9c 01             3909 	.byte	1
00000d9d 01             3910 	.byte	1
00000d9e 00             3911 	.byte	0
00000d9f 01             3912 	.byte	1
                        3913 
00000da0 00             3914 	.byte	0
                        3915 
                        3916 .LDW_422dcd8:
00000da1 14             3917 	.byte	20
00000da2 4665655f3330   3918 	.strz	"Fee_30_SmallSector_Ih_IsValidManagement"
00000da8 5f536d616c6c 
00000dae 536563746f72 
00000db4 5f49685f4973 
00000dba 56616c69644d 
00000dc0 616e6167656d 
00000dc6 656e7400 
00000dca 31             3919 	.byte	49
00000dcb 49             3920 	.byte	73
00000dcc 01             3921 	.byte	1
00000dcd 00000000*      3922 	.word	.LDW_422ef78
00000dd1 00000000*      3923 	.word	_Fee_30_SmallSector_Ih_IsValidManagement..C.3A.5C_ECU2.5CECU_Rivian_A1.5CTarget.5Crepo_projects.5CpRealEcu.5CcR_LATEST.5Cmake.5Coutput.5Cobjects.5CFee_30_SmallSector_InstanceHandler.
00000dd5 00000000*      3924 	.word	___ghs_eofn_Fee_30_SmallSector_Ih_IsValidManagement
00000dd9 0153           3925 	.byte	1,83
00000ddb 02             3926 	.byte	2
00000ddc 00             3927 	.byte	0
00000ddd 02             3928 	.byte	2
00000dde 00             3929 	.byte	0
00000ddf 00             3930 	.byte	0
00000de0 00             3931 	.byte	0
00000de1 00             3932 	.byte	0
00000de2 00             3933 	.byte	0
00000de3 01             3934 	.byte	1
00000de4 00             3935 	.byte	0
00000de5 01             3936 	.byte	1
                        3937 
                        3938 	.section	.debug_abbrev
000000e2 14             3939 	.byte	20
000000e3 2e             3940 	.byte	46

                                                                      Page 77
                                                              C:\Users\nhuliyap\AppData\Local\Temp\gh_000091s1.s
000000e4 01             3941 	.byte	1
000000e5 0308           3942 	.byte	3,8
000000e7 3b0f           3943 	.byte	59,15
000000e9 390f           3944 	.byte	57,15
000000eb 3a0f           3945 	.byte	58,15
000000ed 4910           3946 	.byte	73,16
000000ef 1101           3947 	.byte	17,1
000000f1 1201           3948 	.byte	18,1
000000f3 400a           3949 	.byte	64,10
000000f5 8341           3950 	.byte	131,65
000000f7 0f             3951 	.byte	15
000000f8 8741           3952 	.byte	135,65
000000fa 0d             3953 	.byte	13
000000fb 8541           3954 	.byte	133,65
000000fd 0f             3955 	.byte	15
000000fe 8641           3956 	.byte	134,65
00000100 0d             3957 	.byte	13
00000101 9241           3958 	.byte	146,65
00000103 0f             3959 	.byte	15
00000104 3c0c           3960 	.byte	60,12
00000106 200b           3961 	.byte	32,11
00000108 3f0c           3962 	.byte	63,12
0000010a 320b           3963 	.byte	50,11
0000010c 4c0b           3964 	.byte	76,11
0000010e 270c           3965 	.byte	39,12
00000110 0000           3966 	.byte	0,0
                        3967 
                        3968 	.section	.debug_frame
                        3969 .LDW_4d61f58:
00000090 00000000*      3970 	.word	.LDW_unq_4-.LDW_unq_3
                        3971 .LDW_unq_3:
00000094 00000000*      3972 	.word	.LDW_4d1fd60
00000098 00000000*      3973 	.word	_Fee_30_SmallSector_Ih_IsValidManagement..C.3A.5C_ECU2.5CECU_Rivian_A1.5CTarget.5Crepo_projects.5CpRealEcu.5CcR_LATEST.5Cmake.5Coutput.5Cobjects.5CFee_30_SmallSector_InstanceHandler.
0000009c 00000000*      3974 	.word	___ghs_eofn_Fee_30_SmallSector_Ih_IsValidManagement-_Fee_30_SmallSector_Ih_IsValidManagement..C.3A.5C_ECU2.5CECU_Rivian_A1.5CTarget.5Crepo_projects.5CpRealEcu.5CcR_LATEST.5Cmake.5Coutput.5Cobjects.5CFee_30_SmallSector_InstanceHandler.
000000a0 01             3975 	.byte	1
000000a1 00000000*      3976 	.word	.LDW11
000000a5 00             3977 	.byte	0
000000a6 00             3978 	.byte	0
000000a7 00             3979 	.byte	0
                        3980 .LDW_unq_4:
                        3981 	.section	.debug_line
000003d6 000502         3982 	.byte	0,5,2
000003d9 00000000*      3983 	.word	_Fee_30_SmallSector_Ih_IsValidManagement..C.3A.5C_ECU2.5CECU_Rivian_A1.5CTarget.5Crepo_projects.5CpRealEcu.5CcR_LATEST.5Cmake.5Coutput.5Cobjects.5CFee_30_SmallSector_InstanceHandler.
000003dd 03             3984 	.byte	3
000003de 31             3985 	.byte	49
000003df 02             3986 	.byte	2
000003e0 00             3987 	.byte	0
000003e1 01             3988 	.byte	1
000003e2 06             3989 	.byte	6
000003e3 13             3990 	.byte	19
000003e4 06             3991 	.byte	6
000003e5 02             3992 	.byte	2
000003e6 08             3993 	.byte	8
000003e7 02             3994 	.byte	2
000003e8 02             3995 	.byte	2
000003e9 000101         3996 	.byte	0,1,1
                        3997 	.section	.debug_info
                        3998 .LDW_422dd70:
00000de6 0f             3999 	.byte	15
00000de7 4d616e616765   4000 	.strz	"ManagementByte"
00000ded 6d656e744279 

                                                                      Page 78
                                                              C:\Users\nhuliyap\AppData\Local\Temp\gh_000091s1.s
00000df3 746500 
00000df6 31             4001 	.byte	49
00000df7 77             4002 	.byte	119
00000df8 01             4003 	.byte	1
00000df9 00000000*      4004 	.word	.LDW_422dc80
00000dfd 00             4005 	.byte	0
00000dfe 0156           4006 	.byte	1,86
                        4007 
                        4008 	.section	.debug_abbrev
00000112 0f             4009 	.byte	15
00000113 05             4010 	.byte	5
00000114 00             4011 	.byte	0
00000115 0308           4012 	.byte	3,8
00000117 3b0f           4013 	.byte	59,15
00000119 390f           4014 	.byte	57,15
0000011b 3a0f           4015 	.byte	58,15
0000011d 4910           4016 	.byte	73,16
0000011f 4b0c           4017 	.byte	75,12
00000121 020a           4018 	.byte	2,10
00000123 0000           4019 	.byte	0,0
                        4020 
                        4021 	.section	.debug_info
                        4022 .LDW_41e1a50:
00000e00 1d             4023 	.byte	29
00000e01 00000000*      4024 	.word	.LDW01
00000e05 00000000*      4025 	.word	.LDW11
                        4026 
                        4027 	.section	.debug_abbrev
00000125 1d             4028 	.byte	29
00000126 0b             4029 	.byte	11
00000127 01             4030 	.byte	1
00000128 1101           4031 	.byte	17,1
0000012a 1201           4032 	.byte	18,1
0000012c 0000           4033 	.byte	0,0
                        4034 
                        4035 	.section	.debug_info
00000e09 00             4036 	.byte	0
                        4037 
00000e0a 00             4038 	.byte	0
                        4039 
                        4040 .LDW_422ddc8:
00000e0b 14             4041 	.byte	20
00000e0c 4665655f3330   4042 	.strz	"Fee_30_SmallSector_Ih_IsInvalidManagement"
00000e12 5f536d616c6c 
00000e18 536563746f72 
00000e1e 5f49685f4973 
00000e24 496e76616c69 
00000e2a 644d616e6167 
00000e30 656d656e7400 
00000e36 36             4043 	.byte	54
00000e37 49             4044 	.byte	73
00000e38 01             4045 	.byte	1
00000e39 00000000*      4046 	.word	.LDW_422ef78
00000e3d 00000000*      4047 	.word	_Fee_30_SmallSector_Ih_IsInvalidManagement..C.3A.5C_ECU2.5CECU_Rivian_A1.5CTarget.5Crepo_projects.5CpRealEcu.5CcR_LATEST.5Cmake.5Coutput.5Cobjects.5CFee_30_SmallSector_InstanceHandler.
00000e41 00000000*      4048 	.word	___ghs_eofn_Fee_30_SmallSector_Ih_IsInvalidManagement
00000e45 0153           4049 	.byte	1,83
00000e47 02             4050 	.byte	2
00000e48 00             4051 	.byte	0
00000e49 02             4052 	.byte	2
00000e4a 00             4053 	.byte	0
00000e4b 00             4054 	.byte	0

                                                                      Page 79
                                                              C:\Users\nhuliyap\AppData\Local\Temp\gh_000091s1.s
00000e4c 00             4055 	.byte	0
00000e4d 00             4056 	.byte	0
00000e4e 00             4057 	.byte	0
00000e4f 01             4058 	.byte	1
00000e50 00             4059 	.byte	0
00000e51 01             4060 	.byte	1
                        4061 
                        4062 	.section	.debug_frame
                        4063 .LDW_4d61958:
000000a8 00000000*      4064 	.word	.LDW_unq_6-.LDW_unq_5
                        4065 .LDW_unq_5:
000000ac 00000000*      4066 	.word	.LDW_4d1fd60
000000b0 00000000*      4067 	.word	_Fee_30_SmallSector_Ih_IsInvalidManagement..C.3A.5C_ECU2.5CECU_Rivian_A1.5CTarget.5Crepo_projects.5CpRealEcu.5CcR_LATEST.5Cmake.5Coutput.5Cobjects.5CFee_30_SmallSector_InstanceHandler.
000000b4 00000000*      4068 	.word	___ghs_eofn_Fee_30_SmallSector_Ih_IsInvalidManagement-_Fee_30_SmallSector_Ih_IsInvalidManagement..C.3A.5C_ECU2.5CECU_Rivian_A1.5CTarget.5Crepo_projects.5CpRealEcu.5CcR_LATEST.5Cmake.5Coutput.5Cobjects.5CFee_30_SmallSector_InstanceHandler.
000000b8 01             4069 	.byte	1
000000b9 00000000*      4070 	.word	.LDW31
000000bd 00             4071 	.byte	0
000000be 00             4072 	.byte	0
000000bf 00             4073 	.byte	0
                        4074 .LDW_unq_6:
                        4075 	.section	.debug_line
000003ec 000502         4076 	.byte	0,5,2
000003ef 00000000*      4077 	.word	_Fee_30_SmallSector_Ih_IsInvalidManagement..C.3A.5C_ECU2.5CECU_Rivian_A1.5CTarget.5Crepo_projects.5CpRealEcu.5CcR_LATEST.5Cmake.5Coutput.5Cobjects.5CFee_30_SmallSector_InstanceHandler.
000003f3 03             4078 	.byte	3
000003f4 36             4079 	.byte	54
000003f5 02             4080 	.byte	2
000003f6 00             4081 	.byte	0
000003f7 01             4082 	.byte	1
000003f8 06             4083 	.byte	6
000003f9 13             4084 	.byte	19
000003fa 06             4085 	.byte	6
000003fb 02             4086 	.byte	2
000003fc 06             4087 	.byte	6
000003fd 02             4088 	.byte	2
000003fe 02             4089 	.byte	2
000003ff 000101         4090 	.byte	0,1,1
                        4091 	.section	.debug_info
                        4092 .LDW_422de60:
00000e52 0f             4093 	.byte	15
00000e53 4d616e616765   4094 	.strz	"ManagementByte"
00000e59 6d656e744279 
00000e5f 746500 
00000e62 36             4095 	.byte	54
00000e63 79             4096 	.byte	121
00000e64 01             4097 	.byte	1
00000e65 00000000*      4098 	.word	.LDW_422dc80
00000e69 00             4099 	.byte	0
00000e6a 0156           4100 	.byte	1,86
                        4101 
                        4102 .LDW_41e1a80:
00000e6c 1d             4103 	.byte	29
00000e6d 00000000*      4104 	.word	.LDW21
00000e71 00000000*      4105 	.word	.LDW31
                        4106 
00000e75 00             4107 	.byte	0
                        4108 
00000e76 00             4109 	.byte	0
                        4110 
                        4111 .LDW_422deb8:
00000e77 13             4112 	.byte	19
00000e78 4665655f3330   4113 	.strz	"Fee_30_SmallSector_Ih_FillBufferWithStaticPattern"

                                                                      Page 80
                                                              C:\Users\nhuliyap\AppData\Local\Temp\gh_000091s1.s
00000e7e 5f536d616c6c 
00000e84 536563746f72 
00000e8a 5f49685f4669 
00000e90 6c6c42756666 
00000e96 657257697468 
00000e9c 537461746963 
00000ea2 506174746572 
00000ea8 6e00 
00000eaa 53             4114 	.byte	83
00000eab 46             4115 	.byte	70
00000eac 01             4116 	.byte	1
00000ead 00000000*      4117 	.word	_Fee_30_SmallSector_Ih_FillBufferWithStaticPattern..C.3A.5C_ECU2.5CECU_Rivian_A1.5CTarget.5Crepo_projects.5CpRealEcu.5CcR_LATEST.5Cmake.5Coutput.5Cobjects.5CFee_30_SmallSector_InstanceHandler.
00000eb1 00000000*      4118 	.word	___ghs_eofn_Fee_30_SmallSector_Ih_FillBufferWithStaticPattern
00000eb5 0153           4119 	.byte	1,83
00000eb7 02             4120 	.byte	2
00000eb8 00             4121 	.byte	0
00000eb9 02             4122 	.byte	2
00000eba 00             4123 	.byte	0
00000ebb 00             4124 	.byte	0
00000ebc 00             4125 	.byte	0
00000ebd 00             4126 	.byte	0
00000ebe 00             4127 	.byte	0
00000ebf 01             4128 	.byte	1
00000ec0 00             4129 	.byte	0
00000ec1 01             4130 	.byte	1
                        4131 
                        4132 	.section	.debug_abbrev
0000012e 13             4133 	.byte	19
0000012f 2e             4134 	.byte	46
00000130 01             4135 	.byte	1
00000131 0308           4136 	.byte	3,8
00000133 3b0f           4137 	.byte	59,15
00000135 390f           4138 	.byte	57,15
00000137 3a0f           4139 	.byte	58,15
00000139 1101           4140 	.byte	17,1
0000013b 1201           4141 	.byte	18,1
0000013d 400a           4142 	.byte	64,10
0000013f 8341           4143 	.byte	131,65
00000141 0f             4144 	.byte	15
00000142 8741           4145 	.byte	135,65
00000144 0d             4146 	.byte	13
00000145 8541           4147 	.byte	133,65
00000147 0f             4148 	.byte	15
00000148 8641           4149 	.byte	134,65
0000014a 0d             4150 	.byte	13
0000014b 9241           4151 	.byte	146,65
0000014d 0f             4152 	.byte	15
0000014e 3c0c           4153 	.byte	60,12
00000150 200b           4154 	.byte	32,11
00000152 3f0c           4155 	.byte	63,12
00000154 320b           4156 	.byte	50,11
00000156 4c0b           4157 	.byte	76,11
00000158 270c           4158 	.byte	39,12
0000015a 0000           4159 	.byte	0,0
                        4160 
                        4161 	.section	.debug_frame
                        4162 .LDW_4d62698:
000000c0 00000000*      4163 	.word	.LDW_unq_8-.LDW_unq_7
                        4164 .LDW_unq_7:
000000c4 00000000*      4165 	.word	.LDW_4d1fd60
000000c8 00000000*      4166 	.word	_Fee_30_SmallSector_Ih_FillBufferWithStaticPattern..C.3A.5C_ECU2.5CECU_Rivian_A1.5CTarget.5Crepo_projects.5CpRealEcu.5CcR_LATEST.5Cmake.5Coutput.5Cobjects.5CFee_30_SmallSector_InstanceHandler.

                                                                      Page 81
                                                              C:\Users\nhuliyap\AppData\Local\Temp\gh_000091s1.s
000000cc 00000000*      4167 	.word	___ghs_eofn_Fee_30_SmallSector_Ih_FillBufferWithStaticPattern-_Fee_30_SmallSector_Ih_FillBufferWithStaticPattern..C.3A.5C_ECU2.5CECU_Rivian_A1.5CTarget.5Crepo_projects.5CpRealEcu.5CcR_LATEST.5Cmake.5Coutput.5Cobjects.5CFee_30_SmallSector_InstanceHandler.
000000d0 01             4168 	.byte	1
000000d1 00000000*      4169 	.word	.LDW51
000000d5 00             4170 	.byte	0
000000d6 00             4171 	.byte	0
000000d7 00             4172 	.byte	0
                        4173 .LDW_unq_8:
                        4174 	.section	.debug_line
00000402 000502         4175 	.byte	0,5,2
00000405 00000000*      4176 	.word	_Fee_30_SmallSector_Ih_FillBufferWithStaticPattern..C.3A.5C_ECU2.5CECU_Rivian_A1.5CTarget.5Crepo_projects.5CpRealEcu.5CcR_LATEST.5Cmake.5Coutput.5Cobjects.5CFee_30_SmallSector_InstanceHandler.
00000409 06             4177 	.byte	6
0000040a 03             4178 	.byte	3
0000040b d500           4179 	.byte	213,0
0000040d 02             4180 	.byte	2
0000040e 00             4181 	.byte	0
0000040f 01             4182 	.byte	1
00000410 02             4183 	.byte	2
00000411 02             4184 	.byte	2
00000412 0c             4185 	.byte	12
00000413 000502         4186 	.byte	0,5,2
00000416 00000000*      4187 	.word	.LDWlin1
0000041a 03             4188 	.byte	3
0000041b 7e             4189 	.byte	126
0000041c 02             4190 	.byte	2
0000041d 00             4191 	.byte	0
0000041e 01             4192 	.byte	1
0000041f 000502         4193 	.byte	0,5,2
00000422 00000000*      4194 	.word	.LDWlin2
00000426 0d             4195 	.byte	13
00000427 0b             4196 	.byte	11
00000428 02             4197 	.byte	2
00000429 02             4198 	.byte	2
0000042a 000101         4199 	.byte	0,1,1
                        4200 	.section	.debug_info
                        4201 .LDW_41e1b70:
00000ec2 1d             4202 	.byte	29
00000ec3 00000000*      4203 	.word	.LDW41
00000ec7 00000000*      4204 	.word	.LDW51
                        4205 
                        4206 .LDW_422df50:
00000ecb 04             4207 	.byte	4
00000ecc 4c6f6f70436f   4208 	.strz	"LoopCounter"
00000ed2 756e74657200 
00000ed8 54             4209 	.byte	84
00000ed9 09             4210 	.byte	9
00000eda 01             4211 	.byte	1
00000edb 00000000*      4212 	.word	.LDW_422dc80
00000edf 00             4213 	.byte	0
00000ee0 00             4214 	.byte	0
00000ee1 0162           4215 	.byte	1,98
                        4216 
00000ee3 00             4217 	.byte	0
                        4218 
00000ee4 00             4219 	.byte	0
                        4220 
                        4221 .LDW_422dfa8:
00000ee5 13             4222 	.byte	19
00000ee6 4665655f3330   4223 	.strz	"Fee_30_SmallSector_Ih_FillBufferWithErasedValue"
00000eec 5f536d616c6c 
00000ef2 536563746f72 
00000ef8 5f49685f4669 

                                                                      Page 82
                                                              C:\Users\nhuliyap\AppData\Local\Temp\gh_000091s1.s
00000efe 6c6c42756666 
00000f04 657257697468 
00000f0a 457261736564 
00000f10 56616c756500 
00000f16 5c             4224 	.byte	92
00000f17 46             4225 	.byte	70
00000f18 01             4226 	.byte	1
00000f19 00000000*      4227 	.word	_Fee_30_SmallSector_Ih_FillBufferWithErasedValue..C.3A.5C_ECU2.5CECU_Rivian_A1.5CTarget.5Crepo_projects.5CpRealEcu.5CcR_LATEST.5Cmake.5Coutput.5Cobjects.5CFee_30_SmallSector_InstanceHandler.
00000f1d 00000000*      4228 	.word	___ghs_eofn_Fee_30_SmallSector_Ih_FillBufferWithErasedValue
00000f21 0153           4229 	.byte	1,83
00000f23 828080800b     4230 	.byte	130,128,128,128,11
00000f28 0c             4231 	.byte	12
00000f29 03             4232 	.byte	3
00000f2a 0c             4233 	.byte	12
00000f2b 00             4234 	.byte	0
00000f2c 00             4235 	.byte	0
00000f2d 00             4236 	.byte	0
00000f2e 00             4237 	.byte	0
00000f2f 01             4238 	.byte	1
00000f30 00             4239 	.byte	0
00000f31 01             4240 	.byte	1
                        4241 
                        4242 	.section	.debug_frame
                        4243 .LDW_4d62318:
000000d8 00000000*      4244 	.word	.LDW_unq_a-.LDW_unq_9
                        4245 .LDW_unq_9:
000000dc 00000000*      4246 	.word	.LDW_4d1fd60
000000e0 00000000*      4247 	.word	_Fee_30_SmallSector_Ih_FillBufferWithErasedValue..C.3A.5C_ECU2.5CECU_Rivian_A1.5CTarget.5Crepo_projects.5CpRealEcu.5CcR_LATEST.5Cmake.5Coutput.5Cobjects.5CFee_30_SmallSector_InstanceHandler.
000000e4 00000000*      4248 	.word	___ghs_eofn_Fee_30_SmallSector_Ih_FillBufferWithErasedValue-_Fee_30_SmallSector_Ih_FillBufferWithErasedValue..C.3A.5C_ECU2.5CECU_Rivian_A1.5CTarget.5Crepo_projects.5CpRealEcu.5CcR_LATEST.5Cmake.5Coutput.5Cobjects.5CFee_30_SmallSector_InstanceHandler.
000000e8 44             4249 	.byte	68
000000e9 9f             4250 	.byte	159
000000ea 00             4251 	.byte	0
000000eb 40             4252 	.byte	64
000000ec 9d             4253 	.byte	157
000000ed 04             4254 	.byte	4
000000ee 40             4255 	.byte	64
000000ef 9c             4256 	.byte	156
000000f0 08             4257 	.byte	8
000000f1 01             4258 	.byte	1
000000f2 00000000*      4259 	.word	.LDW71
000000f6 00             4260 	.byte	0
000000f7 00             4261 	.byte	0
                        4262 .LDW_unq_a:
                        4263 	.section	.debug_line
0000042d 000502         4264 	.byte	0,5,2
00000430 00000000*      4265 	.word	_Fee_30_SmallSector_Ih_FillBufferWithErasedValue..C.3A.5C_ECU2.5CECU_Rivian_A1.5CTarget.5Crepo_projects.5CpRealEcu.5CcR_LATEST.5Cmake.5Coutput.5Cobjects.5CFee_30_SmallSector_InstanceHandler.
00000434 03             4266 	.byte	3
00000435 db00           4267 	.byte	219,0
00000437 02             4268 	.byte	2
00000438 00             4269 	.byte	0
00000439 01             4270 	.byte	1
0000043a 06             4271 	.byte	6
0000043b 1d             4272 	.byte	29
0000043c 02             4273 	.byte	2
0000043d 02             4274 	.byte	2
0000043e 0c             4275 	.byte	12
0000043f 000502         4276 	.byte	0,5,2
00000442 00000000*      4277 	.word	.LDWlin3
00000446 03             4278 	.byte	3
00000447 7e             4279 	.byte	126
00000448 02             4280 	.byte	2

                                                                      Page 83
                                                              C:\Users\nhuliyap\AppData\Local\Temp\gh_000091s1.s
00000449 00             4281 	.byte	0
0000044a 01             4282 	.byte	1
0000044b 000502         4283 	.byte	0,5,2
0000044e 00000000*      4284 	.word	.LDWlin4
00000452 0d             4285 	.byte	13
00000453 0b             4286 	.byte	11
00000454 02             4287 	.byte	2
00000455 04             4288 	.byte	4
00000456 000101         4289 	.byte	0,1,1
                        4290 	.section	.debug_info
                        4291 .LDW_41e1c00:
00000f32 1d             4292 	.byte	29
00000f33 00000000*      4293 	.word	.LDW61
00000f37 00000000*      4294 	.word	.LDW71
                        4295 
                        4296 .LDW_422e040:
00000f3b 04             4297 	.byte	4
00000f3c 4c6f6f70436f   4298 	.strz	"LoopCounter"
00000f42 756e74657200 
00000f48 5d             4299 	.byte	93
00000f49 09             4300 	.byte	9
00000f4a 01             4301 	.byte	1
00000f4b 00000000*      4302 	.word	.LDW_422dc80
00000f4f 00             4303 	.byte	0
00000f50 00             4304 	.byte	0
00000f51 016d           4305 	.byte	1,109
                        4306 
00000f53 00             4307 	.byte	0
                        4308 
00000f54 00             4309 	.byte	0
                        4310 
                        4311 .LDW_41fb748:
00000f55 14             4312 	.byte	20
00000f56 4665655f3330   4313 	.strz	"Fee_30_SmallSector_Ih_IsLastPageNecessary"
00000f5c 5f536d616c6c 
00000f62 536563746f72 
00000f68 5f49685f4973 
00000f6e 4c6173745061 
00000f74 67654e656365 
00000f7a 737361727900 
00000f80 65             4314 	.byte	101
00000f81 2f             4315 	.byte	47
00000f82 01             4316 	.byte	1
00000f83 00000000*      4317 	.word	.LDW_422ef78
00000f87 00000000*      4318 	.word	_Fee_30_SmallSector_Ih_IsLastPageNecessary
00000f8b 00000000*      4319 	.word	___ghs_eofn_Fee_30_SmallSector_Ih_IsLastPageNecessary
00000f8f 0153           4320 	.byte	1,83
00000f91 828080800a     4321 	.byte	130,128,128,128,10
00000f96 08             4322 	.byte	8
00000f97 03             4323 	.byte	3
00000f98 08             4324 	.byte	8
00000f99 00             4325 	.byte	0
00000f9a 00             4326 	.byte	0
00000f9b 00             4327 	.byte	0
00000f9c 01             4328 	.byte	1
00000f9d 01             4329 	.byte	1
00000f9e 00             4330 	.byte	0
00000f9f 01             4331 	.byte	1
                        4332 
                        4333 	.section	.debug_frame
                        4334 .LDW_4d62098:

                                                                      Page 84
                                                              C:\Users\nhuliyap\AppData\Local\Temp\gh_000091s1.s
000000f8 00000000*      4335 	.word	.LDW_unq_c-.LDW_unq_b
                        4336 .LDW_unq_b:
000000fc 00000000*      4337 	.word	.LDW_4d1fd60
00000100 00000000*      4338 	.word	_Fee_30_SmallSector_Ih_IsLastPageNecessary
00000104 00000000*      4339 	.word	___ghs_eofn_Fee_30_SmallSector_Ih_IsLastPageNecessary-_Fee_30_SmallSector_Ih_IsLastPageNecessary
00000108 44             4340 	.byte	68
00000109 9f             4341 	.byte	159
0000010a 00             4342 	.byte	0
0000010b 40             4343 	.byte	64
0000010c 9d             4344 	.byte	157
0000010d 04             4345 	.byte	4
0000010e 01             4346 	.byte	1
0000010f 00000000*      4347 	.word	.LDW12
00000113 44             4348 	.byte	68
00000114 df             4349 	.byte	223
00000115 40             4350 	.byte	64
00000116 dd             4351 	.byte	221
00000117 00             4352 	.byte	0
                        4353 .LDW_unq_c:
                        4354 	.section	.debug_line
00000459 000502         4355 	.byte	0,5,2
0000045c 00000000*      4356 	.word	_Fee_30_SmallSector_Ih_IsLastPageNecessary
00000460 03             4357 	.byte	3
00000461 e500           4358 	.byte	229,0
00000463 02             4359 	.byte	2
00000464 00             4360 	.byte	0
00000465 01             4361 	.byte	1
00000466 06             4362 	.byte	6
00000467 1c             4363 	.byte	28
00000468 06             4364 	.byte	6
00000469 000502         4365 	.byte	0,5,2
0000046c 00000000*      4366 	.word	.LDWlin5
00000470 02             4367 	.byte	2
00000471 00             4368 	.byte	0
00000472 02             4369 	.byte	2
00000473 04             4370 	.byte	4
00000474 000101         4371 	.byte	0,1,1
                        4372 	.section	.debug_info
                        4373 .LDW_41fb7e0:
00000fa0 0f             4374 	.byte	15
00000fa1 496e7374616e   4375 	.strz	"Instance"
00000fa7 636500 
00000faa 65             4376 	.byte	101
00000fab 8801           4377 	.byte	136,1
00000fad 01             4378 	.byte	1
00000fae 00000000*      4379 	.word	.LDW_41fb6f0
00000fb2 00             4380 	.byte	0
00000fb3 0156           4381 	.byte	1,86
                        4382 
                        4383 .LDW_41e1ab0:
00000fb5 1d             4384 	.byte	29
00000fb6 00000000*      4385 	.word	.LDW02
00000fba 00000000*      4386 	.word	.LDW12
                        4387 
00000fbe 00             4388 	.byte	0
                        4389 
00000fbf 00             4390 	.byte	0
                        4391 
                        4392 .LDW_41fb998:
00000fc0 13             4393 	.byte	19
00000fc1 4665655f3330   4394 	.strz	"Fee_30_SmallSector_Ih_CreateInstance"

                                                                      Page 85
                                                              C:\Users\nhuliyap\AppData\Local\Temp\gh_000091s1.s
00000fc7 5f536d616c6c 
00000fcd 536563746f72 
00000fd3 5f49685f4372 
00000fd9 65617465496e 
00000fdf 7374616e6365 
00000fe5 00 
00000fe6 6b             4395 	.byte	107
00000fe7 2d             4396 	.byte	45
00000fe8 01             4397 	.byte	1
00000fe9 00000000*      4398 	.word	_Fee_30_SmallSector_Ih_CreateInstance
00000fed 00000000*      4399 	.word	___ghs_eofn_Fee_30_SmallSector_Ih_CreateInstance
00000ff1 0153           4400 	.byte	1,83
00000ff3 828080c00b     4401 	.byte	130,128,128,192,11
00000ff8 10             4402 	.byte	16
00000ff9 03             4403 	.byte	3
00000ffa 10             4404 	.byte	16
00000ffb 00             4405 	.byte	0
00000ffc 00             4406 	.byte	0
00000ffd 00             4407 	.byte	0
00000ffe 01             4408 	.byte	1
00000fff 01             4409 	.byte	1
00001000 00             4410 	.byte	0
00001001 01             4411 	.byte	1
                        4412 
                        4413 	.section	.debug_frame
                        4414 .LDW_4d62298:
00000118 00000000*      4415 	.word	.LDW_unq_e-.LDW_unq_d
                        4416 .LDW_unq_d:
0000011c 00000000*      4417 	.word	.LDW_4d1fd60
00000120 00000000*      4418 	.word	_Fee_30_SmallSector_Ih_CreateInstance
00000124 00000000*      4419 	.word	___ghs_eofn_Fee_30_SmallSector_Ih_CreateInstance-_Fee_30_SmallSector_Ih_CreateInstance
00000128 44             4420 	.byte	68
00000129 9f             4421 	.byte	159
0000012a 00             4422 	.byte	0
0000012b 40             4423 	.byte	64
0000012c 9d             4424 	.byte	157
0000012d 04             4425 	.byte	4
0000012e 40             4426 	.byte	64
0000012f 9c             4427 	.byte	156
00000130 08             4428 	.byte	8
00000131 40             4429 	.byte	64
00000132 9b             4430 	.byte	155
00000133 0c             4431 	.byte	12
00000134 01             4432 	.byte	1
00000135 00000000*      4433 	.word	.LDW32
00000139 44             4434 	.byte	68
0000013a df             4435 	.byte	223
0000013b 40             4436 	.byte	64
0000013c dd             4437 	.byte	221
0000013d 40             4438 	.byte	64
0000013e dc             4439 	.byte	220
0000013f 40             4440 	.byte	64
00000140 db             4441 	.byte	219
00000141 00             4442 	.byte	0
00000142 00             4443 	.byte	0
00000143 00             4444 	.byte	0
                        4445 .LDW_unq_e:
                        4446 	.section	.debug_line
00000477 000502         4447 	.byte	0,5,2
0000047a 00000000*      4448 	.word	_Fee_30_SmallSector_Ih_CreateInstance
0000047e 03             4449 	.byte	3

                                                                      Page 86
                                                              C:\Users\nhuliyap\AppData\Local\Temp\gh_000091s1.s
0000047f ec00           4450 	.byte	236,0
00000481 02             4451 	.byte	2
00000482 00             4452 	.byte	0
00000483 01             4453 	.byte	1
00000484 06             4454 	.byte	6
00000485 33             4455 	.byte	51
00000486 1b             4456 	.byte	27
00000487 000502         4457 	.byte	0,5,2
0000048a 00000000*      4458 	.word	.LDWlin6
0000048e 0b             4459 	.byte	11
0000048f 000502         4460 	.byte	0,5,2
00000492 00000000*      4461 	.word	.LDWlin7
00000496 0b             4462 	.byte	11
00000497 13             4463 	.byte	19
00000498 000502         4464 	.byte	0,5,2
0000049b 00000000*      4465 	.word	.LDWlin8
0000049f 0b             4466 	.byte	11
000004a0 13             4467 	.byte	19
000004a1 13             4468 	.byte	19
000004a2 13             4469 	.byte	19
000004a3 13             4470 	.byte	19
000004a4 02             4471 	.byte	2
000004a5 04             4472 	.byte	4
000004a6 000101         4473 	.byte	0,1,1
                        4474 	.section	.debug_info
                        4475 .LDW_41fba30:
00001002 0f             4476 	.byte	15
00001003 496e7374616e   4477 	.strz	"Instance"
00001009 636500 
0000100c 6b             4478 	.byte	107
0000100d 7f             4479 	.byte	127
0000100e 01             4480 	.byte	1
0000100f 00000000*      4481 	.word	.LDW_41fb838
00001013 00             4482 	.byte	0
00001014 016d           4483 	.byte	1,109
                        4484 
                        4485 .LDW_4c741a8:
00001016 0f             4486 	.byte	15
00001017 496e7374616e   4487 	.strz	"InstanceStartAddress"
0000101d 636553746172 
00001023 744164647265 
00001029 737300 
0000102c 6c             4488 	.byte	108
0000102d 29             4489 	.byte	41
0000102e 01             4490 	.byte	1
0000102f 00000000*      4491 	.word	.LDW_41fb8e8
00001033 00             4492 	.byte	0
00001034 016c           4493 	.byte	1,108
                        4494 
                        4495 .LDW_4c74048:
00001036 0f             4496 	.byte	15
00001037 446174614c65   4497 	.strz	"DataLength"
0000103d 6e67746800 
00001042 6c             4498 	.byte	108
00001043 46             4499 	.byte	70
00001044 01             4500 	.byte	1
00001045 00000000*      4501 	.word	.LDW_41fb940
00001049 00             4502 	.byte	0
0000104a 016b           4503 	.byte	1,107
                        4504 
                        4505 .LDW_41e1ba0:

                                                                      Page 87
                                                              C:\Users\nhuliyap\AppData\Local\Temp\gh_000091s1.s
0000104c 1d             4506 	.byte	29
0000104d 00000000*      4507 	.word	.LDW22
00001051 00000000*      4508 	.word	.LDW32
                        4509 
00001055 00             4510 	.byte	0
                        4511 
00001056 00             4512 	.byte	0
                        4513 
                        4514 .LDW_41fba88:
00001057 13             4515 	.byte	19
00001058 4665655f3330   4516 	.strz	"Fee_30_SmallSector_Ih_InitInstance"
0000105e 5f536d616c6c 
00001064 536563746f72 
0000106a 5f49685f496e 
00001070 6974496e7374 
00001076 616e636500 
0000107b 79             4517 	.byte	121
0000107c 2d             4518 	.byte	45
0000107d 01             4519 	.byte	1
0000107e 00000000*      4520 	.word	_Fee_30_SmallSector_Ih_InitInstance
00001082 00000000*      4521 	.word	___ghs_eofn_Fee_30_SmallSector_Ih_InitInstance
00001086 0153           4522 	.byte	1,83
00001088 02             4523 	.byte	2
00001089 00             4524 	.byte	0
0000108a 02             4525 	.byte	2
0000108b 00             4526 	.byte	0
0000108c 00             4527 	.byte	0
0000108d 00             4528 	.byte	0
0000108e 00             4529 	.byte	0
0000108f 01             4530 	.byte	1
00001090 01             4531 	.byte	1
00001091 00             4532 	.byte	0
00001092 01             4533 	.byte	1
                        4534 
                        4535 	.section	.debug_frame
                        4536 .LDW_4d62658:
00000144 00000000*      4537 	.word	.LDW_unq_10-.LDW_unq_f
                        4538 .LDW_unq_f:
00000148 00000000*      4539 	.word	.LDW_4d1fd60
0000014c 00000000*      4540 	.word	_Fee_30_SmallSector_Ih_InitInstance
00000150 00000000*      4541 	.word	___ghs_eofn_Fee_30_SmallSector_Ih_InitInstance-_Fee_30_SmallSector_Ih_InitInstance
00000154 01             4542 	.byte	1
00000155 00000000*      4543 	.word	.LDW52
00000159 00             4544 	.byte	0
0000015a 00             4545 	.byte	0
0000015b 00             4546 	.byte	0
                        4547 .LDW_unq_10:
                        4548 	.section	.debug_line
000004a9 000502         4549 	.byte	0,5,2
000004ac 00000000*      4550 	.word	_Fee_30_SmallSector_Ih_InitInstance
000004b0 03             4551 	.byte	3
000004b1 f900           4552 	.byte	249,0
000004b3 02             4553 	.byte	2
000004b4 00             4554 	.byte	0
000004b5 01             4555 	.byte	1
000004b6 06             4556 	.byte	6
000004b7 13             4557 	.byte	19
000004b8 13             4558 	.byte	19
000004b9 13             4559 	.byte	19
000004ba 13             4560 	.byte	19
000004bb 13             4561 	.byte	19

                                                                      Page 88
                                                              C:\Users\nhuliyap\AppData\Local\Temp\gh_000091s1.s
000004bc 13             4562 	.byte	19
000004bd 13             4563 	.byte	19
000004be 13             4564 	.byte	19
000004bf 13             4565 	.byte	19
000004c0 02             4566 	.byte	2
000004c1 02             4567 	.byte	2
000004c2 000101         4568 	.byte	0,1,1
                        4569 	.section	.debug_info
                        4570 .LDW_4c744c0:
00001093 0f             4571 	.byte	15
00001094 496e7374616e   4572 	.strz	"Instance"
0000109a 636500 
0000109d 79             4573 	.byte	121
0000109e 7d             4574 	.byte	125
0000109f 01             4575 	.byte	1
000010a0 00000000*      4576 	.word	.LDW_41fb838
000010a4 00             4577 	.byte	0
000010a5 016e           4578 	.byte	1,110
                        4579 
                        4580 .LDW_4c89bb8:
000010a7 1d             4581 	.byte	29
000010a8 00000000*      4582 	.word	.LDW42
000010ac 00000000*      4583 	.word	.LDW52
                        4584 
000010b0 00             4585 	.byte	0
                        4586 
000010b1 00             4587 	.byte	0
                        4588 
                        4589 .LDW_41fbb20:
000010b2 14             4590 	.byte	20
000010b3 4665655f3330   4591 	.strz	"Fee_30_SmallSector_Ih_GetInstanceStartAddress"
000010b9 5f536d616c6c 
000010bf 536563746f72 
000010c5 5f49685f4765 
000010cb 74496e737461 
000010d1 6e6365537461 
000010d7 727441646472 
000010dd 65737300 
000010e1 8501           4592 	.byte	133,1
000010e3 47             4593 	.byte	71
000010e4 01             4594 	.byte	1
000010e5 00000000*      4595 	.word	.LDW_41fb8e8
000010e9 00000000*      4596 	.word	_Fee_30_SmallSector_Ih_GetInstanceStartAddress
000010ed 00000000*      4597 	.word	___ghs_eofn_Fee_30_SmallSector_Ih_GetInstanceStartAddress
000010f1 0153           4598 	.byte	1,83
000010f3 02             4599 	.byte	2
000010f4 00             4600 	.byte	0
000010f5 02             4601 	.byte	2
000010f6 00             4602 	.byte	0
000010f7 00             4603 	.byte	0
000010f8 00             4604 	.byte	0
000010f9 00             4605 	.byte	0
000010fa 01             4606 	.byte	1
000010fb 01             4607 	.byte	1
000010fc 00             4608 	.byte	0
000010fd 01             4609 	.byte	1
                        4610 
                        4611 	.section	.debug_frame
                        4612 .LDW_4d62458:
0000015c 00000000*      4613 	.word	.LDW_unq_12-.LDW_unq_11
                        4614 .LDW_unq_11:

                                                                      Page 89
                                                              C:\Users\nhuliyap\AppData\Local\Temp\gh_000091s1.s
00000160 00000000*      4615 	.word	.LDW_4d1fd60
00000164 00000000*      4616 	.word	_Fee_30_SmallSector_Ih_GetInstanceStartAddress
00000168 00000000*      4617 	.word	___ghs_eofn_Fee_30_SmallSector_Ih_GetInstanceStartAddress-_Fee_30_SmallSector_Ih_GetInstanceStartAddress
0000016c 01             4618 	.byte	1
0000016d 00000000*      4619 	.word	.LDW72
00000171 00             4620 	.byte	0
00000172 00             4621 	.byte	0
00000173 00             4622 	.byte	0
                        4623 .LDW_unq_12:
                        4624 	.section	.debug_line
000004c5 000502         4625 	.byte	0,5,2
000004c8 00000000*      4626 	.word	_Fee_30_SmallSector_Ih_GetInstanceStartAddress
000004cc 03             4627 	.byte	3
000004cd 8501           4628 	.byte	133,1
000004cf 02             4629 	.byte	2
000004d0 00             4630 	.byte	0
000004d1 01             4631 	.byte	1
000004d2 06             4632 	.byte	6
000004d3 13             4633 	.byte	19
000004d4 06             4634 	.byte	6
000004d5 02             4635 	.byte	2
000004d6 02             4636 	.byte	2
000004d7 02             4637 	.byte	2
000004d8 02             4638 	.byte	2
000004d9 000101         4639 	.byte	0,1,1
                        4640 	.section	.debug_info
                        4641 .LDW_4c73f98:
000010fe 0f             4642 	.byte	15
000010ff 496e7374616e   4643 	.strz	"Instance"
00001105 636500 
00001108 8501           4644 	.byte	133,1
0000110a a401           4645 	.byte	164,1
0000110c 01             4646 	.byte	1
0000110d 00000000*      4647 	.word	.LDW_41fb6f0
00001111 00             4648 	.byte	0
00001112 016e           4649 	.byte	1,110
                        4650 
                        4651 .LDW_4c898e8:
00001114 1d             4652 	.byte	29
00001115 00000000*      4653 	.word	.LDW62
00001119 00000000*      4654 	.word	.LDW72
                        4655 
0000111d 00             4656 	.byte	0
                        4657 
0000111e 00             4658 	.byte	0
                        4659 
                        4660 .LDW_41fbbb8:
0000111f 14             4661 	.byte	20
00001120 4665655f3330   4662 	.strz	"Fee_30_SmallSector_Ih_GetEndPatternAddress"
00001126 5f536d616c6c 
0000112c 536563746f72 
00001132 5f49685f4765 
00001138 74456e645061 
0000113e 747465726e41 
00001144 646472657373 
0000114a 00 
0000114b 8a01           4663 	.byte	138,1
0000114d 47             4664 	.byte	71
0000114e 01             4665 	.byte	1
0000114f 00000000*      4666 	.word	.LDW_41fb8e8
00001153 00000000*      4667 	.word	_Fee_30_SmallSector_Ih_GetEndPatternAddress

                                                                      Page 90
                                                              C:\Users\nhuliyap\AppData\Local\Temp\gh_000091s1.s
00001157 00000000*      4668 	.word	___ghs_eofn_Fee_30_SmallSector_Ih_GetEndPatternAddress
0000115b 0153           4669 	.byte	1,83
0000115d 02             4670 	.byte	2
0000115e 00             4671 	.byte	0
0000115f 02             4672 	.byte	2
00001160 00             4673 	.byte	0
00001161 00             4674 	.byte	0
00001162 00             4675 	.byte	0
00001163 00             4676 	.byte	0
00001164 01             4677 	.byte	1
00001165 01             4678 	.byte	1
00001166 00             4679 	.byte	0
00001167 01             4680 	.byte	1
                        4681 
                        4682 	.section	.debug_frame
                        4683 .LDW_4d62798:
00000174 00000000*      4684 	.word	.LDW_unq_14-.LDW_unq_13
                        4685 .LDW_unq_13:
00000178 00000000*      4686 	.word	.LDW_4d1fd60
0000017c 00000000*      4687 	.word	_Fee_30_SmallSector_Ih_GetEndPatternAddress
00000180 00000000*      4688 	.word	___ghs_eofn_Fee_30_SmallSector_Ih_GetEndPatternAddress-_Fee_30_SmallSector_Ih_GetEndPatternAddress
00000184 01             4689 	.byte	1
00000185 00000000*      4690 	.word	.LDW92
00000189 00             4691 	.byte	0
0000018a 00             4692 	.byte	0
0000018b 00             4693 	.byte	0
                        4694 .LDW_unq_14:
                        4695 	.section	.debug_line
000004dc 000502         4696 	.byte	0,5,2
000004df 00000000*      4697 	.word	_Fee_30_SmallSector_Ih_GetEndPatternAddress
000004e3 03             4698 	.byte	3
000004e4 8a01           4699 	.byte	138,1
000004e6 02             4700 	.byte	2
000004e7 00             4701 	.byte	0
000004e8 01             4702 	.byte	1
000004e9 06             4703 	.byte	6
000004ea 13             4704 	.byte	19
000004eb 06             4705 	.byte	6
000004ec 02             4706 	.byte	2
000004ed 02             4707 	.byte	2
000004ee 02             4708 	.byte	2
000004ef 02             4709 	.byte	2
000004f0 000101         4710 	.byte	0,1,1
                        4711 	.section	.debug_info
                        4712 .LDW_4c74468:
00001168 0f             4713 	.byte	15
00001169 496e7374616e   4714 	.strz	"Instance"
0000116f 636500 
00001172 8a01           4715 	.byte	138,1
00001174 a101           4716 	.byte	161,1
00001176 01             4717 	.byte	1
00001177 00000000*      4718 	.word	.LDW_41fb6f0
0000117b 00             4719 	.byte	0
0000117c 016e           4720 	.byte	1,110
                        4721 
                        4722 .LDW_4c89a08:
0000117e 1d             4723 	.byte	29
0000117f 00000000*      4724 	.word	.LDW82
00001183 00000000*      4725 	.word	.LDW92
                        4726 
00001187 00             4727 	.byte	0

                                                                      Page 91
                                                              C:\Users\nhuliyap\AppData\Local\Temp\gh_000091s1.s
                        4728 
00001188 00             4729 	.byte	0
                        4730 
                        4731 .LDW_41fbc50:
00001189 14             4732 	.byte	20
0000118a 4665655f3330   4733 	.strz	"Fee_30_SmallSector_Ih_GetManagementAddress"
00001190 5f536d616c6c 
00001196 536563746f72 
0000119c 5f49685f4765 
000011a2 744d616e6167 
000011a8 656d656e7441 
000011ae 646472657373 
000011b4 00 
000011b5 8f01           4734 	.byte	143,1
000011b7 47             4735 	.byte	71
000011b8 01             4736 	.byte	1
000011b9 00000000*      4737 	.word	.LDW_41fb8e8
000011bd 00000000*      4738 	.word	_Fee_30_SmallSector_Ih_GetManagementAddress
000011c1 00000000*      4739 	.word	___ghs_eofn_Fee_30_SmallSector_Ih_GetManagementAddress
000011c5 0153           4740 	.byte	1,83
000011c7 02             4741 	.byte	2
000011c8 00             4742 	.byte	0
000011c9 02             4743 	.byte	2
000011ca 00             4744 	.byte	0
000011cb 00             4745 	.byte	0
000011cc 00             4746 	.byte	0
000011cd 00             4747 	.byte	0
000011ce 01             4748 	.byte	1
000011cf 01             4749 	.byte	1
000011d0 00             4750 	.byte	0
000011d1 01             4751 	.byte	1
                        4752 
                        4753 	.section	.debug_frame
                        4754 .LDW_4df03e0:
0000018c 00000000*      4755 	.word	.LDW_unq_16-.LDW_unq_15
                        4756 .LDW_unq_15:
00000190 00000000*      4757 	.word	.LDW_4d1fd60
00000194 00000000*      4758 	.word	_Fee_30_SmallSector_Ih_GetManagementAddress
00000198 00000000*      4759 	.word	___ghs_eofn_Fee_30_SmallSector_Ih_GetManagementAddress-_Fee_30_SmallSector_Ih_GetManagementAddress
0000019c 01             4760 	.byte	1
0000019d 00000000*      4761 	.word	.LDW13
000001a1 00             4762 	.byte	0
000001a2 00             4763 	.byte	0
000001a3 00             4764 	.byte	0
                        4765 .LDW_unq_16:
                        4766 	.section	.debug_line
000004f3 000502         4767 	.byte	0,5,2
000004f6 00000000*      4768 	.word	_Fee_30_SmallSector_Ih_GetManagementAddress
000004fa 03             4769 	.byte	3
000004fb 8f01           4770 	.byte	143,1
000004fd 02             4771 	.byte	2
000004fe 00             4772 	.byte	0
000004ff 01             4773 	.byte	1
00000500 06             4774 	.byte	6
00000501 13             4775 	.byte	19
00000502 06             4776 	.byte	6
00000503 02             4777 	.byte	2
00000504 02             4778 	.byte	2
00000505 02             4779 	.byte	2
00000506 02             4780 	.byte	2
00000507 000101         4781 	.byte	0,1,1

                                                                      Page 92
                                                              C:\Users\nhuliyap\AppData\Local\Temp\gh_000091s1.s
                        4782 	.section	.debug_info
                        4783 .LDW_4c742b0:
000011d2 0f             4784 	.byte	15
000011d3 496e7374616e   4785 	.strz	"Instance"
000011d9 636500 
000011dc 8f01           4786 	.byte	143,1
000011de a101           4787 	.byte	161,1
000011e0 01             4788 	.byte	1
000011e1 00000000*      4789 	.word	.LDW_41fb6f0
000011e5 00             4790 	.byte	0
000011e6 016e           4791 	.byte	1,110
                        4792 
                        4793 .LDW_4c898b8:
000011e8 1d             4794 	.byte	29
000011e9 00000000*      4795 	.word	.LDW03
000011ed 00000000*      4796 	.word	.LDW13
                        4797 
000011f1 00             4798 	.byte	0
                        4799 
000011f2 00             4800 	.byte	0
                        4801 
                        4802 .LDW_4c74ac8:
000011f3 14             4803 	.byte	20
000011f4 4665655f3330   4804 	.strz	"Fee_30_SmallSector_Ih_GetEndAddress"
000011fa 5f536d616c6c 
00001200 536563746f72 
00001206 5f49685f4765 
0000120c 74456e644164 
00001212 647265737300 
00001218 9401           4805 	.byte	148,1
0000121a 47             4806 	.byte	71
0000121b 01             4807 	.byte	1
0000121c 00000000*      4808 	.word	.LDW_41fb8e8
00001220 00000000*      4809 	.word	_Fee_30_SmallSector_Ih_GetEndAddress
00001224 00000000*      4810 	.word	___ghs_eofn_Fee_30_SmallSector_Ih_GetEndAddress
00001228 0153           4811 	.byte	1,83
0000122a 828080c00a     4812 	.byte	130,128,128,192,10
0000122f 0c             4813 	.byte	12
00001230 03             4814 	.byte	3
00001231 0c             4815 	.byte	12
00001232 00             4816 	.byte	0
00001233 00             4817 	.byte	0
00001234 00             4818 	.byte	0
00001235 01             4819 	.byte	1
00001236 01             4820 	.byte	1
00001237 00             4821 	.byte	0
00001238 01             4822 	.byte	1
                        4823 
                        4824 	.section	.debug_frame
                        4825 .LDW_4df0320:
000001a4 00000000*      4826 	.word	.LDW_unq_18-.LDW_unq_17
                        4827 .LDW_unq_17:
000001a8 00000000*      4828 	.word	.LDW_4d1fd60
000001ac 00000000*      4829 	.word	_Fee_30_SmallSector_Ih_GetEndAddress
000001b0 00000000*      4830 	.word	___ghs_eofn_Fee_30_SmallSector_Ih_GetEndAddress-_Fee_30_SmallSector_Ih_GetEndAddress
000001b4 44             4831 	.byte	68
000001b5 9f             4832 	.byte	159
000001b6 00             4833 	.byte	0
000001b7 40             4834 	.byte	64
000001b8 9d             4835 	.byte	157
000001b9 04             4836 	.byte	4

                                                                      Page 93
                                                              C:\Users\nhuliyap\AppData\Local\Temp\gh_000091s1.s
000001ba 40             4837 	.byte	64
000001bb 9b             4838 	.byte	155
000001bc 08             4839 	.byte	8
000001bd 01             4840 	.byte	1
000001be 00000000*      4841 	.word	.LDW33
000001c2 44             4842 	.byte	68
000001c3 df             4843 	.byte	223
000001c4 40             4844 	.byte	64
000001c5 dd             4845 	.byte	221
000001c6 40             4846 	.byte	64
000001c7 db             4847 	.byte	219
                        4848 .LDW_unq_18:
                        4849 	.section	.debug_line
0000050a 000502         4850 	.byte	0,5,2
0000050d 00000000*      4851 	.word	_Fee_30_SmallSector_Ih_GetEndAddress
00000511 03             4852 	.byte	3
00000512 9401           4853 	.byte	148,1
00000514 02             4854 	.byte	2
00000515 00             4855 	.byte	0
00000516 01             4856 	.byte	1
00000517 06             4857 	.byte	6
00000518 24             4858 	.byte	36
00000519 06             4859 	.byte	6
0000051a 000502         4860 	.byte	0,5,2
0000051d 00000000*      4861 	.word	.LDWlin9
00000521 02             4862 	.byte	2
00000522 00             4863 	.byte	0
00000523 02             4864 	.byte	2
00000524 04             4865 	.byte	4
00000525 000101         4866 	.byte	0,1,1
                        4867 	.section	.debug_info
                        4868 .LDW_4c74620:
00001239 0f             4869 	.byte	15
0000123a 496e7374616e   4870 	.strz	"Instance"
00001240 636500 
00001243 9401           4871 	.byte	148,1
00001245 9a01           4872 	.byte	154,1
00001247 01             4873 	.byte	1
00001248 00000000*      4874 	.word	.LDW_41fb6f0
0000124c 00             4875 	.byte	0
0000124d 016d           4876 	.byte	1,109
                        4877 
                        4878 .LDW_4c89c78:
0000124f 1d             4879 	.byte	29
00001250 00000000*      4880 	.word	.LDW23
00001254 00000000*      4881 	.word	.LDW33
                        4882 
00001258 00             4883 	.byte	0
                        4884 
00001259 00             4885 	.byte	0
                        4886 
                        4887 .LDW_4c74b60:
0000125a 14             4888 	.byte	20
0000125b 4665655f3330   4889 	.strz	"Fee_30_SmallSector_Ih_GetInstanceDataLength"
00001261 5f536d616c6c 
00001267 536563746f72 
0000126d 5f49685f4765 
00001273 74496e737461 
00001279 6e6365446174 
0000127f 614c656e6774 
00001285 6800 

                                                                      Page 94
                                                              C:\Users\nhuliyap\AppData\Local\Temp\gh_000091s1.s
00001287 9b01           4890 	.byte	155,1
00001289 2f             4891 	.byte	47
0000128a 01             4892 	.byte	1
0000128b 00000000*      4893 	.word	.LDW_41fb940
0000128f 00000000*      4894 	.word	_Fee_30_SmallSector_Ih_GetInstanceDataLength
00001293 00000000*      4895 	.word	___ghs_eofn_Fee_30_SmallSector_Ih_GetInstanceDataLength
00001297 0153           4896 	.byte	1,83
00001299 02             4897 	.byte	2
0000129a 00             4898 	.byte	0
0000129b 02             4899 	.byte	2
0000129c 00             4900 	.byte	0
0000129d 00             4901 	.byte	0
0000129e 00             4902 	.byte	0
0000129f 00             4903 	.byte	0
000012a0 01             4904 	.byte	1
000012a1 01             4905 	.byte	1
000012a2 00             4906 	.byte	0
000012a3 01             4907 	.byte	1
                        4908 
                        4909 	.section	.debug_frame
                        4910 .LDW_4d625d8:
000001c8 00000000*      4911 	.word	.LDW_unq_1a-.LDW_unq_19
                        4912 .LDW_unq_19:
000001cc 00000000*      4913 	.word	.LDW_4d1fd60
000001d0 00000000*      4914 	.word	_Fee_30_SmallSector_Ih_GetInstanceDataLength
000001d4 00000000*      4915 	.word	___ghs_eofn_Fee_30_SmallSector_Ih_GetInstanceDataLength-_Fee_30_SmallSector_Ih_GetInstanceDataLength
000001d8 01             4916 	.byte	1
000001d9 00000000*      4917 	.word	.LDW91
000001dd 00             4918 	.byte	0
000001de 00             4919 	.byte	0
000001df 00             4920 	.byte	0
                        4921 .LDW_unq_1a:
                        4922 	.section	.debug_line
00000528 000502         4923 	.byte	0,5,2
0000052b 00000000*      4924 	.word	_Fee_30_SmallSector_Ih_GetInstanceDataLength
0000052f 03             4925 	.byte	3
00000530 9b01           4926 	.byte	155,1
00000532 02             4927 	.byte	2
00000533 00             4928 	.byte	0
00000534 01             4929 	.byte	1
00000535 06             4930 	.byte	6
00000536 13             4931 	.byte	19
00000537 06             4932 	.byte	6
00000538 02             4933 	.byte	2
00000539 02             4934 	.byte	2
0000053a 02             4935 	.byte	2
0000053b 02             4936 	.byte	2
0000053c 000101         4937 	.byte	0,1,1
                        4938 	.section	.debug_info
                        4939 .LDW_4c73f40:
000012a4 0f             4940 	.byte	15
000012a5 496e7374616e   4941 	.strz	"Instance"
000012ab 636500 
000012ae 9b01           4942 	.byte	155,1
000012b0 8a01           4943 	.byte	138,1
000012b2 01             4944 	.byte	1
000012b3 00000000*      4945 	.word	.LDW_41fb6f0
000012b7 00             4946 	.byte	0
000012b8 016e           4947 	.byte	1,110
                        4948 
                        4949 .LDW_4c89d38:

                                                                      Page 95
                                                              C:\Users\nhuliyap\AppData\Local\Temp\gh_000091s1.s
000012ba 1d             4950 	.byte	29
000012bb 00000000*      4951 	.word	.LDW81
000012bf 00000000*      4952 	.word	.LDW91
                        4953 
000012c3 00             4954 	.byte	0
                        4955 
000012c4 00             4956 	.byte	0
                        4957 
                        4958 .LDW_4c74cf8:
000012c5 14             4959 	.byte	20
000012c6 4665655f3330   4960 	.strz	"Fee_30_SmallSector_Ih_GetInstanceStatus"
000012cc 5f536d616c6c 
000012d2 536563746f72 
000012d8 5f49685f4765 
000012de 74496e737461 
000012e4 6e6365537461 
000012ea 74757300 
000012ee a001           4961 	.byte	160,1
000012f0 51             4962 	.byte	81
000012f1 01             4963 	.byte	1
000012f2 00000000*      4964 	.word	.LDW_4c73ff0
000012f6 00000000*      4965 	.word	_Fee_30_SmallSector_Ih_GetInstanceStatus
000012fa 00000000*      4966 	.word	___ghs_eofn_Fee_30_SmallSector_Ih_GetInstanceStatus
000012fe 0153           4967 	.byte	1,83
00001300 02             4968 	.byte	2
00001301 00             4969 	.byte	0
00001302 02             4970 	.byte	2
00001303 00             4971 	.byte	0
00001304 00             4972 	.byte	0
00001305 00             4973 	.byte	0
00001306 00             4974 	.byte	0
00001307 01             4975 	.byte	1
00001308 01             4976 	.byte	1
00001309 00             4977 	.byte	0
0000130a 01             4978 	.byte	1
                        4979 
                        4980 	.section	.debug_frame
                        4981 .LDW_4df06e0:
000001e0 00000000*      4982 	.word	.LDW_unq_1c-.LDW_unq_1b
                        4983 .LDW_unq_1b:
000001e4 00000000*      4984 	.word	.LDW_4d1fd60
000001e8 00000000*      4985 	.word	_Fee_30_SmallSector_Ih_GetInstanceStatus
000001ec 00000000*      4986 	.word	___ghs_eofn_Fee_30_SmallSector_Ih_GetInstanceStatus-_Fee_30_SmallSector_Ih_GetInstanceStatus
000001f0 01             4987 	.byte	1
000001f1 00000000*      4988 	.word	.LDW53
000001f5 00             4989 	.byte	0
000001f6 00             4990 	.byte	0
000001f7 00             4991 	.byte	0
                        4992 .LDW_unq_1c:
                        4993 	.section	.debug_line
0000053f 000502         4994 	.byte	0,5,2
00000542 00000000*      4995 	.word	_Fee_30_SmallSector_Ih_GetInstanceStatus
00000546 03             4996 	.byte	3
00000547 a001           4997 	.byte	160,1
00000549 02             4998 	.byte	2
0000054a 00             4999 	.byte	0
0000054b 01             5000 	.byte	1
0000054c 06             5001 	.byte	6
0000054d 13             5002 	.byte	19
0000054e 06             5003 	.byte	6
0000054f 02             5004 	.byte	2

                                                                      Page 96
                                                              C:\Users\nhuliyap\AppData\Local\Temp\gh_000091s1.s
00000550 02             5005 	.byte	2
00000551 02             5006 	.byte	2
00000552 02             5007 	.byte	2
00000553 000101         5008 	.byte	0,1,1
                        5009 	.section	.debug_info
                        5010 .LDW_4c740a0:
0000130b 0f             5011 	.byte	15
0000130c 496e7374616e   5012 	.strz	"Instance"
00001312 636500 
00001315 a001           5013 	.byte	160,1
00001317 a801           5014 	.byte	168,1
00001319 01             5015 	.byte	1
0000131a 00000000*      5016 	.word	.LDW_41fb6f0
0000131e 00             5017 	.byte	0
0000131f 016e           5018 	.byte	1,110
                        5019 
                        5020 .LDW_4c89978:
00001321 1d             5021 	.byte	29
00001322 00000000*      5022 	.word	.LDW43
00001326 00000000*      5023 	.word	.LDW53
                        5024 
0000132a 00             5025 	.byte	0
                        5026 
0000132b 00             5027 	.byte	0
                        5028 
                        5029 .LDW_4c74d90:
0000132c 14             5030 	.byte	20
0000132d 4665655f3330   5031 	.strz	"Fee_30_SmallSector_Ih_GetMgmtValue"
00001333 5f536d616c6c 
00001339 536563746f72 
0000133f 5f49685f4765 
00001345 744d676d7456 
0000134b 616c756500 
00001350 a501           5032 	.byte	165,1
00001352 2d             5033 	.byte	45
00001353 01             5034 	.byte	1
00001354 00000000*      5035 	.word	.LDW_422dc80
00001358 00000000*      5036 	.word	_Fee_30_SmallSector_Ih_GetMgmtValue
0000135c 00000000*      5037 	.word	___ghs_eofn_Fee_30_SmallSector_Ih_GetMgmtValue
00001360 0153           5038 	.byte	1,83
00001362 02             5039 	.byte	2
00001363 00             5040 	.byte	0
00001364 02             5041 	.byte	2
00001365 00             5042 	.byte	0
00001366 00             5043 	.byte	0
00001367 00             5044 	.byte	0
00001368 00             5045 	.byte	0
00001369 01             5046 	.byte	1
0000136a 01             5047 	.byte	1
0000136b 00             5048 	.byte	0
0000136c 01             5049 	.byte	1
                        5050 
                        5051 	.section	.debug_frame
                        5052 .LDW_4df0620:
000001f8 00000000*      5053 	.word	.LDW_unq_1e-.LDW_unq_1d
                        5054 .LDW_unq_1d:
000001fc 00000000*      5055 	.word	.LDW_4d1fd60
00000200 00000000*      5056 	.word	_Fee_30_SmallSector_Ih_GetMgmtValue
00000204 00000000*      5057 	.word	___ghs_eofn_Fee_30_SmallSector_Ih_GetMgmtValue-_Fee_30_SmallSector_Ih_GetMgmtValue
00000208 01             5058 	.byte	1
00000209 00000000*      5059 	.word	.LDW73

                                                                      Page 97
                                                              C:\Users\nhuliyap\AppData\Local\Temp\gh_000091s1.s
0000020d 00             5060 	.byte	0
0000020e 00             5061 	.byte	0
0000020f 00             5062 	.byte	0
                        5063 .LDW_unq_1e:
                        5064 	.section	.debug_line
00000556 000502         5065 	.byte	0,5,2
00000559 00000000*      5066 	.word	_Fee_30_SmallSector_Ih_GetMgmtValue
0000055d 06             5067 	.byte	6
0000055e 03             5068 	.byte	3
0000055f a601           5069 	.byte	166,1
00000561 02             5070 	.byte	2
00000562 00             5071 	.byte	0
00000563 01             5072 	.byte	1
00000564 06             5073 	.byte	6
00000565 02             5074 	.byte	2
00000566 04             5075 	.byte	4
00000567 02             5076 	.byte	2
00000568 02             5077 	.byte	2
00000569 000101         5078 	.byte	0,1,1
                        5079 	.section	.debug_info
                        5080 .LDW_4c740f8:
0000136d 0f             5081 	.byte	15
0000136e 496e7374616e   5082 	.strz	"Instance"
00001374 636500 
00001377 a501           5083 	.byte	165,1
00001379 7f             5084 	.byte	127
0000137a 01             5085 	.byte	1
0000137b 00000000*      5086 	.word	.LDW_41fb6f0
0000137f 00             5087 	.byte	0
00001380 016e           5088 	.byte	1,110
                        5089 
                        5090 .LDW_4c899a8:
00001382 1d             5091 	.byte	29
00001383 00000000*      5092 	.word	.LDW63
00001387 00000000*      5093 	.word	.LDW73
                        5094 
0000138b 00             5095 	.byte	0
                        5096 
0000138c 00             5097 	.byte	0
                        5098 
                        5099 .LDW_4c8a090:
0000138d 14             5100 	.byte	20
0000138e 4665655f3330   5101 	.strz	"Fee_30_SmallSector_Ih_GetWP1State"
00001394 5f536d616c6c 
0000139a 536563746f72 
000013a0 5f49685f4765 
000013a6 745750315374 
000013ac 61746500 
000013b0 aa01           5102 	.byte	170,1
000013b2 4e             5103 	.byte	78
000013b3 01             5104 	.byte	1
000013b4 00000000*      5105 	.word	.LDW_4c74200
000013b8 00000000*      5106 	.word	_Fee_30_SmallSector_Ih_GetWP1State
000013bc 00000000*      5107 	.word	___ghs_eofn_Fee_30_SmallSector_Ih_GetWP1State
000013c0 0153           5108 	.byte	1,83
000013c2 02             5109 	.byte	2
000013c3 00             5110 	.byte	0
000013c4 02             5111 	.byte	2
000013c5 00             5112 	.byte	0
000013c6 00             5113 	.byte	0
000013c7 00             5114 	.byte	0

                                                                      Page 98
                                                              C:\Users\nhuliyap\AppData\Local\Temp\gh_000091s1.s
000013c8 00             5115 	.byte	0
000013c9 01             5116 	.byte	1
000013ca 01             5117 	.byte	1
000013cb 00             5118 	.byte	0
000013cc 01             5119 	.byte	1
                        5120 
                        5121 	.section	.debug_frame
                        5122 .LDW_4df0520:
00000210 00000000*      5123 	.word	.LDW_unq_20-.LDW_unq_1f
                        5124 .LDW_unq_1f:
00000214 00000000*      5125 	.word	.LDW_4d1fd60
00000218 00000000*      5126 	.word	_Fee_30_SmallSector_Ih_GetWP1State
0000021c 00000000*      5127 	.word	___ghs_eofn_Fee_30_SmallSector_Ih_GetWP1State-_Fee_30_SmallSector_Ih_GetWP1State
00000220 01             5128 	.byte	1
00000221 00000000*      5129 	.word	.LDW93
00000225 00             5130 	.byte	0
00000226 00             5131 	.byte	0
00000227 00             5132 	.byte	0
                        5133 .LDW_unq_20:
                        5134 	.section	.debug_line
0000056c 000502         5135 	.byte	0,5,2
0000056f 00000000*      5136 	.word	_Fee_30_SmallSector_Ih_GetWP1State
00000573 03             5137 	.byte	3
00000574 aa01           5138 	.byte	170,1
00000576 02             5139 	.byte	2
00000577 00             5140 	.byte	0
00000578 01             5141 	.byte	1
00000579 06             5142 	.byte	6
0000057a 13             5143 	.byte	19
0000057b 06             5144 	.byte	6
0000057c 02             5145 	.byte	2
0000057d 02             5146 	.byte	2
0000057e 02             5147 	.byte	2
0000057f 02             5148 	.byte	2
00000580 000101         5149 	.byte	0,1,1
                        5150 	.section	.debug_info
                        5151 .LDW_4c74150:
000013cd 0f             5152 	.byte	15
000013ce 496e7374616e   5153 	.strz	"Instance"
000013d4 636500 
000013d7 aa01           5154 	.byte	170,1
000013d9 9f01           5155 	.byte	159,1
000013db 01             5156 	.byte	1
000013dc 00000000*      5157 	.word	.LDW_41fb6f0
000013e0 00             5158 	.byte	0
000013e1 016e           5159 	.byte	1,110
                        5160 
                        5161 .LDW_4c89ca8:
000013e3 1d             5162 	.byte	29
000013e4 00000000*      5163 	.word	.LDW83
000013e8 00000000*      5164 	.word	.LDW93
                        5165 
000013ec 00             5166 	.byte	0
                        5167 
000013ed 00             5168 	.byte	0
                        5169 
                        5170 .LDW_4c8a128:
000013ee 14             5171 	.byte	20
000013ef 4665655f3330   5172 	.strz	"Fee_30_SmallSector_Ih_GetWP2State"
000013f5 5f536d616c6c 
000013fb 536563746f72 

                                                                      Page 99
                                                              C:\Users\nhuliyap\AppData\Local\Temp\gh_000091s1.s
00001401 5f49685f4765 
00001407 745750325374 
0000140d 61746500 
00001411 af01           5173 	.byte	175,1
00001413 4e             5174 	.byte	78
00001414 01             5175 	.byte	1
00001415 00000000*      5176 	.word	.LDW_4c74200
00001419 00000000*      5177 	.word	_Fee_30_SmallSector_Ih_GetWP2State
0000141d 00000000*      5178 	.word	___ghs_eofn_Fee_30_SmallSector_Ih_GetWP2State
00001421 0153           5179 	.byte	1,83
00001423 02             5180 	.byte	2
00001424 00             5181 	.byte	0
00001425 02             5182 	.byte	2
00001426 00             5183 	.byte	0
00001427 00             5184 	.byte	0
00001428 00             5185 	.byte	0
00001429 00             5186 	.byte	0
0000142a 01             5187 	.byte	1
0000142b 01             5188 	.byte	1
0000142c 00             5189 	.byte	0
0000142d 01             5190 	.byte	1
                        5191 
                        5192 	.section	.debug_frame
                        5193 .LDW_4df0860:
00000228 00000000*      5194 	.word	.LDW_unq_22-.LDW_unq_21
                        5195 .LDW_unq_21:
0000022c 00000000*      5196 	.word	.LDW_4d1fd60
00000230 00000000*      5197 	.word	_Fee_30_SmallSector_Ih_GetWP2State
00000234 00000000*      5198 	.word	___ghs_eofn_Fee_30_SmallSector_Ih_GetWP2State-_Fee_30_SmallSector_Ih_GetWP2State
00000238 01             5199 	.byte	1
00000239 00000000*      5200 	.word	.LDW14
0000023d 00             5201 	.byte	0
0000023e 00             5202 	.byte	0
0000023f 00             5203 	.byte	0
                        5204 .LDW_unq_22:
                        5205 	.section	.debug_line
00000583 000502         5206 	.byte	0,5,2
00000586 00000000*      5207 	.word	_Fee_30_SmallSector_Ih_GetWP2State
0000058a 03             5208 	.byte	3
0000058b af01           5209 	.byte	175,1
0000058d 02             5210 	.byte	2
0000058e 00             5211 	.byte	0
0000058f 01             5212 	.byte	1
00000590 06             5213 	.byte	6
00000591 13             5214 	.byte	19
00000592 06             5215 	.byte	6
00000593 02             5216 	.byte	2
00000594 02             5217 	.byte	2
00000595 02             5218 	.byte	2
00000596 02             5219 	.byte	2
00000597 000101         5220 	.byte	0,1,1
                        5221 	.section	.debug_info
                        5222 .LDW_4c74518:
0000142e 0f             5223 	.byte	15
0000142f 496e7374616e   5224 	.strz	"Instance"
00001435 636500 
00001438 af01           5225 	.byte	175,1
0000143a 9f01           5226 	.byte	159,1
0000143c 01             5227 	.byte	1
0000143d 00000000*      5228 	.word	.LDW_41fb6f0
00001441 00             5229 	.byte	0

                                                                      Page 100
                                                              C:\Users\nhuliyap\AppData\Local\Temp\gh_000091s1.s
00001442 016e           5230 	.byte	1,110
                        5231 
                        5232 .LDW_4c89cd8:
00001444 1d             5233 	.byte	29
00001445 00000000*      5234 	.word	.LDW04
00001449 00000000*      5235 	.word	.LDW14
                        5236 
0000144d 00             5237 	.byte	0
                        5238 
0000144e 00             5239 	.byte	0
                        5240 
                        5241 .LDW_4c8d220:
0000144f 14             5242 	.byte	20
00001450 4665655f3330   5243 	.strz	"Fee_30_SmallSector_Ih_GetLastPageState"
00001456 5f536d616c6c 
0000145c 536563746f72 
00001462 5f49685f4765 
00001468 744c61737450 
0000146e 616765537461 
00001474 746500 
00001477 b401           5244 	.byte	180,1
00001479 4e             5245 	.byte	78
0000147a 01             5246 	.byte	1
0000147b 00000000*      5247 	.word	.LDW_4c74200
0000147f 00000000*      5248 	.word	_Fee_30_SmallSector_Ih_GetLastPageState
00001483 00000000*      5249 	.word	___ghs_eofn_Fee_30_SmallSector_Ih_GetLastPageState
00001487 0153           5250 	.byte	1,83
00001489 02             5251 	.byte	2
0000148a 00             5252 	.byte	0
0000148b 02             5253 	.byte	2
0000148c 00             5254 	.byte	0
0000148d 00             5255 	.byte	0
0000148e 00             5256 	.byte	0
0000148f 00             5257 	.byte	0
00001490 01             5258 	.byte	1
00001491 01             5259 	.byte	1
00001492 00             5260 	.byte	0
00001493 01             5261 	.byte	1
                        5262 
                        5263 	.section	.debug_frame
                        5264 .LDW_4df03a0:
00000240 00000000*      5265 	.word	.LDW_unq_24-.LDW_unq_23
                        5266 .LDW_unq_23:
00000244 00000000*      5267 	.word	.LDW_4d1fd60
00000248 00000000*      5268 	.word	_Fee_30_SmallSector_Ih_GetLastPageState
0000024c 00000000*      5269 	.word	___ghs_eofn_Fee_30_SmallSector_Ih_GetLastPageState-_Fee_30_SmallSector_Ih_GetLastPageState
00000250 01             5270 	.byte	1
00000251 00000000*      5271 	.word	.LDW34
00000255 00             5272 	.byte	0
00000256 00             5273 	.byte	0
00000257 00             5274 	.byte	0
                        5275 .LDW_unq_24:
                        5276 	.section	.debug_line
0000059a 000502         5277 	.byte	0,5,2
0000059d 00000000*      5278 	.word	_Fee_30_SmallSector_Ih_GetLastPageState
000005a1 03             5279 	.byte	3
000005a2 b401           5280 	.byte	180,1
000005a4 02             5281 	.byte	2
000005a5 00             5282 	.byte	0
000005a6 01             5283 	.byte	1
000005a7 06             5284 	.byte	6

                                                                      Page 101
                                                              C:\Users\nhuliyap\AppData\Local\Temp\gh_000091s1.s
000005a8 13             5285 	.byte	19
000005a9 06             5286 	.byte	6
000005aa 02             5287 	.byte	2
000005ab 02             5288 	.byte	2
000005ac 02             5289 	.byte	2
000005ad 02             5290 	.byte	2
000005ae 000101         5291 	.byte	0,1,1
                        5292 	.section	.debug_info
                        5293 .LDW_4c73ee8:
00001494 0f             5294 	.byte	15
00001495 496e7374616e   5295 	.strz	"Instance"
0000149b 636500 
0000149e b401           5296 	.byte	180,1
000014a0 a401           5297 	.byte	164,1
000014a2 01             5298 	.byte	1
000014a3 00000000*      5299 	.word	.LDW_41fb6f0
000014a7 00             5300 	.byte	0
000014a8 016e           5301 	.byte	1,110
                        5302 
                        5303 .LDW_4c89dc8:
000014aa 1d             5304 	.byte	29
000014ab 00000000*      5305 	.word	.LDW24
000014af 00000000*      5306 	.word	.LDW34
                        5307 
000014b3 00             5308 	.byte	0
                        5309 
000014b4 00             5310 	.byte	0
                        5311 
                        5312 .LDW_4c8d350:
000014b5 13             5313 	.byte	19
000014b6 4665655f3330   5314 	.strz	"Fee_30_SmallSector_Ih_StoreMgmtValueFromBuffer"
000014bc 5f536d616c6c 
000014c2 536563746f72 
000014c8 5f49685f5374 
000014ce 6f72654d676d 
000014d4 7456616c7565 
000014da 46726f6d4275 
000014e0 6666657200 
000014e5 b901           5315 	.byte	185,1
000014e7 2c             5316 	.byte	44
000014e8 01             5317 	.byte	1
000014e9 00000000*      5318 	.word	_Fee_30_SmallSector_Ih_StoreMgmtValueFromBuffer
000014ed 00000000*      5319 	.word	___ghs_eofn_Fee_30_SmallSector_Ih_StoreMgmtValueFromBuffer
000014f1 0153           5320 	.byte	1,83
000014f3 828080800a     5321 	.byte	130,128,128,128,10
000014f8 08             5322 	.byte	8
000014f9 03             5323 	.byte	3
000014fa 08             5324 	.byte	8
000014fb 00             5325 	.byte	0
000014fc 00             5326 	.byte	0
000014fd 00             5327 	.byte	0
000014fe 01             5328 	.byte	1
000014ff 01             5329 	.byte	1
00001500 00             5330 	.byte	0
00001501 01             5331 	.byte	1
                        5332 
                        5333 	.section	.debug_frame
                        5334 .LDW_4defca0:
00000258 00000000*      5335 	.word	.LDW_unq_26-.LDW_unq_25
                        5336 .LDW_unq_25:
0000025c 00000000*      5337 	.word	.LDW_4d1fd60

                                                                      Page 102
                                                              C:\Users\nhuliyap\AppData\Local\Temp\gh_000091s1.s
00000260 00000000*      5338 	.word	_Fee_30_SmallSector_Ih_StoreMgmtValueFromBuffer
00000264 00000000*      5339 	.word	___ghs_eofn_Fee_30_SmallSector_Ih_StoreMgmtValueFromBuffer-_Fee_30_SmallSector_Ih_StoreMgmtValueFromBuffer
00000268 44             5340 	.byte	68
00000269 9f             5341 	.byte	159
0000026a 00             5342 	.byte	0
0000026b 40             5343 	.byte	64
0000026c 9d             5344 	.byte	157
0000026d 04             5345 	.byte	4
0000026e 01             5346 	.byte	1
0000026f 00000000*      5347 	.word	.LDW54
00000273 44             5348 	.byte	68
00000274 df             5349 	.byte	223
00000275 40             5350 	.byte	64
00000276 dd             5351 	.byte	221
00000277 00             5352 	.byte	0
                        5353 .LDW_unq_26:
                        5354 	.section	.debug_line
000005b1 000502         5355 	.byte	0,5,2
000005b4 00000000*      5356 	.word	_Fee_30_SmallSector_Ih_StoreMgmtValueFromBuffer
000005b8 03             5357 	.byte	3
000005b9 b901           5358 	.byte	185,1
000005bb 02             5359 	.byte	2
000005bc 00             5360 	.byte	0
000005bd 01             5361 	.byte	1
000005be 06             5362 	.byte	6
000005bf 24             5363 	.byte	36
000005c0 000502         5364 	.byte	0,5,2
000005c3 00000000*      5365 	.word	.LDWlin10
000005c7 0b             5366 	.byte	11
000005c8 02             5367 	.byte	2
000005c9 04             5368 	.byte	4
000005ca 000101         5369 	.byte	0,1,1
                        5370 	.section	.debug_info
                        5371 .LDW_4c74258:
00001502 0f             5372 	.byte	15
00001503 496e7374616e   5373 	.strz	"Instance"
00001509 636500 
0000150c b901           5374 	.byte	185,1
0000150e 8801           5375 	.byte	136,1
00001510 01             5376 	.byte	1
00001511 00000000*      5377 	.word	.LDW_41fb838
00001515 00             5378 	.byte	0
00001516 016d           5379 	.byte	1,109
                        5380 
                        5381 .LDW_4c89af8:
00001518 1d             5382 	.byte	29
00001519 00000000*      5383 	.word	.LDW44
0000151d 00000000*      5384 	.word	.LDW54
                        5385 
00001521 00             5386 	.byte	0
                        5387 
00001522 00             5388 	.byte	0
                        5389 
                        5390 .LDW_4c8d6e0:
00001523 13             5391 	.byte	19
00001524 4665655f3330   5392 	.strz	"Fee_30_SmallSector_Ih_SetInstanceStatus"
0000152a 5f536d616c6c 
00001530 536563746f72 
00001536 5f49685f5365 
0000153c 74496e737461 
00001542 6e6365537461 

                                                                      Page 103
                                                              C:\Users\nhuliyap\AppData\Local\Temp\gh_000091s1.s
00001548 74757300 
0000154c bf01           5393 	.byte	191,1
0000154e 2d             5394 	.byte	45
0000154f 01             5395 	.byte	1
00001550 00000000*      5396 	.word	_Fee_30_SmallSector_Ih_SetInstanceStatus
00001554 00000000*      5397 	.word	___ghs_eofn_Fee_30_SmallSector_Ih_SetInstanceStatus
00001558 0153           5398 	.byte	1,83
0000155a 02             5399 	.byte	2
0000155b 00             5400 	.byte	0
0000155c 02             5401 	.byte	2
0000155d 00             5402 	.byte	0
0000155e 00             5403 	.byte	0
0000155f 00             5404 	.byte	0
00001560 00             5405 	.byte	0
00001561 01             5406 	.byte	1
00001562 01             5407 	.byte	1
00001563 00             5408 	.byte	0
00001564 01             5409 	.byte	1
                        5410 
                        5411 	.section	.debug_frame
                        5412 .LDW_4defda0:
00000278 00000000*      5413 	.word	.LDW_unq_28-.LDW_unq_27
                        5414 .LDW_unq_27:
0000027c 00000000*      5415 	.word	.LDW_4d1fd60
00000280 00000000*      5416 	.word	_Fee_30_SmallSector_Ih_SetInstanceStatus
00000284 00000000*      5417 	.word	___ghs_eofn_Fee_30_SmallSector_Ih_SetInstanceStatus-_Fee_30_SmallSector_Ih_SetInstanceStatus
00000288 01             5418 	.byte	1
00000289 00000000*      5419 	.word	.LDW74
0000028d 00             5420 	.byte	0
0000028e 00             5421 	.byte	0
0000028f 00             5422 	.byte	0
                        5423 .LDW_unq_28:
                        5424 	.section	.debug_line
000005cd 000502         5425 	.byte	0,5,2
000005d0 00000000*      5426 	.word	_Fee_30_SmallSector_Ih_SetInstanceStatus
000005d4 03             5427 	.byte	3
000005d5 bf01           5428 	.byte	191,1
000005d7 02             5429 	.byte	2
000005d8 00             5430 	.byte	0
000005d9 01             5431 	.byte	1
000005da 06             5432 	.byte	6
000005db 13             5433 	.byte	19
000005dc 13             5434 	.byte	19
000005dd 02             5435 	.byte	2
000005de 02             5436 	.byte	2
000005df 000101         5437 	.byte	0,1,1
                        5438 	.section	.debug_info
                        5439 .LDW_4c743b8:
00001565 0f             5440 	.byte	15
00001566 496e7374616e   5441 	.strz	"Instance"
0000156c 636500 
0000156f bf01           5442 	.byte	191,1
00001571 8201           5443 	.byte	130,1
00001573 01             5444 	.byte	1
00001574 00000000*      5445 	.word	.LDW_41fb838
00001578 00             5446 	.byte	0
00001579 016e           5447 	.byte	1,110
                        5448 
                        5449 .LDW_4c74308:
0000157b 0f             5450 	.byte	15
0000157c 737461747573   5451 	.strz	"status"

                                                                      Page 104
                                                              C:\Users\nhuliyap\AppData\Local\Temp\gh_000091s1.s
00001582 00 
00001583 bf01           5452 	.byte	191,1
00001585 b501           5453 	.byte	181,1
00001587 01             5454 	.byte	1
00001588 00000000*      5455 	.word	.LDW_4c73ff0
0000158c 00             5456 	.byte	0
0000158d 0157           5457 	.byte	1,87
                        5458 
                        5459 .LDW_4c89d68:
0000158f 1d             5460 	.byte	29
00001590 00000000*      5461 	.word	.LDW64
00001594 00000000*      5462 	.word	.LDW74
                        5463 
00001598 00             5464 	.byte	0
                        5465 
00001599 00             5466 	.byte	0
                        5467 
                        5468 .LDW_4c8ccc8:
0000159a 13             5469 	.byte	19
0000159b 4665655f3330   5470 	.strz	"Fee_30_SmallSector_Ih_SetWP1State"
000015a1 5f536d616c6c 
000015a7 536563746f72 
000015ad 5f49685f5365 
000015b3 745750315374 
000015b9 61746500 
000015bd c401           5471 	.byte	196,1
000015bf 2d             5472 	.byte	45
000015c0 01             5473 	.byte	1
000015c1 00000000*      5474 	.word	_Fee_30_SmallSector_Ih_SetWP1State
000015c5 00000000*      5475 	.word	___ghs_eofn_Fee_30_SmallSector_Ih_SetWP1State
000015c9 0153           5476 	.byte	1,83
000015cb 02             5477 	.byte	2
000015cc 00             5478 	.byte	0
000015cd 02             5479 	.byte	2
000015ce 00             5480 	.byte	0
000015cf 00             5481 	.byte	0
000015d0 00             5482 	.byte	0
000015d1 00             5483 	.byte	0
000015d2 01             5484 	.byte	1
000015d3 01             5485 	.byte	1
000015d4 00             5486 	.byte	0
000015d5 01             5487 	.byte	1
                        5488 
                        5489 	.section	.debug_frame
                        5490 .LDW_4defc60:
00000290 00000000*      5491 	.word	.LDW_unq_2a-.LDW_unq_29
                        5492 .LDW_unq_29:
00000294 00000000*      5493 	.word	.LDW_4d1fd60
00000298 00000000*      5494 	.word	_Fee_30_SmallSector_Ih_SetWP1State
0000029c 00000000*      5495 	.word	___ghs_eofn_Fee_30_SmallSector_Ih_SetWP1State-_Fee_30_SmallSector_Ih_SetWP1State
000002a0 01             5496 	.byte	1
000002a1 00000000*      5497 	.word	.LDW94
000002a5 00             5498 	.byte	0
000002a6 00             5499 	.byte	0
000002a7 00             5500 	.byte	0
                        5501 .LDW_unq_2a:
                        5502 	.section	.debug_line
000005e2 000502         5503 	.byte	0,5,2
000005e5 00000000*      5504 	.word	_Fee_30_SmallSector_Ih_SetWP1State
000005e9 03             5505 	.byte	3
000005ea c401           5506 	.byte	196,1

                                                                      Page 105
                                                              C:\Users\nhuliyap\AppData\Local\Temp\gh_000091s1.s
000005ec 02             5507 	.byte	2
000005ed 00             5508 	.byte	0
000005ee 01             5509 	.byte	1
000005ef 06             5510 	.byte	6
000005f0 13             5511 	.byte	19
000005f1 13             5512 	.byte	19
000005f2 02             5513 	.byte	2
000005f3 02             5514 	.byte	2
000005f4 000101         5515 	.byte	0,1,1
                        5516 	.section	.debug_info
                        5517 .LDW_4c74360:
000015d6 0f             5518 	.byte	15
000015d7 496e7374616e   5519 	.strz	"Instance"
000015dd 636500 
000015e0 c401           5520 	.byte	196,1
000015e2 7c             5521 	.byte	124
000015e3 01             5522 	.byte	1
000015e4 00000000*      5523 	.word	.LDW_41fb838
000015e8 00             5524 	.byte	0
000015e9 016e           5525 	.byte	1,110
                        5526 
                        5527 .LDW_4c74410:
000015eb 0f             5528 	.byte	15
000015ec 737461746500   5529 	.strz	"state"
000015f2 c401           5530 	.byte	196,1
000015f4 ac01           5531 	.byte	172,1
000015f6 01             5532 	.byte	1
000015f7 00000000*      5533 	.word	.LDW_4c74200
000015fb 00             5534 	.byte	0
000015fc 0157           5535 	.byte	1,87
                        5536 
                        5537 .LDW_4c89b28:
000015fe 1d             5538 	.byte	29
000015ff 00000000*      5539 	.word	.LDW84
00001603 00000000*      5540 	.word	.LDW94
                        5541 
00001607 00             5542 	.byte	0
                        5543 
00001608 00             5544 	.byte	0
                        5545 
                        5546 .LDW_4c8cf28:
00001609 13             5547 	.byte	19
0000160a 4665655f3330   5548 	.strz	"Fee_30_SmallSector_Ih_SetWP2State"
00001610 5f536d616c6c 
00001616 536563746f72 
0000161c 5f49685f5365 
00001622 745750325374 
00001628 61746500 
0000162c c901           5549 	.byte	201,1
0000162e 2d             5550 	.byte	45
0000162f 01             5551 	.byte	1
00001630 00000000*      5552 	.word	_Fee_30_SmallSector_Ih_SetWP2State
00001634 00000000*      5553 	.word	___ghs_eofn_Fee_30_SmallSector_Ih_SetWP2State
00001638 0153           5554 	.byte	1,83
0000163a 02             5555 	.byte	2
0000163b 00             5556 	.byte	0
0000163c 02             5557 	.byte	2
0000163d 00             5558 	.byte	0
0000163e 00             5559 	.byte	0
0000163f 00             5560 	.byte	0
00001640 00             5561 	.byte	0

                                                                      Page 106
                                                              C:\Users\nhuliyap\AppData\Local\Temp\gh_000091s1.s
00001641 01             5562 	.byte	1
00001642 01             5563 	.byte	1
00001643 00             5564 	.byte	0
00001644 01             5565 	.byte	1
                        5566 
                        5567 	.section	.debug_frame
                        5568 .LDW_4df0120:
000002a8 00000000*      5569 	.word	.LDW_unq_2c-.LDW_unq_2b
                        5570 .LDW_unq_2b:
000002ac 00000000*      5571 	.word	.LDW_4d1fd60
000002b0 00000000*      5572 	.word	_Fee_30_SmallSector_Ih_SetWP2State
000002b4 00000000*      5573 	.word	___ghs_eofn_Fee_30_SmallSector_Ih_SetWP2State-_Fee_30_SmallSector_Ih_SetWP2State
000002b8 01             5574 	.byte	1
000002b9 00000000*      5575 	.word	.LDW15
000002bd 00             5576 	.byte	0
000002be 00             5577 	.byte	0
000002bf 00             5578 	.byte	0
                        5579 .LDW_unq_2c:
                        5580 	.section	.debug_line
000005f7 000502         5581 	.byte	0,5,2
000005fa 00000000*      5582 	.word	_Fee_30_SmallSector_Ih_SetWP2State
000005fe 03             5583 	.byte	3
000005ff c901           5584 	.byte	201,1
00000601 02             5585 	.byte	2
00000602 00             5586 	.byte	0
00000603 01             5587 	.byte	1
00000604 06             5588 	.byte	6
00000605 13             5589 	.byte	19
00000606 13             5590 	.byte	19
00000607 02             5591 	.byte	2
00000608 02             5592 	.byte	2
00000609 000101         5593 	.byte	0,1,1
                        5594 	.section	.debug_info
                        5595 .LDW_4c74570:
00001645 0f             5596 	.byte	15
00001646 496e7374616e   5597 	.strz	"Instance"
0000164c 636500 
0000164f c901           5598 	.byte	201,1
00001651 7c             5599 	.byte	124
00001652 01             5600 	.byte	1
00001653 00000000*      5601 	.word	.LDW_41fb838
00001657 00             5602 	.byte	0
00001658 016e           5603 	.byte	1,110
                        5604 
                        5605 .LDW_4c745c8:
0000165a 0f             5606 	.byte	15
0000165b 737461746500   5607 	.strz	"state"
00001661 c901           5608 	.byte	201,1
00001663 ac01           5609 	.byte	172,1
00001665 01             5610 	.byte	1
00001666 00000000*      5611 	.word	.LDW_4c74200
0000166a 00             5612 	.byte	0
0000166b 0157           5613 	.byte	1,87
                        5614 
                        5615 .LDW_4c89e28:
0000166d 1d             5616 	.byte	29
0000166e 00000000*      5617 	.word	.LDW05
00001672 00000000*      5618 	.word	.LDW15
                        5619 
00001676 00             5620 	.byte	0
                        5621 

                                                                      Page 107
                                                              C:\Users\nhuliyap\AppData\Local\Temp\gh_000091s1.s
00001677 00             5622 	.byte	0
                        5623 
                        5624 .LDW_4c8ca68:
00001678 13             5625 	.byte	19
00001679 4665655f3330   5626 	.strz	"Fee_30_SmallSector_Ih_SetLastPageState"
0000167f 5f536d616c6c 
00001685 536563746f72 
0000168b 5f49685f5365 
00001691 744c61737450 
00001697 616765537461 
0000169d 746500 
000016a0 ce01           5627 	.byte	206,1
000016a2 2d             5628 	.byte	45
000016a3 01             5629 	.byte	1
000016a4 00000000*      5630 	.word	_Fee_30_SmallSector_Ih_SetLastPageState
000016a8 00000000*      5631 	.word	___ghs_eofn_Fee_30_SmallSector_Ih_SetLastPageState
000016ac 0153           5632 	.byte	1,83
000016ae 02             5633 	.byte	2
000016af 00             5634 	.byte	0
000016b0 02             5635 	.byte	2
000016b1 00             5636 	.byte	0
000016b2 00             5637 	.byte	0
000016b3 00             5638 	.byte	0
000016b4 00             5639 	.byte	0
000016b5 01             5640 	.byte	1
000016b6 01             5641 	.byte	1
000016b7 00             5642 	.byte	0
000016b8 01             5643 	.byte	1
                        5644 
                        5645 	.section	.debug_frame
                        5646 .LDW_4deffa0:
000002c0 00000000*      5647 	.word	.LDW_unq_2e-.LDW_unq_2d
                        5648 .LDW_unq_2d:
000002c4 00000000*      5649 	.word	.LDW_4d1fd60
000002c8 00000000*      5650 	.word	_Fee_30_SmallSector_Ih_SetLastPageState
000002cc 00000000*      5651 	.word	___ghs_eofn_Fee_30_SmallSector_Ih_SetLastPageState-_Fee_30_SmallSector_Ih_SetLastPageState
000002d0 01             5652 	.byte	1
000002d1 00000000*      5653 	.word	.LDW35
000002d5 00             5654 	.byte	0
000002d6 00             5655 	.byte	0
000002d7 00             5656 	.byte	0
                        5657 .LDW_unq_2e:
                        5658 	.section	.debug_line
0000060c 000502         5659 	.byte	0,5,2
0000060f 00000000*      5660 	.word	_Fee_30_SmallSector_Ih_SetLastPageState
00000613 03             5661 	.byte	3
00000614 ce01           5662 	.byte	206,1
00000616 02             5663 	.byte	2
00000617 00             5664 	.byte	0
00000618 01             5665 	.byte	1
00000619 06             5666 	.byte	6
0000061a 13             5667 	.byte	19
0000061b 13             5668 	.byte	19
0000061c 02             5669 	.byte	2
0000061d 02             5670 	.byte	2
0000061e 000101         5671 	.byte	0,1,1
                        5672 	.section	.debug_info
                        5673 .LDW_4ca17a8:
000016b9 0f             5674 	.byte	15
000016ba 496e7374616e   5675 	.strz	"Instance"
000016c0 636500 

                                                                      Page 108
                                                              C:\Users\nhuliyap\AppData\Local\Temp\gh_000091s1.s
000016c3 ce01           5676 	.byte	206,1
000016c5 8101           5677 	.byte	129,1
000016c7 01             5678 	.byte	1
000016c8 00000000*      5679 	.word	.LDW_41fb838
000016cc 00             5680 	.byte	0
000016cd 016e           5681 	.byte	1,110
                        5682 
                        5683 .LDW_4ca1540:
000016cf 0f             5684 	.byte	15
000016d0 737461746500   5685 	.strz	"state"
000016d6 ce01           5686 	.byte	206,1
000016d8 b101           5687 	.byte	177,1
000016da 01             5688 	.byte	1
000016db 00000000*      5689 	.word	.LDW_4c74200
000016df 00             5690 	.byte	0
000016e0 0157           5691 	.byte	1,87
                        5692 
                        5693 .LDW_4c89f18:
000016e2 1d             5694 	.byte	29
000016e3 00000000*      5695 	.word	.LDW25
000016e7 00000000*      5696 	.word	.LDW35
                        5697 
000016eb 00             5698 	.byte	0
                        5699 
000016ec 00             5700 	.byte	0
                        5701 
                        5702 .LDW_4c8d480:
000016ed 13             5703 	.byte	19
000016ee 4665655f3330   5704 	.strz	"Fee_30_SmallSector_Ih_PrepareNextInstanceProperties"
000016f4 5f536d616c6c 
000016fa 536563746f72 
00001700 5f49685f5072 
00001706 65706172654e 
0000170c 657874496e73 
00001712 74616e636550 
00001718 726f70657274 
0000171e 69657300 
00001722 d301           5705 	.byte	211,1
00001724 2d             5706 	.byte	45
00001725 01             5707 	.byte	1
00001726 00000000*      5708 	.word	_Fee_30_SmallSector_Ih_PrepareNextInstanceProperties
0000172a 00000000*      5709 	.word	___ghs_eofn_Fee_30_SmallSector_Ih_PrepareNextInstanceProperties
0000172e 0153           5710 	.byte	1,83
00001730 828080800b     5711 	.byte	130,128,128,128,11
00001735 0c             5712 	.byte	12
00001736 03             5713 	.byte	3
00001737 0c             5714 	.byte	12
00001738 00             5715 	.byte	0
00001739 00             5716 	.byte	0
0000173a 00             5717 	.byte	0
0000173b 01             5718 	.byte	1
0000173c 01             5719 	.byte	1
0000173d 00             5720 	.byte	0
0000173e 01             5721 	.byte	1
                        5722 
                        5723 	.section	.debug_frame
                        5724 .LDW_4df0020:
000002d8 00000000*      5725 	.word	.LDW_unq_30-.LDW_unq_2f
                        5726 .LDW_unq_2f:
000002dc 00000000*      5727 	.word	.LDW_4d1fd60
000002e0 00000000*      5728 	.word	_Fee_30_SmallSector_Ih_PrepareNextInstanceProperties

                                                                      Page 109
                                                              C:\Users\nhuliyap\AppData\Local\Temp\gh_000091s1.s
000002e4 00000000*      5729 	.word	___ghs_eofn_Fee_30_SmallSector_Ih_PrepareNextInstanceProperties-_Fee_30_SmallSector_Ih_PrepareNextInstanceProperties
000002e8 44             5730 	.byte	68
000002e9 9f             5731 	.byte	159
000002ea 00             5732 	.byte	0
000002eb 40             5733 	.byte	64
000002ec 9d             5734 	.byte	157
000002ed 04             5735 	.byte	4
000002ee 40             5736 	.byte	64
000002ef 9c             5737 	.byte	156
000002f0 08             5738 	.byte	8
000002f1 01             5739 	.byte	1
000002f2 00000000*      5740 	.word	.LDW55
000002f6 44             5741 	.byte	68
000002f7 df             5742 	.byte	223
000002f8 40             5743 	.byte	64
000002f9 dd             5744 	.byte	221
000002fa 40             5745 	.byte	64
000002fb dc             5746 	.byte	220
                        5747 .LDW_unq_30:
                        5748 	.section	.debug_line
00000621 000502         5749 	.byte	0,5,2
00000624 00000000*      5750 	.word	_Fee_30_SmallSector_Ih_PrepareNextInstanceProperties
00000628 03             5751 	.byte	3
00000629 d401           5752 	.byte	212,1
0000062b 02             5753 	.byte	2
0000062c 00             5754 	.byte	0
0000062d 01             5755 	.byte	1
0000062e 06             5756 	.byte	6
0000062f 2c             5757 	.byte	44
00000630 1b             5758 	.byte	27
00000631 000502         5759 	.byte	0,5,2
00000634 00000000*      5760 	.word	.LDWlin11
00000638 0b             5761 	.byte	11
00000639 000502         5762 	.byte	0,5,2
0000063c 00000000*      5763 	.word	.LDWlin12
00000640 0c             5764 	.byte	12
00000641 000502         5765 	.byte	0,5,2
00000644 00000000*      5766 	.word	.LDWlin13
00000648 0b             5767 	.byte	11
00000649 13             5768 	.byte	19
0000064a 13             5769 	.byte	19
0000064b 13             5770 	.byte	19
0000064c 13             5771 	.byte	19
0000064d 02             5772 	.byte	2
0000064e 04             5773 	.byte	4
0000064f 000101         5774 	.byte	0,1,1
                        5775 	.section	.debug_info
                        5776 .LDW_4ca1598:
0000173f 0f             5777 	.byte	15
00001740 496e7374616e   5778 	.strz	"Instance"
00001746 636500 
00001749 d301           5779 	.byte	211,1
0000174b 8e01           5780 	.byte	142,1
0000174d 01             5781 	.byte	1
0000174e 00000000*      5782 	.word	.LDW_41fb838
00001752 00             5783 	.byte	0
00001753 016d           5784 	.byte	1,109
                        5785 
                        5786 .LDW_4ca1750:
00001755 0f             5787 	.byte	15
00001756 537461727441   5788 	.strz	"StartAddress"

                                                                      Page 110
                                                              C:\Users\nhuliyap\AppData\Local\Temp\gh_000091s1.s
0000175c 646472657373 
00001762 00 
00001763 d401           5789 	.byte	212,1
00001765 29             5790 	.byte	41
00001766 01             5791 	.byte	1
00001767 00000000*      5792 	.word	.LDW_41fb8e8
0000176b 00             5793 	.byte	0
0000176c 016c           5794 	.byte	1,108
                        5795 
                        5796 .LDW_4c89f48:
0000176e 1d             5797 	.byte	29
0000176f 00000000*      5798 	.word	.LDW45
00001773 00000000*      5799 	.word	.LDW55
                        5800 
00001777 00             5801 	.byte	0
                        5802 
00001778 00             5803 	.byte	0
                        5804 
                        5805 .LDW_4c8c808:
00001779 13             5806 	.byte	19
0000177a 4665655f3330   5807 	.strz	"Fee_30_SmallSector_Ih_SetManagementValuesAccordingToStatus"
00001780 5f536d616c6c 
00001786 536563746f72 
0000178c 5f49685f5365 
00001792 744d616e6167 
00001798 656d656e7456 
0000179e 616c75657341 
000017a4 63636f726469 
000017aa 6e67546f5374 
000017b0 6174757300 
000017b5 e201           5808 	.byte	226,1
000017b7 2d             5809 	.byte	45
000017b8 01             5810 	.byte	1
000017b9 00000000*      5811 	.word	_Fee_30_SmallSector_Ih_SetManagementValuesAccordingToStatus
000017bd 00000000*      5812 	.word	___ghs_eofn_Fee_30_SmallSector_Ih_SetManagementValuesAccordingToStatus
000017c1 0153           5813 	.byte	1,83
000017c3 8280808009     5814 	.byte	130,128,128,128,9
000017c8 08             5815 	.byte	8
000017c9 03             5816 	.byte	3
000017ca 08             5817 	.byte	8
000017cb 00             5818 	.byte	0
000017cc 00             5819 	.byte	0
000017cd 00             5820 	.byte	0
000017ce 01             5821 	.byte	1
000017cf 01             5822 	.byte	1
000017d0 00             5823 	.byte	0
000017d1 01             5824 	.byte	1
                        5825 
                        5826 	.section	.debug_frame
                        5827 .LDW_4defae0:
000002fc 00000000*      5828 	.word	.LDW_unq_32-.LDW_unq_31
                        5829 .LDW_unq_31:
00000300 00000000*      5830 	.word	.LDW_4d1fd60
00000304 00000000*      5831 	.word	_Fee_30_SmallSector_Ih_SetManagementValuesAccordingToStatus
00000308 00000000*      5832 	.word	___ghs_eofn_Fee_30_SmallSector_Ih_SetManagementValuesAccordingToStatus-_Fee_30_SmallSector_Ih_SetManagementValuesAccordingToStatus
0000030c 44             5833 	.byte	68
0000030d 9f             5834 	.byte	159
0000030e 00             5835 	.byte	0
0000030f 40             5836 	.byte	64
00000310 9c             5837 	.byte	156
00000311 04             5838 	.byte	4

                                                                      Page 111
                                                              C:\Users\nhuliyap\AppData\Local\Temp\gh_000091s1.s
00000312 01             5839 	.byte	1
00000313 00000000*      5840 	.word	.LDW75
00000317 44             5841 	.byte	68
00000318 df             5842 	.byte	223
00000319 40             5843 	.byte	64
0000031a dc             5844 	.byte	220
0000031b 00             5845 	.byte	0
                        5846 .LDW_unq_32:
                        5847 	.section	.debug_line
00000652 000502         5848 	.byte	0,5,2
00000655 00000000*      5849 	.word	_Fee_30_SmallSector_Ih_SetManagementValuesAccordingToStatus
00000659 03             5850 	.byte	3
0000065a e201           5851 	.byte	226,1
0000065c 02             5852 	.byte	2
0000065d 00             5853 	.byte	0
0000065e 01             5854 	.byte	1
0000065f 06             5855 	.byte	6
00000660 1c             5856 	.byte	28
00000661 000502         5857 	.byte	0,5,2
00000664 00000000*      5858 	.word	.LDWlin14
00000668 0b             5859 	.byte	11
00000669 0d             5860 	.byte	13
0000066a 0b             5861 	.byte	11
0000066b 0c             5862 	.byte	12
0000066c 1b             5863 	.byte	27
0000066d 02             5864 	.byte	2
0000066e 00             5865 	.byte	0
0000066f 0b             5866 	.byte	11
00000670 02             5867 	.byte	2
00000671 04             5868 	.byte	4
00000672 000101         5869 	.byte	0,1,1
                        5870 	.section	.debug_info
                        5871 .LDW_4ca14e8:
000017d2 0f             5872 	.byte	15
000017d3 496e7374616e   5873 	.strz	"Instance"
000017d9 636500 
000017dc e201           5874 	.byte	226,1
000017de 9501           5875 	.byte	149,1
000017e0 01             5876 	.byte	1
000017e1 00000000*      5877 	.word	.LDW_41fb838
000017e5 00             5878 	.byte	0
000017e6 016d           5879 	.byte	1,109
                        5880 
                        5881 .LDW_4c89ee8:
000017e8 1d             5882 	.byte	29
000017e9 00000000*      5883 	.word	.LDW65
000017ed 00000000*      5884 	.word	.LDW75
                        5885 
000017f1 00             5886 	.byte	0
                        5887 
000017f2 00             5888 	.byte	0
                        5889 
                        5890 .LDW_4c8c938:
000017f3 14             5891 	.byte	20
000017f4 4665655f3330   5892 	.strz	"Fee_30_SmallSector_Ih_SetNegativeJobResultAccordingToStatus"
000017fa 5f536d616c6c 
00001800 536563746f72 
00001806 5f49685f5365 
0000180c 744e65676174 
00001812 6976654a6f62 
00001818 526573756c74 

                                                                      Page 112
                                                              C:\Users\nhuliyap\AppData\Local\Temp\gh_000091s1.s
0000181e 4163636f7264 
00001824 696e67546f53 
0000182a 746174757300 
00001830 f001           5893 	.byte	240,1
00001832 3c             5894 	.byte	60
00001833 01             5895 	.byte	1
00001834 00000000*      5896 	.word	.LDW_4ca15f0
00001838 00000000*      5897 	.word	_Fee_30_SmallSector_Ih_SetNegativeJobResultAccordingToStatus
0000183c 00000000*      5898 	.word	___ghs_eofn_Fee_30_SmallSector_Ih_SetNegativeJobResultAccordingToStatus
00001840 0153           5899 	.byte	1,83
00001842 8280808008     5900 	.byte	130,128,128,128,8
00001847 04             5901 	.byte	4
00001848 03             5902 	.byte	3
00001849 04             5903 	.byte	4
0000184a 00             5904 	.byte	0
0000184b 00             5905 	.byte	0
0000184c 00             5906 	.byte	0
0000184d 01             5907 	.byte	1
0000184e 01             5908 	.byte	1
0000184f 00             5909 	.byte	0
00001850 01             5910 	.byte	1
                        5911 
                        5912 	.section	.debug_frame
                        5913 .LDW_4defba0:
0000031c 00000000*      5914 	.word	.LDW_unq_34-.LDW_unq_33
                        5915 .LDW_unq_33:
00000320 00000000*      5916 	.word	.LDW_4d1fd60
00000324 00000000*      5917 	.word	_Fee_30_SmallSector_Ih_SetNegativeJobResultAccordingToStatus
00000328 00000000*      5918 	.word	___ghs_eofn_Fee_30_SmallSector_Ih_SetNegativeJobResultAccordingToStatus-_Fee_30_SmallSector_Ih_SetNegativeJobResultAccordingToStatus
0000032c 44             5919 	.byte	68
0000032d 9f             5920 	.byte	159
0000032e 00             5921 	.byte	0
0000032f 01             5922 	.byte	1
00000330 00000000*      5923 	.word	.LDW95
                        5924 .LDW_unq_34:
                        5925 	.section	.debug_line
00000675 000502         5926 	.byte	0,5,2
00000678 00000000*      5927 	.word	_Fee_30_SmallSector_Ih_SetNegativeJobResultAccordingToStatus
0000067c 03             5928 	.byte	3
0000067d f001           5929 	.byte	240,1
0000067f 02             5930 	.byte	2
00000680 00             5931 	.byte	0
00000681 01             5932 	.byte	1
00000682 06             5933 	.byte	6
00000683 1d             5934 	.byte	29
00000684 000502         5935 	.byte	0,5,2
00000687 00000000*      5936 	.word	.LDWlin15
0000068b 03             5937 	.byte	3
0000068c 06             5938 	.byte	6
0000068d 02             5939 	.byte	2
0000068e 00             5940 	.byte	0
0000068f 01             5941 	.byte	1
00000690 0b             5942 	.byte	11
00000691 1b             5943 	.byte	27
00000692 000502         5944 	.byte	0,5,2
00000695 00000000*      5945 	.word	.LDWlin16
00000699 03             5946 	.byte	3
0000069a 7c             5947 	.byte	124
0000069b 02             5948 	.byte	2
0000069c 00             5949 	.byte	0
0000069d 01             5950 	.byte	1

                                                                      Page 113
                                                              C:\Users\nhuliyap\AppData\Local\Temp\gh_000091s1.s
0000069e 13             5951 	.byte	19
0000069f 03             5952 	.byte	3
000006a0 04             5953 	.byte	4
000006a1 02             5954 	.byte	2
000006a2 00             5955 	.byte	0
000006a3 01             5956 	.byte	1
000006a4 0c             5957 	.byte	12
000006a5 02             5958 	.byte	2
000006a6 04             5959 	.byte	4
000006a7 000101         5960 	.byte	0,1,1
                        5961 	.section	.debug_info
                        5962 .LDW_4ca1330:
00001851 0f             5963 	.byte	15
00001852 496e7374616e   5964 	.strz	"Instance"
00001858 636500 
0000185b f001           5965 	.byte	240,1
0000185d a701           5966 	.byte	167,1
0000185f 01             5967 	.byte	1
00001860 00000000*      5968 	.word	.LDW_41fb6f0
00001864 00             5969 	.byte	0
00001865 0156           5970 	.byte	1,86
                        5971 
                        5972 .LDW_4d4c358:
00001867 1d             5973 	.byte	29
00001868 00000000*      5974 	.word	.LDW85
0000186c 00000000*      5975 	.word	.LDW95
                        5976 
                        5977 .LDW_4ca16f8:
00001870 04             5978 	.byte	4
00001871 72657456616c   5979 	.strz	"retVal"
00001877 00 
00001878 f201           5980 	.byte	242,1
0000187a 17             5981 	.byte	23
0000187b 01             5982 	.byte	1
0000187c 00000000*      5983 	.word	.LDW_4ca15f0
00001880 00             5984 	.byte	0
00001881 00             5985 	.byte	0
00001882 015a           5986 	.byte	1,90
                        5987 
00001884 00             5988 	.byte	0
                        5989 
00001885 00             5990 	.byte	0
                        5991 
                        5992 .LDW_4c8c8a0:
00001886 13             5993 	.byte	19
00001887 4665655f3330   5994 	.strz	"Fee_30_SmallSector_Ih_DetermineInstanceStatus"
0000188d 5f536d616c6c 
00001893 536563746f72 
00001899 5f49685f4465 
0000189f 7465726d696e 
000018a5 65496e737461 
000018ab 6e6365537461 
000018b1 74757300 
000018b5 8202           5995 	.byte	130,2
000018b7 2d             5996 	.byte	45
000018b8 01             5997 	.byte	1
000018b9 00000000*      5998 	.word	_Fee_30_SmallSector_Ih_DetermineInstanceStatus
000018bd 00000000*      5999 	.word	___ghs_eofn_Fee_30_SmallSector_Ih_DetermineInstanceStatus
000018c1 0153           6000 	.byte	1,83
000018c3 828080f00b     6001 	.byte	130,128,128,240,11
000018c8 18             6002 	.byte	24

                                                                      Page 114
                                                              C:\Users\nhuliyap\AppData\Local\Temp\gh_000091s1.s
000018c9 03             6003 	.byte	3
000018ca 18             6004 	.byte	24
000018cb 00             6005 	.byte	0
000018cc 00             6006 	.byte	0
000018cd 00             6007 	.byte	0
000018ce 01             6008 	.byte	1
000018cf 01             6009 	.byte	1
000018d0 00             6010 	.byte	0
000018d1 01             6011 	.byte	1
                        6012 
                        6013 	.section	.debug_frame
                        6014 .LDW_4e62550:
00000334 00000000*      6015 	.word	.LDW_unq_36-.LDW_unq_35
                        6016 .LDW_unq_35:
00000338 00000000*      6017 	.word	.LDW_4d1fd60
0000033c 00000000*      6018 	.word	_Fee_30_SmallSector_Ih_DetermineInstanceStatus
00000340 00000000*      6019 	.word	___ghs_eofn_Fee_30_SmallSector_Ih_DetermineInstanceStatus-_Fee_30_SmallSector_Ih_DetermineInstanceStatus
00000344 44             6020 	.byte	68
00000345 9f             6021 	.byte	159
00000346 00             6022 	.byte	0
00000347 40             6023 	.byte	64
00000348 9d             6024 	.byte	157
00000349 04             6025 	.byte	4
0000034a 40             6026 	.byte	64
0000034b 9c             6027 	.byte	156
0000034c 08             6028 	.byte	8
0000034d 40             6029 	.byte	64
0000034e 9b             6030 	.byte	155
0000034f 0c             6031 	.byte	12
00000350 40             6032 	.byte	64
00000351 9a             6033 	.byte	154
00000352 10             6034 	.byte	16
00000353 40             6035 	.byte	64
00000354 99             6036 	.byte	153
00000355 14             6037 	.byte	20
00000356 01             6038 	.byte	1
00000357 00000000*      6039 	.word	.LDW16
0000035b 00             6040 	.byte	0
                        6041 .LDW_unq_36:
                        6042 	.section	.debug_line
000006aa 000502         6043 	.byte	0,5,2
000006ad 00000000*      6044 	.word	_Fee_30_SmallSector_Ih_DetermineInstanceStatus
000006b1 03             6045 	.byte	3
000006b2 8202           6046 	.byte	130,2
000006b4 02             6047 	.byte	2
000006b5 00             6048 	.byte	0
000006b6 01             6049 	.byte	1
000006b7 06             6050 	.byte	6
000006b8 1c             6051 	.byte	28
000006b9 000502         6052 	.byte	0,5,2
000006bc 00000000*      6053 	.word	.LDWlin17
000006c0 0b             6054 	.byte	11
000006c1 000502         6055 	.byte	0,5,2
000006c4 00000000*      6056 	.word	.LDWlin18
000006c8 0b             6057 	.byte	11
000006c9 000502         6058 	.byte	0,5,2
000006cc 00000000*      6059 	.word	.LDWlin19
000006d0 0b             6060 	.byte	11
000006d1 000502         6061 	.byte	0,5,2
000006d4 00000000*      6062 	.word	.LDWlin20
000006d8 0c             6063 	.byte	12

                                                                      Page 115
                                                              C:\Users\nhuliyap\AppData\Local\Temp\gh_000091s1.s
000006d9 000502         6064 	.byte	0,5,2
000006dc 00000000*      6065 	.word	.LDWlin21
000006e0 03             6066 	.byte	3
000006e1 04             6067 	.byte	4
000006e2 02             6068 	.byte	2
000006e3 00             6069 	.byte	0
000006e4 01             6070 	.byte	1
000006e5 0b             6071 	.byte	11
000006e6 000502         6072 	.byte	0,5,2
000006e9 00000000*      6073 	.word	.LDWlin22
000006ed 03             6074 	.byte	3
000006ee 1a             6075 	.byte	26
000006ef 02             6076 	.byte	2
000006f0 00             6077 	.byte	0
000006f1 01             6078 	.byte	1
000006f2 02             6079 	.byte	2
000006f3 00             6080 	.byte	0
000006f4 02             6081 	.byte	2
000006f5 00             6082 	.byte	0
000006f6 02             6083 	.byte	2
000006f7 00             6084 	.byte	0
000006f8 0c             6085 	.byte	12
000006f9 1b             6086 	.byte	27
000006fa 000502         6087 	.byte	0,5,2
000006fd 00000000*      6088 	.word	.LDWlin23
00000701 03             6089 	.byte	3
00000702 64             6090 	.byte	100
00000703 02             6091 	.byte	2
00000704 00             6092 	.byte	0
00000705 01             6093 	.byte	1
00000706 0c             6094 	.byte	12
00000707 02             6095 	.byte	2
00000708 00             6096 	.byte	0
00000709 000502         6097 	.byte	0,5,2
0000070c 00000000*      6098 	.word	.LDWlin24
00000710 0c             6099 	.byte	12
00000711 0c             6100 	.byte	12
00000712 000502         6101 	.byte	0,5,2
00000715 00000000*      6102 	.word	.LDWlin25
00000719 0c             6103 	.byte	12
0000071a 0b             6104 	.byte	11
0000071b 000502         6105 	.byte	0,5,2
0000071e 00000000*      6106 	.word	.LDWlin26
00000722 0b             6107 	.byte	11
00000723 0c             6108 	.byte	12
00000724 02             6109 	.byte	2
00000725 00             6110 	.byte	0
00000726 000502         6111 	.byte	0,5,2
00000729 00000000*      6112 	.word	.LDWlin27
0000072d 0b             6113 	.byte	11
0000072e 0b             6114 	.byte	11
0000072f 06             6115 	.byte	6
00000730 000502         6116 	.byte	0,5,2
00000733 00000000*      6117 	.word	.LDWlin28
00000737 03             6118 	.byte	3
00000738 04             6119 	.byte	4
00000739 02             6120 	.byte	2
0000073a 00             6121 	.byte	0
0000073b 01             6122 	.byte	1
0000073c 06             6123 	.byte	6
0000073d 0b             6124 	.byte	11

                                                                      Page 116
                                                              C:\Users\nhuliyap\AppData\Local\Temp\gh_000091s1.s
0000073e 02             6125 	.byte	2
0000073f 00             6126 	.byte	0
00000740 02             6127 	.byte	2
00000741 00             6128 	.byte	0
00000742 02             6129 	.byte	2
00000743 00             6130 	.byte	0
00000744 0c             6131 	.byte	12
00000745 0c             6132 	.byte	12
00000746 0b             6133 	.byte	11
00000747 02             6134 	.byte	2
00000748 04             6135 	.byte	4
00000749 000101         6136 	.byte	0,1,1
                        6137 	.section	.debug_info
                        6138 .LDW_4ca1388:
000018d2 0f             6139 	.byte	15
000018d3 496e7374616e   6140 	.strz	"Instance"
000018d9 636500 
000018dc 8202           6141 	.byte	130,2
000018de 8801           6142 	.byte	136,1
000018e0 01             6143 	.byte	1
000018e1 00000000*      6144 	.word	.LDW_41fb838
000018e5 00             6145 	.byte	0
000018e6 016d           6146 	.byte	1,109
                        6147 
                        6148 .LDW_4d4bf08:
000018e8 1d             6149 	.byte	29
000018e9 00000000*      6150 	.word	.LDW06
000018ed 00000000*      6151 	.word	.LDW16
                        6152 
                        6153 .LDW_4ca13e0:
000018f1 04             6154 	.byte	4
000018f2 737461747573   6155 	.strz	"status"
000018f8 00 
000018f9 8402           6156 	.byte	132,2
000018fb 2c             6157 	.byte	44
000018fc 01             6158 	.byte	1
000018fd 00000000*      6159 	.word	.LDW_4c73ff0
00001901 00             6160 	.byte	0
00001902 00             6161 	.byte	0
00001903 0162           6162 	.byte	1,98
                        6163 
                        6164 .LDW_4ca1438:
00001905 04             6165 	.byte	4
00001906 6d676d745661   6166 	.strz	"mgmtValue"
0000190c 6c756500 
00001910 8502           6167 	.byte	133,2
00001912 09             6168 	.byte	9
00001913 01             6169 	.byte	1
00001914 00000000*      6170 	.word	.LDW_422dc80
00001918 00             6171 	.byte	0
00001919 00             6172 	.byte	0
0000191a 016c           6173 	.byte	1,108
                        6174 
                        6175 .LDW_4ca1490:
0000191c 04             6176 	.byte	4
0000191d 777031537461   6177 	.strz	"wp1State"
00001923 746500 
00001926 8602           6178 	.byte	134,2
00001928 29             6179 	.byte	41
00001929 01             6180 	.byte	1
0000192a 00000000*      6181 	.word	.LDW_4c74200

                                                                      Page 117
                                                              C:\Users\nhuliyap\AppData\Local\Temp\gh_000091s1.s
0000192e 00             6182 	.byte	0
0000192f 00             6183 	.byte	0
00001930 016b           6184 	.byte	1,107
                        6185 
                        6186 .LDW_4ca1648:
00001932 04             6187 	.byte	4
00001933 777032537461   6188 	.strz	"wp2State"
00001939 746500 
0000193c 8702           6189 	.byte	135,2
0000193e 29             6190 	.byte	41
0000193f 01             6191 	.byte	1
00001940 00000000*      6192 	.word	.LDW_4c74200
00001944 00             6193 	.byte	0
00001945 00             6194 	.byte	0
00001946 016a           6195 	.byte	1,106
                        6196 
                        6197 .LDW_4ca16a0:
00001948 04             6198 	.byte	4
00001949 6c6173745061   6199 	.strz	"lastPageState"
0000194f 676553746174 
00001955 6500 
00001957 8802           6200 	.byte	136,2
00001959 29             6201 	.byte	41
0000195a 01             6202 	.byte	1
0000195b 00000000*      6203 	.word	.LDW_4c74200
0000195f 00             6204 	.byte	0
00001960 00             6205 	.byte	0
00001961 0169           6206 	.byte	1,105
                        6207 
00001963 00             6208 	.byte	0
                        6209 
00001964 00             6210 	.byte	0
                        6211 
                        6212 .LDW_4c8c9d0:
00001965 14             6213 	.byte	20
00001966 4665655f3330   6214 	.strz	"Fee_30_SmallSector_Ih_GetStartPatternFromBuffer"
0000196c 5f536d616c6c 
00001972 536563746f72 
00001978 5f49685f4765 
0000197e 745374617274 
00001984 506174746572 
0000198a 6e46726f6d42 
00001990 756666657200 
00001996 d302           6215 	.byte	211,2
00001998 4e             6216 	.byte	78
00001999 01             6217 	.byte	1
0000199a 00000000*      6218 	.word	.LDW_4c74200
0000199e 00000000*      6219 	.word	_Fee_30_SmallSector_Ih_GetStartPatternFromBuffer
000019a2 00000000*      6220 	.word	___ghs_eofn_Fee_30_SmallSector_Ih_GetStartPatternFromBuffer
000019a6 0153           6221 	.byte	1,83
000019a8 828080f00b     6222 	.byte	130,128,128,240,11
000019ad 18             6223 	.byte	24
000019ae 03             6224 	.byte	3
000019af 18             6225 	.byte	24
000019b0 00             6226 	.byte	0
000019b1 00             6227 	.byte	0
000019b2 00             6228 	.byte	0
000019b3 01             6229 	.byte	1
000019b4 01             6230 	.byte	1
000019b5 00             6231 	.byte	0
000019b6 01             6232 	.byte	1

                                                                      Page 118
                                                              C:\Users\nhuliyap\AppData\Local\Temp\gh_000091s1.s
                        6233 
                        6234 	.section	.debug_frame
                        6235 .LDW_4e62410:
0000035c 00000000*      6236 	.word	.LDW_unq_38-.LDW_unq_37
                        6237 .LDW_unq_37:
00000360 00000000*      6238 	.word	.LDW_4d1fd60
00000364 00000000*      6239 	.word	_Fee_30_SmallSector_Ih_GetStartPatternFromBuffer
00000368 00000000*      6240 	.word	___ghs_eofn_Fee_30_SmallSector_Ih_GetStartPatternFromBuffer-_Fee_30_SmallSector_Ih_GetStartPatternFromBuffer
0000036c 44             6241 	.byte	68
0000036d 9f             6242 	.byte	159
0000036e 00             6243 	.byte	0
0000036f 40             6244 	.byte	64
00000370 9d             6245 	.byte	157
00000371 04             6246 	.byte	4
00000372 40             6247 	.byte	64
00000373 9c             6248 	.byte	156
00000374 08             6249 	.byte	8
00000375 40             6250 	.byte	64
00000376 9b             6251 	.byte	155
00000377 0c             6252 	.byte	12
00000378 40             6253 	.byte	64
00000379 9a             6254 	.byte	154
0000037a 10             6255 	.byte	16
0000037b 40             6256 	.byte	64
0000037c 99             6257 	.byte	153
0000037d 14             6258 	.byte	20
0000037e 01             6259 	.byte	1
0000037f 00000000*      6260 	.word	.LDW36
00000383 00             6261 	.byte	0
                        6262 .LDW_unq_38:
                        6263 	.section	.debug_line
0000074c 000502         6264 	.byte	0,5,2
0000074f 00000000*      6265 	.word	_Fee_30_SmallSector_Ih_GetStartPatternFromBuffer
00000753 03             6266 	.byte	3
00000754 d302           6267 	.byte	211,2
00000756 02             6268 	.byte	2
00000757 00             6269 	.byte	0
00000758 01             6270 	.byte	1
00000759 06             6271 	.byte	6
0000075a 24             6272 	.byte	36
0000075b 13             6273 	.byte	19
0000075c 13             6274 	.byte	19
0000075d 14             6275 	.byte	20
0000075e 02             6276 	.byte	2
0000075f 02             6277 	.byte	2
00000760 000502         6278 	.byte	0,5,2
00000763 00000000*      6279 	.word	.LDWlin29
00000767 0d             6280 	.byte	13
00000768 000502         6281 	.byte	0,5,2
0000076b 00000000*      6282 	.word	.LDWlin30
0000076f 0b             6283 	.byte	11
00000770 0c             6284 	.byte	12
00000771 000502         6285 	.byte	0,5,2
00000774 00000000*      6286 	.word	.LDWlin31
00000778 0b             6287 	.byte	11
00000779 0c             6288 	.byte	12
0000077a 02             6289 	.byte	2
0000077b 00             6290 	.byte	0
0000077c 06             6291 	.byte	6
0000077d 000502         6292 	.byte	0,5,2
00000780 00000000*      6293 	.word	.LDWlin32

                                                                      Page 119
                                                              C:\Users\nhuliyap\AppData\Local\Temp\gh_000091s1.s
00000784 03             6294 	.byte	3
00000785 07             6295 	.byte	7
00000786 02             6296 	.byte	2
00000787 00             6297 	.byte	0
00000788 01             6298 	.byte	1
00000789 03             6299 	.byte	3
0000078a 7b             6300 	.byte	123
0000078b 02             6301 	.byte	2
0000078c 00             6302 	.byte	0
0000078d 01             6303 	.byte	1
0000078e 03             6304 	.byte	3
0000078f 7e             6305 	.byte	126
00000790 02             6306 	.byte	2
00000791 00             6307 	.byte	0
00000792 01             6308 	.byte	1
00000793 06             6309 	.byte	6
00000794 1d             6310 	.byte	29
00000795 000502         6311 	.byte	0,5,2
00000798 00000000*      6312 	.word	.LDWlin33
0000079c 03             6313 	.byte	3
0000079d 07             6314 	.byte	7
0000079e 02             6315 	.byte	2
0000079f 00             6316 	.byte	0
000007a0 01             6317 	.byte	1
000007a1 02             6318 	.byte	2
000007a2 00             6319 	.byte	0
000007a3 02             6320 	.byte	2
000007a4 00             6321 	.byte	0
000007a5 02             6322 	.byte	2
000007a6 00             6323 	.byte	0
000007a7 03             6324 	.byte	3
000007a8 6d             6325 	.byte	109
000007a9 02             6326 	.byte	2
000007aa 00             6327 	.byte	0
000007ab 01             6328 	.byte	1
000007ac 000502         6329 	.byte	0,5,2
000007af 00000000*      6330 	.word	.LDWlin34
000007b3 03             6331 	.byte	3
000007b4 14             6332 	.byte	20
000007b5 02             6333 	.byte	2
000007b6 00             6334 	.byte	0
000007b7 01             6335 	.byte	1
000007b8 0c             6336 	.byte	12
000007b9 000502         6337 	.byte	0,5,2
000007bc 00000000*      6338 	.word	.LDWlin35
000007c0 0d             6339 	.byte	13
000007c1 02             6340 	.byte	2
000007c2 00             6341 	.byte	0
000007c3 0c             6342 	.byte	12
000007c4 000502         6343 	.byte	0,5,2
000007c7 00000000*      6344 	.word	.LDWlin36
000007cb 0b             6345 	.byte	11
000007cc 0b             6346 	.byte	11
000007cd 06             6347 	.byte	6
000007ce 000502         6348 	.byte	0,5,2
000007d1 00000000*      6349 	.word	.LDWlin37
000007d5 03             6350 	.byte	3
000007d6 7b             6351 	.byte	123
000007d7 02             6352 	.byte	2
000007d8 00             6353 	.byte	0
000007d9 01             6354 	.byte	1

                                                                      Page 120
                                                              C:\Users\nhuliyap\AppData\Local\Temp\gh_000091s1.s
000007da 06             6355 	.byte	6
000007db 03             6356 	.byte	3
000007dc 06             6357 	.byte	6
000007dd 02             6358 	.byte	2
000007de 00             6359 	.byte	0
000007df 01             6360 	.byte	1
000007e0 0c             6361 	.byte	12
000007e1 13             6362 	.byte	19
000007e2 02             6363 	.byte	2
000007e3 00             6364 	.byte	0
000007e4 0c             6365 	.byte	12
000007e5 02             6366 	.byte	2
000007e6 00             6367 	.byte	0
000007e7 0c             6368 	.byte	12
000007e8 06             6369 	.byte	6
000007e9 02             6370 	.byte	2
000007ea 02             6371 	.byte	2
000007eb 02             6372 	.byte	2
000007ec 04             6373 	.byte	4
000007ed 000101         6374 	.byte	0,1,1
                        6375 	.section	.debug_info
                        6376 .LDW_4ca10c8:
000019b7 0f             6377 	.byte	15
000019b8 496e7374616e   6378 	.strz	"Instance"
000019be 636500 
000019c1 d302           6379 	.byte	211,2
000019c3 ad01           6380 	.byte	173,1
000019c5 01             6381 	.byte	1
000019c6 00000000*      6382 	.word	.LDW_41fb6f0
000019ca 00             6383 	.byte	0
000019cb 0169           6384 	.byte	1,105
                        6385 
                        6386 .LDW_4d4c268:
000019cd 1d             6387 	.byte	29
000019ce 00000000*      6388 	.word	.LDW26
000019d2 00000000*      6389 	.word	.LDW36
                        6390 
                        6391 .LDW_4ca0af0:
000019d6 04             6392 	.byte	4
000019d7 4c6f6f70436f   6393 	.strz	"LoopCounter"
000019dd 756e74657200 
000019e3 d502           6394 	.byte	213,2
000019e5 0a             6395 	.byte	10
000019e6 01             6396 	.byte	1
000019e7 00000000*      6397 	.word	.LDW_41fb940
000019eb 00             6398 	.byte	0
000019ec 00             6399 	.byte	0
000019ed 016d           6400 	.byte	1,109
                        6401 
                        6402 .LDW_4ca0938:
000019ef 04             6403 	.byte	4
000019f0 72657456616c   6404 	.strz	"retVal"
000019f6 00 
000019f7 d602           6405 	.byte	214,2
000019f9 29             6406 	.byte	41
000019fa 01             6407 	.byte	1
000019fb 00000000*      6408 	.word	.LDW_4c74200
000019ff 00             6409 	.byte	0
00001a00 00             6410 	.byte	0
00001a01 016c           6411 	.byte	1,108
                        6412 

                                                                      Page 121
                                                              C:\Users\nhuliyap\AppData\Local\Temp\gh_000091s1.s
                        6413 .LDW_4ca0a98:
00001a03 04             6414 	.byte	4
00001a04 697350617474   6415 	.strz	"isPatternValid"
00001a0a 65726e56616c 
00001a10 696400 
00001a13 d702           6416 	.byte	215,2
00001a15 0b             6417 	.byte	11
00001a16 01             6418 	.byte	1
00001a17 00000000*      6419 	.word	.LDW_422ef78
00001a1b 00             6420 	.byte	0
00001a1c 00             6421 	.byte	0
00001a1d 016b           6422 	.byte	1,107
                        6423 
                        6424 .LDW_4ca0b48:
00001a1f 04             6425 	.byte	4
00001a20 697350617474   6426 	.strz	"isPatternBlank"
00001a26 65726e426c61 
00001a2c 6e6b00 
00001a2f d802           6427 	.byte	216,2
00001a31 0b             6428 	.byte	11
00001a32 01             6429 	.byte	1
00001a33 00000000*      6430 	.word	.LDW_422ef78
00001a37 00             6431 	.byte	0
00001a38 00             6432 	.byte	0
00001a39 016a           6433 	.byte	1,106
                        6434 
00001a3b 00             6435 	.byte	0
                        6436 
00001a3c 00             6437 	.byte	0
                        6438 
                        6439 .LDW_4c8cb00:
00001a3d 14             6440 	.byte	20
00001a3e 4665655f3330   6441 	.strz	"Fee_30_SmallSector_Ih_GetEndPatternFromBuffer"
00001a44 5f536d616c6c 
00001a4a 536563746f72 
00001a50 5f49685f4765 
00001a56 74456e645061 
00001a5c 747465726e46 
00001a62 726f6d427566 
00001a68 66657200 
00001a6c 8203           6442 	.byte	130,3
00001a6e 4e             6443 	.byte	78
00001a6f 01             6444 	.byte	1
00001a70 00000000*      6445 	.word	.LDW_4c74200
00001a74 00000000*      6446 	.word	_Fee_30_SmallSector_Ih_GetEndPatternFromBuffer
00001a78 00000000*      6447 	.word	___ghs_eofn_Fee_30_SmallSector_Ih_GetEndPatternFromBuffer
00001a7c 0153           6448 	.byte	1,83
00001a7e 828080f00b     6449 	.byte	130,128,128,240,11
00001a83 18             6450 	.byte	24
00001a84 03             6451 	.byte	3
00001a85 18             6452 	.byte	24
00001a86 00             6453 	.byte	0
00001a87 00             6454 	.byte	0
00001a88 00             6455 	.byte	0
00001a89 01             6456 	.byte	1
00001a8a 01             6457 	.byte	1
00001a8b 00             6458 	.byte	0
00001a8c 01             6459 	.byte	1
                        6460 
                        6461 	.section	.debug_frame
                        6462 .LDW_4e62110:

                                                                      Page 122
                                                              C:\Users\nhuliyap\AppData\Local\Temp\gh_000091s1.s
00000384 00000000*      6463 	.word	.LDW_unq_3a-.LDW_unq_39
                        6464 .LDW_unq_39:
00000388 00000000*      6465 	.word	.LDW_4d1fd60
0000038c 00000000*      6466 	.word	_Fee_30_SmallSector_Ih_GetEndPatternFromBuffer
00000390 00000000*      6467 	.word	___ghs_eofn_Fee_30_SmallSector_Ih_GetEndPatternFromBuffer-_Fee_30_SmallSector_Ih_GetEndPatternFromBuffer
00000394 44             6468 	.byte	68
00000395 9f             6469 	.byte	159
00000396 00             6470 	.byte	0
00000397 40             6471 	.byte	64
00000398 9d             6472 	.byte	157
00000399 04             6473 	.byte	4
0000039a 40             6474 	.byte	64
0000039b 9c             6475 	.byte	156
0000039c 08             6476 	.byte	8
0000039d 40             6477 	.byte	64
0000039e 9b             6478 	.byte	155
0000039f 0c             6479 	.byte	12
000003a0 40             6480 	.byte	64
000003a1 9a             6481 	.byte	154
000003a2 10             6482 	.byte	16
000003a3 40             6483 	.byte	64
000003a4 99             6484 	.byte	153
000003a5 14             6485 	.byte	20
000003a6 01             6486 	.byte	1
000003a7 00000000*      6487 	.word	.LDW56
000003ab 00             6488 	.byte	0
                        6489 .LDW_unq_3a:
                        6490 	.section	.debug_line
000007f0 000502         6491 	.byte	0,5,2
000007f3 00000000*      6492 	.word	_Fee_30_SmallSector_Ih_GetEndPatternFromBuffer
000007f7 03             6493 	.byte	3
000007f8 8203           6494 	.byte	130,3
000007fa 02             6495 	.byte	2
000007fb 00             6496 	.byte	0
000007fc 01             6497 	.byte	1
000007fd 06             6498 	.byte	6
000007fe 24             6499 	.byte	36
000007ff 13             6500 	.byte	19
00000800 13             6501 	.byte	19
00000801 14             6502 	.byte	20
00000802 000502         6503 	.byte	0,5,2
00000805 00000000*      6504 	.word	.LDWlin38
00000809 02             6505 	.byte	2
0000080a 00             6506 	.byte	0
0000080b 000502         6507 	.byte	0,5,2
0000080e 00000000*      6508 	.word	.LDWlin39
00000812 0d             6509 	.byte	13
00000813 000502         6510 	.byte	0,5,2
00000816 00000000*      6511 	.word	.LDWlin40
0000081a 0b             6512 	.byte	11
0000081b 0c             6513 	.byte	12
0000081c 000502         6514 	.byte	0,5,2
0000081f 00000000*      6515 	.word	.LDWlin41
00000823 0b             6516 	.byte	11
00000824 0c             6517 	.byte	12
00000825 02             6518 	.byte	2
00000826 00             6519 	.byte	0
00000827 06             6520 	.byte	6
00000828 000502         6521 	.byte	0,5,2
0000082b 00000000*      6522 	.word	.LDWlin42
0000082f 03             6523 	.byte	3

                                                                      Page 123
                                                              C:\Users\nhuliyap\AppData\Local\Temp\gh_000091s1.s
00000830 07             6524 	.byte	7
00000831 02             6525 	.byte	2
00000832 00             6526 	.byte	0
00000833 01             6527 	.byte	1
00000834 03             6528 	.byte	3
00000835 7b             6529 	.byte	123
00000836 02             6530 	.byte	2
00000837 00             6531 	.byte	0
00000838 01             6532 	.byte	1
00000839 03             6533 	.byte	3
0000083a 7e             6534 	.byte	126
0000083b 02             6535 	.byte	2
0000083c 00             6536 	.byte	0
0000083d 01             6537 	.byte	1
0000083e 06             6538 	.byte	6
0000083f 1d             6539 	.byte	29
00000840 000502         6540 	.byte	0,5,2
00000843 00000000*      6541 	.word	.LDWlin43
00000847 03             6542 	.byte	3
00000848 07             6543 	.byte	7
00000849 02             6544 	.byte	2
0000084a 00             6545 	.byte	0
0000084b 01             6546 	.byte	1
0000084c 02             6547 	.byte	2
0000084d 00             6548 	.byte	0
0000084e 02             6549 	.byte	2
0000084f 00             6550 	.byte	0
00000850 02             6551 	.byte	2
00000851 00             6552 	.byte	0
00000852 03             6553 	.byte	3
00000853 6d             6554 	.byte	109
00000854 02             6555 	.byte	2
00000855 00             6556 	.byte	0
00000856 01             6557 	.byte	1
00000857 000502         6558 	.byte	0,5,2
0000085a 00000000*      6559 	.word	.LDWlin44
0000085e 03             6560 	.byte	3
0000085f 14             6561 	.byte	20
00000860 02             6562 	.byte	2
00000861 00             6563 	.byte	0
00000862 01             6564 	.byte	1
00000863 0c             6565 	.byte	12
00000864 000502         6566 	.byte	0,5,2
00000867 00000000*      6567 	.word	.LDWlin45
0000086b 0d             6568 	.byte	13
0000086c 02             6569 	.byte	2
0000086d 00             6570 	.byte	0
0000086e 0c             6571 	.byte	12
0000086f 000502         6572 	.byte	0,5,2
00000872 00000000*      6573 	.word	.LDWlin46
00000876 0b             6574 	.byte	11
00000877 0b             6575 	.byte	11
00000878 06             6576 	.byte	6
00000879 000502         6577 	.byte	0,5,2
0000087c 00000000*      6578 	.word	.LDWlin47
00000880 03             6579 	.byte	3
00000881 7b             6580 	.byte	123
00000882 02             6581 	.byte	2
00000883 00             6582 	.byte	0
00000884 01             6583 	.byte	1
00000885 06             6584 	.byte	6

                                                                      Page 124
                                                              C:\Users\nhuliyap\AppData\Local\Temp\gh_000091s1.s
00000886 03             6585 	.byte	3
00000887 06             6586 	.byte	6
00000888 02             6587 	.byte	2
00000889 00             6588 	.byte	0
0000088a 01             6589 	.byte	1
0000088b 0c             6590 	.byte	12
0000088c 13             6591 	.byte	19
0000088d 02             6592 	.byte	2
0000088e 00             6593 	.byte	0
0000088f 0c             6594 	.byte	12
00000890 02             6595 	.byte	2
00000891 00             6596 	.byte	0
00000892 0c             6597 	.byte	12
00000893 06             6598 	.byte	6
00000894 02             6599 	.byte	2
00000895 02             6600 	.byte	2
00000896 02             6601 	.byte	2
00000897 04             6602 	.byte	4
00000898 000101         6603 	.byte	0,1,1
                        6604 	.section	.debug_info
                        6605 .LDW_4ca0830:
00001a8d 0f             6606 	.byte	15
00001a8e 496e7374616e   6607 	.strz	"Instance"
00001a94 636500 
00001a97 8203           6608 	.byte	130,3
00001a99 ab01           6609 	.byte	171,1
00001a9b 01             6610 	.byte	1
00001a9c 00000000*      6611 	.word	.LDW_41fb6f0
00001aa0 00             6612 	.byte	0
00001aa1 0169           6613 	.byte	1,105
                        6614 
                        6615 .LDW_4d4c298:
00001aa3 1d             6616 	.byte	29
00001aa4 00000000*      6617 	.word	.LDW46
00001aa8 00000000*      6618 	.word	.LDW56
                        6619 
                        6620 .LDW_4ca0c50:
00001aac 04             6621 	.byte	4
00001aad 4c6f6f70436f   6622 	.strz	"LoopCounter"
00001ab3 756e74657200 
00001ab9 8403           6623 	.byte	132,3
00001abb 0a             6624 	.byte	10
00001abc 01             6625 	.byte	1
00001abd 00000000*      6626 	.word	.LDW_41fb940
00001ac1 00             6627 	.byte	0
00001ac2 00             6628 	.byte	0
00001ac3 016d           6629 	.byte	1,109
                        6630 
                        6631 .LDW_4ca0f10:
00001ac5 04             6632 	.byte	4
00001ac6 72657456616c   6633 	.strz	"retVal"
00001acc 00 
00001acd 8503           6634 	.byte	133,3
00001acf 29             6635 	.byte	41
00001ad0 01             6636 	.byte	1
00001ad1 00000000*      6637 	.word	.LDW_4c74200
00001ad5 00             6638 	.byte	0
00001ad6 00             6639 	.byte	0
00001ad7 016c           6640 	.byte	1,108
                        6641 
                        6642 .LDW_4ca0990:

                                                                      Page 125
                                                              C:\Users\nhuliyap\AppData\Local\Temp\gh_000091s1.s
00001ad9 04             6643 	.byte	4
00001ada 697350617474   6644 	.strz	"isPatternValid"
00001ae0 65726e56616c 
00001ae6 696400 
00001ae9 8603           6645 	.byte	134,3
00001aeb 0b             6646 	.byte	11
00001aec 01             6647 	.byte	1
00001aed 00000000*      6648 	.word	.LDW_422ef78
00001af1 00             6649 	.byte	0
00001af2 00             6650 	.byte	0
00001af3 016b           6651 	.byte	1,107
                        6652 
                        6653 .LDW_4ca0888:
00001af5 04             6654 	.byte	4
00001af6 697350617474   6655 	.strz	"isPatternBlank"
00001afc 65726e426c61 
00001b02 6e6b00 
00001b05 8703           6656 	.byte	135,3
00001b07 0b             6657 	.byte	11
00001b08 01             6658 	.byte	1
00001b09 00000000*      6659 	.word	.LDW_422ef78
00001b0d 00             6660 	.byte	0
00001b0e 00             6661 	.byte	0
00001b0f 016a           6662 	.byte	1,106
                        6663 
00001b11 00             6664 	.byte	0
                        6665 
00001b12 00             6666 	.byte	0
                        6667 
                        6668 .LDW_4c8d2b8:
00001b13 14             6669 	.byte	20
00001b14 4665655f3330   6670 	.strz	"Fee_30_SmallSector_Ih_GetPageStatusFromBuffer"
00001b1a 5f536d616c6c 
00001b20 536563746f72 
00001b26 5f49685f4765 
00001b2c 745061676553 
00001b32 746174757346 
00001b38 726f6d427566 
00001b3e 66657200 
00001b42 b103           6671 	.byte	177,3
00001b44 4e             6672 	.byte	78
00001b45 01             6673 	.byte	1
00001b46 00000000*      6674 	.word	.LDW_4c74200
00001b4a 00000000*      6675 	.word	_Fee_30_SmallSector_Ih_GetPageStatusFromBuffer
00001b4e 00000000*      6676 	.word	___ghs_eofn_Fee_30_SmallSector_Ih_GetPageStatusFromBuffer
00001b52 0153           6677 	.byte	1,83
00001b54 828080c00b     6678 	.byte	130,128,128,192,11
00001b59 10             6679 	.byte	16
00001b5a 03             6680 	.byte	3
00001b5b 10             6681 	.byte	16
00001b5c 00             6682 	.byte	0
00001b5d 00             6683 	.byte	0
00001b5e 00             6684 	.byte	0
00001b5f 01             6685 	.byte	1
00001b60 01             6686 	.byte	1
00001b61 00             6687 	.byte	0
00001b62 01             6688 	.byte	1
                        6689 
                        6690 	.section	.debug_frame
                        6691 .LDW_4e62490:
000003ac 00000000*      6692 	.word	.LDW_unq_3c-.LDW_unq_3b

                                                                      Page 126
                                                              C:\Users\nhuliyap\AppData\Local\Temp\gh_000091s1.s
                        6693 .LDW_unq_3b:
000003b0 00000000*      6694 	.word	.LDW_4d1fd60
000003b4 00000000*      6695 	.word	_Fee_30_SmallSector_Ih_GetPageStatusFromBuffer
000003b8 00000000*      6696 	.word	___ghs_eofn_Fee_30_SmallSector_Ih_GetPageStatusFromBuffer-_Fee_30_SmallSector_Ih_GetPageStatusFromBuffer
000003bc 44             6697 	.byte	68
000003bd 9f             6698 	.byte	159
000003be 00             6699 	.byte	0
000003bf 40             6700 	.byte	64
000003c0 9d             6701 	.byte	157
000003c1 04             6702 	.byte	4
000003c2 40             6703 	.byte	64
000003c3 9c             6704 	.byte	156
000003c4 08             6705 	.byte	8
000003c5 40             6706 	.byte	64
000003c6 9b             6707 	.byte	155
000003c7 0c             6708 	.byte	12
000003c8 01             6709 	.byte	1
000003c9 00000000*      6710 	.word	.LDW76
000003cd 00             6711 	.byte	0
000003ce 00             6712 	.byte	0
000003cf 00             6713 	.byte	0
                        6714 .LDW_unq_3c:
                        6715 	.section	.debug_line
0000089b 000502         6716 	.byte	0,5,2
0000089e 00000000*      6717 	.word	_Fee_30_SmallSector_Ih_GetPageStatusFromBuffer
000008a2 03             6718 	.byte	3
000008a3 b003           6719 	.byte	176,3
000008a5 02             6720 	.byte	2
000008a6 00             6721 	.byte	0
000008a7 01             6722 	.byte	1
000008a8 06             6723 	.byte	6
000008a9 1c             6724 	.byte	28
000008aa 14             6725 	.byte	20
000008ab 02             6726 	.byte	2
000008ac 02             6727 	.byte	2
000008ad 000502         6728 	.byte	0,5,2
000008b0 00000000*      6729 	.word	.LDWlin48
000008b4 0d             6730 	.byte	13
000008b5 000502         6731 	.byte	0,5,2
000008b8 00000000*      6732 	.word	.LDWlin49
000008bc 0b             6733 	.byte	11
000008bd 0c             6734 	.byte	12
000008be 000502         6735 	.byte	0,5,2
000008c1 00000000*      6736 	.word	.LDWlin50
000008c5 0b             6737 	.byte	11
000008c6 02             6738 	.byte	2
000008c7 00             6739 	.byte	0
000008c8 03             6740 	.byte	3
000008c9 79             6741 	.byte	121
000008ca 02             6742 	.byte	2
000008cb 00             6743 	.byte	0
000008cc 01             6744 	.byte	1
000008cd 000502         6745 	.byte	0,5,2
000008d0 00000000*      6746 	.word	.LDWlin51
000008d4 03             6747 	.byte	3
000008d5 08             6748 	.byte	8
000008d6 02             6749 	.byte	2
000008d7 00             6750 	.byte	0
000008d8 01             6751 	.byte	1
000008d9 0c             6752 	.byte	12
000008da 06             6753 	.byte	6

                                                                      Page 127
                                                              C:\Users\nhuliyap\AppData\Local\Temp\gh_000091s1.s
000008db 02             6754 	.byte	2
000008dc 02             6755 	.byte	2
000008dd 02             6756 	.byte	2
000008de 04             6757 	.byte	4
000008df 000101         6758 	.byte	0,1,1
                        6759 	.section	.debug_info
                        6760 .LDW_4d4bf38:
00001b63 1d             6761 	.byte	29
00001b64 00000000*      6762 	.word	.LDW66
00001b68 00000000*      6763 	.word	.LDW76
                        6764 
                        6765 .LDW_4ca0d58:
00001b6c 04             6766 	.byte	4
00001b6d 4c6f6f70436f   6767 	.strz	"LoopCounter"
00001b73 756e74657200 
00001b79 b203           6768 	.byte	178,3
00001b7b 0a             6769 	.byte	10
00001b7c 01             6770 	.byte	1
00001b7d 00000000*      6771 	.word	.LDW_41fb940
00001b81 00             6772 	.byte	0
00001b82 00             6773 	.byte	0
00001b83 016d           6774 	.byte	1,109
                        6775 
                        6776 .LDW_4ca0d00:
00001b85 04             6777 	.byte	4
00001b86 72657456616c   6778 	.strz	"retVal"
00001b8c 00 
00001b8d b303           6779 	.byte	179,3
00001b8f 29             6780 	.byte	41
00001b90 01             6781 	.byte	1
00001b91 00000000*      6782 	.word	.LDW_4c74200
00001b95 00             6783 	.byte	0
00001b96 00             6784 	.byte	0
00001b97 016b           6785 	.byte	1,107
                        6786 
00001b99 00             6787 	.byte	0
                        6788 
00001b9a 00             6789 	.byte	0
                        6790 
                        6791 .LDW_4c8cc30:
00001b9b 14             6792 	.byte	20
00001b9c 4665655f3330   6793 	.strz	"Fee_30_SmallSector_Ih_BlankCheckStartPattern"
00001ba2 5f536d616c6c 
00001ba8 536563746f72 
00001bae 5f49685f426c 
00001bb4 616e6b436865 
00001bba 636b53746172 
00001bc0 745061747465 
00001bc6 726e00 
00001bc9 c203           6794 	.byte	194,3
00001bcb 37             6795 	.byte	55
00001bcc 01             6796 	.byte	1
00001bcd 00000000*      6797 	.word	.LDW_4ca0ca8
00001bd1 00000000*      6798 	.word	_Fee_30_SmallSector_Ih_BlankCheckStartPattern
00001bd5 00000000*      6799 	.word	___ghs_eofn_Fee_30_SmallSector_Ih_BlankCheckStartPattern
00001bd9 0153           6800 	.byte	1,83
00001bdb 828080800a     6801 	.byte	130,128,128,128,10
00001be0 08             6802 	.byte	8
00001be1 03             6803 	.byte	3
00001be2 08             6804 	.byte	8
00001be3 00             6805 	.byte	0

                                                                      Page 128
                                                              C:\Users\nhuliyap\AppData\Local\Temp\gh_000091s1.s
00001be4 00             6806 	.byte	0
00001be5 00             6807 	.byte	0
00001be6 01             6808 	.byte	1
00001be7 01             6809 	.byte	1
00001be8 00             6810 	.byte	0
00001be9 01             6811 	.byte	1
                        6812 
                        6813 	.section	.debug_frame
                        6814 .LDW_4e61e50:
000003d0 00000000*      6815 	.word	.LDW_unq_3e-.LDW_unq_3d
                        6816 .LDW_unq_3d:
000003d4 00000000*      6817 	.word	.LDW_4d1fd60
000003d8 00000000*      6818 	.word	_Fee_30_SmallSector_Ih_BlankCheckStartPattern
000003dc 00000000*      6819 	.word	___ghs_eofn_Fee_30_SmallSector_Ih_BlankCheckStartPattern-_Fee_30_SmallSector_Ih_BlankCheckStartPattern
000003e0 44             6820 	.byte	68
000003e1 9f             6821 	.byte	159
000003e2 00             6822 	.byte	0
000003e3 40             6823 	.byte	64
000003e4 9d             6824 	.byte	157
000003e5 04             6825 	.byte	4
000003e6 01             6826 	.byte	1
000003e7 00000000*      6827 	.word	.LDW96
000003eb 44             6828 	.byte	68
000003ec df             6829 	.byte	223
000003ed 40             6830 	.byte	64
000003ee dd             6831 	.byte	221
000003ef 00             6832 	.byte	0
                        6833 .LDW_unq_3e:
                        6834 	.section	.debug_line
000008e2 000502         6835 	.byte	0,5,2
000008e5 00000000*      6836 	.word	_Fee_30_SmallSector_Ih_BlankCheckStartPattern
000008e9 03             6837 	.byte	3
000008ea c203           6838 	.byte	194,3
000008ec 02             6839 	.byte	2
000008ed 00             6840 	.byte	0
000008ee 01             6841 	.byte	1
000008ef 06             6842 	.byte	6
000008f0 23             6843 	.byte	35
000008f1 06             6844 	.byte	6
000008f2 000502         6845 	.byte	0,5,2
000008f5 00000000*      6846 	.word	.LDWlin52
000008f9 02             6847 	.byte	2
000008fa 00             6848 	.byte	0
000008fb 02             6849 	.byte	2
000008fc 04             6850 	.byte	4
000008fd 000101         6851 	.byte	0,1,1
                        6852 	.section	.debug_info
                        6853 .LDW_4ca1178:
00001bea 0f             6854 	.byte	15
00001beb 496e7374616e   6855 	.strz	"Instance"
00001bf1 636500 
00001bf4 c203           6856 	.byte	194,3
00001bf6 9301           6857 	.byte	147,1
00001bf8 01             6858 	.byte	1
00001bf9 00000000*      6859 	.word	.LDW_41fb6f0
00001bfd 00             6860 	.byte	0
00001bfe 016d           6861 	.byte	1,109
                        6862 
                        6863 .LDW_4d4bf68:
00001c00 1d             6864 	.byte	29
00001c01 00000000*      6865 	.word	.LDW86

                                                                      Page 129
                                                              C:\Users\nhuliyap\AppData\Local\Temp\gh_000091s1.s
00001c05 00000000*      6866 	.word	.LDW96
                        6867 
00001c09 00             6868 	.byte	0
                        6869 
00001c0a 00             6870 	.byte	0
                        6871 
                        6872 .LDW_4c8d0f0:
00001c0b 14             6873 	.byte	20
00001c0c 4665655f3330   6874 	.strz	"Fee_30_SmallSector_Ih_BlankCheckEndPattern"
00001c12 5f536d616c6c 
00001c18 536563746f72 
00001c1e 5f49685f426c 
00001c24 616e6b436865 
00001c2a 636b456e6450 
00001c30 61747465726e 
00001c36 00 
00001c37 c703           6875 	.byte	199,3
00001c39 37             6876 	.byte	55
00001c3a 01             6877 	.byte	1
00001c3b 00000000*      6878 	.word	.LDW_4ca0ca8
00001c3f 00000000*      6879 	.word	_Fee_30_SmallSector_Ih_BlankCheckEndPattern
00001c43 00000000*      6880 	.word	___ghs_eofn_Fee_30_SmallSector_Ih_BlankCheckEndPattern
00001c47 0153           6881 	.byte	1,83
00001c49 828080800a     6882 	.byte	130,128,128,128,10
00001c4e 08             6883 	.byte	8
00001c4f 03             6884 	.byte	3
00001c50 08             6885 	.byte	8
00001c51 00             6886 	.byte	0
00001c52 00             6887 	.byte	0
00001c53 00             6888 	.byte	0
00001c54 01             6889 	.byte	1
00001c55 01             6890 	.byte	1
00001c56 00             6891 	.byte	0
00001c57 01             6892 	.byte	1
                        6893 
                        6894 	.section	.debug_frame
                        6895 .LDW_4e62090:
000003f0 00000000*      6896 	.word	.LDW_unq_40-.LDW_unq_3f
                        6897 .LDW_unq_3f:
000003f4 00000000*      6898 	.word	.LDW_4d1fd60
000003f8 00000000*      6899 	.word	_Fee_30_SmallSector_Ih_BlankCheckEndPattern
000003fc 00000000*      6900 	.word	___ghs_eofn_Fee_30_SmallSector_Ih_BlankCheckEndPattern-_Fee_30_SmallSector_Ih_BlankCheckEndPattern
00000400 44             6901 	.byte	68
00000401 9f             6902 	.byte	159
00000402 00             6903 	.byte	0
00000403 40             6904 	.byte	64
00000404 9d             6905 	.byte	157
00000405 04             6906 	.byte	4
00000406 01             6907 	.byte	1
00000407 00000000*      6908 	.word	.LDW17
0000040b 44             6909 	.byte	68
0000040c df             6910 	.byte	223
0000040d 40             6911 	.byte	64
0000040e dd             6912 	.byte	221
0000040f 00             6913 	.byte	0
                        6914 .LDW_unq_40:
                        6915 	.section	.debug_line
00000900 000502         6916 	.byte	0,5,2
00000903 00000000*      6917 	.word	_Fee_30_SmallSector_Ih_BlankCheckEndPattern
00000907 03             6918 	.byte	3
00000908 c703           6919 	.byte	199,3

                                                                      Page 130
                                                              C:\Users\nhuliyap\AppData\Local\Temp\gh_000091s1.s
0000090a 02             6920 	.byte	2
0000090b 00             6921 	.byte	0
0000090c 01             6922 	.byte	1
0000090d 06             6923 	.byte	6
0000090e 23             6924 	.byte	35
0000090f 06             6925 	.byte	6
00000910 000502         6926 	.byte	0,5,2
00000913 00000000*      6927 	.word	.LDWlin53
00000917 02             6928 	.byte	2
00000918 00             6929 	.byte	0
00000919 02             6930 	.byte	2
0000091a 04             6931 	.byte	4
0000091b 000101         6932 	.byte	0,1,1
                        6933 	.section	.debug_info
                        6934 .LDW_4ca0bf8:
00001c58 0f             6935 	.byte	15
00001c59 496e7374616e   6936 	.strz	"Instance"
00001c5f 636500 
00001c62 c703           6937 	.byte	199,3
00001c64 9101           6938 	.byte	145,1
00001c66 01             6939 	.byte	1
00001c67 00000000*      6940 	.word	.LDW_41fb6f0
00001c6b 00             6941 	.byte	0
00001c6c 016d           6942 	.byte	1,109
                        6943 
                        6944 .LDW_4d4c178:
00001c6e 1d             6945 	.byte	29
00001c6f 00000000*      6946 	.word	.LDW07
00001c73 00000000*      6947 	.word	.LDW17
                        6948 
00001c77 00             6949 	.byte	0
                        6950 
00001c78 00             6951 	.byte	0
                        6952 
                        6953 .LDW_4c8cb98:
00001c79 14             6954 	.byte	20
00001c7a 4665655f3330   6955 	.strz	"Fee_30_SmallSector_Ih_BlankCheckLastPage"
00001c80 5f536d616c6c 
00001c86 536563746f72 
00001c8c 5f49685f426c 
00001c92 616e6b436865 
00001c98 636b4c617374 
00001c9e 5061676500 
00001ca3 cc03           6956 	.byte	204,3
00001ca5 37             6957 	.byte	55
00001ca6 01             6958 	.byte	1
00001ca7 00000000*      6959 	.word	.LDW_4ca0ca8
00001cab 00000000*      6960 	.word	_Fee_30_SmallSector_Ih_BlankCheckLastPage
00001caf 00000000*      6961 	.word	___ghs_eofn_Fee_30_SmallSector_Ih_BlankCheckLastPage
00001cb3 0153           6962 	.byte	1,83
00001cb5 828080800b     6963 	.byte	130,128,128,128,11
00001cba 0c             6964 	.byte	12
00001cbb 03             6965 	.byte	3
00001cbc 0c             6966 	.byte	12
00001cbd 00             6967 	.byte	0
00001cbe 00             6968 	.byte	0
00001cbf 00             6969 	.byte	0
00001cc0 01             6970 	.byte	1
00001cc1 01             6971 	.byte	1
00001cc2 00             6972 	.byte	0
00001cc3 01             6973 	.byte	1

                                                                      Page 131
                                                              C:\Users\nhuliyap\AppData\Local\Temp\gh_000091s1.s
                        6974 
                        6975 	.section	.debug_frame
                        6976 .LDW_4e61f90:
00000410 00000000*      6977 	.word	.LDW_unq_42-.LDW_unq_41
                        6978 .LDW_unq_41:
00000414 00000000*      6979 	.word	.LDW_4d1fd60
00000418 00000000*      6980 	.word	_Fee_30_SmallSector_Ih_BlankCheckLastPage
0000041c 00000000*      6981 	.word	___ghs_eofn_Fee_30_SmallSector_Ih_BlankCheckLastPage-_Fee_30_SmallSector_Ih_BlankCheckLastPage
00000420 44             6982 	.byte	68
00000421 9f             6983 	.byte	159
00000422 00             6984 	.byte	0
00000423 40             6985 	.byte	64
00000424 9d             6986 	.byte	157
00000425 04             6987 	.byte	4
00000426 40             6988 	.byte	64
00000427 9c             6989 	.byte	156
00000428 08             6990 	.byte	8
00000429 01             6991 	.byte	1
0000042a 00000000*      6992 	.word	.LDW37
0000042e 44             6993 	.byte	68
0000042f df             6994 	.byte	223
00000430 40             6995 	.byte	64
00000431 dd             6996 	.byte	221
00000432 40             6997 	.byte	64
00000433 dc             6998 	.byte	220
                        6999 .LDW_unq_42:
                        7000 	.section	.debug_line
0000091e 000502         7001 	.byte	0,5,2
00000921 00000000*      7002 	.word	_Fee_30_SmallSector_Ih_BlankCheckLastPage
00000925 03             7003 	.byte	3
00000926 cc03           7004 	.byte	204,3
00000928 02             7005 	.byte	2
00000929 00             7006 	.byte	0
0000092a 01             7007 	.byte	1
0000092b 06             7008 	.byte	6
0000092c 24             7009 	.byte	36
0000092d 06             7010 	.byte	6
0000092e 000502         7011 	.byte	0,5,2
00000931 00000000*      7012 	.word	.LDWlin54
00000935 02             7013 	.byte	2
00000936 00             7014 	.byte	0
00000937 02             7015 	.byte	2
00000938 04             7016 	.byte	4
00000939 000101         7017 	.byte	0,1,1
                        7018 	.section	.debug_info
                        7019 .LDW_4ca0db0:
00001cc4 0f             7020 	.byte	15
00001cc5 496e7374616e   7021 	.strz	"Instance"
00001ccb 636500 
00001cce cc03           7022 	.byte	204,3
00001cd0 8f01           7023 	.byte	143,1
00001cd2 01             7024 	.byte	1
00001cd3 00000000*      7025 	.word	.LDW_41fb6f0
00001cd7 00             7026 	.byte	0
00001cd8 016d           7027 	.byte	1,109
                        7028 
                        7029 .LDW_4d4c328:
00001cda 1d             7030 	.byte	29
00001cdb 00000000*      7031 	.word	.LDW27
00001cdf 00000000*      7032 	.word	.LDW37
                        7033 

                                                                      Page 132
                                                              C:\Users\nhuliyap\AppData\Local\Temp\gh_000091s1.s
00001ce3 00             7034 	.byte	0
                        7035 
00001ce4 00             7036 	.byte	0
                        7037 
                        7038 .LDW_4c8d518:
00001ce5 14             7039 	.byte	20
00001ce6 4665655f3330   7040 	.strz	"Fee_30_SmallSector_Ih_ReadLastPage"
00001cec 5f536d616c6c 
00001cf2 536563746f72 
00001cf8 5f49685f5265 
00001cfe 61644c617374 
00001d04 5061676500 
00001d09 d203           7041 	.byte	210,3
00001d0b 37             7042 	.byte	55
00001d0c 01             7043 	.byte	1
00001d0d 00000000*      7044 	.word	.LDW_4ca0ca8
00001d11 00000000*      7045 	.word	_Fee_30_SmallSector_Ih_ReadLastPage
00001d15 00000000*      7046 	.word	___ghs_eofn_Fee_30_SmallSector_Ih_ReadLastPage
00001d19 0153           7047 	.byte	1,83
00001d1b 828080800b     7048 	.byte	130,128,128,128,11
00001d20 0c             7049 	.byte	12
00001d21 03             7050 	.byte	3
00001d22 0c             7051 	.byte	12
00001d23 00             7052 	.byte	0
00001d24 00             7053 	.byte	0
00001d25 00             7054 	.byte	0
00001d26 01             7055 	.byte	1
00001d27 01             7056 	.byte	1
00001d28 00             7057 	.byte	0
00001d29 01             7058 	.byte	1
                        7059 
                        7060 	.section	.debug_frame
                        7061 .LDW_4e62250:
00000434 00000000*      7062 	.word	.LDW_unq_44-.LDW_unq_43
                        7063 .LDW_unq_43:
00000438 00000000*      7064 	.word	.LDW_4d1fd60
0000043c 00000000*      7065 	.word	_Fee_30_SmallSector_Ih_ReadLastPage
00000440 00000000*      7066 	.word	___ghs_eofn_Fee_30_SmallSector_Ih_ReadLastPage-_Fee_30_SmallSector_Ih_ReadLastPage
00000444 44             7067 	.byte	68
00000445 9f             7068 	.byte	159
00000446 00             7069 	.byte	0
00000447 40             7070 	.byte	64
00000448 9d             7071 	.byte	157
00000449 04             7072 	.byte	4
0000044a 40             7073 	.byte	64
0000044b 9c             7074 	.byte	156
0000044c 08             7075 	.byte	8
0000044d 01             7076 	.byte	1
0000044e 00000000*      7077 	.word	.LDW57
00000452 44             7078 	.byte	68
00000453 df             7079 	.byte	223
00000454 40             7080 	.byte	64
00000455 dd             7081 	.byte	221
00000456 40             7082 	.byte	64
00000457 dc             7083 	.byte	220
                        7084 .LDW_unq_44:
                        7085 	.section	.debug_line
0000093c 000502         7086 	.byte	0,5,2
0000093f 00000000*      7087 	.word	_Fee_30_SmallSector_Ih_ReadLastPage
00000943 03             7088 	.byte	3
00000944 d203           7089 	.byte	210,3

                                                                      Page 133
                                                              C:\Users\nhuliyap\AppData\Local\Temp\gh_000091s1.s
00000946 02             7090 	.byte	2
00000947 00             7091 	.byte	0
00000948 01             7092 	.byte	1
00000949 06             7093 	.byte	6
0000094a 24             7094 	.byte	36
0000094b 06             7095 	.byte	6
0000094c 000502         7096 	.byte	0,5,2
0000094f 00000000*      7097 	.word	.LDWlin55
00000953 02             7098 	.byte	2
00000954 00             7099 	.byte	0
00000955 02             7100 	.byte	2
00000956 04             7101 	.byte	4
00000957 000101         7102 	.byte	0,1,1
                        7103 	.section	.debug_info
                        7104 .LDW_4ca09e8:
00001d2a 0f             7105 	.byte	15
00001d2b 496e7374616e   7106 	.strz	"Instance"
00001d31 636500 
00001d34 d203           7107 	.byte	210,3
00001d36 8901           7108 	.byte	137,1
00001d38 01             7109 	.byte	1
00001d39 00000000*      7110 	.word	.LDW_41fb6f0
00001d3d 00             7111 	.byte	0
00001d3e 016d           7112 	.byte	1,109
                        7113 
                        7114 .LDW_4d4bf98:
00001d40 1d             7115 	.byte	29
00001d41 00000000*      7116 	.word	.LDW47
00001d45 00000000*      7117 	.word	.LDW57
                        7118 
00001d49 00             7119 	.byte	0
                        7120 
00001d4a 00             7121 	.byte	0
                        7122 
                        7123 .LDW_4c8ce90:
00001d4b 14             7124 	.byte	20
00001d4c 4665655f3330   7125 	.strz	"Fee_30_SmallSector_Ih_ReadAllMgmt"
00001d52 5f536d616c6c 
00001d58 536563746f72 
00001d5e 5f49685f5265 
00001d64 6164416c6c4d 
00001d6a 676d7400 
00001d6e d803           7126 	.byte	216,3
00001d70 37             7127 	.byte	55
00001d71 01             7128 	.byte	1
00001d72 00000000*      7129 	.word	.LDW_4ca0ca8
00001d76 00000000*      7130 	.word	_Fee_30_SmallSector_Ih_ReadAllMgmt
00001d7a 00000000*      7131 	.word	___ghs_eofn_Fee_30_SmallSector_Ih_ReadAllMgmt
00001d7e 0153           7132 	.byte	1,83
00001d80 828080800b     7133 	.byte	130,128,128,128,11
00001d85 0c             7134 	.byte	12
00001d86 03             7135 	.byte	3
00001d87 0c             7136 	.byte	12
00001d88 00             7137 	.byte	0
00001d89 00             7138 	.byte	0
00001d8a 00             7139 	.byte	0
00001d8b 01             7140 	.byte	1
00001d8c 01             7141 	.byte	1
00001d8d 00             7142 	.byte	0
00001d8e 01             7143 	.byte	1
                        7144 

                                                                      Page 134
                                                              C:\Users\nhuliyap\AppData\Local\Temp\gh_000091s1.s
                        7145 	.section	.debug_frame
                        7146 .LDW_4e62010:
00000458 00000000*      7147 	.word	.LDW_unq_46-.LDW_unq_45
                        7148 .LDW_unq_45:
0000045c 00000000*      7149 	.word	.LDW_4d1fd60
00000460 00000000*      7150 	.word	_Fee_30_SmallSector_Ih_ReadAllMgmt
00000464 00000000*      7151 	.word	___ghs_eofn_Fee_30_SmallSector_Ih_ReadAllMgmt-_Fee_30_SmallSector_Ih_ReadAllMgmt
00000468 44             7152 	.byte	68
00000469 9f             7153 	.byte	159
0000046a 00             7154 	.byte	0
0000046b 40             7155 	.byte	64
0000046c 9d             7156 	.byte	157
0000046d 04             7157 	.byte	4
0000046e 40             7158 	.byte	64
0000046f 9c             7159 	.byte	156
00000470 08             7160 	.byte	8
00000471 01             7161 	.byte	1
00000472 00000000*      7162 	.word	.LDW77
00000476 44             7163 	.byte	68
00000477 df             7164 	.byte	223
00000478 40             7165 	.byte	64
00000479 dd             7166 	.byte	221
0000047a 40             7167 	.byte	64
0000047b dc             7168 	.byte	220
                        7169 .LDW_unq_46:
                        7170 	.section	.debug_line
0000095a 000502         7171 	.byte	0,5,2
0000095d 00000000*      7172 	.word	_Fee_30_SmallSector_Ih_ReadAllMgmt
00000961 03             7173 	.byte	3
00000962 d803           7174 	.byte	216,3
00000964 02             7175 	.byte	2
00000965 00             7176 	.byte	0
00000966 01             7177 	.byte	1
00000967 06             7178 	.byte	6
00000968 24             7179 	.byte	36
00000969 000502         7180 	.byte	0,5,2
0000096c 00000000*      7181 	.word	.LDWlin56
00000970 0b             7182 	.byte	11
00000971 06             7183 	.byte	6
00000972 000502         7184 	.byte	0,5,2
00000975 00000000*      7185 	.word	.LDWlin57
00000979 02             7186 	.byte	2
0000097a 00             7187 	.byte	0
0000097b 02             7188 	.byte	2
0000097c 04             7189 	.byte	4
0000097d 000101         7190 	.byte	0,1,1
                        7191 	.section	.debug_info
                        7192 .LDW_4ca0a40:
00001d8f 0f             7193 	.byte	15
00001d90 496e7374616e   7194 	.strz	"Instance"
00001d96 636500 
00001d99 d803           7195 	.byte	216,3
00001d9b 8801           7196 	.byte	136,1
00001d9d 01             7197 	.byte	1
00001d9e 00000000*      7198 	.word	.LDW_41fb6f0
00001da2 00             7199 	.byte	0
00001da3 016d           7200 	.byte	1,109
                        7201 
                        7202 .LDW_4d4c208:
00001da5 1d             7203 	.byte	29
00001da6 00000000*      7204 	.word	.LDW67

                                                                      Page 135
                                                              C:\Users\nhuliyap\AppData\Local\Temp\gh_000091s1.s
00001daa 00000000*      7205 	.word	.LDW77
                        7206 
                        7207 .LDW_4ca1228:
00001dae 05             7208 	.byte	5
00001daf 726561644c65   7209 	.strz	"readLength"
00001db5 6e67746800 
00001dba db03           7210 	.byte	219,3
00001dbc 0a             7211 	.byte	10
00001dbd 01             7212 	.byte	1
00001dbe 00000000*      7213 	.word	.LDW_41fb940
00001dc2 00             7214 	.byte	0
00001dc3 00             7215 	.byte	0
                        7216 
                        7217 	.section	.debug_abbrev
0000015c 05             7218 	.byte	5
0000015d 34             7219 	.byte	52
0000015e 00             7220 	.byte	0
0000015f 0308           7221 	.byte	3,8
00000161 3b0f           7222 	.byte	59,15
00000163 390f           7223 	.byte	57,15
00000165 3a0f           7224 	.byte	58,15
00000167 4910           7225 	.byte	73,16
00000169 3f0c           7226 	.byte	63,12
0000016b 3c0c           7227 	.byte	60,12
0000016d 0000           7228 	.byte	0,0
                        7229 
                        7230 	.section	.debug_info
00001dc4 00             7231 	.byte	0
                        7232 
00001dc5 00             7233 	.byte	0
                        7234 
                        7235 .LDW_4c8d5b0:
00001dc6 14             7236 	.byte	20
00001dc7 4665655f3330   7237 	.strz	"Fee_30_SmallSector_Ih_ReadData"
00001dcd 5f536d616c6c 
00001dd3 536563746f72 
00001dd9 5f49685f5265 
00001ddf 616444617461 
00001de5 00 
00001de6 df03           7238 	.byte	223,3
00001de8 37             7239 	.byte	55
00001de9 01             7240 	.byte	1
00001dea 00000000*      7241 	.word	.LDW_4ca0ca8
00001dee 00000000*      7242 	.word	_Fee_30_SmallSector_Ih_ReadData
00001df2 00000000*      7243 	.word	___ghs_eofn_Fee_30_SmallSector_Ih_ReadData
00001df6 0153           7244 	.byte	1,83
00001df8 8280808009     7245 	.byte	130,128,128,128,9
00001dfd 08             7246 	.byte	8
00001dfe 03             7247 	.byte	3
00001dff 08             7248 	.byte	8
00001e00 00             7249 	.byte	0
00001e01 00             7250 	.byte	0
00001e02 00             7251 	.byte	0
00001e03 01             7252 	.byte	1
00001e04 01             7253 	.byte	1
00001e05 00             7254 	.byte	0
00001e06 01             7255 	.byte	1
                        7256 
                        7257 	.section	.debug_frame
                        7258 .LDW_4e62790:
0000047c 00000000*      7259 	.word	.LDW_unq_48-.LDW_unq_47

                                                                      Page 136
                                                              C:\Users\nhuliyap\AppData\Local\Temp\gh_000091s1.s
                        7260 .LDW_unq_47:
00000480 00000000*      7261 	.word	.LDW_4d1fd60
00000484 00000000*      7262 	.word	_Fee_30_SmallSector_Ih_ReadData
00000488 00000000*      7263 	.word	___ghs_eofn_Fee_30_SmallSector_Ih_ReadData-_Fee_30_SmallSector_Ih_ReadData
0000048c 44             7264 	.byte	68
0000048d 9f             7265 	.byte	159
0000048e 00             7266 	.byte	0
0000048f 40             7267 	.byte	64
00000490 9c             7268 	.byte	156
00000491 04             7269 	.byte	4
00000492 01             7270 	.byte	1
00000493 00000000*      7271 	.word	.LDW97
00000497 44             7272 	.byte	68
00000498 df             7273 	.byte	223
00000499 40             7274 	.byte	64
0000049a dc             7275 	.byte	220
0000049b 00             7276 	.byte	0
                        7277 .LDW_unq_48:
                        7278 	.section	.debug_line
00000980 000502         7279 	.byte	0,5,2
00000983 00000000*      7280 	.word	_Fee_30_SmallSector_Ih_ReadData
00000987 03             7281 	.byte	3
00000988 e203           7282 	.byte	226,3
0000098a 02             7283 	.byte	2
0000098b 00             7284 	.byte	0
0000098c 01             7285 	.byte	1
0000098d 06             7286 	.byte	6
0000098e 3c             7287 	.byte	60
0000098f 000502         7288 	.byte	0,5,2
00000992 00000000*      7289 	.word	.LDWlin58
00000996 0b             7290 	.byte	11
00000997 06             7291 	.byte	6
00000998 000502         7292 	.byte	0,5,2
0000099b 00000000*      7293 	.word	.LDWlin59
0000099f 02             7294 	.byte	2
000009a0 00             7295 	.byte	0
000009a1 02             7296 	.byte	2
000009a2 04             7297 	.byte	4
000009a3 000101         7298 	.byte	0,1,1
                        7299 	.section	.debug_info
                        7300 .LDW_4ca0e08:
00001e07 0f             7301 	.byte	15
00001e08 496e7374616e   7302 	.strz	"Instance"
00001e0e 636500 
00001e11 df03           7303 	.byte	223,3
00001e13 8501           7304 	.byte	133,1
00001e15 01             7305 	.byte	1
00001e16 00000000*      7306 	.word	.LDW_41fb6f0
00001e1a 00             7307 	.byte	0
00001e1b 0156           7308 	.byte	1,86
                        7309 
                        7310 .LDW_4ca0e60:
00001e1d 0f             7311 	.byte	15
00001e1e 446174614275   7312 	.strz	"DataBufferPtr"
00001e24 666665725074 
00001e2a 7200 
00001e2c e003           7313 	.byte	224,3
00001e2e 32             7314 	.byte	50
00001e2f 01             7315 	.byte	1
00001e30 00000000*      7316 	.word	.LDW_4ca0f68
00001e34 00             7317 	.byte	0

                                                                      Page 137
                                                              C:\Users\nhuliyap\AppData\Local\Temp\gh_000091s1.s
00001e35 016d           7318 	.byte	1,109
                        7319 
                        7320 .LDW_4ca0ba0:
00001e37 0f             7321 	.byte	15
00001e38 426c6f636b4f   7322 	.strz	"BlockOffset"
00001e3e 666673657400 
00001e44 e103           7323 	.byte	225,3
00001e46 11             7324 	.byte	17
00001e47 01             7325 	.byte	1
00001e48 00000000*      7326 	.word	.LDW_41fb940
00001e4c 00             7327 	.byte	0
00001e4d 016c           7328 	.byte	1,108
                        7329 
                        7330 .LDW_4ca0eb8:
00001e4f 0f             7331 	.byte	15
00001e50 526561644c65   7332 	.strz	"ReadLength"
00001e56 6e67746800 
00001e5b e203           7333 	.byte	226,3
00001e5d 11             7334 	.byte	17
00001e5e 01             7335 	.byte	1
00001e5f 00000000*      7336 	.word	.LDW_41fb940
00001e63 00             7337 	.byte	0
00001e64 016b           7338 	.byte	1,107
                        7339 
                        7340 .LDW_4d4c3e8:
00001e66 1d             7341 	.byte	29
00001e67 00000000*      7342 	.word	.LDW87
00001e6b 00000000*      7343 	.word	.LDW97
                        7344 
                        7345 .LDW_4ca0fc0:
00001e6f 05             7346 	.byte	5
00001e70 726561644164   7347 	.strz	"readAddress"
00001e76 647265737300 
00001e7c e503           7348 	.byte	229,3
00001e7e 22             7349 	.byte	34
00001e7f 01             7350 	.byte	1
00001e80 00000000*      7351 	.word	.LDW_41fb8e8
00001e84 00             7352 	.byte	0
00001e85 00             7353 	.byte	0
                        7354 
00001e86 00             7355 	.byte	0
                        7356 
00001e87 00             7357 	.byte	0
                        7358 
                        7359 .LDW_4c8cdf8:
00001e88 14             7360 	.byte	20
00001e89 4665655f3330   7361 	.strz	"Fee_30_SmallSector_Ih_WriteStartPattern"
00001e8f 5f536d616c6c 
00001e95 536563746f72 
00001e9b 5f49685f5772 
00001ea1 697465537461 
00001ea7 727450617474 
00001ead 65726e00 
00001eb1 e903           7362 	.byte	233,3
00001eb3 37             7363 	.byte	55
00001eb4 01             7364 	.byte	1
00001eb5 00000000*      7365 	.word	.LDW_4ca0ca8
00001eb9 00000000*      7366 	.word	_Fee_30_SmallSector_Ih_WriteStartPattern
00001ebd 00000000*      7367 	.word	___ghs_eofn_Fee_30_SmallSector_Ih_WriteStartPattern
00001ec1 0153           7368 	.byte	1,83
00001ec3 828080c00b     7369 	.byte	130,128,128,192,11

                                                                      Page 138
                                                              C:\Users\nhuliyap\AppData\Local\Temp\gh_000091s1.s
00001ec8 10             7370 	.byte	16
00001ec9 03             7371 	.byte	3
00001eca 10             7372 	.byte	16
00001ecb 00             7373 	.byte	0
00001ecc 00             7374 	.byte	0
00001ecd 00             7375 	.byte	0
00001ece 01             7376 	.byte	1
00001ecf 01             7377 	.byte	1
00001ed0 00             7378 	.byte	0
00001ed1 01             7379 	.byte	1
                        7380 
                        7381 	.section	.debug_frame
                        7382 .LDW_4e62b90:
0000049c 00000000*      7383 	.word	.LDW_unq_4a-.LDW_unq_49
                        7384 .LDW_unq_49:
000004a0 00000000*      7385 	.word	.LDW_4d1fd60
000004a4 00000000*      7386 	.word	_Fee_30_SmallSector_Ih_WriteStartPattern
000004a8 00000000*      7387 	.word	___ghs_eofn_Fee_30_SmallSector_Ih_WriteStartPattern-_Fee_30_SmallSector_Ih_WriteStartPattern
000004ac 44             7388 	.byte	68
000004ad 9f             7389 	.byte	159
000004ae 00             7390 	.byte	0
000004af 40             7391 	.byte	64
000004b0 9d             7392 	.byte	157
000004b1 04             7393 	.byte	4
000004b2 40             7394 	.byte	64
000004b3 9c             7395 	.byte	156
000004b4 08             7396 	.byte	8
000004b5 40             7397 	.byte	64
000004b6 9b             7398 	.byte	155
000004b7 0c             7399 	.byte	12
000004b8 01             7400 	.byte	1
000004b9 00000000*      7401 	.word	.LDW18
000004bd 44             7402 	.byte	68
000004be df             7403 	.byte	223
000004bf 40             7404 	.byte	64
000004c0 dd             7405 	.byte	221
000004c1 40             7406 	.byte	64
000004c2 dc             7407 	.byte	220
000004c3 40             7408 	.byte	64
000004c4 db             7409 	.byte	219
000004c5 00             7410 	.byte	0
000004c6 00             7411 	.byte	0
000004c7 00             7412 	.byte	0
                        7413 .LDW_unq_4a:
                        7414 	.section	.debug_line
000009a6 000502         7415 	.byte	0,5,2
000009a9 00000000*      7416 	.word	_Fee_30_SmallSector_Ih_WriteStartPattern
000009ad 03             7417 	.byte	3
000009ae ea03           7418 	.byte	234,3
000009b0 02             7419 	.byte	2
000009b1 00             7420 	.byte	0
000009b2 01             7421 	.byte	1
000009b3 06             7422 	.byte	6
000009b4 2c             7423 	.byte	44
000009b5 000502         7424 	.byte	0,5,2
000009b8 00000000*      7425 	.word	.LDWlin60
000009bc 0c             7426 	.byte	12
000009bd 000502         7427 	.byte	0,5,2
000009c0 00000000*      7428 	.word	.LDWlin61
000009c4 0b             7429 	.byte	11
000009c5 000502         7430 	.byte	0,5,2

                                                                      Page 139
                                                              C:\Users\nhuliyap\AppData\Local\Temp\gh_000091s1.s
000009c8 00000000*      7431 	.word	.LDWlin62
000009cc 0b             7432 	.byte	11
000009cd 000502         7433 	.byte	0,5,2
000009d0 00000000*      7434 	.word	.LDWlin63
000009d4 0c             7435 	.byte	12
000009d5 06             7436 	.byte	6
000009d6 000502         7437 	.byte	0,5,2
000009d9 00000000*      7438 	.word	.LDWlin64
000009dd 02             7439 	.byte	2
000009de 00             7440 	.byte	0
000009df 02             7441 	.byte	2
000009e0 04             7442 	.byte	4
000009e1 000101         7443 	.byte	0,1,1
                        7444 	.section	.debug_info
                        7445 .LDW_4ca11d0:
00001ed2 0f             7446 	.byte	15
00001ed3 496e7374616e   7447 	.strz	"Instance"
00001ed9 636500 
00001edc e903           7448 	.byte	233,3
00001ede 8e01           7449 	.byte	142,1
00001ee0 01             7450 	.byte	1
00001ee1 00000000*      7451 	.word	.LDW_41fb6f0
00001ee5 00             7452 	.byte	0
00001ee6 016b           7453 	.byte	1,107
                        7454 
                        7455 .LDW_4ca1018:
00001ee8 0f             7456 	.byte	15
00001ee9 436f6d706172   7457 	.strz	"CompareParameter"
00001eef 65506172616d 
00001ef5 6574657200 
00001efa ea03           7458 	.byte	234,3
00001efc 3a             7459 	.byte	58
00001efd 01             7460 	.byte	1
00001efe 00000000*      7461 	.word	.LDW_4ca12d8
00001f02 00             7462 	.byte	0
00001f03 016d           7463 	.byte	1,109
                        7464 
                        7465 .LDW_4d4c1a8:
00001f05 1d             7466 	.byte	29
00001f06 00000000*      7467 	.word	.LDW08
00001f0a 00000000*      7468 	.word	.LDW18
                        7469 
00001f0e 00             7470 	.byte	0
                        7471 
00001f0f 00             7472 	.byte	0
                        7473 
                        7474 .LDW_4c8cfc0:
00001f10 14             7475 	.byte	20
00001f11 4665655f3330   7476 	.strz	"Fee_30_SmallSector_Ih_WriteManagementPage"
00001f17 5f536d616c6c 
00001f1d 536563746f72 
00001f23 5f49685f5772 
00001f29 6974654d616e 
00001f2f 6167656d656e 
00001f35 745061676500 
00001f3b f603           7477 	.byte	246,3
00001f3d 37             7478 	.byte	55
00001f3e 01             7479 	.byte	1
00001f3f 00000000*      7480 	.word	.LDW_4ca0ca8
00001f43 00000000*      7481 	.word	_Fee_30_SmallSector_Ih_WriteManagementPage
00001f47 00000000*      7482 	.word	___ghs_eofn_Fee_30_SmallSector_Ih_WriteManagementPage

                                                                      Page 140
                                                              C:\Users\nhuliyap\AppData\Local\Temp\gh_000091s1.s
00001f4b 0153           7483 	.byte	1,83
00001f4d 838080e00b     7484 	.byte	131,128,128,224,11
00001f52 24             7485 	.byte	36
00001f53 02             7486 	.byte	2
00001f54 24             7487 	.byte	36
00001f55 00             7488 	.byte	0
00001f56 00             7489 	.byte	0
00001f57 00             7490 	.byte	0
00001f58 01             7491 	.byte	1
00001f59 01             7492 	.byte	1
00001f5a 00             7493 	.byte	0
00001f5b 01             7494 	.byte	1
                        7495 
                        7496 	.section	.debug_frame
                        7497 .LDW_4e62a10:
000004c8 00000000*      7498 	.word	.LDW_unq_4c-.LDW_unq_4b
                        7499 .LDW_unq_4b:
000004cc 00000000*      7500 	.word	.LDW_4d1fd60
000004d0 00000000*      7501 	.word	_Fee_30_SmallSector_Ih_WriteManagementPage
000004d4 00000000*      7502 	.word	___ghs_eofn_Fee_30_SmallSector_Ih_WriteManagementPage-_Fee_30_SmallSector_Ih_WriteManagementPage
000004d8 48             7503 	.byte	72
000004d9 9a             7504 	.byte	154
000004da 0c             7505 	.byte	12
000004db 42             7506 	.byte	66
000004dc 9b             7507 	.byte	155
000004dd 08             7508 	.byte	8
000004de 48             7509 	.byte	72
000004df 9f             7510 	.byte	159
000004e0 10             7511 	.byte	16
000004e1 42             7512 	.byte	66
000004e2 9c             7513 	.byte	156
000004e3 04             7514 	.byte	4
000004e4 42             7515 	.byte	66
000004e5 9d             7516 	.byte	157
000004e6 00             7517 	.byte	0
000004e7 01             7518 	.byte	1
000004e8 00000000*      7519 	.word	.LDW38
000004ec 6a             7520 	.byte	106
000004ed df             7521 	.byte	223
000004ee 42             7522 	.byte	66
000004ef dd             7523 	.byte	221
000004f0 42             7524 	.byte	66
000004f1 dc             7525 	.byte	220
000004f2 42             7526 	.byte	66
000004f3 db             7527 	.byte	219
000004f4 42             7528 	.byte	66
000004f5 da             7529 	.byte	218
000004f6 00             7530 	.byte	0
000004f7 00             7531 	.byte	0
                        7532 .LDW_unq_4c:
                        7533 	.section	.debug_line
000009e4 000502         7534 	.byte	0,5,2
000009e7 00000000*      7535 	.word	_Fee_30_SmallSector_Ih_WriteManagementPage
000009eb 03             7536 	.byte	3
000009ec f703           7537 	.byte	247,3
000009ee 02             7538 	.byte	2
000009ef 00             7539 	.byte	0
000009f0 01             7540 	.byte	1
000009f1 06             7541 	.byte	6
000009f2 74             7542 	.byte	116
000009f3 000502         7543 	.byte	0,5,2

                                                                      Page 141
                                                              C:\Users\nhuliyap\AppData\Local\Temp\gh_000091s1.s
000009f6 00000000*      7544 	.word	.LDWlin65
000009fa 0c             7545 	.byte	12
000009fb 000502         7546 	.byte	0,5,2
000009fe 00000000*      7547 	.word	.LDWlin66
00000a02 0c             7548 	.byte	12
00000a03 000502         7549 	.byte	0,5,2
00000a06 00000000*      7550 	.word	.LDWlin67
00000a0a 0c             7551 	.byte	12
00000a0b 000502         7552 	.byte	0,5,2
00000a0e 00000000*      7553 	.word	.LDWlin68
00000a12 0b             7554 	.byte	11
00000a13 0c             7555 	.byte	12
00000a14 02             7556 	.byte	2
00000a15 00             7557 	.byte	0
00000a16 0c             7558 	.byte	12
00000a17 3b             7559 	.byte	59
00000a18 0b             7560 	.byte	11
00000a19 000502         7561 	.byte	0,5,2
00000a1c 00000000*      7562 	.word	.LDWlin69
00000a20 0c             7563 	.byte	12
00000a21 03             7564 	.byte	3
00000a22 7e             7565 	.byte	126
00000a23 02             7566 	.byte	2
00000a24 0e             7567 	.byte	14
00000a25 01             7568 	.byte	1
00000a26 000502         7569 	.byte	0,5,2
00000a29 00000000*      7570 	.word	.LDWlin70
00000a2d 0d             7571 	.byte	13
00000a2e 0b             7572 	.byte	11
00000a2f 02             7573 	.byte	2
00000a30 00             7574 	.byte	0
00000a31 0c             7575 	.byte	12
00000a32 000502         7576 	.byte	0,5,2
00000a35 00000000*      7577 	.word	.LDWlin71
00000a39 0b             7578 	.byte	11
00000a3a 13             7579 	.byte	19
00000a3b 000502         7580 	.byte	0,5,2
00000a3e 00000000*      7581 	.word	.LDWlin72
00000a42 0c             7582 	.byte	12
00000a43 06             7583 	.byte	6
00000a44 000502         7584 	.byte	0,5,2
00000a47 00000000*      7585 	.word	.LDWlin73
00000a4b 02             7586 	.byte	2
00000a4c 00             7587 	.byte	0
00000a4d 02             7588 	.byte	2
00000a4e 12             7589 	.byte	18
00000a4f 000101         7590 	.byte	0,1,1
                        7591 	.section	.debug_info
                        7592 .LDW_4d61288:
00001f5c 0f             7593 	.byte	15
00001f5d 496e7374616e   7594 	.strz	"Instance"
00001f63 636500 
00001f66 f603           7595 	.byte	246,3
00001f68 9001           7596 	.byte	144,1
00001f6a 01             7597 	.byte	1
00001f6b 00000000*      7598 	.word	.LDW_41fb6f0
00001f6f 00             7599 	.byte	0
00001f70 016b           7600 	.byte	1,107
                        7601 
                        7602 .LDW_4d611d8:
00001f72 0f             7603 	.byte	15

                                                                      Page 142
                                                              C:\Users\nhuliyap\AppData\Local\Temp\gh_000091s1.s
00001f73 557365724a6f   7604 	.strz	"UserJobParameter"
00001f79 62506172616d 
00001f7f 6574657200 
00001f84 f703           7605 	.byte	247,3
00001f86 32             7606 	.byte	50
00001f87 01             7607 	.byte	1
00001f88 00000000*      7608 	.word	.LDW_4ca1280
00001f8c 00             7609 	.byte	0
00001f8d 0273           7610 	.byte	2,115
00001f8f 18             7611 	.byte	24
                        7612 
                        7613 .LDW_4d60d08:
00001f90 0f             7614 	.byte	15
00001f91 436f6d706172   7615 	.strz	"CompareParameter"
00001f97 65506172616d 
00001f9d 6574657200 
00001fa2 f703           7616 	.byte	247,3
00001fa4 76             7617 	.byte	118
00001fa5 01             7618 	.byte	1
00001fa6 00000000*      7619 	.word	.LDW_4ca12d8
00001faa 00             7620 	.byte	0
00001fab 016a           7621 	.byte	1,106
                        7622 
                        7623 .LDW_4d4c148:
00001fad 1d             7624 	.byte	29
00001fae 00000000*      7625 	.word	.LDW28
00001fb2 00000000*      7626 	.word	.LDW38
                        7627 
                        7628 .LDW_4d61180:
00001fb6 04             7629 	.byte	4
00001fb7 4c6f6f70436f   7630 	.strz	"LoopCounter"
00001fbd 756e74657200 
00001fc3 f903           7631 	.byte	249,3
00001fc5 0a             7632 	.byte	10
00001fc6 01             7633 	.byte	1
00001fc7 00000000*      7634 	.word	.LDW_41fb940
00001fcb 00             7635 	.byte	0
00001fcc 00             7636 	.byte	0
00001fcd 0162           7637 	.byte	1,98
                        7638 
                        7639 .LDW_4d60d60:
00001fcf 04             7640 	.byte	4
00001fd0 46696c6c4c65   7641 	.strz	"FillLength"
00001fd6 6e67746800 
00001fdb fa03           7642 	.byte	250,3
00001fdd 0a             7643 	.byte	10
00001fde 01             7644 	.byte	1
00001fdf 00000000*      7645 	.word	.LDW_41fb940
00001fe3 00             7646 	.byte	0
00001fe4 00             7647 	.byte	0
00001fe5 016d           7648 	.byte	1,109
                        7649 
00001fe7 00             7650 	.byte	0
                        7651 
00001fe8 00             7652 	.byte	0
                        7653 
                        7654 .LDW_4c8cd60:
00001fe9 14             7655 	.byte	20
00001fea 4665655f3330   7656 	.strz	"Fee_30_SmallSector_Ih_WritePayload"
00001ff0 5f536d616c6c 
00001ff6 536563746f72 

                                                                      Page 143
                                                              C:\Users\nhuliyap\AppData\Local\Temp\gh_000091s1.s
00001ffc 5f49685f5772 
00002002 697465506179 
00002008 6c6f616400 
0000200d 9404           7657 	.byte	148,4
0000200f 37             7658 	.byte	55
00002010 01             7659 	.byte	1
00002011 00000000*      7660 	.word	.LDW_4ca0ca8
00002015 00000000*      7661 	.word	_Fee_30_SmallSector_Ih_WritePayload
00002019 00000000*      7662 	.word	___ghs_eofn_Fee_30_SmallSector_Ih_WritePayload
0000201d 0153           7663 	.byte	1,83
0000201f 838080f00b     7664 	.byte	131,128,128,240,11
00002024 28             7665 	.byte	40
00002025 02             7666 	.byte	2
00002026 28             7667 	.byte	40
00002027 00             7668 	.byte	0
00002028 00             7669 	.byte	0
00002029 00             7670 	.byte	0
0000202a 01             7671 	.byte	1
0000202b 01             7672 	.byte	1
0000202c 00             7673 	.byte	0
0000202d 01             7674 	.byte	1
                        7675 
                        7676 	.section	.debug_frame
                        7677 .LDW_4e62d10:
000004f8 00000000*      7678 	.word	.LDW_unq_4e-.LDW_unq_4d
                        7679 .LDW_unq_4d:
000004fc 00000000*      7680 	.word	.LDW_4d1fd60
00000500 00000000*      7681 	.word	_Fee_30_SmallSector_Ih_WritePayload
00000504 00000000*      7682 	.word	___ghs_eofn_Fee_30_SmallSector_Ih_WritePayload-_Fee_30_SmallSector_Ih_WritePayload
00000508 48             7683 	.byte	72
00000509 99             7684 	.byte	153
0000050a 10             7685 	.byte	16
0000050b 42             7686 	.byte	66
0000050c 9a             7687 	.byte	154
0000050d 0c             7688 	.byte	12
0000050e 48             7689 	.byte	72
0000050f 9f             7690 	.byte	159
00000510 14             7691 	.byte	20
00000511 42             7692 	.byte	66
00000512 9b             7693 	.byte	155
00000513 08             7694 	.byte	8
00000514 42             7695 	.byte	66
00000515 9c             7696 	.byte	156
00000516 04             7697 	.byte	4
00000517 42             7698 	.byte	66
00000518 9d             7699 	.byte	157
00000519 00             7700 	.byte	0
0000051a 04             7701 	.byte	4
0000051b 42000000       7702 	.byte	66,0,0,0
0000051f 9f             7703 	.byte	159
00000520 14             7704 	.byte	20
00000521 42             7705 	.byte	66
00000522 9d             7706 	.byte	157
00000523 00             7707 	.byte	0
00000524 42             7708 	.byte	66
00000525 9c             7709 	.byte	156
00000526 04             7710 	.byte	4
00000527 42             7711 	.byte	66
00000528 9b             7712 	.byte	155
00000529 08             7713 	.byte	8
0000052a 42             7714 	.byte	66

                                                                      Page 144
                                                              C:\Users\nhuliyap\AppData\Local\Temp\gh_000091s1.s
0000052b 9a             7715 	.byte	154
0000052c 0c             7716 	.byte	12
0000052d 42             7717 	.byte	66
0000052e 99             7718 	.byte	153
0000052f 10             7719 	.byte	16
00000530 01             7720 	.byte	1
00000531 00000000*      7721 	.word	.LDW58
00000535 48             7722 	.byte	72
00000536 d9             7723 	.byte	217
00000537 42             7724 	.byte	66
00000538 da             7725 	.byte	218
00000539 48             7726 	.byte	72
0000053a df             7727 	.byte	223
0000053b 42             7728 	.byte	66
0000053c db             7729 	.byte	219
0000053d 42             7730 	.byte	66
0000053e dc             7731 	.byte	220
0000053f 42             7732 	.byte	66
00000540 dd             7733 	.byte	221
00000541 04             7734 	.byte	4
00000542 42000000       7735 	.byte	66,0,0,0
00000546 df             7736 	.byte	223
00000547 42             7737 	.byte	66
00000548 dd             7738 	.byte	221
00000549 42             7739 	.byte	66
0000054a dc             7740 	.byte	220
0000054b 42             7741 	.byte	66
0000054c db             7742 	.byte	219
0000054d 42             7743 	.byte	66
0000054e da             7744 	.byte	218
0000054f 42             7745 	.byte	66
00000550 d9             7746 	.byte	217
00000551 00             7747 	.byte	0
00000552 00             7748 	.byte	0
00000553 00             7749 	.byte	0
                        7750 .LDW_unq_4e:
                        7751 	.section	.debug_line
00000a52 000502         7752 	.byte	0,5,2
00000a55 00000000*      7753 	.word	_Fee_30_SmallSector_Ih_WritePayload
00000a59 03             7754 	.byte	3
00000a5a 9504           7755 	.byte	149,4
00000a5c 02             7756 	.byte	2
00000a5d 00             7757 	.byte	0
00000a5e 01             7758 	.byte	1
00000a5f 06             7759 	.byte	6
00000a60 7b             7760 	.byte	123
00000a61 000502         7761 	.byte	0,5,2
00000a64 00000000*      7762 	.word	.LDWlin74
00000a68 0c             7763 	.byte	12
00000a69 000502         7764 	.byte	0,5,2
00000a6c 00000000*      7765 	.word	.LDWlin75
00000a70 0c             7766 	.byte	12
00000a71 2c             7767 	.byte	44
00000a72 000502         7768 	.byte	0,5,2
00000a75 00000000*      7769 	.word	.LDWlin76
00000a79 0d             7770 	.byte	13
00000a7a 03             7771 	.byte	3
00000a7b 7f             7772 	.byte	127
00000a7c 02             7773 	.byte	2
00000a7d 04             7774 	.byte	4
00000a7e 01             7775 	.byte	1

                                                                      Page 145
                                                              C:\Users\nhuliyap\AppData\Local\Temp\gh_000091s1.s
00000a7f 03             7776 	.byte	3
00000a80 04             7777 	.byte	4
00000a81 02             7778 	.byte	2
00000a82 0a             7779 	.byte	10
00000a83 01             7780 	.byte	1
00000a84 03             7781 	.byte	3
00000a85 7e             7782 	.byte	126
00000a86 02             7783 	.byte	2
00000a87 06             7784 	.byte	6
00000a88 01             7785 	.byte	1
00000a89 06             7786 	.byte	6
00000a8a 000502         7787 	.byte	0,5,2
00000a8d 00000000*      7788 	.word	.LDWlin77
00000a91 02             7789 	.byte	2
00000a92 00             7790 	.byte	0
00000a93 02             7791 	.byte	2
00000a94 14             7792 	.byte	20
00000a95 000101         7793 	.byte	0,1,1
                        7794 	.section	.debug_info
                        7795 .LDW_4d60c58:
0000202e 0f             7796 	.byte	15
0000202f 496e7374616e   7797 	.strz	"Instance"
00002035 636500 
00002038 9404           7798 	.byte	148,4
0000203a 8901           7799 	.byte	137,1
0000203c 01             7800 	.byte	1
0000203d 00000000*      7801 	.word	.LDW_41fb6f0
00002041 00             7802 	.byte	0
00002042 0169           7803 	.byte	1,105
                        7804 
                        7805 .LDW_4d60aa0:
00002044 0f             7806 	.byte	15
00002045 557365724a6f   7807 	.strz	"UserJobParameter"
0000204b 62506172616d 
00002051 6574657200 
00002056 9504           7808 	.byte	149,4
00002058 32             7809 	.byte	50
00002059 01             7810 	.byte	1
0000205a 00000000*      7811 	.word	.LDW_4ca1280
0000205e 00             7812 	.byte	0
0000205f 0273           7813 	.byte	2,115
00002061 1c             7814 	.byte	28
                        7815 
                        7816 .LDW_4d60af8:
00002062 0f             7817 	.byte	15
00002063 436f6d706172   7818 	.strz	"CompareParameter"
00002069 65506172616d 
0000206f 6574657200 
00002074 9504           7819 	.byte	149,4
00002076 76             7820 	.byte	118
00002077 01             7821 	.byte	1
00002078 00000000*      7822 	.word	.LDW_4ca12d8
0000207c 00             7823 	.byte	0
0000207d 016a           7824 	.byte	1,106
                        7825 
                        7826 .LDW_4d4c688:
0000207f 1d             7827 	.byte	29
00002080 00000000*      7828 	.word	.LDW48
00002084 00000000*      7829 	.word	.LDW58
                        7830 
                        7831 .LDW_4d60e10:

                                                                      Page 146
                                                              C:\Users\nhuliyap\AppData\Local\Temp\gh_000091s1.s
00002088 04             7832 	.byte	4
00002089 706167655369   7833 	.strz	"pageSize"
0000208f 7a6500 
00002092 9704           7834 	.byte	151,4
00002094 0a             7835 	.byte	10
00002095 01             7836 	.byte	1
00002096 00000000*      7837 	.word	.LDW_41fb940
0000209a 00             7838 	.byte	0
0000209b 00             7839 	.byte	0
0000209c 016d           7840 	.byte	1,109
                        7841 
                        7842 .LDW_4d60cb0:
0000209e 04             7843 	.byte	4
0000209f 737461727441   7844 	.strz	"startAddress"
000020a5 646472657373 
000020ab 00 
000020ac 9904           7845 	.byte	153,4
000020ae 22             7846 	.byte	34
000020af 01             7847 	.byte	1
000020b0 00000000*      7848 	.word	.LDW_41fb8e8
000020b4 00             7849 	.byte	0
000020b5 00             7850 	.byte	0
000020b6 016c           7851 	.byte	1,108
                        7852 
                        7853 .LDW_4d60b50:
000020b8 04             7854 	.byte	4
000020b9 427566666572   7855 	.strz	"BufferIndex"
000020bf 496e64657800 
000020c5 9b04           7856 	.byte	155,4
000020c7 0a             7857 	.byte	10
000020c8 01             7858 	.byte	1
000020c9 00000000*      7859 	.word	.LDW_41fb940
000020cd 00             7860 	.byte	0
000020ce 00             7861 	.byte	0
000020cf 016b           7862 	.byte	1,107
                        7863 
                        7864 .LDW_4d60ba8:
000020d1 04             7865 	.byte	4
000020d2 6c656e677468   7866 	.strz	"length"
000020d8 00 
000020d9 9d04           7867 	.byte	157,4
000020db 0a             7868 	.byte	10
000020dc 01             7869 	.byte	1
000020dd 00000000*      7870 	.word	.LDW_41fb940
000020e1 00             7871 	.byte	0
000020e2 00             7872 	.byte	0
000020e3 015a           7873 	.byte	1,90
                        7874 
000020e5 00             7875 	.byte	0
                        7876 
000020e6 00             7877 	.byte	0
                        7878 
                        7879 .LDW_4c8d058:
000020e7 14             7880 	.byte	20
000020e8 4665655f3330   7881 	.strz	"Fee_30_SmallSector_Ih_WriteLastPage"
000020ee 5f536d616c6c 
000020f4 536563746f72 
000020fa 5f49685f5772 
00002100 6974654c6173 
00002106 745061676500 
0000210c a604           7882 	.byte	166,4

                                                                      Page 147
                                                              C:\Users\nhuliyap\AppData\Local\Temp\gh_000091s1.s
0000210e 37             7883 	.byte	55
0000210f 01             7884 	.byte	1
00002110 00000000*      7885 	.word	.LDW_4ca0ca8
00002114 00000000*      7886 	.word	_Fee_30_SmallSector_Ih_WriteLastPage
00002118 00000000*      7887 	.word	___ghs_eofn_Fee_30_SmallSector_Ih_WriteLastPage
0000211c 0153           7888 	.byte	1,83
0000211e 838080f80b     7889 	.byte	131,128,128,248,11
00002123 2c             7890 	.byte	44
00002124 02             7891 	.byte	2
00002125 2c             7892 	.byte	44
00002126 00             7893 	.byte	0
00002127 00             7894 	.byte	0
00002128 00             7895 	.byte	0
00002129 01             7896 	.byte	1
0000212a 01             7897 	.byte	1
0000212b 00             7898 	.byte	0
0000212c 01             7899 	.byte	1
                        7900 
                        7901 	.section	.debug_frame
                        7902 .LDW_4e62710:
00000554 00000000*      7903 	.word	.LDW_unq_50-.LDW_unq_4f
                        7904 .LDW_unq_4f:
00000558 00000000*      7905 	.word	.LDW_4d1fd60
0000055c 00000000*      7906 	.word	_Fee_30_SmallSector_Ih_WriteLastPage
00000560 00000000*      7907 	.word	___ghs_eofn_Fee_30_SmallSector_Ih_WriteLastPage-_Fee_30_SmallSector_Ih_WriteLastPage
00000564 48             7908 	.byte	72
00000565 98             7909 	.byte	152
00000566 14             7910 	.byte	20
00000567 42             7911 	.byte	66
00000568 99             7912 	.byte	153
00000569 10             7913 	.byte	16
0000056a 42             7914 	.byte	66
0000056b 9d             7915 	.byte	157
0000056c 00             7916 	.byte	0
0000056d 48             7917 	.byte	72
0000056e 9f             7918 	.byte	159
0000056f 18             7919 	.byte	24
00000570 42             7920 	.byte	66
00000571 9a             7921 	.byte	154
00000572 0c             7922 	.byte	12
00000573 42             7923 	.byte	66
00000574 9b             7924 	.byte	155
00000575 08             7925 	.byte	8
00000576 42             7926 	.byte	66
00000577 9c             7927 	.byte	156
00000578 04             7928 	.byte	4
00000579 01             7929 	.byte	1
0000057a 00000000*      7930 	.word	.LDW78
0000057e 54             7931 	.byte	84
0000057f df             7932 	.byte	223
00000580 42             7933 	.byte	66
00000581 dd             7934 	.byte	221
00000582 42             7935 	.byte	66
00000583 dc             7936 	.byte	220
00000584 42             7937 	.byte	66
00000585 db             7938 	.byte	219
00000586 42             7939 	.byte	66
00000587 da             7940 	.byte	218
00000588 42             7941 	.byte	66
00000589 d9             7942 	.byte	217
0000058a 42             7943 	.byte	66

                                                                      Page 148
                                                              C:\Users\nhuliyap\AppData\Local\Temp\gh_000091s1.s
0000058b d8             7944 	.byte	216
                        7945 .LDW_unq_50:
                        7946 	.section	.debug_line
00000a98 000502         7947 	.byte	0,5,2
00000a9b 00000000*      7948 	.word	_Fee_30_SmallSector_Ih_WriteLastPage
00000a9f 03             7949 	.byte	3
00000aa0 a704           7950 	.byte	167,4
00000aa2 02             7951 	.byte	2
00000aa3 00             7952 	.byte	0
00000aa4 01             7953 	.byte	1
00000aa5 06             7954 	.byte	6
00000aa6 000502         7955 	.byte	0,5,2
00000aa9 00000000*      7956 	.word	.LDWlin78
00000aad 03             7957 	.byte	3
00000aae 04             7958 	.byte	4
00000aaf 02             7959 	.byte	2
00000ab0 00             7960 	.byte	0
00000ab1 01             7961 	.byte	1
00000ab2 000502         7962 	.byte	0,5,2
00000ab5 00000000*      7963 	.word	.LDWlin79
00000ab9 0c             7964 	.byte	12
00000aba 000502         7965 	.byte	0,5,2
00000abd 00000000*      7966 	.word	.LDWlin80
00000ac1 0c             7967 	.byte	12
00000ac2 1b             7968 	.byte	27
00000ac3 0c             7969 	.byte	12
00000ac4 1b             7970 	.byte	27
00000ac5 02             7971 	.byte	2
00000ac6 00             7972 	.byte	0
00000ac7 0c             7973 	.byte	12
00000ac8 24             7974 	.byte	36
00000ac9 000502         7975 	.byte	0,5,2
00000acc 00000000*      7976 	.word	.LDWlin81
00000ad0 0c             7977 	.byte	12
00000ad1 000502         7978 	.byte	0,5,2
00000ad4 00000000*      7979 	.word	.LDWlin82
00000ad8 0c             7980 	.byte	12
00000ad9 02             7981 	.byte	2
00000ada 02             7982 	.byte	2
00000adb 000502         7983 	.byte	0,5,2
00000ade 00000000*      7984 	.word	.LDWlin83
00000ae2 0c             7985 	.byte	12
00000ae3 03             7986 	.byte	3
00000ae4 7e             7987 	.byte	126
00000ae5 02             7988 	.byte	2
00000ae6 08             7989 	.byte	8
00000ae7 01             7990 	.byte	1
00000ae8 2d             7991 	.byte	45
00000ae9 000502         7992 	.byte	0,5,2
00000aec 00000000*      7993 	.word	.LDWlin84
00000af0 0b             7994 	.byte	11
00000af1 0c             7995 	.byte	12
00000af2 1b             7996 	.byte	27
00000af3 13             7997 	.byte	19
00000af4 14             7998 	.byte	20
00000af5 06             7999 	.byte	6
00000af6 000502         8000 	.byte	0,5,2
00000af9 00000000*      8001 	.word	.LDWlin85
00000afd 02             8002 	.byte	2
00000afe 00             8003 	.byte	0
00000aff 02             8004 	.byte	2

                                                                      Page 149
                                                              C:\Users\nhuliyap\AppData\Local\Temp\gh_000091s1.s
00000b00 16             8005 	.byte	22
00000b01 000101         8006 	.byte	0,1,1
                        8007 	.section	.debug_info
                        8008 .LDW_4d612e0:
0000212d 0f             8009 	.byte	15
0000212e 496e7374616e   8010 	.strz	"Instance"
00002134 636500 
00002137 a604           8011 	.byte	166,4
00002139 8a01           8012 	.byte	138,1
0000213b 01             8013 	.byte	1
0000213c 00000000*      8014 	.word	.LDW_41fb6f0
00002140 00             8015 	.byte	0
00002141 0168           8016 	.byte	1,104
                        8017 
                        8018 .LDW_4d610d0:
00002143 0f             8019 	.byte	15
00002144 557365724a6f   8020 	.strz	"UserJobParameter"
0000214a 62506172616d 
00002150 6574657200 
00002155 a704           8021 	.byte	167,4
00002157 30             8022 	.byte	48
00002158 01             8023 	.byte	1
00002159 00000000*      8024 	.word	.LDW_4ca1280
0000215d 00             8025 	.byte	0
0000215e 0273           8026 	.byte	2,115
00002160 20             8027 	.byte	32
                        8028 
                        8029 .LDW_4d60db8:
00002161 0f             8030 	.byte	15
00002162 436f6d706172   8031 	.strz	"CompareParameter"
00002168 65506172616d 
0000216e 6574657200 
00002173 a704           8032 	.byte	167,4
00002175 74             8033 	.byte	116
00002176 01             8034 	.byte	1
00002177 00000000*      8035 	.word	.LDW_4ca12d8
0000217b 00             8036 	.byte	0
0000217c 0169           8037 	.byte	1,105
                        8038 
                        8039 .LDW_4d4c6b8:
0000217e 1d             8040 	.byte	29
0000217f 00000000*      8041 	.word	.LDW68
00002183 00000000*      8042 	.word	.LDW78
                        8043 
                        8044 .LDW_4d61230:
00002187 04             8045 	.byte	4
00002188 4c6f6f70436f   8046 	.strz	"LoopCounter"
0000218e 756e74657200 
00002194 a904           8047 	.byte	169,4
00002196 0a             8048 	.byte	10
00002197 01             8049 	.byte	1
00002198 00000000*      8050 	.word	.LDW_41fb940
0000219c 00             8051 	.byte	0
0000219d 00             8052 	.byte	0
0000219e 0162           8053 	.byte	1,98
                        8054 
                        8055 .LDW_4d60940:
000021a0 04             8056 	.byte	4
000021a1 427566666572   8057 	.strz	"BufferIndex"
000021a7 496e64657800 
000021ad aa04           8058 	.byte	170,4

                                                                      Page 150
                                                              C:\Users\nhuliyap\AppData\Local\Temp\gh_000091s1.s
000021af 0a             8059 	.byte	10
000021b0 01             8060 	.byte	1
000021b1 00000000*      8061 	.word	.LDW_41fb940
000021b5 00             8062 	.byte	0
000021b6 00             8063 	.byte	0
000021b7 016c           8064 	.byte	1,108
                        8065 
                        8066 .LDW_4d60e68:
000021b9 04             8067 	.byte	4
000021ba 737461727441   8068 	.strz	"startAddress"
000021c0 646472657373 
000021c6 00 
000021c7 ab04           8069 	.byte	171,4
000021c9 22             8070 	.byte	34
000021ca 01             8071 	.byte	1
000021cb 00000000*      8072 	.word	.LDW_41fb8e8
000021cf 00             8073 	.byte	0
000021d0 00             8074 	.byte	0
000021d1 0168           8075 	.byte	1,104
                        8076 
                        8077 .LDW_4d60c00:
000021d3 04             8078 	.byte	4
000021d4 506167655369   8079 	.strz	"PageSize"
000021da 7a6500 
000021dd ac04           8080 	.byte	172,4
000021df 0a             8081 	.byte	10
000021e0 01             8082 	.byte	1
000021e1 00000000*      8083 	.word	.LDW_41fb940
000021e5 00             8084 	.byte	0
000021e6 00             8085 	.byte	0
000021e7 016a           8086 	.byte	1,106
                        8087 
                        8088 .LDW_4d60ec0:
000021e9 04             8089 	.byte	4
000021ea 526573696475   8090 	.strz	"ResidualLength"
000021f0 616c4c656e67 
000021f6 746800 
000021f9 ae04           8091 	.byte	174,4
000021fb 0a             8092 	.byte	10
000021fc 01             8093 	.byte	1
000021fd 00000000*      8094 	.word	.LDW_41fb940
00002201 00             8095 	.byte	0
00002202 00             8096 	.byte	0
00002203 016b           8097 	.byte	1,107
                        8098 
00002205 00             8099 	.byte	0
                        8100 
00002206 00             8101 	.byte	0
                        8102 
                        8103 .LDW_4c8d188:
00002207 14             8104 	.byte	20
00002208 4665655f3330   8105 	.strz	"Fee_30_SmallSector_Ih_WriteEndPattern"
0000220e 5f536d616c6c 
00002214 536563746f72 
0000221a 5f49685f5772 
00002220 697465456e64 
00002226 506174746572 
0000222c 6e00 
0000222e c904           8106 	.byte	201,4
00002230 37             8107 	.byte	55
00002231 01             8108 	.byte	1

                                                                      Page 151
                                                              C:\Users\nhuliyap\AppData\Local\Temp\gh_000091s1.s
00002232 00000000*      8109 	.word	.LDW_4ca0ca8
00002236 00000000*      8110 	.word	_Fee_30_SmallSector_Ih_WriteEndPattern
0000223a 00000000*      8111 	.word	___ghs_eofn_Fee_30_SmallSector_Ih_WriteEndPattern
0000223e 0153           8112 	.byte	1,83
00002240 828080c00b     8113 	.byte	130,128,128,192,11
00002245 10             8114 	.byte	16
00002246 03             8115 	.byte	3
00002247 10             8116 	.byte	16
00002248 00             8117 	.byte	0
00002249 00             8118 	.byte	0
0000224a 00             8119 	.byte	0
0000224b 01             8120 	.byte	1
0000224c 01             8121 	.byte	1
0000224d 00             8122 	.byte	0
0000224e 01             8123 	.byte	1
                        8124 
                        8125 	.section	.debug_frame
                        8126 .LDW_4e62c90:
0000058c 00000000*      8127 	.word	.LDW_unq_52-.LDW_unq_51
                        8128 .LDW_unq_51:
00000590 00000000*      8129 	.word	.LDW_4d1fd60
00000594 00000000*      8130 	.word	_Fee_30_SmallSector_Ih_WriteEndPattern
00000598 00000000*      8131 	.word	___ghs_eofn_Fee_30_SmallSector_Ih_WriteEndPattern-_Fee_30_SmallSector_Ih_WriteEndPattern
0000059c 44             8132 	.byte	68
0000059d 9f             8133 	.byte	159
0000059e 00             8134 	.byte	0
0000059f 40             8135 	.byte	64
000005a0 9d             8136 	.byte	157
000005a1 04             8137 	.byte	4
000005a2 40             8138 	.byte	64
000005a3 9c             8139 	.byte	156
000005a4 08             8140 	.byte	8
000005a5 40             8141 	.byte	64
000005a6 9b             8142 	.byte	155
000005a7 0c             8143 	.byte	12
000005a8 01             8144 	.byte	1
000005a9 00000000*      8145 	.word	.LDW98
000005ad 44             8146 	.byte	68
000005ae df             8147 	.byte	223
000005af 40             8148 	.byte	64
000005b0 dd             8149 	.byte	221
000005b1 40             8150 	.byte	64
000005b2 dc             8151 	.byte	220
000005b3 40             8152 	.byte	64
000005b4 db             8153 	.byte	219
000005b5 00             8154 	.byte	0
000005b6 00             8155 	.byte	0
000005b7 00             8156 	.byte	0
                        8157 .LDW_unq_52:
                        8158 	.section	.debug_line
00000b04 000502         8159 	.byte	0,5,2
00000b07 00000000*      8160 	.word	_Fee_30_SmallSector_Ih_WriteEndPattern
00000b0b 03             8161 	.byte	3
00000b0c ca04           8162 	.byte	202,4
00000b0e 02             8163 	.byte	2
00000b0f 00             8164 	.byte	0
00000b10 01             8165 	.byte	1
00000b11 06             8166 	.byte	6
00000b12 2c             8167 	.byte	44
00000b13 000502         8168 	.byte	0,5,2
00000b16 00000000*      8169 	.word	.LDWlin86

                                                                      Page 152
                                                              C:\Users\nhuliyap\AppData\Local\Temp\gh_000091s1.s
00000b1a 0c             8170 	.byte	12
00000b1b 000502         8171 	.byte	0,5,2
00000b1e 00000000*      8172 	.word	.LDWlin87
00000b22 0b             8173 	.byte	11
00000b23 000502         8174 	.byte	0,5,2
00000b26 00000000*      8175 	.word	.LDWlin88
00000b2a 0b             8176 	.byte	11
00000b2b 000502         8177 	.byte	0,5,2
00000b2e 00000000*      8178 	.word	.LDWlin89
00000b32 0c             8179 	.byte	12
00000b33 06             8180 	.byte	6
00000b34 000502         8181 	.byte	0,5,2
00000b37 00000000*      8182 	.word	.LDWlin90
00000b3b 02             8183 	.byte	2
00000b3c 00             8184 	.byte	0
00000b3d 02             8185 	.byte	2
00000b3e 04             8186 	.byte	4
00000b3f 000101         8187 	.byte	0,1,1
                        8188 	.section	.debug_info
                        8189 .LDW_4d61078:
0000224f 0f             8190 	.byte	15
00002250 496e7374616e   8191 	.strz	"Instance"
00002256 636500 
00002259 c904           8192 	.byte	201,4
0000225b 8c01           8193 	.byte	140,1
0000225d 01             8194 	.byte	1
0000225e 00000000*      8195 	.word	.LDW_41fb6f0
00002262 00             8196 	.byte	0
00002263 016b           8197 	.byte	1,107
                        8198 
                        8199 .LDW_4d61338:
00002265 0f             8200 	.byte	15
00002266 436f6d706172   8201 	.strz	"CompareParameter"
0000226c 65506172616d 
00002272 6574657200 
00002277 ca04           8202 	.byte	202,4
00002279 3a             8203 	.byte	58
0000227a 01             8204 	.byte	1
0000227b 00000000*      8205 	.word	.LDW_4ca12d8
0000227f 00             8206 	.byte	0
00002280 016d           8207 	.byte	1,109
                        8208 
                        8209 .LDW_4d4c6e8:
00002282 1d             8210 	.byte	29
00002283 00000000*      8211 	.word	.LDW88
00002287 00000000*      8212 	.word	.LDW98
                        8213 
0000228b 00             8214 	.byte	0
                        8215 
0000228c 00             8216 	.byte	0
                        8217 
                        8218 .LDW_4c8d3e8:
0000228d 14             8219 	.byte	20
0000228e 4665655f3330   8220 	.strz	"Fee_30_SmallSector_Ih_VerifyData"
00002294 5f536d616c6c 
0000229a 536563746f72 
000022a0 5f49685f5665 
000022a6 726966794461 
000022ac 746100 
000022af d604           8221 	.byte	214,4
000022b1 37             8222 	.byte	55

                                                                      Page 153
                                                              C:\Users\nhuliyap\AppData\Local\Temp\gh_000091s1.s
000022b2 01             8223 	.byte	1
000022b3 00000000*      8224 	.word	.LDW_4ca0ca8
000022b7 00000000*      8225 	.word	_Fee_30_SmallSector_Ih_VerifyData
000022bb 00000000*      8226 	.word	___ghs_eofn_Fee_30_SmallSector_Ih_VerifyData
000022bf 0153           8227 	.byte	1,83
000022c1 8380808008     8228 	.byte	131,128,128,128,8
000022c6 14             8229 	.byte	20
000022c7 02             8230 	.byte	2
000022c8 14             8231 	.byte	20
000022c9 00             8232 	.byte	0
000022ca 00             8233 	.byte	0
000022cb 00             8234 	.byte	0
000022cc 01             8235 	.byte	1
000022cd 01             8236 	.byte	1
000022ce 00             8237 	.byte	0
000022cf 01             8238 	.byte	1
                        8239 
                        8240 	.section	.debug_frame
                        8241 .LDW_4e62d50:
000005b8 00000000*      8242 	.word	.LDW_unq_54-.LDW_unq_53
                        8243 .LDW_unq_53:
000005bc 00000000*      8244 	.word	.LDW_4d1fd60
000005c0 00000000*      8245 	.word	_Fee_30_SmallSector_Ih_VerifyData
000005c4 00000000*      8246 	.word	___ghs_eofn_Fee_30_SmallSector_Ih_VerifyData-_Fee_30_SmallSector_Ih_VerifyData
000005c8 4e             8247 	.byte	78
000005c9 9f             8248 	.byte	159
000005ca 00             8249 	.byte	0
000005cb 4c             8250 	.byte	76
000005cc 9f             8251 	.byte	159
000005cd 00             8252 	.byte	0
000005ce 01             8253 	.byte	1
000005cf 00000000*      8254 	.word	.LDW19
000005d3 4e             8255 	.byte	78
000005d4 df             8256 	.byte	223
000005d5 4c             8257 	.byte	76
000005d6 df             8258 	.byte	223
000005d7 00             8259 	.byte	0
                        8260 .LDW_unq_54:
                        8261 	.section	.debug_line
00000b42 000502         8262 	.byte	0,5,2
00000b45 00000000*      8263 	.word	_Fee_30_SmallSector_Ih_VerifyData
00000b49 03             8264 	.byte	3
00000b4a d604           8265 	.byte	214,4
00000b4c 02             8266 	.byte	2
00000b4d 00             8267 	.byte	0
00000b4e 01             8268 	.byte	1
00000b4f 06             8269 	.byte	6
00000b50 43             8270 	.byte	67
00000b51 06             8271 	.byte	6
00000b52 000502         8272 	.byte	0,5,2
00000b55 00000000*      8273 	.word	.LDWlin91
00000b59 02             8274 	.byte	2
00000b5a 00             8275 	.byte	0
00000b5b 02             8276 	.byte	2
00000b5c 0a             8277 	.byte	10
00000b5d 000101         8278 	.byte	0,1,1
                        8279 	.section	.debug_info
                        8280 .LDW_4d60f18:
000022d0 0f             8281 	.byte	15
000022d1 436f6d706172   8282 	.strz	"CompareParameter"
000022d7 65506172616d 

                                                                      Page 154
                                                              C:\Users\nhuliyap\AppData\Local\Temp\gh_000091s1.s
000022dd 6574657200 
000022e2 d604           8283 	.byte	214,4
000022e4 8301           8284 	.byte	131,1
000022e6 01             8285 	.byte	1
000022e7 00000000*      8286 	.word	.LDW_4ca08e0
000022eb 00             8287 	.byte	0
000022ec 0273           8288 	.byte	2,115
000022ee 04             8289 	.byte	4
                        8290 
                        8291 .LDW_4d4c538:
000022ef 1d             8292 	.byte	29
000022f0 00000000*      8293 	.word	.LDW09
000022f4 00000000*      8294 	.word	.LDW19
                        8295 
000022f8 00             8296 	.byte	0
                        8297 
000022f9 00             8298 	.byte	0
                        8299 
000022fa 00             8300 	.byte	0
                        8301 
                        8302 	.section	.debug_line
                        8303 .Ldw_line_end:
                        8304 	.section	.debug_macinfo
00000000 01             8305 	.byte	1
00000001 00             8306 	.byte	0
00000002 5f5f6768735f   8307 	.strz	"__ghs__ 1"
00000008 5f203100 
0000000c 01             8308 	.byte	1
0000000d 00             8309 	.byte	0
0000000e 5f5f4c4c4f4e   8310 	.strz	"__LLONG_BIT 64"
00000014 475f42495420 
0000001a 363400 
0000001d 03             8311 	.byte	3
0000001e 00             8312 	.byte	0
0000001f 01             8313 	.byte	1
00000020 03             8314 	.byte	3
00000021 01             8315 	.byte	1
00000022 02             8316 	.byte	2
00000023 03             8317 	.byte	3
00000024 1c             8318 	.byte	28
00000025 03             8319 	.byte	3
00000026 01             8320 	.byte	1
00000027 3c             8321 	.byte	60
00000028 545255452031   8322 	.strz	"TRUE 1u"
0000002e 7500 
00000030 01             8323 	.byte	1
00000031 40             8324 	.byte	64
00000032 46414c534520   8325 	.strz	"FALSE 0u"
00000038 307500 
0000003b 04             8326 	.byte	4
0000003c 03             8327 	.byte	3
0000003d 1d             8328 	.byte	29
0000003e 04             8329 	.byte	4
0000003f 03             8330 	.byte	3
00000040 1b             8331 	.byte	27
00000041 05             8332 	.byte	5
00000042 03             8333 	.byte	3
00000043 54             8334 	.byte	84
00000044 06             8335 	.byte	6
00000045 04             8336 	.byte	4
00000046 04             8337 	.byte	4

                                                                      Page 155
                                                              C:\Users\nhuliyap\AppData\Local\Temp\gh_000091s1.s
00000047 01             8338 	.byte	1
00000048 34             8339 	.byte	52
00000049 46554e432872   8340 	.strz	"FUNC(rettype,memclass) rettype"
0000004f 657474797065 
00000055 2c6d656d636c 
0000005b 617373292072 
00000061 657474797065 
00000067 00 
00000068 01             8341 	.byte	1
00000069 37             8342 	.byte	55
0000006a 503256415228   8343 	.strz	"P2VAR(ptrtype,memclass,ptrclass) ptrtype*"
00000070 707472747970 
00000076 652c6d656d63 
0000007c 6c6173732c70 
00000082 7472636c6173 
00000088 732920707472 
0000008e 747970652a00 
00000094 01             8344 	.byte	1
00000095 38             8345 	.byte	56
00000096 5032434f4e53   8346 	.strz	"P2CONST(ptrtype,memclass,ptrclass) const ptrtype*"
0000009c 542870747274 
000000a2 7970652c6d65 
000000a8 6d636c617373 
000000ae 2c707472636c 
000000b4 617373292063 
000000ba 6f6e73742070 
000000c0 747274797065 
000000c6 2a00 
000000c8 01             8347 	.byte	1
000000c9 3b             8348 	.byte	59
000000ca 503246554e43   8349 	.strz	"P2FUNC(rettype,ptrclass,fctname) rettype (*fctname)"
000000d0 287265747479 
000000d6 70652c707472 
000000dc 636c6173732c 
000000e2 6663746e616d 
000000e8 652920726574 
000000ee 747970652028 
000000f4 2a6663746e61 
000000fa 6d652900 
000000fe 01             8350 	.byte	1
000000ff 3d             8351 	.byte	61
00000100 434f4e535428   8352 	.strz	"CONST(type,memclass) const type"
00000106 747970652c6d 
0000010c 656d636c6173 
00000112 732920636f6e 
00000118 737420747970 
0000011e 6500 
00000120 01             8353 	.byte	1
00000121 3e             8354 	.byte	62
00000122 564152287661   8355 	.strz	"VAR(vartype,memclass) vartype"
00000128 72747970652c 
0000012e 6d656d636c61 
00000134 737329207661 
0000013a 727479706500 
00000140 04             8356 	.byte	4
00000141 01             8357 	.byte	1
00000142 3c             8358 	.byte	60
00000143 5354445f4f4e   8359 	.strz	"STD_ON 1u"
00000149 20317500 
0000014d 01             8360 	.byte	1
0000014e 3d             8361 	.byte	61

                                                                      Page 156
                                                              C:\Users\nhuliyap\AppData\Local\Temp\gh_000091s1.s
0000014f 5354445f4f46   8362 	.strz	"STD_OFF 0u"
00000155 4620307500 
0000015a 04             8363 	.byte	4
0000015b 01             8364 	.byte	1
0000015c 03             8365 	.byte	3
0000015d 4645455f3330   8366 	.strz	"FEE_30_SMALLSECTOR_IMPLEMENTATION_SOURCE "
00000163 5f534d414c4c 
00000169 534543544f52 
0000016f 5f494d504c45 
00000175 4d454e544154 
0000017b 494f4e5f534f 
00000181 555243452000 
00000187 03             8367 	.byte	3
00000188 05             8368 	.byte	5
00000189 07             8369 	.byte	7
0000018a 03             8370 	.byte	3
0000018b 04             8371 	.byte	4
0000018c 08             8372 	.byte	8
0000018d 03             8373 	.byte	3
0000018e 04             8374 	.byte	4
0000018f 09             8375 	.byte	9
00000190 04             8376 	.byte	4
00000191 03             8377 	.byte	3
00000192 05             8378 	.byte	5
00000193 0a             8379 	.byte	10
00000194 03             8380 	.byte	3
00000195 5b             8381 	.byte	91
00000196 0b             8382 	.byte	11
00000197 01             8383 	.byte	1
00000198 04             8384 	.byte	4
00000199 464c535f4152   8385 	.strz	"FLS_AR_FOUR_ZERO_THREE 403"
0000019f 5f464f55525f 
000001a5 5a45524f5f54 
000001ab 485245452034 
000001b1 303300 
000001b4 01             8386 	.byte	1
000001b5 05             8387 	.byte	5
000001b6 464c535f4152   8388 	.strz	"FLS_AR_THREE_TWO_TWO 322"
000001bc 5f5448524545 
000001c2 5f54574f5f54 
000001c8 574f20333232 
000001ce 00 
000001cf 01             8389 	.byte	1
000001d0 06             8390 	.byte	6
000001d1 464c535f4152   8391 	.strz	"FLS_AR_HIGHER_VERSION FLS_AR_FOUR_ZERO_THREE"
000001d7 5f4849474845 
000001dd 525f56455253 
000001e3 494f4e20464c 
000001e9 535f41525f46 
000001ef 4f55525f5a45 
000001f5 524f5f544852 
000001fb 454500 
000001fe 01             8392 	.byte	1
000001ff 07             8393 	.byte	7
00000200 464c535f4152   8394 	.strz	"FLS_AR_LOWER_VERSION FLS_AR_THREE_TWO_TWO"
00000206 5f4c4f574552 
0000020c 5f5645525349 
00000212 4f4e20464c53 
00000218 5f41525f5448 
0000021e 5245455f5457 
00000224 4f5f54574f00 

                                                                      Page 157
                                                              C:\Users\nhuliyap\AppData\Local\Temp\gh_000091s1.s
0000022a 03             8395 	.byte	3
0000022b 09             8396 	.byte	9
0000022c 0c             8397 	.byte	12
0000022d 01             8398 	.byte	1
0000022e 13             8399 	.byte	19
0000022f 464c535f4152   8400 	.strz	"FLS_AR_VERSION FLS_AR_LOWER_VERSION"
00000235 5f5645525349 
0000023b 4f4e20464c53 
00000241 5f41525f4c4f 
00000247 5745525f5645 
0000024d 5253494f4e00 
00000253 01             8401 	.byte	1
00000254 14             8402 	.byte	20
00000255 464c535f464c   8403 	.strz	"FLS_FLASH_ACCESS FLS_DATAFLASH_ACCESS"
0000025b 4153485f4143 
00000261 434553532046 
00000267 4c535f444154 
0000026d 41464c415348 
00000273 5f4143434553 
00000279 5300 
0000027b 01             8404 	.byte	1
0000027c 15             8405 	.byte	21
0000027d 464c535f4445   8406 	.strz	"FLS_DEV_ERROR_DETECT STD_OFF"
00000283 565f4552524f 
00000289 525f44455445 
0000028f 435420535444 
00000295 5f4f464600 
0000029a 01             8407 	.byte	1
0000029b 16             8408 	.byte	22
0000029c 464c535f5645   8409 	.strz	"FLS_VERSION_INFO_API STD_OFF"
000002a2 5253494f4e5f 
000002a8 494e464f5f41 
000002ae 504920535444 
000002b4 5f4f464600 
000002b9 01             8410 	.byte	1
000002ba 17             8411 	.byte	23
000002bb 464c535f4341   8412 	.strz	"FLS_CANCEL_API STD_ON"
000002c1 4e43454c5f41 
000002c7 504920535444 
000002cd 5f4f4e00 
000002d1 01             8413 	.byte	1
000002d2 18             8414 	.byte	24
000002d3 464c535f434f   8415 	.strz	"FLS_COMPARE_API STD_ON"
000002d9 4d504152455f 
000002df 415049205354 
000002e5 445f4f4e00 
000002ea 01             8416 	.byte	1
000002eb 19             8417 	.byte	25
000002ec 464c535f5345   8418 	.strz	"FLS_SET_MODE_API STD_OFF"
000002f2 545f4d4f4445 
000002f8 5f4150492053 
000002fe 54445f4f4646 
00000304 00 
00000305 01             8419 	.byte	1
00000306 1a             8420 	.byte	26
00000307 464c535f4745   8421 	.strz	"FLS_GET_STATUS_API STD_ON"
0000030d 545f53544154 
00000313 55535f415049 
00000319 205354445f4f 
0000031f 4e00 
00000321 01             8422 	.byte	1

                                                                      Page 158
                                                              C:\Users\nhuliyap\AppData\Local\Temp\gh_000091s1.s
00000322 1b             8423 	.byte	27
00000323 464c535f4745   8424 	.strz	"FLS_GET_JOB_RESULT_API STD_ON"
00000329 545f4a4f425f 
0000032f 524553554c54 
00000335 5f4150492053 
0000033b 54445f4f4e00 
00000341 01             8425 	.byte	1
00000342 21             8426 	.byte	33
00000343 464c535f5449   8427 	.strz	"FLS_TIMEOUT_MONITORING STD_OFF"
00000349 4d454f55545f 
0000034f 4d4f4e49544f 
00000355 52494e472053 
0000035b 54445f4f4646 
00000361 00 
00000362 01             8428 	.byte	1
00000363 22             8429 	.byte	34
00000364 464c535f424c   8430 	.strz	"FLS_BLANKCHECK_API STD_ON"
0000036a 414e4b434845 
00000370 434b5f415049 
00000376 205354445f4f 
0000037c 4e00 
0000037e 01             8431 	.byte	1
0000037f 23             8432 	.byte	35
00000380 464c535f5245   8433 	.strz	"FLS_READIMMEDIATE_API STD_OFF"
00000386 4144494d4d45 
0000038c 44494154455f 
00000392 415049205354 
00000398 445f4f464600 
0000039e 01             8434 	.byte	1
0000039f 24             8435 	.byte	36
000003a0 464c535f494e   8436 	.strz	"FLS_INTERRUPT_MODE STD_OFF"
000003a6 544552525550 
000003ac 545f4d4f4445 
000003b2 205354445f4f 
000003b8 464600 
000003bb 01             8437 	.byte	1
000003bc 26             8438 	.byte	38
000003bd 464c535f5355   8439 	.strz	"FLS_SUSPEND_API STD_OFF"
000003c3 5350454e445f 
000003c9 415049205354 
000003cf 445f4f464600 
000003d5 01             8440 	.byte	1
000003d6 27             8441 	.byte	39
000003d7 464c535f5245   8442 	.strz	"FLS_RESUME_API STD_OFF"
000003dd 53554d455f41 
000003e3 504920535444 
000003e9 5f4f464600 
000003ee 01             8443 	.byte	1
000003ef 2f             8444 	.byte	47
000003f0 464c535f4648   8445 	.strz	"FLS_FHVE_REGS NOT_SUPPORTED"
000003f6 56455f524547 
000003fc 53204e4f545f 
00000402 535550504f52 
00000408 54454400 
0000040c 01             8446 	.byte	1
0000040d 30             8447 	.byte	48
0000040e 464c535f464c   8448 	.strz	"FLS_FLMD_REGS SUPPORTED"
00000414 4d445f524547 
0000041a 532053555050 
00000420 4f5254454400 
00000426 04             8449 	.byte	4

                                                                      Page 159
                                                              C:\Users\nhuliyap\AppData\Local\Temp\gh_000091s1.s
00000427 03             8450 	.byte	3
00000428 0a             8451 	.byte	10
00000429 0d             8452 	.byte	13
0000042a 03             8453 	.byte	3
0000042b 04             8454 	.byte	4
0000042c 0e             8455 	.byte	14
0000042d 01             8456 	.byte	1
0000042e 2a             8457 	.byte	42
0000042f 535550504f52   8458 	.strz	"SUPPORTED 0"
00000435 544544203000 
0000043b 01             8459 	.byte	1
0000043c 2b             8460 	.byte	43
0000043d 4e4f545f5355   8461 	.strz	"NOT_SUPPORTED 1"
00000443 50504f525445 
00000449 44203100 
0000044d 01             8462 	.byte	1
0000044e 40             8463 	.byte	64
0000044f 464c535f4441   8464 	.strz	"FLS_DATAFLASH_ACCESS 0"
00000455 5441464c4153 
0000045b 485f41434345 
00000461 5353203000 
00000466 01             8465 	.byte	1
00000467 41             8466 	.byte	65
00000468 464c535f434f   8467 	.strz	"FLS_CODEFLASH_ACCESS 1"
0000046e 4445464c4153 
00000474 485f41434345 
0000047a 5353203100 
0000047f 01             8468 	.byte	1
00000480 42             8469 	.byte	66
00000481 464c535f4346   8470 	.strz	"FLS_CFDF_ACCESS 2"
00000487 44465f414343 
0000048d 455353203200 
00000493 01             8471 	.byte	1
00000494 6b             8472 	.byte	107
00000495 464c535f5354   8473 	.strz	"FLS_START_SEC_BUFFER_CODE "
0000049b 4152545f5345 
000004a1 435f42554646 
000004a7 45525f434f44 
000004ad 452000 
000004b0 03             8474 	.byte	3
000004b1 6c             8475 	.byte	108
000004b2 0f             8476 	.byte	15
000004b3 01             8477 	.byte	1
000004b4 02             8478 	.byte	2
000004b5 4d454d4d4150   8479 	.strz	"MEMMAP_VENDOR_ID (30u)"
000004bb 5f56454e444f 
000004c1 525f49442028 
000004c7 3330752900 
000004cc 01             8480 	.byte	1
000004cd 08             8481 	.byte	8
000004ce 4d454d4d4150   8482 	.strz	"MEMMAP_AR_RELEASE_MAJOR_VERSION (4u)"
000004d4 5f41525f5245 
000004da 4c454153455f 
000004e0 4d414a4f525f 
000004e6 56455253494f 
000004ec 4e2028347529 
000004f2 00 
000004f3 01             8483 	.byte	1
000004f4 09             8484 	.byte	9
000004f5 4d454d4d4150   8485 	.strz	"MEMMAP_AR_RELEASE_MINOR_VERSION (0u)"
000004fb 5f41525f5245 

                                                                      Page 160
                                                              C:\Users\nhuliyap\AppData\Local\Temp\gh_000091s1.s
00000501 4c454153455f 
00000507 4d494e4f525f 
0000050d 56455253494f 
00000513 4e2028307529 
00000519 00 
0000051a 01             8486 	.byte	1
0000051b 0a             8487 	.byte	10
0000051c 4d454d4d4150   8488 	.strz	"MEMMAP_AR_RELEASE_REVISION_VERSION (3u)"
00000522 5f41525f5245 
00000528 4c454153455f 
0000052e 524556495349 
00000534 4f4e5f564552 
0000053a 53494f4e2028 
00000540 33752900 
00000544 01             8489 	.byte	1
00000545 10             8490 	.byte	16
00000546 4d454d5f4152   8491 	.strz	"MEM_AR_RELEASE_MAJOR_VERSION MEMMAP_AR_RELEASE_MAJOR_VERSION"
0000054c 5f52454c4541 
00000552 53455f4d414a 
00000558 4f525f564552 
0000055e 53494f4e204d 
00000564 454d4d41505f 
0000056a 41525f52454c 
00000570 454153455f4d 
00000576 414a4f525f56 
0000057c 455253494f4e 
00000582 00 
00000583 01             8492 	.byte	1
00000584 11             8493 	.byte	17
00000585 4d454d5f4152   8494 	.strz	"MEM_AR_RELEASE_MINOR_VERSION MEMMAP_AR_RELEASE_MINOR_VERSION"
0000058b 5f52454c4541 
00000591 53455f4d494e 
00000597 4f525f564552 
0000059d 53494f4e204d 
000005a3 454d4d41505f 
000005a9 41525f52454c 
000005af 454153455f4d 
000005b5 494e4f525f56 
000005bb 455253494f4e 
000005c1 00 
000005c2 01             8495 	.byte	1
000005c3 12             8496 	.byte	18
000005c4 4d454d5f4152   8497 	.strz	"MEM_AR_RELEASE_PATCH_VERSION MEMMAP_AR_RELEASE_REVISION_VERSION"
000005ca 5f52454c4541 
000005d0 53455f504154 
000005d6 43485f564552 
000005dc 53494f4e204d 
000005e2 454d4d41505f 
000005e8 41525f52454c 
000005ee 454153455f52 
000005f4 45564953494f 
000005fa 4e5f56455253 
00000600 494f4e00 
00000604 01             8498 	.byte	1
00000605 18             8499 	.byte	24
00000606 4d454d4d4150   8500 	.strz	"MEMMAP_SW_MAJOR_VERSION (1u)"
0000060c 5f53575f4d41 
00000612 4a4f525f5645 
00000618 5253494f4e20 
0000061e 2831752900 
00000623 01             8501 	.byte	1

                                                                      Page 161
                                                              C:\Users\nhuliyap\AppData\Local\Temp\gh_000091s1.s
00000624 19             8502 	.byte	25
00000625 4d454d4d4150   8503 	.strz	"MEMMAP_SW_MINOR_VERSION (11u)"
0000062b 5f53575f4d49 
00000631 4e4f525f5645 
00000637 5253494f4e20 
0000063d 283131752900 
00000643 01             8504 	.byte	1
00000644 1a             8505 	.byte	26
00000645 4d454d4d4150   8506 	.strz	"MEMMAP_SW_PATCH_VERSION (0u)"
0000064b 5f53575f5041 
00000651 5443485f5645 
00000657 5253494f4e20 
0000065d 2830752900 
00000662 01             8507 	.byte	1
00000663 20             8508 	.byte	32
00000664 4d454d5f5357   8509 	.strz	"MEM_SW_MAJOR_VERSION MEMMAP_SW_MAJOR_VERSION"
0000066a 5f4d414a4f52 
00000670 5f5645525349 
00000676 4f4e204d454d 
0000067c 4d41505f5357 
00000682 5f4d414a4f52 
00000688 5f5645525349 
0000068e 4f4e00 
00000691 01             8510 	.byte	1
00000692 21             8511 	.byte	33
00000693 4d454d5f5357   8512 	.strz	"MEM_SW_MINOR_VERSION MEMMAP_SW_MINOR_VERSION"
00000699 5f4d494e4f52 
0000069f 5f5645525349 
000006a5 4f4e204d454d 
000006ab 4d41505f5357 
000006b1 5f4d494e4f52 
000006b7 5f5645525349 
000006bd 4f4e00 
000006c0 01             8513 	.byte	1
000006c1 22             8514 	.byte	34
000006c2 4d454d5f5357   8515 	.strz	"MEM_SW_PATCH_VERSION MEMMAP_SW_PATCH_VERSION"
000006c8 5f5041544348 
000006ce 5f5645525349 
000006d4 4f4e204d454d 
000006da 4d41505f5357 
000006e0 5f5041544348 
000006e6 5f5645525349 
000006ec 4f4e00 
000006ef 01             8516 	.byte	1
000006f0 24             8517 	.byte	36
000006f1 4d454d4d4150   8518 	.strz	"MEMMAP_ERROR "
000006f7 5f4552524f52 
000006fd 2000 
000006ff 01             8519 	.byte	1
00000700 9502           8520 	.byte	149,2
00000702 53544152545f   8521 	.strz	"START_SEC_CODE "
00000708 5345435f434f 
0000070e 44452000 
00000712 03             8522 	.byte	3
00000713 f403           8523 	.byte	244,3
00000715 10             8524 	.byte	16
00000716 01             8525 	.byte	1
00000717 f307           8526 	.byte	243,7
00000719 434f44455f53   8527 	.strz	"CODE_SEC_OPEN "
0000071f 45435f4f5045 
00000725 4e2000 

                                                                      Page 162
                                                              C:\Users\nhuliyap\AppData\Local\Temp\gh_000091s1.s
00000728 04             8528 	.byte	4
00000729 04             8529 	.byte	4
0000072a 01             8530 	.byte	1
0000072b 70             8531 	.byte	112
0000072c 464c535f5354   8532 	.strz	"FLS_STOP_SEC_BUFFER_CODE "
00000732 4f505f534543 
00000738 5f4255464645 
0000073e 525f434f4445 
00000744 2000 
00000746 03             8533 	.byte	3
00000747 71             8534 	.byte	113
00000748 0f             8535 	.byte	15
00000749 01             8536 	.byte	1
0000074a 02             8537 	.byte	2
0000074b 4d454d4d4150   8538 	.strz	"MEMMAP_VENDOR_ID (30u)"
00000751 5f56454e444f 
00000757 525f49442028 
0000075d 3330752900 
00000762 01             8539 	.byte	1
00000763 08             8540 	.byte	8
00000764 4d454d4d4150   8541 	.strz	"MEMMAP_AR_RELEASE_MAJOR_VERSION (4u)"
0000076a 5f41525f5245 
00000770 4c454153455f 
00000776 4d414a4f525f 
0000077c 56455253494f 
00000782 4e2028347529 
00000788 00 
00000789 01             8542 	.byte	1
0000078a 09             8543 	.byte	9
0000078b 4d454d4d4150   8544 	.strz	"MEMMAP_AR_RELEASE_MINOR_VERSION (0u)"
00000791 5f41525f5245 
00000797 4c454153455f 
0000079d 4d494e4f525f 
000007a3 56455253494f 
000007a9 4e2028307529 
000007af 00 
000007b0 01             8545 	.byte	1
000007b1 0a             8546 	.byte	10
000007b2 4d454d4d4150   8547 	.strz	"MEMMAP_AR_RELEASE_REVISION_VERSION (3u)"
000007b8 5f41525f5245 
000007be 4c454153455f 
000007c4 524556495349 
000007ca 4f4e5f564552 
000007d0 53494f4e2028 
000007d6 33752900 
000007da 01             8548 	.byte	1
000007db 10             8549 	.byte	16
000007dc 4d454d5f4152   8550 	.strz	"MEM_AR_RELEASE_MAJOR_VERSION MEMMAP_AR_RELEASE_MAJOR_VERSION"
000007e2 5f52454c4541 
000007e8 53455f4d414a 
000007ee 4f525f564552 
000007f4 53494f4e204d 
000007fa 454d4d41505f 
00000800 41525f52454c 
00000806 454153455f4d 
0000080c 414a4f525f56 
00000812 455253494f4e 
00000818 00 
00000819 01             8551 	.byte	1
0000081a 11             8552 	.byte	17
0000081b 4d454d5f4152   8553 	.strz	"MEM_AR_RELEASE_MINOR_VERSION MEMMAP_AR_RELEASE_MINOR_VERSION"

                                                                      Page 163
                                                              C:\Users\nhuliyap\AppData\Local\Temp\gh_000091s1.s
00000821 5f52454c4541 
00000827 53455f4d494e 
0000082d 4f525f564552 
00000833 53494f4e204d 
00000839 454d4d41505f 
0000083f 41525f52454c 
00000845 454153455f4d 
0000084b 494e4f525f56 
00000851 455253494f4e 
00000857 00 
00000858 01             8554 	.byte	1
00000859 12             8555 	.byte	18
0000085a 4d454d5f4152   8556 	.strz	"MEM_AR_RELEASE_PATCH_VERSION MEMMAP_AR_RELEASE_REVISION_VERSION"
00000860 5f52454c4541 
00000866 53455f504154 
0000086c 43485f564552 
00000872 53494f4e204d 
00000878 454d4d41505f 
0000087e 41525f52454c 
00000884 454153455f52 
0000088a 45564953494f 
00000890 4e5f56455253 
00000896 494f4e00 
0000089a 01             8557 	.byte	1
0000089b 18             8558 	.byte	24
0000089c 4d454d4d4150   8559 	.strz	"MEMMAP_SW_MAJOR_VERSION (1u)"
000008a2 5f53575f4d41 
000008a8 4a4f525f5645 
000008ae 5253494f4e20 
000008b4 2831752900 
000008b9 01             8560 	.byte	1
000008ba 19             8561 	.byte	25
000008bb 4d454d4d4150   8562 	.strz	"MEMMAP_SW_MINOR_VERSION (11u)"
000008c1 5f53575f4d49 
000008c7 4e4f525f5645 
000008cd 5253494f4e20 
000008d3 283131752900 
000008d9 01             8563 	.byte	1
000008da 1a             8564 	.byte	26
000008db 4d454d4d4150   8565 	.strz	"MEMMAP_SW_PATCH_VERSION (0u)"
000008e1 5f53575f5041 
000008e7 5443485f5645 
000008ed 5253494f4e20 
000008f3 2830752900 
000008f8 01             8566 	.byte	1
000008f9 20             8567 	.byte	32
000008fa 4d454d5f5357   8568 	.strz	"MEM_SW_MAJOR_VERSION MEMMAP_SW_MAJOR_VERSION"
00000900 5f4d414a4f52 
00000906 5f5645525349 
0000090c 4f4e204d454d 
00000912 4d41505f5357 
00000918 5f4d414a4f52 
0000091e 5f5645525349 
00000924 4f4e00 
00000927 01             8569 	.byte	1
00000928 21             8570 	.byte	33
00000929 4d454d5f5357   8571 	.strz	"MEM_SW_MINOR_VERSION MEMMAP_SW_MINOR_VERSION"
0000092f 5f4d494e4f52 
00000935 5f5645525349 
0000093b 4f4e204d454d 
00000941 4d41505f5357 

                                                                      Page 164
                                                              C:\Users\nhuliyap\AppData\Local\Temp\gh_000091s1.s
00000947 5f4d494e4f52 
0000094d 5f5645525349 
00000953 4f4e00 
00000956 01             8572 	.byte	1
00000957 22             8573 	.byte	34
00000958 4d454d5f5357   8574 	.strz	"MEM_SW_PATCH_VERSION MEMMAP_SW_PATCH_VERSION"
0000095e 5f5041544348 
00000964 5f5645525349 
0000096a 4f4e204d454d 
00000970 4d41505f5357 
00000976 5f5041544348 
0000097c 5f5645525349 
00000982 4f4e00 
00000985 01             8575 	.byte	1
00000986 24             8576 	.byte	36
00000987 4d454d4d4150   8577 	.strz	"MEMMAP_ERROR "
0000098d 5f4552524f52 
00000993 2000 
00000995 01             8578 	.byte	1
00000996 9902           8579 	.byte	153,2
00000998 53544f505f53   8580 	.strz	"STOP_SEC_CODE "
0000099e 45435f434f44 
000009a4 452000 
000009a7 03             8581 	.byte	3
000009a8 f403           8582 	.byte	244,3
000009aa 10             8583 	.byte	16
000009ab 04             8584 	.byte	4
000009ac 04             8585 	.byte	4
000009ad 04             8586 	.byte	4
000009ae 03             8587 	.byte	3
000009af 05             8588 	.byte	5
000009b0 11             8589 	.byte	17
000009b1 03             8590 	.byte	3
000009b2 0c             8591 	.byte	12
000009b3 12             8592 	.byte	18
000009b4 04             8593 	.byte	4
000009b5 04             8594 	.byte	4
000009b6 03             8595 	.byte	3
000009b7 08             8596 	.byte	8
000009b8 13             8597 	.byte	19
000009b9 04             8598 	.byte	4
000009ba 04             8599 	.byte	4
000009bb 03             8600 	.byte	3
000009bc 14             8601 	.byte	20
000009bd 14             8602 	.byte	20
000009be 04             8603 	.byte	4
000009bf 01             8604 	.byte	1
000009c0 4a             8605 	.byte	74
000009c1 464c535f5354   8606 	.strz	"FLS_START_SEC_PUBLIC_CODE "
000009c7 4152545f5345 
000009cd 435f5055424c 
000009d3 49435f434f44 
000009d9 452000 
000009dc 03             8607 	.byte	3
000009dd 4b             8608 	.byte	75
000009de 0f             8609 	.byte	15
000009df 01             8610 	.byte	1
000009e0 02             8611 	.byte	2
000009e1 4d454d4d4150   8612 	.strz	"MEMMAP_VENDOR_ID (30u)"
000009e7 5f56454e444f 
000009ed 525f49442028 

                                                                      Page 165
                                                              C:\Users\nhuliyap\AppData\Local\Temp\gh_000091s1.s
000009f3 3330752900 
000009f8 01             8613 	.byte	1
000009f9 08             8614 	.byte	8
000009fa 4d454d4d4150   8615 	.strz	"MEMMAP_AR_RELEASE_MAJOR_VERSION (4u)"
00000a00 5f41525f5245 
00000a06 4c454153455f 
00000a0c 4d414a4f525f 
00000a12 56455253494f 
00000a18 4e2028347529 
00000a1e 00 
00000a1f 01             8616 	.byte	1
00000a20 09             8617 	.byte	9
00000a21 4d454d4d4150   8618 	.strz	"MEMMAP_AR_RELEASE_MINOR_VERSION (0u)"
00000a27 5f41525f5245 
00000a2d 4c454153455f 
00000a33 4d494e4f525f 
00000a39 56455253494f 
00000a3f 4e2028307529 
00000a45 00 
00000a46 01             8619 	.byte	1
00000a47 0a             8620 	.byte	10
00000a48 4d454d4d4150   8621 	.strz	"MEMMAP_AR_RELEASE_REVISION_VERSION (3u)"
00000a4e 5f41525f5245 
00000a54 4c454153455f 
00000a5a 524556495349 
00000a60 4f4e5f564552 
00000a66 53494f4e2028 
00000a6c 33752900 
00000a70 01             8622 	.byte	1
00000a71 10             8623 	.byte	16
00000a72 4d454d5f4152   8624 	.strz	"MEM_AR_RELEASE_MAJOR_VERSION MEMMAP_AR_RELEASE_MAJOR_VERSION"
00000a78 5f52454c4541 
00000a7e 53455f4d414a 
00000a84 4f525f564552 
00000a8a 53494f4e204d 
00000a90 454d4d41505f 
00000a96 41525f52454c 
00000a9c 454153455f4d 
00000aa2 414a4f525f56 
00000aa8 455253494f4e 
00000aae 00 
00000aaf 01             8625 	.byte	1
00000ab0 11             8626 	.byte	17
00000ab1 4d454d5f4152   8627 	.strz	"MEM_AR_RELEASE_MINOR_VERSION MEMMAP_AR_RELEASE_MINOR_VERSION"
00000ab7 5f52454c4541 
00000abd 53455f4d494e 
00000ac3 4f525f564552 
00000ac9 53494f4e204d 
00000acf 454d4d41505f 
00000ad5 41525f52454c 
00000adb 454153455f4d 
00000ae1 494e4f525f56 
00000ae7 455253494f4e 
00000aed 00 
00000aee 01             8628 	.byte	1
00000aef 12             8629 	.byte	18
00000af0 4d454d5f4152   8630 	.strz	"MEM_AR_RELEASE_PATCH_VERSION MEMMAP_AR_RELEASE_REVISION_VERSION"
00000af6 5f52454c4541 
00000afc 53455f504154 
00000b02 43485f564552 
00000b08 53494f4e204d 

                                                                      Page 166
                                                              C:\Users\nhuliyap\AppData\Local\Temp\gh_000091s1.s
00000b0e 454d4d41505f 
00000b14 41525f52454c 
00000b1a 454153455f52 
00000b20 45564953494f 
00000b26 4e5f56455253 
00000b2c 494f4e00 
00000b30 01             8631 	.byte	1
00000b31 18             8632 	.byte	24
00000b32 4d454d4d4150   8633 	.strz	"MEMMAP_SW_MAJOR_VERSION (1u)"
00000b38 5f53575f4d41 
00000b3e 4a4f525f5645 
00000b44 5253494f4e20 
00000b4a 2831752900 
00000b4f 01             8634 	.byte	1
00000b50 19             8635 	.byte	25
00000b51 4d454d4d4150   8636 	.strz	"MEMMAP_SW_MINOR_VERSION (11u)"
00000b57 5f53575f4d49 
00000b5d 4e4f525f5645 
00000b63 5253494f4e20 
00000b69 283131752900 
00000b6f 01             8637 	.byte	1
00000b70 1a             8638 	.byte	26
00000b71 4d454d4d4150   8639 	.strz	"MEMMAP_SW_PATCH_VERSION (0u)"
00000b77 5f53575f5041 
00000b7d 5443485f5645 
00000b83 5253494f4e20 
00000b89 2830752900 
00000b8e 01             8640 	.byte	1
00000b8f 20             8641 	.byte	32
00000b90 4d454d5f5357   8642 	.strz	"MEM_SW_MAJOR_VERSION MEMMAP_SW_MAJOR_VERSION"
00000b96 5f4d414a4f52 
00000b9c 5f5645525349 
00000ba2 4f4e204d454d 
00000ba8 4d41505f5357 
00000bae 5f4d414a4f52 
00000bb4 5f5645525349 
00000bba 4f4e00 
00000bbd 01             8643 	.byte	1
00000bbe 21             8644 	.byte	33
00000bbf 4d454d5f5357   8645 	.strz	"MEM_SW_MINOR_VERSION MEMMAP_SW_MINOR_VERSION"
00000bc5 5f4d494e4f52 
00000bcb 5f5645525349 
00000bd1 4f4e204d454d 
00000bd7 4d41505f5357 
00000bdd 5f4d494e4f52 
00000be3 5f5645525349 
00000be9 4f4e00 
00000bec 01             8646 	.byte	1
00000bed 22             8647 	.byte	34
00000bee 4d454d5f5357   8648 	.strz	"MEM_SW_PATCH_VERSION MEMMAP_SW_PATCH_VERSION"
00000bf4 5f5041544348 
00000bfa 5f5645525349 
00000c00 4f4e204d454d 
00000c06 4d41505f5357 
00000c0c 5f5041544348 
00000c12 5f5645525349 
00000c18 4f4e00 
00000c1b 01             8649 	.byte	1
00000c1c 24             8650 	.byte	36
00000c1d 4d454d4d4150   8651 	.strz	"MEMMAP_ERROR "
00000c23 5f4552524f52 

                                                                      Page 167
                                                              C:\Users\nhuliyap\AppData\Local\Temp\gh_000091s1.s
00000c29 2000 
00000c2b 01             8652 	.byte	1
00000c2c f101           8653 	.byte	241,1
00000c2e 53544152545f   8654 	.strz	"START_SEC_CODE "
00000c34 5345435f434f 
00000c3a 44452000 
00000c3e 03             8655 	.byte	3
00000c3f f403           8656 	.byte	244,3
00000c41 10             8657 	.byte	16
00000c42 01             8658 	.byte	1
00000c43 f307           8659 	.byte	243,7
00000c45 434f44455f53   8660 	.strz	"CODE_SEC_OPEN "
00000c4b 45435f4f5045 
00000c51 4e2000 
00000c54 04             8661 	.byte	4
00000c55 04             8662 	.byte	4
00000c56 01             8663 	.byte	1
00000c57 a501           8664 	.byte	165,1
00000c59 464c535f5354   8665 	.strz	"FLS_STOP_SEC_PUBLIC_CODE "
00000c5f 4f505f534543 
00000c65 5f5055424c49 
00000c6b 435f434f4445 
00000c71 2000 
00000c73 03             8666 	.byte	3
00000c74 a601           8667 	.byte	166,1
00000c76 0f             8668 	.byte	15
00000c77 01             8669 	.byte	1
00000c78 02             8670 	.byte	2
00000c79 4d454d4d4150   8671 	.strz	"MEMMAP_VENDOR_ID (30u)"
00000c7f 5f56454e444f 
00000c85 525f49442028 
00000c8b 3330752900 
00000c90 01             8672 	.byte	1
00000c91 08             8673 	.byte	8
00000c92 4d454d4d4150   8674 	.strz	"MEMMAP_AR_RELEASE_MAJOR_VERSION (4u)"
00000c98 5f41525f5245 
00000c9e 4c454153455f 
00000ca4 4d414a4f525f 
00000caa 56455253494f 
00000cb0 4e2028347529 
00000cb6 00 
00000cb7 01             8675 	.byte	1
00000cb8 09             8676 	.byte	9
00000cb9 4d454d4d4150   8677 	.strz	"MEMMAP_AR_RELEASE_MINOR_VERSION (0u)"
00000cbf 5f41525f5245 
00000cc5 4c454153455f 
00000ccb 4d494e4f525f 
00000cd1 56455253494f 
00000cd7 4e2028307529 
00000cdd 00 
00000cde 01             8678 	.byte	1
00000cdf 0a             8679 	.byte	10
00000ce0 4d454d4d4150   8680 	.strz	"MEMMAP_AR_RELEASE_REVISION_VERSION (3u)"
00000ce6 5f41525f5245 
00000cec 4c454153455f 
00000cf2 524556495349 
00000cf8 4f4e5f564552 
00000cfe 53494f4e2028 
00000d04 33752900 
00000d08 01             8681 	.byte	1
00000d09 10             8682 	.byte	16

                                                                      Page 168
                                                              C:\Users\nhuliyap\AppData\Local\Temp\gh_000091s1.s
00000d0a 4d454d5f4152   8683 	.strz	"MEM_AR_RELEASE_MAJOR_VERSION MEMMAP_AR_RELEASE_MAJOR_VERSION"
00000d10 5f52454c4541 
00000d16 53455f4d414a 
00000d1c 4f525f564552 
00000d22 53494f4e204d 
00000d28 454d4d41505f 
00000d2e 41525f52454c 
00000d34 454153455f4d 
00000d3a 414a4f525f56 
00000d40 455253494f4e 
00000d46 00 
00000d47 01             8684 	.byte	1
00000d48 11             8685 	.byte	17
00000d49 4d454d5f4152   8686 	.strz	"MEM_AR_RELEASE_MINOR_VERSION MEMMAP_AR_RELEASE_MINOR_VERSION"
00000d4f 5f52454c4541 
00000d55 53455f4d494e 
00000d5b 4f525f564552 
00000d61 53494f4e204d 
00000d67 454d4d41505f 
00000d6d 41525f52454c 
00000d73 454153455f4d 
00000d79 494e4f525f56 
00000d7f 455253494f4e 
00000d85 00 
00000d86 01             8687 	.byte	1
00000d87 12             8688 	.byte	18
00000d88 4d454d5f4152   8689 	.strz	"MEM_AR_RELEASE_PATCH_VERSION MEMMAP_AR_RELEASE_REVISION_VERSION"
00000d8e 5f52454c4541 
00000d94 53455f504154 
00000d9a 43485f564552 
00000da0 53494f4e204d 
00000da6 454d4d41505f 
00000dac 41525f52454c 
00000db2 454153455f52 
00000db8 45564953494f 
00000dbe 4e5f56455253 
00000dc4 494f4e00 
00000dc8 01             8690 	.byte	1
00000dc9 18             8691 	.byte	24
00000dca 4d454d4d4150   8692 	.strz	"MEMMAP_SW_MAJOR_VERSION (1u)"
00000dd0 5f53575f4d41 
00000dd6 4a4f525f5645 
00000ddc 5253494f4e20 
00000de2 2831752900 
00000de7 01             8693 	.byte	1
00000de8 19             8694 	.byte	25
00000de9 4d454d4d4150   8695 	.strz	"MEMMAP_SW_MINOR_VERSION (11u)"
00000def 5f53575f4d49 
00000df5 4e4f525f5645 
00000dfb 5253494f4e20 
00000e01 283131752900 
00000e07 01             8696 	.byte	1
00000e08 1a             8697 	.byte	26
00000e09 4d454d4d4150   8698 	.strz	"MEMMAP_SW_PATCH_VERSION (0u)"
00000e0f 5f53575f5041 
00000e15 5443485f5645 
00000e1b 5253494f4e20 
00000e21 2830752900 
00000e26 01             8699 	.byte	1
00000e27 20             8700 	.byte	32
00000e28 4d454d5f5357   8701 	.strz	"MEM_SW_MAJOR_VERSION MEMMAP_SW_MAJOR_VERSION"

                                                                      Page 169
                                                              C:\Users\nhuliyap\AppData\Local\Temp\gh_000091s1.s
00000e2e 5f4d414a4f52 
00000e34 5f5645525349 
00000e3a 4f4e204d454d 
00000e40 4d41505f5357 
00000e46 5f4d414a4f52 
00000e4c 5f5645525349 
00000e52 4f4e00 
00000e55 01             8702 	.byte	1
00000e56 21             8703 	.byte	33
00000e57 4d454d5f5357   8704 	.strz	"MEM_SW_MINOR_VERSION MEMMAP_SW_MINOR_VERSION"
00000e5d 5f4d494e4f52 
00000e63 5f5645525349 
00000e69 4f4e204d454d 
00000e6f 4d41505f5357 
00000e75 5f4d494e4f52 
00000e7b 5f5645525349 
00000e81 4f4e00 
00000e84 01             8705 	.byte	1
00000e85 22             8706 	.byte	34
00000e86 4d454d5f5357   8707 	.strz	"MEM_SW_PATCH_VERSION MEMMAP_SW_PATCH_VERSION"
00000e8c 5f5041544348 
00000e92 5f5645525349 
00000e98 4f4e204d454d 
00000e9e 4d41505f5357 
00000ea4 5f5041544348 
00000eaa 5f5645525349 
00000eb0 4f4e00 
00000eb3 01             8708 	.byte	1
00000eb4 24             8709 	.byte	36
00000eb5 4d454d4d4150   8710 	.strz	"MEMMAP_ERROR "
00000ebb 5f4552524f52 
00000ec1 2000 
00000ec3 01             8711 	.byte	1
00000ec4 f501           8712 	.byte	245,1
00000ec6 53544f505f53   8713 	.strz	"STOP_SEC_CODE "
00000ecc 45435f434f44 
00000ed2 452000 
00000ed5 03             8714 	.byte	3
00000ed6 f403           8715 	.byte	244,3
00000ed8 10             8716 	.byte	16
00000ed9 04             8717 	.byte	4
00000eda 04             8718 	.byte	4
00000edb 01             8719 	.byte	1
00000edc a801           8720 	.byte	168,1
00000ede 464c535f5354   8721 	.strz	"FLS_START_SEC_DBTOC_DATA_UNSPECIFIED "
00000ee4 4152545f5345 
00000eea 435f4442544f 
00000ef0 435f44415441 
00000ef6 5f554e535045 
00000efc 434946494544 
00000f02 2000 
00000f04 03             8722 	.byte	3
00000f05 a901           8723 	.byte	169,1
00000f07 0f             8724 	.byte	15
00000f08 01             8725 	.byte	1
00000f09 02             8726 	.byte	2
00000f0a 4d454d4d4150   8727 	.strz	"MEMMAP_VENDOR_ID (30u)"
00000f10 5f56454e444f 
00000f16 525f49442028 
00000f1c 3330752900 
00000f21 01             8728 	.byte	1

                                                                      Page 170
                                                              C:\Users\nhuliyap\AppData\Local\Temp\gh_000091s1.s
00000f22 08             8729 	.byte	8
00000f23 4d454d4d4150   8730 	.strz	"MEMMAP_AR_RELEASE_MAJOR_VERSION (4u)"
00000f29 5f41525f5245 
00000f2f 4c454153455f 
00000f35 4d414a4f525f 
00000f3b 56455253494f 
00000f41 4e2028347529 
00000f47 00 
00000f48 01             8731 	.byte	1
00000f49 09             8732 	.byte	9
00000f4a 4d454d4d4150   8733 	.strz	"MEMMAP_AR_RELEASE_MINOR_VERSION (0u)"
00000f50 5f41525f5245 
00000f56 4c454153455f 
00000f5c 4d494e4f525f 
00000f62 56455253494f 
00000f68 4e2028307529 
00000f6e 00 
00000f6f 01             8734 	.byte	1
00000f70 0a             8735 	.byte	10
00000f71 4d454d4d4150   8736 	.strz	"MEMMAP_AR_RELEASE_REVISION_VERSION (3u)"
00000f77 5f41525f5245 
00000f7d 4c454153455f 
00000f83 524556495349 
00000f89 4f4e5f564552 
00000f8f 53494f4e2028 
00000f95 33752900 
00000f99 01             8737 	.byte	1
00000f9a 10             8738 	.byte	16
00000f9b 4d454d5f4152   8739 	.strz	"MEM_AR_RELEASE_MAJOR_VERSION MEMMAP_AR_RELEASE_MAJOR_VERSION"
00000fa1 5f52454c4541 
00000fa7 53455f4d414a 
00000fad 4f525f564552 
00000fb3 53494f4e204d 
00000fb9 454d4d41505f 
00000fbf 41525f52454c 
00000fc5 454153455f4d 
00000fcb 414a4f525f56 
00000fd1 455253494f4e 
00000fd7 00 
00000fd8 01             8740 	.byte	1
00000fd9 11             8741 	.byte	17
00000fda 4d454d5f4152   8742 	.strz	"MEM_AR_RELEASE_MINOR_VERSION MEMMAP_AR_RELEASE_MINOR_VERSION"
00000fe0 5f52454c4541 
00000fe6 53455f4d494e 
00000fec 4f525f564552 
00000ff2 53494f4e204d 
00000ff8 454d4d41505f 
00000ffe 41525f52454c 
00001004 454153455f4d 
0000100a 494e4f525f56 
00001010 455253494f4e 
00001016 00 
00001017 01             8743 	.byte	1
00001018 12             8744 	.byte	18
00001019 4d454d5f4152   8745 	.strz	"MEM_AR_RELEASE_PATCH_VERSION MEMMAP_AR_RELEASE_REVISION_VERSION"
0000101f 5f52454c4541 
00001025 53455f504154 
0000102b 43485f564552 
00001031 53494f4e204d 
00001037 454d4d41505f 
0000103d 41525f52454c 

                                                                      Page 171
                                                              C:\Users\nhuliyap\AppData\Local\Temp\gh_000091s1.s
00001043 454153455f52 
00001049 45564953494f 
0000104f 4e5f56455253 
00001055 494f4e00 
00001059 01             8746 	.byte	1
0000105a 18             8747 	.byte	24
0000105b 4d454d4d4150   8748 	.strz	"MEMMAP_SW_MAJOR_VERSION (1u)"
00001061 5f53575f4d41 
00001067 4a4f525f5645 
0000106d 5253494f4e20 
00001073 2831752900 
00001078 01             8749 	.byte	1
00001079 19             8750 	.byte	25
0000107a 4d454d4d4150   8751 	.strz	"MEMMAP_SW_MINOR_VERSION (11u)"
00001080 5f53575f4d49 
00001086 4e4f525f5645 
0000108c 5253494f4e20 
00001092 283131752900 
00001098 01             8752 	.byte	1
00001099 1a             8753 	.byte	26
0000109a 4d454d4d4150   8754 	.strz	"MEMMAP_SW_PATCH_VERSION (0u)"
000010a0 5f53575f5041 
000010a6 5443485f5645 
000010ac 5253494f4e20 
000010b2 2830752900 
000010b7 01             8755 	.byte	1
000010b8 20             8756 	.byte	32
000010b9 4d454d5f5357   8757 	.strz	"MEM_SW_MAJOR_VERSION MEMMAP_SW_MAJOR_VERSION"
000010bf 5f4d414a4f52 
000010c5 5f5645525349 
000010cb 4f4e204d454d 
000010d1 4d41505f5357 
000010d7 5f4d414a4f52 
000010dd 5f5645525349 
000010e3 4f4e00 
000010e6 01             8758 	.byte	1
000010e7 21             8759 	.byte	33
000010e8 4d454d5f5357   8760 	.strz	"MEM_SW_MINOR_VERSION MEMMAP_SW_MINOR_VERSION"
000010ee 5f4d494e4f52 
000010f4 5f5645525349 
000010fa 4f4e204d454d 
00001100 4d41505f5357 
00001106 5f4d494e4f52 
0000110c 5f5645525349 
00001112 4f4e00 
00001115 01             8761 	.byte	1
00001116 22             8762 	.byte	34
00001117 4d454d5f5357   8763 	.strz	"MEM_SW_PATCH_VERSION MEMMAP_SW_PATCH_VERSION"
0000111d 5f5041544348 
00001123 5f5645525349 
00001129 4f4e204d454d 
0000112f 4d41505f5357 
00001135 5f5041544348 
0000113b 5f5645525349 
00001141 4f4e00 
00001144 01             8764 	.byte	1
00001145 24             8765 	.byte	36
00001146 4d454d4d4150   8766 	.strz	"MEMMAP_ERROR "
0000114c 5f4552524f52 
00001152 2000 
00001154 01             8767 	.byte	1

                                                                      Page 172
                                                              C:\Users\nhuliyap\AppData\Local\Temp\gh_000091s1.s
00001155 dd02           8768 	.byte	221,2
00001157 53544152545f   8769 	.strz	"START_SEC_CONST_UNSPECIFIED "
0000115d 5345435f434f 
00001163 4e53545f554e 
00001169 535045434946 
0000116f 4945442000 
00001174 03             8770 	.byte	3
00001175 f403           8771 	.byte	244,3
00001177 10             8772 	.byte	16
00001178 01             8773 	.byte	1
00001179 b408           8774 	.byte	180,8
0000117b 434f4e53545f   8775 	.strz	"CONST_SEC_OPEN "
00001181 5345435f4f50 
00001187 454e2000 
0000118b 04             8776 	.byte	4
0000118c 04             8777 	.byte	4
0000118d 01             8778 	.byte	1
0000118e ab01           8779 	.byte	171,1
00001190 464c535f5354   8780 	.strz	"FLS_STOP_SEC_DBTOC_DATA_UNSPECIFIED "
00001196 4f505f534543 
0000119c 5f4442544f43 
000011a2 5f444154415f 
000011a8 554e53504543 
000011ae 494649454420 
000011b4 00 
000011b5 03             8781 	.byte	3
000011b6 ac01           8782 	.byte	172,1
000011b8 0f             8783 	.byte	15
000011b9 01             8784 	.byte	1
000011ba 02             8785 	.byte	2
000011bb 4d454d4d4150   8786 	.strz	"MEMMAP_VENDOR_ID (30u)"
000011c1 5f56454e444f 
000011c7 525f49442028 
000011cd 3330752900 
000011d2 01             8787 	.byte	1
000011d3 08             8788 	.byte	8
000011d4 4d454d4d4150   8789 	.strz	"MEMMAP_AR_RELEASE_MAJOR_VERSION (4u)"
000011da 5f41525f5245 
000011e0 4c454153455f 
000011e6 4d414a4f525f 
000011ec 56455253494f 
000011f2 4e2028347529 
000011f8 00 
000011f9 01             8790 	.byte	1
000011fa 09             8791 	.byte	9
000011fb 4d454d4d4150   8792 	.strz	"MEMMAP_AR_RELEASE_MINOR_VERSION (0u)"
00001201 5f41525f5245 
00001207 4c454153455f 
0000120d 4d494e4f525f 
00001213 56455253494f 
00001219 4e2028307529 
0000121f 00 
00001220 01             8793 	.byte	1
00001221 0a             8794 	.byte	10
00001222 4d454d4d4150   8795 	.strz	"MEMMAP_AR_RELEASE_REVISION_VERSION (3u)"
00001228 5f41525f5245 
0000122e 4c454153455f 
00001234 524556495349 
0000123a 4f4e5f564552 
00001240 53494f4e2028 
00001246 33752900 

                                                                      Page 173
                                                              C:\Users\nhuliyap\AppData\Local\Temp\gh_000091s1.s
0000124a 01             8796 	.byte	1
0000124b 10             8797 	.byte	16
0000124c 4d454d5f4152   8798 	.strz	"MEM_AR_RELEASE_MAJOR_VERSION MEMMAP_AR_RELEASE_MAJOR_VERSION"
00001252 5f52454c4541 
00001258 53455f4d414a 
0000125e 4f525f564552 
00001264 53494f4e204d 
0000126a 454d4d41505f 
00001270 41525f52454c 
00001276 454153455f4d 
0000127c 414a4f525f56 
00001282 455253494f4e 
00001288 00 
00001289 01             8799 	.byte	1
0000128a 11             8800 	.byte	17
0000128b 4d454d5f4152   8801 	.strz	"MEM_AR_RELEASE_MINOR_VERSION MEMMAP_AR_RELEASE_MINOR_VERSION"
00001291 5f52454c4541 
00001297 53455f4d494e 
0000129d 4f525f564552 
000012a3 53494f4e204d 
000012a9 454d4d41505f 
000012af 41525f52454c 
000012b5 454153455f4d 
000012bb 494e4f525f56 
000012c1 455253494f4e 
000012c7 00 
000012c8 01             8802 	.byte	1
000012c9 12             8803 	.byte	18
000012ca 4d454d5f4152   8804 	.strz	"MEM_AR_RELEASE_PATCH_VERSION MEMMAP_AR_RELEASE_REVISION_VERSION"
000012d0 5f52454c4541 
000012d6 53455f504154 
000012dc 43485f564552 
000012e2 53494f4e204d 
000012e8 454d4d41505f 
000012ee 41525f52454c 
000012f4 454153455f52 
000012fa 45564953494f 
00001300 4e5f56455253 
00001306 494f4e00 
0000130a 01             8805 	.byte	1
0000130b 18             8806 	.byte	24
0000130c 4d454d4d4150   8807 	.strz	"MEMMAP_SW_MAJOR_VERSION (1u)"
00001312 5f53575f4d41 
00001318 4a4f525f5645 
0000131e 5253494f4e20 
00001324 2831752900 
00001329 01             8808 	.byte	1
0000132a 19             8809 	.byte	25
0000132b 4d454d4d4150   8810 	.strz	"MEMMAP_SW_MINOR_VERSION (11u)"
00001331 5f53575f4d49 
00001337 4e4f525f5645 
0000133d 5253494f4e20 
00001343 283131752900 
00001349 01             8811 	.byte	1
0000134a 1a             8812 	.byte	26
0000134b 4d454d4d4150   8813 	.strz	"MEMMAP_SW_PATCH_VERSION (0u)"
00001351 5f53575f5041 
00001357 5443485f5645 
0000135d 5253494f4e20 
00001363 2830752900 
00001368 01             8814 	.byte	1

                                                                      Page 174
                                                              C:\Users\nhuliyap\AppData\Local\Temp\gh_000091s1.s
00001369 20             8815 	.byte	32
0000136a 4d454d5f5357   8816 	.strz	"MEM_SW_MAJOR_VERSION MEMMAP_SW_MAJOR_VERSION"
00001370 5f4d414a4f52 
00001376 5f5645525349 
0000137c 4f4e204d454d 
00001382 4d41505f5357 
00001388 5f4d414a4f52 
0000138e 5f5645525349 
00001394 4f4e00 
00001397 01             8817 	.byte	1
00001398 21             8818 	.byte	33
00001399 4d454d5f5357   8819 	.strz	"MEM_SW_MINOR_VERSION MEMMAP_SW_MINOR_VERSION"
0000139f 5f4d494e4f52 
000013a5 5f5645525349 
000013ab 4f4e204d454d 
000013b1 4d41505f5357 
000013b7 5f4d494e4f52 
000013bd 5f5645525349 
000013c3 4f4e00 
000013c6 01             8820 	.byte	1
000013c7 22             8821 	.byte	34
000013c8 4d454d5f5357   8822 	.strz	"MEM_SW_PATCH_VERSION MEMMAP_SW_PATCH_VERSION"
000013ce 5f5041544348 
000013d4 5f5645525349 
000013da 4f4e204d454d 
000013e0 4d41505f5357 
000013e6 5f5041544348 
000013ec 5f5645525349 
000013f2 4f4e00 
000013f5 01             8823 	.byte	1
000013f6 24             8824 	.byte	36
000013f7 4d454d4d4150   8825 	.strz	"MEMMAP_ERROR "
000013fd 5f4552524f52 
00001403 2000 
00001405 01             8826 	.byte	1
00001406 e102           8827 	.byte	225,2
00001408 53544f505f53   8828 	.strz	"STOP_SEC_CONST "
0000140e 45435f434f4e 
00001414 53542000 
00001418 03             8829 	.byte	3
00001419 f403           8830 	.byte	244,3
0000141b 10             8831 	.byte	16
0000141c 04             8832 	.byte	4
0000141d 04             8833 	.byte	4
0000141e 04             8834 	.byte	4
0000141f 01             8835 	.byte	1
00001420 64             8836 	.byte	100
00001421 4645455f3330   8837 	.strz	"FEE_30_SMALLSECTOR_CORRECT_SINGLE_BIT_FLIPS (STD_OFF)"
00001427 5f534d414c4c 
0000142d 534543544f52 
00001433 5f434f525245 
00001439 43545f53494e 
0000143f 474c455f4249 
00001445 545f464c4950 
0000144b 532028535444 
00001451 5f4f46462900 
00001457 01             8838 	.byte	1
00001458 65             8839 	.byte	101
00001459 4645455f3330   8840 	.strz	"FEE_30_SMALLSECTOR_MANAGEMENT_SIZE (1U)"
0000145f 5f534d414c4c 
00001465 534543544f52 

                                                                      Page 175
                                                              C:\Users\nhuliyap\AppData\Local\Temp\gh_000091s1.s
0000146b 5f4d414e4147 
00001471 454d454e545f 
00001477 53495a452028 
0000147d 31552900 
00001481 01             8841 	.byte	1
00001482 66             8842 	.byte	102
00001483 4645455f3330   8843 	.strz	"FEE_30_SMALLSECTOR_MAX_BLOCKS_PER_PARTITION (13U)"
00001489 5f534d414c4c 
0000148f 534543544f52 
00001495 5f4d41585f42 
0000149b 4c4f434b535f 
000014a1 5045525f5041 
000014a7 52544954494f 
000014ad 4e2028313355 
000014b3 2900 
000014b5 01             8844 	.byte	1
000014b6 67             8845 	.byte	103
000014b7 4645455f3330   8846 	.strz	"FEE_30_SMALLSECTOR_NUMBER_OF_PARTITIONS (3U)"
000014bd 5f534d414c4c 
000014c3 534543544f52 
000014c9 5f4e554d4245 
000014cf 525f4f465f50 
000014d5 415254495449 
000014db 4f4e53202833 
000014e1 552900 
000014e4 01             8847 	.byte	1
000014e5 68             8848 	.byte	104
000014e6 4645455f3330   8849 	.strz	"FEE_30_SMALLSECTOR_NUMBER_OF_BLOCKS (26U)"
000014ec 5f534d414c4c 
000014f2 534543544f52 
000014f8 5f4e554d4245 
000014fe 525f4f465f42 
00001504 4c4f434b5320 
0000150a 283236552900 
00001510 01             8850 	.byte	1
00001511 69             8851 	.byte	105
00001512 4645455f3330   8852 	.strz	"FEE_30_SMALLSECTOR_MAX_WRITE_ALIGNMENT (8U)"
00001518 5f534d414c4c 
0000151e 534543544f52 
00001524 5f4d41585f57 
0000152a 524954455f41 
00001530 4c49474e4d45 
00001536 4e5420283855 
0000153c 2900 
0000153e 01             8853 	.byte	1
0000153f 6a             8854 	.byte	106
00001540 4645455f3330   8855 	.strz	"FEE_30_SMALLSECTOR_MAX_READ_SIZE (24U)"
00001546 5f534d414c4c 
0000154c 534543544f52 
00001552 5f4d41585f52 
00001558 4541445f5349 
0000155e 5a4520283234 
00001564 552900 
00001567 01             8856 	.byte	1
00001568 6c             8857 	.byte	108
00001569 4645455f3330   8858 	.strz	"FEE_30_SMALLSECTOR_STATIC_PATTERN (0xAAU)"
0000156f 5f534d414c4c 
00001575 534543544f52 
0000157b 5f5354415449 
00001581 435f50415454 
00001587 45524e202830 

                                                                      Page 176
                                                              C:\Users\nhuliyap\AppData\Local\Temp\gh_000091s1.s
0000158d 784141552900 
00001593 01             8859 	.byte	1
00001594 9f01           8860 	.byte	159,1
00001596 4645455f3330   8861 	.strz	"FEE_30_SMALLSECTOR_START_SEC_CONST_8BIT "
0000159c 5f534d414c4c 
000015a2 534543544f52 
000015a8 5f5354415254 
000015ae 5f5345435f43 
000015b4 4f4e53545f38 
000015ba 4249542000 
000015bf 03             8862 	.byte	3
000015c0 a001           8863 	.byte	160,1
000015c2 0f             8864 	.byte	15
000015c3 01             8865 	.byte	1
000015c4 02             8866 	.byte	2
000015c5 4d454d4d4150   8867 	.strz	"MEMMAP_VENDOR_ID (30u)"
000015cb 5f56454e444f 
000015d1 525f49442028 
000015d7 3330752900 
000015dc 01             8868 	.byte	1
000015dd 08             8869 	.byte	8
000015de 4d454d4d4150   8870 	.strz	"MEMMAP_AR_RELEASE_MAJOR_VERSION (4u)"
000015e4 5f41525f5245 
000015ea 4c454153455f 
000015f0 4d414a4f525f 
000015f6 56455253494f 
000015fc 4e2028347529 
00001602 00 
00001603 01             8871 	.byte	1
00001604 09             8872 	.byte	9
00001605 4d454d4d4150   8873 	.strz	"MEMMAP_AR_RELEASE_MINOR_VERSION (0u)"
0000160b 5f41525f5245 
00001611 4c454153455f 
00001617 4d494e4f525f 
0000161d 56455253494f 
00001623 4e2028307529 
00001629 00 
0000162a 01             8874 	.byte	1
0000162b 0a             8875 	.byte	10
0000162c 4d454d4d4150   8876 	.strz	"MEMMAP_AR_RELEASE_REVISION_VERSION (3u)"
00001632 5f41525f5245 
00001638 4c454153455f 
0000163e 524556495349 
00001644 4f4e5f564552 
0000164a 53494f4e2028 
00001650 33752900 
00001654 01             8877 	.byte	1
00001655 10             8878 	.byte	16
00001656 4d454d5f4152   8879 	.strz	"MEM_AR_RELEASE_MAJOR_VERSION MEMMAP_AR_RELEASE_MAJOR_VERSION"
0000165c 5f52454c4541 
00001662 53455f4d414a 
00001668 4f525f564552 
0000166e 53494f4e204d 
00001674 454d4d41505f 
0000167a 41525f52454c 
00001680 454153455f4d 
00001686 414a4f525f56 
0000168c 455253494f4e 
00001692 00 
00001693 01             8880 	.byte	1
00001694 11             8881 	.byte	17

                                                                      Page 177
                                                              C:\Users\nhuliyap\AppData\Local\Temp\gh_000091s1.s
00001695 4d454d5f4152   8882 	.strz	"MEM_AR_RELEASE_MINOR_VERSION MEMMAP_AR_RELEASE_MINOR_VERSION"
0000169b 5f52454c4541 
000016a1 53455f4d494e 
000016a7 4f525f564552 
000016ad 53494f4e204d 
000016b3 454d4d41505f 
000016b9 41525f52454c 
000016bf 454153455f4d 
000016c5 494e4f525f56 
000016cb 455253494f4e 
000016d1 00 
000016d2 01             8883 	.byte	1
000016d3 12             8884 	.byte	18
000016d4 4d454d5f4152   8885 	.strz	"MEM_AR_RELEASE_PATCH_VERSION MEMMAP_AR_RELEASE_REVISION_VERSION"
000016da 5f52454c4541 
000016e0 53455f504154 
000016e6 43485f564552 
000016ec 53494f4e204d 
000016f2 454d4d41505f 
000016f8 41525f52454c 
000016fe 454153455f52 
00001704 45564953494f 
0000170a 4e5f56455253 
00001710 494f4e00 
00001714 01             8886 	.byte	1
00001715 18             8887 	.byte	24
00001716 4d454d4d4150   8888 	.strz	"MEMMAP_SW_MAJOR_VERSION (1u)"
0000171c 5f53575f4d41 
00001722 4a4f525f5645 
00001728 5253494f4e20 
0000172e 2831752900 
00001733 01             8889 	.byte	1
00001734 19             8890 	.byte	25
00001735 4d454d4d4150   8891 	.strz	"MEMMAP_SW_MINOR_VERSION (11u)"
0000173b 5f53575f4d49 
00001741 4e4f525f5645 
00001747 5253494f4e20 
0000174d 283131752900 
00001753 01             8892 	.byte	1
00001754 1a             8893 	.byte	26
00001755 4d454d4d4150   8894 	.strz	"MEMMAP_SW_PATCH_VERSION (0u)"
0000175b 5f53575f5041 
00001761 5443485f5645 
00001767 5253494f4e20 
0000176d 2830752900 
00001772 01             8895 	.byte	1
00001773 20             8896 	.byte	32
00001774 4d454d5f5357   8897 	.strz	"MEM_SW_MAJOR_VERSION MEMMAP_SW_MAJOR_VERSION"
0000177a 5f4d414a4f52 
00001780 5f5645525349 
00001786 4f4e204d454d 
0000178c 4d41505f5357 
00001792 5f4d414a4f52 
00001798 5f5645525349 
0000179e 4f4e00 
000017a1 01             8898 	.byte	1
000017a2 21             8899 	.byte	33
000017a3 4d454d5f5357   8900 	.strz	"MEM_SW_MINOR_VERSION MEMMAP_SW_MINOR_VERSION"
000017a9 5f4d494e4f52 
000017af 5f5645525349 
000017b5 4f4e204d454d 

                                                                      Page 178
                                                              C:\Users\nhuliyap\AppData\Local\Temp\gh_000091s1.s
000017bb 4d41505f5357 
000017c1 5f4d494e4f52 
000017c7 5f5645525349 
000017cd 4f4e00 
000017d0 01             8901 	.byte	1
000017d1 22             8902 	.byte	34
000017d2 4d454d5f5357   8903 	.strz	"MEM_SW_PATCH_VERSION MEMMAP_SW_PATCH_VERSION"
000017d8 5f5041544348 
000017de 5f5645525349 
000017e4 4f4e204d454d 
000017ea 4d41505f5357 
000017f0 5f5041544348 
000017f6 5f5645525349 
000017fc 4f4e00 
000017ff 01             8904 	.byte	1
00001800 24             8905 	.byte	36
00001801 4d454d4d4150   8906 	.strz	"MEMMAP_ERROR "
00001807 5f4552524f52 
0000180d 2000 
0000180f 01             8907 	.byte	1
00001810 3a             8908 	.byte	58
00001811 53544152545f   8909 	.strz	"START_SEC_CONST_8BIT "
00001817 5345435f434f 
0000181d 4e53545f3842 
00001823 49542000 
00001827 03             8910 	.byte	3
00001828 f403           8911 	.byte	244,3
0000182a 10             8912 	.byte	16
0000182b 01             8913 	.byte	1
0000182c 8f08           8914 	.byte	143,8
0000182e 434f4e53545f   8915 	.strz	"CONST_SEC_OPEN "
00001834 5345435f4f50 
0000183a 454e2000 
0000183e 04             8916 	.byte	4
0000183f 04             8917 	.byte	4
00001840 01             8918 	.byte	1
00001841 a401           8919 	.byte	164,1
00001843 4645455f3330   8920 	.strz	"FEE_30_SMALLSECTOR_STOP_SEC_CONST_8BIT "
00001849 5f534d414c4c 
0000184f 534543544f52 
00001855 5f53544f505f 
0000185b 5345435f434f 
00001861 4e53545f3842 
00001867 49542000 
0000186b 03             8921 	.byte	3
0000186c a501           8922 	.byte	165,1
0000186e 0f             8923 	.byte	15
0000186f 01             8924 	.byte	1
00001870 02             8925 	.byte	2
00001871 4d454d4d4150   8926 	.strz	"MEMMAP_VENDOR_ID (30u)"
00001877 5f56454e444f 
0000187d 525f49442028 
00001883 3330752900 
00001888 01             8927 	.byte	1
00001889 08             8928 	.byte	8
0000188a 4d454d4d4150   8929 	.strz	"MEMMAP_AR_RELEASE_MAJOR_VERSION (4u)"
00001890 5f41525f5245 
00001896 4c454153455f 
0000189c 4d414a4f525f 
000018a2 56455253494f 
000018a8 4e2028347529 

                                                                      Page 179
                                                              C:\Users\nhuliyap\AppData\Local\Temp\gh_000091s1.s
000018ae 00 
000018af 01             8930 	.byte	1
000018b0 09             8931 	.byte	9
000018b1 4d454d4d4150   8932 	.strz	"MEMMAP_AR_RELEASE_MINOR_VERSION (0u)"
000018b7 5f41525f5245 
000018bd 4c454153455f 
000018c3 4d494e4f525f 
000018c9 56455253494f 
000018cf 4e2028307529 
000018d5 00 
000018d6 01             8933 	.byte	1
000018d7 0a             8934 	.byte	10
000018d8 4d454d4d4150   8935 	.strz	"MEMMAP_AR_RELEASE_REVISION_VERSION (3u)"
000018de 5f41525f5245 
000018e4 4c454153455f 
000018ea 524556495349 
000018f0 4f4e5f564552 
000018f6 53494f4e2028 
000018fc 33752900 
00001900 01             8936 	.byte	1
00001901 10             8937 	.byte	16
00001902 4d454d5f4152   8938 	.strz	"MEM_AR_RELEASE_MAJOR_VERSION MEMMAP_AR_RELEASE_MAJOR_VERSION"
00001908 5f52454c4541 
0000190e 53455f4d414a 
00001914 4f525f564552 
0000191a 53494f4e204d 
00001920 454d4d41505f 
00001926 41525f52454c 
0000192c 454153455f4d 
00001932 414a4f525f56 
00001938 455253494f4e 
0000193e 00 
0000193f 01             8939 	.byte	1
00001940 11             8940 	.byte	17
00001941 4d454d5f4152   8941 	.strz	"MEM_AR_RELEASE_MINOR_VERSION MEMMAP_AR_RELEASE_MINOR_VERSION"
00001947 5f52454c4541 
0000194d 53455f4d494e 
00001953 4f525f564552 
00001959 53494f4e204d 
0000195f 454d4d41505f 
00001965 41525f52454c 
0000196b 454153455f4d 
00001971 494e4f525f56 
00001977 455253494f4e 
0000197d 00 
0000197e 01             8942 	.byte	1
0000197f 12             8943 	.byte	18
00001980 4d454d5f4152   8944 	.strz	"MEM_AR_RELEASE_PATCH_VERSION MEMMAP_AR_RELEASE_REVISION_VERSION"
00001986 5f52454c4541 
0000198c 53455f504154 
00001992 43485f564552 
00001998 53494f4e204d 
0000199e 454d4d41505f 
000019a4 41525f52454c 
000019aa 454153455f52 
000019b0 45564953494f 
000019b6 4e5f56455253 
000019bc 494f4e00 
000019c0 01             8945 	.byte	1
000019c1 18             8946 	.byte	24
000019c2 4d454d4d4150   8947 	.strz	"MEMMAP_SW_MAJOR_VERSION (1u)"

                                                                      Page 180
                                                              C:\Users\nhuliyap\AppData\Local\Temp\gh_000091s1.s
000019c8 5f53575f4d41 
000019ce 4a4f525f5645 
000019d4 5253494f4e20 
000019da 2831752900 
000019df 01             8948 	.byte	1
000019e0 19             8949 	.byte	25
000019e1 4d454d4d4150   8950 	.strz	"MEMMAP_SW_MINOR_VERSION (11u)"
000019e7 5f53575f4d49 
000019ed 4e4f525f5645 
000019f3 5253494f4e20 
000019f9 283131752900 
000019ff 01             8951 	.byte	1
00001a00 1a             8952 	.byte	26
00001a01 4d454d4d4150   8953 	.strz	"MEMMAP_SW_PATCH_VERSION (0u)"
00001a07 5f53575f5041 
00001a0d 5443485f5645 
00001a13 5253494f4e20 
00001a19 2830752900 
00001a1e 01             8954 	.byte	1
00001a1f 20             8955 	.byte	32
00001a20 4d454d5f5357   8956 	.strz	"MEM_SW_MAJOR_VERSION MEMMAP_SW_MAJOR_VERSION"
00001a26 5f4d414a4f52 
00001a2c 5f5645525349 
00001a32 4f4e204d454d 
00001a38 4d41505f5357 
00001a3e 5f4d414a4f52 
00001a44 5f5645525349 
00001a4a 4f4e00 
00001a4d 01             8957 	.byte	1
00001a4e 21             8958 	.byte	33
00001a4f 4d454d5f5357   8959 	.strz	"MEM_SW_MINOR_VERSION MEMMAP_SW_MINOR_VERSION"
00001a55 5f4d494e4f52 
00001a5b 5f5645525349 
00001a61 4f4e204d454d 
00001a67 4d41505f5357 
00001a6d 5f4d494e4f52 
00001a73 5f5645525349 
00001a79 4f4e00 
00001a7c 01             8960 	.byte	1
00001a7d 22             8961 	.byte	34
00001a7e 4d454d5f5357   8962 	.strz	"MEM_SW_PATCH_VERSION MEMMAP_SW_PATCH_VERSION"
00001a84 5f5041544348 
00001a8a 5f5645525349 
00001a90 4f4e204d454d 
00001a96 4d41505f5357 
00001a9c 5f5041544348 
00001aa2 5f5645525349 
00001aa8 4f4e00 
00001aab 01             8963 	.byte	1
00001aac 24             8964 	.byte	36
00001aad 4d454d4d4150   8965 	.strz	"MEMMAP_ERROR "
00001ab3 5f4552524f52 
00001ab9 2000 
00001abb 01             8966 	.byte	1
00001abc 3e             8967 	.byte	62
00001abd 53544f505f53   8968 	.strz	"STOP_SEC_CONST "
00001ac3 45435f434f4e 
00001ac9 53542000 
00001acd 03             8969 	.byte	3
00001ace f403           8970 	.byte	244,3
00001ad0 10             8971 	.byte	16

                                                                      Page 181
                                                              C:\Users\nhuliyap\AppData\Local\Temp\gh_000091s1.s
00001ad1 04             8972 	.byte	4
00001ad2 04             8973 	.byte	4
00001ad3 01             8974 	.byte	1
00001ad4 a701           8975 	.byte	167,1
00001ad6 4645455f3330   8976 	.strz	"FEE_30_SMALLSECTOR_START_SEC_CONST_UNSPECIFIED "
00001adc 5f534d414c4c 
00001ae2 534543544f52 
00001ae8 5f5354415254 
00001aee 5f5345435f43 
00001af4 4f4e53545f55 
00001afa 4e5350454349 
00001b00 464945442000 
00001b06 03             8977 	.byte	3
00001b07 a801           8978 	.byte	168,1
00001b09 0f             8979 	.byte	15
00001b0a 01             8980 	.byte	1
00001b0b 02             8981 	.byte	2
00001b0c 4d454d4d4150   8982 	.strz	"MEMMAP_VENDOR_ID (30u)"
00001b12 5f56454e444f 
00001b18 525f49442028 
00001b1e 3330752900 
00001b23 01             8983 	.byte	1
00001b24 08             8984 	.byte	8
00001b25 4d454d4d4150   8985 	.strz	"MEMMAP_AR_RELEASE_MAJOR_VERSION (4u)"
00001b2b 5f41525f5245 
00001b31 4c454153455f 
00001b37 4d414a4f525f 
00001b3d 56455253494f 
00001b43 4e2028347529 
00001b49 00 
00001b4a 01             8986 	.byte	1
00001b4b 09             8987 	.byte	9
00001b4c 4d454d4d4150   8988 	.strz	"MEMMAP_AR_RELEASE_MINOR_VERSION (0u)"
00001b52 5f41525f5245 
00001b58 4c454153455f 
00001b5e 4d494e4f525f 
00001b64 56455253494f 
00001b6a 4e2028307529 
00001b70 00 
00001b71 01             8989 	.byte	1
00001b72 0a             8990 	.byte	10
00001b73 4d454d4d4150   8991 	.strz	"MEMMAP_AR_RELEASE_REVISION_VERSION (3u)"
00001b79 5f41525f5245 
00001b7f 4c454153455f 
00001b85 524556495349 
00001b8b 4f4e5f564552 
00001b91 53494f4e2028 
00001b97 33752900 
00001b9b 01             8992 	.byte	1
00001b9c 10             8993 	.byte	16
00001b9d 4d454d5f4152   8994 	.strz	"MEM_AR_RELEASE_MAJOR_VERSION MEMMAP_AR_RELEASE_MAJOR_VERSION"
00001ba3 5f52454c4541 
00001ba9 53455f4d414a 
00001baf 4f525f564552 
00001bb5 53494f4e204d 
00001bbb 454d4d41505f 
00001bc1 41525f52454c 
00001bc7 454153455f4d 
00001bcd 414a4f525f56 
00001bd3 455253494f4e 
00001bd9 00 

                                                                      Page 182
                                                              C:\Users\nhuliyap\AppData\Local\Temp\gh_000091s1.s
00001bda 01             8995 	.byte	1
00001bdb 11             8996 	.byte	17
00001bdc 4d454d5f4152   8997 	.strz	"MEM_AR_RELEASE_MINOR_VERSION MEMMAP_AR_RELEASE_MINOR_VERSION"
00001be2 5f52454c4541 
00001be8 53455f4d494e 
00001bee 4f525f564552 
00001bf4 53494f4e204d 
00001bfa 454d4d41505f 
00001c00 41525f52454c 
00001c06 454153455f4d 
00001c0c 494e4f525f56 
00001c12 455253494f4e 
00001c18 00 
00001c19 01             8998 	.byte	1
00001c1a 12             8999 	.byte	18
00001c1b 4d454d5f4152   9000 	.strz	"MEM_AR_RELEASE_PATCH_VERSION MEMMAP_AR_RELEASE_REVISION_VERSION"
00001c21 5f52454c4541 
00001c27 53455f504154 
00001c2d 43485f564552 
00001c33 53494f4e204d 
00001c39 454d4d41505f 
00001c3f 41525f52454c 
00001c45 454153455f52 
00001c4b 45564953494f 
00001c51 4e5f56455253 
00001c57 494f4e00 
00001c5b 01             9001 	.byte	1
00001c5c 18             9002 	.byte	24
00001c5d 4d454d4d4150   9003 	.strz	"MEMMAP_SW_MAJOR_VERSION (1u)"
00001c63 5f53575f4d41 
00001c69 4a4f525f5645 
00001c6f 5253494f4e20 
00001c75 2831752900 
00001c7a 01             9004 	.byte	1
00001c7b 19             9005 	.byte	25
00001c7c 4d454d4d4150   9006 	.strz	"MEMMAP_SW_MINOR_VERSION (11u)"
00001c82 5f53575f4d49 
00001c88 4e4f525f5645 
00001c8e 5253494f4e20 
00001c94 283131752900 
00001c9a 01             9007 	.byte	1
00001c9b 1a             9008 	.byte	26
00001c9c 4d454d4d4150   9009 	.strz	"MEMMAP_SW_PATCH_VERSION (0u)"
00001ca2 5f53575f5041 
00001ca8 5443485f5645 
00001cae 5253494f4e20 
00001cb4 2830752900 
00001cb9 01             9010 	.byte	1
00001cba 20             9011 	.byte	32
00001cbb 4d454d5f5357   9012 	.strz	"MEM_SW_MAJOR_VERSION MEMMAP_SW_MAJOR_VERSION"
00001cc1 5f4d414a4f52 
00001cc7 5f5645525349 
00001ccd 4f4e204d454d 
00001cd3 4d41505f5357 
00001cd9 5f4d414a4f52 
00001cdf 5f5645525349 
00001ce5 4f4e00 
00001ce8 01             9013 	.byte	1
00001ce9 21             9014 	.byte	33
00001cea 4d454d5f5357   9015 	.strz	"MEM_SW_MINOR_VERSION MEMMAP_SW_MINOR_VERSION"
00001cf0 5f4d494e4f52 

                                                                      Page 183
                                                              C:\Users\nhuliyap\AppData\Local\Temp\gh_000091s1.s
00001cf6 5f5645525349 
00001cfc 4f4e204d454d 
00001d02 4d41505f5357 
00001d08 5f4d494e4f52 
00001d0e 5f5645525349 
00001d14 4f4e00 
00001d17 01             9016 	.byte	1
00001d18 22             9017 	.byte	34
00001d19 4d454d5f5357   9018 	.strz	"MEM_SW_PATCH_VERSION MEMMAP_SW_PATCH_VERSION"
00001d1f 5f5041544348 
00001d25 5f5645525349 
00001d2b 4f4e204d454d 
00001d31 4d41505f5357 
00001d37 5f5041544348 
00001d3d 5f5645525349 
00001d43 4f4e00 
00001d46 01             9019 	.byte	1
00001d47 24             9020 	.byte	36
00001d48 4d454d4d4150   9021 	.strz	"MEMMAP_ERROR "
00001d4e 5f4552524f52 
00001d54 2000 
00001d56 01             9022 	.byte	1
00001d57 55             9023 	.byte	85
00001d58 53544152545f   9024 	.strz	"START_SEC_CONST_UNSPECIFIED "
00001d5e 5345435f434f 
00001d64 4e53545f554e 
00001d6a 535045434946 
00001d70 4945442000 
00001d75 03             9025 	.byte	3
00001d76 f403           9026 	.byte	244,3
00001d78 10             9027 	.byte	16
00001d79 01             9028 	.byte	1
00001d7a b408           9029 	.byte	180,8
00001d7c 434f4e53545f   9030 	.strz	"CONST_SEC_OPEN "
00001d82 5345435f4f50 
00001d88 454e2000 
00001d8c 04             9031 	.byte	4
00001d8d 04             9032 	.byte	4
00001d8e 01             9033 	.byte	1
00001d8f b101           9034 	.byte	177,1
00001d91 4645455f3330   9035 	.strz	"FEE_30_SMALLSECTOR_STOP_SEC_CONST_UNSPECIFIED "
00001d97 5f534d414c4c 
00001d9d 534543544f52 
00001da3 5f53544f505f 
00001da9 5345435f434f 
00001daf 4e53545f554e 
00001db5 535045434946 
00001dbb 4945442000 
00001dc0 03             9036 	.byte	3
00001dc1 b201           9037 	.byte	178,1
00001dc3 0f             9038 	.byte	15
00001dc4 01             9039 	.byte	1
00001dc5 02             9040 	.byte	2
00001dc6 4d454d4d4150   9041 	.strz	"MEMMAP_VENDOR_ID (30u)"
00001dcc 5f56454e444f 
00001dd2 525f49442028 
00001dd8 3330752900 
00001ddd 01             9042 	.byte	1
00001dde 08             9043 	.byte	8
00001ddf 4d454d4d4150   9044 	.strz	"MEMMAP_AR_RELEASE_MAJOR_VERSION (4u)"
00001de5 5f41525f5245 

                                                                      Page 184
                                                              C:\Users\nhuliyap\AppData\Local\Temp\gh_000091s1.s
00001deb 4c454153455f 
00001df1 4d414a4f525f 
00001df7 56455253494f 
00001dfd 4e2028347529 
00001e03 00 
00001e04 01             9045 	.byte	1
00001e05 09             9046 	.byte	9
00001e06 4d454d4d4150   9047 	.strz	"MEMMAP_AR_RELEASE_MINOR_VERSION (0u)"
00001e0c 5f41525f5245 
00001e12 4c454153455f 
00001e18 4d494e4f525f 
00001e1e 56455253494f 
00001e24 4e2028307529 
00001e2a 00 
00001e2b 01             9048 	.byte	1
00001e2c 0a             9049 	.byte	10
00001e2d 4d454d4d4150   9050 	.strz	"MEMMAP_AR_RELEASE_REVISION_VERSION (3u)"
00001e33 5f41525f5245 
00001e39 4c454153455f 
00001e3f 524556495349 
00001e45 4f4e5f564552 
00001e4b 53494f4e2028 
00001e51 33752900 
00001e55 01             9051 	.byte	1
00001e56 10             9052 	.byte	16
00001e57 4d454d5f4152   9053 	.strz	"MEM_AR_RELEASE_MAJOR_VERSION MEMMAP_AR_RELEASE_MAJOR_VERSION"
00001e5d 5f52454c4541 
00001e63 53455f4d414a 
00001e69 4f525f564552 
00001e6f 53494f4e204d 
00001e75 454d4d41505f 
00001e7b 41525f52454c 
00001e81 454153455f4d 
00001e87 414a4f525f56 
00001e8d 455253494f4e 
00001e93 00 
00001e94 01             9054 	.byte	1
00001e95 11             9055 	.byte	17
00001e96 4d454d5f4152   9056 	.strz	"MEM_AR_RELEASE_MINOR_VERSION MEMMAP_AR_RELEASE_MINOR_VERSION"
00001e9c 5f52454c4541 
00001ea2 53455f4d494e 
00001ea8 4f525f564552 
00001eae 53494f4e204d 
00001eb4 454d4d41505f 
00001eba 41525f52454c 
00001ec0 454153455f4d 
00001ec6 494e4f525f56 
00001ecc 455253494f4e 
00001ed2 00 
00001ed3 01             9057 	.byte	1
00001ed4 12             9058 	.byte	18
00001ed5 4d454d5f4152   9059 	.strz	"MEM_AR_RELEASE_PATCH_VERSION MEMMAP_AR_RELEASE_REVISION_VERSION"
00001edb 5f52454c4541 
00001ee1 53455f504154 
00001ee7 43485f564552 
00001eed 53494f4e204d 
00001ef3 454d4d41505f 
00001ef9 41525f52454c 
00001eff 454153455f52 
00001f05 45564953494f 
00001f0b 4e5f56455253 

                                                                      Page 185
                                                              C:\Users\nhuliyap\AppData\Local\Temp\gh_000091s1.s
00001f11 494f4e00 
00001f15 01             9060 	.byte	1
00001f16 18             9061 	.byte	24
00001f17 4d454d4d4150   9062 	.strz	"MEMMAP_SW_MAJOR_VERSION (1u)"
00001f1d 5f53575f4d41 
00001f23 4a4f525f5645 
00001f29 5253494f4e20 
00001f2f 2831752900 
00001f34 01             9063 	.byte	1
00001f35 19             9064 	.byte	25
00001f36 4d454d4d4150   9065 	.strz	"MEMMAP_SW_MINOR_VERSION (11u)"
00001f3c 5f53575f4d49 
00001f42 4e4f525f5645 
00001f48 5253494f4e20 
00001f4e 283131752900 
00001f54 01             9066 	.byte	1
00001f55 1a             9067 	.byte	26
00001f56 4d454d4d4150   9068 	.strz	"MEMMAP_SW_PATCH_VERSION (0u)"
00001f5c 5f53575f5041 
00001f62 5443485f5645 
00001f68 5253494f4e20 
00001f6e 2830752900 
00001f73 01             9069 	.byte	1
00001f74 20             9070 	.byte	32
00001f75 4d454d5f5357   9071 	.strz	"MEM_SW_MAJOR_VERSION MEMMAP_SW_MAJOR_VERSION"
00001f7b 5f4d414a4f52 
00001f81 5f5645525349 
00001f87 4f4e204d454d 
00001f8d 4d41505f5357 
00001f93 5f4d414a4f52 
00001f99 5f5645525349 
00001f9f 4f4e00 
00001fa2 01             9072 	.byte	1
00001fa3 21             9073 	.byte	33
00001fa4 4d454d5f5357   9074 	.strz	"MEM_SW_MINOR_VERSION MEMMAP_SW_MINOR_VERSION"
00001faa 5f4d494e4f52 
00001fb0 5f5645525349 
00001fb6 4f4e204d454d 
00001fbc 4d41505f5357 
00001fc2 5f4d494e4f52 
00001fc8 5f5645525349 
00001fce 4f4e00 
00001fd1 01             9075 	.byte	1
00001fd2 22             9076 	.byte	34
00001fd3 4d454d5f5357   9077 	.strz	"MEM_SW_PATCH_VERSION MEMMAP_SW_PATCH_VERSION"
00001fd9 5f5041544348 
00001fdf 5f5645525349 
00001fe5 4f4e204d454d 
00001feb 4d41505f5357 
00001ff1 5f5041544348 
00001ff7 5f5645525349 
00001ffd 4f4e00 
00002000 01             9078 	.byte	1
00002001 24             9079 	.byte	36
00002002 4d454d4d4150   9080 	.strz	"MEMMAP_ERROR "
00002008 5f4552524f52 
0000200e 2000 
00002010 01             9081 	.byte	1
00002011 59             9082 	.byte	89
00002012 53544f505f53   9083 	.strz	"STOP_SEC_CONST "
00002018 45435f434f4e 

                                                                      Page 186
                                                              C:\Users\nhuliyap\AppData\Local\Temp\gh_000091s1.s
0000201e 53542000 
00002022 03             9084 	.byte	3
00002023 f403           9085 	.byte	244,3
00002025 10             9086 	.byte	16
00002026 04             9087 	.byte	4
00002027 04             9088 	.byte	4
00002028 04             9089 	.byte	4
00002029 01             9090 	.byte	1
0000202a 28             9091 	.byte	40
0000202b 4645455f3330   9092 	.strz	"FEE_30_SMALLSECTOR_START_SEC_VAR_NOINIT_UNSPECIFIED "
00002031 5f534d414c4c 
00002037 534543544f52 
0000203d 5f5354415254 
00002043 5f5345435f56 
00002049 41525f4e4f49 
0000204f 4e49545f554e 
00002055 535045434946 
0000205b 4945442000 
00002060 03             9093 	.byte	3
00002061 29             9094 	.byte	41
00002062 0f             9095 	.byte	15
00002063 01             9096 	.byte	1
00002064 02             9097 	.byte	2
00002065 4d454d4d4150   9098 	.strz	"MEMMAP_VENDOR_ID (30u)"
0000206b 5f56454e444f 
00002071 525f49442028 
00002077 3330752900 
0000207c 01             9099 	.byte	1
0000207d 08             9100 	.byte	8
0000207e 4d454d4d4150   9101 	.strz	"MEMMAP_AR_RELEASE_MAJOR_VERSION (4u)"
00002084 5f41525f5245 
0000208a 4c454153455f 
00002090 4d414a4f525f 
00002096 56455253494f 
0000209c 4e2028347529 
000020a2 00 
000020a3 01             9102 	.byte	1
000020a4 09             9103 	.byte	9
000020a5 4d454d4d4150   9104 	.strz	"MEMMAP_AR_RELEASE_MINOR_VERSION (0u)"
000020ab 5f41525f5245 
000020b1 4c454153455f 
000020b7 4d494e4f525f 
000020bd 56455253494f 
000020c3 4e2028307529 
000020c9 00 
000020ca 01             9105 	.byte	1
000020cb 0a             9106 	.byte	10
000020cc 4d454d4d4150   9107 	.strz	"MEMMAP_AR_RELEASE_REVISION_VERSION (3u)"
000020d2 5f41525f5245 
000020d8 4c454153455f 
000020de 524556495349 
000020e4 4f4e5f564552 
000020ea 53494f4e2028 
000020f0 33752900 
000020f4 01             9108 	.byte	1
000020f5 10             9109 	.byte	16
000020f6 4d454d5f4152   9110 	.strz	"MEM_AR_RELEASE_MAJOR_VERSION MEMMAP_AR_RELEASE_MAJOR_VERSION"
000020fc 5f52454c4541 
00002102 53455f4d414a 
00002108 4f525f564552 
0000210e 53494f4e204d 

                                                                      Page 187
                                                              C:\Users\nhuliyap\AppData\Local\Temp\gh_000091s1.s
00002114 454d4d41505f 
0000211a 41525f52454c 
00002120 454153455f4d 
00002126 414a4f525f56 
0000212c 455253494f4e 
00002132 00 
00002133 01             9111 	.byte	1
00002134 11             9112 	.byte	17
00002135 4d454d5f4152   9113 	.strz	"MEM_AR_RELEASE_MINOR_VERSION MEMMAP_AR_RELEASE_MINOR_VERSION"
0000213b 5f52454c4541 
00002141 53455f4d494e 
00002147 4f525f564552 
0000214d 53494f4e204d 
00002153 454d4d41505f 
00002159 41525f52454c 
0000215f 454153455f4d 
00002165 494e4f525f56 
0000216b 455253494f4e 
00002171 00 
00002172 01             9114 	.byte	1
00002173 12             9115 	.byte	18
00002174 4d454d5f4152   9116 	.strz	"MEM_AR_RELEASE_PATCH_VERSION MEMMAP_AR_RELEASE_REVISION_VERSION"
0000217a 5f52454c4541 
00002180 53455f504154 
00002186 43485f564552 
0000218c 53494f4e204d 
00002192 454d4d41505f 
00002198 41525f52454c 
0000219e 454153455f52 
000021a4 45564953494f 
000021aa 4e5f56455253 
000021b0 494f4e00 
000021b4 01             9117 	.byte	1
000021b5 18             9118 	.byte	24
000021b6 4d454d4d4150   9119 	.strz	"MEMMAP_SW_MAJOR_VERSION (1u)"
000021bc 5f53575f4d41 
000021c2 4a4f525f5645 
000021c8 5253494f4e20 
000021ce 2831752900 
000021d3 01             9120 	.byte	1
000021d4 19             9121 	.byte	25
000021d5 4d454d4d4150   9122 	.strz	"MEMMAP_SW_MINOR_VERSION (11u)"
000021db 5f53575f4d49 
000021e1 4e4f525f5645 
000021e7 5253494f4e20 
000021ed 283131752900 
000021f3 01             9123 	.byte	1
000021f4 1a             9124 	.byte	26
000021f5 4d454d4d4150   9125 	.strz	"MEMMAP_SW_PATCH_VERSION (0u)"
000021fb 5f53575f5041 
00002201 5443485f5645 
00002207 5253494f4e20 
0000220d 2830752900 
00002212 01             9126 	.byte	1
00002213 20             9127 	.byte	32
00002214 4d454d5f5357   9128 	.strz	"MEM_SW_MAJOR_VERSION MEMMAP_SW_MAJOR_VERSION"
0000221a 5f4d414a4f52 
00002220 5f5645525349 
00002226 4f4e204d454d 
0000222c 4d41505f5357 
00002232 5f4d414a4f52 

                                                                      Page 188
                                                              C:\Users\nhuliyap\AppData\Local\Temp\gh_000091s1.s
00002238 5f5645525349 
0000223e 4f4e00 
00002241 01             9129 	.byte	1
00002242 21             9130 	.byte	33
00002243 4d454d5f5357   9131 	.strz	"MEM_SW_MINOR_VERSION MEMMAP_SW_MINOR_VERSION"
00002249 5f4d494e4f52 
0000224f 5f5645525349 
00002255 4f4e204d454d 
0000225b 4d41505f5357 
00002261 5f4d494e4f52 
00002267 5f5645525349 
0000226d 4f4e00 
00002270 01             9132 	.byte	1
00002271 22             9133 	.byte	34
00002272 4d454d5f5357   9134 	.strz	"MEM_SW_PATCH_VERSION MEMMAP_SW_PATCH_VERSION"
00002278 5f5041544348 
0000227e 5f5645525349 
00002284 4f4e204d454d 
0000228a 4d41505f5357 
00002290 5f5041544348 
00002296 5f5645525349 
0000229c 4f4e00 
0000229f 01             9135 	.byte	1
000022a0 24             9136 	.byte	36
000022a1 4d454d4d4150   9137 	.strz	"MEMMAP_ERROR "
000022a7 5f4552524f52 
000022ad 2000 
000022af 01             9138 	.byte	1
000022b0 5e             9139 	.byte	94
000022b1 53544152545f   9140 	.strz	"START_SEC_VAR_NOINIT_UNSPECIFIED "
000022b7 5345435f5641 
000022bd 525f4e4f494e 
000022c3 49545f554e53 
000022c9 504543494649 
000022cf 45442000 
000022d3 03             9141 	.byte	3
000022d4 f403           9142 	.byte	244,3
000022d6 10             9143 	.byte	16
000022d7 01             9144 	.byte	1
000022d8 ce09           9145 	.byte	206,9
000022da 5641525f5345   9146 	.strz	"VAR_SEC_OPEN "
000022e0 435f4f50454e 
000022e6 2000 
000022e8 04             9147 	.byte	4
000022e9 04             9148 	.byte	4
000022ea 01             9149 	.byte	1
000022eb 41             9150 	.byte	65
000022ec 4645455f3330   9151 	.strz	"FEE_30_SMALLSECTOR_STOP_SEC_VAR_NOINIT_UNSPECIFIED "
000022f2 5f534d414c4c 
000022f8 534543544f52 
000022fe 5f53544f505f 
00002304 5345435f5641 
0000230a 525f4e4f494e 
00002310 49545f554e53 
00002316 504543494649 
0000231c 45442000 
00002320 03             9152 	.byte	3
00002321 42             9153 	.byte	66
00002322 0f             9154 	.byte	15
00002323 01             9155 	.byte	1
00002324 02             9156 	.byte	2

                                                                      Page 189
                                                              C:\Users\nhuliyap\AppData\Local\Temp\gh_000091s1.s
00002325 4d454d4d4150   9157 	.strz	"MEMMAP_VENDOR_ID (30u)"
0000232b 5f56454e444f 
00002331 525f49442028 
00002337 3330752900 
0000233c 01             9158 	.byte	1
0000233d 08             9159 	.byte	8
0000233e 4d454d4d4150   9160 	.strz	"MEMMAP_AR_RELEASE_MAJOR_VERSION (4u)"
00002344 5f41525f5245 
0000234a 4c454153455f 
00002350 4d414a4f525f 
00002356 56455253494f 
0000235c 4e2028347529 
00002362 00 
00002363 01             9161 	.byte	1
00002364 09             9162 	.byte	9
00002365 4d454d4d4150   9163 	.strz	"MEMMAP_AR_RELEASE_MINOR_VERSION (0u)"
0000236b 5f41525f5245 
00002371 4c454153455f 
00002377 4d494e4f525f 
0000237d 56455253494f 
00002383 4e2028307529 
00002389 00 
0000238a 01             9164 	.byte	1
0000238b 0a             9165 	.byte	10
0000238c 4d454d4d4150   9166 	.strz	"MEMMAP_AR_RELEASE_REVISION_VERSION (3u)"
00002392 5f41525f5245 
00002398 4c454153455f 
0000239e 524556495349 
000023a4 4f4e5f564552 
000023aa 53494f4e2028 
000023b0 33752900 
000023b4 01             9167 	.byte	1
000023b5 10             9168 	.byte	16
000023b6 4d454d5f4152   9169 	.strz	"MEM_AR_RELEASE_MAJOR_VERSION MEMMAP_AR_RELEASE_MAJOR_VERSION"
000023bc 5f52454c4541 
000023c2 53455f4d414a 
000023c8 4f525f564552 
000023ce 53494f4e204d 
000023d4 454d4d41505f 
000023da 41525f52454c 
000023e0 454153455f4d 
000023e6 414a4f525f56 
000023ec 455253494f4e 
000023f2 00 
000023f3 01             9170 	.byte	1
000023f4 11             9171 	.byte	17
000023f5 4d454d5f4152   9172 	.strz	"MEM_AR_RELEASE_MINOR_VERSION MEMMAP_AR_RELEASE_MINOR_VERSION"
000023fb 5f52454c4541 
00002401 53455f4d494e 
00002407 4f525f564552 
0000240d 53494f4e204d 
00002413 454d4d41505f 
00002419 41525f52454c 
0000241f 454153455f4d 
00002425 494e4f525f56 
0000242b 455253494f4e 
00002431 00 
00002432 01             9173 	.byte	1
00002433 12             9174 	.byte	18
00002434 4d454d5f4152   9175 	.strz	"MEM_AR_RELEASE_PATCH_VERSION MEMMAP_AR_RELEASE_REVISION_VERSION"
0000243a 5f52454c4541 

                                                                      Page 190
                                                              C:\Users\nhuliyap\AppData\Local\Temp\gh_000091s1.s
00002440 53455f504154 
00002446 43485f564552 
0000244c 53494f4e204d 
00002452 454d4d41505f 
00002458 41525f52454c 
0000245e 454153455f52 
00002464 45564953494f 
0000246a 4e5f56455253 
00002470 494f4e00 
00002474 01             9176 	.byte	1
00002475 18             9177 	.byte	24
00002476 4d454d4d4150   9178 	.strz	"MEMMAP_SW_MAJOR_VERSION (1u)"
0000247c 5f53575f4d41 
00002482 4a4f525f5645 
00002488 5253494f4e20 
0000248e 2831752900 
00002493 01             9179 	.byte	1
00002494 19             9180 	.byte	25
00002495 4d454d4d4150   9181 	.strz	"MEMMAP_SW_MINOR_VERSION (11u)"
0000249b 5f53575f4d49 
000024a1 4e4f525f5645 
000024a7 5253494f4e20 
000024ad 283131752900 
000024b3 01             9182 	.byte	1
000024b4 1a             9183 	.byte	26
000024b5 4d454d4d4150   9184 	.strz	"MEMMAP_SW_PATCH_VERSION (0u)"
000024bb 5f53575f5041 
000024c1 5443485f5645 
000024c7 5253494f4e20 
000024cd 2830752900 
000024d2 01             9185 	.byte	1
000024d3 20             9186 	.byte	32
000024d4 4d454d5f5357   9187 	.strz	"MEM_SW_MAJOR_VERSION MEMMAP_SW_MAJOR_VERSION"
000024da 5f4d414a4f52 
000024e0 5f5645525349 
000024e6 4f4e204d454d 
000024ec 4d41505f5357 
000024f2 5f4d414a4f52 
000024f8 5f5645525349 
000024fe 4f4e00 
00002501 01             9188 	.byte	1
00002502 21             9189 	.byte	33
00002503 4d454d5f5357   9190 	.strz	"MEM_SW_MINOR_VERSION MEMMAP_SW_MINOR_VERSION"
00002509 5f4d494e4f52 
0000250f 5f5645525349 
00002515 4f4e204d454d 
0000251b 4d41505f5357 
00002521 5f4d494e4f52 
00002527 5f5645525349 
0000252d 4f4e00 
00002530 01             9191 	.byte	1
00002531 22             9192 	.byte	34
00002532 4d454d5f5357   9193 	.strz	"MEM_SW_PATCH_VERSION MEMMAP_SW_PATCH_VERSION"
00002538 5f5041544348 
0000253e 5f5645525349 
00002544 4f4e204d454d 
0000254a 4d41505f5357 
00002550 5f5041544348 
00002556 5f5645525349 
0000255c 4f4e00 
0000255f 01             9194 	.byte	1

                                                                      Page 191
                                                              C:\Users\nhuliyap\AppData\Local\Temp\gh_000091s1.s
00002560 24             9195 	.byte	36
00002561 4d454d4d4150   9196 	.strz	"MEMMAP_ERROR "
00002567 5f4552524f52 
0000256d 2000 
0000256f 01             9197 	.byte	1
00002570 62             9198 	.byte	98
00002571 53544f505f53   9199 	.strz	"STOP_SEC_VAR "
00002577 45435f564152 
0000257d 2000 
0000257f 03             9200 	.byte	3
00002580 f403           9201 	.byte	244,3
00002582 10             9202 	.byte	16
00002583 04             9203 	.byte	4
00002584 04             9204 	.byte	4
00002585 01             9205 	.byte	1
00002586 44             9206 	.byte	68
00002587 4645455f3330   9207 	.strz	"FEE_30_SMALLSECTOR_START_SEC_CODE "
0000258d 5f534d414c4c 
00002593 534543544f52 
00002599 5f5354415254 
0000259f 5f5345435f43 
000025a5 4f44452000 
000025aa 03             9208 	.byte	3
000025ab 45             9209 	.byte	69
000025ac 0f             9210 	.byte	15
000025ad 01             9211 	.byte	1
000025ae 02             9212 	.byte	2
000025af 4d454d4d4150   9213 	.strz	"MEMMAP_VENDOR_ID (30u)"
000025b5 5f56454e444f 
000025bb 525f49442028 
000025c1 3330752900 
000025c6 01             9214 	.byte	1
000025c7 08             9215 	.byte	8
000025c8 4d454d4d4150   9216 	.strz	"MEMMAP_AR_RELEASE_MAJOR_VERSION (4u)"
000025ce 5f41525f5245 
000025d4 4c454153455f 
000025da 4d414a4f525f 
000025e0 56455253494f 
000025e6 4e2028347529 
000025ec 00 
000025ed 01             9217 	.byte	1
000025ee 09             9218 	.byte	9
000025ef 4d454d4d4150   9219 	.strz	"MEMMAP_AR_RELEASE_MINOR_VERSION (0u)"
000025f5 5f41525f5245 
000025fb 4c454153455f 
00002601 4d494e4f525f 
00002607 56455253494f 
0000260d 4e2028307529 
00002613 00 
00002614 01             9220 	.byte	1
00002615 0a             9221 	.byte	10
00002616 4d454d4d4150   9222 	.strz	"MEMMAP_AR_RELEASE_REVISION_VERSION (3u)"
0000261c 5f41525f5245 
00002622 4c454153455f 
00002628 524556495349 
0000262e 4f4e5f564552 
00002634 53494f4e2028 
0000263a 33752900 
0000263e 01             9223 	.byte	1
0000263f 10             9224 	.byte	16
00002640 4d454d5f4152   9225 	.strz	"MEM_AR_RELEASE_MAJOR_VERSION MEMMAP_AR_RELEASE_MAJOR_VERSION"

                                                                      Page 192
                                                              C:\Users\nhuliyap\AppData\Local\Temp\gh_000091s1.s
00002646 5f52454c4541 
0000264c 53455f4d414a 
00002652 4f525f564552 
00002658 53494f4e204d 
0000265e 454d4d41505f 
00002664 41525f52454c 
0000266a 454153455f4d 
00002670 414a4f525f56 
00002676 455253494f4e 
0000267c 00 
0000267d 01             9226 	.byte	1
0000267e 11             9227 	.byte	17
0000267f 4d454d5f4152   9228 	.strz	"MEM_AR_RELEASE_MINOR_VERSION MEMMAP_AR_RELEASE_MINOR_VERSION"
00002685 5f52454c4541 
0000268b 53455f4d494e 
00002691 4f525f564552 
00002697 53494f4e204d 
0000269d 454d4d41505f 
000026a3 41525f52454c 
000026a9 454153455f4d 
000026af 494e4f525f56 
000026b5 455253494f4e 
000026bb 00 
000026bc 01             9229 	.byte	1
000026bd 12             9230 	.byte	18
000026be 4d454d5f4152   9231 	.strz	"MEM_AR_RELEASE_PATCH_VERSION MEMMAP_AR_RELEASE_REVISION_VERSION"
000026c4 5f52454c4541 
000026ca 53455f504154 
000026d0 43485f564552 
000026d6 53494f4e204d 
000026dc 454d4d41505f 
000026e2 41525f52454c 
000026e8 454153455f52 
000026ee 45564953494f 
000026f4 4e5f56455253 
000026fa 494f4e00 
000026fe 01             9232 	.byte	1
000026ff 18             9233 	.byte	24
00002700 4d454d4d4150   9234 	.strz	"MEMMAP_SW_MAJOR_VERSION (1u)"
00002706 5f53575f4d41 
0000270c 4a4f525f5645 
00002712 5253494f4e20 
00002718 2831752900 
0000271d 01             9235 	.byte	1
0000271e 19             9236 	.byte	25
0000271f 4d454d4d4150   9237 	.strz	"MEMMAP_SW_MINOR_VERSION (11u)"
00002725 5f53575f4d49 
0000272b 4e4f525f5645 
00002731 5253494f4e20 
00002737 283131752900 
0000273d 01             9238 	.byte	1
0000273e 1a             9239 	.byte	26
0000273f 4d454d4d4150   9240 	.strz	"MEMMAP_SW_PATCH_VERSION (0u)"
00002745 5f53575f5041 
0000274b 5443485f5645 
00002751 5253494f4e20 
00002757 2830752900 
0000275c 01             9241 	.byte	1
0000275d 20             9242 	.byte	32
0000275e 4d454d5f5357   9243 	.strz	"MEM_SW_MAJOR_VERSION MEMMAP_SW_MAJOR_VERSION"
00002764 5f4d414a4f52 

                                                                      Page 193
                                                              C:\Users\nhuliyap\AppData\Local\Temp\gh_000091s1.s
0000276a 5f5645525349 
00002770 4f4e204d454d 
00002776 4d41505f5357 
0000277c 5f4d414a4f52 
00002782 5f5645525349 
00002788 4f4e00 
0000278b 01             9244 	.byte	1
0000278c 21             9245 	.byte	33
0000278d 4d454d5f5357   9246 	.strz	"MEM_SW_MINOR_VERSION MEMMAP_SW_MINOR_VERSION"
00002793 5f4d494e4f52 
00002799 5f5645525349 
0000279f 4f4e204d454d 
000027a5 4d41505f5357 
000027ab 5f4d494e4f52 
000027b1 5f5645525349 
000027b7 4f4e00 
000027ba 01             9247 	.byte	1
000027bb 22             9248 	.byte	34
000027bc 4d454d5f5357   9249 	.strz	"MEM_SW_PATCH_VERSION MEMMAP_SW_PATCH_VERSION"
000027c2 5f5041544348 
000027c8 5f5645525349 
000027ce 4f4e204d454d 
000027d4 4d41505f5357 
000027da 5f5041544348 
000027e0 5f5645525349 
000027e6 4f4e00 
000027e9 01             9250 	.byte	1
000027ea 24             9251 	.byte	36
000027eb 4d454d4d4150   9252 	.strz	"MEMMAP_ERROR "
000027f1 5f4552524f52 
000027f7 2000 
000027f9 01             9253 	.byte	1
000027fa 31             9254 	.byte	49
000027fb 53544152545f   9255 	.strz	"START_SEC_CODE "
00002801 5345435f434f 
00002807 44452000 
0000280b 03             9256 	.byte	3
0000280c f403           9257 	.byte	244,3
0000280e 10             9258 	.byte	16
0000280f 01             9259 	.byte	1
00002810 f307           9260 	.byte	243,7
00002812 434f44455f53   9261 	.strz	"CODE_SEC_OPEN "
00002818 45435f4f5045 
0000281e 4e2000 
00002821 04             9262 	.byte	4
00002822 04             9263 	.byte	4
00002823 01             9264 	.byte	1
00002824 55             9265 	.byte	85
00002825 4645455f3330   9266 	.strz	"FEE_30_SMALLSECTOR_STOP_SEC_CODE "
0000282b 5f534d414c4c 
00002831 534543544f52 
00002837 5f53544f505f 
0000283d 5345435f434f 
00002843 44452000 
00002847 03             9267 	.byte	3
00002848 56             9268 	.byte	86
00002849 0f             9269 	.byte	15
0000284a 01             9270 	.byte	1
0000284b 02             9271 	.byte	2
0000284c 4d454d4d4150   9272 	.strz	"MEMMAP_VENDOR_ID (30u)"
00002852 5f56454e444f 

                                                                      Page 194
                                                              C:\Users\nhuliyap\AppData\Local\Temp\gh_000091s1.s
00002858 525f49442028 
0000285e 3330752900 
00002863 01             9273 	.byte	1
00002864 08             9274 	.byte	8
00002865 4d454d4d4150   9275 	.strz	"MEMMAP_AR_RELEASE_MAJOR_VERSION (4u)"
0000286b 5f41525f5245 
00002871 4c454153455f 
00002877 4d414a4f525f 
0000287d 56455253494f 
00002883 4e2028347529 
00002889 00 
0000288a 01             9276 	.byte	1
0000288b 09             9277 	.byte	9
0000288c 4d454d4d4150   9278 	.strz	"MEMMAP_AR_RELEASE_MINOR_VERSION (0u)"
00002892 5f41525f5245 
00002898 4c454153455f 
0000289e 4d494e4f525f 
000028a4 56455253494f 
000028aa 4e2028307529 
000028b0 00 
000028b1 01             9279 	.byte	1
000028b2 0a             9280 	.byte	10
000028b3 4d454d4d4150   9281 	.strz	"MEMMAP_AR_RELEASE_REVISION_VERSION (3u)"
000028b9 5f41525f5245 
000028bf 4c454153455f 
000028c5 524556495349 
000028cb 4f4e5f564552 
000028d1 53494f4e2028 
000028d7 33752900 
000028db 01             9282 	.byte	1
000028dc 10             9283 	.byte	16
000028dd 4d454d5f4152   9284 	.strz	"MEM_AR_RELEASE_MAJOR_VERSION MEMMAP_AR_RELEASE_MAJOR_VERSION"
000028e3 5f52454c4541 
000028e9 53455f4d414a 
000028ef 4f525f564552 
000028f5 53494f4e204d 
000028fb 454d4d41505f 
00002901 41525f52454c 
00002907 454153455f4d 
0000290d 414a4f525f56 
00002913 455253494f4e 
00002919 00 
0000291a 01             9285 	.byte	1
0000291b 11             9286 	.byte	17
0000291c 4d454d5f4152   9287 	.strz	"MEM_AR_RELEASE_MINOR_VERSION MEMMAP_AR_RELEASE_MINOR_VERSION"
00002922 5f52454c4541 
00002928 53455f4d494e 
0000292e 4f525f564552 
00002934 53494f4e204d 
0000293a 454d4d41505f 
00002940 41525f52454c 
00002946 454153455f4d 
0000294c 494e4f525f56 
00002952 455253494f4e 
00002958 00 
00002959 01             9288 	.byte	1
0000295a 12             9289 	.byte	18
0000295b 4d454d5f4152   9290 	.strz	"MEM_AR_RELEASE_PATCH_VERSION MEMMAP_AR_RELEASE_REVISION_VERSION"
00002961 5f52454c4541 
00002967 53455f504154 
0000296d 43485f564552 

                                                                      Page 195
                                                              C:\Users\nhuliyap\AppData\Local\Temp\gh_000091s1.s
00002973 53494f4e204d 
00002979 454d4d41505f 
0000297f 41525f52454c 
00002985 454153455f52 
0000298b 45564953494f 
00002991 4e5f56455253 
00002997 494f4e00 
0000299b 01             9291 	.byte	1
0000299c 18             9292 	.byte	24
0000299d 4d454d4d4150   9293 	.strz	"MEMMAP_SW_MAJOR_VERSION (1u)"
000029a3 5f53575f4d41 
000029a9 4a4f525f5645 
000029af 5253494f4e20 
000029b5 2831752900 
000029ba 01             9294 	.byte	1
000029bb 19             9295 	.byte	25
000029bc 4d454d4d4150   9296 	.strz	"MEMMAP_SW_MINOR_VERSION (11u)"
000029c2 5f53575f4d49 
000029c8 4e4f525f5645 
000029ce 5253494f4e20 
000029d4 283131752900 
000029da 01             9297 	.byte	1
000029db 1a             9298 	.byte	26
000029dc 4d454d4d4150   9299 	.strz	"MEMMAP_SW_PATCH_VERSION (0u)"
000029e2 5f53575f5041 
000029e8 5443485f5645 
000029ee 5253494f4e20 
000029f4 2830752900 
000029f9 01             9300 	.byte	1
000029fa 20             9301 	.byte	32
000029fb 4d454d5f5357   9302 	.strz	"MEM_SW_MAJOR_VERSION MEMMAP_SW_MAJOR_VERSION"
00002a01 5f4d414a4f52 
00002a07 5f5645525349 
00002a0d 4f4e204d454d 
00002a13 4d41505f5357 
00002a19 5f4d414a4f52 
00002a1f 5f5645525349 
00002a25 4f4e00 
00002a28 01             9303 	.byte	1
00002a29 21             9304 	.byte	33
00002a2a 4d454d5f5357   9305 	.strz	"MEM_SW_MINOR_VERSION MEMMAP_SW_MINOR_VERSION"
00002a30 5f4d494e4f52 
00002a36 5f5645525349 
00002a3c 4f4e204d454d 
00002a42 4d41505f5357 
00002a48 5f4d494e4f52 
00002a4e 5f5645525349 
00002a54 4f4e00 
00002a57 01             9306 	.byte	1
00002a58 22             9307 	.byte	34
00002a59 4d454d5f5357   9308 	.strz	"MEM_SW_PATCH_VERSION MEMMAP_SW_PATCH_VERSION"
00002a5f 5f5041544348 
00002a65 5f5645525349 
00002a6b 4f4e204d454d 
00002a71 4d41505f5357 
00002a77 5f5041544348 
00002a7d 5f5645525349 
00002a83 4f4e00 
00002a86 01             9309 	.byte	1
00002a87 24             9310 	.byte	36
00002a88 4d454d4d4150   9311 	.strz	"MEMMAP_ERROR "

                                                                      Page 196
                                                              C:\Users\nhuliyap\AppData\Local\Temp\gh_000091s1.s
00002a8e 5f4552524f52 
00002a94 2000 
00002a96 01             9312 	.byte	1
00002a97 35             9313 	.byte	53
00002a98 53544f505f53   9314 	.strz	"STOP_SEC_CODE "
00002a9e 45435f434f44 
00002aa4 452000 
00002aa7 03             9315 	.byte	3
00002aa8 f403           9316 	.byte	244,3
00002aaa 10             9317 	.byte	16
00002aab 04             9318 	.byte	4
00002aac 04             9319 	.byte	4
00002aad 01             9320 	.byte	1
00002aae 59             9321 	.byte	89
00002aaf 4645455f3330   9322 	.strz	"FEE_30_SMALLSECTOR_START_SEC_CODE "
00002ab5 5f534d414c4c 
00002abb 534543544f52 
00002ac1 5f5354415254 
00002ac7 5f5345435f43 
00002acd 4f44452000 
00002ad2 03             9323 	.byte	3
00002ad3 5a             9324 	.byte	90
00002ad4 0f             9325 	.byte	15
00002ad5 01             9326 	.byte	1
00002ad6 02             9327 	.byte	2
00002ad7 4d454d4d4150   9328 	.strz	"MEMMAP_VENDOR_ID (30u)"
00002add 5f56454e444f 
00002ae3 525f49442028 
00002ae9 3330752900 
00002aee 01             9329 	.byte	1
00002aef 08             9330 	.byte	8
00002af0 4d454d4d4150   9331 	.strz	"MEMMAP_AR_RELEASE_MAJOR_VERSION (4u)"
00002af6 5f41525f5245 
00002afc 4c454153455f 
00002b02 4d414a4f525f 
00002b08 56455253494f 
00002b0e 4e2028347529 
00002b14 00 
00002b15 01             9332 	.byte	1
00002b16 09             9333 	.byte	9
00002b17 4d454d4d4150   9334 	.strz	"MEMMAP_AR_RELEASE_MINOR_VERSION (0u)"
00002b1d 5f41525f5245 
00002b23 4c454153455f 
00002b29 4d494e4f525f 
00002b2f 56455253494f 
00002b35 4e2028307529 
00002b3b 00 
00002b3c 01             9335 	.byte	1
00002b3d 0a             9336 	.byte	10
00002b3e 4d454d4d4150   9337 	.strz	"MEMMAP_AR_RELEASE_REVISION_VERSION (3u)"
00002b44 5f41525f5245 
00002b4a 4c454153455f 
00002b50 524556495349 
00002b56 4f4e5f564552 
00002b5c 53494f4e2028 
00002b62 33752900 
00002b66 01             9338 	.byte	1
00002b67 10             9339 	.byte	16
00002b68 4d454d5f4152   9340 	.strz	"MEM_AR_RELEASE_MAJOR_VERSION MEMMAP_AR_RELEASE_MAJOR_VERSION"
00002b6e 5f52454c4541 
00002b74 53455f4d414a 

                                                                      Page 197
                                                              C:\Users\nhuliyap\AppData\Local\Temp\gh_000091s1.s
00002b7a 4f525f564552 
00002b80 53494f4e204d 
00002b86 454d4d41505f 
00002b8c 41525f52454c 
00002b92 454153455f4d 
00002b98 414a4f525f56 
00002b9e 455253494f4e 
00002ba4 00 
00002ba5 01             9341 	.byte	1
00002ba6 11             9342 	.byte	17
00002ba7 4d454d5f4152   9343 	.strz	"MEM_AR_RELEASE_MINOR_VERSION MEMMAP_AR_RELEASE_MINOR_VERSION"
00002bad 5f52454c4541 
00002bb3 53455f4d494e 
00002bb9 4f525f564552 
00002bbf 53494f4e204d 
00002bc5 454d4d41505f 
00002bcb 41525f52454c 
00002bd1 454153455f4d 
00002bd7 494e4f525f56 
00002bdd 455253494f4e 
00002be3 00 
00002be4 01             9344 	.byte	1
00002be5 12             9345 	.byte	18
00002be6 4d454d5f4152   9346 	.strz	"MEM_AR_RELEASE_PATCH_VERSION MEMMAP_AR_RELEASE_REVISION_VERSION"
00002bec 5f52454c4541 
00002bf2 53455f504154 
00002bf8 43485f564552 
00002bfe 53494f4e204d 
00002c04 454d4d41505f 
00002c0a 41525f52454c 
00002c10 454153455f52 
00002c16 45564953494f 
00002c1c 4e5f56455253 
00002c22 494f4e00 
00002c26 01             9347 	.byte	1
00002c27 18             9348 	.byte	24
00002c28 4d454d4d4150   9349 	.strz	"MEMMAP_SW_MAJOR_VERSION (1u)"
00002c2e 5f53575f4d41 
00002c34 4a4f525f5645 
00002c3a 5253494f4e20 
00002c40 2831752900 
00002c45 01             9350 	.byte	1
00002c46 19             9351 	.byte	25
00002c47 4d454d4d4150   9352 	.strz	"MEMMAP_SW_MINOR_VERSION (11u)"
00002c4d 5f53575f4d49 
00002c53 4e4f525f5645 
00002c59 5253494f4e20 
00002c5f 283131752900 
00002c65 01             9353 	.byte	1
00002c66 1a             9354 	.byte	26
00002c67 4d454d4d4150   9355 	.strz	"MEMMAP_SW_PATCH_VERSION (0u)"
00002c6d 5f53575f5041 
00002c73 5443485f5645 
00002c79 5253494f4e20 
00002c7f 2830752900 
00002c84 01             9356 	.byte	1
00002c85 20             9357 	.byte	32
00002c86 4d454d5f5357   9358 	.strz	"MEM_SW_MAJOR_VERSION MEMMAP_SW_MAJOR_VERSION"
00002c8c 5f4d414a4f52 
00002c92 5f5645525349 
00002c98 4f4e204d454d 

                                                                      Page 198
                                                              C:\Users\nhuliyap\AppData\Local\Temp\gh_000091s1.s
00002c9e 4d41505f5357 
00002ca4 5f4d414a4f52 
00002caa 5f5645525349 
00002cb0 4f4e00 
00002cb3 01             9359 	.byte	1
00002cb4 21             9360 	.byte	33
00002cb5 4d454d5f5357   9361 	.strz	"MEM_SW_MINOR_VERSION MEMMAP_SW_MINOR_VERSION"
00002cbb 5f4d494e4f52 
00002cc1 5f5645525349 
00002cc7 4f4e204d454d 
00002ccd 4d41505f5357 
00002cd3 5f4d494e4f52 
00002cd9 5f5645525349 
00002cdf 4f4e00 
00002ce2 01             9362 	.byte	1
00002ce3 22             9363 	.byte	34
00002ce4 4d454d5f5357   9364 	.strz	"MEM_SW_PATCH_VERSION MEMMAP_SW_PATCH_VERSION"
00002cea 5f5041544348 
00002cf0 5f5645525349 
00002cf6 4f4e204d454d 
00002cfc 4d41505f5357 
00002d02 5f5041544348 
00002d08 5f5645525349 
00002d0e 4f4e00 
00002d11 01             9365 	.byte	1
00002d12 24             9366 	.byte	36
00002d13 4d454d4d4150   9367 	.strz	"MEMMAP_ERROR "
00002d19 5f4552524f52 
00002d1f 2000 
00002d21 01             9368 	.byte	1
00002d22 31             9369 	.byte	49
00002d23 53544152545f   9370 	.strz	"START_SEC_CODE "
00002d29 5345435f434f 
00002d2f 44452000 
00002d33 03             9371 	.byte	3
00002d34 f403           9372 	.byte	244,3
00002d36 10             9373 	.byte	16
00002d37 01             9374 	.byte	1
00002d38 f307           9375 	.byte	243,7
00002d3a 434f44455f53   9376 	.strz	"CODE_SEC_OPEN "
00002d40 45435f4f5045 
00002d46 4e2000 
00002d49 04             9377 	.byte	4
00002d4a 04             9378 	.byte	4
00002d4b 01             9379 	.byte	1
00002d4c 5c             9380 	.byte	92
00002d4d 4645455f3330   9381 	.strz	"FEE_30_SMALLSECTOR_STOP_SEC_CODE "
00002d53 5f534d414c4c 
00002d59 534543544f52 
00002d5f 5f53544f505f 
00002d65 5345435f434f 
00002d6b 44452000 
00002d6f 03             9382 	.byte	3
00002d70 5d             9383 	.byte	93
00002d71 0f             9384 	.byte	15
00002d72 01             9385 	.byte	1
00002d73 02             9386 	.byte	2
00002d74 4d454d4d4150   9387 	.strz	"MEMMAP_VENDOR_ID (30u)"
00002d7a 5f56454e444f 
00002d80 525f49442028 
00002d86 3330752900 

                                                                      Page 199
                                                              C:\Users\nhuliyap\AppData\Local\Temp\gh_000091s1.s
00002d8b 01             9388 	.byte	1
00002d8c 08             9389 	.byte	8
00002d8d 4d454d4d4150   9390 	.strz	"MEMMAP_AR_RELEASE_MAJOR_VERSION (4u)"
00002d93 5f41525f5245 
00002d99 4c454153455f 
00002d9f 4d414a4f525f 
00002da5 56455253494f 
00002dab 4e2028347529 
00002db1 00 
00002db2 01             9391 	.byte	1
00002db3 09             9392 	.byte	9
00002db4 4d454d4d4150   9393 	.strz	"MEMMAP_AR_RELEASE_MINOR_VERSION (0u)"
00002dba 5f41525f5245 
00002dc0 4c454153455f 
00002dc6 4d494e4f525f 
00002dcc 56455253494f 
00002dd2 4e2028307529 
00002dd8 00 
00002dd9 01             9394 	.byte	1
00002dda 0a             9395 	.byte	10
00002ddb 4d454d4d4150   9396 	.strz	"MEMMAP_AR_RELEASE_REVISION_VERSION (3u)"
00002de1 5f41525f5245 
00002de7 4c454153455f 
00002ded 524556495349 
00002df3 4f4e5f564552 
00002df9 53494f4e2028 
00002dff 33752900 
00002e03 01             9397 	.byte	1
00002e04 10             9398 	.byte	16
00002e05 4d454d5f4152   9399 	.strz	"MEM_AR_RELEASE_MAJOR_VERSION MEMMAP_AR_RELEASE_MAJOR_VERSION"
00002e0b 5f52454c4541 
00002e11 53455f4d414a 
00002e17 4f525f564552 
00002e1d 53494f4e204d 
00002e23 454d4d41505f 
00002e29 41525f52454c 
00002e2f 454153455f4d 
00002e35 414a4f525f56 
00002e3b 455253494f4e 
00002e41 00 
00002e42 01             9400 	.byte	1
00002e43 11             9401 	.byte	17
00002e44 4d454d5f4152   9402 	.strz	"MEM_AR_RELEASE_MINOR_VERSION MEMMAP_AR_RELEASE_MINOR_VERSION"
00002e4a 5f52454c4541 
00002e50 53455f4d494e 
00002e56 4f525f564552 
00002e5c 53494f4e204d 
00002e62 454d4d41505f 
00002e68 41525f52454c 
00002e6e 454153455f4d 
00002e74 494e4f525f56 
00002e7a 455253494f4e 
00002e80 00 
00002e81 01             9403 	.byte	1
00002e82 12             9404 	.byte	18
00002e83 4d454d5f4152   9405 	.strz	"MEM_AR_RELEASE_PATCH_VERSION MEMMAP_AR_RELEASE_REVISION_VERSION"
00002e89 5f52454c4541 
00002e8f 53455f504154 
00002e95 43485f564552 
00002e9b 53494f4e204d 
00002ea1 454d4d41505f 

                                                                      Page 200
                                                              C:\Users\nhuliyap\AppData\Local\Temp\gh_000091s1.s
00002ea7 41525f52454c 
00002ead 454153455f52 
00002eb3 45564953494f 
00002eb9 4e5f56455253 
00002ebf 494f4e00 
00002ec3 01             9406 	.byte	1
00002ec4 18             9407 	.byte	24
00002ec5 4d454d4d4150   9408 	.strz	"MEMMAP_SW_MAJOR_VERSION (1u)"
00002ecb 5f53575f4d41 
00002ed1 4a4f525f5645 
00002ed7 5253494f4e20 
00002edd 2831752900 
00002ee2 01             9409 	.byte	1
00002ee3 19             9410 	.byte	25
00002ee4 4d454d4d4150   9411 	.strz	"MEMMAP_SW_MINOR_VERSION (11u)"
00002eea 5f53575f4d49 
00002ef0 4e4f525f5645 
00002ef6 5253494f4e20 
00002efc 283131752900 
00002f02 01             9412 	.byte	1
00002f03 1a             9413 	.byte	26
00002f04 4d454d4d4150   9414 	.strz	"MEMMAP_SW_PATCH_VERSION (0u)"
00002f0a 5f53575f5041 
00002f10 5443485f5645 
00002f16 5253494f4e20 
00002f1c 2830752900 
00002f21 01             9415 	.byte	1
00002f22 20             9416 	.byte	32
00002f23 4d454d5f5357   9417 	.strz	"MEM_SW_MAJOR_VERSION MEMMAP_SW_MAJOR_VERSION"
00002f29 5f4d414a4f52 
00002f2f 5f5645525349 
00002f35 4f4e204d454d 
00002f3b 4d41505f5357 
00002f41 5f4d414a4f52 
00002f47 5f5645525349 
00002f4d 4f4e00 
00002f50 01             9418 	.byte	1
00002f51 21             9419 	.byte	33
00002f52 4d454d5f5357   9420 	.strz	"MEM_SW_MINOR_VERSION MEMMAP_SW_MINOR_VERSION"
00002f58 5f4d494e4f52 
00002f5e 5f5645525349 
00002f64 4f4e204d454d 
00002f6a 4d41505f5357 
00002f70 5f4d494e4f52 
00002f76 5f5645525349 
00002f7c 4f4e00 
00002f7f 01             9421 	.byte	1
00002f80 22             9422 	.byte	34
00002f81 4d454d5f5357   9423 	.strz	"MEM_SW_PATCH_VERSION MEMMAP_SW_PATCH_VERSION"
00002f87 5f5041544348 
00002f8d 5f5645525349 
00002f93 4f4e204d454d 
00002f99 4d41505f5357 
00002f9f 5f5041544348 
00002fa5 5f5645525349 
00002fab 4f4e00 
00002fae 01             9424 	.byte	1
00002faf 24             9425 	.byte	36
00002fb0 4d454d4d4150   9426 	.strz	"MEMMAP_ERROR "
00002fb6 5f4552524f52 
00002fbc 2000 

                                                                      Page 201
                                                              C:\Users\nhuliyap\AppData\Local\Temp\gh_000091s1.s
00002fbe 01             9427 	.byte	1
00002fbf 35             9428 	.byte	53
00002fc0 53544f505f53   9429 	.strz	"STOP_SEC_CODE "
00002fc6 45435f434f44 
00002fcc 452000 
00002fcf 03             9430 	.byte	3
00002fd0 f403           9431 	.byte	244,3
00002fd2 10             9432 	.byte	16
00002fd3 04             9433 	.byte	4
00002fd4 04             9434 	.byte	4
00002fd5 04             9435 	.byte	4
00002fd6 01             9436 	.byte	1
00002fd7 25             9437 	.byte	37
00002fd8 4645455f3330   9438 	.strz	"FEE_30_SMALLSECTOR_START_SEC_CODE "
00002fde 5f534d414c4c 
00002fe4 534543544f52 
00002fea 5f5354415254 
00002ff0 5f5345435f43 
00002ff6 4f44452000 
00002ffb 03             9439 	.byte	3
00002ffc 26             9440 	.byte	38
00002ffd 0f             9441 	.byte	15
00002ffe 01             9442 	.byte	1
00002fff 02             9443 	.byte	2
00003000 4d454d4d4150   9444 	.strz	"MEMMAP_VENDOR_ID (30u)"
00003006 5f56454e444f 
0000300c 525f49442028 
00003012 3330752900 
00003017 01             9445 	.byte	1
00003018 08             9446 	.byte	8
00003019 4d454d4d4150   9447 	.strz	"MEMMAP_AR_RELEASE_MAJOR_VERSION (4u)"
0000301f 5f41525f5245 
00003025 4c454153455f 
0000302b 4d414a4f525f 
00003031 56455253494f 
00003037 4e2028347529 
0000303d 00 
0000303e 01             9448 	.byte	1
0000303f 09             9449 	.byte	9
00003040 4d454d4d4150   9450 	.strz	"MEMMAP_AR_RELEASE_MINOR_VERSION (0u)"
00003046 5f41525f5245 
0000304c 4c454153455f 
00003052 4d494e4f525f 
00003058 56455253494f 
0000305e 4e2028307529 
00003064 00 
00003065 01             9451 	.byte	1
00003066 0a             9452 	.byte	10
00003067 4d454d4d4150   9453 	.strz	"MEMMAP_AR_RELEASE_REVISION_VERSION (3u)"
0000306d 5f41525f5245 
00003073 4c454153455f 
00003079 524556495349 
0000307f 4f4e5f564552 
00003085 53494f4e2028 
0000308b 33752900 
0000308f 01             9454 	.byte	1
00003090 10             9455 	.byte	16
00003091 4d454d5f4152   9456 	.strz	"MEM_AR_RELEASE_MAJOR_VERSION MEMMAP_AR_RELEASE_MAJOR_VERSION"
00003097 5f52454c4541 
0000309d 53455f4d414a 
000030a3 4f525f564552 

                                                                      Page 202
                                                              C:\Users\nhuliyap\AppData\Local\Temp\gh_000091s1.s
000030a9 53494f4e204d 
000030af 454d4d41505f 
000030b5 41525f52454c 
000030bb 454153455f4d 
000030c1 414a4f525f56 
000030c7 455253494f4e 
000030cd 00 
000030ce 01             9457 	.byte	1
000030cf 11             9458 	.byte	17
000030d0 4d454d5f4152   9459 	.strz	"MEM_AR_RELEASE_MINOR_VERSION MEMMAP_AR_RELEASE_MINOR_VERSION"
000030d6 5f52454c4541 
000030dc 53455f4d494e 
000030e2 4f525f564552 
000030e8 53494f4e204d 
000030ee 454d4d41505f 
000030f4 41525f52454c 
000030fa 454153455f4d 
00003100 494e4f525f56 
00003106 455253494f4e 
0000310c 00 
0000310d 01             9460 	.byte	1
0000310e 12             9461 	.byte	18
0000310f 4d454d5f4152   9462 	.strz	"MEM_AR_RELEASE_PATCH_VERSION MEMMAP_AR_RELEASE_REVISION_VERSION"
00003115 5f52454c4541 
0000311b 53455f504154 
00003121 43485f564552 
00003127 53494f4e204d 
0000312d 454d4d41505f 
00003133 41525f52454c 
00003139 454153455f52 
0000313f 45564953494f 
00003145 4e5f56455253 
0000314b 494f4e00 
0000314f 01             9463 	.byte	1
00003150 18             9464 	.byte	24
00003151 4d454d4d4150   9465 	.strz	"MEMMAP_SW_MAJOR_VERSION (1u)"
00003157 5f53575f4d41 
0000315d 4a4f525f5645 
00003163 5253494f4e20 
00003169 2831752900 
0000316e 01             9466 	.byte	1
0000316f 19             9467 	.byte	25
00003170 4d454d4d4150   9468 	.strz	"MEMMAP_SW_MINOR_VERSION (11u)"
00003176 5f53575f4d49 
0000317c 4e4f525f5645 
00003182 5253494f4e20 
00003188 283131752900 
0000318e 01             9469 	.byte	1
0000318f 1a             9470 	.byte	26
00003190 4d454d4d4150   9471 	.strz	"MEMMAP_SW_PATCH_VERSION (0u)"
00003196 5f53575f5041 
0000319c 5443485f5645 
000031a2 5253494f4e20 
000031a8 2830752900 
000031ad 01             9472 	.byte	1
000031ae 20             9473 	.byte	32
000031af 4d454d5f5357   9474 	.strz	"MEM_SW_MAJOR_VERSION MEMMAP_SW_MAJOR_VERSION"
000031b5 5f4d414a4f52 
000031bb 5f5645525349 
000031c1 4f4e204d454d 
000031c7 4d41505f5357 

                                                                      Page 203
                                                              C:\Users\nhuliyap\AppData\Local\Temp\gh_000091s1.s
000031cd 5f4d414a4f52 
000031d3 5f5645525349 
000031d9 4f4e00 
000031dc 01             9475 	.byte	1
000031dd 21             9476 	.byte	33
000031de 4d454d5f5357   9477 	.strz	"MEM_SW_MINOR_VERSION MEMMAP_SW_MINOR_VERSION"
000031e4 5f4d494e4f52 
000031ea 5f5645525349 
000031f0 4f4e204d454d 
000031f6 4d41505f5357 
000031fc 5f4d494e4f52 
00003202 5f5645525349 
00003208 4f4e00 
0000320b 01             9478 	.byte	1
0000320c 22             9479 	.byte	34
0000320d 4d454d5f5357   9480 	.strz	"MEM_SW_PATCH_VERSION MEMMAP_SW_PATCH_VERSION"
00003213 5f5041544348 
00003219 5f5645525349 
0000321f 4f4e204d454d 
00003225 4d41505f5357 
0000322b 5f5041544348 
00003231 5f5645525349 
00003237 4f4e00 
0000323a 01             9481 	.byte	1
0000323b 24             9482 	.byte	36
0000323c 4d454d4d4150   9483 	.strz	"MEMMAP_ERROR "
00003242 5f4552524f52 
00003248 2000 
0000324a 01             9484 	.byte	1
0000324b 31             9485 	.byte	49
0000324c 53544152545f   9486 	.strz	"START_SEC_CODE "
00003252 5345435f434f 
00003258 44452000 
0000325c 03             9487 	.byte	3
0000325d f403           9488 	.byte	244,3
0000325f 10             9489 	.byte	16
00003260 01             9490 	.byte	1
00003261 f307           9491 	.byte	243,7
00003263 434f44455f53   9492 	.strz	"CODE_SEC_OPEN "
00003269 45435f4f5045 
0000326f 4e2000 
00003272 04             9493 	.byte	4
00003273 04             9494 	.byte	4
00003274 01             9495 	.byte	1
00003275 60             9496 	.byte	96
00003276 4645455f3330   9497 	.strz	"FEE_30_SMALLSECTOR_STOP_SEC_CODE "
0000327c 5f534d414c4c 
00003282 534543544f52 
00003288 5f53544f505f 
0000328e 5345435f434f 
00003294 44452000 
00003298 03             9498 	.byte	3
00003299 61             9499 	.byte	97
0000329a 0f             9500 	.byte	15
0000329b 01             9501 	.byte	1
0000329c 02             9502 	.byte	2
0000329d 4d454d4d4150   9503 	.strz	"MEMMAP_VENDOR_ID (30u)"
000032a3 5f56454e444f 
000032a9 525f49442028 
000032af 3330752900 
000032b4 01             9504 	.byte	1

                                                                      Page 204
                                                              C:\Users\nhuliyap\AppData\Local\Temp\gh_000091s1.s
000032b5 08             9505 	.byte	8
000032b6 4d454d4d4150   9506 	.strz	"MEMMAP_AR_RELEASE_MAJOR_VERSION (4u)"
000032bc 5f41525f5245 
000032c2 4c454153455f 
000032c8 4d414a4f525f 
000032ce 56455253494f 
000032d4 4e2028347529 
000032da 00 
000032db 01             9507 	.byte	1
000032dc 09             9508 	.byte	9
000032dd 4d454d4d4150   9509 	.strz	"MEMMAP_AR_RELEASE_MINOR_VERSION (0u)"
000032e3 5f41525f5245 
000032e9 4c454153455f 
000032ef 4d494e4f525f 
000032f5 56455253494f 
000032fb 4e2028307529 
00003301 00 
00003302 01             9510 	.byte	1
00003303 0a             9511 	.byte	10
00003304 4d454d4d4150   9512 	.strz	"MEMMAP_AR_RELEASE_REVISION_VERSION (3u)"
0000330a 5f41525f5245 
00003310 4c454153455f 
00003316 524556495349 
0000331c 4f4e5f564552 
00003322 53494f4e2028 
00003328 33752900 
0000332c 01             9513 	.byte	1
0000332d 10             9514 	.byte	16
0000332e 4d454d5f4152   9515 	.strz	"MEM_AR_RELEASE_MAJOR_VERSION MEMMAP_AR_RELEASE_MAJOR_VERSION"
00003334 5f52454c4541 
0000333a 53455f4d414a 
00003340 4f525f564552 
00003346 53494f4e204d 
0000334c 454d4d41505f 
00003352 41525f52454c 
00003358 454153455f4d 
0000335e 414a4f525f56 
00003364 455253494f4e 
0000336a 00 
0000336b 01             9516 	.byte	1
0000336c 11             9517 	.byte	17
0000336d 4d454d5f4152   9518 	.strz	"MEM_AR_RELEASE_MINOR_VERSION MEMMAP_AR_RELEASE_MINOR_VERSION"
00003373 5f52454c4541 
00003379 53455f4d494e 
0000337f 4f525f564552 
00003385 53494f4e204d 
0000338b 454d4d41505f 
00003391 41525f52454c 
00003397 454153455f4d 
0000339d 494e4f525f56 
000033a3 455253494f4e 
000033a9 00 
000033aa 01             9519 	.byte	1
000033ab 12             9520 	.byte	18
000033ac 4d454d5f4152   9521 	.strz	"MEM_AR_RELEASE_PATCH_VERSION MEMMAP_AR_RELEASE_REVISION_VERSION"
000033b2 5f52454c4541 
000033b8 53455f504154 
000033be 43485f564552 
000033c4 53494f4e204d 
000033ca 454d4d41505f 
000033d0 41525f52454c 

                                                                      Page 205
                                                              C:\Users\nhuliyap\AppData\Local\Temp\gh_000091s1.s
000033d6 454153455f52 
000033dc 45564953494f 
000033e2 4e5f56455253 
000033e8 494f4e00 
000033ec 01             9522 	.byte	1
000033ed 18             9523 	.byte	24
000033ee 4d454d4d4150   9524 	.strz	"MEMMAP_SW_MAJOR_VERSION (1u)"
000033f4 5f53575f4d41 
000033fa 4a4f525f5645 
00003400 5253494f4e20 
00003406 2831752900 
0000340b 01             9525 	.byte	1
0000340c 19             9526 	.byte	25
0000340d 4d454d4d4150   9527 	.strz	"MEMMAP_SW_MINOR_VERSION (11u)"
00003413 5f53575f4d49 
00003419 4e4f525f5645 
0000341f 5253494f4e20 
00003425 283131752900 
0000342b 01             9528 	.byte	1
0000342c 1a             9529 	.byte	26
0000342d 4d454d4d4150   9530 	.strz	"MEMMAP_SW_PATCH_VERSION (0u)"
00003433 5f53575f5041 
00003439 5443485f5645 
0000343f 5253494f4e20 
00003445 2830752900 
0000344a 01             9531 	.byte	1
0000344b 20             9532 	.byte	32
0000344c 4d454d5f5357   9533 	.strz	"MEM_SW_MAJOR_VERSION MEMMAP_SW_MAJOR_VERSION"
00003452 5f4d414a4f52 
00003458 5f5645525349 
0000345e 4f4e204d454d 
00003464 4d41505f5357 
0000346a 5f4d414a4f52 
00003470 5f5645525349 
00003476 4f4e00 
00003479 01             9534 	.byte	1
0000347a 21             9535 	.byte	33
0000347b 4d454d5f5357   9536 	.strz	"MEM_SW_MINOR_VERSION MEMMAP_SW_MINOR_VERSION"
00003481 5f4d494e4f52 
00003487 5f5645525349 
0000348d 4f4e204d454d 
00003493 4d41505f5357 
00003499 5f4d494e4f52 
0000349f 5f5645525349 
000034a5 4f4e00 
000034a8 01             9537 	.byte	1
000034a9 22             9538 	.byte	34
000034aa 4d454d5f5357   9539 	.strz	"MEM_SW_PATCH_VERSION MEMMAP_SW_PATCH_VERSION"
000034b0 5f5041544348 
000034b6 5f5645525349 
000034bc 4f4e204d454d 
000034c2 4d41505f5357 
000034c8 5f5041544348 
000034ce 5f5645525349 
000034d4 4f4e00 
000034d7 01             9540 	.byte	1
000034d8 24             9541 	.byte	36
000034d9 4d454d4d4150   9542 	.strz	"MEMMAP_ERROR "
000034df 5f4552524f52 
000034e5 2000 
000034e7 01             9543 	.byte	1

                                                                      Page 206
                                                              C:\Users\nhuliyap\AppData\Local\Temp\gh_000091s1.s
000034e8 35             9544 	.byte	53
000034e9 53544f505f53   9545 	.strz	"STOP_SEC_CODE "
000034ef 45435f434f44 
000034f5 452000 
000034f8 03             9546 	.byte	3
000034f9 f403           9547 	.byte	244,3
000034fb 10             9548 	.byte	16
000034fc 04             9549 	.byte	4
000034fd 04             9550 	.byte	4
000034fe 04             9551 	.byte	4
000034ff 03             9552 	.byte	3
00003500 06             9553 	.byte	6
00003501 15             9554 	.byte	21
00003502 01             9555 	.byte	1
00003503 06             9556 	.byte	6
00003504 4645455f3330   9557 	.strz	"FEE_30_SMALLSECTOR_START_SEC_CODE "
0000350a 5f534d414c4c 
00003510 534543544f52 
00003516 5f5354415254 
0000351c 5f5345435f43 
00003522 4f44452000 
00003527 03             9558 	.byte	3
00003528 07             9559 	.byte	7
00003529 0f             9560 	.byte	15
0000352a 01             9561 	.byte	1
0000352b 02             9562 	.byte	2
0000352c 4d454d4d4150   9563 	.strz	"MEMMAP_VENDOR_ID (30u)"
00003532 5f56454e444f 
00003538 525f49442028 
0000353e 3330752900 
00003543 01             9564 	.byte	1
00003544 08             9565 	.byte	8
00003545 4d454d4d4150   9566 	.strz	"MEMMAP_AR_RELEASE_MAJOR_VERSION (4u)"
0000354b 5f41525f5245 
00003551 4c454153455f 
00003557 4d414a4f525f 
0000355d 56455253494f 
00003563 4e2028347529 
00003569 00 
0000356a 01             9567 	.byte	1
0000356b 09             9568 	.byte	9
0000356c 4d454d4d4150   9569 	.strz	"MEMMAP_AR_RELEASE_MINOR_VERSION (0u)"
00003572 5f41525f5245 
00003578 4c454153455f 
0000357e 4d494e4f525f 
00003584 56455253494f 
0000358a 4e2028307529 
00003590 00 
00003591 01             9570 	.byte	1
00003592 0a             9571 	.byte	10
00003593 4d454d4d4150   9572 	.strz	"MEMMAP_AR_RELEASE_REVISION_VERSION (3u)"
00003599 5f41525f5245 
0000359f 4c454153455f 
000035a5 524556495349 
000035ab 4f4e5f564552 
000035b1 53494f4e2028 
000035b7 33752900 
000035bb 01             9573 	.byte	1
000035bc 10             9574 	.byte	16
000035bd 4d454d5f4152   9575 	.strz	"MEM_AR_RELEASE_MAJOR_VERSION MEMMAP_AR_RELEASE_MAJOR_VERSION"
000035c3 5f52454c4541 

                                                                      Page 207
                                                              C:\Users\nhuliyap\AppData\Local\Temp\gh_000091s1.s
000035c9 53455f4d414a 
000035cf 4f525f564552 
000035d5 53494f4e204d 
000035db 454d4d41505f 
000035e1 41525f52454c 
000035e7 454153455f4d 
000035ed 414a4f525f56 
000035f3 455253494f4e 
000035f9 00 
000035fa 01             9576 	.byte	1
000035fb 11             9577 	.byte	17
000035fc 4d454d5f4152   9578 	.strz	"MEM_AR_RELEASE_MINOR_VERSION MEMMAP_AR_RELEASE_MINOR_VERSION"
00003602 5f52454c4541 
00003608 53455f4d494e 
0000360e 4f525f564552 
00003614 53494f4e204d 
0000361a 454d4d41505f 
00003620 41525f52454c 
00003626 454153455f4d 
0000362c 494e4f525f56 
00003632 455253494f4e 
00003638 00 
00003639 01             9579 	.byte	1
0000363a 12             9580 	.byte	18
0000363b 4d454d5f4152   9581 	.strz	"MEM_AR_RELEASE_PATCH_VERSION MEMMAP_AR_RELEASE_REVISION_VERSION"
00003641 5f52454c4541 
00003647 53455f504154 
0000364d 43485f564552 
00003653 53494f4e204d 
00003659 454d4d41505f 
0000365f 41525f52454c 
00003665 454153455f52 
0000366b 45564953494f 
00003671 4e5f56455253 
00003677 494f4e00 
0000367b 01             9582 	.byte	1
0000367c 18             9583 	.byte	24
0000367d 4d454d4d4150   9584 	.strz	"MEMMAP_SW_MAJOR_VERSION (1u)"
00003683 5f53575f4d41 
00003689 4a4f525f5645 
0000368f 5253494f4e20 
00003695 2831752900 
0000369a 01             9585 	.byte	1
0000369b 19             9586 	.byte	25
0000369c 4d454d4d4150   9587 	.strz	"MEMMAP_SW_MINOR_VERSION (11u)"
000036a2 5f53575f4d49 
000036a8 4e4f525f5645 
000036ae 5253494f4e20 
000036b4 283131752900 
000036ba 01             9588 	.byte	1
000036bb 1a             9589 	.byte	26
000036bc 4d454d4d4150   9590 	.strz	"MEMMAP_SW_PATCH_VERSION (0u)"
000036c2 5f53575f5041 
000036c8 5443485f5645 
000036ce 5253494f4e20 
000036d4 2830752900 
000036d9 01             9591 	.byte	1
000036da 20             9592 	.byte	32
000036db 4d454d5f5357   9593 	.strz	"MEM_SW_MAJOR_VERSION MEMMAP_SW_MAJOR_VERSION"
000036e1 5f4d414a4f52 
000036e7 5f5645525349 

                                                                      Page 208
                                                              C:\Users\nhuliyap\AppData\Local\Temp\gh_000091s1.s
000036ed 4f4e204d454d 
000036f3 4d41505f5357 
000036f9 5f4d414a4f52 
000036ff 5f5645525349 
00003705 4f4e00 
00003708 01             9594 	.byte	1
00003709 21             9595 	.byte	33
0000370a 4d454d5f5357   9596 	.strz	"MEM_SW_MINOR_VERSION MEMMAP_SW_MINOR_VERSION"
00003710 5f4d494e4f52 
00003716 5f5645525349 
0000371c 4f4e204d454d 
00003722 4d41505f5357 
00003728 5f4d494e4f52 
0000372e 5f5645525349 
00003734 4f4e00 
00003737 01             9597 	.byte	1
00003738 22             9598 	.byte	34
00003739 4d454d5f5357   9599 	.strz	"MEM_SW_PATCH_VERSION MEMMAP_SW_PATCH_VERSION"
0000373f 5f5041544348 
00003745 5f5645525349 
0000374b 4f4e204d454d 
00003751 4d41505f5357 
00003757 5f5041544348 
0000375d 5f5645525349 
00003763 4f4e00 
00003766 01             9600 	.byte	1
00003767 24             9601 	.byte	36
00003768 4d454d4d4150   9602 	.strz	"MEMMAP_ERROR "
0000376e 5f4552524f52 
00003774 2000 
00003776 01             9603 	.byte	1
00003777 31             9604 	.byte	49
00003778 53544152545f   9605 	.strz	"START_SEC_CODE "
0000377e 5345435f434f 
00003784 44452000 
00003788 03             9606 	.byte	3
00003789 f403           9607 	.byte	244,3
0000378b 10             9608 	.byte	16
0000378c 01             9609 	.byte	1
0000378d f307           9610 	.byte	243,7
0000378f 434f44455f53   9611 	.strz	"CODE_SEC_OPEN "
00003795 45435f4f5045 
0000379b 4e2000 
0000379e 04             9612 	.byte	4
0000379f 04             9613 	.byte	4
000037a0 01             9614 	.byte	1
000037a1 10             9615 	.byte	16
000037a2 4645455f3330   9616 	.strz	"FEE_30_SMALLSECTOR_STOP_SEC_CODE "
000037a8 5f534d414c4c 
000037ae 534543544f52 
000037b4 5f53544f505f 
000037ba 5345435f434f 
000037c0 44452000 
000037c4 03             9617 	.byte	3
000037c5 11             9618 	.byte	17
000037c6 0f             9619 	.byte	15
000037c7 01             9620 	.byte	1
000037c8 02             9621 	.byte	2
000037c9 4d454d4d4150   9622 	.strz	"MEMMAP_VENDOR_ID (30u)"
000037cf 5f56454e444f 
000037d5 525f49442028 

                                                                      Page 209
                                                              C:\Users\nhuliyap\AppData\Local\Temp\gh_000091s1.s
000037db 3330752900 
000037e0 01             9623 	.byte	1
000037e1 08             9624 	.byte	8
000037e2 4d454d4d4150   9625 	.strz	"MEMMAP_AR_RELEASE_MAJOR_VERSION (4u)"
000037e8 5f41525f5245 
000037ee 4c454153455f 
000037f4 4d414a4f525f 
000037fa 56455253494f 
00003800 4e2028347529 
00003806 00 
00003807 01             9626 	.byte	1
00003808 09             9627 	.byte	9
00003809 4d454d4d4150   9628 	.strz	"MEMMAP_AR_RELEASE_MINOR_VERSION (0u)"
0000380f 5f41525f5245 
00003815 4c454153455f 
0000381b 4d494e4f525f 
00003821 56455253494f 
00003827 4e2028307529 
0000382d 00 
0000382e 01             9629 	.byte	1
0000382f 0a             9630 	.byte	10
00003830 4d454d4d4150   9631 	.strz	"MEMMAP_AR_RELEASE_REVISION_VERSION (3u)"
00003836 5f41525f5245 
0000383c 4c454153455f 
00003842 524556495349 
00003848 4f4e5f564552 
0000384e 53494f4e2028 
00003854 33752900 
00003858 01             9632 	.byte	1
00003859 10             9633 	.byte	16
0000385a 4d454d5f4152   9634 	.strz	"MEM_AR_RELEASE_MAJOR_VERSION MEMMAP_AR_RELEASE_MAJOR_VERSION"
00003860 5f52454c4541 
00003866 53455f4d414a 
0000386c 4f525f564552 
00003872 53494f4e204d 
00003878 454d4d41505f 
0000387e 41525f52454c 
00003884 454153455f4d 
0000388a 414a4f525f56 
00003890 455253494f4e 
00003896 00 
00003897 01             9635 	.byte	1
00003898 11             9636 	.byte	17
00003899 4d454d5f4152   9637 	.strz	"MEM_AR_RELEASE_MINOR_VERSION MEMMAP_AR_RELEASE_MINOR_VERSION"
0000389f 5f52454c4541 
000038a5 53455f4d494e 
000038ab 4f525f564552 
000038b1 53494f4e204d 
000038b7 454d4d41505f 
000038bd 41525f52454c 
000038c3 454153455f4d 
000038c9 494e4f525f56 
000038cf 455253494f4e 
000038d5 00 
000038d6 01             9638 	.byte	1
000038d7 12             9639 	.byte	18
000038d8 4d454d5f4152   9640 	.strz	"MEM_AR_RELEASE_PATCH_VERSION MEMMAP_AR_RELEASE_REVISION_VERSION"
000038de 5f52454c4541 
000038e4 53455f504154 
000038ea 43485f564552 
000038f0 53494f4e204d 

                                                                      Page 210
                                                              C:\Users\nhuliyap\AppData\Local\Temp\gh_000091s1.s
000038f6 454d4d41505f 
000038fc 41525f52454c 
00003902 454153455f52 
00003908 45564953494f 
0000390e 4e5f56455253 
00003914 494f4e00 
00003918 01             9641 	.byte	1
00003919 18             9642 	.byte	24
0000391a 4d454d4d4150   9643 	.strz	"MEMMAP_SW_MAJOR_VERSION (1u)"
00003920 5f53575f4d41 
00003926 4a4f525f5645 
0000392c 5253494f4e20 
00003932 2831752900 
00003937 01             9644 	.byte	1
00003938 19             9645 	.byte	25
00003939 4d454d4d4150   9646 	.strz	"MEMMAP_SW_MINOR_VERSION (11u)"
0000393f 5f53575f4d49 
00003945 4e4f525f5645 
0000394b 5253494f4e20 
00003951 283131752900 
00003957 01             9647 	.byte	1
00003958 1a             9648 	.byte	26
00003959 4d454d4d4150   9649 	.strz	"MEMMAP_SW_PATCH_VERSION (0u)"
0000395f 5f53575f5041 
00003965 5443485f5645 
0000396b 5253494f4e20 
00003971 2830752900 
00003976 01             9650 	.byte	1
00003977 20             9651 	.byte	32
00003978 4d454d5f5357   9652 	.strz	"MEM_SW_MAJOR_VERSION MEMMAP_SW_MAJOR_VERSION"
0000397e 5f4d414a4f52 
00003984 5f5645525349 
0000398a 4f4e204d454d 
00003990 4d41505f5357 
00003996 5f4d414a4f52 
0000399c 5f5645525349 
000039a2 4f4e00 
000039a5 01             9653 	.byte	1
000039a6 21             9654 	.byte	33
000039a7 4d454d5f5357   9655 	.strz	"MEM_SW_MINOR_VERSION MEMMAP_SW_MINOR_VERSION"
000039ad 5f4d494e4f52 
000039b3 5f5645525349 
000039b9 4f4e204d454d 
000039bf 4d41505f5357 
000039c5 5f4d494e4f52 
000039cb 5f5645525349 
000039d1 4f4e00 
000039d4 01             9656 	.byte	1
000039d5 22             9657 	.byte	34
000039d6 4d454d5f5357   9658 	.strz	"MEM_SW_PATCH_VERSION MEMMAP_SW_PATCH_VERSION"
000039dc 5f5041544348 
000039e2 5f5645525349 
000039e8 4f4e204d454d 
000039ee 4d41505f5357 
000039f4 5f5041544348 
000039fa 5f5645525349 
00003a00 4f4e00 
00003a03 01             9659 	.byte	1
00003a04 24             9660 	.byte	36
00003a05 4d454d4d4150   9661 	.strz	"MEMMAP_ERROR "
00003a0b 5f4552524f52 

                                                                      Page 211
                                                              C:\Users\nhuliyap\AppData\Local\Temp\gh_000091s1.s
00003a11 2000 
00003a13 01             9662 	.byte	1
00003a14 35             9663 	.byte	53
00003a15 53544f505f53   9664 	.strz	"STOP_SEC_CODE "
00003a1b 45435f434f44 
00003a21 452000 
00003a24 03             9665 	.byte	3
00003a25 f403           9666 	.byte	244,3
00003a27 10             9667 	.byte	16
00003a28 04             9668 	.byte	4
00003a29 04             9669 	.byte	4
00003a2a 04             9670 	.byte	4
00003a2b 03             9671 	.byte	3
00003a2c 07             9672 	.byte	7
00003a2d 16             9673 	.byte	22
00003a2e 01             9674 	.byte	1
00003a2f 08             9675 	.byte	8
00003a30 4645455f3330   9676 	.strz	"FEE_30_SMALLSECTOR_START_SEC_CODE "
00003a36 5f534d414c4c 
00003a3c 534543544f52 
00003a42 5f5354415254 
00003a48 5f5345435f43 
00003a4e 4f44452000 
00003a53 03             9677 	.byte	3
00003a54 09             9678 	.byte	9
00003a55 0f             9679 	.byte	15
00003a56 01             9680 	.byte	1
00003a57 02             9681 	.byte	2
00003a58 4d454d4d4150   9682 	.strz	"MEMMAP_VENDOR_ID (30u)"
00003a5e 5f56454e444f 
00003a64 525f49442028 
00003a6a 3330752900 
00003a6f 01             9683 	.byte	1
00003a70 08             9684 	.byte	8
00003a71 4d454d4d4150   9685 	.strz	"MEMMAP_AR_RELEASE_MAJOR_VERSION (4u)"
00003a77 5f41525f5245 
00003a7d 4c454153455f 
00003a83 4d414a4f525f 
00003a89 56455253494f 
00003a8f 4e2028347529 
00003a95 00 
00003a96 01             9686 	.byte	1
00003a97 09             9687 	.byte	9
00003a98 4d454d4d4150   9688 	.strz	"MEMMAP_AR_RELEASE_MINOR_VERSION (0u)"
00003a9e 5f41525f5245 
00003aa4 4c454153455f 
00003aaa 4d494e4f525f 
00003ab0 56455253494f 
00003ab6 4e2028307529 
00003abc 00 
00003abd 01             9689 	.byte	1
00003abe 0a             9690 	.byte	10
00003abf 4d454d4d4150   9691 	.strz	"MEMMAP_AR_RELEASE_REVISION_VERSION (3u)"
00003ac5 5f41525f5245 
00003acb 4c454153455f 
00003ad1 524556495349 
00003ad7 4f4e5f564552 
00003add 53494f4e2028 
00003ae3 33752900 
00003ae7 01             9692 	.byte	1
00003ae8 10             9693 	.byte	16

                                                                      Page 212
                                                              C:\Users\nhuliyap\AppData\Local\Temp\gh_000091s1.s
00003ae9 4d454d5f4152   9694 	.strz	"MEM_AR_RELEASE_MAJOR_VERSION MEMMAP_AR_RELEASE_MAJOR_VERSION"
00003aef 5f52454c4541 
00003af5 53455f4d414a 
00003afb 4f525f564552 
00003b01 53494f4e204d 
00003b07 454d4d41505f 
00003b0d 41525f52454c 
00003b13 454153455f4d 
00003b19 414a4f525f56 
00003b1f 455253494f4e 
00003b25 00 
00003b26 01             9695 	.byte	1
00003b27 11             9696 	.byte	17
00003b28 4d454d5f4152   9697 	.strz	"MEM_AR_RELEASE_MINOR_VERSION MEMMAP_AR_RELEASE_MINOR_VERSION"
00003b2e 5f52454c4541 
00003b34 53455f4d494e 
00003b3a 4f525f564552 
00003b40 53494f4e204d 
00003b46 454d4d41505f 
00003b4c 41525f52454c 
00003b52 454153455f4d 
00003b58 494e4f525f56 
00003b5e 455253494f4e 
00003b64 00 
00003b65 01             9698 	.byte	1
00003b66 12             9699 	.byte	18
00003b67 4d454d5f4152   9700 	.strz	"MEM_AR_RELEASE_PATCH_VERSION MEMMAP_AR_RELEASE_REVISION_VERSION"
00003b6d 5f52454c4541 
00003b73 53455f504154 
00003b79 43485f564552 
00003b7f 53494f4e204d 
00003b85 454d4d41505f 
00003b8b 41525f52454c 
00003b91 454153455f52 
00003b97 45564953494f 
00003b9d 4e5f56455253 
00003ba3 494f4e00 
00003ba7 01             9701 	.byte	1
00003ba8 18             9702 	.byte	24
00003ba9 4d454d4d4150   9703 	.strz	"MEMMAP_SW_MAJOR_VERSION (1u)"
00003baf 5f53575f4d41 
00003bb5 4a4f525f5645 
00003bbb 5253494f4e20 
00003bc1 2831752900 
00003bc6 01             9704 	.byte	1
00003bc7 19             9705 	.byte	25
00003bc8 4d454d4d4150   9706 	.strz	"MEMMAP_SW_MINOR_VERSION (11u)"
00003bce 5f53575f4d49 
00003bd4 4e4f525f5645 
00003bda 5253494f4e20 
00003be0 283131752900 
00003be6 01             9707 	.byte	1
00003be7 1a             9708 	.byte	26
00003be8 4d454d4d4150   9709 	.strz	"MEMMAP_SW_PATCH_VERSION (0u)"
00003bee 5f53575f5041 
00003bf4 5443485f5645 
00003bfa 5253494f4e20 
00003c00 2830752900 
00003c05 01             9710 	.byte	1
00003c06 20             9711 	.byte	32
00003c07 4d454d5f5357   9712 	.strz	"MEM_SW_MAJOR_VERSION MEMMAP_SW_MAJOR_VERSION"

                                                                      Page 213
                                                              C:\Users\nhuliyap\AppData\Local\Temp\gh_000091s1.s
00003c0d 5f4d414a4f52 
00003c13 5f5645525349 
00003c19 4f4e204d454d 
00003c1f 4d41505f5357 
00003c25 5f4d414a4f52 
00003c2b 5f5645525349 
00003c31 4f4e00 
00003c34 01             9713 	.byte	1
00003c35 21             9714 	.byte	33
00003c36 4d454d5f5357   9715 	.strz	"MEM_SW_MINOR_VERSION MEMMAP_SW_MINOR_VERSION"
00003c3c 5f4d494e4f52 
00003c42 5f5645525349 
00003c48 4f4e204d454d 
00003c4e 4d41505f5357 
00003c54 5f4d494e4f52 
00003c5a 5f5645525349 
00003c60 4f4e00 
00003c63 01             9716 	.byte	1
00003c64 22             9717 	.byte	34
00003c65 4d454d5f5357   9718 	.strz	"MEM_SW_PATCH_VERSION MEMMAP_SW_PATCH_VERSION"
00003c6b 5f5041544348 
00003c71 5f5645525349 
00003c77 4f4e204d454d 
00003c7d 4d41505f5357 
00003c83 5f5041544348 
00003c89 5f5645525349 
00003c8f 4f4e00 
00003c92 01             9719 	.byte	1
00003c93 24             9720 	.byte	36
00003c94 4d454d4d4150   9721 	.strz	"MEMMAP_ERROR "
00003c9a 5f4552524f52 
00003ca0 2000 
00003ca2 01             9722 	.byte	1
00003ca3 31             9723 	.byte	49
00003ca4 53544152545f   9724 	.strz	"START_SEC_CODE "
00003caa 5345435f434f 
00003cb0 44452000 
00003cb4 03             9725 	.byte	3
00003cb5 f403           9726 	.byte	244,3
00003cb7 10             9727 	.byte	16
00003cb8 01             9728 	.byte	1
00003cb9 f307           9729 	.byte	243,7
00003cbb 434f44455f53   9730 	.strz	"CODE_SEC_OPEN "
00003cc1 45435f4f5045 
00003cc7 4e2000 
00003cca 04             9731 	.byte	4
00003ccb 04             9732 	.byte	4
00003ccc 01             9733 	.byte	1
00003ccd 1e             9734 	.byte	30
00003cce 4645455f3330   9735 	.strz	"FEE_30_SMALLSECTOR_STOP_SEC_CODE "
00003cd4 5f534d414c4c 
00003cda 534543544f52 
00003ce0 5f53544f505f 
00003ce6 5345435f434f 
00003cec 44452000 
00003cf0 03             9736 	.byte	3
00003cf1 1f             9737 	.byte	31
00003cf2 0f             9738 	.byte	15
00003cf3 01             9739 	.byte	1
00003cf4 02             9740 	.byte	2
00003cf5 4d454d4d4150   9741 	.strz	"MEMMAP_VENDOR_ID (30u)"

                                                                      Page 214
                                                              C:\Users\nhuliyap\AppData\Local\Temp\gh_000091s1.s
00003cfb 5f56454e444f 
00003d01 525f49442028 
00003d07 3330752900 
00003d0c 01             9742 	.byte	1
00003d0d 08             9743 	.byte	8
00003d0e 4d454d4d4150   9744 	.strz	"MEMMAP_AR_RELEASE_MAJOR_VERSION (4u)"
00003d14 5f41525f5245 
00003d1a 4c454153455f 
00003d20 4d414a4f525f 
00003d26 56455253494f 
00003d2c 4e2028347529 
00003d32 00 
00003d33 01             9745 	.byte	1
00003d34 09             9746 	.byte	9
00003d35 4d454d4d4150   9747 	.strz	"MEMMAP_AR_RELEASE_MINOR_VERSION (0u)"
00003d3b 5f41525f5245 
00003d41 4c454153455f 
00003d47 4d494e4f525f 
00003d4d 56455253494f 
00003d53 4e2028307529 
00003d59 00 
00003d5a 01             9748 	.byte	1
00003d5b 0a             9749 	.byte	10
00003d5c 4d454d4d4150   9750 	.strz	"MEMMAP_AR_RELEASE_REVISION_VERSION (3u)"
00003d62 5f41525f5245 
00003d68 4c454153455f 
00003d6e 524556495349 
00003d74 4f4e5f564552 
00003d7a 53494f4e2028 
00003d80 33752900 
00003d84 01             9751 	.byte	1
00003d85 10             9752 	.byte	16
00003d86 4d454d5f4152   9753 	.strz	"MEM_AR_RELEASE_MAJOR_VERSION MEMMAP_AR_RELEASE_MAJOR_VERSION"
00003d8c 5f52454c4541 
00003d92 53455f4d414a 
00003d98 4f525f564552 
00003d9e 53494f4e204d 
00003da4 454d4d41505f 
00003daa 41525f52454c 
00003db0 454153455f4d 
00003db6 414a4f525f56 
00003dbc 455253494f4e 
00003dc2 00 
00003dc3 01             9754 	.byte	1
00003dc4 11             9755 	.byte	17
00003dc5 4d454d5f4152   9756 	.strz	"MEM_AR_RELEASE_MINOR_VERSION MEMMAP_AR_RELEASE_MINOR_VERSION"
00003dcb 5f52454c4541 
00003dd1 53455f4d494e 
00003dd7 4f525f564552 
00003ddd 53494f4e204d 
00003de3 454d4d41505f 
00003de9 41525f52454c 
00003def 454153455f4d 
00003df5 494e4f525f56 
00003dfb 455253494f4e 
00003e01 00 
00003e02 01             9757 	.byte	1
00003e03 12             9758 	.byte	18
00003e04 4d454d5f4152   9759 	.strz	"MEM_AR_RELEASE_PATCH_VERSION MEMMAP_AR_RELEASE_REVISION_VERSION"
00003e0a 5f52454c4541 
00003e10 53455f504154 

                                                                      Page 215
                                                              C:\Users\nhuliyap\AppData\Local\Temp\gh_000091s1.s
00003e16 43485f564552 
00003e1c 53494f4e204d 
00003e22 454d4d41505f 
00003e28 41525f52454c 
00003e2e 454153455f52 
00003e34 45564953494f 
00003e3a 4e5f56455253 
00003e40 494f4e00 
00003e44 01             9760 	.byte	1
00003e45 18             9761 	.byte	24
00003e46 4d454d4d4150   9762 	.strz	"MEMMAP_SW_MAJOR_VERSION (1u)"
00003e4c 5f53575f4d41 
00003e52 4a4f525f5645 
00003e58 5253494f4e20 
00003e5e 2831752900 
00003e63 01             9763 	.byte	1
00003e64 19             9764 	.byte	25
00003e65 4d454d4d4150   9765 	.strz	"MEMMAP_SW_MINOR_VERSION (11u)"
00003e6b 5f53575f4d49 
00003e71 4e4f525f5645 
00003e77 5253494f4e20 
00003e7d 283131752900 
00003e83 01             9766 	.byte	1
00003e84 1a             9767 	.byte	26
00003e85 4d454d4d4150   9768 	.strz	"MEMMAP_SW_PATCH_VERSION (0u)"
00003e8b 5f53575f5041 
00003e91 5443485f5645 
00003e97 5253494f4e20 
00003e9d 2830752900 
00003ea2 01             9769 	.byte	1
00003ea3 20             9770 	.byte	32
00003ea4 4d454d5f5357   9771 	.strz	"MEM_SW_MAJOR_VERSION MEMMAP_SW_MAJOR_VERSION"
00003eaa 5f4d414a4f52 
00003eb0 5f5645525349 
00003eb6 4f4e204d454d 
00003ebc 4d41505f5357 
00003ec2 5f4d414a4f52 
00003ec8 5f5645525349 
00003ece 4f4e00 
00003ed1 01             9772 	.byte	1
00003ed2 21             9773 	.byte	33
00003ed3 4d454d5f5357   9774 	.strz	"MEM_SW_MINOR_VERSION MEMMAP_SW_MINOR_VERSION"
00003ed9 5f4d494e4f52 
00003edf 5f5645525349 
00003ee5 4f4e204d454d 
00003eeb 4d41505f5357 
00003ef1 5f4d494e4f52 
00003ef7 5f5645525349 
00003efd 4f4e00 
00003f00 01             9775 	.byte	1
00003f01 22             9776 	.byte	34
00003f02 4d454d5f5357   9777 	.strz	"MEM_SW_PATCH_VERSION MEMMAP_SW_PATCH_VERSION"
00003f08 5f5041544348 
00003f0e 5f5645525349 
00003f14 4f4e204d454d 
00003f1a 4d41505f5357 
00003f20 5f5041544348 
00003f26 5f5645525349 
00003f2c 4f4e00 
00003f2f 01             9778 	.byte	1
00003f30 24             9779 	.byte	36

                                                                      Page 216
                                                              C:\Users\nhuliyap\AppData\Local\Temp\gh_000091s1.s
00003f31 4d454d4d4150   9780 	.strz	"MEMMAP_ERROR "
00003f37 5f4552524f52 
00003f3d 2000 
00003f3f 01             9781 	.byte	1
00003f40 35             9782 	.byte	53
00003f41 53544f505f53   9783 	.strz	"STOP_SEC_CODE "
00003f47 45435f434f44 
00003f4d 452000 
00003f50 03             9784 	.byte	3
00003f51 f403           9785 	.byte	244,3
00003f53 10             9786 	.byte	16
00003f54 04             9787 	.byte	4
00003f55 04             9788 	.byte	4
00003f56 04             9789 	.byte	4
00003f57 01             9790 	.byte	1
00003f58 0c             9791 	.byte	12
00003f59 4645455f3330   9792 	.strz	"FEE_30_SMALLSECTOR_LOCAL static"
00003f5f 5f534d414c4c 
00003f65 534543544f52 
00003f6b 5f4c4f43414c 
00003f71 207374617469 
00003f77 6300 
00003f79 01             9793 	.byte	1
00003f7a 0f             9794 	.byte	15
00003f7b 4645455f3330   9795 	.strz	"FEE_30_SMALLSECTOR_START_SEC_VAR_NOINIT_UNSPECIFIED "
00003f81 5f534d414c4c 
00003f87 534543544f52 
00003f8d 5f5354415254 
00003f93 5f5345435f56 
00003f99 41525f4e4f49 
00003f9f 4e49545f554e 
00003fa5 535045434946 
00003fab 4945442000 
00003fb0 03             9796 	.byte	3
00003fb1 10             9797 	.byte	16
00003fb2 0f             9798 	.byte	15
00003fb3 01             9799 	.byte	1
00003fb4 02             9800 	.byte	2
00003fb5 4d454d4d4150   9801 	.strz	"MEMMAP_VENDOR_ID (30u)"
00003fbb 5f56454e444f 
00003fc1 525f49442028 
00003fc7 3330752900 
00003fcc 01             9802 	.byte	1
00003fcd 08             9803 	.byte	8
00003fce 4d454d4d4150   9804 	.strz	"MEMMAP_AR_RELEASE_MAJOR_VERSION (4u)"
00003fd4 5f41525f5245 
00003fda 4c454153455f 
00003fe0 4d414a4f525f 
00003fe6 56455253494f 
00003fec 4e2028347529 
00003ff2 00 
00003ff3 01             9805 	.byte	1
00003ff4 09             9806 	.byte	9
00003ff5 4d454d4d4150   9807 	.strz	"MEMMAP_AR_RELEASE_MINOR_VERSION (0u)"
00003ffb 5f41525f5245 
00004001 4c454153455f 
00004007 4d494e4f525f 
0000400d 56455253494f 
00004013 4e2028307529 
00004019 00 
0000401a 01             9808 	.byte	1

                                                                      Page 217
                                                              C:\Users\nhuliyap\AppData\Local\Temp\gh_000091s1.s
0000401b 0a             9809 	.byte	10
0000401c 4d454d4d4150   9810 	.strz	"MEMMAP_AR_RELEASE_REVISION_VERSION (3u)"
00004022 5f41525f5245 
00004028 4c454153455f 
0000402e 524556495349 
00004034 4f4e5f564552 
0000403a 53494f4e2028 
00004040 33752900 
00004044 01             9811 	.byte	1
00004045 10             9812 	.byte	16
00004046 4d454d5f4152   9813 	.strz	"MEM_AR_RELEASE_MAJOR_VERSION MEMMAP_AR_RELEASE_MAJOR_VERSION"
0000404c 5f52454c4541 
00004052 53455f4d414a 
00004058 4f525f564552 
0000405e 53494f4e204d 
00004064 454d4d41505f 
0000406a 41525f52454c 
00004070 454153455f4d 
00004076 414a4f525f56 
0000407c 455253494f4e 
00004082 00 
00004083 01             9814 	.byte	1
00004084 11             9815 	.byte	17
00004085 4d454d5f4152   9816 	.strz	"MEM_AR_RELEASE_MINOR_VERSION MEMMAP_AR_RELEASE_MINOR_VERSION"
0000408b 5f52454c4541 
00004091 53455f4d494e 
00004097 4f525f564552 
0000409d 53494f4e204d 
000040a3 454d4d41505f 
000040a9 41525f52454c 
000040af 454153455f4d 
000040b5 494e4f525f56 
000040bb 455253494f4e 
000040c1 00 
000040c2 01             9817 	.byte	1
000040c3 12             9818 	.byte	18
000040c4 4d454d5f4152   9819 	.strz	"MEM_AR_RELEASE_PATCH_VERSION MEMMAP_AR_RELEASE_REVISION_VERSION"
000040ca 5f52454c4541 
000040d0 53455f504154 
000040d6 43485f564552 
000040dc 53494f4e204d 
000040e2 454d4d41505f 
000040e8 41525f52454c 
000040ee 454153455f52 
000040f4 45564953494f 
000040fa 4e5f56455253 
00004100 494f4e00 
00004104 01             9820 	.byte	1
00004105 18             9821 	.byte	24
00004106 4d454d4d4150   9822 	.strz	"MEMMAP_SW_MAJOR_VERSION (1u)"
0000410c 5f53575f4d41 
00004112 4a4f525f5645 
00004118 5253494f4e20 
0000411e 2831752900 
00004123 01             9823 	.byte	1
00004124 19             9824 	.byte	25
00004125 4d454d4d4150   9825 	.strz	"MEMMAP_SW_MINOR_VERSION (11u)"
0000412b 5f53575f4d49 
00004131 4e4f525f5645 
00004137 5253494f4e20 
0000413d 283131752900 

                                                                      Page 218
                                                              C:\Users\nhuliyap\AppData\Local\Temp\gh_000091s1.s
00004143 01             9826 	.byte	1
00004144 1a             9827 	.byte	26
00004145 4d454d4d4150   9828 	.strz	"MEMMAP_SW_PATCH_VERSION (0u)"
0000414b 5f53575f5041 
00004151 5443485f5645 
00004157 5253494f4e20 
0000415d 2830752900 
00004162 01             9829 	.byte	1
00004163 20             9830 	.byte	32
00004164 4d454d5f5357   9831 	.strz	"MEM_SW_MAJOR_VERSION MEMMAP_SW_MAJOR_VERSION"
0000416a 5f4d414a4f52 
00004170 5f5645525349 
00004176 4f4e204d454d 
0000417c 4d41505f5357 
00004182 5f4d414a4f52 
00004188 5f5645525349 
0000418e 4f4e00 
00004191 01             9832 	.byte	1
00004192 21             9833 	.byte	33
00004193 4d454d5f5357   9834 	.strz	"MEM_SW_MINOR_VERSION MEMMAP_SW_MINOR_VERSION"
00004199 5f4d494e4f52 
0000419f 5f5645525349 
000041a5 4f4e204d454d 
000041ab 4d41505f5357 
000041b1 5f4d494e4f52 
000041b7 5f5645525349 
000041bd 4f4e00 
000041c0 01             9835 	.byte	1
000041c1 22             9836 	.byte	34
000041c2 4d454d5f5357   9837 	.strz	"MEM_SW_PATCH_VERSION MEMMAP_SW_PATCH_VERSION"
000041c8 5f5041544348 
000041ce 5f5645525349 
000041d4 4f4e204d454d 
000041da 4d41505f5357 
000041e0 5f5041544348 
000041e6 5f5645525349 
000041ec 4f4e00 
000041ef 01             9838 	.byte	1
000041f0 24             9839 	.byte	36
000041f1 4d454d4d4150   9840 	.strz	"MEMMAP_ERROR "
000041f7 5f4552524f52 
000041fd 2000 
000041ff 01             9841 	.byte	1
00004200 5e             9842 	.byte	94
00004201 53544152545f   9843 	.strz	"START_SEC_VAR_NOINIT_UNSPECIFIED "
00004207 5345435f5641 
0000420d 525f4e4f494e 
00004213 49545f554e53 
00004219 504543494649 
0000421f 45442000 
00004223 03             9844 	.byte	3
00004224 f403           9845 	.byte	244,3
00004226 10             9846 	.byte	16
00004227 01             9847 	.byte	1
00004228 ce09           9848 	.byte	206,9
0000422a 5641525f5345   9849 	.strz	"VAR_SEC_OPEN "
00004230 435f4f50454e 
00004236 2000 
00004238 04             9850 	.byte	4
00004239 04             9851 	.byte	4
0000423a 01             9852 	.byte	1

                                                                      Page 219
                                                              C:\Users\nhuliyap\AppData\Local\Temp\gh_000091s1.s
0000423b 15             9853 	.byte	21
0000423c 4645455f3330   9854 	.strz	"FEE_30_SMALLSECTOR_STOP_SEC_VAR_NOINIT_UNSPECIFIED "
00004242 5f534d414c4c 
00004248 534543544f52 
0000424e 5f53544f505f 
00004254 5345435f5641 
0000425a 525f4e4f494e 
00004260 49545f554e53 
00004266 504543494649 
0000426c 45442000 
00004270 03             9855 	.byte	3
00004271 16             9856 	.byte	22
00004272 0f             9857 	.byte	15
00004273 01             9858 	.byte	1
00004274 02             9859 	.byte	2
00004275 4d454d4d4150   9860 	.strz	"MEMMAP_VENDOR_ID (30u)"
0000427b 5f56454e444f 
00004281 525f49442028 
00004287 3330752900 
0000428c 01             9861 	.byte	1
0000428d 08             9862 	.byte	8
0000428e 4d454d4d4150   9863 	.strz	"MEMMAP_AR_RELEASE_MAJOR_VERSION (4u)"
00004294 5f41525f5245 
0000429a 4c454153455f 
000042a0 4d414a4f525f 
000042a6 56455253494f 
000042ac 4e2028347529 
000042b2 00 
000042b3 01             9864 	.byte	1
000042b4 09             9865 	.byte	9
000042b5 4d454d4d4150   9866 	.strz	"MEMMAP_AR_RELEASE_MINOR_VERSION (0u)"
000042bb 5f41525f5245 
000042c1 4c454153455f 
000042c7 4d494e4f525f 
000042cd 56455253494f 
000042d3 4e2028307529 
000042d9 00 
000042da 01             9867 	.byte	1
000042db 0a             9868 	.byte	10
000042dc 4d454d4d4150   9869 	.strz	"MEMMAP_AR_RELEASE_REVISION_VERSION (3u)"
000042e2 5f41525f5245 
000042e8 4c454153455f 
000042ee 524556495349 
000042f4 4f4e5f564552 
000042fa 53494f4e2028 
00004300 33752900 
00004304 01             9870 	.byte	1
00004305 10             9871 	.byte	16
00004306 4d454d5f4152   9872 	.strz	"MEM_AR_RELEASE_MAJOR_VERSION MEMMAP_AR_RELEASE_MAJOR_VERSION"
0000430c 5f52454c4541 
00004312 53455f4d414a 
00004318 4f525f564552 
0000431e 53494f4e204d 
00004324 454d4d41505f 
0000432a 41525f52454c 
00004330 454153455f4d 
00004336 414a4f525f56 
0000433c 455253494f4e 
00004342 00 
00004343 01             9873 	.byte	1
00004344 11             9874 	.byte	17

                                                                      Page 220
                                                              C:\Users\nhuliyap\AppData\Local\Temp\gh_000091s1.s
00004345 4d454d5f4152   9875 	.strz	"MEM_AR_RELEASE_MINOR_VERSION MEMMAP_AR_RELEASE_MINOR_VERSION"
0000434b 5f52454c4541 
00004351 53455f4d494e 
00004357 4f525f564552 
0000435d 53494f4e204d 
00004363 454d4d41505f 
00004369 41525f52454c 
0000436f 454153455f4d 
00004375 494e4f525f56 
0000437b 455253494f4e 
00004381 00 
00004382 01             9876 	.byte	1
00004383 12             9877 	.byte	18
00004384 4d454d5f4152   9878 	.strz	"MEM_AR_RELEASE_PATCH_VERSION MEMMAP_AR_RELEASE_REVISION_VERSION"
0000438a 5f52454c4541 
00004390 53455f504154 
00004396 43485f564552 
0000439c 53494f4e204d 
000043a2 454d4d41505f 
000043a8 41525f52454c 
000043ae 454153455f52 
000043b4 45564953494f 
000043ba 4e5f56455253 
000043c0 494f4e00 
000043c4 01             9879 	.byte	1
000043c5 18             9880 	.byte	24
000043c6 4d454d4d4150   9881 	.strz	"MEMMAP_SW_MAJOR_VERSION (1u)"
000043cc 5f53575f4d41 
000043d2 4a4f525f5645 
000043d8 5253494f4e20 
000043de 2831752900 
000043e3 01             9882 	.byte	1
000043e4 19             9883 	.byte	25
000043e5 4d454d4d4150   9884 	.strz	"MEMMAP_SW_MINOR_VERSION (11u)"
000043eb 5f53575f4d49 
000043f1 4e4f525f5645 
000043f7 5253494f4e20 
000043fd 283131752900 
00004403 01             9885 	.byte	1
00004404 1a             9886 	.byte	26
00004405 4d454d4d4150   9887 	.strz	"MEMMAP_SW_PATCH_VERSION (0u)"
0000440b 5f53575f5041 
00004411 5443485f5645 
00004417 5253494f4e20 
0000441d 2830752900 
00004422 01             9888 	.byte	1
00004423 20             9889 	.byte	32
00004424 4d454d5f5357   9890 	.strz	"MEM_SW_MAJOR_VERSION MEMMAP_SW_MAJOR_VERSION"
0000442a 5f4d414a4f52 
00004430 5f5645525349 
00004436 4f4e204d454d 
0000443c 4d41505f5357 
00004442 5f4d414a4f52 
00004448 5f5645525349 
0000444e 4f4e00 
00004451 01             9891 	.byte	1
00004452 21             9892 	.byte	33
00004453 4d454d5f5357   9893 	.strz	"MEM_SW_MINOR_VERSION MEMMAP_SW_MINOR_VERSION"
00004459 5f4d494e4f52 
0000445f 5f5645525349 
00004465 4f4e204d454d 

                                                                      Page 221
                                                              C:\Users\nhuliyap\AppData\Local\Temp\gh_000091s1.s
0000446b 4d41505f5357 
00004471 5f4d494e4f52 
00004477 5f5645525349 
0000447d 4f4e00 
00004480 01             9894 	.byte	1
00004481 22             9895 	.byte	34
00004482 4d454d5f5357   9896 	.strz	"MEM_SW_PATCH_VERSION MEMMAP_SW_PATCH_VERSION"
00004488 5f5041544348 
0000448e 5f5645525349 
00004494 4f4e204d454d 
0000449a 4d41505f5357 
000044a0 5f5041544348 
000044a6 5f5645525349 
000044ac 4f4e00 
000044af 01             9897 	.byte	1
000044b0 24             9898 	.byte	36
000044b1 4d454d4d4150   9899 	.strz	"MEMMAP_ERROR "
000044b7 5f4552524f52 
000044bd 2000 
000044bf 01             9900 	.byte	1
000044c0 62             9901 	.byte	98
000044c1 53544f505f53   9902 	.strz	"STOP_SEC_VAR "
000044c7 45435f564152 
000044cd 2000 
000044cf 03             9903 	.byte	3
000044d0 f403           9904 	.byte	244,3
000044d2 10             9905 	.byte	16
000044d3 04             9906 	.byte	4
000044d4 04             9907 	.byte	4
000044d5 01             9908 	.byte	1
000044d6 18             9909 	.byte	24
000044d7 4645455f3330   9910 	.strz	"FEE_30_SMALLSECTOR_START_SEC_CONST_8BIT "
000044dd 5f534d414c4c 
000044e3 534543544f52 
000044e9 5f5354415254 
000044ef 5f5345435f43 
000044f5 4f4e53545f38 
000044fb 4249542000 
00004500 03             9911 	.byte	3
00004501 19             9912 	.byte	25
00004502 0f             9913 	.byte	15
00004503 01             9914 	.byte	1
00004504 02             9915 	.byte	2
00004505 4d454d4d4150   9916 	.strz	"MEMMAP_VENDOR_ID (30u)"
0000450b 5f56454e444f 
00004511 525f49442028 
00004517 3330752900 
0000451c 01             9917 	.byte	1
0000451d 08             9918 	.byte	8
0000451e 4d454d4d4150   9919 	.strz	"MEMMAP_AR_RELEASE_MAJOR_VERSION (4u)"
00004524 5f41525f5245 
0000452a 4c454153455f 
00004530 4d414a4f525f 
00004536 56455253494f 
0000453c 4e2028347529 
00004542 00 
00004543 01             9920 	.byte	1
00004544 09             9921 	.byte	9
00004545 4d454d4d4150   9922 	.strz	"MEMMAP_AR_RELEASE_MINOR_VERSION (0u)"
0000454b 5f41525f5245 
00004551 4c454153455f 

                                                                      Page 222
                                                              C:\Users\nhuliyap\AppData\Local\Temp\gh_000091s1.s
00004557 4d494e4f525f 
0000455d 56455253494f 
00004563 4e2028307529 
00004569 00 
0000456a 01             9923 	.byte	1
0000456b 0a             9924 	.byte	10
0000456c 4d454d4d4150   9925 	.strz	"MEMMAP_AR_RELEASE_REVISION_VERSION (3u)"
00004572 5f41525f5245 
00004578 4c454153455f 
0000457e 524556495349 
00004584 4f4e5f564552 
0000458a 53494f4e2028 
00004590 33752900 
00004594 01             9926 	.byte	1
00004595 10             9927 	.byte	16
00004596 4d454d5f4152   9928 	.strz	"MEM_AR_RELEASE_MAJOR_VERSION MEMMAP_AR_RELEASE_MAJOR_VERSION"
0000459c 5f52454c4541 
000045a2 53455f4d414a 
000045a8 4f525f564552 
000045ae 53494f4e204d 
000045b4 454d4d41505f 
000045ba 41525f52454c 
000045c0 454153455f4d 
000045c6 414a4f525f56 
000045cc 455253494f4e 
000045d2 00 
000045d3 01             9929 	.byte	1
000045d4 11             9930 	.byte	17
000045d5 4d454d5f4152   9931 	.strz	"MEM_AR_RELEASE_MINOR_VERSION MEMMAP_AR_RELEASE_MINOR_VERSION"
000045db 5f52454c4541 
000045e1 53455f4d494e 
000045e7 4f525f564552 
000045ed 53494f4e204d 
000045f3 454d4d41505f 
000045f9 41525f52454c 
000045ff 454153455f4d 
00004605 494e4f525f56 
0000460b 455253494f4e 
00004611 00 
00004612 01             9932 	.byte	1
00004613 12             9933 	.byte	18
00004614 4d454d5f4152   9934 	.strz	"MEM_AR_RELEASE_PATCH_VERSION MEMMAP_AR_RELEASE_REVISION_VERSION"
0000461a 5f52454c4541 
00004620 53455f504154 
00004626 43485f564552 
0000462c 53494f4e204d 
00004632 454d4d41505f 
00004638 41525f52454c 
0000463e 454153455f52 
00004644 45564953494f 
0000464a 4e5f56455253 
00004650 494f4e00 
00004654 01             9935 	.byte	1
00004655 18             9936 	.byte	24
00004656 4d454d4d4150   9937 	.strz	"MEMMAP_SW_MAJOR_VERSION (1u)"
0000465c 5f53575f4d41 
00004662 4a4f525f5645 
00004668 5253494f4e20 
0000466e 2831752900 
00004673 01             9938 	.byte	1
00004674 19             9939 	.byte	25

                                                                      Page 223
                                                              C:\Users\nhuliyap\AppData\Local\Temp\gh_000091s1.s
00004675 4d454d4d4150   9940 	.strz	"MEMMAP_SW_MINOR_VERSION (11u)"
0000467b 5f53575f4d49 
00004681 4e4f525f5645 
00004687 5253494f4e20 
0000468d 283131752900 
00004693 01             9941 	.byte	1
00004694 1a             9942 	.byte	26
00004695 4d454d4d4150   9943 	.strz	"MEMMAP_SW_PATCH_VERSION (0u)"
0000469b 5f53575f5041 
000046a1 5443485f5645 
000046a7 5253494f4e20 
000046ad 2830752900 
000046b2 01             9944 	.byte	1
000046b3 20             9945 	.byte	32
000046b4 4d454d5f5357   9946 	.strz	"MEM_SW_MAJOR_VERSION MEMMAP_SW_MAJOR_VERSION"
000046ba 5f4d414a4f52 
000046c0 5f5645525349 
000046c6 4f4e204d454d 
000046cc 4d41505f5357 
000046d2 5f4d414a4f52 
000046d8 5f5645525349 
000046de 4f4e00 
000046e1 01             9947 	.byte	1
000046e2 21             9948 	.byte	33
000046e3 4d454d5f5357   9949 	.strz	"MEM_SW_MINOR_VERSION MEMMAP_SW_MINOR_VERSION"
000046e9 5f4d494e4f52 
000046ef 5f5645525349 
000046f5 4f4e204d454d 
000046fb 4d41505f5357 
00004701 5f4d494e4f52 
00004707 5f5645525349 
0000470d 4f4e00 
00004710 01             9950 	.byte	1
00004711 22             9951 	.byte	34
00004712 4d454d5f5357   9952 	.strz	"MEM_SW_PATCH_VERSION MEMMAP_SW_PATCH_VERSION"
00004718 5f5041544348 
0000471e 5f5645525349 
00004724 4f4e204d454d 
0000472a 4d41505f5357 
00004730 5f5041544348 
00004736 5f5645525349 
0000473c 4f4e00 
0000473f 01             9953 	.byte	1
00004740 24             9954 	.byte	36
00004741 4d454d4d4150   9955 	.strz	"MEMMAP_ERROR "
00004747 5f4552524f52 
0000474d 2000 
0000474f 01             9956 	.byte	1
00004750 3a             9957 	.byte	58
00004751 53544152545f   9958 	.strz	"START_SEC_CONST_8BIT "
00004757 5345435f434f 
0000475d 4e53545f3842 
00004763 49542000 
00004767 03             9959 	.byte	3
00004768 f403           9960 	.byte	244,3
0000476a 10             9961 	.byte	16
0000476b 01             9962 	.byte	1
0000476c 8f08           9963 	.byte	143,8
0000476e 434f4e53545f   9964 	.strz	"CONST_SEC_OPEN "
00004774 5345435f4f50 
0000477a 454e2000 

                                                                      Page 224
                                                              C:\Users\nhuliyap\AppData\Local\Temp\gh_000091s1.s
0000477e 04             9965 	.byte	4
0000477f 04             9966 	.byte	4
00004780 01             9967 	.byte	1
00004781 1e             9968 	.byte	30
00004782 4645455f3330   9969 	.strz	"FEE_30_SMALLSECTOR_STOP_SEC_CONST_8BIT "
00004788 5f534d414c4c 
0000478e 534543544f52 
00004794 5f53544f505f 
0000479a 5345435f434f 
000047a0 4e53545f3842 
000047a6 49542000 
000047aa 03             9970 	.byte	3
000047ab 1f             9971 	.byte	31
000047ac 0f             9972 	.byte	15
000047ad 01             9973 	.byte	1
000047ae 02             9974 	.byte	2
000047af 4d454d4d4150   9975 	.strz	"MEMMAP_VENDOR_ID (30u)"
000047b5 5f56454e444f 
000047bb 525f49442028 
000047c1 3330752900 
000047c6 01             9976 	.byte	1
000047c7 08             9977 	.byte	8
000047c8 4d454d4d4150   9978 	.strz	"MEMMAP_AR_RELEASE_MAJOR_VERSION (4u)"
000047ce 5f41525f5245 
000047d4 4c454153455f 
000047da 4d414a4f525f 
000047e0 56455253494f 
000047e6 4e2028347529 
000047ec 00 
000047ed 01             9979 	.byte	1
000047ee 09             9980 	.byte	9
000047ef 4d454d4d4150   9981 	.strz	"MEMMAP_AR_RELEASE_MINOR_VERSION (0u)"
000047f5 5f41525f5245 
000047fb 4c454153455f 
00004801 4d494e4f525f 
00004807 56455253494f 
0000480d 4e2028307529 
00004813 00 
00004814 01             9982 	.byte	1
00004815 0a             9983 	.byte	10
00004816 4d454d4d4150   9984 	.strz	"MEMMAP_AR_RELEASE_REVISION_VERSION (3u)"
0000481c 5f41525f5245 
00004822 4c454153455f 
00004828 524556495349 
0000482e 4f4e5f564552 
00004834 53494f4e2028 
0000483a 33752900 
0000483e 01             9985 	.byte	1
0000483f 10             9986 	.byte	16
00004840 4d454d5f4152   9987 	.strz	"MEM_AR_RELEASE_MAJOR_VERSION MEMMAP_AR_RELEASE_MAJOR_VERSION"
00004846 5f52454c4541 
0000484c 53455f4d414a 
00004852 4f525f564552 
00004858 53494f4e204d 
0000485e 454d4d41505f 
00004864 41525f52454c 
0000486a 454153455f4d 
00004870 414a4f525f56 
00004876 455253494f4e 
0000487c 00 
0000487d 01             9988 	.byte	1

                                                                      Page 225
                                                              C:\Users\nhuliyap\AppData\Local\Temp\gh_000091s1.s
0000487e 11             9989 	.byte	17
0000487f 4d454d5f4152   9990 	.strz	"MEM_AR_RELEASE_MINOR_VERSION MEMMAP_AR_RELEASE_MINOR_VERSION"
00004885 5f52454c4541 
0000488b 53455f4d494e 
00004891 4f525f564552 
00004897 53494f4e204d 
0000489d 454d4d41505f 
000048a3 41525f52454c 
000048a9 454153455f4d 
000048af 494e4f525f56 
000048b5 455253494f4e 
000048bb 00 
000048bc 01             9991 	.byte	1
000048bd 12             9992 	.byte	18
000048be 4d454d5f4152   9993 	.strz	"MEM_AR_RELEASE_PATCH_VERSION MEMMAP_AR_RELEASE_REVISION_VERSION"
000048c4 5f52454c4541 
000048ca 53455f504154 
000048d0 43485f564552 
000048d6 53494f4e204d 
000048dc 454d4d41505f 
000048e2 41525f52454c 
000048e8 454153455f52 
000048ee 45564953494f 
000048f4 4e5f56455253 
000048fa 494f4e00 
000048fe 01             9994 	.byte	1
000048ff 18             9995 	.byte	24
00004900 4d454d4d4150   9996 	.strz	"MEMMAP_SW_MAJOR_VERSION (1u)"
00004906 5f53575f4d41 
0000490c 4a4f525f5645 
00004912 5253494f4e20 
00004918 2831752900 
0000491d 01             9997 	.byte	1
0000491e 19             9998 	.byte	25
0000491f 4d454d4d4150   9999 	.strz	"MEMMAP_SW_MINOR_VERSION (11u)"
00004925 5f53575f4d49 
0000492b 4e4f525f5645 
00004931 5253494f4e20 
00004937 283131752900 
0000493d 01            10000 	.byte	1
0000493e 1a            10001 	.byte	26
0000493f 4d454d4d4150  10002 	.strz	"MEMMAP_SW_PATCH_VERSION (0u)"
00004945 5f53575f5041 
0000494b 5443485f5645 
00004951 5253494f4e20 
00004957 2830752900 
0000495c 01            10003 	.byte	1
0000495d 20            10004 	.byte	32
0000495e 4d454d5f5357  10005 	.strz	"MEM_SW_MAJOR_VERSION MEMMAP_SW_MAJOR_VERSION"
00004964 5f4d414a4f52 
0000496a 5f5645525349 
00004970 4f4e204d454d 
00004976 4d41505f5357 
0000497c 5f4d414a4f52 
00004982 5f5645525349 
00004988 4f4e00 
0000498b 01            10006 	.byte	1
0000498c 21            10007 	.byte	33
0000498d 4d454d5f5357  10008 	.strz	"MEM_SW_MINOR_VERSION MEMMAP_SW_MINOR_VERSION"
00004993 5f4d494e4f52 
00004999 5f5645525349 

                                                                      Page 226
                                                              C:\Users\nhuliyap\AppData\Local\Temp\gh_000091s1.s
0000499f 4f4e204d454d 
000049a5 4d41505f5357 
000049ab 5f4d494e4f52 
000049b1 5f5645525349 
000049b7 4f4e00 
000049ba 01            10009 	.byte	1
000049bb 22            10010 	.byte	34
000049bc 4d454d5f5357  10011 	.strz	"MEM_SW_PATCH_VERSION MEMMAP_SW_PATCH_VERSION"
000049c2 5f5041544348 
000049c8 5f5645525349 
000049ce 4f4e204d454d 
000049d4 4d41505f5357 
000049da 5f5041544348 
000049e0 5f5645525349 
000049e6 4f4e00 
000049e9 01            10012 	.byte	1
000049ea 24            10013 	.byte	36
000049eb 4d454d4d4150  10014 	.strz	"MEMMAP_ERROR "
000049f1 5f4552524f52 
000049f7 2000 
000049f9 01            10015 	.byte	1
000049fa 3e            10016 	.byte	62
000049fb 53544f505f53  10017 	.strz	"STOP_SEC_CONST "
00004a01 45435f434f4e 
00004a07 53542000 
00004a0b 03            10018 	.byte	3
00004a0c f403          10019 	.byte	244,3
00004a0e 10            10020 	.byte	16
00004a0f 04            10021 	.byte	4
00004a10 04            10022 	.byte	4
00004a11 01            10023 	.byte	1
00004a12 21            10024 	.byte	33
00004a13 4645455f3330  10025 	.strz	"FEE_30_SMALLSECTOR_START_SEC_CODE "
00004a19 5f534d414c4c 
00004a1f 534543544f52 
00004a25 5f5354415254 
00004a2b 5f5345435f43 
00004a31 4f44452000 
00004a36 03            10026 	.byte	3
00004a37 22            10027 	.byte	34
00004a38 0f            10028 	.byte	15
00004a39 01            10029 	.byte	1
00004a3a 02            10030 	.byte	2
00004a3b 4d454d4d4150  10031 	.strz	"MEMMAP_VENDOR_ID (30u)"
00004a41 5f56454e444f 
00004a47 525f49442028 
00004a4d 3330752900 
00004a52 01            10032 	.byte	1
00004a53 08            10033 	.byte	8
00004a54 4d454d4d4150  10034 	.strz	"MEMMAP_AR_RELEASE_MAJOR_VERSION (4u)"
00004a5a 5f41525f5245 
00004a60 4c454153455f 
00004a66 4d414a4f525f 
00004a6c 56455253494f 
00004a72 4e2028347529 
00004a78 00 
00004a79 01            10035 	.byte	1
00004a7a 09            10036 	.byte	9
00004a7b 4d454d4d4150  10037 	.strz	"MEMMAP_AR_RELEASE_MINOR_VERSION (0u)"
00004a81 5f41525f5245 
00004a87 4c454153455f 

                                                                      Page 227
                                                              C:\Users\nhuliyap\AppData\Local\Temp\gh_000091s1.s
00004a8d 4d494e4f525f 
00004a93 56455253494f 
00004a99 4e2028307529 
00004a9f 00 
00004aa0 01            10038 	.byte	1
00004aa1 0a            10039 	.byte	10
00004aa2 4d454d4d4150  10040 	.strz	"MEMMAP_AR_RELEASE_REVISION_VERSION (3u)"
00004aa8 5f41525f5245 
00004aae 4c454153455f 
00004ab4 524556495349 
00004aba 4f4e5f564552 
00004ac0 53494f4e2028 
00004ac6 33752900 
00004aca 01            10041 	.byte	1
00004acb 10            10042 	.byte	16
00004acc 4d454d5f4152  10043 	.strz	"MEM_AR_RELEASE_MAJOR_VERSION MEMMAP_AR_RELEASE_MAJOR_VERSION"
00004ad2 5f52454c4541 
00004ad8 53455f4d414a 
00004ade 4f525f564552 
00004ae4 53494f4e204d 
00004aea 454d4d41505f 
00004af0 41525f52454c 
00004af6 454153455f4d 
00004afc 414a4f525f56 
00004b02 455253494f4e 
00004b08 00 
00004b09 01            10044 	.byte	1
00004b0a 11            10045 	.byte	17
00004b0b 4d454d5f4152  10046 	.strz	"MEM_AR_RELEASE_MINOR_VERSION MEMMAP_AR_RELEASE_MINOR_VERSION"
00004b11 5f52454c4541 
00004b17 53455f4d494e 
00004b1d 4f525f564552 
00004b23 53494f4e204d 
00004b29 454d4d41505f 
00004b2f 41525f52454c 
00004b35 454153455f4d 
00004b3b 494e4f525f56 
00004b41 455253494f4e 
00004b47 00 
00004b48 01            10047 	.byte	1
00004b49 12            10048 	.byte	18
00004b4a 4d454d5f4152  10049 	.strz	"MEM_AR_RELEASE_PATCH_VERSION MEMMAP_AR_RELEASE_REVISION_VERSION"
00004b50 5f52454c4541 
00004b56 53455f504154 
00004b5c 43485f564552 
00004b62 53494f4e204d 
00004b68 454d4d41505f 
00004b6e 41525f52454c 
00004b74 454153455f52 
00004b7a 45564953494f 
00004b80 4e5f56455253 
00004b86 494f4e00 
00004b8a 01            10050 	.byte	1
00004b8b 18            10051 	.byte	24
00004b8c 4d454d4d4150  10052 	.strz	"MEMMAP_SW_MAJOR_VERSION (1u)"
00004b92 5f53575f4d41 
00004b98 4a4f525f5645 
00004b9e 5253494f4e20 
00004ba4 2831752900 
00004ba9 01            10053 	.byte	1
00004baa 19            10054 	.byte	25

                                                                      Page 228
                                                              C:\Users\nhuliyap\AppData\Local\Temp\gh_000091s1.s
00004bab 4d454d4d4150  10055 	.strz	"MEMMAP_SW_MINOR_VERSION (11u)"
00004bb1 5f53575f4d49 
00004bb7 4e4f525f5645 
00004bbd 5253494f4e20 
00004bc3 283131752900 
00004bc9 01            10056 	.byte	1
00004bca 1a            10057 	.byte	26
00004bcb 4d454d4d4150  10058 	.strz	"MEMMAP_SW_PATCH_VERSION (0u)"
00004bd1 5f53575f5041 
00004bd7 5443485f5645 
00004bdd 5253494f4e20 
00004be3 2830752900 
00004be8 01            10059 	.byte	1
00004be9 20            10060 	.byte	32
00004bea 4d454d5f5357  10061 	.strz	"MEM_SW_MAJOR_VERSION MEMMAP_SW_MAJOR_VERSION"
00004bf0 5f4d414a4f52 
00004bf6 5f5645525349 
00004bfc 4f4e204d454d 
00004c02 4d41505f5357 
00004c08 5f4d414a4f52 
00004c0e 5f5645525349 
00004c14 4f4e00 
00004c17 01            10062 	.byte	1
00004c18 21            10063 	.byte	33
00004c19 4d454d5f5357  10064 	.strz	"MEM_SW_MINOR_VERSION MEMMAP_SW_MINOR_VERSION"
00004c1f 5f4d494e4f52 
00004c25 5f5645525349 
00004c2b 4f4e204d454d 
00004c31 4d41505f5357 
00004c37 5f4d494e4f52 
00004c3d 5f5645525349 
00004c43 4f4e00 
00004c46 01            10065 	.byte	1
00004c47 22            10066 	.byte	34
00004c48 4d454d5f5357  10067 	.strz	"MEM_SW_PATCH_VERSION MEMMAP_SW_PATCH_VERSION"
00004c4e 5f5041544348 
00004c54 5f5645525349 
00004c5a 4f4e204d454d 
00004c60 4d41505f5357 
00004c66 5f5041544348 
00004c6c 5f5645525349 
00004c72 4f4e00 
00004c75 01            10068 	.byte	1
00004c76 24            10069 	.byte	36
00004c77 4d454d4d4150  10070 	.strz	"MEMMAP_ERROR "
00004c7d 5f4552524f52 
00004c83 2000 
00004c85 01            10071 	.byte	1
00004c86 31            10072 	.byte	49
00004c87 53544152545f  10073 	.strz	"START_SEC_CODE "
00004c8d 5345435f434f 
00004c93 44452000 
00004c97 03            10074 	.byte	3
00004c98 f403          10075 	.byte	244,3
00004c9a 10            10076 	.byte	16
00004c9b 01            10077 	.byte	1
00004c9c f307          10078 	.byte	243,7
00004c9e 434f44455f53  10079 	.strz	"CODE_SEC_OPEN "
00004ca4 45435f4f5045 
00004caa 4e2000 
00004cad 04            10080 	.byte	4

                                                                      Page 229
                                                              C:\Users\nhuliyap\AppData\Local\Temp\gh_000091s1.s
00004cae 04            10081 	.byte	4
00004caf 01            10082 	.byte	1
00004cb0 dc04          10083 	.byte	220,4
00004cb2 4645455f3330  10084 	.strz	"FEE_30_SMALLSECTOR_STOP_SEC_CODE "
00004cb8 5f534d414c4c 
00004cbe 534543544f52 
00004cc4 5f53544f505f 
00004cca 5345435f434f 
00004cd0 44452000 
00004cd4 03            10085 	.byte	3
00004cd5 dd04          10086 	.byte	221,4
00004cd7 0f            10087 	.byte	15
00004cd8 01            10088 	.byte	1
00004cd9 24            10089 	.byte	36
00004cda 4d454d4d4150  10090 	.strz	"MEMMAP_ERROR "
00004ce0 5f4552524f52 
00004ce6 2000 
00004ce8 01            10091 	.byte	1
00004ce9 35            10092 	.byte	53
00004cea 53544f505f53  10093 	.strz	"STOP_SEC_CODE "
00004cf0 45435f434f44 
00004cf6 452000 
00004cf9 03            10094 	.byte	3
00004cfa f403          10095 	.byte	244,3
00004cfc 10            10096 	.byte	16
00004cfd 04            10097 	.byte	4
00004cfe 04            10098 	.byte	4
00004cff 04            10099 	.byte	4
00004d00 00            10100 	.byte	0
                       10101 	.section	.debug_abbrev
0000016f 00            10102 	.byte	0
                       10103 	.section	.debug_info
                       10104 .Ldw_end:
                       10105 .rh850_flags REGMODE32,DATA_ALIGN8,GP_FIX,EP_NONFIX,TP_FIX,REG2_RESERVE,G3K,GHS_MISALIGN,SDA_EXTRA_REGS_0
