                                                                      Page 1
                                                              C:\Users\nhuliyap\AppData\Local\Temp\gh_00006641.s
Command Line: C:\ghs\comp_201517\ease850.exe -w -elf -b0 -I../source/common -I../source/ProjectCompiler -I../source/ProjectCfg -I../source/SwcApplTpms -I../source/SwcApplEcuM -I../source/SwcServiceBswM -I../source/SwcServiceEcuM -I../source/SwcServiceNvM -I../source/SwcServiceOs -I../source/SwcServiceStartUp -I../source/McalAdc -I../source/McalDio -I../source/McalGpt -I../source/McalMcu -I../source/McalWdg -I../source/wrappers -I../source/wrappers/McalAta -I../source/McalLin -I../source/McalCan -I../source/wrappers/OS -I../source/McalFls -I../source/EcuabFee -I../source/EcuabMemIf -I../source/wrappers/VStdLib -I../source/wrappers/Crc -I../source/wrappers/FBL_APPL -I../source/wrappers/NVM_MANAGER -I../source/wrappers/DEM_MANAGER -I../source/wrappers/RDC_MANAGER -I../source/wrappers/ENV_MANAGER -I../source/wrappers/SYS_MANAGER -I../source/wrappers/EcuabCanIf -I../source/EcuabCanTrcv -I../source/wrappers/SwcServiceCanSM -I../source/wrappers/SwcServiceCanTp -I../source/wrappers/SwcServiceCanTp_PreCompile -I../source/wrappers/SwcServiceCom -I../source/wrappers/SwcServiceComM -I../source/wrappers/SwcServiceDcm -I../source/wrappers/SwcServicePduR -I../source/wrappers/SwcServiceEcuM -I../source/wrappers/Bfx -I../source/wrappers/SwcServiceDem -I../source/SwcServiceCom -I../source/SwcServiceDet -I../source/SwcServiceFiM -I../source/SwcServicePduR -I../source/SwcServiceSchM -I../source/wrappers/LibAutosarDiag -I../source/wrappers/rba_BswSrv -IC:\ghs\comp_201517\lib\rh850 -cg_underscore -cpu=rh850g3k -no_v850_simd -rh850_fpsimd=none -nomacro -patch_dbo=C:\_ECU2\ECU_Rivian_A1\Target\repo_projects\pRealEcu\cR_LATEST\make\output\objects\procdat.dbo -source=procdat.c -o output\objects\gh_00006641.o -list=output\list\procdat.lst C:\Users\nhuliyap\AppData\Local\Temp\gh_00006641.s 
Original File: C:\Users\nhuliyap\AppData\Local\Temp\gh_00006641.s
Source File: procdat.c
Directory: C:\_ECU2\ECU_Rivian_A1\Target\repo_projects\pRealEcu\cR_LATEST\make
Host OS: Windows
EASE: Copyright (C) 1983-2015 Green Hills Software.  All Rights Reserved.
Release: Compiler v2015.1.7
Build Directory: [Directory] BTOWORKER6:c:/build_2015_1_bto/2015-10-21.2100-2015_1_bto/win32-comp-ecom
Revision: [VCInfo] http://toolsvc/branches/release-branch-70-bto/src@544153 (built by build)
Revision Date: Thu Oct 22 07:50:13 2015

Release Date: Thu Oct 22 09:32:32 2015

                           1 --Driver Command: ccv850 ../source/SwcApplTpms/procdat.c -cpu=rh850 -fhard
                           2 --		-ignore_callt_state_in_interrupts -large_sda -misalign_pack
                           3 --		-nofarcalls -nofloatio -no_callt -Ogeneral -Onounroll
                           4 --		-prepare_dispose -registermode=32 -reserve_r2 -sda=0
                           5 --		-shorten_loads -Wshadow --brief_diagnostics --no_commons
                           6 --		--no_wrap_diagnostics --prototype_errors --short_enum -list -G
                           7 --		-dual_debug -dwarf -X5523 -lnk=-no_xda_modifications -D
                           8 --		NOT_READY_FOR_TESTING_OR_DEPLOYMENT -D IBTCM_SW_ANPASSUNGEN -D
                           9 --		BUILD_RIVIAN -c -inline_prologue -I../source/common
                          10 --		-I../source/ProjectCompiler -I../source/ProjectCfg
                          11 --		-I../source/SwcApplTpms -I../source/SwcApplEcuM
                          12 --		-I../source/SwcServiceBswM -I../source/SwcServiceEcuM
                          13 --		-I../source/SwcServiceNvM -I../source/SwcServiceOs
                          14 --		-I../source/SwcServiceStartUp -I../source/McalAdc
                          15 --		-I../source/McalDio -I../source/McalGpt -I../source/McalMcu
                          16 --		-I../source/McalWdg -I../source/wrappers
                          17 --		-I../source/wrappers/McalAta -I../source/McalLin
                          18 --		-I../source/McalCan -I../source/wrappers/OS -I../source/McalFls
                          19 --		-I../source/EcuabFee -I../source/EcuabMemIf
                          20 --		-I../source/wrappers/VStdLib -I../source/wrappers
                          21 --		-I../source/wrappers/Crc -I../source/wrappers/FBL_APPL
                          22 --		-I../source/wrappers/NVM_MANAGER -I../source/wrappers/DEM_MANAGER
                          23 --		-I../source/wrappers/RDC_MANAGER -I../source/wrappers/ENV_MANAGER
                          24 --		-I../source/wrappers/SYS_MANAGER -I../source/wrappers/EcuabCanIf
                          25 --		-I../source/EcuabCanTrcv -I../source/wrappers/SwcServiceCanSM
                          26 --		-I../source/wrappers/SwcServiceCanTp
                          27 --		-I../source/wrappers/SwcServiceCanTp_PreCompile
                          28 --		-I../source/wrappers/SwcServiceCom
                          29 --		-I../source/wrappers/SwcServiceComM
                          30 --		-I../source/wrappers/SwcServiceDcm
                          31 --		-I../source/wrappers/SwcServicePduR
                          32 --		-I../source/wrappers/SwcServiceEcuM -I../source/wrappers/Bfx
                          33 --		-I../source/wrappers/SwcServiceDem -I../source/SwcServiceCom
                          34 --		-I../source/SwcServiceDet -I../source/SwcServiceFiM
                          35 --		-I../source/SwcServicePduR -I../source/SwcServiceSchM
                          36 --		-I../source/wrappers/LibAutosarDiag
                          37 --		-I../source/wrappers/rba_BswSrv -object_dir=output/objects
                          38 --		-list_dir=output/list
                          39 --Source File:   ../source/SwcApplTpms/procdat.c
                          40 --Directory:     
                          41 --		C:\_ECU2\ECU_Rivian_A1\Target\repo_projects\pRealEcu\cR_LATEST\make
                          42 --Compile Date:  Fri Sep 15 14:15:36 2023
                          43 --Host OS:       Win32
                          44 --Version:       C-RH850 2015.1.7 RELEASE VERSION
                          45 --Release:       Compiler v2015.1.7
                          46 --Revision Date: Thu Oct 22 08:06:12 2015
                          47 --Release Date:  Thu Oct 22 09:34:32 2015
                          48 -- ecom  -g -w -OM
                          49 	.text
                          50 ..bof.C.3A.5C_ECU2.5CECU_Rivian_A1.5CTarget.5Crepo_projects.5CpRealEcu.5CcR_LATEST.5Cmake.5Coutput.5Cobjects.5Cprocdat...43.3A.5C_ECU2.5CECU_Rivian_A1.5CTarget.5Crepo_projects.5CpRealEcu.5CcR_LATEST.5Cmake..65044AE8..0::

                                                                      Page 2
                                                              C:\Users\nhuliyap\AppData\Local\Temp\gh_00006641.s
                          51 	.align	2
                          52 ..gh.f.f.1.e.0:
                          53 	.type	..gh.f.f.1.e.0,@object
                          54 	.size	..gh.f.f.1.e.0,0
                          55 	.global	_PUTucPatmoPD
                          56 _PUTucPatmoPD:
                          57 --	    .bf
                          58 .LDW01:
00000000 405e0000*        59 	movhi	hi(_ucPatmoPD),zero,r11
00000004 4b370000*        60 	st.b	r6,lo(_ucPatmoPD)[r11]
                          61 --	    .ef
                          62 .LDW11:
                          63 --line770
                          64 ..lin.C.3A.5C_ECU2.5CECU_Rivian_A1.5CTarget.5Crepo_projects.5CpRealEcu.5CcR_LATEST.5Cmake.5Coutput.5Cobjects.5Cprocdat.1::
                          65 .LDWlin1:
00000008 7f00             66 	jmp	[lp]
                          67 	.global	___ghs_eofn_PUTucPatmoPD
                          68 ___ghs_eofn_PUTucPatmoPD:
                          69 	.type	_PUTucPatmoPD,@function
                          70 	.size	_PUTucPatmoPD,.-_PUTucPatmoPD
                          71 	.align	2
                          72 
                          73 --_ucInData	r6	param
                          74 
                          75 	.section ".bss","awb"
                          76 	.align	4
                          77 .L33:
                          78 	.type	.L33,@object
                          79 	.size	.L33,0
                          80 	.global	_ushSensorDefectPD..C.3A.5C_ECU2.5CECU_Rivian_A1.5CTarget.5Crepo_projects.5CpRealEcu.5CcR_LATEST.5Cmake.5Coutput.5Cobjects.5Cprocdat.
                          81 _ushSensorDefectPD..C.3A.5C_ECU2.5CECU_Rivian_A1.5CTarget.5Crepo_projects.5CpRealEcu.5CcR_LATEST.5Cmake.5Coutput.5Cobjects.5Cprocdat.:
00000000 000000000000     82 _ushSensorDefectPD:	.space	8
00000006 0000 
                          83 	.type	_ushSensorDefectPD..C.3A.5C_ECU2.5CECU_Rivian_A1.5CTarget.5Crepo_projects.5CpRealEcu.5CcR_LATEST.5Cmake.5Coutput.5Cobjects.5Cprocdat.,@object
                          84 	.size	_ushSensorDefectPD..C.3A.5C_ECU2.5CECU_Rivian_A1.5CTarget.5Crepo_projects.5CpRealEcu.5CcR_LATEST.5Cmake.5Coutput.5Cobjects.5Cprocdat.,8
                          85 	.type	_ushSensorDefectPD,@object
                          86 	.size	_ushSensorDefectPD,8
                          87 	.global	_ucReifendruckPD..C.3A.5C_ECU2.5CECU_Rivian_A1.5CTarget.5Crepo_projects.5CpRealEcu.5CcR_LATEST.5Cmake.5Coutput.5Cobjects.5Cprocdat.
                          88 _ucReifendruckPD..C.3A.5C_ECU2.5CECU_Rivian_A1.5CTarget.5Crepo_projects.5CpRealEcu.5CcR_LATEST.5Cmake.5Coutput.5Cobjects.5Cprocdat.:
00000008 00000000         89 _ucReifendruckPD:	.space	4
                          90 	.type	_ucReifendruckPD..C.3A.5C_ECU2.5CECU_Rivian_A1.5CTarget.5Crepo_projects.5CpRealEcu.5CcR_LATEST.5Cmake.5Coutput.5Cobjects.5Cprocdat.,@object
                          91 	.size	_ucReifendruckPD..C.3A.5C_ECU2.5CECU_Rivian_A1.5CTarget.5Crepo_projects.5CpRealEcu.5CcR_LATEST.5Cmake.5Coutput.5Cobjects.5Cprocdat.,4
                          92 	.type	_ucReifendruckPD,@object
                          93 	.size	_ucReifendruckPD,4
                          94 	.global	_scTemperaturPD..C.3A.5C_ECU2.5CECU_Rivian_A1.5CTarget.5Crepo_projects.5CpRealEcu.5CcR_LATEST.5Cmake.5Coutput.5Cobjects.5Cprocdat.
                          95 _scTemperaturPD..C.3A.5C_ECU2.5CECU_Rivian_A1.5CTarget.5Crepo_projects.5CpRealEcu.5CcR_LATEST.5Cmake.5Coutput.5Cobjects.5Cprocdat.:
0000000c 00000000         96 _scTemperaturPD:	.space	4
                          97 	.type	_scTemperaturPD..C.3A.5C_ECU2.5CECU_Rivian_A1.5CTarget.5Crepo_projects.5CpRealEcu.5CcR_LATEST.5Cmake.5Coutput.5Cobjects.5Cprocdat.,@object
                          98 	.size	_scTemperaturPD..C.3A.5C_ECU2.5CECU_Rivian_A1.5CTarget.5Crepo_projects.5CpRealEcu.5CcR_LATEST.5Cmake.5Coutput.5Cobjects.5Cprocdat.,4
                          99 	.type	_scTemperaturPD,@object
                         100 	.size	_scTemperaturPD,4
                         101 	.global	_ucRestlebensdauerPD..C.3A.5C_ECU2.5CECU_Rivian_A1.5CTarget.5Crepo_projects.5CpRealEcu.5CcR_LATEST.5Cmake.5Coutput.5Cobjects.5Cprocdat.
                         102 _ucRestlebensdauerPD..C.3A.5C_ECU2.5CECU_Rivian_A1.5CTarget.5Crepo_projects.5CpRealEcu.5CcR_LATEST.5Cmake.5Coutput.5Cobjects.5Cprocdat.:
00000010 00000000        103 _ucRestlebensdauerPD:	.space	4
                         104 	.type	_ucRestlebensdauerPD..C.3A.5C_ECU2.5CECU_Rivian_A1.5CTarget.5Crepo_projects.5CpRealEcu.5CcR_LATEST.5Cmake.5Coutput.5Cobjects.5Cprocdat.,@object
                         105 	.size	_ucRestlebensdauerPD..C.3A.5C_ECU2.5CECU_Rivian_A1.5CTarget.5Crepo_projects.5CpRealEcu.5CcR_LATEST.5Cmake.5Coutput.5Cobjects.5Cprocdat.,4
                         106 	.type	_ucRestlebensdauerPD,@object
                         107 	.size	_ucRestlebensdauerPD,4
                         108 	.global	_ucRSSIsumPD..C.3A.5C_ECU2.5CECU_Rivian_A1.5CTarget.5Crepo_projects.5CpRealEcu.5CcR_LATEST.5Cmake.5Coutput.5Cobjects.5Cprocdat.
                         109 _ucRSSIsumPD..C.3A.5C_ECU2.5CECU_Rivian_A1.5CTarget.5Crepo_projects.5CpRealEcu.5CcR_LATEST.5Cmake.5Coutput.5Cobjects.5Cprocdat.:
00000014 00000000        110 _ucRSSIsumPD:	.space	4

                                                                      Page 3
                                                              C:\Users\nhuliyap\AppData\Local\Temp\gh_00006641.s
                         111 	.type	_ucRSSIsumPD..C.3A.5C_ECU2.5CECU_Rivian_A1.5CTarget.5Crepo_projects.5CpRealEcu.5CcR_LATEST.5Cmake.5Coutput.5Cobjects.5Cprocdat.,@object
                         112 	.size	_ucRSSIsumPD..C.3A.5C_ECU2.5CECU_Rivian_A1.5CTarget.5Crepo_projects.5CpRealEcu.5CcR_LATEST.5Cmake.5Coutput.5Cobjects.5Cprocdat.,4
                         113 	.type	_ucRSSIsumPD,@object
                         114 	.size	_ucRSSIsumPD,4
                         115 	.global	_ucTelTypePD..C.3A.5C_ECU2.5CECU_Rivian_A1.5CTarget.5Crepo_projects.5CpRealEcu.5CcR_LATEST.5Cmake.5Coutput.5Cobjects.5Cprocdat.
                         116 _ucTelTypePD..C.3A.5C_ECU2.5CECU_Rivian_A1.5CTarget.5Crepo_projects.5CpRealEcu.5CcR_LATEST.5Cmake.5Coutput.5Cobjects.5Cprocdat.:
00000018 00000000        117 _ucTelTypePD:	.space	4
                         118 	.type	_ucTelTypePD..C.3A.5C_ECU2.5CECU_Rivian_A1.5CTarget.5Crepo_projects.5CpRealEcu.5CcR_LATEST.5Cmake.5Coutput.5Cobjects.5Cprocdat.,@object
                         119 	.size	_ucTelTypePD..C.3A.5C_ECU2.5CECU_Rivian_A1.5CTarget.5Crepo_projects.5CpRealEcu.5CcR_LATEST.5Cmake.5Coutput.5Cobjects.5Cprocdat.,4
                         120 	.type	_ucTelTypePD,@object
                         121 	.size	_ucTelTypePD,4
                         122 	.global	_ucTransModePD..C.3A.5C_ECU2.5CECU_Rivian_A1.5CTarget.5Crepo_projects.5CpRealEcu.5CcR_LATEST.5Cmake.5Coutput.5Cobjects.5Cprocdat.
                         123 _ucTransModePD..C.3A.5C_ECU2.5CECU_Rivian_A1.5CTarget.5Crepo_projects.5CpRealEcu.5CcR_LATEST.5Cmake.5Coutput.5Cobjects.5Cprocdat.:
0000001c 00000000        124 _ucTransModePD:	.space	4
                         125 	.type	_ucTransModePD..C.3A.5C_ECU2.5CECU_Rivian_A1.5CTarget.5Crepo_projects.5CpRealEcu.5CcR_LATEST.5Cmake.5Coutput.5Cobjects.5Cprocdat.,@object
                         126 	.size	_ucTransModePD..C.3A.5C_ECU2.5CECU_Rivian_A1.5CTarget.5Crepo_projects.5CpRealEcu.5CcR_LATEST.5Cmake.5Coutput.5Cobjects.5Cprocdat.,4
                         127 	.type	_ucTransModePD,@object
                         128 	.size	_ucTransModePD,4
                         129 	.global	_ucRotatSTelIndexPut..C.3A.5C_ECU2.5CECU_Rivian_A1.5CTarget.5Crepo_projects.5CpRealEcu.5CcR_LATEST.5Cmake.5Coutput.5Cobjects.5Cprocdat.
                         130 _ucRotatSTelIndexPut..C.3A.5C_ECU2.5CECU_Rivian_A1.5CTarget.5Crepo_projects.5CpRealEcu.5CcR_LATEST.5Cmake.5Coutput.5Cobjects.5Cprocdat.:
00000020 00              131 _ucRotatSTelIndexPut:	.space	1
                         132 	.type	_ucRotatSTelIndexPut..C.3A.5C_ECU2.5CECU_Rivian_A1.5CTarget.5Crepo_projects.5CpRealEcu.5CcR_LATEST.5Cmake.5Coutput.5Cobjects.5Cprocdat.,@object
                         133 	.size	_ucRotatSTelIndexPut..C.3A.5C_ECU2.5CECU_Rivian_A1.5CTarget.5Crepo_projects.5CpRealEcu.5CcR_LATEST.5Cmake.5Coutput.5Cobjects.5Cprocdat.,1
                         134 	.type	_ucRotatSTelIndexPut,@object
                         135 	.size	_ucRotatSTelIndexPut,1
                         136 	.global	_ucRotL..C.3A.5C_ECU2.5CECU_Rivian_A1.5CTarget.5Crepo_projects.5CpRealEcu.5CcR_LATEST.5Cmake.5Coutput.5Cobjects.5Cprocdat.
                         137 _ucRotL..C.3A.5C_ECU2.5CECU_Rivian_A1.5CTarget.5Crepo_projects.5CpRealEcu.5CcR_LATEST.5Cmake.5Coutput.5Cobjects.5Cprocdat.:
00000021 00              138 _ucRotL:	.space	1
                         139 	.type	_ucRotL..C.3A.5C_ECU2.5CECU_Rivian_A1.5CTarget.5Crepo_projects.5CpRealEcu.5CcR_LATEST.5Cmake.5Coutput.5Cobjects.5Cprocdat.,@object
                         140 	.size	_ucRotL..C.3A.5C_ECU2.5CECU_Rivian_A1.5CTarget.5Crepo_projects.5CpRealEcu.5CcR_LATEST.5Cmake.5Coutput.5Cobjects.5Cprocdat.,1
                         141 	.type	_ucRotL,@object
                         142 	.size	_ucRotL,1
                         143 	.global	_ucSnRotH..C.3A.5C_ECU2.5CECU_Rivian_A1.5CTarget.5Crepo_projects.5CpRealEcu.5CcR_LATEST.5Cmake.5Coutput.5Cobjects.5Cprocdat.
                         144 _ucSnRotH..C.3A.5C_ECU2.5CECU_Rivian_A1.5CTarget.5Crepo_projects.5CpRealEcu.5CcR_LATEST.5Cmake.5Coutput.5Cobjects.5Cprocdat.:
00000022 00              145 _ucSnRotH:	.space	1
                         146 	.type	_ucSnRotH..C.3A.5C_ECU2.5CECU_Rivian_A1.5CTarget.5Crepo_projects.5CpRealEcu.5CcR_LATEST.5Cmake.5Coutput.5Cobjects.5Cprocdat.,@object
                         147 	.size	_ucSnRotH..C.3A.5C_ECU2.5CECU_Rivian_A1.5CTarget.5Crepo_projects.5CpRealEcu.5CcR_LATEST.5Cmake.5Coutput.5Cobjects.5Cprocdat.,1
                         148 	.type	_ucSnRotH,@object
                         149 	.size	_ucSnRotH,1
                         150 	.global	_ucRecEventPD..C.3A.5C_ECU2.5CECU_Rivian_A1.5CTarget.5Crepo_projects.5CpRealEcu.5CcR_LATEST.5Cmake.5Coutput.5Cobjects.5Cprocdat.
                         151 _ucRecEventPD..C.3A.5C_ECU2.5CECU_Rivian_A1.5CTarget.5Crepo_projects.5CpRealEcu.5CcR_LATEST.5Cmake.5Coutput.5Cobjects.5Cprocdat.:
00000023 00              152 _ucRecEventPD:	.space	1
                         153 	.type	_ucRecEventPD..C.3A.5C_ECU2.5CECU_Rivian_A1.5CTarget.5Crepo_projects.5CpRealEcu.5CcR_LATEST.5Cmake.5Coutput.5Cobjects.5Cprocdat.,@object
                         154 	.size	_ucRecEventPD..C.3A.5C_ECU2.5CECU_Rivian_A1.5CTarget.5Crepo_projects.5CpRealEcu.5CcR_LATEST.5Cmake.5Coutput.5Cobjects.5Cprocdat.,1
                         155 	.type	_ucRecEventPD,@object
                         156 	.size	_ucRecEventPD,1
                         157 	.global	_U8_AllReceivedTelegCnt..C.3A.5C_ECU2.5CECU_Rivian_A1.5CTarget.5Crepo_projects.5CpRealEcu.5CcR_LATEST.5Cmake.5Coutput.5Cobjects.5Cprocdat.
                         158 _U8_AllReceivedTelegCnt..C.3A.5C_ECU2.5CECU_Rivian_A1.5CTarget.5Crepo_projects.5CpRealEcu.5CcR_LATEST.5Cmake.5Coutput.5Cobjects.5Cprocdat.:
00000024 00              159 _U8_AllReceivedTelegCnt:	.space	1
                         160 	.type	_U8_AllReceivedTelegCnt..C.3A.5C_ECU2.5CECU_Rivian_A1.5CTarget.5Crepo_projects.5CpRealEcu.5CcR_LATEST.5Cmake.5Coutput.5Cobjects.5Cprocdat.,@object
                         161 	.size	_U8_AllReceivedTelegCnt..C.3A.5C_ECU2.5CECU_Rivian_A1.5CTarget.5Crepo_projects.5CpRealEcu.5CcR_LATEST.5Cmake.5Coutput.5Cobjects.5Cprocdat.,1
                         162 	.type	_U8_AllReceivedTelegCnt,@object
                         163 	.size	_U8_AllReceivedTelegCnt,1
                         164 	.global	_ucPatmoPD..C.3A.5C_ECU2.5CECU_Rivian_A1.5CTarget.5Crepo_projects.5CpRealEcu.5CcR_LATEST.5Cmake.5Coutput.5Cobjects.5Cprocdat.
                         165 _ucPatmoPD..C.3A.5C_ECU2.5CECU_Rivian_A1.5CTarget.5Crepo_projects.5CpRealEcu.5CcR_LATEST.5Cmake.5Coutput.5Cobjects.5Cprocdat.:
00000025 00              166 _ucPatmoPD:	.space	1
                         167 	.type	_ucPatmoPD..C.3A.5C_ECU2.5CECU_Rivian_A1.5CTarget.5Crepo_projects.5CpRealEcu.5CcR_LATEST.5Cmake.5Coutput.5Cobjects.5Cprocdat.,@object
                         168 	.size	_ucPatmoPD..C.3A.5C_ECU2.5CECU_Rivian_A1.5CTarget.5Crepo_projects.5CpRealEcu.5CcR_LATEST.5Cmake.5Coutput.5Cobjects.5Cprocdat.,1
                         169 	.type	_ucPatmoPD,@object
                         170 	.size	_ucPatmoPD,1
00000026 0000            171 	.space	2

                                                                      Page 4
                                                              C:\Users\nhuliyap\AppData\Local\Temp\gh_00006641.s
                         172 	.global	_tReDataPD..C.3A.5C_ECU2.5CECU_Rivian_A1.5CTarget.5Crepo_projects.5CpRealEcu.5CcR_LATEST.5Cmake.5Coutput.5Cobjects.5Cprocdat.
                         173 _tReDataPD..C.3A.5C_ECU2.5CECU_Rivian_A1.5CTarget.5Crepo_projects.5CpRealEcu.5CcR_LATEST.5Cmake.5Coutput.5Cobjects.5Cprocdat.:
00000028 000000000000    174 _tReDataPD:	.space	24
0000002e 000000000000 
00000034 000000000000 
0000003a 000000000000 
                         175 	.type	_tReDataPD..C.3A.5C_ECU2.5CECU_Rivian_A1.5CTarget.5Crepo_projects.5CpRealEcu.5CcR_LATEST.5Cmake.5Coutput.5Cobjects.5Cprocdat.,@object
                         176 	.size	_tReDataPD..C.3A.5C_ECU2.5CECU_Rivian_A1.5CTarget.5Crepo_projects.5CpRealEcu.5CcR_LATEST.5Cmake.5Coutput.5Cobjects.5Cprocdat.,24
                         177 	.type	_tReDataPD,@object
                         178 	.size	_tReDataPD,24
                         179 	.data
                         180 	.align	4
                         181 	.global	_tReDataPreProcPD..C.3A.5C_ECU2.5CECU_Rivian_A1.5CTarget.5Crepo_projects.5CpRealEcu.5CcR_LATEST.5Cmake.5Coutput.5Cobjects.5Cprocdat.
                         182 _tReDataPreProcPD..C.3A.5C_ECU2.5CECU_Rivian_A1.5CTarget.5Crepo_projects.5CpRealEcu.5CcR_LATEST.5Cmake.5Coutput.5Cobjects.5Cprocdat.:
00000000 00000000        183 _tReDataPreProcPD:	.space	4
00000004 ff7f            184 	.byte	255,127
00000006 0f              185 	.byte	15
00000007 00              186 	.space	1
00000008 0000            187 	.space	2
0000000a 0000            188 	.space	2
                         189 	.type	_tReDataPreProcPD..C.3A.5C_ECU2.5CECU_Rivian_A1.5CTarget.5Crepo_projects.5CpRealEcu.5CcR_LATEST.5Cmake.5Coutput.5Cobjects.5Cprocdat.,@object
                         190 	.size	_tReDataPreProcPD..C.3A.5C_ECU2.5CECU_Rivian_A1.5CTarget.5Crepo_projects.5CpRealEcu.5CcR_LATEST.5Cmake.5Coutput.5Cobjects.5Cprocdat.,12
                         191 	.type	_tReDataPreProcPD,@object
                         192 	.size	_tReDataPreProcPD,12
                         193 	.section ".bss","awb"
                         194 	.global	_ucTyreInvalidPressSurpressionCnt..C.3A.5C_ECU2.5CECU_Rivian_A1.5CTarget.5Crepo_projects.5CpRealEcu.5CcR_LATEST.5Cmake.5Coutput.5Cobjects.5Cprocdat.
                         195 _ucTyreInvalidPressSurpressionCnt..C.3A.5C_ECU2.5CECU_Rivian_A1.5CTarget.5Crepo_projects.5CpRealEcu.5CcR_LATEST.5Cmake.5Coutput.5Cobjects.5Cprocdat.:
00000040 000000000000    196 _ucTyreInvalidPressSurpressionCnt:	.space	10
00000046 00000000 
0000004a 0000            197 	.space	2
                         198 	.type	_ucTyreInvalidPressSurpressionCnt..C.3A.5C_ECU2.5CECU_Rivian_A1.5CTarget.5Crepo_projects.5CpRealEcu.5CcR_LATEST.5Cmake.5Coutput.5Cobjects.5Cprocdat.,@object
                         199 	.size	_ucTyreInvalidPressSurpressionCnt..C.3A.5C_ECU2.5CECU_Rivian_A1.5CTarget.5Crepo_projects.5CpRealEcu.5CcR_LATEST.5Cmake.5Coutput.5Cobjects.5Cprocdat.,12
                         200 	.type	_ucTyreInvalidPressSurpressionCnt,@object
                         201 	.size	_ucTyreInvalidPressSurpressionCnt,12
                         202 	.global	_tWs_RxRotatSBuf..C.3A.5C_ECU2.5CECU_Rivian_A1.5CTarget.5Crepo_projects.5CpRealEcu.5CcR_LATEST.5Cmake.5Coutput.5Cobjects.5Cprocdat.
                         203 _tWs_RxRotatSBuf..C.3A.5C_ECU2.5CECU_Rivian_A1.5CTarget.5Crepo_projects.5CpRealEcu.5CcR_LATEST.5Cmake.5Coutput.5Cobjects.5Cprocdat.:
0000004c 000000000000    204 _tWs_RxRotatSBuf:	.space	336
00000052 000000000000 
00000058 000000000000 
0000005e 000000000000 
00000064 000000000000 
0000006a 000000000000 
00000070 000000000000 
00000076 000000000000 
0000007c 000000000000 
00000082 000000000000 
00000088 000000000000 
0000008e 000000000000 
00000094 000000000000 
0000009a 000000000000 
000000a0 000000000000 
000000a6 000000000000 
000000ac 000000000000 
000000b2 000000000000 
000000b8 000000000000 
000000be 000000000000 
000000c4 000000000000 
000000ca 000000000000 
000000d0 000000000000 
000000d6 000000000000 
000000dc 000000000000 

                                                                      Page 5
                                                              C:\Users\nhuliyap\AppData\Local\Temp\gh_00006641.s
000000e2 000000000000 
000000e8 000000000000 
000000ee 000000000000 
000000f4 000000000000 
000000fa 000000000000 
00000100 000000000000 
00000106 000000000000 
0000010c 000000000000 
00000112 000000000000 
00000118 000000000000 
0000011e 000000000000 
00000124 000000000000 
0000012a 000000000000 
00000130 000000000000 
00000136 000000000000 
0000013c 000000000000 
00000142 000000000000 
00000148 00000000 
                         205 	.type	_tWs_RxRotatSBuf..C.3A.5C_ECU2.5CECU_Rivian_A1.5CTarget.5Crepo_projects.5CpRealEcu.5CcR_LATEST.5Cmake.5Coutput.5Cobjects.5Cprocdat.,@object
                         206 	.size	_tWs_RxRotatSBuf..C.3A.5C_ECU2.5CECU_Rivian_A1.5CTarget.5Crepo_projects.5CpRealEcu.5CcR_LATEST.5Cmake.5Coutput.5Cobjects.5Cprocdat.,336
                         207 	.type	_tWs_RxRotatSBuf,@object
                         208 	.size	_tWs_RxRotatSBuf,336
                         209 	.data
                         210 	.text
                         211 	.align	2
                         212 	.align	2
                         213 ..gh.f.f.1.e.1:
                         214 	.type	..gh.f.f.1.e.1,@object
                         215 	.size	..gh.f.f.1.e.1,0
                         216 	.global	_InitPD
                         217 _InitPD:
0000000a 80076100        218 	prepare	{r29,r31},0
0000000e 3d0600000000*   219 	mov	_ushSensorDefectPD,r29
                         220 --	    .bf
                         221 .LDW21:
                         222 --line71
                         223 ..lin.C.3A.5C_ECU2.5CECU_Rivian_A1.5CTarget.5Crepo_projects.5CpRealEcu.5CcR_LATEST.5Cmake.5Coutput.5Cobjects.5Cprocdat.2::
                         224 .LDWlin2:
                         225 	jarl	_ReloadSTATISTICS,lp
                         225 <EXPANSION BEGIN>
                         225 jarl22 _ReloadSTATISTICS , lp 
00000014 80ff0000*       225 <EXPANSION END>
                         226 --line72
                         227 ..lin.C.3A.5C_ECU2.5CECU_Rivian_A1.5CTarget.5Crepo_projects.5CpRealEcu.5CcR_LATEST.5Cmake.5Coutput.5Cobjects.5Cprocdat.3::
                         228 .LDWlin3:
00000018 1df0            229 	mov	r29,ep
0000001a 405e0000*       230 	movhi	hi(_ucRotatSTelIndexGet),zero,r11
0000001e a303            231 	sst.b	zero,35[ep]
                         232 --line73
                         233 ..lin.C.3A.5C_ECU2.5CECU_Rivian_A1.5CTarget.5Crepo_projects.5CpRealEcu.5CcR_LATEST.5Cmake.5Coutput.5Cobjects.5Cprocdat.4::
                         234 .LDWlin4:
00000020 a403            235 	sst.b	zero,36[ep]
00000022 a003            236 	sst.b	zero,32[ep]
00000024 4b070000*       237 	st.b	zero,lo(_ucRotatSTelIndexGet)[r11]
00000028 0092            238 	mov	0,r18
                         239 .L55:
0000002a 12f0            240 	mov	r18,ep
0000002c ddf1            241 	add	r29,ep
0000002e 1f82            242 	mov	-1,r16
00000030 206e7f00        243 	movea	127,zero,r13
00000034 0f5a            244 	mov	15,r11

                                                                      Page 6
                                                              C:\Users\nhuliyap\AppData\Local\Temp\gh_00006641.s
00000036 8883            245 	sst.b	r16,8[ep]
00000038 8c6b            246 	sst.b	r13,12[ep]
0000003a 905b            247 	sst.b	r11,16[ep]
0000003c 9403            248 	sst.b	zero,20[ep]
0000003e 9883            249 	sst.b	r16,24[ep]
00000040 9c03            250 	sst.b	zero,28[ep]
00000042 1288            251 	mov	r18,r17
00000044 c18a            252 	shl	1,r17
00000046 1df0            253 	mov	r29,ep
00000048 d1f1            254 	add	r17,ep
0000004a 8004            255 	sst.h	zero,0[ep]
0000004c dd89            256 	add	r29,r17
0000004e 4192            257 	add	1,r18
00000050 71074000        258 	st.h	zero,64[r17]
00000054 6492            259 	cmp	4,r18
00000056 a1ed*           260 	bl	.L55
                         261 --line86
                         262 ..lin.C.3A.5C_ECU2.5CECU_Rivian_A1.5CTarget.5Crepo_projects.5CpRealEcu.5CcR_LATEST.5Cmake.5Coutput.5Cobjects.5Cprocdat.5::
                         263 .LDWlin5:
                         264 	jarl	_GETucPatmoEE,lp
                         264 <EXPANSION BEGIN>
                         264 jarl22 _GETucPatmoEE , lp 
00000058 80ff0000*       264 <EXPANSION END>
0000005c 0a30            265 	mov	r10,r6
                         266 	jarl	_PUTucPatmoPD,lp
                         266 <EXPANSION BEGIN>
                         266 jarl22 _PUTucPatmoPD , lp 
0000005e bfffa2ff*       266 <EXPANSION END>
                         267 --	    .ef
                         268 .LDW31:
                         269 --line88
                         270 ..lin.C.3A.5C_ECU2.5CECU_Rivian_A1.5CTarget.5Crepo_projects.5CpRealEcu.5CcR_LATEST.5Cmake.5Coutput.5Cobjects.5Cprocdat.6::
                         271 .LDWlin6:
00000062 40067f00        272 	dispose	0,{r29,r31},[lp]
                         273 	.global	___ghs_eofn_InitPD
                         274 ___ghs_eofn_InitPD:
                         275 	.type	_InitPD,@function
                         276 	.size	_InitPD,.-_InitPD
                         277 	.align	2
                         278 --_ucLoop	r18	local
                         279 
                         280 	.data
                         281 	.text
                         282 	.align	2
                         283 	.align	2
                         284 ..gh.f.f.1.e.2:
                         285 	.type	..gh.f.f.1.e.2,@object
                         286 	.size	..gh.f.f.1.e.2,0
                         287 	.global	_IncrementAllReceivedTelegCnt
                         288 _IncrementAllReceivedTelegCnt:
                         289 --	    .bf
                         290 .LDW41:
00000066 3e0600000000*   291 	mov	_U8_AllReceivedTelegCnt,ep
0000006c 6090            292 	sld.bu	0[ep],r18
0000006e 4192            293 	add	1,r18
00000070 8093            294 	sst.b	r18,0[ep]
                         295 --	    .ef
                         296 .LDW51:
                         297 --line92
                         298 ..lin.C.3A.5C_ECU2.5CECU_Rivian_A1.5CTarget.5Crepo_projects.5CpRealEcu.5CcR_LATEST.5Cmake.5Coutput.5Cobjects.5Cprocdat.7::
                         299 .LDWlin7:

                                                                      Page 7
                                                              C:\Users\nhuliyap\AppData\Local\Temp\gh_00006641.s
00000072 7f00            300 	jmp	[lp]
                         301 	.global	___ghs_eofn_IncrementAllReceivedTelegCnt
                         302 ___ghs_eofn_IncrementAllReceivedTelegCnt:
                         303 	.type	_IncrementAllReceivedTelegCnt,@function
                         304 	.size	_IncrementAllReceivedTelegCnt,.-_IncrementAllReceivedTelegCnt
                         305 	.align	2
                         306 
                         307 	.data
                         308 	.text
                         309 	.align	2
                         310 	.align	2
                         311 ..gh.f.f.1.e.3:
                         312 	.type	..gh.f.f.1.e.3,@object
                         313 	.size	..gh.f.f.1.e.3,0
                         314 	.global	_ulGetReDataIdPD
                         315 _ulGetReDataIdPD:
00000074 3e0600000000*   316 	mov	_tReDataPD,ep
                         317 --	    .bf
                         318 .LDW61:
                         319 --line98
                         320 ..lin.C.3A.5C_ECU2.5CECU_Rivian_A1.5CTarget.5Crepo_projects.5CpRealEcu.5CcR_LATEST.5Cmake.5Coutput.5Cobjects.5Cprocdat.8::
                         321 .LDWlin8:
0000007a 6378            322 	sld.bu	3[ep],r15
0000007c 6488            323 	sld.bu	4[ep],r17
0000007e 6580            324 	sld.bu	5[ep],r16
00000080 6650            325 	sld.bu	6[ep],r10
00000082 d87a            326 	shl	24,r15
00000084 d08a            327 	shl	16,r17
00000086 0f89            328 	or	r15,r17
00000088 c882            329 	shl	8,r16
0000008a 1181            330 	or	r17,r16
0000008c 1051            331 	or	r16,r10
                         332 --	    .ef
                         333 .LDW71:
0000008e 7f00            334 	jmp	[lp]
                         335 	.global	___ghs_eofn_ulGetReDataIdPD
                         336 ___ghs_eofn_ulGetReDataIdPD:
                         337 	.type	_ulGetReDataIdPD,@function
                         338 	.size	_ulGetReDataIdPD,.-_ulGetReDataIdPD
                         339 	.align	2
                         340 
                         341 	.data
                         342 	.text
                         343 	.align	2
                         344 	.align	2
                         345 ..gh.f.f.1.e.4:
                         346 	.type	..gh.f.f.1.e.4,@object
                         347 	.size	..gh.f.f.1.e.4,0
                         348 	.global	_ucGetReDataPressurePD
                         349 _ucGetReDataPressurePD:
00000090 320600000000*   350 	mov	_tReDataPD,r18
                         351 --	    .bf
                         352 .LDW81:
                         353 --line104
                         354 ..lin.C.3A.5C_ECU2.5CECU_Rivian_A1.5CTarget.5Crepo_projects.5CpRealEcu.5CcR_LATEST.5Cmake.5Coutput.5Cobjects.5Cprocdat.9::
                         355 .LDWlin9:
00000096 928f0300        356 	ld.bu	2[r18],r17
0000009a 11067dff        357 	addi	-131,r17,zero
0000009e 910d*           358 	bl	.L285
000000a0 e089            359 	cmp	zero,r17
000000a2 c205*           360 	be	.L213

                                                                      Page 8
                                                              C:\Users\nhuliyap\AppData\Local\Temp\gh_00006641.s
000000a4 1106e0ff        361 	addi	-32,r17,zero
000000a8 da0d*           362 	bne	.L212
                         363 .L213:
                         364 --line105
                         365 ..lin.C.3A.5C_ECU2.5CECU_Rivian_A1.5CTarget.5Crepo_projects.5CpRealEcu.5CcR_LATEST.5Cmake.5Coutput.5Cobjects.5Cprocdat.10::
                         366 .LDWlin10:
000000aa b2570700        367 	ld.bu	7[r18],r10
000000ae 7f00            368 	jmp	[lp]
                         369 .L285:
000000b0 11067dff        370 	addi	-131,r17,zero
000000b4 b2fd*           371 	be	.L213
000000b6 110670ff        372 	addi	-144,r17,zero
000000ba 82fd*           373 	be	.L213
000000bc 11065dff        374 	addi	-163,r17,zero
000000c0 d2f5*           375 	be	.L213
                         376 .L212:
                         377 --line108
                         378 ..lin.C.3A.5C_ECU2.5CECU_Rivian_A1.5CTarget.5Crepo_projects.5CpRealEcu.5CcR_LATEST.5Cmake.5Coutput.5Cobjects.5Cprocdat.11::
                         379 .LDWlin11:
000000c2 0052            380 	mov	0,r10
                         381 --	    .ef
                         382 .LDW91:
000000c4 7f00            383 	jmp	[lp]
                         384 	.global	___ghs_eofn_ucGetReDataPressurePD
                         385 ___ghs_eofn_ucGetReDataPressurePD:
                         386 	.type	_ucGetReDataPressurePD,@function
                         387 	.size	_ucGetReDataPressurePD,.-_ucGetReDataPressurePD
                         388 	.align	2
                         389 --_ucHelp	r10	local
                         390 
                         391 	.data
                         392 	.text
                         393 	.align	2
                         394 	.align	2
                         395 ..gh.f.f.1.e.5:
                         396 	.type	..gh.f.f.1.e.5,@object
                         397 	.size	..gh.f.f.1.e.5,0
                         398 	.global	_ucGetReDataTemperaturePD
                         399 _ucGetReDataTemperaturePD:
000000c6 320600000000*   400 	mov	_tReDataPD,r18
                         401 --	    .bf
                         402 .LDW02:
                         403 --line116
                         404 ..lin.C.3A.5C_ECU2.5CECU_Rivian_A1.5CTarget.5Crepo_projects.5CpRealEcu.5CcR_LATEST.5Cmake.5Coutput.5Cobjects.5Cprocdat.12::
                         405 .LDWlin12:
000000cc 928f0300        406 	ld.bu	2[r18],r17
000000d0 11067dff        407 	addi	-131,r17,zero
000000d4 910d*           408 	bl	.L477
000000d6 e089            409 	cmp	zero,r17
000000d8 c205*           410 	be	.L398
000000da 1106e0ff        411 	addi	-32,r17,zero
000000de da0d*           412 	bne	.L397
                         413 .L398:
                         414 --line117
                         415 ..lin.C.3A.5C_ECU2.5CECU_Rivian_A1.5CTarget.5Crepo_projects.5CpRealEcu.5CcR_LATEST.5Cmake.5Coutput.5Cobjects.5Cprocdat.13::
                         416 .LDWlin13:
000000e0 92570900        417 	ld.bu	8[r18],r10
000000e4 7f00            418 	jmp	[lp]
                         419 .L477:
000000e6 11067dff        420 	addi	-131,r17,zero
000000ea b2fd*           421 	be	.L398

                                                                      Page 9
                                                              C:\Users\nhuliyap\AppData\Local\Temp\gh_00006641.s
000000ec 110670ff        422 	addi	-144,r17,zero
000000f0 82fd*           423 	be	.L398
000000f2 11065dff        424 	addi	-163,r17,zero
000000f6 d2f5*           425 	be	.L398
                         426 .L397:
                         427 --line120
                         428 ..lin.C.3A.5C_ECU2.5CECU_Rivian_A1.5CTarget.5Crepo_projects.5CpRealEcu.5CcR_LATEST.5Cmake.5Coutput.5Cobjects.5Cprocdat.14::
                         429 .LDWlin14:
000000f8 0052            430 	mov	0,r10
                         431 --	    .ef
                         432 .LDW12:
000000fa 7f00            433 	jmp	[lp]
                         434 	.global	___ghs_eofn_ucGetReDataTemperaturePD
                         435 ___ghs_eofn_ucGetReDataTemperaturePD:
                         436 	.type	_ucGetReDataTemperaturePD,@function
                         437 	.size	_ucGetReDataTemperaturePD,.-_ucGetReDataTemperaturePD
                         438 	.align	2
                         439 --_ucHelp	r10	local
                         440 
                         441 	.data
                         442 	.text
                         443 	.align	2
                         444 	.align	2
                         445 ..gh.f.f.1.e.6:
                         446 	.type	..gh.f.f.1.e.6,@object
                         447 	.size	..gh.f.f.1.e.6,0
                         448 	.global	_ucGetReDataRemainingLifeTimePD
                         449 _ucGetReDataRemainingLifeTimePD:
000000fc 320600000000*   450 	mov	_tReDataPD,r18
                         451 --	    .bf
                         452 .LDW22:
                         453 --line128
                         454 ..lin.C.3A.5C_ECU2.5CECU_Rivian_A1.5CTarget.5Crepo_projects.5CpRealEcu.5CcR_LATEST.5Cmake.5Coutput.5Cobjects.5Cprocdat.15::
                         455 .LDWlin15:
00000102 924f0300        456 	ld.bu	2[r18],r9
00000106 09067dff        457 	addi	-131,r9,zero
0000010a c205*           458 	be	.L590
0000010c 09065dff        459 	addi	-163,r9,zero
00000110 fa05*           460 	bne	.L589
                         461 .L590:
                         462 --line129
                         463 ..lin.C.3A.5C_ECU2.5CECU_Rivian_A1.5CTarget.5Crepo_projects.5CpRealEcu.5CcR_LATEST.5Cmake.5Coutput.5Cobjects.5Cprocdat.16::
                         464 .LDWlin16:
00000112 92470b00        465 	ld.bu	10[r18],r8
00000116 c8563c00        466 	andi	60,r8,r10
0000011a a252            467 	sar	2,r10
0000011c 7f00            468 	jmp	[lp]
                         469 .L589:
                         470 --line132
                         471 ..lin.C.3A.5C_ECU2.5CECU_Rivian_A1.5CTarget.5Crepo_projects.5CpRealEcu.5CcR_LATEST.5Cmake.5Coutput.5Cobjects.5Cprocdat.17::
                         472 .LDWlin17:
0000011e 0f52            473 	mov	15,r10
                         474 --	    .ef
                         475 .LDW32:
00000120 7f00            476 	jmp	[lp]
                         477 	.global	___ghs_eofn_ucGetReDataRemainingLifeTimePD
                         478 ___ghs_eofn_ucGetReDataRemainingLifeTimePD:
                         479 	.type	_ucGetReDataRemainingLifeTimePD,@function
                         480 	.size	_ucGetReDataRemainingLifeTimePD,.-_ucGetReDataRemainingLifeTimePD
                         481 	.align	2
                         482 --_ucHelp	r10	local

                                                                      Page 10
                                                              C:\Users\nhuliyap\AppData\Local\Temp\gh_00006641.s
                         483 
                         484 	.data
                         485 	.text
                         486 	.align	2
                         487 	.align	2
                         488 ..gh.f.f.1.e.7:
                         489 	.type	..gh.f.f.1.e.7,@object
                         490 	.size	..gh.f.f.1.e.7,0
                         491 	.global	_ucGetReDataStatePD
                         492 _ucGetReDataStatePD:
00000122 320600000000*   493 	mov	_tReDataPD,r18
                         494 --	    .bf
                         495 .LDW42:
                         496 --line140
                         497 ..lin.C.3A.5C_ECU2.5CECU_Rivian_A1.5CTarget.5Crepo_projects.5CpRealEcu.5CcR_LATEST.5Cmake.5Coutput.5Cobjects.5Cprocdat.18::
                         498 .LDWlin18:
00000128 924f0300        499 	ld.bu	2[r18],r9
0000012c 0152            500 	mov	1,r10
0000012e e049            501 	cmp	zero,r9
00000130 e225*           502 	be	.L689
                         503 --line143
                         504 ..lin.C.3A.5C_ECU2.5CECU_Rivian_A1.5CTarget.5Crepo_projects.5CpRealEcu.5CcR_LATEST.5Cmake.5Coutput.5Cobjects.5Cprocdat.19::
                         505 .LDWlin19:
00000132 090619ff        506 	addi	-231,r9,zero
00000136 0252            507 	mov	2,r10
00000138 a225*           508 	be	.L689
                         509 --line146
                         510 ..lin.C.3A.5C_ECU2.5CECU_Rivian_A1.5CTarget.5Crepo_projects.5CpRealEcu.5CcR_LATEST.5Cmake.5Coutput.5Cobjects.5Cprocdat.20::
                         511 .LDWlin20:
0000013a 09067dff        512 	addi	-131,r9,zero
0000013e c205*           513 	be	.L698
00000140 09065dff        514 	addi	-163,r9,zero
00000144 aa1d*           515 	bne	.L697
                         516 .L698:
                         517 --line147
                         518 ..lin.C.3A.5C_ECU2.5CECU_Rivian_A1.5CTarget.5Crepo_projects.5CpRealEcu.5CcR_LATEST.5Cmake.5Coutput.5Cobjects.5Cprocdat.21::
                         519 .LDWlin21:
00000146 92370900        520 	ld.bu	8[r18],r6
0000014a 0452            521 	mov	4,r10
0000014c 060609ff        522 	addi	-247,r6,zero
00000150 e215*           523 	be	.L689
                         524 --line151
                         525 ..lin.C.3A.5C_ECU2.5CECU_Rivian_A1.5CTarget.5Crepo_projects.5CpRealEcu.5CcR_LATEST.5Cmake.5Coutput.5Cobjects.5Cprocdat.22::
                         526 .LDWlin22:
00000152 b2470900        527 	ld.bu	9[r18],r8
00000156 8542            528 	shr	5,r8
00000158 6342            529 	cmp	3,r8
0000015a e205*           530 	be	.L705
0000015c 6542            531 	cmp	5,r8
                         532 --line161
                         533 ..lin.C.3A.5C_ECU2.5CECU_Rivian_A1.5CTarget.5Crepo_projects.5CpRealEcu.5CcR_LATEST.5Cmake.5Coutput.5Cobjects.5Cprocdat.23::
                         534 .LDWlin23:
0000015e 0052            535 	mov	0,r10
00000160 ca05*           536 	bne	.L706
                         537 --line157
                         538 ..lin.C.3A.5C_ECU2.5CECU_Rivian_A1.5CTarget.5Crepo_projects.5CpRealEcu.5CcR_LATEST.5Cmake.5Coutput.5Cobjects.5Cprocdat.24::
                         539 .LDWlin24:
00000162 0152            540 	mov	1,r10
00000164 a505*           541 	br	.L706
                         542 .L705:
                         543 --line153

                                                                      Page 11
                                                              C:\Users\nhuliyap\AppData\Local\Temp\gh_00006641.s
                         544 ..lin.C.3A.5C_ECU2.5CECU_Rivian_A1.5CTarget.5Crepo_projects.5CpRealEcu.5CcR_LATEST.5Cmake.5Coutput.5Cobjects.5Cprocdat.25::
                         545 .LDWlin25:
00000166 0252            546 	mov	2,r10
                         547 .L706:
00000168 92870b00        548 	ld.bu	10[r18],r16
0000016c 8682            549 	shr	6,r16
0000016e 6182            550 	cmp	1,r16
00000170 ea05*           551 	bne	.L689
                         552 --line166
                         553 ..lin.C.3A.5C_ECU2.5CECU_Rivian_A1.5CTarget.5Crepo_projects.5CpRealEcu.5CcR_LATEST.5Cmake.5Coutput.5Cobjects.5Cprocdat.26::
                         554 .LDWlin26:
00000172 20561000        555 	movea	16,zero,r10
00000176 7f00            556 	jmp	[lp]
                         557 .L697:
                         558 --line171
                         559 ..lin.C.3A.5C_ECU2.5CECU_Rivian_A1.5CTarget.5Crepo_projects.5CpRealEcu.5CcR_LATEST.5Cmake.5Coutput.5Cobjects.5Cprocdat.27::
                         560 .LDWlin27:
00000178 0052            561 	mov	0,r10
0000017a 7f00            562 	jmp	[lp]
                         563 .L689:
                         564 --	    .ef
                         565 .LDW52:
                         566 --line173
                         567 ..lin.C.3A.5C_ECU2.5CECU_Rivian_A1.5CTarget.5Crepo_projects.5CpRealEcu.5CcR_LATEST.5Cmake.5Coutput.5Cobjects.5Cprocdat.28::
                         568 .LDWlin28:
0000017c 7f00            569 	jmp	[lp]
                         570 	.global	___ghs_eofn_ucGetReDataStatePD
                         571 ___ghs_eofn_ucGetReDataStatePD:
                         572 	.type	_ucGetReDataStatePD,@function
                         573 	.size	_ucGetReDataStatePD,.-_ucGetReDataStatePD
                         574 	.align	2
                         575 --_ucHelp	r10	local
                         576 
                         577 	.data
                         578 	.text
                         579 	.align	2
                         580 	.align	2
                         581 ..gh.f.f.1.e.8:
                         582 	.type	..gh.f.f.1.e.8,@object
                         583 	.size	..gh.f.f.1.e.8,0
                         584 	.global	_ucGetReDataRssiAvgPD
                         585 _ucGetReDataRssiAvgPD:
                         586 --	    .bf
                         587 .LDW62:
0000017e 40560000*       588 	movhi	hi(_tReDataPD+16),zero,r10
00000182 8a570100*       589 	ld.bu	lo(_tReDataPD+16)[r10],r10
                         590 --	    .ef
                         591 .LDW72:
                         592 --line177
                         593 ..lin.C.3A.5C_ECU2.5CECU_Rivian_A1.5CTarget.5Crepo_projects.5CpRealEcu.5CcR_LATEST.5Cmake.5Coutput.5Cobjects.5Cprocdat.29::
                         594 .LDWlin29:
00000186 7f00            595 	jmp	[lp]
                         596 	.global	___ghs_eofn_ucGetReDataRssiAvgPD
                         597 ___ghs_eofn_ucGetReDataRssiAvgPD:
                         598 	.type	_ucGetReDataRssiAvgPD,@function
                         599 	.size	_ucGetReDataRssiAvgPD,.-_ucGetReDataRssiAvgPD
                         600 	.align	2
                         601 
                         602 	.data
                         603 	.text
                         604 	.align	2

                                                                      Page 12
                                                              C:\Users\nhuliyap\AppData\Local\Temp\gh_00006641.s
                         605 	.align	2
                         606 ..gh.f.f.1.e.9:
                         607 	.type	..gh.f.f.1.e.9,@object
                         608 	.size	..gh.f.f.1.e.9,0
                         609 	.global	_ucGetReDataTelTypePD
                         610 _ucGetReDataTelTypePD:
                         611 --	    .bf
                         612 .LDW82:
00000188 40560000*       613 	movhi	hi(_tReDataPD+2),zero,r10
0000018c 8a570100*       614 	ld.bu	lo(_tReDataPD+2)[r10],r10
                         615 --	    .ef
                         616 .LDW92:
                         617 --line181
                         618 ..lin.C.3A.5C_ECU2.5CECU_Rivian_A1.5CTarget.5Crepo_projects.5CpRealEcu.5CcR_LATEST.5Cmake.5Coutput.5Cobjects.5Cprocdat.30::
                         619 .LDWlin30:
00000190 7f00            620 	jmp	[lp]
                         621 	.global	___ghs_eofn_ucGetReDataTelTypePD
                         622 ___ghs_eofn_ucGetReDataTelTypePD:
                         623 	.type	_ucGetReDataTelTypePD,@function
                         624 	.size	_ucGetReDataTelTypePD,.-_ucGetReDataTelTypePD
                         625 	.align	2
                         626 
                         627 	.data
                         628 	.text
                         629 	.align	2
                         630 	.align	2
                         631 ..gh.f.f.1.e.10:
                         632 	.type	..gh.f.f.1.e.10,@object
                         633 	.size	..gh.f.f.1.e.10,0
                         634 	.global	_ucGetReDataTGCounter
                         635 _ucGetReDataTGCounter:
00000192 320600000000*   636 	mov	_tReDataPD,r18
                         637 --	    .bf
                         638 .LDW03:
                         639 --line187
                         640 ..lin.C.3A.5C_ECU2.5CECU_Rivian_A1.5CTarget.5Crepo_projects.5CpRealEcu.5CcR_LATEST.5Cmake.5Coutput.5Cobjects.5Cprocdat.31::
                         641 .LDWlin31:
00000198 924f0300        642 	ld.bu	2[r18],r9
0000019c 09067dff        643 	addi	-131,r9,zero
000001a0 c205*           644 	be	.L1080
000001a2 09065dff        645 	addi	-163,r9,zero
000001a6 ea05*           646 	bne	.L1079
                         647 .L1080:
                         648 --line188
                         649 ..lin.C.3A.5C_ECU2.5CECU_Rivian_A1.5CTarget.5Crepo_projects.5CpRealEcu.5CcR_LATEST.5Cmake.5Coutput.5Cobjects.5Cprocdat.32::
                         650 .LDWlin32:
000001a8 b23f0900        651 	ld.bu	9[r18],r7
000001ac c7561f00        652 	andi	31,r7,r10
000001b0 7f00            653 	jmp	[lp]
                         654 .L1079:
                         655 --line191
                         656 ..lin.C.3A.5C_ECU2.5CECU_Rivian_A1.5CTarget.5Crepo_projects.5CpRealEcu.5CcR_LATEST.5Cmake.5Coutput.5Cobjects.5Cprocdat.33::
                         657 .LDWlin33:
000001b2 0052            658 	mov	0,r10
                         659 --	    .ef
                         660 .LDW13:
000001b4 7f00            661 	jmp	[lp]
                         662 	.global	___ghs_eofn_ucGetReDataTGCounter
                         663 ___ghs_eofn_ucGetReDataTGCounter:
                         664 	.type	_ucGetReDataTGCounter,@function
                         665 	.size	_ucGetReDataTGCounter,.-_ucGetReDataTGCounter

                                                                      Page 13
                                                              C:\Users\nhuliyap\AppData\Local\Temp\gh_00006641.s
                         666 	.align	2
                         667 --_ucHelp	r10	local
                         668 
                         669 	.data
                         670 	.text
                         671 	.align	2
                         672 	.align	2
                         673 ..gh.f.f.1.e.11:
                         674 	.type	..gh.f.f.1.e.11,@object
                         675 	.size	..gh.f.f.1.e.11,0
                         676 	.global	_pGetCurTel
                         677 _pGetCurTel:
                         678 --	    .bf
                         679 .LDW23:
000001b6 2a0600000000*   680 	mov	_tReDataPD,r10
                         681 --	    .ef
                         682 .LDW33:
                         683 --line196
                         684 ..lin.C.3A.5C_ECU2.5CECU_Rivian_A1.5CTarget.5Crepo_projects.5CpRealEcu.5CcR_LATEST.5Cmake.5Coutput.5Cobjects.5Cprocdat.34::
                         685 .LDWlin34:
000001bc 7f00            686 	jmp	[lp]
                         687 	.global	___ghs_eofn_pGetCurTel
                         688 ___ghs_eofn_pGetCurTel:
                         689 	.type	_pGetCurTel,@function
                         690 	.size	_pGetCurTel,.-_pGetCurTel
                         691 	.align	2
                         692 
                         693 	.data
                         694 	.text
                         695 	.align	2
                         696 	.align	2
                         697 ..gh.f.f.1.e.12:
                         698 	.type	..gh.f.f.1.e.12,@object
                         699 	.size	..gh.f.f.1.e.12,0
                         700 	.global	_ulGetReDataPreProcIdPD
                         701 _ulGetReDataPreProcIdPD:
000001be 40560000*       702 	movhi	hi(_tReDataPreProcPD),zero,r10
                         703 --	    .bf
                         704 .LDW43:
                         705 --line202
                         706 ..lin.C.3A.5C_ECU2.5CECU_Rivian_A1.5CTarget.5Crepo_projects.5CpRealEcu.5CcR_LATEST.5Cmake.5Coutput.5Cobjects.5Cprocdat.35::
                         707 .LDWlin35:
000001c2 2a570100*       708 	ld.w	lo(_tReDataPreProcPD)[r10],r10
                         709 --	    .ef
                         710 .LDW53:
000001c6 7f00            711 	jmp	[lp]
                         712 	.global	___ghs_eofn_ulGetReDataPreProcIdPD
                         713 ___ghs_eofn_ulGetReDataPreProcIdPD:
                         714 	.type	_ulGetReDataPreProcIdPD,@function
                         715 	.size	_ulGetReDataPreProcIdPD,.-_ulGetReDataPreProcIdPD
                         716 	.align	2
                         717 
                         718 	.data
                         719 	.text
                         720 	.align	2
                         721 	.align	2
                         722 ..gh.f.f.1.e.13:
                         723 	.type	..gh.f.f.1.e.13,@object
                         724 	.size	..gh.f.f.1.e.13,0
                         725 	.global	_PutReDataPreProcIdPD
                         726 _PutReDataPreProcIdPD:

                                                                      Page 14
                                                              C:\Users\nhuliyap\AppData\Local\Temp\gh_00006641.s
000001c8 40960000*       727 	movhi	hi(_tReDataPreProcPD),zero,r18
                         728 --	    .bf
                         729 .LDW63:
                         730 --line207
                         731 ..lin.C.3A.5C_ECU2.5CECU_Rivian_A1.5CTarget.5Crepo_projects.5CpRealEcu.5CcR_LATEST.5Cmake.5Coutput.5Cobjects.5Cprocdat.36::
                         732 .LDWlin36:
000001cc 72370100*       733 	st.w	r6,lo(_tReDataPreProcPD)[r18]
                         734 --	    .ef
                         735 .LDW73:
000001d0 7f00            736 	jmp	[lp]
                         737 	.global	___ghs_eofn_PutReDataPreProcIdPD
                         738 ___ghs_eofn_PutReDataPreProcIdPD:
                         739 	.type	_PutReDataPreProcIdPD,@function
                         740 	.size	_PutReDataPreProcIdPD,.-_PutReDataPreProcIdPD
                         741 	.align	2
                         742 
                         743 --_ulID	r6	param
                         744 
                         745 	.data
                         746 	.text
                         747 	.align	2
                         748 	.align	2
                         749 ..gh.f.f.1.e.14:
                         750 	.type	..gh.f.f.1.e.14,@object
                         751 	.size	..gh.f.f.1.e.14,0
                         752 	.global	_ucGetReDataPreProcPressurePD
                         753 _ucGetReDataPreProcPressurePD:
000001d2 2a0600000000*   754 	mov	_tReDataPreProcPD,r10
                         755 --	    .bf
                         756 .LDW83:
                         757 --line212
                         758 ..lin.C.3A.5C_ECU2.5CECU_Rivian_A1.5CTarget.5Crepo_projects.5CpRealEcu.5CcR_LATEST.5Cmake.5Coutput.5Cobjects.5Cprocdat.37::
                         759 .LDWlin37:
000001d8 8a570500        760 	ld.bu	4[r10],r10
                         761 --	    .ef
                         762 .LDW93:
000001dc 7f00            763 	jmp	[lp]
                         764 	.global	___ghs_eofn_ucGetReDataPreProcPressurePD
                         765 ___ghs_eofn_ucGetReDataPreProcPressurePD:
                         766 	.type	_ucGetReDataPreProcPressurePD,@function
                         767 	.size	_ucGetReDataPreProcPressurePD,.-_ucGetReDataPreProcPressurePD
                         768 	.align	2
                         769 
                         770 	.data
                         771 	.text
                         772 	.align	2
                         773 	.align	2
                         774 ..gh.f.f.1.e.15:
                         775 	.type	..gh.f.f.1.e.15,@object
                         776 	.size	..gh.f.f.1.e.15,0
                         777 	.global	_PutReDataPreProcPressurePD
                         778 _PutReDataPreProcPressurePD:
000001de 320600000000*   779 	mov	_tReDataPreProcPD,r18
                         780 --	    .bf
                         781 .LDW04:
                         782 --line217
                         783 ..lin.C.3A.5C_ECU2.5CECU_Rivian_A1.5CTarget.5Crepo_projects.5CpRealEcu.5CcR_LATEST.5Cmake.5Coutput.5Cobjects.5Cprocdat.38::
                         784 .LDWlin38:
000001e4 52370400        785 	st.b	r6,4[r18]
                         786 --	    .ef
                         787 .LDW14:

                                                                      Page 15
                                                              C:\Users\nhuliyap\AppData\Local\Temp\gh_00006641.s
000001e8 7f00            788 	jmp	[lp]
                         789 	.global	___ghs_eofn_PutReDataPreProcPressurePD
                         790 ___ghs_eofn_PutReDataPreProcPressurePD:
                         791 	.type	_PutReDataPreProcPressurePD,@function
                         792 	.size	_PutReDataPreProcPressurePD,.-_PutReDataPreProcPressurePD
                         793 	.align	2
                         794 
                         795 --_ucPressure	r6	param
                         796 
                         797 	.data
                         798 	.text
                         799 	.align	2
                         800 	.align	2
                         801 ..gh.f.f.1.e.16:
                         802 	.type	..gh.f.f.1.e.16,@object
                         803 	.size	..gh.f.f.1.e.16,0
                         804 	.global	_scGetReDataPreProcTemperaturePD
                         805 _scGetReDataPreProcTemperaturePD:
000001ea 2a0600000000*   806 	mov	_tReDataPreProcPD,r10
                         807 --	    .bf
                         808 .LDW24:
                         809 --line222
                         810 ..lin.C.3A.5C_ECU2.5CECU_Rivian_A1.5CTarget.5Crepo_projects.5CpRealEcu.5CcR_LATEST.5Cmake.5Coutput.5Cobjects.5Cprocdat.39::
                         811 .LDWlin39:
000001f0 0a570500        812 	ld.b	5[r10],r10
                         813 --	    .ef
                         814 .LDW34:
000001f4 7f00            815 	jmp	[lp]
                         816 	.global	___ghs_eofn_scGetReDataPreProcTemperaturePD
                         817 ___ghs_eofn_scGetReDataPreProcTemperaturePD:
                         818 	.type	_scGetReDataPreProcTemperaturePD,@function
                         819 	.size	_scGetReDataPreProcTemperaturePD,.-_scGetReDataPreProcTemperaturePD
                         820 	.align	2
                         821 
                         822 	.data
                         823 	.text
                         824 	.align	2
                         825 	.align	2
                         826 ..gh.f.f.1.e.17:
                         827 	.type	..gh.f.f.1.e.17,@object
                         828 	.size	..gh.f.f.1.e.17,0
                         829 	.global	_PutReDataPreProcTemperaturePD
                         830 _PutReDataPreProcTemperaturePD:
000001f6 320600000000*   831 	mov	_tReDataPreProcPD,r18
                         832 --	    .bf
                         833 .LDW44:
                         834 --line227
                         835 ..lin.C.3A.5C_ECU2.5CECU_Rivian_A1.5CTarget.5Crepo_projects.5CpRealEcu.5CcR_LATEST.5Cmake.5Coutput.5Cobjects.5Cprocdat.40::
                         836 .LDWlin40:
000001fc 52370500        837 	st.b	r6,5[r18]
                         838 --	    .ef
                         839 .LDW54:
00000200 7f00            840 	jmp	[lp]
                         841 	.global	___ghs_eofn_PutReDataPreProcTemperaturePD
                         842 ___ghs_eofn_PutReDataPreProcTemperaturePD:
                         843 	.type	_PutReDataPreProcTemperaturePD,@function
                         844 	.size	_PutReDataPreProcTemperaturePD,.-_PutReDataPreProcTemperaturePD
                         845 	.align	2
                         846 
                         847 --_scTemperature	r6	param
                         848 

                                                                      Page 16
                                                              C:\Users\nhuliyap\AppData\Local\Temp\gh_00006641.s
                         849 	.data
                         850 	.text
                         851 	.align	2
                         852 	.align	2
                         853 ..gh.f.f.1.e.18:
                         854 	.type	..gh.f.f.1.e.18,@object
                         855 	.size	..gh.f.f.1.e.18,0
                         856 	.global	_ucGetReDataPreProcRemainingLifeTimePD
                         857 _ucGetReDataPreProcRemainingLifeTimePD:
00000202 2a0600000000*   858 	mov	_tReDataPreProcPD,r10
                         859 --	    .bf
                         860 .LDW64:
                         861 --line232
                         862 ..lin.C.3A.5C_ECU2.5CECU_Rivian_A1.5CTarget.5Crepo_projects.5CpRealEcu.5CcR_LATEST.5Cmake.5Coutput.5Cobjects.5Cprocdat.41::
                         863 .LDWlin41:
00000208 8a570700        864 	ld.bu	6[r10],r10
                         865 --	    .ef
                         866 .LDW74:
0000020c 7f00            867 	jmp	[lp]
                         868 	.global	___ghs_eofn_ucGetReDataPreProcRemainingLifeTimePD
                         869 ___ghs_eofn_ucGetReDataPreProcRemainingLifeTimePD:
                         870 	.type	_ucGetReDataPreProcRemainingLifeTimePD,@function
                         871 	.size	_ucGetReDataPreProcRemainingLifeTimePD,.-_ucGetReDataPreProcRemainingLifeTimePD
                         872 	.align	2
                         873 
                         874 	.data
                         875 	.text
                         876 	.align	2
                         877 	.align	2
                         878 ..gh.f.f.1.e.19:
                         879 	.type	..gh.f.f.1.e.19,@object
                         880 	.size	..gh.f.f.1.e.19,0
                         881 	.global	_PutReDataPreProcRemainingLifeTimePD
                         882 _PutReDataPreProcRemainingLifeTimePD:
0000020e 320600000000*   883 	mov	_tReDataPreProcPD,r18
                         884 --	    .bf
                         885 .LDW84:
                         886 --line237
                         887 ..lin.C.3A.5C_ECU2.5CECU_Rivian_A1.5CTarget.5Crepo_projects.5CpRealEcu.5CcR_LATEST.5Cmake.5Coutput.5Cobjects.5Cprocdat.42::
                         888 .LDWlin42:
00000214 52370600        889 	st.b	r6,6[r18]
                         890 --	    .ef
                         891 .LDW94:
00000218 7f00            892 	jmp	[lp]
                         893 	.global	___ghs_eofn_PutReDataPreProcRemainingLifeTimePD
                         894 ___ghs_eofn_PutReDataPreProcRemainingLifeTimePD:
                         895 	.type	_PutReDataPreProcRemainingLifeTimePD,@function
                         896 	.size	_PutReDataPreProcRemainingLifeTimePD,.-_PutReDataPreProcRemainingLifeTimePD
                         897 	.align	2
                         898 
                         899 --_ucRemainingLifeTime	r6	param
                         900 
                         901 	.data
                         902 	.text
                         903 	.align	2
                         904 	.align	2
                         905 ..gh.f.f.1.e.20:
                         906 	.type	..gh.f.f.1.e.20,@object
                         907 	.size	..gh.f.f.1.e.20,0
                         908 	.global	_ucGetReDataPreProcTransModePD
                         909 _ucGetReDataPreProcTransModePD:

                                                                      Page 17
                                                              C:\Users\nhuliyap\AppData\Local\Temp\gh_00006641.s
0000021a 2a0600000000*   910 	mov	_tReDataPreProcPD,r10
                         911 --	    .bf
                         912 .LDW05:
                         913 --line242
                         914 ..lin.C.3A.5C_ECU2.5CECU_Rivian_A1.5CTarget.5Crepo_projects.5CpRealEcu.5CcR_LATEST.5Cmake.5Coutput.5Cobjects.5Cprocdat.43::
                         915 .LDWlin43:
00000220 aa570700        916 	ld.bu	7[r10],r10
                         917 --	    .ef
                         918 .LDW15:
00000224 7f00            919 	jmp	[lp]
                         920 	.global	___ghs_eofn_ucGetReDataPreProcTransModePD
                         921 ___ghs_eofn_ucGetReDataPreProcTransModePD:
                         922 	.type	_ucGetReDataPreProcTransModePD,@function
                         923 	.size	_ucGetReDataPreProcTransModePD,.-_ucGetReDataPreProcTransModePD
                         924 	.align	2
                         925 
                         926 	.data
                         927 	.text
                         928 	.align	2
                         929 	.align	2
                         930 ..gh.f.f.1.e.21:
                         931 	.type	..gh.f.f.1.e.21,@object
                         932 	.size	..gh.f.f.1.e.21,0
                         933 	.global	_PutReDataPreProcTransModePD
                         934 _PutReDataPreProcTransModePD:
00000226 320600000000*   935 	mov	_tReDataPreProcPD,r18
                         936 --	    .bf
                         937 .LDW25:
                         938 --line247
                         939 ..lin.C.3A.5C_ECU2.5CECU_Rivian_A1.5CTarget.5Crepo_projects.5CpRealEcu.5CcR_LATEST.5Cmake.5Coutput.5Cobjects.5Cprocdat.44::
                         940 .LDWlin44:
0000022c 52370700        941 	st.b	r6,7[r18]
                         942 --	    .ef
                         943 .LDW35:
00000230 7f00            944 	jmp	[lp]
                         945 	.global	___ghs_eofn_PutReDataPreProcTransModePD
                         946 ___ghs_eofn_PutReDataPreProcTransModePD:
                         947 	.type	_PutReDataPreProcTransModePD,@function
                         948 	.size	_PutReDataPreProcTransModePD,.-_PutReDataPreProcTransModePD
                         949 	.align	2
                         950 
                         951 --_ucTransMode	r6	param
                         952 
                         953 	.data
                         954 	.text
                         955 	.align	2
                         956 	.align	2
                         957 ..gh.f.f.1.e.22:
                         958 	.type	..gh.f.f.1.e.22,@object
                         959 	.size	..gh.f.f.1.e.22,0
                         960 	.global	_ushGetReDataPreProcSensorDefectPD
                         961 _ushGetReDataPreProcSensorDefectPD:
00000232 2a0600000000*   962 	mov	_tReDataPreProcPD,r10
                         963 --	    .bf
                         964 .LDW45:
                         965 --line252
                         966 ..lin.C.3A.5C_ECU2.5CECU_Rivian_A1.5CTarget.5Crepo_projects.5CpRealEcu.5CcR_LATEST.5Cmake.5Coutput.5Cobjects.5Cprocdat.45::
                         967 .LDWlin45:
00000238 ea570900        968 	ld.hu	8[r10],r10
                         969 --	    .ef
                         970 .LDW55:

                                                                      Page 18
                                                              C:\Users\nhuliyap\AppData\Local\Temp\gh_00006641.s
0000023c 7f00            971 	jmp	[lp]
                         972 	.global	___ghs_eofn_ushGetReDataPreProcSensorDefectPD
                         973 ___ghs_eofn_ushGetReDataPreProcSensorDefectPD:
                         974 	.type	_ushGetReDataPreProcSensorDefectPD,@function
                         975 	.size	_ushGetReDataPreProcSensorDefectPD,.-_ushGetReDataPreProcSensorDefectPD
                         976 	.align	2
                         977 
                         978 	.data
                         979 	.text
                         980 	.align	2
                         981 	.align	2
                         982 ..gh.f.f.1.e.23:
                         983 	.type	..gh.f.f.1.e.23,@object
                         984 	.size	..gh.f.f.1.e.23,0
                         985 	.global	_PutReDataPreProcSensorDefectPD
                         986 _PutReDataPreProcSensorDefectPD:
0000023e 320600000000*   987 	mov	_tReDataPreProcPD,r18
                         988 --	    .bf
                         989 .LDW65:
                         990 --line257
                         991 ..lin.C.3A.5C_ECU2.5CECU_Rivian_A1.5CTarget.5Crepo_projects.5CpRealEcu.5CcR_LATEST.5Cmake.5Coutput.5Cobjects.5Cprocdat.46::
                         992 .LDWlin46:
00000244 72370800        993 	st.h	r6,8[r18]
                         994 --	    .ef
                         995 .LDW75:
00000248 7f00            996 	jmp	[lp]
                         997 	.global	___ghs_eofn_PutReDataPreProcSensorDefectPD
                         998 ___ghs_eofn_PutReDataPreProcSensorDefectPD:
                         999 	.type	_PutReDataPreProcSensorDefectPD,@function
                        1000 	.size	_PutReDataPreProcSensorDefectPD,.-_PutReDataPreProcSensorDefectPD
                        1001 	.align	2
                        1002 
                        1003 --_ushSensorDefect	r6	param
                        1004 
                        1005 	.data
                        1006 	.text
                        1007 	.align	2
                        1008 	.align	2
                        1009 ..gh.f.f.1.e.24:
                        1010 	.type	..gh.f.f.1.e.24,@object
                        1011 	.size	..gh.f.f.1.e.24,0
                        1012 	.global	_ucGetSlotNoAtPosPD
                        1013 _ucGetSlotNoAtPosPD:
0000024a 8007e110       1014 	prepare	{r27,r28,r29,r31},0
0000024e 06d8           1015 	mov	r6,r27
00000250 9b00           1016 	zxb	r27
                        1017 --	    .bf
                        1018 .LDW85:
00000252 20361000       1019 	movea	16,zero,r6
                        1020 	jarl	_bGetBitBetriebszustandBZ,lp
                        1020 <EXPANSION BEGIN>
                        1020 jarl22 _bGetBitBetriebszustandBZ , lp 
00000256 80ff0000*      1020 <EXPANSION END>
                        1021 --line301
                        1022 ..lin.C.3A.5C_ECU2.5CECU_Rivian_A1.5CTarget.5Crepo_projects.5CpRealEcu.5CcR_LATEST.5Cmake.5Coutput.5Cobjects.5Cprocdat.47::
                        1023 .LDWlin47:
0000025a 04e2           1024 	mov	4,r28
0000025c 6152           1025 	cmp	1,r10
0000025e 8a0d*          1026 	bne	.L1821
00000260 00ea           1027 	mov	0,r29
                        1028 .L1816:

                                                                      Page 19
                                                              C:\Users\nhuliyap\AppData\Local\Temp\gh_00006641.s
                        1029 --line308
                        1030 ..lin.C.3A.5C_ECU2.5CECU_Rivian_A1.5CTarget.5Crepo_projects.5CpRealEcu.5CcR_LATEST.5Cmake.5Coutput.5Cobjects.5Cprocdat.48::
                        1031 .LDWlin48:
00000262 1d30           1032 	mov	r29,r6
                        1033 	jarl	_ucGetRadPosAtSlotPDIF,lp
                        1033 <EXPANSION BEGIN>
                        1033 jarl22 _ucGetRadPosAtSlotPDIF , lp 
00000264 80ff0000*      1033 <EXPANSION END>
00000268 fb51           1034 	cmp	r27,r10
                        1035 --line311
                        1036 ..lin.C.3A.5C_ECU2.5CECU_Rivian_A1.5CTarget.5Crepo_projects.5CpRealEcu.5CcR_LATEST.5Cmake.5Coutput.5Cobjects.5Cprocdat.49::
                        1037 .LDWlin49:
0000026a da05*          1038 	bne	.L1817
0000026c 1de0           1039 	mov	r29,r28
                        1040 .L1821:
                        1041 --line318
                        1042 ..lin.C.3A.5C_ECU2.5CECU_Rivian_A1.5CTarget.5Crepo_projects.5CpRealEcu.5CcR_LATEST.5Cmake.5Coutput.5Cobjects.5Cprocdat.50::
                        1043 .LDWlin50:
0000026e 1c50           1044 	mov	r28,r10
                        1045 --	    .ef
                        1046 .LDW95:
00000270 4006ff10       1047 	dispose	0,{r27,r28,r29,r31},[lp]
                        1048 .L1817:
                        1049 --line307
                        1050 ..lin.C.3A.5C_ECU2.5CECU_Rivian_A1.5CTarget.5Crepo_projects.5CpRealEcu.5CcR_LATEST.5Cmake.5Coutput.5Cobjects.5Cprocdat.51::
                        1051 .LDWlin51:
00000274 41ea           1052 	add	1,r29
00000276 64ea           1053 	cmp	4,r29
00000278 d1f5*          1054 	bl	.L1816
0000027a a5fd*          1055 	br	.L1821
                        1056 	.global	___ghs_eofn_ucGetSlotNoAtPosPD
                        1057 ___ghs_eofn_ucGetSlotNoAtPosPD:
                        1058 	.type	_ucGetSlotNoAtPosPD,@function
                        1059 	.size	_ucGetSlotNoAtPosPD,.-_ucGetSlotNoAtPosPD
                        1060 	.align	2
                        1061 --_ucLoop	r29	local
                        1062 --_ucRet	r28	local
                        1063 
                        1064 --_ucRadPos	r27	param
                        1065 
                        1066 	.section ".bss","awb"
                        1067 .L2470:
                        1068 	.type	.L2470,@object
                        1069 	.size	.L2470,0
                        1070 	.data
                        1071 	.text
                        1072 	.align	2
                        1073 	.align	2
                        1074 ..gh.f.f.1.e.25:
                        1075 	.type	..gh.f.f.1.e.25,@object
                        1076 	.size	..gh.f.f.1.e.25,0
                        1077 	.global	_ucGetValidTyrePressureRelAtPosPD
                        1078 _ucGetValidTyrePressureRelAtPosPD:
0000027c 80072100       1079 	prepare	{r31},0
00000280 8600           1080 	zxb	r6
                        1081 --	    .bf
                        1082 .LDW06:
                        1083 	jarl	_ucGetSlotNoAtPosPD,lp
                        1083 <EXPANSION BEGIN>
                        1083 jarl22 _ucGetSlotNoAtPosPD , lp 
00000282 bfffc8ff*      1083 <EXPANSION END>

                                                                      Page 20
                                                              C:\Users\nhuliyap\AppData\Local\Temp\gh_00006641.s
00000286 0af0           1084 	mov	r10,ep
                        1085 --line266
                        1086 ..lin.C.3A.5C_ECU2.5CECU_Rivian_A1.5CTarget.5Crepo_projects.5CpRealEcu.5CcR_LATEST.5Cmake.5Coutput.5Cobjects.5Cprocdat.52::
                        1087 .LDWlin52:
00000288 6452           1088 	cmp	4,r10
0000028a a90d*          1089 	bnl	.L2532
                        1090 --line267
                        1091 ..lin.C.3A.5C_ECU2.5CECU_Rivian_A1.5CTarget.5Crepo_projects.5CpRealEcu.5CcR_LATEST.5Cmake.5Coutput.5Cobjects.5Cprocdat.53::
                        1092 .LDWlin53:
0000028c 330600000000*  1093 	mov	_ucReifendruckPD,r19
00000292 d3f1           1094 	add	r19,ep
00000294 6090           1095 	sld.bu	0[ep],r18
00000296 120601ff       1096 	addi	-255,r18,zero
                        1097 --line271
                        1098 ..lin.C.3A.5C_ECU2.5CECU_Rivian_A1.5CTarget.5Crepo_projects.5CpRealEcu.5CcR_LATEST.5Cmake.5Coutput.5Cobjects.5Cprocdat.54::
                        1099 .LDWlin54:
0000029a 1250           1100 	mov	r18,r10
0000029c ba05*          1101 	bne	.L2530
                        1102 .L2532:
                        1103 --line275
                        1104 ..lin.C.3A.5C_ECU2.5CECU_Rivian_A1.5CTarget.5Crepo_projects.5CpRealEcu.5CcR_LATEST.5Cmake.5Coutput.5Cobjects.5Cprocdat.55::
                        1105 .LDWlin55:
0000029e 2056ff00       1106 	movea	255,zero,r10
                        1107 .L2530:
                        1108 --	    .ef
                        1109 .LDW16:
000002a2 40063f00       1110 	dispose	0,{r31},[lp]
                        1111 	.global	___ghs_eofn_ucGetValidTyrePressureRelAtPosPD
                        1112 ___ghs_eofn_ucGetValidTyrePressureRelAtPosPD:
                        1113 	.type	_ucGetValidTyrePressureRelAtPosPD,@function
                        1114 	.size	_ucGetValidTyrePressureRelAtPosPD,.-_ucGetValidTyrePressureRelAtPosPD
                        1115 	.align	2
                        1116 --_ucRet	r10	local
                        1117 --_ucZomPos	ep	local
                        1118 
                        1119 --_ucRadPos	r6	param
                        1120 
                        1121 	.data
                        1122 	.text
                        1123 	.align	2
                        1124 	.align	2
                        1125 ..gh.f.f.1.e.26:
                        1126 	.type	..gh.f.f.1.e.26,@object
                        1127 	.size	..gh.f.f.1.e.26,0
                        1128 	.global	_ucGetValidTemperatureRelAtPosPD
                        1129 _ucGetValidTemperatureRelAtPosPD:
000002a6 80072100       1130 	prepare	{r31},0
000002aa 8600           1131 	zxb	r6
                        1132 --	    .bf
                        1133 .LDW26:
                        1134 	jarl	_ucGetSlotNoAtPosPD,lp
                        1134 <EXPANSION BEGIN>
                        1134 jarl22 _ucGetSlotNoAtPosPD , lp 
000002ac bfff9eff*      1134 <EXPANSION END>
000002b0 0af0           1135 	mov	r10,ep
                        1136 --line286
                        1137 ..lin.C.3A.5C_ECU2.5CECU_Rivian_A1.5CTarget.5Crepo_projects.5CpRealEcu.5CcR_LATEST.5Cmake.5Coutput.5Cobjects.5Cprocdat.56::
                        1138 .LDWlin56:
000002b2 6452           1139 	cmp	4,r10
000002b4 e90d*          1140 	bnl	.L2648
                        1141 --line287

                                                                      Page 21
                                                              C:\Users\nhuliyap\AppData\Local\Temp\gh_00006641.s
                        1142 ..lin.C.3A.5C_ECU2.5CECU_Rivian_A1.5CTarget.5Crepo_projects.5CpRealEcu.5CcR_LATEST.5Cmake.5Coutput.5Cobjects.5Cprocdat.57::
                        1143 .LDWlin57:
000002b6 330600000000*  1144 	mov	_scTemperaturPD,r19
000002bc d3f1           1145 	add	r19,ep
000002be 004b           1146 	sld.b	0[ep],r9
000002c0 090681ff       1147 	addi	-127,r9,zero
000002c4 e205*          1148 	be	.L2648
                        1149 --line291
                        1150 ..lin.C.3A.5C_ECU2.5CECU_Rivian_A1.5CTarget.5Crepo_projects.5CpRealEcu.5CcR_LATEST.5Cmake.5Coutput.5Cobjects.5Cprocdat.58::
                        1151 .LDWlin58:
000002c6 09563200       1152 	addi	50,r9,r10
000002ca 8a00           1153 	zxb	r10
000002cc 40063f00       1154 	dispose	0,{r31},[lp]
                        1155 .L2648:
                        1156 --line295
                        1157 ..lin.C.3A.5C_ECU2.5CECU_Rivian_A1.5CTarget.5Crepo_projects.5CpRealEcu.5CcR_LATEST.5Cmake.5Coutput.5Cobjects.5Cprocdat.59::
                        1158 .LDWlin59:
000002d0 2056ff00       1159 	movea	255,zero,r10
                        1160 --	    .ef
                        1161 .LDW36:
000002d4 40063f00       1162 	dispose	0,{r31},[lp]
                        1163 	.global	___ghs_eofn_ucGetValidTemperatureRelAtPosPD
                        1164 ___ghs_eofn_ucGetValidTemperatureRelAtPosPD:
                        1165 	.type	_ucGetValidTemperatureRelAtPosPD,@function
                        1166 	.size	_ucGetValidTemperatureRelAtPosPD,.-_ucGetValidTemperatureRelAtPosPD
                        1167 	.align	2
                        1168 --_ucRet	r10	local
                        1169 --_ucZomPos	ep	local
                        1170 
                        1171 --_ucRadPos	r6	param
                        1172 
                        1173 	.data
                        1174 	.text
                        1175 	.align	2
                        1176 	.align	2
                        1177 ..gh.f.f.1.e.27:
                        1178 	.type	..gh.f.f.1.e.27,@object
                        1179 	.size	..gh.f.f.1.e.27,0
                        1180 	.global	_ReadReDataFromRingBuffer_iBTCM
                        1181 _ReadReDataFromRingBuffer_iBTCM:
000002d8 8007e130       1182 	prepare	{r26,r27,r28,r29,r31},0
000002dc 06e0           1183 	mov	r6,r28
000002de 3d0600000000*  1184 	mov	_ucRecEventPD-3,r29
                        1185 --	    .bf
                        1186 .LDW46:
                        1187 --line328
                        1188 ..lin.C.3A.5C_ECU2.5CECU_Rivian_A1.5CTarget.5Crepo_projects.5CpRealEcu.5CcR_LATEST.5Cmake.5Coutput.5Cobjects.5Cprocdat.60::
                        1189 .LDWlin60:
000002e4 86df0900       1190 	ld.bu	8[r6],r27
000002e8 01d2           1191 	mov	1,r26
000002ea 1b30           1192 	mov	r27,r6
                        1193 	jarl	_ucTelOfInterest,lp
                        1193 <EXPANSION BEGIN>
                        1193 jarl22 _ucTelOfInterest , lp 
000002ec 80ff0000*      1193 <EXPANSION END>
000002f0 e051           1194 	cmp	zero,r10
000002f2 e2076301*      1195 	be	.L2762
                        1196 --line331
                        1197 ..lin.C.3A.5C_ECU2.5CECU_Rivian_A1.5CTarget.5Crepo_projects.5CpRealEcu.5CcR_LATEST.5Cmake.5Coutput.5Cobjects.5Cprocdat.61::
                        1198 .LDWlin61:
000002f6 1cf0           1199 	mov	r28,ep

                                                                      Page 22
                                                              C:\Users\nhuliyap\AppData\Local\Temp\gh_00006641.s
000002f8 004d           1200 	sld.w	0[ep],r9
000002fa 1b067dff       1201 	addi	-131,r27,zero
000002fe 7d4f1d00       1202 	st.w	r9,28[r29]
00000302 6440           1203 	sld.bu	4[ep],r8
00000304 5d471800       1204 	st.b	r8,24[r29]
00000308 f135*          1205 	bl	.L2886
0000030a e0d9           1206 	cmp	zero,r27
0000030c 9245*          1207 	be	.L2770
0000030e 63da           1208 	cmp	3,r27
00000310 d275*          1209 	be	.L2771
00000312 1b06e0ff       1210 	addi	-32,r27,zero
00000316 c23d*          1211 	be	.L2770
00000318 1b0680ff       1212 	addi	-128,r27,zero
0000031c ea073901*      1213 	bne	.L2762
                        1214 --line384
                        1215 ..lin.C.3A.5C_ECU2.5CECU_Rivian_A1.5CTarget.5Crepo_projects.5CpRealEcu.5CcR_LATEST.5Cmake.5Coutput.5Cobjects.5Cprocdat.62::
                        1216 .LDWlin62:
00000320 1df0           1217 	mov	r29,ep
00000322 8adb           1218 	sst.b	r27,10[ep]
00000324 bc4f0900       1219 	ld.bu	9[r28],r9
00000328 00d2           1220 	mov	0,r26
0000032a 8b4b           1221 	sst.b	r9,11[ep]
0000032c 9c470b00       1222 	ld.bu	10[r28],r8
00000330 8c43           1223 	sst.b	r8,12[ep]
00000332 bc3f0b00       1224 	ld.bu	11[r28],r7
00000336 8d3b           1225 	sst.b	r7,13[ep]
00000338 9c370d00       1226 	ld.bu	12[r28],r6
0000033c 8e33           1227 	sst.b	r6,14[ep]
0000033e bc9f0d00       1228 	ld.bu	13[r28],r19
00000342 8f9b           1229 	sst.b	r19,15[ep]
00000344 9c970f00       1230 	ld.bu	14[r28],r18
00000348 9093           1231 	sst.b	r18,16[ep]
0000034a bc8f0f00       1232 	ld.bu	15[r28],r17
0000034e 918b           1233 	sst.b	r17,17[ep]
00000350 9c871100       1234 	ld.bu	16[r28],r16
00000354 9283           1235 	sst.b	r16,18[ep]
00000356 bc7f1100       1236 	ld.bu	17[r28],r15
0000035a 937b           1237 	sst.b	r15,19[ep]
0000035c 9c771300       1238 	ld.bu	18[r28],r14
00000360 9473           1239 	sst.b	r14,20[ep]
00000362 bc6f1300       1240 	ld.bu	19[r28],r13
00000366 956b           1241 	sst.b	r13,21[ep]
00000368 9c671500       1242 	ld.bu	20[r28],r12
0000036c 9663           1243 	sst.b	r12,22[ep]
0000036e bc5f1500       1244 	ld.bu	21[r28],r11
00000372 975b           1245 	sst.b	r11,23[ep]
00000374 c565*          1246 	br	.L2776
                        1247 .L2886:
00000376 1b067dff       1248 	addi	-131,r27,zero
0000037a a225*          1249 	be	.L2769
0000037c 1b0670ff       1250 	addi	-144,r27,zero
00000380 f205*          1251 	be	.L2770
00000382 1b065dff       1252 	addi	-163,r27,zero
00000386 c21d*          1253 	be	.L2769
00000388 1b0619ff       1254 	addi	-231,r27,zero
0000038c ca65*          1255 	bne	.L2762
                        1256 .L2770:
                        1257 --line360
                        1258 ..lin.C.3A.5C_ECU2.5CECU_Rivian_A1.5CTarget.5Crepo_projects.5CpRealEcu.5CcR_LATEST.5Cmake.5Coutput.5Cobjects.5Cprocdat.63::
                        1259 .LDWlin63:
0000038e 1df0           1260 	mov	r29,ep

                                                                      Page 23
                                                              C:\Users\nhuliyap\AppData\Local\Temp\gh_00006641.s
00000390 8adb           1261 	sst.b	r27,10[ep]
00000392 bc670900       1262 	ld.bu	9[r28],r12
00000396 8b63           1263 	sst.b	r12,11[ep]
00000398 9c5f0b00       1264 	ld.bu	10[r28],r11
0000039c 8c5b           1265 	sst.b	r11,12[ep]
0000039e bc570b00       1266 	ld.bu	11[r28],r10
000003a2 8d53           1267 	sst.b	r10,13[ep]
000003a4 9c4f0d00       1268 	ld.bu	12[r28],r9
000003a8 8e4b           1269 	sst.b	r9,14[ep]
000003aa bc470d00       1270 	ld.bu	13[r28],r8
000003ae 8f43           1271 	sst.b	r8,15[ep]
000003b0 9c3f0f00       1272 	ld.bu	14[r28],r7
000003b4 903b           1273 	sst.b	r7,16[ep]
000003b6 bc370f00       1274 	ld.bu	15[r28],r6
000003ba 9133           1275 	sst.b	r6,17[ep]
000003bc 8545*          1276 	br	.L2776
                        1277 .L2769:
                        1278 --line348
                        1279 ..lin.C.3A.5C_ECU2.5CECU_Rivian_A1.5CTarget.5Crepo_projects.5CpRealEcu.5CcR_LATEST.5Cmake.5Coutput.5Cobjects.5Cprocdat.64::
                        1280 .LDWlin64:
000003be 1df0           1281 	mov	r29,ep
000003c0 8adb           1282 	sst.b	r27,10[ep]
000003c2 bc3f0900       1283 	ld.bu	9[r28],r7
000003c6 8b3b           1284 	sst.b	r7,11[ep]
000003c8 9c370b00       1285 	ld.bu	10[r28],r6
000003cc 8c33           1286 	sst.b	r6,12[ep]
000003ce bc9f0b00       1287 	ld.bu	11[r28],r19
000003d2 8d9b           1288 	sst.b	r19,13[ep]
000003d4 9c970d00       1289 	ld.bu	12[r28],r18
000003d8 8e93           1290 	sst.b	r18,14[ep]
000003da bc8f0d00       1291 	ld.bu	13[r28],r17
000003de 8f8b           1292 	sst.b	r17,15[ep]
000003e0 9c870f00       1293 	ld.bu	14[r28],r16
000003e4 9083           1294 	sst.b	r16,16[ep]
000003e6 bc7f0f00       1295 	ld.bu	15[r28],r15
000003ea 917b           1296 	sst.b	r15,17[ep]
000003ec 9c771100       1297 	ld.bu	16[r28],r14
000003f0 9273           1298 	sst.b	r14,18[ep]
000003f2 bc6f1100       1299 	ld.bu	17[r28],r13
000003f6 936b           1300 	sst.b	r13,19[ep]
000003f8 a525*          1301 	br	.L2776
                        1302 .L2771:
                        1303 --line370
                        1304 ..lin.C.3A.5C_ECU2.5CECU_Rivian_A1.5CTarget.5Crepo_projects.5CpRealEcu.5CcR_LATEST.5Cmake.5Coutput.5Cobjects.5Cprocdat.65::
                        1305 .LDWlin65:
000003fa 1df0           1306 	mov	r29,ep
000003fc 8adb           1307 	sst.b	r27,10[ep]
000003fe bc9f0900       1308 	ld.bu	9[r28],r19
00000402 00d2           1309 	mov	0,r26
00000404 8b9b           1310 	sst.b	r19,11[ep]
00000406 9c970b00       1311 	ld.bu	10[r28],r18
0000040a 8c93           1312 	sst.b	r18,12[ep]
0000040c bc8f0b00       1313 	ld.bu	11[r28],r17
00000410 8d8b           1314 	sst.b	r17,13[ep]
00000412 9c870d00       1315 	ld.bu	12[r28],r16
00000416 8e83           1316 	sst.b	r16,14[ep]
00000418 bc7f0d00       1317 	ld.bu	13[r28],r15
0000041c 8f7b           1318 	sst.b	r15,15[ep]
0000041e 9c770f00       1319 	ld.bu	14[r28],r14
00000422 9073           1320 	sst.b	r14,16[ep]
00000424 bc6f0f00       1321 	ld.bu	15[r28],r13

                                                                      Page 24
                                                              C:\Users\nhuliyap\AppData\Local\Temp\gh_00006641.s
00000428 916b           1322 	sst.b	r13,17[ep]
0000042a 9c671100       1323 	ld.bu	16[r28],r12
0000042e 9263           1324 	sst.b	r12,18[ep]
00000430 bc5f1100       1325 	ld.bu	17[r28],r11
00000434 935b           1326 	sst.b	r11,19[ep]
00000436 9c571300       1327 	ld.bu	18[r28],r10
0000043a 9453           1328 	sst.b	r10,20[ep]
                        1329 .L2776:
0000043c 3e0600000000*  1330 	mov	_ucRecEventPD,ep
00000442 6088           1331 	sld.bu	0[ep],r17
00000444 418a           1332 	add	1,r17
00000446 808b           1333 	sst.b	r17,0[ep]
                        1334 --line410
                        1335 ..lin.C.3A.5C_ECU2.5CECU_Rivian_A1.5CTarget.5Crepo_projects.5CpRealEcu.5CcR_LATEST.5Cmake.5Coutput.5Cobjects.5Cprocdat.66::
                        1336 .LDWlin66:
00000448 61d2           1337 	cmp	1,r26
0000044a ba05*          1338 	bne	.L2777
                        1339 --line411
                        1340 ..lin.C.3A.5C_ECU2.5CECU_Rivian_A1.5CTarget.5Crepo_projects.5CpRealEcu.5CcR_LATEST.5Cmake.5Coutput.5Cobjects.5Cprocdat.67::
                        1341 .LDWlin67:
                        1342 	jarl	_EvReDataSM,lp
                        1342 <EXPANSION BEGIN>
                        1342 jarl22 _EvReDataSM , lp 
0000044c 80ff0000*      1342 <EXPANSION END>
                        1343 .L2777:
                        1344 --line413
                        1345 ..lin.C.3A.5C_ECU2.5CECU_Rivian_A1.5CTarget.5Crepo_projects.5CpRealEcu.5CcR_LATEST.5Cmake.5Coutput.5Cobjects.5Cprocdat.68::
                        1346 .LDWlin68:
                        1347 	jarl	_DCM_EventDataUpdateOnRx,lp
                        1347 <EXPANSION BEGIN>
                        1347 jarl22 _DCM_EventDataUpdateOnRx , lp 
00000450 80ff0000*      1347 <EXPANSION END>
                        1348 .L2762:
                        1349 --	    .ef
                        1350 .LDW56:
                        1351 --line415
                        1352 ..lin.C.3A.5C_ECU2.5CECU_Rivian_A1.5CTarget.5Crepo_projects.5CpRealEcu.5CcR_LATEST.5Cmake.5Coutput.5Cobjects.5Cprocdat.69::
                        1353 .LDWlin69:
00000454 4006ff30       1354 	dispose	0,{r26,r27,r28,r29,r31},[lp]
                        1355 	.global	___ghs_eofn_ReadReDataFromRingBuffer_iBTCM
                        1356 ___ghs_eofn_ReadReDataFromRingBuffer_iBTCM:
                        1357 	.type	_ReadReDataFromRingBuffer_iBTCM,@function
                        1358 	.size	_ReadReDataFromRingBuffer_iBTCM,.-_ReadReDataFromRingBuffer_iBTCM
                        1359 	.align	2
                        1360 --_l_bAnalyseTelegram	r26	local
                        1361 --_l_ucTelType	r27	local
                        1362 
                        1363 --_spRxDataIn	r28	param
                        1364 
                        1365 	.data
                        1366 	.text
                        1367 	.align	2
                        1368 	.align	2
                        1369 ..gh.f.f.1.e.28:
                        1370 	.type	..gh.f.f.1.e.28,@object
                        1371 	.size	..gh.f.f.1.e.28,0
                        1372 	.global	_RSSIBalancePD
                        1373 _RSSIBalancePD:
00000458 8600           1374 	zxb	r6
0000045a 3e0600000000*  1375 	mov	_tReDataPD+16,ep
                        1376 --	    .bf

                                                                      Page 25
                                                              C:\Users\nhuliyap\AppData\Local\Temp\gh_00006641.s
                        1377 .LDW66:
                        1378 --line419
                        1379 ..lin.C.3A.5C_ECU2.5CECU_Rivian_A1.5CTarget.5Crepo_projects.5CpRealEcu.5CcR_LATEST.5Cmake.5Coutput.5Cobjects.5Cprocdat.70::
                        1380 .LDWlin70:
00000460 6080           1381 	sld.bu	0[ep],r16
00000462 1088           1382 	mov	r16,r17
00000464 a689           1383 	sub	r6,r17
00000466 9100           1384 	zxb	r17
00000468 e681           1385 	cmp	r6,r16
0000046a e08f068b       1386 	cmovnh	0,r17,r17
0000046e 808b           1387 	sst.b	r17,0[ep]
                        1388 --	    .ef
                        1389 .LDW76:
00000470 7f00           1390 	jmp	[lp]
                        1391 	.global	___ghs_eofn_RSSIBalancePD
                        1392 ___ghs_eofn_RSSIBalancePD:
                        1393 	.type	_RSSIBalancePD,@function
                        1394 	.size	_RSSIBalancePD,.-_RSSIBalancePD
                        1395 	.align	2
                        1396 
                        1397 --_ucOffsetVal	r6	param
                        1398 
                        1399 	.data
                        1400 	.text
                        1401 	.align	2
                        1402 	.align	2
                        1403 ..gh.f.f.1.e.29:
                        1404 	.type	..gh.f.f.1.e.29,@object
                        1405 	.size	..gh.f.f.1.e.29,0
                        1406 	.global	_ClearReDataInSlotPD
                        1407 _ClearReDataInSlotPD:
00000472 8600           1408 	zxb	r6
00000474 320600000000*  1409 	mov	_ushSensorDefectPD,r18
                        1410 --	    .bf
                        1411 .LDW86:
                        1412 --line429
                        1413 ..lin.C.3A.5C_ECU2.5CECU_Rivian_A1.5CTarget.5Crepo_projects.5CpRealEcu.5CcR_LATEST.5Cmake.5Coutput.5Cobjects.5Cprocdat.71::
                        1414 .LDWlin71:
0000047a 06f0           1415 	mov	r6,ep
0000047c d2f1           1416 	add	r18,ep
0000047e 1f9a           1417 	mov	-1,r19
00000480 207e7f00       1418 	movea	127,zero,r15
00000484 0f6a           1419 	mov	15,r13
00000486 889b           1420 	sst.b	r19,8[ep]
00000488 8c7b           1421 	sst.b	r15,12[ep]
0000048a 906b           1422 	sst.b	r13,16[ep]
0000048c 9403           1423 	sst.b	zero,20[ep]
0000048e 989b           1424 	sst.b	r19,24[ep]
00000490 9c03           1425 	sst.b	zero,28[ep]
00000492 06f0           1426 	mov	r6,ep
00000494 c1f2           1427 	shl	1,ep
00000496 d2f1           1428 	add	r18,ep
00000498 8004           1429 	sst.h	zero,0[ep]
                        1430 --	    .ef
                        1431 .LDW96:
0000049a 7f00           1432 	jmp	[lp]
                        1433 	.global	___ghs_eofn_ClearReDataInSlotPD
                        1434 ___ghs_eofn_ClearReDataInSlotPD:
                        1435 	.type	_ClearReDataInSlotPD,@function
                        1436 	.size	_ClearReDataInSlotPD,.-_ClearReDataInSlotPD
                        1437 	.align	2

                                                                      Page 26
                                                              C:\Users\nhuliyap\AppData\Local\Temp\gh_00006641.s
                        1438 
                        1439 --_ucZomSlot	r6	param
                        1440 
                        1441 	.data
                        1442 	.text
                        1443 	.align	2
                        1444 	.align	2
                        1445 ..gh.f.f.1.e.30:
                        1446 	.type	..gh.f.f.1.e.30,@object
                        1447 	.size	..gh.f.f.1.e.30,0
                        1448 	.global	_GETucReifendruckPD
                        1449 _GETucReifendruckPD:
0000049c 06f0           1450 	mov	r6,ep
0000049e 9e00           1451 	zxb	ep
                        1452 --	    .bf
                        1453 .LDW07:
000004a0 330600000000*  1454 	mov	_ucReifendruckPD,r19
000004a6 d3f1           1455 	add	r19,ep
000004a8 6050           1456 	sld.bu	0[ep],r10
                        1457 --	    .ef
                        1458 .LDW17:
                        1459 --line439
                        1460 ..lin.C.3A.5C_ECU2.5CECU_Rivian_A1.5CTarget.5Crepo_projects.5CpRealEcu.5CcR_LATEST.5Cmake.5Coutput.5Cobjects.5Cprocdat.72::
                        1461 .LDWlin72:
000004aa 7f00           1462 	jmp	[lp]
                        1463 	.global	___ghs_eofn_GETucReifendruckPD
                        1464 ___ghs_eofn_GETucReifendruckPD:
                        1465 	.type	_GETucReifendruckPD,@function
                        1466 	.size	_GETucReifendruckPD,.-_GETucReifendruckPD
                        1467 	.align	2
                        1468 
                        1469 --_ucZomSlot	r6	param
                        1470 
                        1471 	.data
                        1472 	.text
                        1473 	.align	2
                        1474 	.align	2
                        1475 ..gh.f.f.1.e.31:
                        1476 	.type	..gh.f.f.1.e.31,@object
                        1477 	.size	..gh.f.f.1.e.31,0
                        1478 	.global	_PUTucReifendruckPD
                        1479 _PUTucReifendruckPD:
000004ac 80077b000000*  1480 	prepare	{r29,r31},0,_ucReifendruckPD
000004b2 0000*
000004b4 06e8           1481 	mov	r6,r29
000004b6 9d00           1482 	zxb	r29
000004b8 c736ff00       1483 	andi	255,r7,r6
                        1484 --	    .bf
                        1485 .LDW27:
000004bc c6f1           1486 	add	r6,ep
000004be 80eb           1487 	sst.b	r29,0[ep]
                        1488 	jarl	_ucGetWPOfCol,lp
                        1488 <EXPANSION BEGIN>
                        1488 jarl22 _ucGetWPOfCol , lp 
000004c0 80ff0000*      1488 <EXPANSION END>
                        1489 --line450
                        1490 ..lin.C.3A.5C_ECU2.5CECU_Rivian_A1.5CTarget.5Crepo_projects.5CpRealEcu.5CcR_LATEST.5Cmake.5Coutput.5Cobjects.5Cprocdat.73::
                        1491 .LDWlin73:
000004c4 6152           1492 	cmp	1,r10
000004c6 a10d*          1493 	bl	.L3241
000004c8 e20d*          1494 	be	.L3242

                                                                      Page 27
                                                              C:\Users\nhuliyap\AppData\Local\Temp\gh_00006641.s
000004ca 6352           1495 	cmp	3,r10
000004cc 9115*          1496 	bl	.L3243
000004ce ba15*          1497 	bne	.L3237
                        1498 --line464
                        1499 ..lin.C.3A.5C_ECU2.5CECU_Rivian_A1.5CTarget.5Crepo_projects.5CpRealEcu.5CcR_LATEST.5Cmake.5Coutput.5Cobjects.5Cprocdat.74::
                        1500 .LDWlin74:
000004d0 1d30           1501 	mov	r29,r6
                        1502 	jarl	_NvM_WriteData_PressureRR,lp
                        1502 <EXPANSION BEGIN>
                        1502 jarl22 _NvM_WriteData_PressureRR , lp 
000004d2 80ff0000*      1502 <EXPANSION END>
                        1503 --line466
                        1504 ..lin.C.3A.5C_ECU2.5CECU_Rivian_A1.5CTarget.5Crepo_projects.5CpRealEcu.5CcR_LATEST.5Cmake.5Coutput.5Cobjects.5Cprocdat.75::
                        1505 .LDWlin75:
000004d6 40067f00       1506 	dispose	0,{r29,r31},[lp]
                        1507 .L3241:
                        1508 --line452
                        1509 ..lin.C.3A.5C_ECU2.5CECU_Rivian_A1.5CTarget.5Crepo_projects.5CpRealEcu.5CcR_LATEST.5Cmake.5Coutput.5Cobjects.5Cprocdat.76::
                        1510 .LDWlin76:
000004da 1d30           1511 	mov	r29,r6
                        1512 	jarl	_NvM_WriteData_PressureFL,lp
                        1512 <EXPANSION BEGIN>
                        1512 jarl22 _NvM_WriteData_PressureFL , lp 
000004dc 80ff0000*      1512 <EXPANSION END>
                        1513 --line454
                        1514 ..lin.C.3A.5C_ECU2.5CECU_Rivian_A1.5CTarget.5Crepo_projects.5CpRealEcu.5CcR_LATEST.5Cmake.5Coutput.5Cobjects.5Cprocdat.77::
                        1515 .LDWlin77:
000004e0 40067f00       1516 	dispose	0,{r29,r31},[lp]
                        1517 .L3242:
                        1518 --line456
                        1519 ..lin.C.3A.5C_ECU2.5CECU_Rivian_A1.5CTarget.5Crepo_projects.5CpRealEcu.5CcR_LATEST.5Cmake.5Coutput.5Cobjects.5Cprocdat.78::
                        1520 .LDWlin78:
000004e4 1d30           1521 	mov	r29,r6
                        1522 	jarl	_NvM_WriteData_PressureFR,lp
                        1522 <EXPANSION BEGIN>
                        1522 jarl22 _NvM_WriteData_PressureFR , lp 
000004e6 80ff0000*      1522 <EXPANSION END>
                        1523 --line458
                        1524 ..lin.C.3A.5C_ECU2.5CECU_Rivian_A1.5CTarget.5Crepo_projects.5CpRealEcu.5CcR_LATEST.5Cmake.5Coutput.5Cobjects.5Cprocdat.79::
                        1525 .LDWlin79:
000004ea 40067f00       1526 	dispose	0,{r29,r31},[lp]
                        1527 .L3243:
                        1528 --line460
                        1529 ..lin.C.3A.5C_ECU2.5CECU_Rivian_A1.5CTarget.5Crepo_projects.5CpRealEcu.5CcR_LATEST.5Cmake.5Coutput.5Cobjects.5Cprocdat.80::
                        1530 .LDWlin80:
000004ee 1d30           1531 	mov	r29,r6
                        1532 	jarl	_NvM_WriteData_PressureRL,lp
                        1532 <EXPANSION BEGIN>
                        1532 jarl22 _NvM_WriteData_PressureRL , lp 
000004f0 80ff0000*      1532 <EXPANSION END>
                        1533 .L3237:
                        1534 --	    .ef
                        1535 .LDW37:
                        1536 --line470
                        1537 ..lin.C.3A.5C_ECU2.5CECU_Rivian_A1.5CTarget.5Crepo_projects.5CpRealEcu.5CcR_LATEST.5Cmake.5Coutput.5Cobjects.5Cprocdat.81::
                        1538 .LDWlin81:
000004f4 40067f00       1539 	dispose	0,{r29,r31},[lp]
                        1540 	.global	___ghs_eofn_PUTucReifendruckPD
                        1541 ___ghs_eofn_PUTucReifendruckPD:
                        1542 	.type	_PUTucReifendruckPD,@function
                        1543 	.size	_PUTucReifendruckPD,.-_PUTucReifendruckPD

                                                                      Page 28
                                                              C:\Users\nhuliyap\AppData\Local\Temp\gh_00006641.s
                        1544 	.align	2
                        1545 
                        1546 --_ucInData	r29	param
                        1547 --_ucZomSlot	r7	param
                        1548 
                        1549 	.data
                        1550 	.text
                        1551 	.align	2
                        1552 	.align	2
                        1553 ..gh.f.f.1.e.32:
                        1554 	.type	..gh.f.f.1.e.32,@object
                        1555 	.size	..gh.f.f.1.e.32,0
                        1556 	.global	_GETscTemperaturPD
                        1557 _GETscTemperaturPD:
000004f8 06f0           1558 	mov	r6,ep
000004fa 9e00           1559 	zxb	ep
                        1560 --	    .bf
                        1561 .LDW47:
000004fc 330600000000*  1562 	mov	_scTemperaturPD,r19
00000502 d3f1           1563 	add	r19,ep
00000504 0053           1564 	sld.b	0[ep],r10
                        1565 --	    .ef
                        1566 .LDW57:
                        1567 --line473
                        1568 ..lin.C.3A.5C_ECU2.5CECU_Rivian_A1.5CTarget.5Crepo_projects.5CpRealEcu.5CcR_LATEST.5Cmake.5Coutput.5Cobjects.5Cprocdat.82::
                        1569 .LDWlin82:
00000506 7f00           1570 	jmp	[lp]
                        1571 	.global	___ghs_eofn_GETscTemperaturPD
                        1572 ___ghs_eofn_GETscTemperaturPD:
                        1573 	.type	_GETscTemperaturPD,@function
                        1574 	.size	_GETscTemperaturPD,.-_GETscTemperaturPD
                        1575 	.align	2
                        1576 
                        1577 --_ucZomSlot	r6	param
                        1578 
                        1579 	.data
                        1580 	.text
                        1581 	.align	2
                        1582 	.align	2
                        1583 ..gh.f.f.1.e.33:
                        1584 	.type	..gh.f.f.1.e.33,@object
                        1585 	.size	..gh.f.f.1.e.33,0
                        1586 	.global	_PUTscTemperaturPD
                        1587 _PUTscTemperaturPD:
00000508 80077b000000*  1588 	prepare	{r29,r31},0,_scTemperaturPD
0000050e 0000*
00000510 06e8           1589 	mov	r6,r29
00000512 0730           1590 	mov	r7,r6
00000514 8600           1591 	zxb	r6
                        1592 --	    .bf
                        1593 .LDW67:
00000516 c6f1           1594 	add	r6,ep
00000518 80eb           1595 	sst.b	r29,0[ep]
                        1596 	jarl	_ucGetWPOfCol,lp
                        1596 <EXPANSION BEGIN>
                        1596 jarl22 _ucGetWPOfCol , lp 
0000051a 80ff0000*      1596 <EXPANSION END>
                        1597 --line484
                        1598 ..lin.C.3A.5C_ECU2.5CECU_Rivian_A1.5CTarget.5Crepo_projects.5CpRealEcu.5CcR_LATEST.5Cmake.5Coutput.5Cobjects.5Cprocdat.83::
                        1599 .LDWlin83:
0000051e 6152           1600 	cmp	1,r10

                                                                      Page 29
                                                              C:\Users\nhuliyap\AppData\Local\Temp\gh_00006641.s
00000520 b10d*          1601 	bl	.L3417
00000522 8215*          1602 	be	.L3418
00000524 6352           1603 	cmp	3,r10
00000526 c115*          1604 	bl	.L3419
00000528 fa15*          1605 	bne	.L3413
                        1606 --line498
                        1607 ..lin.C.3A.5C_ECU2.5CECU_Rivian_A1.5CTarget.5Crepo_projects.5CpRealEcu.5CcR_LATEST.5Cmake.5Coutput.5Cobjects.5Cprocdat.84::
                        1608 .LDWlin84:
0000052a 1d30           1609 	mov	r29,r6
0000052c 8600           1610 	zxb	r6
                        1611 	jarl	_NvM_WriteData_TemperatureRR,lp
                        1611 <EXPANSION BEGIN>
                        1611 jarl22 _NvM_WriteData_TemperatureRR , lp 
0000052e 80ff0000*      1611 <EXPANSION END>
                        1612 --line500
                        1613 ..lin.C.3A.5C_ECU2.5CECU_Rivian_A1.5CTarget.5Crepo_projects.5CpRealEcu.5CcR_LATEST.5Cmake.5Coutput.5Cobjects.5Cprocdat.85::
                        1614 .LDWlin85:
00000532 40067f00       1615 	dispose	0,{r29,r31},[lp]
                        1616 .L3417:
                        1617 --line486
                        1618 ..lin.C.3A.5C_ECU2.5CECU_Rivian_A1.5CTarget.5Crepo_projects.5CpRealEcu.5CcR_LATEST.5Cmake.5Coutput.5Cobjects.5Cprocdat.86::
                        1619 .LDWlin86:
00000536 1d30           1620 	mov	r29,r6
00000538 8600           1621 	zxb	r6
                        1622 	jarl	_NvM_WriteData_TemperatureFL,lp
                        1622 <EXPANSION BEGIN>
                        1622 jarl22 _NvM_WriteData_TemperatureFL , lp 
0000053a 80ff0000*      1622 <EXPANSION END>
                        1623 --line488
                        1624 ..lin.C.3A.5C_ECU2.5CECU_Rivian_A1.5CTarget.5Crepo_projects.5CpRealEcu.5CcR_LATEST.5Cmake.5Coutput.5Cobjects.5Cprocdat.87::
                        1625 .LDWlin87:
0000053e 40067f00       1626 	dispose	0,{r29,r31},[lp]
                        1627 .L3418:
                        1628 --line490
                        1629 ..lin.C.3A.5C_ECU2.5CECU_Rivian_A1.5CTarget.5Crepo_projects.5CpRealEcu.5CcR_LATEST.5Cmake.5Coutput.5Cobjects.5Cprocdat.88::
                        1630 .LDWlin88:
00000542 1d30           1631 	mov	r29,r6
00000544 8600           1632 	zxb	r6
                        1633 	jarl	_NvM_WriteData_TemperatureFR,lp
                        1633 <EXPANSION BEGIN>
                        1633 jarl22 _NvM_WriteData_TemperatureFR , lp 
00000546 80ff0000*      1633 <EXPANSION END>
                        1634 --line492
                        1635 ..lin.C.3A.5C_ECU2.5CECU_Rivian_A1.5CTarget.5Crepo_projects.5CpRealEcu.5CcR_LATEST.5Cmake.5Coutput.5Cobjects.5Cprocdat.89::
                        1636 .LDWlin89:
0000054a 40067f00       1637 	dispose	0,{r29,r31},[lp]
                        1638 .L3419:
                        1639 --line494
                        1640 ..lin.C.3A.5C_ECU2.5CECU_Rivian_A1.5CTarget.5Crepo_projects.5CpRealEcu.5CcR_LATEST.5Cmake.5Coutput.5Cobjects.5Cprocdat.90::
                        1641 .LDWlin90:
0000054e 1d30           1642 	mov	r29,r6
00000550 8600           1643 	zxb	r6
                        1644 	jarl	_NvM_WriteData_TemperatureRL,lp
                        1644 <EXPANSION BEGIN>
                        1644 jarl22 _NvM_WriteData_TemperatureRL , lp 
00000552 80ff0000*      1644 <EXPANSION END>
                        1645 .L3413:
                        1646 --	    .ef
                        1647 .LDW77:
                        1648 --line504
                        1649 ..lin.C.3A.5C_ECU2.5CECU_Rivian_A1.5CTarget.5Crepo_projects.5CpRealEcu.5CcR_LATEST.5Cmake.5Coutput.5Cobjects.5Cprocdat.91::

                                                                      Page 30
                                                              C:\Users\nhuliyap\AppData\Local\Temp\gh_00006641.s
                        1650 .LDWlin91:
00000556 40067f00       1651 	dispose	0,{r29,r31},[lp]
                        1652 	.global	___ghs_eofn_PUTscTemperaturPD
                        1653 ___ghs_eofn_PUTscTemperaturPD:
                        1654 	.type	_PUTscTemperaturPD,@function
                        1655 	.size	_PUTscTemperaturPD,.-_PUTscTemperaturPD
                        1656 	.align	2
                        1657 
                        1658 --_scInData	r29	param
                        1659 --_ucZomSlot	r7	param
                        1660 
                        1661 	.data
                        1662 	.text
                        1663 	.align	2
                        1664 	.align	2
                        1665 ..gh.f.f.1.e.34:
                        1666 	.type	..gh.f.f.1.e.34,@object
                        1667 	.size	..gh.f.f.1.e.34,0
                        1668 	.global	_GETucRestlebensdauerPD
                        1669 _GETucRestlebensdauerPD:
0000055a 06f0           1670 	mov	r6,ep
0000055c 9e00           1671 	zxb	ep
                        1672 --	    .bf
                        1673 .LDW87:
0000055e 330600000000*  1674 	mov	_ucRestlebensdauerPD,r19
00000564 d3f1           1675 	add	r19,ep
00000566 6050           1676 	sld.bu	0[ep],r10
                        1677 --	    .ef
                        1678 .LDW97:
                        1679 --line507
                        1680 ..lin.C.3A.5C_ECU2.5CECU_Rivian_A1.5CTarget.5Crepo_projects.5CpRealEcu.5CcR_LATEST.5Cmake.5Coutput.5Cobjects.5Cprocdat.92::
                        1681 .LDWlin92:
00000568 7f00           1682 	jmp	[lp]
                        1683 	.global	___ghs_eofn_GETucRestlebensdauerPD
                        1684 ___ghs_eofn_GETucRestlebensdauerPD:
                        1685 	.type	_GETucRestlebensdauerPD,@function
                        1686 	.size	_GETucRestlebensdauerPD,.-_GETucRestlebensdauerPD
                        1687 	.align	2
                        1688 
                        1689 --_ucZomSlot	r6	param
                        1690 
                        1691 	.data
                        1692 	.text
                        1693 	.align	2
                        1694 	.align	2
                        1695 ..gh.f.f.1.e.35:
                        1696 	.type	..gh.f.f.1.e.35,@object
                        1697 	.size	..gh.f.f.1.e.35,0
                        1698 	.global	_PUTucRestlebensdauerPD
                        1699 _PUTucRestlebensdauerPD:
0000056a 07f0           1700 	mov	r7,ep
0000056c 9e00           1701 	zxb	ep
                        1702 --	    .bf
                        1703 .LDW08:
0000056e 330600000000*  1704 	mov	_ucRestlebensdauerPD,r19
00000574 d3f1           1705 	add	r19,ep
00000576 8033           1706 	sst.b	r6,0[ep]
                        1707 --	    .ef
                        1708 .LDW18:
                        1709 --line515
                        1710 ..lin.C.3A.5C_ECU2.5CECU_Rivian_A1.5CTarget.5Crepo_projects.5CpRealEcu.5CcR_LATEST.5Cmake.5Coutput.5Cobjects.5Cprocdat.93::

                                                                      Page 31
                                                              C:\Users\nhuliyap\AppData\Local\Temp\gh_00006641.s
                        1711 .LDWlin93:
00000578 7f00           1712 	jmp	[lp]
                        1713 	.global	___ghs_eofn_PUTucRestlebensdauerPD
                        1714 ___ghs_eofn_PUTucRestlebensdauerPD:
                        1715 	.type	_PUTucRestlebensdauerPD,@function
                        1716 	.size	_PUTucRestlebensdauerPD,.-_PUTucRestlebensdauerPD
                        1717 	.align	2
                        1718 
                        1719 --_ucInData	r6	param
                        1720 --_ucZomSlot	r7	param
                        1721 
                        1722 	.data
                        1723 	.text
                        1724 	.align	2
                        1725 	.align	2
                        1726 ..gh.f.f.1.e.36:
                        1727 	.type	..gh.f.f.1.e.36,@object
                        1728 	.size	..gh.f.f.1.e.36,0
                        1729 	.global	_PUTucRSSIsumPD
                        1730 _PUTucRSSIsumPD:
0000057a 07f0           1731 	mov	r7,ep
0000057c 9e00           1732 	zxb	ep
                        1733 --	    .bf
                        1734 .LDW28:
0000057e 330600000000*  1735 	mov	_ucRSSIsumPD,r19
00000584 d3f1           1736 	add	r19,ep
00000586 8033           1737 	sst.b	r6,0[ep]
                        1738 --	    .ef
                        1739 .LDW38:
                        1740 --line521
                        1741 ..lin.C.3A.5C_ECU2.5CECU_Rivian_A1.5CTarget.5Crepo_projects.5CpRealEcu.5CcR_LATEST.5Cmake.5Coutput.5Cobjects.5Cprocdat.94::
                        1742 .LDWlin94:
00000588 7f00           1743 	jmp	[lp]
                        1744 	.global	___ghs_eofn_PUTucRSSIsumPD
                        1745 ___ghs_eofn_PUTucRSSIsumPD:
                        1746 	.type	_PUTucRSSIsumPD,@function
                        1747 	.size	_PUTucRSSIsumPD,.-_PUTucRSSIsumPD
                        1748 	.align	2
                        1749 
                        1750 --_ucInData	r6	param
                        1751 --_ucZomSlot	r7	param
                        1752 
                        1753 	.data
                        1754 	.text
                        1755 	.align	2
                        1756 	.align	2
                        1757 ..gh.f.f.1.e.37:
                        1758 	.type	..gh.f.f.1.e.37,@object
                        1759 	.size	..gh.f.f.1.e.37,0
                        1760 	.global	_PUTucTelTypePD
                        1761 _PUTucTelTypePD:
0000058a 07f0           1762 	mov	r7,ep
0000058c 9e00           1763 	zxb	ep
                        1764 --	    .bf
                        1765 .LDW48:
0000058e 330600000000*  1766 	mov	_ucTelTypePD,r19
00000594 d3f1           1767 	add	r19,ep
00000596 8033           1768 	sst.b	r6,0[ep]
                        1769 --	    .ef
                        1770 .LDW58:
                        1771 --line527

                                                                      Page 32
                                                              C:\Users\nhuliyap\AppData\Local\Temp\gh_00006641.s
                        1772 ..lin.C.3A.5C_ECU2.5CECU_Rivian_A1.5CTarget.5Crepo_projects.5CpRealEcu.5CcR_LATEST.5Cmake.5Coutput.5Cobjects.5Cprocdat.95::
                        1773 .LDWlin95:
00000598 7f00           1774 	jmp	[lp]
                        1775 	.global	___ghs_eofn_PUTucTelTypePD
                        1776 ___ghs_eofn_PUTucTelTypePD:
                        1777 	.type	_PUTucTelTypePD,@function
                        1778 	.size	_PUTucTelTypePD,.-_PUTucTelTypePD
                        1779 	.align	2
                        1780 
                        1781 --_ucInData	r6	param
                        1782 --_ucZomSlot	r7	param
                        1783 
                        1784 	.data
                        1785 	.text
                        1786 	.align	2
                        1787 	.align	2
                        1788 ..gh.f.f.1.e.38:
                        1789 	.type	..gh.f.f.1.e.38,@object
                        1790 	.size	..gh.f.f.1.e.38,0
                        1791 	.global	_GETucTransModePD
                        1792 _GETucTransModePD:
0000059a 06f0           1793 	mov	r6,ep
0000059c 9e00           1794 	zxb	ep
                        1795 --	    .bf
                        1796 .LDW68:
0000059e 330600000000*  1797 	mov	_ucTransModePD,r19
000005a4 d3f1           1798 	add	r19,ep
000005a6 6050           1799 	sld.bu	0[ep],r10
                        1800 --	    .ef
                        1801 .LDW78:
                        1802 --line530
                        1803 ..lin.C.3A.5C_ECU2.5CECU_Rivian_A1.5CTarget.5Crepo_projects.5CpRealEcu.5CcR_LATEST.5Cmake.5Coutput.5Cobjects.5Cprocdat.96::
                        1804 .LDWlin96:
000005a8 7f00           1805 	jmp	[lp]
                        1806 	.global	___ghs_eofn_GETucTransModePD
                        1807 ___ghs_eofn_GETucTransModePD:
                        1808 	.type	_GETucTransModePD,@function
                        1809 	.size	_GETucTransModePD,.-_GETucTransModePD
                        1810 	.align	2
                        1811 
                        1812 --_ucZomSlot	r6	param
                        1813 
                        1814 	.data
                        1815 	.text
                        1816 	.align	2
                        1817 	.align	2
                        1818 ..gh.f.f.1.e.39:
                        1819 	.type	..gh.f.f.1.e.39,@object
                        1820 	.size	..gh.f.f.1.e.39,0
                        1821 	.global	_PUTucTransModePD
                        1822 _PUTucTransModePD:
000005aa 07f0           1823 	mov	r7,ep
000005ac 9e00           1824 	zxb	ep
                        1825 --	    .bf
                        1826 .LDW88:
000005ae 330600000000*  1827 	mov	_ucTransModePD,r19
000005b4 d3f1           1828 	add	r19,ep
000005b6 8033           1829 	sst.b	r6,0[ep]
                        1830 --	    .ef
                        1831 .LDW98:
                        1832 --line538

                                                                      Page 33
                                                              C:\Users\nhuliyap\AppData\Local\Temp\gh_00006641.s
                        1833 ..lin.C.3A.5C_ECU2.5CECU_Rivian_A1.5CTarget.5Crepo_projects.5CpRealEcu.5CcR_LATEST.5Cmake.5Coutput.5Cobjects.5Cprocdat.97::
                        1834 .LDWlin97:
000005b8 7f00           1835 	jmp	[lp]
                        1836 	.global	___ghs_eofn_PUTucTransModePD
                        1837 ___ghs_eofn_PUTucTransModePD:
                        1838 	.type	_PUTucTransModePD,@function
                        1839 	.size	_PUTucTransModePD,.-_PUTucTransModePD
                        1840 	.align	2
                        1841 
                        1842 --_ucInData	r6	param
                        1843 --_ucZomSlot	r7	param
                        1844 
                        1845 	.data
                        1846 	.text
                        1847 	.align	2
                        1848 	.align	2
                        1849 ..gh.f.f.1.e.40:
                        1850 	.type	..gh.f.f.1.e.40,@object
                        1851 	.size	..gh.f.f.1.e.40,0
                        1852 	.global	_GETushSensorDefectPD
                        1853 _GETushSensorDefectPD:
000005ba 06f0           1854 	mov	r6,ep
000005bc 9e00           1855 	zxb	ep
                        1856 --	    .bf
                        1857 .LDW09:
000005be c1f2           1858 	shl	1,ep
000005c0 330600000000*  1859 	mov	_ushSensorDefectPD,r19
000005c6 d3f1           1860 	add	r19,ep
000005c8 7050           1861 	sld.hu	0[ep],r10
                        1862 --	    .ef
                        1863 .LDW19:
                        1864 --line541
                        1865 ..lin.C.3A.5C_ECU2.5CECU_Rivian_A1.5CTarget.5Crepo_projects.5CpRealEcu.5CcR_LATEST.5Cmake.5Coutput.5Cobjects.5Cprocdat.98::
                        1866 .LDWlin98:
000005ca 7f00           1867 	jmp	[lp]
                        1868 	.global	___ghs_eofn_GETushSensorDefectPD
                        1869 ___ghs_eofn_GETushSensorDefectPD:
                        1870 	.type	_GETushSensorDefectPD,@function
                        1871 	.size	_GETushSensorDefectPD,.-_GETushSensorDefectPD
                        1872 	.align	2
                        1873 
                        1874 --_ucZomSlot	r6	param
                        1875 
                        1876 	.data
                        1877 	.text
                        1878 	.align	2
                        1879 	.align	2
                        1880 ..gh.f.f.1.e.41:
                        1881 	.type	..gh.f.f.1.e.41,@object
                        1882 	.size	..gh.f.f.1.e.41,0
                        1883 	.global	_PUTushSensorDefectPD
                        1884 _PUTushSensorDefectPD:
000005cc 07f0           1885 	mov	r7,ep
000005ce 9e00           1886 	zxb	ep
                        1887 --	    .bf
                        1888 .LDW29:
000005d0 c1f2           1889 	shl	1,ep
000005d2 330600000000*  1890 	mov	_ushSensorDefectPD,r19
000005d8 d3f1           1891 	add	r19,ep
000005da 8034           1892 	sst.h	r6,0[ep]
                        1893 --	    .ef

                                                                      Page 34
                                                              C:\Users\nhuliyap\AppData\Local\Temp\gh_00006641.s
                        1894 .LDW39:
                        1895 --line549
                        1896 ..lin.C.3A.5C_ECU2.5CECU_Rivian_A1.5CTarget.5Crepo_projects.5CpRealEcu.5CcR_LATEST.5Cmake.5Coutput.5Cobjects.5Cprocdat.99::
                        1897 .LDWlin99:
000005dc 7f00           1898 	jmp	[lp]
                        1899 	.global	___ghs_eofn_PUTushSensorDefectPD
                        1900 ___ghs_eofn_PUTushSensorDefectPD:
                        1901 	.type	_PUTushSensorDefectPD,@function
                        1902 	.size	_PUTushSensorDefectPD,.-_PUTushSensorDefectPD
                        1903 	.align	2
                        1904 
                        1905 --_ushInData	r6	param
                        1906 --_ucZomSlot	r7	param
                        1907 
                        1908 	.data
                        1909 	.text
                        1910 	.align	2
                        1911 	.align	2
                        1912 ..gh.f.f.1.e.42:
                        1913 	.type	..gh.f.f.1.e.42,@object
                        1914 	.size	..gh.f.f.1.e.42,0
                        1915 	.global	_GETucRadpositionPD
                        1916 _GETucRadpositionPD:
000005de 8600           1917 	zxb	r6
                        1918 --	    .bf
                        1919 .LDW49:
000005e0 80070000*      1920 	jr	_ucGetRadPosAtSlotPDIF
                        1921 --	    .ef
                        1922 .LDW59:
                        1923 	.global	___ghs_eofn_GETucRadpositionPD
                        1924 ___ghs_eofn_GETucRadpositionPD:
                        1925 	.type	_GETucRadpositionPD,@function
                        1926 	.size	_GETucRadpositionPD,.-_GETucRadpositionPD
                        1927 	.align	2
                        1928 
                        1929 --_ucZomSlot	r6	param
                        1930 
                        1931 	.section ".bss","awb"
                        1932 .L3956:
                        1933 	.type	.L3956,@object
                        1934 	.size	.L3956,0
                        1935 	.data
                        1936 	.text
                        1937 	.align	2
                        1938 	.align	2
                        1939 ..gh.f.f.1.e.43:
                        1940 	.type	..gh.f.f.1.e.43,@object
                        1941 	.size	..gh.f.f.1.e.43,0
                        1942 	.global	_GETucPatmoPD
                        1943 _GETucPatmoPD:
                        1944 --	    .bf
                        1945 .LDW69:
000005e4 40960000*      1946 	movhi	hi(_ucPatmoPD),zero,r18
000005e8 92970100*      1947 	ld.bu	lo(_ucPatmoPD)[r18],r18
000005ec 204e2800       1948 	movea	40,zero,r9
000005f0 128eeaff       1949 	addi	-22,r18,r17
000005f4 1106e9ff       1950 	addi	-23,r17,zero
000005f8 f24f3253       1951 	cmovnl	r18,r9,r10
                        1952 --	    .ef
                        1953 .LDW79:
                        1954 --line764

                                                                      Page 35
                                                              C:\Users\nhuliyap\AppData\Local\Temp\gh_00006641.s
                        1955 ..lin.C.3A.5C_ECU2.5CECU_Rivian_A1.5CTarget.5Crepo_projects.5CpRealEcu.5CcR_LATEST.5Cmake.5Coutput.5Cobjects.5Cprocdat.100::
                        1956 .LDWlin100:
000005fc 7f00           1957 	jmp	[lp]
                        1958 	.global	___ghs_eofn_GETucPatmoPD
                        1959 ___ghs_eofn_GETucPatmoPD:
                        1960 	.type	_GETucPatmoPD,@function
                        1961 	.size	_GETucPatmoPD,.-_GETucPatmoPD
                        1962 	.align	2
                        1963 --_ret	r10	local
                        1964 
                        1965 	.data
                        1966 	.text
                        1967 	.align	2
                        1968 	.align	2
                        1969 ..gh.f.f.1.e.44:
                        1970 	.type	..gh.f.f.1.e.44,@object
                        1971 	.size	..gh.f.f.1.e.44,0
                        1972 	.global	_ushCalcAKPressurePD..C.3A.5C_ECU2.5CECU_Rivian_A1.5CTarget.5Crepo_projects.5CpRealEcu.5CcR_LATEST.5Cmake.5Coutput.5Cobjects.5Cprocdat.
                        1973 _ushCalcAKPressurePD..C.3A.5C_ECU2.5CECU_Rivian_A1.5CTarget.5Crepo_projects.5CpRealEcu.5CcR_LATEST.5Cmake.5Coutput.5Cobjects.5Cprocdat.:
                        1974 _ushCalcAKPressurePD:
000005fe 8007a100       1975 	prepare	{r28,r31},0
00000602 8600           1976 	zxb	r6
                        1977 --	    .bf
                        1978 .LDW89:
00000604 6132           1979 	cmp	1,r6
00000606 f10d*          1980 	bl	.L4052
00000608 a215*          1981 	be	.L4053
0000060a 060601ff       1982 	addi	-255,r6,zero
0000060e b215*          1983 	be	.L4054
                        1984 --line596
                        1985 ..lin.C.3A.5C_ECU2.5CECU_Rivian_A1.5CTarget.5Crepo_projects.5CpRealEcu.5CcR_LATEST.5Cmake.5Coutput.5Cobjects.5Cprocdat.101::
                        1986 .LDWlin101:
00000610 06e62600       1987 	addi	38,r6,r28
                        1988 	jarl	_GETucPatmoPD,lp
                        1988 <EXPANSION BEGIN>
                        1988 jarl22 _GETucPatmoPD , lp 
00000614 bfffd0ff*      1988 <EXPANSION END>
00000618 eae1           1989 	cmp	r10,r28
0000061a 9b15*          1990 	bh	.L4057
                        1991 --line602
                        1992 ..lin.C.3A.5C_ECU2.5CECU_Rivian_A1.5CTarget.5Crepo_projects.5CpRealEcu.5CcR_LATEST.5Cmake.5Coutput.5Cobjects.5Cprocdat.102::
                        1993 .LDWlin102:
0000061c 00e2           1994 	mov	0,r28
0000061e 20564000       1995 	movea	64,zero,r10
00000622 f50d*          1996 	br	.L4048
                        1997 .L4052:
                        1998 --line581
                        1999 ..lin.C.3A.5C_ECU2.5CECU_Rivian_A1.5CTarget.5Crepo_projects.5CpRealEcu.5CcR_LATEST.5Cmake.5Coutput.5Cobjects.5Cprocdat.103::
                        2000 .LDWlin103:
00000624 20561000       2001 	movea	16,zero,r10
00000628 1fe2           2002 	mov	-1,r28
0000062a b50d*          2003 	br	.L4048
                        2004 .L4053:
                        2005 --line586
                        2006 ..lin.C.3A.5C_ECU2.5CECU_Rivian_A1.5CTarget.5Crepo_projects.5CpRealEcu.5CcR_LATEST.5Cmake.5Coutput.5Cobjects.5Cprocdat.104::
                        2007 .LDWlin104:
0000062c 20564000       2008 	movea	64,zero,r10
00000630 00e2           2009 	mov	0,r28
00000632 f505*          2010 	br	.L4048
                        2011 .L4054:
                        2012 --line591

                                                                      Page 36
                                                              C:\Users\nhuliyap\AppData\Local\Temp\gh_00006641.s
                        2013 ..lin.C.3A.5C_ECU2.5CECU_Rivian_A1.5CTarget.5Crepo_projects.5CpRealEcu.5CcR_LATEST.5Cmake.5Coutput.5Cobjects.5Cprocdat.105::
                        2014 .LDWlin105:
00000634 20568000       2015 	movea	128,zero,r10
00000638 1ee2           2016 	mov	-2,r28
0000063a b505*          2017 	br	.L4048
                        2018 .L4057:
                        2019 --line598
                        2020 ..lin.C.3A.5C_ECU2.5CECU_Rivian_A1.5CTarget.5Crepo_projects.5CpRealEcu.5CcR_LATEST.5Cmake.5Coutput.5Cobjects.5Cprocdat.106::
                        2021 .LDWlin106:
0000063c aae1           2022 	sub	r10,r28
0000063e 0052           2023 	mov	0,r10
                        2024 .L4048:
00000640 47e70000       2025 	st.b	r28,0[r7]
                        2026 --	    .ef
                        2027 .LDW99:
00000644 4006bf00       2028 	dispose	0,{r28,r31},[lp]
                        2029 ___ghs_eofn_ushCalcAKPressurePD:
                        2030 	.type	_ushCalcAKPressurePD,@function
                        2031 	.size	_ushCalcAKPressurePD,.-_ushCalcAKPressurePD
                        2032 	.type	_ushCalcAKPressurePD..C.3A.5C_ECU2.5CECU_Rivian_A1.5CTarget.5Crepo_projects.5CpRealEcu.5CcR_LATEST.5Cmake.5Coutput.5Cobjects.5Cprocdat.,@function
                        2033 	.size	_ushCalcAKPressurePD..C.3A.5C_ECU2.5CECU_Rivian_A1.5CTarget.5Crepo_projects.5CpRealEcu.5CcR_LATEST.5Cmake.5Coutput.5Cobjects.5Cprocdat.,.-_ushCalcAKPressurePD..C.3A.5C_ECU2.5CECU_Rivian_A1.5CTarget.5Crepo_projects.5CpRealEcu.5CcR_LATEST.5Cmake.5Coutput.5Cobjects.5Cprocdat.
                        2034 	.align	2
                        2035 --_ushError	r10	local
                        2036 --_ushPsensorAbs	r28	local
                        2037 
                        2038 --_ucRawPres	r6	param
                        2039 --_pucPhyPres	r29	param
                        2040 
                        2041 	.section ".bss","awb"
                        2042 .L4126:
                        2043 	.type	.L4126,@object
                        2044 	.size	.L4126,0
                        2045 	.data
                        2046 	.text
                        2047 	.align	2
                        2048 	.align	2
                        2049 ..gh.f.f.1.e.45:
                        2050 	.type	..gh.f.f.1.e.45,@object
                        2051 	.size	..gh.f.f.1.e.45,0
                        2052 	.global	_ushCalcAKTemperaturePD..C.3A.5C_ECU2.5CECU_Rivian_A1.5CTarget.5Crepo_projects.5CpRealEcu.5CcR_LATEST.5Cmake.5Coutput.5Cobjects.5Cprocdat.
                        2053 _ushCalcAKTemperaturePD..C.3A.5C_ECU2.5CECU_Rivian_A1.5CTarget.5Crepo_projects.5CpRealEcu.5CcR_LATEST.5Cmake.5Coutput.5Cobjects.5Cprocdat.:
                        2054 _ushCalcAKTemperaturePD:
00000648 8600           2055 	zxb	r6
0000064a 07f0           2056 	mov	r7,ep
                        2057 --	    .bf
                        2058 .LDW001:
0000064c 0052           2059 	mov	0,r10
0000064e 6132           2060 	cmp	1,r6
00000650 a10d*          2061 	bl	.L4225
00000652 e20d*          2062 	be	.L4226
                        2063 --line626
                        2064 ..lin.C.3A.5C_ECU2.5CECU_Rivian_A1.5CTarget.5Crepo_projects.5CpRealEcu.5CcR_LATEST.5Cmake.5Coutput.5Cobjects.5Cprocdat.107::
                        2065 .LDWlin107:
00000654 204e7800       2066 	movea	120,zero,r9
00000658 060610ff       2067 	addi	-240,r6,zero
0000065c e90d*          2068 	bnl	.L4229
                        2069 --line635
                        2070 ..lin.C.3A.5C_ECU2.5CECU_Rivian_A1.5CTarget.5Crepo_projects.5CpRealEcu.5CcR_LATEST.5Cmake.5Coutput.5Cobjects.5Cprocdat.108::
                        2071 .LDWlin108:
0000065e 20560004       2072 	movea	1024,zero,r10
00000662 a515*          2073 	br	.L4223

                                                                      Page 37
                                                              C:\Users\nhuliyap\AppData\Local\Temp\gh_00006641.s
                        2074 .L4225:
                        2075 --line616
                        2076 ..lin.C.3A.5C_ECU2.5CECU_Rivian_A1.5CTarget.5Crepo_projects.5CpRealEcu.5CcR_LATEST.5Cmake.5Coutput.5Cobjects.5Cprocdat.109::
                        2077 .LDWlin109:
00000664 20560008       2078 	movea	2048,zero,r10
00000668 204e7f00       2079 	movea	127,zero,r9
0000066c d50d*          2080 	br	.L4223
                        2081 .L4226:
                        2082 --line621
                        2083 ..lin.C.3A.5C_ECU2.5CECU_Rivian_A1.5CTarget.5Crepo_projects.5CpRealEcu.5CcR_LATEST.5Cmake.5Coutput.5Cobjects.5Cprocdat.110::
                        2084 .LDWlin110:
0000066e 20560002       2085 	movea	512,zero,r10
00000672 204ed8ff       2086 	movea	-40,zero,r9
00000676 850d*          2087 	br	.L4223
                        2088 .L4229:
                        2089 --line627
                        2090 ..lin.C.3A.5C_ECU2.5CECU_Rivian_A1.5CTarget.5Crepo_projects.5CpRealEcu.5CcR_LATEST.5Cmake.5Coutput.5Cobjects.5Cprocdat.111::
                        2091 .LDWlin111:
00000678 063eccff       2092 	addi	-52,r6,r7
0000067c a700           2093 	sxb	r7
0000067e 060653ff       2094 	addi	-173,r6,zero
00000682 e93f224b       2095 	cmovl	r9,r7,r9
                        2096 .L4223:
00000686 804b           2097 	sst.b	r9,0[ep]
                        2098 --	    .ef
                        2099 .LDW101:
00000688 7f00           2100 	jmp	[lp]
                        2101 ___ghs_eofn_ushCalcAKTemperaturePD:
                        2102 	.type	_ushCalcAKTemperaturePD,@function
                        2103 	.size	_ushCalcAKTemperaturePD,.-_ushCalcAKTemperaturePD
                        2104 	.type	_ushCalcAKTemperaturePD..C.3A.5C_ECU2.5CECU_Rivian_A1.5CTarget.5Crepo_projects.5CpRealEcu.5CcR_LATEST.5Cmake.5Coutput.5Cobjects.5Cprocdat.,@function
                        2105 	.size	_ushCalcAKTemperaturePD..C.3A.5C_ECU2.5CECU_Rivian_A1.5CTarget.5Crepo_projects.5CpRealEcu.5CcR_LATEST.5Cmake.5Coutput.5Cobjects.5Cprocdat.,.-_ushCalcAKTemperaturePD..C.3A.5C_ECU2.5CECU_Rivian_A1.5CTarget.5Crepo_projects.5CpRealEcu.5CcR_LATEST.5Cmake.5Coutput.5Cobjects.5Cprocdat.
                        2106 	.align	2
                        2107 --_ushError	r10	local
                        2108 
                        2109 --_ucRawTemp	r6	param
                        2110 --_pscPhyTemp	ep	param
                        2111 
                        2112 	.section ".bss","awb"
                        2113 .L4313:
                        2114 	.type	.L4313,@object
                        2115 	.size	.L4313,0
                        2116 	.data
                        2117 	.text
                        2118 	.align	2
                        2119 	.align	2
                        2120 ..gh.f.f.1.e.46:
                        2121 	.type	..gh.f.f.1.e.46,@object
                        2122 	.size	..gh.f.f.1.e.46,0
                        2123 	.global	_PreProcPressAndTempPD
                        2124 _PreProcPressAndTempPD:
0000068a 82076100       2125 	prepare	{r29,r31},1
                        2126 --	    .bf
                        2127 .LDW201:
                        2128 	jarl	_ucGetReDataPressurePD,lp
                        2128 <EXPANSION BEGIN>
                        2128 jarl22 _ucGetReDataPressurePD , lp 
0000068e bfff02fa*      2128 <EXPANSION END>
00000692 0a30           2129 	mov	r10,r6
00000694 233e0200       2130 	movea	2,sp,r7
                        2131 	jarl	_ushCalcAKPressurePD,lp

                                                                      Page 38
                                                              C:\Users\nhuliyap\AppData\Local\Temp\gh_00006641.s
                        2131 <EXPANSION BEGIN>
                        2131 jarl22 _ushCalcAKPressurePD , lp 
00000698 bfff66ff*      2131 <EXPANSION END>
0000069c 0ae8           2132 	mov	r10,r29
                        2133 --line564
                        2134 ..lin.C.3A.5C_ECU2.5CECU_Rivian_A1.5CTarget.5Crepo_projects.5CpRealEcu.5CcR_LATEST.5Cmake.5Coutput.5Cobjects.5Cprocdat.112::
                        2135 .LDWlin112:
                        2136 	jarl	_ucGetReDataTemperaturePD,lp
                        2136 <EXPANSION BEGIN>
                        2136 jarl22 _ucGetReDataTemperaturePD , lp 
0000069e bfff28fa*      2136 <EXPANSION END>
000006a2 0a30           2137 	mov	r10,r6
000006a4 413a           2138 	add	1,r7
                        2139 	jarl	_ushCalcAKTemperaturePD,lp
                        2139 <EXPANSION BEGIN>
                        2139 jarl22 _ushCalcAKTemperaturePD , lp 
000006a6 bfffa2ff*      2139 <EXPANSION END>
                        2140 --line567
                        2141 ..lin.C.3A.5C_ECU2.5CECU_Rivian_A1.5CTarget.5Crepo_projects.5CpRealEcu.5CcR_LATEST.5Cmake.5Coutput.5Cobjects.5Cprocdat.113::
                        2142 .LDWlin113:
000006aa 83370300       2143 	ld.bu	2[sp],r6
000006ae 1d51           2144 	or	r29,r10
                        2145 	jarl	_PutReDataPreProcPressurePD,lp
                        2145 <EXPANSION BEGIN>
                        2145 jarl22 _PutReDataPreProcPressurePD , lp 
000006b0 bfff2efb*      2145 <EXPANSION END>
                        2146 --line569
                        2147 ..lin.C.3A.5C_ECU2.5CECU_Rivian_A1.5CTarget.5Crepo_projects.5CpRealEcu.5CcR_LATEST.5Cmake.5Coutput.5Cobjects.5Cprocdat.114::
                        2148 .LDWlin114:
000006b4 03370300       2149 	ld.b	3[sp],r6
                        2150 	jarl	_PutReDataPreProcTemperaturePD,lp
                        2150 <EXPANSION BEGIN>
                        2150 jarl22 _PutReDataPreProcTemperaturePD , lp 
000006b8 bfff3efb*      2150 <EXPANSION END>
                        2151 --	    .ef
                        2152 .LDW301:
                        2153 --line571
                        2154 ..lin.C.3A.5C_ECU2.5CECU_Rivian_A1.5CTarget.5Crepo_projects.5CpRealEcu.5CcR_LATEST.5Cmake.5Coutput.5Cobjects.5Cprocdat.115::
                        2155 .LDWlin115:
000006bc 42067f00       2156 	dispose	1,{r29,r31},[lp]
                        2157 	.global	___ghs_eofn_PreProcPressAndTempPD
                        2158 ___ghs_eofn_PreProcPressAndTempPD:
                        2159 	.type	_PreProcPressAndTempPD,@function
                        2160 	.size	_PreProcPressAndTempPD,.-_PreProcPressAndTempPD
                        2161 	.align	2
                        2162 --_ucPres	2[sp]	local
                        2163 --_scTemp	3[sp]	local
                        2164 --_ushSensorfehler	r29	local
                        2165 
                        2166 	.section ".bss","awb"
                        2167 .L4420:
                        2168 	.type	.L4420,@object
                        2169 	.size	.L4420,0
                        2170 	.data
                        2171 	.text
                        2172 	.align	2
                        2173 	.align	2
                        2174 ..gh.f.f.1.e.47:
                        2175 	.type	..gh.f.f.1.e.47,@object
                        2176 	.size	..gh.f.f.1.e.47,0
                        2177 	.global	_SaveReDataAtBufferPD

                                                                      Page 39
                                                              C:\Users\nhuliyap\AppData\Local\Temp\gh_00006641.s
                        2178 _SaveReDataAtBufferPD:
000006c0 8007e130       2179 	prepare	{r26,r27,r28,r29,r31},0
000006c4 06e0           2180 	mov	r6,r28
000006c6 9c00           2181 	zxb	r28
                        2182 --	    .bf
                        2183 .LDW401:
                        2184 	jarl	_ulGetReDataIdPD,lp
                        2184 <EXPANSION BEGIN>
                        2184 jarl22 _ulGetReDataIdPD , lp 
000006c8 bfffacf9*      2184 <EXPANSION END>
000006cc 0a30           2185 	mov	r10,r6
                        2186 	jarl	_PutReDataPreProcIdPD,lp
                        2186 <EXPANSION BEGIN>
                        2186 jarl22 _PutReDataPreProcIdPD , lp 
000006ce bffffafa*      2186 <EXPANSION END>
                        2187 --line649
                        2188 ..lin.C.3A.5C_ECU2.5CECU_Rivian_A1.5CTarget.5Crepo_projects.5CpRealEcu.5CcR_LATEST.5Cmake.5Coutput.5Cobjects.5Cprocdat.116::
                        2189 .LDWlin116:
                        2190 	jarl	_ucGetReDataTelTypePD,lp
                        2190 <EXPANSION BEGIN>
                        2190 jarl22 _ucGetReDataTelTypePD , lp 
000006d2 bfffb6fa*      2190 <EXPANSION END>
                        2191 --line650
                        2192 ..lin.C.3A.5C_ECU2.5CECU_Rivian_A1.5CTarget.5Crepo_projects.5CpRealEcu.5CcR_LATEST.5Cmake.5Coutput.5Cobjects.5Cprocdat.117::
                        2193 .LDWlin117:
000006d6 0a0619ff       2194 	addi	-231,r10,zero
000006da b235*          2195 	be	.L4440
000006dc 3d0600000000*  2196 	mov	_ucTyreInvalidPressSurpressionCnt,r29
000006e2 0ad8           2197 	mov	r10,r27
                        2198 --line651
                        2199 ..lin.C.3A.5C_ECU2.5CECU_Rivian_A1.5CTarget.5Crepo_projects.5CpRealEcu.5CcR_LATEST.5Cmake.5Coutput.5Cobjects.5Cprocdat.118::
                        2200 .LDWlin118:
                        2201 	jarl	_PreProcPressAndTempPD,lp
                        2201 <EXPANSION BEGIN>
                        2201 jarl22 _PreProcPressAndTempPD , lp 
000006e4 bfffa6ff*      2201 <EXPANSION END>
000006e8 0ad0           2202 	mov	r10,r26
                        2203 --line652
                        2204 ..lin.C.3A.5C_ECU2.5CECU_Rivian_A1.5CTarget.5Crepo_projects.5CpRealEcu.5CcR_LATEST.5Cmake.5Coutput.5Cobjects.5Cprocdat.119::
                        2205 .LDWlin119:
                        2206 	jarl	_ucGetReDataPreProcPressurePD,lp
                        2206 <EXPANSION BEGIN>
                        2206 jarl22 _ucGetReDataPreProcPressurePD , lp 
000006ea bfffe8fa*      2206 <EXPANSION END>
000006ee 1cf0           2207 	mov	r28,ep
000006f0 c1f2           2208 	shl	1,ep
000006f2 ddf1           2209 	add	r29,ep
000006f4 0a0601ff       2210 	addi	-255,r10,zero
000006f8 fa15*          2211 	bne	.L4442
                        2212 --line653
                        2213 ..lin.C.3A.5C_ECU2.5CECU_Rivian_A1.5CTarget.5Crepo_projects.5CpRealEcu.5CcR_LATEST.5Cmake.5Coutput.5Cobjects.5Cprocdat.120::
                        2214 .LDWlin120:
000006fa 7090           2215 	sld.hu	0[ep],r18
000006fc 1206ceff       2216 	addi	-50,r18,zero
00000700 c115*          2217 	bl	.L4453
                        2218 --line654
                        2219 ..lin.C.3A.5C_ECU2.5CECU_Rivian_A1.5CTarget.5Crepo_projects.5CpRealEcu.5CcR_LATEST.5Cmake.5Coutput.5Cobjects.5Cprocdat.121::
                        2220 .LDWlin121:
00000702 4192           2221 	add	1,r18
00000704 d200           2222 	zxh	r18
00000706 8094           2223 	sst.h	r18,0[ep]

                                                                      Page 40
                                                              C:\Users\nhuliyap\AppData\Local\Temp\gh_00006641.s
00000708 6592           2224 	cmp	5,r18
0000070a fb0d*          2225 	bh	.L4453
                        2226 --line657
                        2227 ..lin.C.3A.5C_ECU2.5CECU_Rivian_A1.5CTarget.5Crepo_projects.5CpRealEcu.5CcR_LATEST.5Cmake.5Coutput.5Cobjects.5Cprocdat.122::
                        2228 .LDWlin122:
0000070c 64e2           2229 	cmp	4,r28
0000070e 890d*          2230 	bnl	.L4448
                        2231 --line658
                        2232 ..lin.C.3A.5C_ECU2.5CECU_Rivian_A1.5CTarget.5Crepo_projects.5CpRealEcu.5CcR_LATEST.5Cmake.5Coutput.5Cobjects.5Cprocdat.123::
                        2233 .LDWlin123:
00000710 1c30           2234 	mov	r28,r6
                        2235 	jarl	_GETucReifendruckPD,lp
                        2235 <EXPANSION BEGIN>
                        2235 jarl22 _GETucReifendruckPD , lp 
00000712 bfff8afd*      2235 <EXPANSION END>
00000716 0a30           2236 	mov	r10,r6
                        2237 	jarl	_PutReDataPreProcPressurePD,lp
                        2237 <EXPANSION BEGIN>
                        2237 jarl22 _PutReDataPreProcPressurePD , lp 
00000718 bfffc6fa*      2237 <EXPANSION END>
0000071c e505*          2238 	br	.L4453
                        2239 .L4448:
                        2240 --line663
                        2241 ..lin.C.3A.5C_ECU2.5CECU_Rivian_A1.5CTarget.5Crepo_projects.5CpRealEcu.5CcR_LATEST.5Cmake.5Coutput.5Cobjects.5Cprocdat.124::
                        2242 .LDWlin124:
0000071e 0a30           2243 	mov	r10,r6
                        2244 	jarl	_PutReDataPreProcPressurePD,lp
                        2244 <EXPANSION BEGIN>
                        2244 jarl22 _PutReDataPreProcPressurePD , lp 
00000720 bfffbefa*      2244 <EXPANSION END>
00000724 a505*          2245 	br	.L4453
                        2246 .L4442:
                        2247 --line671
                        2248 ..lin.C.3A.5C_ECU2.5CECU_Rivian_A1.5CTarget.5Crepo_projects.5CpRealEcu.5CcR_LATEST.5Cmake.5Coutput.5Cobjects.5Cprocdat.125::
                        2249 .LDWlin125:
00000726 8004           2250 	sst.h	zero,0[ep]
                        2251 .L4453:
00000728 1b067dff       2252 	addi	-131,r27,zero
0000072c c205*          2253 	be	.L4458
0000072e 1b065dff       2254 	addi	-163,r27,zero
00000732 aa25*          2255 	bne	.L4457
                        2256 .L4458:
                        2257 --line692
                        2258 ..lin.C.3A.5C_ECU2.5CECU_Rivian_A1.5CTarget.5Crepo_projects.5CpRealEcu.5CcR_LATEST.5Cmake.5Coutput.5Cobjects.5Cprocdat.126::
                        2259 .LDWlin126:
                        2260 	jarl	_ucGetReDataRemainingLifeTimePD,lp
                        2260 <EXPANSION BEGIN>
                        2260 jarl22 _ucGetReDataRemainingLifeTimePD , lp 
00000734 bfffc8f9*      2260 <EXPANSION END>
00000738 0a30           2261 	mov	r10,r6
                        2262 	jarl	_PutReDataPreProcRemainingLifeTimePD,lp
                        2262 <EXPANSION BEGIN>
                        2262 jarl22 _PutReDataPreProcRemainingLifeTimePD , lp 
0000073a bfffd4fa*      2262 <EXPANSION END>
0000073e e525*          2263 	br	.L4460
                        2264 .L4440:
                        2265 --line675
                        2266 ..lin.C.3A.5C_ECU2.5CECU_Rivian_A1.5CTarget.5Crepo_projects.5CpRealEcu.5CcR_LATEST.5Cmake.5Coutput.5Cobjects.5Cprocdat.127::
                        2267 .LDWlin127:
00000740 20d60030       2268 	movea	12288,zero,r26
00000744 64e2           2269 	cmp	4,r28

                                                                      Page 41
                                                              C:\Users\nhuliyap\AppData\Local\Temp\gh_00006641.s
00000746 e90d*          2270 	bnl	.L4454
                        2271 --line677
                        2272 ..lin.C.3A.5C_ECU2.5CECU_Rivian_A1.5CTarget.5Crepo_projects.5CpRealEcu.5CcR_LATEST.5Cmake.5Coutput.5Cobjects.5Cprocdat.128::
                        2273 .LDWlin128:
00000748 1c30           2274 	mov	r28,r6
                        2275 	jarl	_GETucReifendruckPD,lp
                        2275 <EXPANSION BEGIN>
                        2275 jarl22 _GETucReifendruckPD , lp 
0000074a bfff52fd*      2275 <EXPANSION END>
0000074e 0a30           2276 	mov	r10,r6
                        2277 	jarl	_PutReDataPreProcPressurePD,lp
                        2277 <EXPANSION BEGIN>
                        2277 jarl22 _PutReDataPreProcPressurePD , lp 
00000750 bfff8efa*      2277 <EXPANSION END>
                        2278 --line680
                        2279 ..lin.C.3A.5C_ECU2.5CECU_Rivian_A1.5CTarget.5Crepo_projects.5CpRealEcu.5CcR_LATEST.5Cmake.5Coutput.5Cobjects.5Cprocdat.129::
                        2280 .LDWlin129:
00000754 1c30           2281 	mov	r28,r6
                        2282 	jarl	_GETscTemperaturPD,lp
                        2282 <EXPANSION BEGIN>
                        2282 jarl22 _GETscTemperaturPD , lp 
00000756 bfffa2fd*      2282 <EXPANSION END>
0000075a 0a30           2283 	mov	r10,r6
                        2284 	jarl	_PutReDataPreProcTemperaturePD,lp
                        2284 <EXPANSION BEGIN>
                        2284 jarl22 _PutReDataPreProcTemperaturePD , lp 
0000075c bfff9afa*      2284 <EXPANSION END>
00000760 d50d*          2285 	br	.L4462
                        2286 .L4454:
                        2287 --line685
                        2288 ..lin.C.3A.5C_ECU2.5CECU_Rivian_A1.5CTarget.5Crepo_projects.5CpRealEcu.5CcR_LATEST.5Cmake.5Coutput.5Cobjects.5Cprocdat.130::
                        2289 .LDWlin130:
00000762 2036ff00       2290 	movea	255,zero,r6
                        2291 	jarl	_PutReDataPreProcPressurePD,lp
                        2291 <EXPANSION BEGIN>
                        2291 jarl22 _PutReDataPreProcPressurePD , lp 
00000766 bfff78fa*      2291 <EXPANSION END>
                        2292 --line687
                        2293 ..lin.C.3A.5C_ECU2.5CECU_Rivian_A1.5CTarget.5Crepo_projects.5CpRealEcu.5CcR_LATEST.5Cmake.5Coutput.5Cobjects.5Cprocdat.131::
                        2294 .LDWlin131:
0000076a 20367f00       2295 	movea	127,zero,r6
                        2296 	jarl	_PutReDataPreProcTemperaturePD,lp
                        2296 <EXPANSION BEGIN>
                        2296 jarl22 _PutReDataPreProcTemperaturePD , lp 
0000076e bfff88fa*      2296 <EXPANSION END>
                        2297 .L4461:
                        2298 --line702
                        2299 ..lin.C.3A.5C_ECU2.5CECU_Rivian_A1.5CTarget.5Crepo_projects.5CpRealEcu.5CcR_LATEST.5Cmake.5Coutput.5Cobjects.5Cprocdat.132::
                        2300 .LDWlin132:
00000772 0f52           2301 	mov	15,r10
00000774 e505*          2302 	br	.L4463
                        2303 .L4457:
                        2304 --line696
                        2305 ..lin.C.3A.5C_ECU2.5CECU_Rivian_A1.5CTarget.5Crepo_projects.5CpRealEcu.5CcR_LATEST.5Cmake.5Coutput.5Cobjects.5Cprocdat.133::
                        2306 .LDWlin133:
00000776 64e2           2307 	cmp	4,r28
00000778 d9fd*          2308 	bnl	.L4461
                        2309 .L4462:
                        2310 --line697
                        2311 ..lin.C.3A.5C_ECU2.5CECU_Rivian_A1.5CTarget.5Crepo_projects.5CpRealEcu.5CcR_LATEST.5Cmake.5Coutput.5Cobjects.5Cprocdat.134::
                        2312 .LDWlin134:

                                                                      Page 42
                                                              C:\Users\nhuliyap\AppData\Local\Temp\gh_00006641.s
0000077a 1c30           2313 	mov	r28,r6
                        2314 	jarl	_GETucRestlebensdauerPD,lp
                        2314 <EXPANSION BEGIN>
                        2314 jarl22 _GETucRestlebensdauerPD , lp 
0000077c bfffdefd*      2314 <EXPANSION END>
                        2315 .L4463:
00000780 0a30           2316 	mov	r10,r6
                        2317 --line705
                        2318 ..lin.C.3A.5C_ECU2.5CECU_Rivian_A1.5CTarget.5Crepo_projects.5CpRealEcu.5CcR_LATEST.5Cmake.5Coutput.5Cobjects.5Cprocdat.135::
                        2319 .LDWlin135:
                        2320 	jarl	_PutReDataPreProcRemainingLifeTimePD,lp
                        2320 <EXPANSION BEGIN>
                        2320 jarl22 _PutReDataPreProcRemainingLifeTimePD , lp 
00000782 bfff8cfa*      2320 <EXPANSION END>
00000786 9ad60040       2321 	ori	16384,r26,r26
                        2322 .L4460:
                        2323 --line707
                        2324 ..lin.C.3A.5C_ECU2.5CECU_Rivian_A1.5CTarget.5Crepo_projects.5CpRealEcu.5CcR_LATEST.5Cmake.5Coutput.5Cobjects.5Cprocdat.136::
                        2325 .LDWlin136:
                        2326 	jarl	_ucGetReDataStatePD,lp
                        2326 <EXPANSION BEGIN>
                        2326 jarl22 _ucGetReDataStatePD , lp 
0000078a bfff98f9*      2326 <EXPANSION END>
0000078e 0a30           2327 	mov	r10,r6
                        2328 	jarl	_PutReDataPreProcTransModePD,lp
                        2328 <EXPANSION BEGIN>
                        2328 jarl22 _PutReDataPreProcTransModePD , lp 
00000790 bfff96fa*      2328 <EXPANSION END>
                        2329 --line709
                        2330 ..lin.C.3A.5C_ECU2.5CECU_Rivian_A1.5CTarget.5Crepo_projects.5CpRealEcu.5CcR_LATEST.5Cmake.5Coutput.5Cobjects.5Cprocdat.137::
                        2331 .LDWlin137:
00000794 1a30           2332 	mov	r26,r6
                        2333 	jarl	_PutReDataPreProcSensorDefectPD,lp
                        2333 <EXPANSION BEGIN>
                        2333 jarl22 _PutReDataPreProcSensorDefectPD , lp 
00000796 bfffa8fa*      2333 <EXPANSION END>
                        2334 --	    .ef
                        2335 .LDW501:
                        2336 --line711
                        2337 ..lin.C.3A.5C_ECU2.5CECU_Rivian_A1.5CTarget.5Crepo_projects.5CpRealEcu.5CcR_LATEST.5Cmake.5Coutput.5Cobjects.5Cprocdat.138::
                        2338 .LDWlin138:
0000079a 4006ff30       2339 	dispose	0,{r26,r27,r28,r29,r31},[lp]
                        2340 	.global	___ghs_eofn_SaveReDataAtBufferPD
                        2341 ___ghs_eofn_SaveReDataAtBufferPD:
                        2342 	.type	_SaveReDataAtBufferPD,@function
                        2343 	.size	_SaveReDataAtBufferPD,.-_SaveReDataAtBufferPD
                        2344 	.align	2
                        2345 --_ushSensorDefect	r26	local
                        2346 --_ucLocalReDataTelType	r27	local
                        2347 
                        2348 --_ucZomSlot	r28	param
                        2349 
                        2350 	.data
                        2351 	.text
                        2352 	.align	2
                        2353 	.align	2
                        2354 ..gh.f.f.1.e.48:
                        2355 	.type	..gh.f.f.1.e.48,@object
                        2356 	.size	..gh.f.f.1.e.48,0
                        2357 	.global	_ucIsReHwDefectPD
                        2358 _ucIsReHwDefectPD:

                                                                      Page 43
                                                              C:\Users\nhuliyap\AppData\Local\Temp\gh_00006641.s
0000079e 80076100       2359 	prepare	{r29,r31},0
000007a2 8600           2360 	zxb	r6
                        2361 --	    .bf
                        2362 .LDW601:
                        2363 	jarl	_GETushSensorDefectPD,lp
                        2363 <EXPANSION BEGIN>
                        2363 jarl22 _GETushSensorDefectPD , lp 
000007a4 bfff16fe*      2363 <EXPANSION END>
000007a8 ca061008       2364 	andi	2064,r10,zero
000007ac ea05*          2365 	bne	.L4826
                        2366 --line718
                        2367 ..lin.C.3A.5C_ECU2.5CECU_Rivian_A1.5CTarget.5Crepo_projects.5CpRealEcu.5CcR_LATEST.5Cmake.5Coutput.5Cobjects.5Cprocdat.139::
                        2368 .LDWlin139:
000007ae ca9600b0       2369 	andi	45056,r10,r18
000007b2 e39714eb       2370 	cmovne	3,r18,r29
000007b6 a505*          2371 	br	.L4830
                        2372 .L4826:
                        2373 --line724
                        2374 ..lin.C.3A.5C_ECU2.5CECU_Rivian_A1.5CTarget.5Crepo_projects.5CpRealEcu.5CcR_LATEST.5Cmake.5Coutput.5Cobjects.5Cprocdat.140::
                        2375 .LDWlin140:
000007b8 01ea           2376 	mov	1,r29
                        2377 .L4830:
000007ba 1d50           2378 	mov	r29,r10
                        2379 --	    .ef
                        2380 .LDW701:
000007bc 40067f00       2381 	dispose	0,{r29,r31},[lp]
                        2382 	.global	___ghs_eofn_ucIsReHwDefectPD
                        2383 ___ghs_eofn_ucIsReHwDefectPD:
                        2384 	.type	_ucIsReHwDefectPD,@function
                        2385 	.size	_ucIsReHwDefectPD,.-_ucIsReHwDefectPD
                        2386 	.align	2
                        2387 --_ucRet	r29	local
                        2388 
                        2389 --_ZomSlot	r6	param
                        2390 
                        2391 	.section ".bss","awb"
                        2392 .L5086:
                        2393 	.type	.L5086,@object
                        2394 	.size	.L5086,0
                        2395 	.data
                        2396 	.text
                        2397 	.align	2
                        2398 	.align	2
                        2399 ..gh.f.f.1.e.49:
                        2400 	.type	..gh.f.f.1.e.49,@object
                        2401 	.size	..gh.f.f.1.e.49,0
                        2402 	.global	_bIsReOverTempPD
                        2403 _bIsReOverTempPD:
000007c0 80072100       2404 	prepare	{r31},0
000007c4 8600           2405 	zxb	r6
                        2406 --	    .bf
                        2407 .LDW801:
                        2408 	jarl	_GETucTransModePD,lp
                        2408 <EXPANSION BEGIN>
                        2408 jarl22 _GETucTransModePD , lp 
000007c6 bfffd4fd*      2408 <EXPANSION END>
000007ca ca4e0400       2409 	andi	4,r10,r9
000007ce 644a           2410 	cmp	4,r9
000007d0 e2570000       2411 	setfe	r10
                        2412 --	    .ef
                        2413 .LDW901:

                                                                      Page 44
                                                              C:\Users\nhuliyap\AppData\Local\Temp\gh_00006641.s
                        2414 --line739
                        2415 ..lin.C.3A.5C_ECU2.5CECU_Rivian_A1.5CTarget.5Crepo_projects.5CpRealEcu.5CcR_LATEST.5Cmake.5Coutput.5Cobjects.5Cprocdat.141::
                        2416 .LDWlin141:
000007d4 40063f00       2417 	dispose	0,{r31},[lp]
                        2418 	.global	___ghs_eofn_bIsReOverTempPD
                        2419 ___ghs_eofn_bIsReOverTempPD:
                        2420 	.type	_bIsReOverTempPD,@function
                        2421 	.size	_bIsReOverTempPD,.-_bIsReOverTempPD
                        2422 	.align	2
                        2423 --_bRet	r10	local
                        2424 
                        2425 --_ZomSlot	r6	param
                        2426 
                        2427 	.section ".bss","awb"
                        2428 .L5186:
                        2429 	.type	.L5186,@object
                        2430 	.size	.L5186,0
                        2431 	.data
                        2432 	.text
                        2433 	.align	2
                        2434 	.align	2
                        2435 ..gh.f.f.1.e.50:
                        2436 	.type	..gh.f.f.1.e.50,@object
                        2437 	.size	..gh.f.f.1.e.50,0
                        2438 	.global	_bIsReLowLifeTimePD
                        2439 _bIsReLowLifeTimePD:
000007d8 80072100       2440 	prepare	{r31},0
000007dc 8600           2441 	zxb	r6
                        2442 --	    .bf
                        2443 .LDW011:
                        2444 	jarl	_GETucRestlebensdauerPD,lp
                        2444 <EXPANSION BEGIN>
                        2444 jarl22 _GETucRestlebensdauerPD , lp 
000007de bfff7cfd*      2444 <EXPANSION END>
000007e2 6152           2445 	cmp	1,r10
000007e4 e2570000       2446 	setfe	r10
                        2447 --	    .ef
                        2448 .LDW111:
                        2449 --line752
                        2450 ..lin.C.3A.5C_ECU2.5CECU_Rivian_A1.5CTarget.5Crepo_projects.5CpRealEcu.5CcR_LATEST.5Cmake.5Coutput.5Cobjects.5Cprocdat.142::
                        2451 .LDWlin142:
000007e8 40063f00       2452 	dispose	0,{r31},[lp]
                        2453 	.global	___ghs_eofn_bIsReLowLifeTimePD
                        2454 ___ghs_eofn_bIsReLowLifeTimePD:
                        2455 	.type	_bIsReLowLifeTimePD,@function
                        2456 	.size	_bIsReLowLifeTimePD,.-_bIsReLowLifeTimePD
                        2457 	.align	2
                        2458 --_bRet	r10	local
                        2459 
                        2460 --_ZomSlot	r6	param
                        2461 
                        2462 	.section ".bss","awb"
                        2463 .L5250:
                        2464 	.type	.L5250,@object
                        2465 	.size	.L5250,0
                        2466 	.data
                        2467 	.text
                        2468 	.align	2
                        2469 	.align	2
                        2470 ..gh.f.f.1.e.51:
                        2471 	.type	..gh.f.f.1.e.51,@object

                                                                      Page 45
                                                              C:\Users\nhuliyap\AppData\Local\Temp\gh_00006641.s
                        2472 	.size	..gh.f.f.1.e.51,0
                        2473 	.global	_CalcPatmo
                        2474 _CalcPatmo:
000007ec 8207e110       2475 	prepare	{r27,r28,r29,r31},1
000007f0 3d0600000000*  2476 	mov	.L5356,r29
                        2477 --	    .bf
                        2478 .LDW211:
                        2479 --line779
                        2480 ..lin.C.3A.5C_ECU2.5CECU_Rivian_A1.5CTarget.5Crepo_projects.5CpRealEcu.5CcR_LATEST.5Cmake.5Coutput.5Cobjects.5Cprocdat.143::
                        2481 .LDWlin143:
000007f6 3c0600000000*  2482 	mov	.L5384,r28
000007fc 1cf0           2483 	mov	r28,ep
000007fe 6098           2484 	sld.bu	0[ep],r19
                        2485 --line778
                        2486 ..lin.C.3A.5C_ECU2.5CECU_Rivian_A1.5CTarget.5Crepo_projects.5CpRealEcu.5CcR_LATEST.5Cmake.5Coutput.5Cobjects.5Cprocdat.144::
                        2487 .LDWlin144:
00000800 43070300       2488 	st.b	zero,3[sp]
00000804 419a           2489 	add	1,r19
00000806 809b           2490 	sst.b	r19,0[ep]
00000808 d89a           2491 	shl	24,r19
0000080a b235*          2492 	be	.L5271
                        2493 --line781
                        2494 ..lin.C.3A.5C_ECU2.5CECU_Rivian_A1.5CTarget.5Crepo_projects.5CpRealEcu.5CcR_LATEST.5Cmake.5Coutput.5Cobjects.5Cprocdat.145::
                        2495 .LDWlin145:
0000080c 23360300       2496 	movea	3,sp,r6
                        2497 	jarl	_ReceiveGetFmmotmax,lp
                        2497 <EXPANSION BEGIN>
                        2497 jarl22 _ReceiveGetFmmotmax , lp 
00000810 80ff0000*      2497 <EXPANSION END>
                        2498 --line783
                        2499 ..lin.C.3A.5C_ECU2.5CECU_Rivian_A1.5CTarget.5Crepo_projects.5CpRealEcu.5CcR_LATEST.5Cmake.5Coutput.5Cobjects.5Cprocdat.146::
                        2500 .LDWlin146:
00000814 a3df0300       2501 	ld.bu	3[sp],r27
00000818 e0d9           2502 	cmp	zero,r27
0000081a 922d*          2503 	be	.L5275
                        2504 --line784
                        2505 ..lin.C.3A.5C_ECU2.5CECU_Rivian_A1.5CTarget.5Crepo_projects.5CpRealEcu.5CcR_LATEST.5Cmake.5Coutput.5Cobjects.5Cprocdat.147::
                        2506 .LDWlin147:
0000081c 3d570100       2507 	ld.w	0[r29],r10
00000820 0a8e5eea       2508 	addi	-5538,r10,r17
00000824 1106abea       2509 	addi	-5461,r17,zero
00000828 d905*          2510 	bnl	.L5277
                        2511 --line785
                        2512 ..lin.C.3A.5C_ECU2.5CECU_Rivian_A1.5CTarget.5Crepo_projects.5CpRealEcu.5CcR_LATEST.5Cmake.5Coutput.5Cobjects.5Cprocdat.148::
                        2513 .LDWlin148:
                        2514 	jarl	_GETucPatmoPD,lp
                        2514 <EXPANSION BEGIN>
                        2514 jarl22 _GETucPatmoPD , lp 
0000082a bfffbafd*      2514 <EXPANSION END>
0000082e fa575e02       2515 	mulu	250,r10,zero
                        2516 .L5277:
                        2517 --line787
                        2518 ..lin.C.3A.5C_ECU2.5CECU_Rivian_A1.5CTarget.5Crepo_projects.5CpRealEcu.5CcR_LATEST.5Cmake.5Coutput.5Cobjects.5Cprocdat.149::
                        2519 .LDWlin149:
00000832 fb364e00       2520 	mulhi	78,r27,r6
00000836 e9574202       2521 	mulu	9,r10,zero
0000083a 3106cdcccccc   2522 	mov	-858993459,r17
00000840 1180           2523 	mov	r17,r16
00000842 c600           2524 	zxh	r6
00000844 ca31           2525 	add	r10,r6
00000846 e687228a       2526 	mulu	r6,r16,r17

                                                                      Page 46
                                                              C:\Users\nhuliyap\AppData\Local\Temp\gh_00006641.s
                        2527 --line790
                        2528 ..lin.C.3A.5C_ECU2.5CECU_Rivian_A1.5CTarget.5Crepo_projects.5CpRealEcu.5CcR_LATEST.5Cmake.5Coutput.5Cobjects.5Cprocdat.150::
                        2529 .LDWlin150:
0000084a 2f06d34d6210   2530 	mov	274877907,r15
00000850 0f90           2531 	mov	r15,r18
00000852 838a           2532 	shr	3,r17
00000854 11862700       2533 	addi	39,r17,r16
00000858 d000           2534 	zxh	r16
0000085a f097229a       2535 	mulu	r16,r18,r19
0000085e 7d8f0100       2536 	st.w	r17,0[r29]
00000862 849a           2537 	shr	4,r19
                        2538 --line792
                        2539 ..lin.C.3A.5C_ECU2.5CECU_Rivian_A1.5CTarget.5Crepo_projects.5CpRealEcu.5CcR_LATEST.5Cmake.5Coutput.5Cobjects.5Cprocdat.151::
                        2540 .LDWlin151:
00000864 d336ff00       2541 	andi	255,r19,r6
                        2542 	jarl	_PUTucPatmoPD,lp
                        2542 <EXPANSION BEGIN>
                        2542 jarl22 _PUTucPatmoPD , lp 
00000868 bfff98f7*      2542 <EXPANSION END>
                        2543 .L5275:
                        2544 --line795
                        2545 ..lin.C.3A.5C_ECU2.5CECU_Rivian_A1.5CTarget.5Crepo_projects.5CpRealEcu.5CcR_LATEST.5Cmake.5Coutput.5Cobjects.5Cprocdat.152::
                        2546 .LDWlin152:
0000086c 5c070000       2547 	st.b	zero,0[r28]
                        2548 .L5271:
                        2549 --	    .ef
                        2550 .LDW311:
00000870 4206ff10       2551 	dispose	1,{r27,r28,r29,r31},[lp]
                        2552 	.global	___ghs_eofn_CalcPatmo
                        2553 ___ghs_eofn_CalcPatmo:
                        2554 	.type	_CalcPatmo,@function
                        2555 	.size	_CalcPatmo,.-_CalcPatmo
                        2556 	.align	2
                        2557 --_uc1secTimer	.L5384	static
                        2558 --_ulMeanValue	.L5383	static
                        2559 --_ucFmmotmax	3[sp]	local
                        2560 --_ushCalcValue	r6	local
                        2561 
                        2562 	.section ".bss","awb"
                        2563 .L5356:
                        2564 	.type	.L5356,@object
                        2565 	.size	.L5356,0
                        2566 	.global	_ulMeanValue.CalcPatmo.C.3A.5C_ECU2.5CECU_Rivian_A1.5CTarget.5Crepo_projects.5CpRealEcu.5CcR_LATEST.5Cmake.5Coutput.5Cobjects.5Cprocdat..18
                        2567 _ulMeanValue.CalcPatmo.C.3A.5C_ECU2.5CECU_Rivian_A1.5CTarget.5Crepo_projects.5CpRealEcu.5CcR_LATEST.5Cmake.5Coutput.5Cobjects.5Cprocdat..18:
0000019c 00000000       2568 .L5383:	.space	4
                        2569 	.type	_ulMeanValue.CalcPatmo.C.3A.5C_ECU2.5CECU_Rivian_A1.5CTarget.5Crepo_projects.5CpRealEcu.5CcR_LATEST.5Cmake.5Coutput.5Cobjects.5Cprocdat..18,@object
                        2570 	.size	_ulMeanValue.CalcPatmo.C.3A.5C_ECU2.5CECU_Rivian_A1.5CTarget.5Crepo_projects.5CpRealEcu.5CcR_LATEST.5Cmake.5Coutput.5Cobjects.5Cprocdat..18,4
                        2571 	.type	.L5383,@object
                        2572 	.size	.L5383,4
                        2573 	.data
                        2574 .L5384:
                        2575 	.global	_uc1secTimer.CalcPatmo.C.3A.5C_ECU2.5CECU_Rivian_A1.5CTarget.5Crepo_projects.5CpRealEcu.5CcR_LATEST.5Cmake.5Coutput.5Cobjects.5Cprocdat..17
                        2576 _uc1secTimer.CalcPatmo.C.3A.5C_ECU2.5CECU_Rivian_A1.5CTarget.5Crepo_projects.5CpRealEcu.5CcR_LATEST.5Cmake.5Coutput.5Cobjects.5Cprocdat..17:
0000000c 00             2577 	.byte	0
                        2578 	.type	_uc1secTimer.CalcPatmo.C.3A.5C_ECU2.5CECU_Rivian_A1.5CTarget.5Crepo_projects.5CpRealEcu.5CcR_LATEST.5Cmake.5Coutput.5Cobjects.5Cprocdat..17,@object
                        2579 	.size	_uc1secTimer.CalcPatmo.C.3A.5C_ECU2.5CECU_Rivian_A1.5CTarget.5Crepo_projects.5CpRealEcu.5CcR_LATEST.5Cmake.5Coutput.5Cobjects.5Cprocdat..17,1
                        2580 	.type	.L5384,@object
                        2581 	.size	.L5384,1
                        2582 	.text
                        2583 	.align	2
                        2584 	.align	2

                                                                      Page 47
                                                              C:\Users\nhuliyap\AppData\Local\Temp\gh_00006641.s
                        2585 ..gh.f.f.1.e.52:
                        2586 	.type	..gh.f.f.1.e.52,@object
                        2587 	.size	..gh.f.f.1.e.52,0
                        2588 	.global	_SaveRotatS
                        2589 _SaveRotatS:
00000874 3e0600000000*  2590 	mov	_ucRotL-1,ep
                        2591 --	    .bf
                        2592 .LDW411:
                        2593 --line802
                        2594 ..lin.C.3A.5C_ECU2.5CECU_Rivian_A1.5CTarget.5Crepo_projects.5CpRealEcu.5CcR_LATEST.5Cmake.5Coutput.5Cobjects.5Cprocdat.153::
                        2595 .LDWlin153:
0000087a 9e871100       2596 	ld.bu	16[ep],r16
0000087e 6f78           2597 	sld.bu	15[ep],r15
00000880 8183           2598 	sst.b	r16,1[ep]
00000882 827b           2599 	sst.b	r15,2[ep]
                        2600 --	    .ef
                        2601 .LDW511:
00000884 7f00           2602 	jmp	[lp]
                        2603 	.global	___ghs_eofn_SaveRotatS
                        2604 ___ghs_eofn_SaveRotatS:
                        2605 	.type	_SaveRotatS,@function
                        2606 	.size	_SaveRotatS,.-_SaveRotatS
                        2607 	.align	2
                        2608 
                        2609 	.data
                        2610 	.text
                        2611 	.align	2
                        2612 	.align	2
                        2613 ..gh.f.f.1.e.53:
                        2614 	.type	..gh.f.f.1.e.53,@object
                        2615 	.size	..gh.f.f.1.e.53,0
                        2616 	.global	_PutRotatSDataInBuffer
                        2617 _PutRotatSDataInBuffer:
00000886 80076100       2618 	prepare	{r29,r31},0
0000088a 3d0600000000*  2619 	mov	_ucRotatSTelIndexPut,r29
                        2620 --	    .bf
                        2621 .LDW611:
                        2622 --line809
                        2623 ..lin.C.3A.5C_ECU2.5CECU_Rivian_A1.5CTarget.5Crepo_projects.5CpRealEcu.5CcR_LATEST.5Cmake.5Coutput.5Cobjects.5Cprocdat.154::
                        2624 .LDWlin154:
00000890 9d970100       2625 	ld.bu	0[r29],r18
00000894 6c92           2626 	cmp	12,r18
00000896 d91d*          2627 	bnl	.L5476
                        2628 --line810
                        2629 ..lin.C.3A.5C_ECU2.5CECU_Rivian_A1.5CTarget.5Crepo_projects.5CpRealEcu.5CcR_LATEST.5Cmake.5Coutput.5Cobjects.5Cprocdat.155::
                        2630 .LDWlin155:
00000898 f2961c00       2631 	mulhi	28,r18,r18
0000089c 06f0           2632 	mov	r6,ep
0000089e 006d           2633 	sld.w	0[ep],r13
000008a0 008a           2634 	mov	0,r17
000008a2 dd91           2635 	add	r29,r18
000008a4 726f2d00       2636 	st.w	r13,44[r18]
000008a8 7260           2637 	sld.hu	4[ep],r12
000008aa 72673000       2638 	st.h	r12,48[r18]
000008ae 12962c00       2639 	addi	44,r18,r18
                        2640 .L5480:
000008b2 1198           2641 	mov	r17,r19
000008b4 c699           2642 	add	r6,r19
000008b6 935f0700       2643 	ld.bu	6[r19],r11
000008ba 11f0           2644 	mov	r17,ep
000008bc d2f1           2645 	add	r18,ep

                                                                      Page 48
                                                              C:\Users\nhuliyap\AppData\Local\Temp\gh_00006641.s
000008be 418a           2646 	add	1,r17
000008c0 865b           2647 	sst.b	r11,6[ep]
000008c2 1106f0ff       2648 	addi	-16,r17,zero
000008c6 e9f5*          2649 	bnl	.L5480
                        2650 --line815
                        2651 ..lin.C.3A.5C_ECU2.5CECU_Rivian_A1.5CTarget.5Crepo_projects.5CpRealEcu.5CcR_LATEST.5Cmake.5Coutput.5Cobjects.5Cprocdat.156::
                        2652 .LDWlin156:
000008c8 12361800       2653 	addi	24,r18,r6
                        2654 	jarl	_ReceiveGetVehicleSpeed,lp
                        2654 <EXPANSION BEGIN>
                        2654 jarl22 _ReceiveGetVehicleSpeed , lp 
000008cc 80ff0000*      2654 <EXPANSION END>
                        2655 .L5476:
                        2656 --line818
                        2657 ..lin.C.3A.5C_ECU2.5CECU_Rivian_A1.5CTarget.5Crepo_projects.5CpRealEcu.5CcR_LATEST.5Cmake.5Coutput.5Cobjects.5Cprocdat.157::
                        2658 .LDWlin157:
000008d0 1df0           2659 	mov	r29,ep
000008d2 6088           2660 	sld.bu	0[ep],r17
000008d4 0c72           2661 	mov	12,r14
000008d6 11860100       2662 	addi	1,r17,r16
000008da 9000           2663 	zxb	r16
000008dc ee87fe7a       2664 	divqu	r14,r16,r15
000008e0 807b           2665 	sst.b	r15,0[ep]
                        2666 --	    .ef
                        2667 .LDW711:
000008e2 40067f00       2668 	dispose	0,{r29,r31},[lp]
                        2669 	.global	___ghs_eofn_PutRotatSDataInBuffer
                        2670 ___ghs_eofn_PutRotatSDataInBuffer:
                        2671 	.type	_PutRotatSDataInBuffer,@function
                        2672 	.size	_PutRotatSDataInBuffer,.-_PutRotatSDataInBuffer
                        2673 	.align	2
                        2674 --_i	r17	local
                        2675 
                        2676 --_spRxDataIn	r6	param
                        2677 
                        2678 	.data
                        2679 	.text
                        2680 	.align	2
                        2681 	.align	2
                        2682 ..gh.f.f.1.e.54:
                        2683 	.type	..gh.f.f.1.e.54,@object
                        2684 	.size	..gh.f.f.1.e.54,0
                        2685 	.global	_pGetRotatSDataTFromBuffer
                        2686 _pGetRotatSDataTFromBuffer:
000008e6 8600           2687 	zxb	r6
                        2688 --	    .bf
                        2689 .LDW811:
000008e8 e6561c00       2690 	mulhi	28,r6,r10
000008ec 330600000000*  2691 	mov	_tWs_RxRotatSBuf,r19
000008f2 d351           2692 	add	r19,r10
                        2693 --	    .ef
                        2694 .LDW911:
                        2695 --line823
                        2696 ..lin.C.3A.5C_ECU2.5CECU_Rivian_A1.5CTarget.5Crepo_projects.5CpRealEcu.5CcR_LATEST.5Cmake.5Coutput.5Cobjects.5Cprocdat.158::
                        2697 .LDWlin158:
000008f4 7f00           2698 	jmp	[lp]
                        2699 	.global	___ghs_eofn_pGetRotatSDataTFromBuffer
                        2700 ___ghs_eofn_pGetRotatSDataTFromBuffer:
                        2701 	.type	_pGetRotatSDataTFromBuffer,@function
                        2702 	.size	_pGetRotatSDataTFromBuffer,.-_pGetRotatSDataTFromBuffer
                        2703 	.align	2

                                                                      Page 49
                                                              C:\Users\nhuliyap\AppData\Local\Temp\gh_00006641.s
                        2704 
                        2705 --_ucBufferIndex	r6	param
                        2706 
                        2707 	.data
                        2708 	.text
                        2709 	.align	2
                        2710 	.align	2
                        2711 ..gh.f.f.1.e.55:
                        2712 	.type	..gh.f.f.1.e.55,@object
                        2713 	.size	..gh.f.f.1.e.55,0
                        2714 	.global	_ucGetRotatSDataBufferIndex
                        2715 _ucGetRotatSDataBufferIndex:
                        2716 --	    .bf
                        2717 .LDW021:
000008f6 40560000*      2718 	movhi	hi(_ucRotatSTelIndexPut),zero,r10
000008fa 8a570100*      2719 	ld.bu	lo(_ucRotatSTelIndexPut)[r10],r10
                        2720 --	    .ef
                        2721 .LDW121:
                        2722 --line827
                        2723 ..lin.C.3A.5C_ECU2.5CECU_Rivian_A1.5CTarget.5Crepo_projects.5CpRealEcu.5CcR_LATEST.5Cmake.5Coutput.5Cobjects.5Cprocdat.159::
                        2724 .LDWlin159:
000008fe 7f00           2725 	jmp	[lp]
                        2726 	.global	___ghs_eofn_ucGetRotatSDataBufferIndex
                        2727 ___ghs_eofn_ucGetRotatSDataBufferIndex:
                        2728 	.type	_ucGetRotatSDataBufferIndex,@function
                        2729 	.size	_ucGetRotatSDataBufferIndex,.-_ucGetRotatSDataBufferIndex
                        2730 	.align	2
                        2731 
                        2732 	.data
                        2733 	.text
                        2734 	.align	2
                        2735 	.align	2
                        2736 ..gh.f.f.1.e.56:
                        2737 	.type	..gh.f.f.1.e.56,@object
                        2738 	.size	..gh.f.f.1.e.56,0
                        2739 	.global	_ushGetRotatSVehSpeed
                        2740 _ushGetRotatSVehSpeed:
                        2741 --	    .bf
                        2742 .LDW221:
00000900 404e0000*      2743 	movhi	hi(_ucRotatSTelIndexGet),zero,r9
00000904 894f0100*      2744 	ld.bu	lo(_ucRotatSTelIndexGet)[r9],r9
00000908 6c4a           2745 	cmp	12,r9
0000090a 990d*          2746 	bnl	.L5689
                        2747 --line834
                        2748 ..lin.C.3A.5C_ECU2.5CECU_Rivian_A1.5CTarget.5Crepo_projects.5CpRealEcu.5CcR_LATEST.5Cmake.5Coutput.5Cobjects.5Cprocdat.160::
                        2749 .LDWlin160:
0000090c e9f61c00       2750 	mulhi	28,r9,ep
00000910 280600000000*  2751 	mov	_tWs_RxRotatSBuf,r8
00000916 c8f1           2752 	add	r8,ep
00000918 7c50           2753 	sld.hu	24[ep],r10
0000091a 7f00           2754 	jmp	[lp]
                        2755 .L5689:
0000091c 0052           2756 	mov	0,r10
                        2757 --	    .ef
                        2758 .LDW321:
                        2759 --line839
                        2760 ..lin.C.3A.5C_ECU2.5CECU_Rivian_A1.5CTarget.5Crepo_projects.5CpRealEcu.5CcR_LATEST.5Cmake.5Coutput.5Cobjects.5Cprocdat.161::
                        2761 .LDWlin161:
0000091e 7f00           2762 	jmp	[lp]
                        2763 	.global	___ghs_eofn_ushGetRotatSVehSpeed
                        2764 ___ghs_eofn_ushGetRotatSVehSpeed:

                                                                      Page 50
                                                              C:\Users\nhuliyap\AppData\Local\Temp\gh_00006641.s
                        2765 	.type	_ushGetRotatSVehSpeed,@function
                        2766 	.size	_ushGetRotatSVehSpeed,.-_ushGetRotatSVehSpeed
                        2767 	.align	2
                        2768 --_VehicleSpeedValue	r10	local
                        2769 
                        2770 	.data
                        2771 	.text
                        2772 	.align	2
                        2773 	.align	2
                        2774 ..gh.f.f.1.e.57:
                        2775 	.type	..gh.f.f.1.e.57,@object
                        2776 	.size	..gh.f.f.1.e.57,0
                        2777 	.global	_DCM_InvIf_RxStatusFieldGetValue
                        2778 _DCM_InvIf_RxStatusFieldGetValue:
00000920 06f0           2779 	mov	r6,ep
00000922 320600000000*  2780 	mov	_tReDataPD,r18
                        2781 --	    .bf
                        2782 .LDW421:
                        2783 --line844
                        2784 ..lin.C.3A.5C_ECU2.5CECU_Rivian_A1.5CTarget.5Crepo_projects.5CpRealEcu.5CcR_LATEST.5Cmake.5Coutput.5Cobjects.5Cprocdat.162::
                        2785 .LDWlin162:
00000928 928f0300       2786 	ld.bu	2[r18],r17
0000092c 11065dff       2787 	addi	-163,r17,zero
00000930 c205*          2788 	be	.L5784
00000932 11067dff       2789 	addi	-131,r17,zero
00000936 fa05*          2790 	bne	.L5783
                        2791 .L5784:
                        2792 --line845
                        2793 ..lin.C.3A.5C_ECU2.5CECU_Rivian_A1.5CTarget.5Crepo_projects.5CpRealEcu.5CcR_LATEST.5Cmake.5Coutput.5Cobjects.5Cprocdat.163::
                        2794 .LDWlin163:
00000938 b2770900       2795 	ld.bu	9[r18],r14
0000093c 8073           2796 	sst.b	r14,0[ep]
0000093e 92870b00       2797 	ld.bu	10[r18],r16
00000942 b505*          2798 	br	.L5806
                        2799 .L5783:
                        2800 --line849
                        2801 ..lin.C.3A.5C_ECU2.5CECU_Rivian_A1.5CTarget.5Crepo_projects.5CpRealEcu.5CcR_LATEST.5Cmake.5Coutput.5Cobjects.5Cprocdat.164::
                        2802 .LDWlin164:
00000944 8003           2803 	sst.b	zero,0[ep]
00000946 0082           2804 	mov	0,r16
                        2805 .L5806:
00000948 8183           2806 	sst.b	r16,1[ep]
                        2807 --	    .ef
                        2808 .LDW521:
0000094a 7f00           2809 	jmp	[lp]
                        2810 	.global	___ghs_eofn_DCM_InvIf_RxStatusFieldGetValue
                        2811 ___ghs_eofn_DCM_InvIf_RxStatusFieldGetValue:
                        2812 	.type	_DCM_InvIf_RxStatusFieldGetValue,@function
                        2813 	.size	_DCM_InvIf_RxStatusFieldGetValue,.-_DCM_InvIf_RxStatusFieldGetValue
                        2814 	.align	2
                        2815 
                        2816 --_u8_StatusFieldValue	ep	param
                        2817 
                        2818 	.data
                        2819 	.text
                        2820 	.align	2
                        2821 	.align	2
                        2822 ..gh.f.f.1.e.58:
                        2823 	.type	..gh.f.f.1.e.58,@object
                        2824 	.size	..gh.f.f.1.e.58,0
                        2825 	.global	_DCM_InvIf_PressLastRxIDGetValue

                                                                      Page 51
                                                              C:\Users\nhuliyap\AppData\Local\Temp\gh_00006641.s
                        2826 _DCM_InvIf_PressLastRxIDGetValue:
                        2827 --	    .bf
                        2828 .LDW621:
0000094c bf0786f8*      2829 	jr	_ucGetReDataPreProcPressurePD
                        2830 --	    .ef
                        2831 .LDW721:
                        2832 	.global	___ghs_eofn_DCM_InvIf_PressLastRxIDGetValue
                        2833 ___ghs_eofn_DCM_InvIf_PressLastRxIDGetValue:
                        2834 	.type	_DCM_InvIf_PressLastRxIDGetValue,@function
                        2835 	.size	_DCM_InvIf_PressLastRxIDGetValue,.-_DCM_InvIf_PressLastRxIDGetValue
                        2836 	.align	2
                        2837 
                        2838 	.section ".bss","awb"
                        2839 .L5924:
                        2840 	.type	.L5924,@object
                        2841 	.size	.L5924,0
                        2842 	.data
                        2843 	.text
                        2844 	.align	2
                        2845 	.align	2
                        2846 ..gh.f.f.1.e.59:
                        2847 	.type	..gh.f.f.1.e.59,@object
                        2848 	.size	..gh.f.f.1.e.59,0
                        2849 	.global	_DCM_InvIf_TempLastRxIDGetValue
                        2850 _DCM_InvIf_TempLastRxIDGetValue:
                        2851 --	    .bf
                        2852 .LDW821:
00000950 bf079af8*      2853 	jr	_scGetReDataPreProcTemperaturePD
                        2854 --	    .ef
                        2855 .LDW921:
                        2856 	.global	___ghs_eofn_DCM_InvIf_TempLastRxIDGetValue
                        2857 ___ghs_eofn_DCM_InvIf_TempLastRxIDGetValue:
                        2858 	.type	_DCM_InvIf_TempLastRxIDGetValue,@function
                        2859 	.size	_DCM_InvIf_TempLastRxIDGetValue,.-_DCM_InvIf_TempLastRxIDGetValue
                        2860 	.align	2
                        2861 
                        2862 	.section ".bss","awb"
                        2863 .L5972:
                        2864 	.type	.L5972,@object
                        2865 	.size	.L5972,0
                        2866 	.data
                        2867 	.text
                        2868 	.align	2
                        2869 	.align	2
                        2870 ..gh.f.f.1.e.60:
                        2871 	.type	..gh.f.f.1.e.60,@object
                        2872 	.size	..gh.f.f.1.e.60,0
                        2873 	.global	_DCM_InvIf_LastRxIDGetValue
                        2874 _DCM_InvIf_LastRxIDGetValue:
00000954 06f0           2875 	mov	r6,ep
00000956 320600000000*  2876 	mov	_tReDataPD,r18
                        2877 --	    .bf
                        2878 .LDW031:
                        2879 --line864
                        2880 ..lin.C.3A.5C_ECU2.5CECU_Rivian_A1.5CTarget.5Crepo_projects.5CpRealEcu.5CcR_LATEST.5Cmake.5Coutput.5Cobjects.5Cprocdat.165::
                        2881 .LDWlin165:
0000095c b2870300       2882 	ld.bu	3[r18],r16
00000960 8083           2883 	sst.b	r16,0[ep]
00000962 927f0500       2884 	ld.bu	4[r18],r15
00000966 817b           2885 	sst.b	r15,1[ep]
00000968 b2770500       2886 	ld.bu	5[r18],r14

                                                                      Page 52
                                                              C:\Users\nhuliyap\AppData\Local\Temp\gh_00006641.s
0000096c 8273           2887 	sst.b	r14,2[ep]
0000096e 926f0700       2888 	ld.bu	6[r18],r13
00000972 836b           2889 	sst.b	r13,3[ep]
                        2890 --	    .ef
                        2891 .LDW131:
00000974 7f00           2892 	jmp	[lp]
                        2893 	.global	___ghs_eofn_DCM_InvIf_LastRxIDGetValue
                        2894 ___ghs_eofn_DCM_InvIf_LastRxIDGetValue:
                        2895 	.type	_DCM_InvIf_LastRxIDGetValue,@function
                        2896 	.size	_DCM_InvIf_LastRxIDGetValue,.-_DCM_InvIf_LastRxIDGetValue
                        2897 	.align	2
                        2898 
                        2899 --_u8_LastIdReceived	ep	param
                        2900 
                        2901 	.data
                        2902 	.text
                        2903 	.align	2
                        2904 	.align	2
                        2905 ..gh.f.f.1.e.61:
                        2906 	.type	..gh.f.f.1.e.61,@object
                        2907 	.size	..gh.f.f.1.e.61,0
                        2908 	.global	_DCM_InvIf_TelTypeCurrIDGetValue
                        2909 _DCM_InvIf_TelTypeCurrIDGetValue:
                        2910 --	    .bf
                        2911 .LDW231:
00000976 bf0712f8*      2912 	jr	_ucGetReDataTelTypePD
                        2913 --	    .ef
                        2914 .LDW331:
                        2915 	.global	___ghs_eofn_DCM_InvIf_TelTypeCurrIDGetValue
                        2916 ___ghs_eofn_DCM_InvIf_TelTypeCurrIDGetValue:
                        2917 	.type	_DCM_InvIf_TelTypeCurrIDGetValue,@function
                        2918 	.size	_DCM_InvIf_TelTypeCurrIDGetValue,.-_DCM_InvIf_TelTypeCurrIDGetValue
                        2919 	.align	2
                        2920 
                        2921 	.section ".bss","awb"
                        2922 .L6068:
                        2923 	.type	.L6068,@object
                        2924 	.size	.L6068,0
                        2925 	.data
                        2926 	.text
                        2927 	.align	2
                        2928 	.align	2
                        2929 ..gh.f.f.1.e.62:
                        2930 	.type	..gh.f.f.1.e.62,@object
                        2931 	.size	..gh.f.f.1.e.62,0
                        2932 	.global	_DCM_InvIf_RFTimeStampGetValue
                        2933 _DCM_InvIf_RFTimeStampGetValue:
0000097a 06f0           2934 	mov	r6,ep
0000097c 320600000000*  2935 	mov	_tReDataPD,r18
                        2936 --	    .bf
                        2937 .LDW431:
                        2938 --line876
                        2939 ..lin.C.3A.5C_ECU2.5CECU_Rivian_A1.5CTarget.5Crepo_projects.5CpRealEcu.5CcR_LATEST.5Cmake.5Coutput.5Cobjects.5Cprocdat.166::
                        2940 .LDWlin166:
00000982 328f1500       2941 	ld.w	20[r18],r17
00000986 908a           2942 	shr	16,r17
00000988 808b           2943 	sst.b	r17,0[ep]
0000098a 32871500       2944 	ld.w	20[r18],r16
0000098e 8882           2945 	shr	8,r16
00000990 8183           2946 	sst.b	r16,1[ep]
00000992 926f1500       2947 	ld.bu	20[r18],r13

                                                                      Page 53
                                                              C:\Users\nhuliyap\AppData\Local\Temp\gh_00006641.s
00000996 826b           2948 	sst.b	r13,2[ep]
                        2949 --	    .ef
                        2950 .LDW531:
00000998 7f00           2951 	jmp	[lp]
                        2952 	.global	___ghs_eofn_DCM_InvIf_RFTimeStampGetValue
                        2953 ___ghs_eofn_DCM_InvIf_RFTimeStampGetValue:
                        2954 	.type	_DCM_InvIf_RFTimeStampGetValue,@function
                        2955 	.size	_DCM_InvIf_RFTimeStampGetValue,.-_DCM_InvIf_RFTimeStampGetValue
                        2956 	.align	2
                        2957 
                        2958 --_u8_TimeStampValue	ep	param
                        2959 
                        2960 	.data
                        2961 	.text
                        2962 	.align	2
                        2963 	.align	2
                        2964 ..gh.f.f.1.e.63:
                        2965 	.type	..gh.f.f.1.e.63,@object
                        2966 	.size	..gh.f.f.1.e.63,0
                        2967 	.global	_DCM_InvIf_RawRSSIGetValue
                        2968 _DCM_InvIf_RawRSSIGetValue:
                        2969 --	    .bf
                        2970 .LDW631:
0000099a 40560000*      2971 	movhi	hi(_tReDataPD+16),zero,r10
0000099e 8a570100*      2972 	ld.bu	lo(_tReDataPD+16)[r10],r10
                        2973 --	    .ef
                        2974 .LDW731:
                        2975 --line881
                        2976 ..lin.C.3A.5C_ECU2.5CECU_Rivian_A1.5CTarget.5Crepo_projects.5CpRealEcu.5CcR_LATEST.5Cmake.5Coutput.5Cobjects.5Cprocdat.167::
                        2977 .LDWlin167:
000009a2 7f00           2978 	jmp	[lp]
                        2979 	.global	___ghs_eofn_DCM_InvIf_RawRSSIGetValue
                        2980 ___ghs_eofn_DCM_InvIf_RawRSSIGetValue:
                        2981 	.type	_DCM_InvIf_RawRSSIGetValue,@function
                        2982 	.size	_DCM_InvIf_RawRSSIGetValue,.-_DCM_InvIf_RawRSSIGetValue
                        2983 	.align	2
                        2984 
                        2985 	.data
                        2986 	.text
                        2987 	.align	2
                        2988 	.align	2
                        2989 ..gh.f.f.1.e.64:
                        2990 	.type	..gh.f.f.1.e.64,@object
                        2991 	.size	..gh.f.f.1.e.64,0
                        2992 	.global	_DCM_InvIf_RecEventGetCntValue
                        2993 _DCM_InvIf_RecEventGetCntValue:
                        2994 --	    .bf
                        2995 .LDW831:
000009a4 40560000*      2996 	movhi	hi(_ucRecEventPD),zero,r10
000009a8 8a570100*      2997 	ld.bu	lo(_ucRecEventPD)[r10],r10
                        2998 --	    .ef
                        2999 .LDW931:
                        3000 --line885
                        3001 ..lin.C.3A.5C_ECU2.5CECU_Rivian_A1.5CTarget.5Crepo_projects.5CpRealEcu.5CcR_LATEST.5Cmake.5Coutput.5Cobjects.5Cprocdat.168::
                        3002 .LDWlin168:
000009ac 7f00           3003 	jmp	[lp]
                        3004 	.global	___ghs_eofn_DCM_InvIf_RecEventGetCntValue
                        3005 ___ghs_eofn_DCM_InvIf_RecEventGetCntValue:
                        3006 	.type	_DCM_InvIf_RecEventGetCntValue,@function
                        3007 	.size	_DCM_InvIf_RecEventGetCntValue,.-_DCM_InvIf_RecEventGetCntValue
                        3008 	.align	2

                                                                      Page 54
                                                              C:\Users\nhuliyap\AppData\Local\Temp\gh_00006641.s
                        3009 
                        3010 	.data
                        3011 	.text
                        3012 	.align	2
                        3013 	.align	2
                        3014 ..gh.f.f.1.e.65:
                        3015 	.type	..gh.f.f.1.e.65,@object
                        3016 	.size	..gh.f.f.1.e.65,0
                        3017 	.global	_DCM_InvIf_RawRfTelGetValue
                        3018 _DCM_InvIf_RawRfTelGetValue:
000009ae 8007e160       3019 	prepare	{r25,r26,r28,r29,r31},0
000009b2 06e0           3020 	mov	r6,r28
000009b4 07d0           3021 	mov	r7,r26
000009b6 9c00           3022 	zxb	r28
000009b8 9a00           3023 	zxb	r26
000009ba 08c8           3024 	mov	r8,r25
000009bc 3d0600000000*  3025 	mov	_tReDataPD,r29
                        3026 --	    .bf
                        3027 .LDW041:
                        3028 --line895
                        3029 ..lin.C.3A.5C_ECU2.5CECU_Rivian_A1.5CTarget.5Crepo_projects.5CpRealEcu.5CcR_LATEST.5Cmake.5Coutput.5Cobjects.5Cprocdat.169::
                        3030 .LDWlin169:
000009c2 9d370300       3031 	ld.bu	2[r29],r6
                        3032 	jarl	_ucGetLen4Cmd,lp
                        3032 <EXPANSION BEGIN>
                        3032 jarl22 _ucGetLen4Cmd , lp 
000009c6 80ff0000*      3032 <EXPANSION END>
                        3033 --line897
                        3034 ..lin.C.3A.5C_ECU2.5CECU_Rivian_A1.5CTarget.5Crepo_projects.5CpRealEcu.5CcR_LATEST.5Cmake.5Coutput.5Cobjects.5Cprocdat.170::
                        3035 .LDWlin170:
000009ca e051           3036 	cmp	zero,r10
000009cc e205*          3037 	be	.L6231
000009ce 0a0601ff       3038 	addi	-255,r10,zero
000009d2 b205*          3039 	be	.L6231
                        3040 --line898
                        3041 ..lin.C.3A.5C_ECU2.5CECU_Rivian_A1.5CTarget.5Crepo_projects.5CpRealEcu.5CcR_LATEST.5Cmake.5Coutput.5Cobjects.5Cprocdat.171::
                        3042 .LDWlin171:
000009d4 4152           3043 	add	1,r10
000009d6 8a00           3044 	zxb	r10
                        3045 .L6231:
000009d8 1c90           3046 	mov	r28,r18
000009da d50d*          3047 	br	.L6237
                        3048 .L6236:
                        3049 --line903
                        3050 ..lin.C.3A.5C_ECU2.5CECU_Rivian_A1.5CTarget.5Crepo_projects.5CpRealEcu.5CcR_LATEST.5Cmake.5Coutput.5Cobjects.5Cprocdat.172::
                        3051 .LDWlin172:
000009dc 0042           3052 	mov	0,r8
000009de ea91           3053 	cmp	r10,r18
000009e0 c905*          3054 	bnl	.L6235
                        3055 --line904
                        3056 ..lin.C.3A.5C_ECU2.5CECU_Rivian_A1.5CTarget.5Crepo_projects.5CpRealEcu.5CcR_LATEST.5Cmake.5Coutput.5Cobjects.5Cprocdat.173::
                        3057 .LDWlin173:
000009e2 12f0           3058 	mov	r18,ep
000009e4 ddf1           3059 	add	r29,ep
000009e6 6240           3060 	sld.bu	2[ep],r8
                        3061 .L6235:
000009e8 12f0           3062 	mov	r18,ep
000009ea bcf1           3063 	sub	r28,ep
000009ec d9f1           3064 	add	r25,ep
000009ee 4192           3065 	add	1,r18
000009f0 8043           3066 	sst.b	r8,0[ep]

                                                                      Page 55
                                                              C:\Users\nhuliyap\AppData\Local\Temp\gh_00006641.s
000009f2 9200           3067 	zxb	r18
                        3068 .L6237:
000009f4 1a48           3069 	mov	r26,r9
000009f6 dc49           3070 	add	r28,r9
000009f8 e991           3071 	cmp	r9,r18
000009fa 96f5*          3072 	blt	.L6236
                        3073 --	    .ef
                        3074 .LDW141:
                        3075 --line910
                        3076 ..lin.C.3A.5C_ECU2.5CECU_Rivian_A1.5CTarget.5Crepo_projects.5CpRealEcu.5CcR_LATEST.5Cmake.5Coutput.5Cobjects.5Cprocdat.174::
                        3077 .LDWlin174:
000009fc 4006ff60       3078 	dispose	0,{r25,r26,r28,r29,r31},[lp]
                        3079 	.global	___ghs_eofn_DCM_InvIf_RawRfTelGetValue
                        3080 ___ghs_eofn_DCM_InvIf_RawRfTelGetValue:
                        3081 	.type	_DCM_InvIf_RawRfTelGetValue,@function
                        3082 	.size	_DCM_InvIf_RawRfTelGetValue,.-_DCM_InvIf_RawRfTelGetValue
                        3083 	.align	2
                        3084 --_u8_LocalCnt	r18	local
                        3085 --_u8TGSize	r10	local
                        3086 
                        3087 --_u8_StartPosition	r28	param
                        3088 --_u8_NumberOfBytesToCopy	r26	param
                        3089 --_u8_RxTelegBytesValues	r25	param
                        3090 
                        3091 	.data
                        3092 	.text
                        3093 	.align	2
                        3094 	.align	2
                        3095 ..gh.f.f.1.e.66:
                        3096 	.type	..gh.f.f.1.e.66,@object
                        3097 	.size	..gh.f.f.1.e.66,0
                        3098 	.global	_DCM_InvIf_AllReceivedTelegGetValue
                        3099 _DCM_InvIf_AllReceivedTelegGetValue:
                        3100 --	    .bf
                        3101 .LDW241:
00000a00 40560000*      3102 	movhi	hi(_U8_AllReceivedTelegCnt),zero,r10
00000a04 8a570100*      3103 	ld.bu	lo(_U8_AllReceivedTelegCnt)[r10],r10
                        3104 --	    .ef
                        3105 .LDW341:
                        3106 --line912
                        3107 ..lin.C.3A.5C_ECU2.5CECU_Rivian_A1.5CTarget.5Crepo_projects.5CpRealEcu.5CcR_LATEST.5Cmake.5Coutput.5Cobjects.5Cprocdat.175::
                        3108 .LDWlin175:
00000a08 7f00           3109 	jmp	[lp]
                        3110 	.global	___ghs_eofn_DCM_InvIf_AllReceivedTelegGetValue
                        3111 ___ghs_eofn_DCM_InvIf_AllReceivedTelegGetValue:
                        3112 	.type	_DCM_InvIf_AllReceivedTelegGetValue,@function
                        3113 	.size	_DCM_InvIf_AllReceivedTelegGetValue,.-_DCM_InvIf_AllReceivedTelegGetValue
                        3114 	.align	2
                        3115 
                        3116 	.data
                        3117 	.text
                        3118 	.align	2
                        3119 --_tReDataPD	_tReDataPD	static
                        3120 --_tWs_RxRotatSBuf	_tWs_RxRotatSBuf	static
                        3121 --_ucRotatSTelIndexPut	_ucRotatSTelIndexPut	static
                        3122 --_ucTyreInvalidPressSurpressionCnt	_ucTyreInvalidPressSurpressionCnt	static
                        3123 --_ucRotL	_ucRotL	static
                        3124 --_ucSnRotH	_ucSnRotH	static
                        3125 --_ucRecEventPD	_ucRecEventPD	static
                        3126 --_U8_AllReceivedTelegCnt	_U8_AllReceivedTelegCnt	static
                        3127 --_ucReifendruckPD	_ucReifendruckPD	static

                                                                      Page 56
                                                              C:\Users\nhuliyap\AppData\Local\Temp\gh_00006641.s
                        3128 --_scTemperaturPD	_scTemperaturPD	static
                        3129 --_ucRestlebensdauerPD	_ucRestlebensdauerPD	static
                        3130 --_ucRSSIsumPD	_ucRSSIsumPD	static
                        3131 --_ucTelTypePD	_ucTelTypePD	static
                        3132 --_ucTransModePD	_ucTransModePD	static
                        3133 --_ushSensorDefectPD	_ushSensorDefectPD	static
                        3134 --_ucPatmoPD	_ucPatmoPD	static
                        3135 --_tReDataPreProcPD	_tReDataPreProcPD	static
                        3136 
                        3137 	.data
                        3138 	.section ".bss","awb"
                        3139 	.global	_ucRotatSTelIndexGet
000001a0 00             3140 _ucRotatSTelIndexGet:	.space	1
                        3141 	.type	_ucRotatSTelIndexGet,@object
                        3142 	.size	_ucRotatSTelIndexGet,1
                        3143 	.data
                        3144 	.ghsnote version,17
                        3145 	.ghsnote tools,3
                        3146 	.ghsnote options,144
                        3147 	.text
                        3148 	.align	2
                        3149 ..eof.C.3A.5C_ECU2.5CECU_Rivian_A1.5CTarget.5Crepo_projects.5CpRealEcu.5CcR_LATEST.5Cmake.5Coutput.5Cobjects.5Cprocdat...43.3A.5C_ECU2.5CECU_Rivian_A1.5CTarget.5Crepo_projects.5CpRealEcu.5CcR_LATEST.5Cmake..65044AE8..0::
                        3150 	.section	.debug_info
                        3151 .Ldw_begin:
00000000 0e2c0000       3152 	.word	.Ldw_end-.Ldw_begin-4
00000004 0200           3153 	.byte	2,0
00000006 00000000*      3154 	.word	.Ldw_abbr_begin
0000000a 04             3155 	.byte	4
                        3156 	.section	.debug_abbrev
                        3157 .Ldw_abbr_begin:
                        3158 	.section	.debug_info
0000000b 01             3159 	.byte	1
0000000c 00000000*      3160 	.word	..bof.C.3A.5C_ECU2.5CECU_Rivian_A1.5CTarget.5Crepo_projects.5CpRealEcu.5CcR_LATEST.5Cmake.5Coutput.5Cobjects.5Cprocdat...43.3A.5C_ECU2.5CECU_Rivian_A1.5CTarget.5Crepo_projects.5CpRealEcu.5CcR_LATEST.5Cmake..65044AE8..0
00000010 00000000*      3161 	.word	..eof.C.3A.5C_ECU2.5CECU_Rivian_A1.5CTarget.5Crepo_projects.5CpRealEcu.5CcR_LATEST.5Cmake.5Coutput.5Cobjects.5Cprocdat...43.3A.5C_ECU2.5CECU_Rivian_A1.5CTarget.5Crepo_projects.5CpRealEcu.5CcR_LATEST.5Cmake..65044AE8..0
00000014 2e2e2f736f75   3162 	.strz	"../source/SwcApplTpms/procdat.c"
0000001a 7263652f5377 
00000020 634170706c54 
00000026 706d732f7072 
0000002c 6f636461742e 
00000032 6300 
00000034 433a5c5f4543   3163 	.strz	"C:\\_ECU2\\ECU_Rivian_A1\\Target\\repo_projects\\pRealEcu\\cR_LATEST\\make"
0000003a 55325c454355 
00000040 5f5269766961 
00000046 6e5f41315c54 
0000004c 61726765745c 
00000052 7265706f5f70 
00000058 726f6a656374 
0000005e 735c70526561 
00000064 6c4563755c63 
0000006a 525f4c415445 
00000070 53545c6d616b 
00000076 6500 
00000078 474853204320   3164 	.strz	"GHS C 2015.1.7 [dual]"
0000007e 323031352e31 
00000084 2e37205b6475 
0000008a 616c5d00 
0000008e 0100           3165 	.byte	1,0
00000090 00000000*      3166 	.word	.Ldw_line_begin
00000094 00000000*      3167 	.word	.Ldw_macinfo_begin
00000098 00             3168 	.byte	0
                        3169 

                                                                      Page 57
                                                              C:\Users\nhuliyap\AppData\Local\Temp\gh_00006641.s
                        3170 	.section	.debug_abbrev
00000000 01             3171 	.byte	1
00000001 11             3172 	.byte	17
00000002 01             3173 	.byte	1
00000003 1101           3174 	.byte	17,1
00000005 1201           3175 	.byte	18,1
00000007 0308           3176 	.byte	3,8
00000009 1b08           3177 	.byte	27,8
0000000b 2508           3178 	.byte	37,8
0000000d 1305           3179 	.byte	19,5
0000000f 1006           3180 	.byte	16,6
00000011 4306           3181 	.byte	67,6
00000013 420b           3182 	.byte	66,11
00000015 0000           3183 	.byte	0,0
                        3184 
                        3185 	.section	.debug_line
                        3186 .Ldw_line_begin:
00000000 26120000       3187 	.word	.Ldw_line_end-.Ldw_line_begin-4
00000004 0200           3188 	.byte	2,0
00000006 00000000*      3189 	.word	.Ldw_lpro_end-.Ldw_lpro_begin
                        3190 .Ldw_lpro_begin:
0000000a 01             3191 	.byte	1
0000000b 00             3192 	.byte	0
0000000c 00             3193 	.byte	0
0000000d 04             3194 	.byte	4
0000000e 0a             3195 	.byte	10
0000000f 000101         3196 	.byte	0,1,1
00000012 010100         3197 	.byte	1,1,0
00000015 000001         3198 	.byte	0,0,1
00000018 00             3199 	.byte	0
00000019 2e2e2f736f75   3200 	.strz	"../source/SwcApplTpms/procdat.c"
0000001f 7263652f5377 
00000025 634170706c54 
0000002b 706d732f7072 
00000031 6f636461742e 
00000037 6300 
00000039 000000         3201 	.byte	0,0,0
0000003c 2e2e2f736f75   3202 	.strz	"../source/common/Std_Types.hpp"
00000042 7263652f636f 
00000048 6d6d6f6e2f53 
0000004e 74645f547970 
00000054 65732e687070 
0000005a 00 
0000005b 000000         3203 	.byte	0,0,0
0000005e 2e2e2f736f75   3204 	.strz	"../source/common/Platform_Types.hpp"
00000064 7263652f636f 
0000006a 6d6d6f6e2f50 
00000070 6c6174666f72 
00000076 6d5f54797065 
0000007c 732e68707000 
00000082 000000         3205 	.byte	0,0,0
00000085 2e2e2f736f75   3206 	.strz	"../source/common/Compiler.hpp"
0000008b 7263652f636f 
00000091 6d6d6f6e2f43 
00000097 6f6d70696c65 
0000009d 722e68707000 
000000a3 000000         3207 	.byte	0,0,0
000000a6 2e2e2f736f75   3208 	.strz	"../source/ProjectCompiler/Compiler_Cfg.hpp"
000000ac 7263652f5072 
000000b2 6f6a65637443 
000000b8 6f6d70696c65 

                                                                      Page 58
                                                              C:\Users\nhuliyap\AppData\Local\Temp\gh_00006641.s
000000be 722f436f6d70 
000000c4 696c65725f43 
000000ca 66672e687070 
000000d0 00 
000000d1 000000         3209 	.byte	0,0,0
000000d4 2e2e2f736f75   3210 	.strz	"../source/ProjectCompiler/CompilerCfg_SwcServiceOs.hpp"
000000da 7263652f5072 
000000e0 6f6a65637443 
000000e6 6f6d70696c65 
000000ec 722f436f6d70 
000000f2 696c65724366 
000000f8 675f53776353 
000000fe 657276696365 
00000104 4f732e687070 
0000010a 00 
0000010b 000000         3211 	.byte	0,0,0
0000010e 2e2e2f736f75   3212 	.strz	"../source/SwcApplTpms/global.hpp"
00000114 7263652f5377 
0000011a 634170706c54 
00000120 706d732f676c 
00000126 6f62616c2e68 
0000012c 707000 
0000012f 000000         3213 	.byte	0,0,0
00000132 2e2e2f736f75   3214 	.strz	"../source/SwcApplTpms/Tpms_Rte_Data_Type.hpp"
00000138 7263652f5377 
0000013e 634170706c54 
00000144 706d732f5470 
0000014a 6d735f527465 
00000150 5f446174615f 
00000156 547970652e68 
0000015c 707000 
0000015f 000000         3215 	.byte	0,0,0
00000162 2e2e2f736f75   3216 	.strz	"../source/McalMcu/Types.hpp"
00000168 7263652f4d63 
0000016e 616c4d63752f 
00000174 54797065732e 
0000017a 68707000 
0000017e 000000         3217 	.byte	0,0,0
00000181 2e2e2f736f75   3218 	.strz	"../source/SwcApplTpms/iTpms_Interface.hpp"
00000187 7263652f5377 
0000018d 634170706c54 
00000193 706d732f6954 
00000199 706d735f496e 
0000019f 746572666163 
000001a5 652e68707000 
000001ab 000000         3219 	.byte	0,0,0
000001ae 2e2e2f736f75   3220 	.strz	"../source/SwcApplTpms/SwcApplTpms_Rte.hpp"
000001b4 7263652f5377 
000001ba 634170706c54 
000001c0 706d732f5377 
000001c6 634170706c54 
000001cc 706d735f5274 
000001d2 652e68707000 
000001d8 000000         3221 	.byte	0,0,0
000001db 2e2e2f736f75   3222 	.strz	"../source/SwcApplTpms/SwcApplTpms_Rte_Type.hpp"
000001e1 7263652f5377 
000001e7 634170706c54 
000001ed 706d732f5377 
000001f3 634170706c54 
000001f9 706d735f5274 
000001ff 655f54797065 

                                                                      Page 59
                                                              C:\Users\nhuliyap\AppData\Local\Temp\gh_00006641.s
00000205 2e68707000 
0000020a 000000         3223 	.byte	0,0,0
0000020d 2e2e2f736f75   3224 	.strz	"../source/ProjectCfg/SwcApplTpms_NvM_If.hpp"
00000213 7263652f5072 
00000219 6f6a65637443 
0000021f 66672f537763 
00000225 4170706c5470 
0000022b 6d735f4e764d 
00000231 5f49662e6870 
00000237 7000 
00000239 000000         3225 	.byte	0,0,0
0000023c 2e2e2f736f75   3226 	.strz	"../source/SwcApplTpms/WallocX.hpp"
00000242 7263652f5377 
00000248 634170706c54 
0000024e 706d732f5761 
00000254 6c6c6f63582e 
0000025a 68707000 
0000025e 000000         3227 	.byte	0,0,0
00000261 2e2e2f736f75   3228 	.strz	"../source/SwcApplTpms/procdatX.hpp"
00000267 7263652f5377 
0000026d 634170706c54 
00000273 706d732f7072 
00000279 6f6364617458 
0000027f 2e68707000 
00000284 000000         3229 	.byte	0,0,0
00000287 2e2e2f736f75   3230 	.strz	"../source/SwcApplTpms/tss_stdx.hpp"
0000028d 7263652f5377 
00000293 634170706c54 
00000299 706d732f7473 
0000029f 735f73746478 
000002a5 2e68707000 
000002aa 000000         3231 	.byte	0,0,0
000002ad 2e2e2f736f75   3232 	.strz	"../source/ProjectCfg/CfgSwcApplTpms.hpp"
000002b3 7263652f5072 
000002b9 6f6a65637443 
000002bf 66672f436667 
000002c5 537763417070 
000002cb 6c54706d732e 
000002d1 68707000 
000002d5 000000         3233 	.byte	0,0,0
000002d8 2e2e2f736f75   3234 	.strz	"../source/SwcApplTpms/cd_decoder_x.hpp"
000002de 7263652f5377 
000002e4 634170706c54 
000002ea 706d732f6364 
000002f0 5f6465636f64 
000002f6 65725f782e68 
000002fc 707000 
000002ff 000000         3235 	.byte	0,0,0
00000302 2e2e2f736f75   3236 	.strz	"../source/SwcApplTpms/procdat.hpp"
00000308 7263652f5377 
0000030e 634170706c54 
00000314 706d732f7072 
0000031a 6f636461742e 
00000320 68707000 
00000324 000000         3237 	.byte	0,0,0
00000327 2e2e2f736f75   3238 	.strz	"../source/SwcApplTpms/statisticsX.hpp"
0000032d 7263652f5377 
00000333 634170706c54 
00000339 706d732f7374 
0000033f 617469737469 
00000345 6373582e6870 

                                                                      Page 60
                                                              C:\Users\nhuliyap\AppData\Local\Temp\gh_00006641.s
0000034b 7000 
0000034d 000000         3239 	.byte	0,0,0
00000350 2e2e2f736f75   3240 	.strz	"../source/SwcApplTpms/statemanagerX.hpp"
00000356 7263652f5377 
0000035c 634170706c54 
00000362 706d732f7374 
00000368 6174656d616e 
0000036e 61676572582e 
00000374 68707000 
00000378 000000         3241 	.byte	0,0,0
0000037b 2e2e2f736f75   3242 	.strz	"../source/SwcApplTpms/state_bzX.hpp"
00000381 7263652f5377 
00000387 634170706c54 
0000038d 706d732f7374 
00000393 6174655f627a 
00000399 582e68707000 
0000039f 000000         3243 	.byte	0,0,0
000003a2 2e2e2f736f75   3244 	.strz	"../source/SwcApplTpms/SwcApplTpms_CAN_If.hpp"
000003a8 7263652f5377 
000003ae 634170706c54 
000003b4 706d732f5377 
000003ba 634170706c54 
000003c0 706d735f4341 
000003c6 4e5f49662e68 
000003cc 707000 
000003cf 000000         3245 	.byte	0,0,0
000003d2 2e2e2f736f75   3246 	.strz	"../source/SwcApplTpms/SwcApplTpms_DevCanMessages.hpp"
000003d8 7263652f5377 
000003de 634170706c54 
000003e4 706d732f5377 
000003ea 634170706c54 
000003f0 706d735f4465 
000003f6 7643616e4d65 
000003fc 737361676573 
00000402 2e68707000 
00000407 000000         3247 	.byte	0,0,0
0000040a 2e2e2f736f75   3248 	.strz	"../source/SwcApplTpms/SwcApplTpms_DevCanMesReqInterfaces.hpp"
00000410 7263652f5377 
00000416 634170706c54 
0000041c 706d732f5377 
00000422 634170706c54 
00000428 706d735f4465 
0000042e 7643616e4d65 
00000434 73526571496e 
0000043a 746572666163 
00000440 65732e687070 
00000446 00 
00000447 000000         3249 	.byte	0,0,0
0000044a 2e2e2f736f75   3250 	.strz	"../source/SwcApplTpms/busmsgX.hpp"
00000450 7263652f5377 
00000456 634170706c54 
0000045c 706d732f6275 
00000462 736d7367582e 
00000468 68707000 
0000046c 000000         3251 	.byte	0,0,0
0000046f 00             3252 	.byte	0
                        3253 .Ldw_lpro_end:
                        3254 	.section	.debug_macinfo
                        3255 .Ldw_macinfo_begin:
                        3256 	.section	.debug_frame
                        3257 .LDW_4c2b7e0:

                                                                      Page 61
                                                              C:\Users\nhuliyap\AppData\Local\Temp\gh_00006641.s
00000000 00000000*      3258 	.word	.LDW_unq_2-.LDW_unq_1
                        3259 .LDW_unq_1:
00000004 ffffffff       3260 	.byte	255,255,255,255
00000008 01             3261 	.byte	1
00000009 00             3262 	.byte	0
0000000a 01             3263 	.byte	1
0000000b 01             3264 	.byte	1
0000000c 1f             3265 	.byte	31
0000000d 0c             3266 	.byte	12
0000000e 03             3267 	.byte	3
0000000f 00             3268 	.byte	0
00000010 07             3269 	.byte	7
00000011 00             3270 	.byte	0
00000012 07             3271 	.byte	7
00000013 01             3272 	.byte	1
00000014 07             3273 	.byte	7
00000015 02             3274 	.byte	2
00000016 07             3275 	.byte	7
00000017 03             3276 	.byte	3
00000018 07             3277 	.byte	7
00000019 04             3278 	.byte	4
0000001a 07             3279 	.byte	7
0000001b 05             3280 	.byte	5
0000001c 07             3281 	.byte	7
0000001d 06             3282 	.byte	6
0000001e 07             3283 	.byte	7
0000001f 07             3284 	.byte	7
00000020 07             3285 	.byte	7
00000021 08             3286 	.byte	8
00000022 07             3287 	.byte	7
00000023 09             3288 	.byte	9
00000024 07             3289 	.byte	7
00000025 0a             3290 	.byte	10
00000026 07             3291 	.byte	7
00000027 0b             3292 	.byte	11
00000028 07             3293 	.byte	7
00000029 0c             3294 	.byte	12
0000002a 07             3295 	.byte	7
0000002b 0d             3296 	.byte	13
0000002c 07             3297 	.byte	7
0000002d 0e             3298 	.byte	14
0000002e 07             3299 	.byte	7
0000002f 0f             3300 	.byte	15
00000030 07             3301 	.byte	7
00000031 10             3302 	.byte	16
00000032 07             3303 	.byte	7
00000033 11             3304 	.byte	17
00000034 07             3305 	.byte	7
00000035 12             3306 	.byte	18
00000036 07             3307 	.byte	7
00000037 13             3308 	.byte	19
00000038 08             3309 	.byte	8
00000039 14             3310 	.byte	20
0000003a 08             3311 	.byte	8
0000003b 15             3312 	.byte	21
0000003c 08             3313 	.byte	8
0000003d 16             3314 	.byte	22
0000003e 08             3315 	.byte	8
0000003f 17             3316 	.byte	23
00000040 08             3317 	.byte	8
00000041 18             3318 	.byte	24

                                                                      Page 62
                                                              C:\Users\nhuliyap\AppData\Local\Temp\gh_00006641.s
00000042 08             3319 	.byte	8
00000043 19             3320 	.byte	25
00000044 08             3321 	.byte	8
00000045 1a             3322 	.byte	26
00000046 08             3323 	.byte	8
00000047 1b             3324 	.byte	27
00000048 08             3325 	.byte	8
00000049 1c             3326 	.byte	28
0000004a 08             3327 	.byte	8
0000004b 1d             3328 	.byte	29
0000004c 07             3329 	.byte	7
0000004d 1e             3330 	.byte	30
0000004e 08             3331 	.byte	8
0000004f 1f             3332 	.byte	31
00000050 07             3333 	.byte	7
00000051 20             3334 	.byte	32
00000052 07             3335 	.byte	7
00000053 21             3336 	.byte	33
00000054 07             3337 	.byte	7
00000055 22             3338 	.byte	34
00000056 07             3339 	.byte	7
00000057 23             3340 	.byte	35
00000058 07             3341 	.byte	7
00000059 24             3342 	.byte	36
0000005a 07             3343 	.byte	7
0000005b 25             3344 	.byte	37
0000005c 07             3345 	.byte	7
0000005d 26             3346 	.byte	38
0000005e 07             3347 	.byte	7
0000005f 27             3348 	.byte	39
00000060 07             3349 	.byte	7
00000061 28             3350 	.byte	40
00000062 07             3351 	.byte	7
00000063 29             3352 	.byte	41
00000064 07             3353 	.byte	7
00000065 2a             3354 	.byte	42
00000066 07             3355 	.byte	7
00000067 2b             3356 	.byte	43
00000068 07             3357 	.byte	7
00000069 2c             3358 	.byte	44
0000006a 07             3359 	.byte	7
0000006b 2d             3360 	.byte	45
0000006c 07             3361 	.byte	7
0000006d 2e             3362 	.byte	46
0000006e 07             3363 	.byte	7
0000006f 2f             3364 	.byte	47
00000070 07             3365 	.byte	7
00000071 30             3366 	.byte	48
00000072 07             3367 	.byte	7
00000073 31             3368 	.byte	49
00000074 07             3369 	.byte	7
00000075 32             3370 	.byte	50
00000076 07             3371 	.byte	7
00000077 33             3372 	.byte	51
00000078 07             3373 	.byte	7
00000079 34             3374 	.byte	52
0000007a 07             3375 	.byte	7
0000007b 35             3376 	.byte	53
0000007c 07             3377 	.byte	7
0000007d 36             3378 	.byte	54
0000007e 07             3379 	.byte	7

                                                                      Page 63
                                                              C:\Users\nhuliyap\AppData\Local\Temp\gh_00006641.s
0000007f 37             3380 	.byte	55
00000080 07             3381 	.byte	7
00000081 38             3382 	.byte	56
00000082 07             3383 	.byte	7
00000083 39             3384 	.byte	57
00000084 07             3385 	.byte	7
00000085 3a             3386 	.byte	58
00000086 07             3387 	.byte	7
00000087 3b             3388 	.byte	59
00000088 07             3389 	.byte	7
00000089 3c             3390 	.byte	60
0000008a 07             3391 	.byte	7
0000008b 3d             3392 	.byte	61
0000008c 07             3393 	.byte	7
0000008d 3e             3394 	.byte	62
0000008e 07             3395 	.byte	7
0000008f 3f             3396 	.byte	63
                        3397 .LDW_unq_2:
                        3398 	.section	.debug_info
                        3399 .LDW_3006ed8:
00000099 45             3400 	.byte	69
0000009a 01             3401 	.byte	1
                        3402 
                        3403 	.section	.debug_abbrev
00000017 45             3404 	.byte	69
00000018 15             3405 	.byte	21
00000019 01             3406 	.byte	1
0000001a 270c           3407 	.byte	39,12
0000001c 0000           3408 	.byte	0,0
                        3409 
                        3410 	.section	.debug_info
0000009b 00             3411 	.byte	0
                        3412 
                        3413 .LDW_3006f80:
0000009c 25             3414 	.byte	37
0000009d 756e7369676e   3415 	.strz	"unsigned char"
000000a3 656420636861 
000000a9 7200 
000000ab 08             3416 	.byte	8
000000ac 01             3417 	.byte	1
                        3418 
                        3419 	.section	.debug_abbrev
0000001e 25             3420 	.byte	37
0000001f 24             3421 	.byte	36
00000020 00             3422 	.byte	0
00000021 0308           3423 	.byte	3,8
00000023 3e0b           3424 	.byte	62,11
00000025 0b0b           3425 	.byte	11,11
00000027 0000           3426 	.byte	0,0
                        3427 
                        3428 	.section	.debug_info
                        3429 .LDW_3006fb8:
000000ad 45             3430 	.byte	69
000000ae 01             3431 	.byte	1
                        3432 
000000af 00             3433 	.byte	0
                        3434 
                        3435 .LDW_3006d50:
000000b0 25             3436 	.byte	37
000000b1 756e7369676e   3437 	.strz	"unsigned long"
000000b7 6564206c6f6e 

                                                                      Page 64
                                                              C:\Users\nhuliyap\AppData\Local\Temp\gh_00006641.s
000000bd 6700 
000000bf 07             3438 	.byte	7
000000c0 04             3439 	.byte	4
                        3440 
                        3441 .LDW_3006ff0:
000000c1 44             3442 	.byte	68
000000c2 00000000*      3443 	.word	.LDW_4bf1ae8
000000c6 01             3444 	.byte	1
                        3445 
                        3446 	.section	.debug_abbrev
00000029 44             3447 	.byte	68
0000002a 15             3448 	.byte	21
0000002b 01             3449 	.byte	1
0000002c 4910           3450 	.byte	73,16
0000002e 270c           3451 	.byte	39,12
00000030 0000           3452 	.byte	0,0
                        3453 
                        3454 	.section	.debug_info
000000c7 00             3455 	.byte	0
                        3456 
                        3457 .LDW_3006df8:
000000c8 44             3458 	.byte	68
000000c9 00000000*      3459 	.word	.LDW_304ee70
000000cd 01             3460 	.byte	1
                        3461 
000000ce 00             3462 	.byte	0
                        3463 
                        3464 .LDW_3006dc0:
000000cf 44             3465 	.byte	68
000000d0 00000000*      3466 	.word	.LDW_304ee70
000000d4 01             3467 	.byte	1
                        3468 
000000d5 00             3469 	.byte	0
                        3470 
                        3471 .LDW_30070d0:
000000d6 44             3472 	.byte	68
000000d7 00000000*      3473 	.word	.LDW_304ee70
000000db 01             3474 	.byte	1
                        3475 
000000dc 00             3476 	.byte	0
                        3477 
                        3478 .LDW_3006bc8:
000000dd 44             3479 	.byte	68
000000de 00000000*      3480 	.word	.LDW_304ee70
000000e2 01             3481 	.byte	1
                        3482 
000000e3 00             3483 	.byte	0
                        3484 
                        3485 .LDW_3007098:
000000e4 44             3486 	.byte	68
000000e5 00000000*      3487 	.word	.LDW_304ee70
000000e9 01             3488 	.byte	1
                        3489 
000000ea 00             3490 	.byte	0
                        3491 
                        3492 .LDW_30071e8:
000000eb 44             3493 	.byte	68
000000ec 00000000*      3494 	.word	.LDW_304ee70
000000f0 01             3495 	.byte	1
                        3496 
000000f1 00             3497 	.byte	0

                                                                      Page 65
                                                              C:\Users\nhuliyap\AppData\Local\Temp\gh_00006641.s
                        3498 
                        3499 .LDW_3007258:
000000f2 44             3500 	.byte	68
000000f3 00000000*      3501 	.word	.LDW_304ee70
000000f7 01             3502 	.byte	1
                        3503 
000000f8 00             3504 	.byte	0
                        3505 
                        3506 .LDW_3007028:
000000f9 2f             3507 	.byte	47
000000fa 00000000*      3508 	.word	.LDW_304dbd0
                        3509 
                        3510 	.section	.debug_abbrev
00000032 2f             3511 	.byte	47
00000033 0f             3512 	.byte	15
00000034 00             3513 	.byte	0
00000035 4910           3514 	.byte	73,16
00000037 0000           3515 	.byte	0,0
                        3516 
                        3517 	.section	.debug_info
                        3518 .LDW_3007108:
000000fe 44             3519 	.byte	68
000000ff 00000000*      3520 	.word	.LDW_3007028
00000103 01             3521 	.byte	1
                        3522 
00000104 00             3523 	.byte	0
                        3524 
                        3525 .LDW_3007178:
00000105 44             3526 	.byte	68
00000106 00000000*      3527 	.word	.LDW_4bf1ae8
0000010a 01             3528 	.byte	1
                        3529 
0000010b 00             3530 	.byte	0
                        3531 
                        3532 .LDW_3006e30:
0000010c 45             3533 	.byte	69
0000010d 01             3534 	.byte	1
                        3535 
                        3536 .LDW_4c847d0:
0000010e 12             3537 	.byte	18
0000010f 00000000*      3538 	.word	.LDW_4bf1ae8
00000113 00             3539 	.byte	0
                        3540 
                        3541 	.section	.debug_abbrev
00000039 12             3542 	.byte	18
0000003a 05             3543 	.byte	5
0000003b 00             3544 	.byte	0
0000003c 4910           3545 	.byte	73,16
0000003e 4b0c           3546 	.byte	75,12
00000040 0000           3547 	.byte	0,0
                        3548 
                        3549 	.section	.debug_info
00000114 00             3550 	.byte	0
                        3551 
                        3552 .LDW_3006c00:
00000115 44             3553 	.byte	68
00000116 00000000*      3554 	.word	.LDW_304ee70
0000011a 01             3555 	.byte	1
                        3556 
0000011b 00             3557 	.byte	0
                        3558 

                                                                      Page 66
                                                              C:\Users\nhuliyap\AppData\Local\Temp\gh_00006641.s
                        3559 .LDW_30071b0:
0000011c 45             3560 	.byte	69
0000011d 01             3561 	.byte	1
                        3562 
                        3563 .LDW_4c84740:
0000011e 12             3564 	.byte	18
0000011f 00000000*      3565 	.word	.LDW_304ee70
00000123 00             3566 	.byte	0
                        3567 
00000124 00             3568 	.byte	0
                        3569 
                        3570 .LDW_3006c70:
00000125 25             3571 	.byte	37
00000126 7369676e6564   3572 	.strz	"signed char"
0000012c 206368617200 
00000132 06             3573 	.byte	6
00000133 01             3574 	.byte	1
                        3575 
                        3576 .LDW_3007300:
00000134 44             3577 	.byte	68
00000135 00000000*      3578 	.word	.LDW_304dfd0
00000139 01             3579 	.byte	1
                        3580 
0000013a 00             3581 	.byte	0
                        3582 
                        3583 .LDW_3007338:
0000013b 45             3584 	.byte	69
0000013c 01             3585 	.byte	1
                        3586 
                        3587 .LDW_4c846e0:
0000013d 12             3588 	.byte	18
0000013e 00000000*      3589 	.word	.LDW_304dfd0
00000142 00             3590 	.byte	0
                        3591 
00000143 00             3592 	.byte	0
                        3593 
                        3594 .LDW_30072c8:
00000144 44             3595 	.byte	68
00000145 00000000*      3596 	.word	.LDW_304ee70
00000149 01             3597 	.byte	1
                        3598 
0000014a 00             3599 	.byte	0
                        3600 
                        3601 .LDW_4c85ce0:
0000014b 45             3602 	.byte	69
0000014c 01             3603 	.byte	1
                        3604 
                        3605 .LDW_4c84080:
0000014d 12             3606 	.byte	18
0000014e 00000000*      3607 	.word	.LDW_304ee70
00000152 00             3608 	.byte	0
                        3609 
00000153 00             3610 	.byte	0
                        3611 
                        3612 .LDW_4c85e30:
00000154 44             3613 	.byte	68
00000155 00000000*      3614 	.word	.LDW_304ee70
00000159 01             3615 	.byte	1
                        3616 
0000015a 00             3617 	.byte	0
                        3618 

                                                                      Page 67
                                                              C:\Users\nhuliyap\AppData\Local\Temp\gh_00006641.s
                        3619 .LDW_4c859d0:
0000015b 45             3620 	.byte	69
0000015c 01             3621 	.byte	1
                        3622 
                        3623 .LDW_4c84140:
0000015d 12             3624 	.byte	18
0000015e 00000000*      3625 	.word	.LDW_304ee70
00000162 00             3626 	.byte	0
                        3627 
00000163 00             3628 	.byte	0
                        3629 
                        3630 .LDW_4c85f48:
00000164 25             3631 	.byte	37
00000165 756e7369676e   3632 	.strz	"unsigned short"
0000016b 65642073686f 
00000171 727400 
00000174 07             3633 	.byte	7
00000175 02             3634 	.byte	2
                        3635 
                        3636 .LDW_4c85c70:
00000176 44             3637 	.byte	68
00000177 00000000*      3638 	.word	.LDW_4c864d8
0000017b 01             3639 	.byte	1
                        3640 
0000017c 00             3641 	.byte	0
                        3642 
                        3643 .LDW_4c85a08:
0000017d 45             3644 	.byte	69
0000017e 01             3645 	.byte	1
                        3646 
                        3647 .LDW_4c842c0:
0000017f 12             3648 	.byte	18
00000180 00000000*      3649 	.word	.LDW_4c864d8
00000184 00             3650 	.byte	0
                        3651 
00000185 00             3652 	.byte	0
                        3653 
                        3654 .LDW_4c85b20:
00000186 44             3655 	.byte	68
00000187 00000000*      3656 	.word	.LDW_304ee70
0000018b 01             3657 	.byte	1
                        3658 
                        3659 .LDW_4c843e0:
0000018c 12             3660 	.byte	18
0000018d 00000000*      3661 	.word	.LDW_304ee70
00000191 00             3662 	.byte	0
                        3663 
00000192 00             3664 	.byte	0
                        3665 
                        3666 .LDW_4c858b8:
00000193 44             3667 	.byte	68
00000194 00000000*      3668 	.word	.LDW_304ee70
00000198 01             3669 	.byte	1
                        3670 
                        3671 .LDW_4c84410:
00000199 12             3672 	.byte	18
0000019a 00000000*      3673 	.word	.LDW_304ee70
0000019e 00             3674 	.byte	0
                        3675 
0000019f 00             3676 	.byte	0
                        3677 

                                                                      Page 68
                                                              C:\Users\nhuliyap\AppData\Local\Temp\gh_00006641.s
                        3678 .LDW_4c85ed8:
000001a0 44             3679 	.byte	68
000001a1 00000000*      3680 	.word	.LDW_304ee70
000001a5 01             3681 	.byte	1
                        3682 
                        3683 .LDW_4c84470:
000001a6 12             3684 	.byte	18
000001a7 00000000*      3685 	.word	.LDW_304ee70
000001ab 00             3686 	.byte	0
                        3687 
000001ac 00             3688 	.byte	0
                        3689 
                        3690 .LDW_4c863d0:
000001ad 29             3691 	.byte	41
000001ae 00000000*      3692 	.word	.LDW_4c86270
                        3693 
                        3694 	.section	.debug_abbrev
00000042 29             3695 	.byte	41
00000043 26             3696 	.byte	38
00000044 00             3697 	.byte	0
00000045 4910           3698 	.byte	73,16
00000047 0000           3699 	.byte	0,0
                        3700 
                        3701 	.section	.debug_info
                        3702 .LDW_4c85d18:
000001b2 2f             3703 	.byte	47
000001b3 00000000*      3704 	.word	.LDW_4c863d0
                        3705 
                        3706 .LDW_4c85a40:
000001b7 45             3707 	.byte	69
000001b8 01             3708 	.byte	1
                        3709 
                        3710 .LDW_4c844d0:
000001b9 12             3711 	.byte	18
000001ba 00000000*      3712 	.word	.LDW_4c85d18
000001be 00             3713 	.byte	0
                        3714 
000001bf 00             3715 	.byte	0
                        3716 
                        3717 .LDW_4c85c00:
000001c0 45             3718 	.byte	69
000001c1 01             3719 	.byte	1
                        3720 
                        3721 .LDW_4c845f0:
000001c2 12             3722 	.byte	18
000001c3 00000000*      3723 	.word	.LDW_304ee70
000001c7 00             3724 	.byte	0
                        3725 
000001c8 00             3726 	.byte	0
                        3727 
                        3728 .LDW_4c85b58:
000001c9 45             3729 	.byte	69
000001ca 01             3730 	.byte	1
                        3731 
                        3732 .LDW_4c84050:
000001cb 12             3733 	.byte	18
000001cc 00000000*      3734 	.word	.LDW_304ee70
000001d0 00             3735 	.byte	0
                        3736 
000001d1 00             3737 	.byte	0
                        3738 

                                                                      Page 69
                                                              C:\Users\nhuliyap\AppData\Local\Temp\gh_00006641.s
                        3739 .LDW_4c85a78:
000001d2 44             3740 	.byte	68
000001d3 00000000*      3741 	.word	.LDW_304ee70
000001d7 01             3742 	.byte	1
                        3743 
                        3744 .LDW_4c84200:
000001d8 12             3745 	.byte	18
000001d9 00000000*      3746 	.word	.LDW_304ee70
000001dd 00             3747 	.byte	0
                        3748 
000001de 00             3749 	.byte	0
                        3750 
                        3751 .LDW_4c85b90:
000001df 45             3752 	.byte	69
000001e0 01             3753 	.byte	1
                        3754 
                        3755 .LDW_4c84500:
000001e1 12             3756 	.byte	18
000001e2 00000000*      3757 	.word	.LDW_304ee70
000001e6 00             3758 	.byte	0
                        3759 
                        3760 .LDW_4c842f0:
000001e7 12             3761 	.byte	18
000001e8 00000000*      3762 	.word	.LDW_304ee70
000001ec 00             3763 	.byte	0
                        3764 
000001ed 00             3765 	.byte	0
                        3766 
                        3767 .LDW_4c85ca8:
000001ee 44             3768 	.byte	68
000001ef 00000000*      3769 	.word	.LDW_304dfd0
000001f3 01             3770 	.byte	1
                        3771 
                        3772 .LDW_4c84620:
000001f4 12             3773 	.byte	18
000001f5 00000000*      3774 	.word	.LDW_304ee70
000001f9 00             3775 	.byte	0
                        3776 
000001fa 00             3777 	.byte	0
                        3778 
                        3779 .LDW_4c85928:
000001fb 45             3780 	.byte	69
000001fc 01             3781 	.byte	1
                        3782 
                        3783 .LDW_4c84560:
000001fd 12             3784 	.byte	18
000001fe 00000000*      3785 	.word	.LDW_304dfd0
00000202 00             3786 	.byte	0
                        3787 
                        3788 .LDW_4c84530:
00000203 12             3789 	.byte	18
00000204 00000000*      3790 	.word	.LDW_304ee70
00000208 00             3791 	.byte	0
                        3792 
00000209 00             3793 	.byte	0
                        3794 
                        3795 .LDW_4c85f80:
0000020a 44             3796 	.byte	68
0000020b 00000000*      3797 	.word	.LDW_304ee70
0000020f 01             3798 	.byte	1
                        3799 

                                                                      Page 70
                                                              C:\Users\nhuliyap\AppData\Local\Temp\gh_00006641.s
                        3800 .LDW_4c97b70:
00000210 12             3801 	.byte	18
00000211 00000000*      3802 	.word	.LDW_304ee70
00000215 00             3803 	.byte	0
                        3804 
00000216 00             3805 	.byte	0
                        3806 
                        3807 .LDW_4c85f10:
00000217 45             3808 	.byte	69
00000218 01             3809 	.byte	1
                        3810 
                        3811 .LDW_4c97b40:
00000219 12             3812 	.byte	18
0000021a 00000000*      3813 	.word	.LDW_304ee70
0000021e 00             3814 	.byte	0
                        3815 
                        3816 .LDW_4c97a80:
0000021f 12             3817 	.byte	18
00000220 00000000*      3818 	.word	.LDW_304ee70
00000224 00             3819 	.byte	0
                        3820 
00000225 00             3821 	.byte	0
                        3822 
                        3823 .LDW_4c85d50:
00000226 45             3824 	.byte	69
00000227 01             3825 	.byte	1
                        3826 
                        3827 .LDW_4c97960:
00000228 12             3828 	.byte	18
00000229 00000000*      3829 	.word	.LDW_304ee70
0000022d 00             3830 	.byte	0
                        3831 
                        3832 .LDW_4c97c30:
0000022e 12             3833 	.byte	18
0000022f 00000000*      3834 	.word	.LDW_304ee70
00000233 00             3835 	.byte	0
                        3836 
00000234 00             3837 	.byte	0
                        3838 
                        3839 .LDW_4c85960:
00000235 45             3840 	.byte	69
00000236 01             3841 	.byte	1
                        3842 
                        3843 .LDW_4c97ed0:
00000237 12             3844 	.byte	18
00000238 00000000*      3845 	.word	.LDW_304ee70
0000023c 00             3846 	.byte	0
                        3847 
                        3848 .LDW_4c97c60:
0000023d 12             3849 	.byte	18
0000023e 00000000*      3850 	.word	.LDW_304ee70
00000242 00             3851 	.byte	0
                        3852 
00000243 00             3853 	.byte	0
                        3854 
                        3855 .LDW_4c858f0:
00000244 44             3856 	.byte	68
00000245 00000000*      3857 	.word	.LDW_304ee70
00000249 01             3858 	.byte	1
                        3859 
                        3860 .LDW_4c97990:

                                                                      Page 71
                                                              C:\Users\nhuliyap\AppData\Local\Temp\gh_00006641.s
0000024a 12             3861 	.byte	18
0000024b 00000000*      3862 	.word	.LDW_304ee70
0000024f 00             3863 	.byte	0
                        3864 
00000250 00             3865 	.byte	0
                        3866 
                        3867 .LDW_4c85998:
00000251 45             3868 	.byte	69
00000252 01             3869 	.byte	1
                        3870 
                        3871 .LDW_4c979c0:
00000253 12             3872 	.byte	18
00000254 00000000*      3873 	.word	.LDW_304ee70
00000258 00             3874 	.byte	0
                        3875 
                        3876 .LDW_4c97e70:
00000259 12             3877 	.byte	18
0000025a 00000000*      3878 	.word	.LDW_304ee70
0000025e 00             3879 	.byte	0
                        3880 
0000025f 00             3881 	.byte	0
                        3882 
                        3883 .LDW_4c85d88:
00000260 44             3884 	.byte	68
00000261 00000000*      3885 	.word	.LDW_4c864d8
00000265 01             3886 	.byte	1
                        3887 
                        3888 .LDW_4c97f00:
00000266 12             3889 	.byte	18
00000267 00000000*      3890 	.word	.LDW_304ee70
0000026b 00             3891 	.byte	0
                        3892 
0000026c 00             3893 	.byte	0
                        3894 
                        3895 .LDW_4c85dc0:
0000026d 45             3896 	.byte	69
0000026e 01             3897 	.byte	1
                        3898 
                        3899 .LDW_4c97c90:
0000026f 12             3900 	.byte	18
00000270 00000000*      3901 	.word	.LDW_4c864d8
00000274 00             3902 	.byte	0
                        3903 
                        3904 .LDW_4c97930:
00000275 12             3905 	.byte	18
00000276 00000000*      3906 	.word	.LDW_304ee70
0000027a 00             3907 	.byte	0
                        3908 
0000027b 00             3909 	.byte	0
                        3910 
                        3911 .LDW_4c85ab0:
0000027c 44             3912 	.byte	68
0000027d 00000000*      3913 	.word	.LDW_304ee70
00000281 01             3914 	.byte	1
                        3915 
                        3916 .LDW_4c979f0:
00000282 12             3917 	.byte	18
00000283 00000000*      3918 	.word	.LDW_304ee70
00000287 00             3919 	.byte	0
                        3920 
00000288 00             3921 	.byte	0

                                                                      Page 72
                                                              C:\Users\nhuliyap\AppData\Local\Temp\gh_00006641.s
                        3922 
                        3923 .LDW_4c85df8:
00000289 44             3924 	.byte	68
0000028a 00000000*      3925 	.word	.LDW_4c864d8
0000028e 01             3926 	.byte	1
                        3927 
0000028f 00             3928 	.byte	0
                        3929 
                        3930 .LDW_4c85c38:
00000290 2f             3931 	.byte	47
00000291 00000000*      3932 	.word	.LDW_304ee70
                        3933 
                        3934 .LDW_4c85e68:
00000295 44             3935 	.byte	68
00000296 00000000*      3936 	.word	.LDW_4c864d8
0000029a 01             3937 	.byte	1
                        3938 
                        3939 .LDW_4c97ba0:
0000029b 12             3940 	.byte	18
0000029c 00000000*      3941 	.word	.LDW_304ee70
000002a0 00             3942 	.byte	0
                        3943 
                        3944 .LDW_4c97d20:
000002a1 12             3945 	.byte	18
000002a2 00000000*      3946 	.word	.LDW_4c85c38
000002a6 00             3947 	.byte	0
                        3948 
000002a7 00             3949 	.byte	0
                        3950 
                        3951 .LDW_4c85bc8:
000002a8 2f             3952 	.byte	47
000002a9 00000000*      3953 	.word	.LDW_304dfd0
                        3954 
                        3955 .LDW_4c85ae8:
000002ad 44             3956 	.byte	68
000002ae 00000000*      3957 	.word	.LDW_4c864d8
000002b2 01             3958 	.byte	1
                        3959 
                        3960 .LDW_4c97ae0:
000002b3 12             3961 	.byte	18
000002b4 00000000*      3962 	.word	.LDW_304ee70
000002b8 00             3963 	.byte	0
                        3964 
                        3965 .LDW_4c97d50:
000002b9 12             3966 	.byte	18
000002ba 00000000*      3967 	.word	.LDW_4c85bc8
000002be 00             3968 	.byte	0
                        3969 
000002bf 00             3970 	.byte	0
                        3971 
                        3972 .LDW_4c85ea0:
000002c0 45             3973 	.byte	69
000002c1 01             3974 	.byte	1
                        3975 
                        3976 .LDW_4c97db0:
000002c2 12             3977 	.byte	18
000002c3 00000000*      3978 	.word	.LDW_304ee70
000002c7 00             3979 	.byte	0
                        3980 
000002c8 00             3981 	.byte	0
                        3982 

                                                                      Page 73
                                                              C:\Users\nhuliyap\AppData\Local\Temp\gh_00006641.s
                        3983 .LDW_4c86028:
000002c9 44             3984 	.byte	68
000002ca 00000000*      3985 	.word	.LDW_304ee70
000002ce 01             3986 	.byte	1
                        3987 
                        3988 .LDW_4c982f0:
000002cf 12             3989 	.byte	18
000002d0 00000000*      3990 	.word	.LDW_304ee70
000002d4 00             3991 	.byte	0
                        3992 
000002d5 00             3993 	.byte	0
                        3994 
                        3995 .LDW_4c85ff0:
000002d6 44             3996 	.byte	68
000002d7 00000000*      3997 	.word	.LDW_4c867f0
000002db 01             3998 	.byte	1
                        3999 
                        4000 .LDW_4c982c0:
000002dc 12             4001 	.byte	18
000002dd 00000000*      4002 	.word	.LDW_304ee70
000002e1 00             4003 	.byte	0
                        4004 
000002e2 00             4005 	.byte	0
                        4006 
                        4007 .LDW_4c85fb8:
000002e3 44             4008 	.byte	68
000002e4 00000000*      4009 	.word	.LDW_4c867f0
000002e8 01             4010 	.byte	1
                        4011 
                        4012 .LDW_4c97f30:
000002e9 12             4013 	.byte	18
000002ea 00000000*      4014 	.word	.LDW_304ee70
000002ee 00             4015 	.byte	0
                        4016 
000002ef 00             4017 	.byte	0
                        4018 
                        4019 .LDW_4cbaaa0:
000002f0 44             4020 	.byte	68
000002f1 00000000*      4021 	.word	.LDW_304ee70
000002f5 01             4022 	.byte	1
                        4023 
000002f6 00             4024 	.byte	0
                        4025 
                        4026 .LDW_4cba9f8:
000002f7 45             4027 	.byte	69
000002f8 01             4028 	.byte	1
                        4029 
                        4030 .LDW_4c98320:
000002f9 12             4031 	.byte	18
000002fa 00000000*      4032 	.word	.LDW_304ee70
000002fe 00             4033 	.byte	0
                        4034 
000002ff 00             4035 	.byte	0
                        4036 
                        4037 .LDW_4cbafa8:
00000300 45             4038 	.byte	69
00000301 01             4039 	.byte	1
                        4040 
00000302 00             4041 	.byte	0
                        4042 
                        4043 .LDW_4cbabb8:

                                                                      Page 74
                                                              C:\Users\nhuliyap\AppData\Local\Temp\gh_00006641.s
00000303 45             4044 	.byte	69
00000304 01             4045 	.byte	1
                        4046 
00000305 00             4047 	.byte	0
                        4048 
                        4049 .LDW_4cbafe0:
00000306 45             4050 	.byte	69
00000307 01             4051 	.byte	1
                        4052 
                        4053 .LDW_4c984d0:
00000308 12             4054 	.byte	18
00000309 00000000*      4055 	.word	.LDW_4c85d18
0000030d 00             4056 	.byte	0
                        4057 
0000030e 00             4058 	.byte	0
                        4059 
                        4060 .LDW_4cbae20:
0000030f 25             4061 	.byte	37
00000310 696e7400       4062 	.strz	"int"
00000314 05             4063 	.byte	5
00000315 04             4064 	.byte	4
                        4065 
                        4066 .LDW_4cba9c0:
00000316 2f             4067 	.byte	47
00000317 00000000*      4068 	.word	.LDW_4cbbec0
                        4069 
                        4070 .LDW_4cbaf38:
0000031b 44             4071 	.byte	68
0000031c 00000000*      4072 	.word	.LDW_4cba9c0
00000320 01             4073 	.byte	1
                        4074 
                        4075 .LDW_4c983b0:
00000321 12             4076 	.byte	18
00000322 00000000*      4077 	.word	.LDW_304ee70
00000326 00             4078 	.byte	0
                        4079 
00000327 00             4080 	.byte	0
                        4081 
                        4082 .LDW_4cbaad8:
00000328 44             4083 	.byte	68
00000329 00000000*      4084 	.word	.LDW_304ee70
0000032d 01             4085 	.byte	1
                        4086 
0000032e 00             4087 	.byte	0
                        4088 
                        4089 .LDW_4cbab10:
0000032f 44             4090 	.byte	68
00000330 00000000*      4091 	.word	.LDW_4c864d8
00000334 01             4092 	.byte	1
                        4093 
00000335 00             4094 	.byte	0
                        4095 
                        4096 .LDW_4cbaa30:
00000336 45             4097 	.byte	69
00000337 01             4098 	.byte	1
                        4099 
                        4100 .LDW_4c98470:
00000338 12             4101 	.byte	18
00000339 00000000*      4102 	.word	.LDW_4c85c38
0000033d 00             4103 	.byte	0
                        4104 

                                                                      Page 75
                                                              C:\Users\nhuliyap\AppData\Local\Temp\gh_00006641.s
0000033e 00             4105 	.byte	0
                        4106 
                        4107 .LDW_4cbaa68:
0000033f 44             4108 	.byte	68
00000340 00000000*      4109 	.word	.LDW_304ee70
00000344 01             4110 	.byte	1
                        4111 
00000345 00             4112 	.byte	0
                        4113 
                        4114 .LDW_4cbad08:
00000346 44             4115 	.byte	68
00000347 00000000*      4116 	.word	.LDW_304dfd0
0000034b 01             4117 	.byte	1
                        4118 
0000034c 00             4119 	.byte	0
                        4120 
                        4121 .LDW_4cba988:
0000034d 45             4122 	.byte	69
0000034e 01             4123 	.byte	1
                        4124 
                        4125 .LDW_4c98230:
0000034f 12             4126 	.byte	18
00000350 00000000*      4127 	.word	.LDW_4c85c38
00000354 00             4128 	.byte	0
                        4129 
00000355 00             4130 	.byte	0
                        4131 
                        4132 .LDW_4cbb018:
00000356 44             4133 	.byte	68
00000357 00000000*      4134 	.word	.LDW_304ee70
0000035b 01             4135 	.byte	1
                        4136 
0000035c 00             4137 	.byte	0
                        4138 
                        4139 .LDW_4cbab80:
0000035d 45             4140 	.byte	69
0000035e 01             4141 	.byte	1
                        4142 
                        4143 .LDW_4c97f90:
0000035f 12             4144 	.byte	18
00000360 00000000*      4145 	.word	.LDW_4c85c38
00000364 00             4146 	.byte	0
                        4147 
00000365 00             4148 	.byte	0
                        4149 
                        4150 .LDW_4cbad40:
00000366 44             4151 	.byte	68
00000367 00000000*      4152 	.word	.LDW_304ee70
0000036b 01             4153 	.byte	1
                        4154 
0000036c 00             4155 	.byte	0
                        4156 
                        4157 .LDW_4cbab48:
0000036d 44             4158 	.byte	68
0000036e 00000000*      4159 	.word	.LDW_304ee70
00000372 01             4160 	.byte	1
                        4161 
00000373 00             4162 	.byte	0
                        4163 
                        4164 .LDW_4cbadb0:
00000374 45             4165 	.byte	69

                                                                      Page 76
                                                              C:\Users\nhuliyap\AppData\Local\Temp\gh_00006641.s
00000375 01             4166 	.byte	1
                        4167 
                        4168 .LDW_4c980e0:
00000376 12             4169 	.byte	18
00000377 00000000*      4170 	.word	.LDW_304ee70
0000037b 00             4171 	.byte	0
                        4172 
                        4173 .LDW_4c98110:
0000037c 12             4174 	.byte	18
0000037d 00000000*      4175 	.word	.LDW_304ee70
00000381 00             4176 	.byte	0
                        4177 
                        4178 .LDW_4c98140:
00000382 12             4179 	.byte	18
00000383 00000000*      4180 	.word	.LDW_4c85c38
00000387 00             4181 	.byte	0
                        4182 
00000388 00             4183 	.byte	0
                        4184 
                        4185 .LDW_4cbabf0:
00000389 44             4186 	.byte	68
0000038a 00000000*      4187 	.word	.LDW_304ee70
0000038e 01             4188 	.byte	1
                        4189 
0000038f 00             4190 	.byte	0
                        4191 
                        4192 .LDW_4cbad78:
00000390 25             4193 	.byte	37
00000391 756e7369676e   4194 	.strz	"unsigned int"
00000397 656420696e74 
0000039d 00 
0000039e 07             4195 	.byte	7
0000039f 04             4196 	.byte	4
                        4197 
                        4198 .LDW_4b20f30:
000003a0 3a             4199 	.byte	58
000003a1 00             4200 	.byte	0
000003a2 10             4201 	.byte	16
000003a3 00000000*      4202 	.word	.LDW_304ee70
                        4203 
                        4204 	.section	.debug_abbrev
00000049 3a             4205 	.byte	58
0000004a 01             4206 	.byte	1
0000004b 01             4207 	.byte	1
0000004c 090b           4208 	.byte	9,11
0000004e 0b0f           4209 	.byte	11,15
00000050 4910           4210 	.byte	73,16
00000052 0000           4211 	.byte	0,0
                        4212 
                        4213 	.section	.debug_info
000003a7 32             4214 	.byte	50
000003a8 00000000*      4215 	.word	.LDW_4cbae20
000003ac 04             4216 	.byte	4
000003ad 00             4217 	.byte	0
000003ae 0f             4218 	.byte	15
                        4219 
                        4220 	.section	.debug_abbrev
00000054 32             4221 	.byte	50
00000055 21             4222 	.byte	33
00000056 00             4223 	.byte	0
00000057 4910           4224 	.byte	73,16

                                                                      Page 77
                                                              C:\Users\nhuliyap\AppData\Local\Temp\gh_00006641.s
00000059 0b0f           4225 	.byte	11,15
0000005b 220d           4226 	.byte	34,13
0000005d 2f0d           4227 	.byte	47,13
0000005f 0000           4228 	.byte	0,0
                        4229 
                        4230 	.section	.debug_info
000003af 00             4231 	.byte	0
                        4232 
                        4233 .LDW_4cbade8:
000003b0 2f             4234 	.byte	47
000003b1 00000000*      4235 	.word	.LDW_4c864d8
                        4236 
                        4237 .LDW_4cd02f0:
000003b5 3a             4238 	.byte	58
000003b6 00             4239 	.byte	0
000003b7 02             4240 	.byte	2
000003b8 00000000*      4241 	.word	.LDW_3006f80
                        4242 
000003bc 32             4243 	.byte	50
000003bd 00000000*      4244 	.word	.LDW_4cbae20
000003c1 04             4245 	.byte	4
000003c2 00             4246 	.byte	0
000003c3 01             4247 	.byte	1
                        4248 
000003c4 00             4249 	.byte	0
                        4250 
                        4251 .LDW_4cd0378:
000003c5 3a             4252 	.byte	58
000003c6 00             4253 	.byte	0
000003c7 02             4254 	.byte	2
000003c8 00000000*      4255 	.word	.LDW_3006f80
                        4256 
000003cc 32             4257 	.byte	50
000003cd 00000000*      4258 	.word	.LDW_4cbae20
000003d1 04             4259 	.byte	4
000003d2 00             4260 	.byte	0
000003d3 01             4261 	.byte	1
                        4262 
000003d4 00             4263 	.byte	0
                        4264 
                        4265 .LDW_4cd11f8:
000003d5 3a             4266 	.byte	58
000003d6 00             4267 	.byte	0
000003d7 04             4268 	.byte	4
000003d8 00000000*      4269 	.word	.LDW_3006f80
                        4270 
000003dc 32             4271 	.byte	50
000003dd 00000000*      4272 	.word	.LDW_4cbae20
000003e1 04             4273 	.byte	4
000003e2 00             4274 	.byte	0
000003e3 03             4275 	.byte	3
                        4276 
000003e4 00             4277 	.byte	0
                        4278 
                        4279 .LDW_4cd1170:
000003e5 3a             4280 	.byte	58
000003e6 00             4281 	.byte	0
000003e7 02             4282 	.byte	2
000003e8 00000000*      4283 	.word	.LDW_3006f80
                        4284 
000003ec 32             4285 	.byte	50

                                                                      Page 78
                                                              C:\Users\nhuliyap\AppData\Local\Temp\gh_00006641.s
000003ed 00000000*      4286 	.word	.LDW_4cbae20
000003f1 04             4287 	.byte	4
000003f2 00             4288 	.byte	0
000003f3 01             4289 	.byte	1
                        4290 
000003f4 00             4291 	.byte	0
                        4292 
                        4293 .LDW_4cd0428:
000003f5 3a             4294 	.byte	58
000003f6 00             4295 	.byte	0
000003f7 04             4296 	.byte	4
000003f8 00000000*      4297 	.word	.LDW_3006f80
                        4298 
000003fc 32             4299 	.byte	50
000003fd 00000000*      4300 	.word	.LDW_4cbae20
00000401 04             4301 	.byte	4
00000402 00             4302 	.byte	0
00000403 03             4303 	.byte	3
                        4304 
00000404 00             4305 	.byte	0
                        4306 
                        4307 .LDW_4cd04b0:
00000405 3a             4308 	.byte	58
00000406 00             4309 	.byte	0
00000407 02             4310 	.byte	2
00000408 00000000*      4311 	.word	.LDW_3006f80
                        4312 
0000040c 32             4313 	.byte	50
0000040d 00000000*      4314 	.word	.LDW_4cbae20
00000411 04             4315 	.byte	4
00000412 00             4316 	.byte	0
00000413 01             4317 	.byte	1
                        4318 
00000414 00             4319 	.byte	0
                        4320 
                        4321 .LDW_4cd06d0:
00000415 3a             4322 	.byte	58
00000416 00             4323 	.byte	0
00000417 04             4324 	.byte	4
00000418 00000000*      4325 	.word	.LDW_3006f80
                        4326 
0000041c 32             4327 	.byte	50
0000041d 00000000*      4328 	.word	.LDW_4cbae20
00000421 04             4329 	.byte	4
00000422 00             4330 	.byte	0
00000423 03             4331 	.byte	3
                        4332 
00000424 00             4333 	.byte	0
                        4334 
                        4335 .LDW_4cd0538:
00000425 3a             4336 	.byte	58
00000426 00             4337 	.byte	0
00000427 02             4338 	.byte	2
00000428 00000000*      4339 	.word	.LDW_3006f80
                        4340 
0000042c 32             4341 	.byte	50
0000042d 00000000*      4342 	.word	.LDW_4cbae20
00000431 04             4343 	.byte	4
00000432 00             4344 	.byte	0
00000433 01             4345 	.byte	1
                        4346 

                                                                      Page 79
                                                              C:\Users\nhuliyap\AppData\Local\Temp\gh_00006641.s
00000434 00             4347 	.byte	0
                        4348 
                        4349 .LDW_4cd0c20:
00000435 3a             4350 	.byte	58
00000436 00             4351 	.byte	0
00000437 04             4352 	.byte	4
00000438 00000000*      4353 	.word	.LDW_3006f80
                        4354 
0000043c 32             4355 	.byte	50
0000043d 00000000*      4356 	.word	.LDW_4cbae20
00000441 04             4357 	.byte	4
00000442 00             4358 	.byte	0
00000443 03             4359 	.byte	3
                        4360 
00000444 00             4361 	.byte	0
                        4362 
                        4363 .LDW_4cd05c0:
00000445 3a             4364 	.byte	58
00000446 00             4365 	.byte	0
00000447 02             4366 	.byte	2
00000448 00000000*      4367 	.word	.LDW_3006f80
                        4368 
0000044c 32             4369 	.byte	50
0000044d 00000000*      4370 	.word	.LDW_4cbae20
00000451 04             4371 	.byte	4
00000452 00             4372 	.byte	0
00000453 01             4373 	.byte	1
                        4374 
00000454 00             4375 	.byte	0
                        4376 
                        4377 .LDW_4cd0b98:
00000455 3a             4378 	.byte	58
00000456 00             4379 	.byte	0
00000457 04             4380 	.byte	4
00000458 00000000*      4381 	.word	.LDW_3006f80
                        4382 
0000045c 32             4383 	.byte	50
0000045d 00000000*      4384 	.word	.LDW_4cbae20
00000461 04             4385 	.byte	4
00000462 00             4386 	.byte	0
00000463 03             4387 	.byte	3
                        4388 
00000464 00             4389 	.byte	0
                        4390 
                        4391 .LDW_4cd0e40:
00000465 3a             4392 	.byte	58
00000466 00             4393 	.byte	0
00000467 02             4394 	.byte	2
00000468 00000000*      4395 	.word	.LDW_3006f80
                        4396 
0000046c 32             4397 	.byte	50
0000046d 00000000*      4398 	.word	.LDW_4cbae20
00000471 04             4399 	.byte	4
00000472 00             4400 	.byte	0
00000473 01             4401 	.byte	1
                        4402 
00000474 00             4403 	.byte	0
                        4404 
                        4405 .LDW_4cd0758:
00000475 3a             4406 	.byte	58
00000476 00             4407 	.byte	0

                                                                      Page 80
                                                              C:\Users\nhuliyap\AppData\Local\Temp\gh_00006641.s
00000477 04             4408 	.byte	4
00000478 00000000*      4409 	.word	.LDW_3006f80
                        4410 
0000047c 32             4411 	.byte	50
0000047d 00000000*      4412 	.word	.LDW_4cbae20
00000481 04             4413 	.byte	4
00000482 00             4414 	.byte	0
00000483 03             4415 	.byte	3
                        4416 
00000484 00             4417 	.byte	0
                        4418 
                        4419 .LDW_4cd0b10:
00000485 3a             4420 	.byte	58
00000486 00             4421 	.byte	0
00000487 02             4422 	.byte	2
00000488 00000000*      4423 	.word	.LDW_3006f80
                        4424 
0000048c 32             4425 	.byte	50
0000048d 00000000*      4426 	.word	.LDW_4cbae20
00000491 04             4427 	.byte	4
00000492 00             4428 	.byte	0
00000493 01             4429 	.byte	1
                        4430 
00000494 00             4431 	.byte	0
                        4432 
                        4433 .LDW_4cd1308:
00000495 3a             4434 	.byte	58
00000496 00             4435 	.byte	0
00000497 04             4436 	.byte	4
00000498 00000000*      4437 	.word	.LDW_3006f80
                        4438 
0000049c 32             4439 	.byte	50
0000049d 00000000*      4440 	.word	.LDW_4cbae20
000004a1 04             4441 	.byte	4
000004a2 00             4442 	.byte	0
000004a3 03             4443 	.byte	3
                        4444 
000004a4 00             4445 	.byte	0
                        4446 
                        4447 .LDW_4cd0648:
000004a5 3a             4448 	.byte	58
000004a6 00             4449 	.byte	0
000004a7 02             4450 	.byte	2
000004a8 00000000*      4451 	.word	.LDW_3006f80
                        4452 
000004ac 32             4453 	.byte	50
000004ad 00000000*      4454 	.word	.LDW_4cbae20
000004b1 04             4455 	.byte	4
000004b2 00             4456 	.byte	0
000004b3 01             4457 	.byte	1
                        4458 
000004b4 00             4459 	.byte	0
                        4460 
                        4461 .LDW_4cd08f0:
000004b5 3a             4462 	.byte	58
000004b6 00             4463 	.byte	0
000004b7 0e             4464 	.byte	14
000004b8 00000000*      4465 	.word	.LDW_3006f80
                        4466 
000004bc 32             4467 	.byte	50
000004bd 00000000*      4468 	.word	.LDW_4cbae20

                                                                      Page 81
                                                              C:\Users\nhuliyap\AppData\Local\Temp\gh_00006641.s
000004c1 04             4469 	.byte	4
000004c2 00             4470 	.byte	0
000004c3 0d             4471 	.byte	13
                        4472 
000004c4 00             4473 	.byte	0
                        4474 
                        4475 .LDW_4cd80d0:
000004c5 3a             4476 	.byte	58
000004c6 00             4477 	.byte	0
000004c7 d002           4478 	.byte	208,2
000004c9 00000000*      4479 	.word	.LDW_4cbbec0
                        4480 
000004cd 32             4481 	.byte	50
000004ce 00000000*      4482 	.word	.LDW_4cbae20
000004d2 04             4483 	.byte	4
000004d3 00             4484 	.byte	0
000004d4 0b             4485 	.byte	11
                        4486 
000004d5 00             4487 	.byte	0
                        4488 
                        4489 .LDW_4cd7a70:
000004d6 3a             4490 	.byte	58
000004d7 00             4491 	.byte	0
000004d8 0a             4492 	.byte	10
000004d9 00000000*      4493 	.word	.LDW_4c864d8
                        4494 
000004dd 32             4495 	.byte	50
000004de 00000000*      4496 	.word	.LDW_4cbae20
000004e2 04             4497 	.byte	4
000004e3 00             4498 	.byte	0
000004e4 04             4499 	.byte	4
                        4500 
000004e5 00             4501 	.byte	0
                        4502 
                        4503 .LDW_4cd8158:
000004e6 3a             4504 	.byte	58
000004e7 00             4505 	.byte	0
000004e8 04             4506 	.byte	4
000004e9 00000000*      4507 	.word	.LDW_304ee70
                        4508 
000004ed 32             4509 	.byte	50
000004ee 00000000*      4510 	.word	.LDW_4cbae20
000004f2 04             4511 	.byte	4
000004f3 00             4512 	.byte	0
000004f4 03             4513 	.byte	3
                        4514 
000004f5 00             4515 	.byte	0
                        4516 
                        4517 .LDW_4cd8510:
000004f6 3a             4518 	.byte	58
000004f7 00             4519 	.byte	0
000004f8 04             4520 	.byte	4
000004f9 00000000*      4521 	.word	.LDW_304dfd0
                        4522 
000004fd 32             4523 	.byte	50
000004fe 00000000*      4524 	.word	.LDW_4cbae20
00000502 04             4525 	.byte	4
00000503 00             4526 	.byte	0
00000504 03             4527 	.byte	3
                        4528 
00000505 00             4529 	.byte	0

                                                                      Page 82
                                                              C:\Users\nhuliyap\AppData\Local\Temp\gh_00006641.s
                        4530 
                        4531 .LDW_4cd8378:
00000506 3a             4532 	.byte	58
00000507 00             4533 	.byte	0
00000508 04             4534 	.byte	4
00000509 00000000*      4535 	.word	.LDW_304ee70
                        4536 
0000050d 32             4537 	.byte	50
0000050e 00000000*      4538 	.word	.LDW_4cbae20
00000512 04             4539 	.byte	4
00000513 00             4540 	.byte	0
00000514 03             4541 	.byte	3
                        4542 
00000515 00             4543 	.byte	0
                        4544 
                        4545 .LDW_4cd8598:
00000516 3a             4546 	.byte	58
00000517 00             4547 	.byte	0
00000518 04             4548 	.byte	4
00000519 00000000*      4549 	.word	.LDW_304ee70
                        4550 
0000051d 32             4551 	.byte	50
0000051e 00000000*      4552 	.word	.LDW_4cbae20
00000522 04             4553 	.byte	4
00000523 00             4554 	.byte	0
00000524 03             4555 	.byte	3
                        4556 
00000525 00             4557 	.byte	0
                        4558 
                        4559 .LDW_4cd8400:
00000526 3a             4560 	.byte	58
00000527 00             4561 	.byte	0
00000528 04             4562 	.byte	4
00000529 00000000*      4563 	.word	.LDW_304ee70
                        4564 
0000052d 32             4565 	.byte	50
0000052e 00000000*      4566 	.word	.LDW_4cbae20
00000532 04             4567 	.byte	4
00000533 00             4568 	.byte	0
00000534 03             4569 	.byte	3
                        4570 
00000535 00             4571 	.byte	0
                        4572 
                        4573 .LDW_4cd7da0:
00000536 3a             4574 	.byte	58
00000537 00             4575 	.byte	0
00000538 04             4576 	.byte	4
00000539 00000000*      4577 	.word	.LDW_304ee70
                        4578 
0000053d 32             4579 	.byte	50
0000053e 00000000*      4580 	.word	.LDW_4cbae20
00000542 04             4581 	.byte	4
00000543 00             4582 	.byte	0
00000544 03             4583 	.byte	3
                        4584 
00000545 00             4585 	.byte	0
                        4586 
                        4587 .LDW_4cd79e8:
00000546 3a             4588 	.byte	58
00000547 00             4589 	.byte	0
00000548 08             4590 	.byte	8

                                                                      Page 83
                                                              C:\Users\nhuliyap\AppData\Local\Temp\gh_00006641.s
00000549 00000000*      4591 	.word	.LDW_4c864d8
                        4592 
0000054d 32             4593 	.byte	50
0000054e 00000000*      4594 	.word	.LDW_4cbae20
00000552 04             4595 	.byte	4
00000553 00             4596 	.byte	0
00000554 03             4597 	.byte	3
                        4598 
00000555 00             4599 	.byte	0
                        4600 
                        4601 .LDW_4cda8d0:
00000556 29             4602 	.byte	41
00000557 00000000*      4603 	.word	.LDW_304ee70
                        4604 
                        4605 .LDW_4cdbc70:
0000055b 2f             4606 	.byte	47
0000055c 00000000*      4607 	.word	.LDW_4cda8d0
                        4608 
                        4609 .LDW_4cdb060:
00000560 29             4610 	.byte	41
00000561 00000000*      4611 	.word	.LDW_4bf1ae8
                        4612 
                        4613 .LDW_4cdd758:
00000565 44             4614 	.byte	68
00000566 00000000*      4615 	.word	.LDW_3006f80
0000056a 01             4616 	.byte	1
                        4617 
                        4618 .LDW_4cdc868:
0000056b 12             4619 	.byte	18
0000056c 00000000*      4620 	.word	.LDW_3006f80
00000570 00             4621 	.byte	0
                        4622 
00000571 00             4623 	.byte	0
                        4624 
                        4625 .LDW_4cdfad0:
00000572 2f             4626 	.byte	47
00000573 00000000*      4627 	.word	.LDW_3006f80
                        4628 
                        4629 .LDW_4ce20e8:
00000577 44             4630 	.byte	68
00000578 00000000*      4631 	.word	.LDW_304ee70
0000057c 01             4632 	.byte	1
                        4633 
0000057d 00             4634 	.byte	0
                        4635 
                        4636 .LDW_4ce41f0:
0000057e 45             4637 	.byte	69
0000057f 01             4638 	.byte	1
                        4639 
                        4640 .LDW_4ce37b8:
00000580 12             4641 	.byte	18
00000581 00000000*      4642 	.word	.LDW_304ee70
00000585 00             4643 	.byte	0
                        4644 
00000586 00             4645 	.byte	0
                        4646 
                        4647 .LDW_4ce4228:
00000587 45             4648 	.byte	69
00000588 01             4649 	.byte	1
                        4650 
                        4651 .LDW_4ce2e88:

                                                                      Page 84
                                                              C:\Users\nhuliyap\AppData\Local\Temp\gh_00006641.s
00000589 12             4652 	.byte	18
0000058a 00000000*      4653 	.word	.LDW_304ee70
0000058e 00             4654 	.byte	0
                        4655 
0000058f 00             4656 	.byte	0
                        4657 
                        4658 .LDW_4ce44c8:
00000590 45             4659 	.byte	69
00000591 01             4660 	.byte	1
                        4661 
                        4662 .LDW_4ce2af8:
00000592 12             4663 	.byte	18
00000593 00000000*      4664 	.word	.LDW_304ee70
00000597 00             4665 	.byte	0
                        4666 
00000598 00             4667 	.byte	0
                        4668 
                        4669 .LDW_4ce4688:
00000599 45             4670 	.byte	69
0000059a 01             4671 	.byte	1
                        4672 
                        4673 .LDW_4ce28b8:
0000059b 12             4674 	.byte	18
0000059c 00000000*      4675 	.word	.LDW_304ee70
000005a0 00             4676 	.byte	0
                        4677 
000005a1 00             4678 	.byte	0
                        4679 
                        4680 .LDW_4ce47a0:
000005a2 45             4681 	.byte	69
000005a3 01             4682 	.byte	1
                        4683 
                        4684 .LDW_4ce2b28:
000005a4 12             4685 	.byte	18
000005a5 00000000*      4686 	.word	.LDW_304ee70
000005a9 00             4687 	.byte	0
                        4688 
000005aa 00             4689 	.byte	0
                        4690 
                        4691 .LDW_4ce4810:
000005ab 45             4692 	.byte	69
000005ac 01             4693 	.byte	1
                        4694 
                        4695 .LDW_4ce2c18:
000005ad 12             4696 	.byte	18
000005ae 00000000*      4697 	.word	.LDW_304ee70
000005b2 00             4698 	.byte	0
                        4699 
000005b3 00             4700 	.byte	0
                        4701 
                        4702 .LDW_4ce4848:
000005b4 45             4703 	.byte	69
000005b5 01             4704 	.byte	1
                        4705 
                        4706 .LDW_4ce28e8:
000005b6 12             4707 	.byte	18
000005b7 00000000*      4708 	.word	.LDW_304ee70
000005bb 00             4709 	.byte	0
                        4710 
000005bc 00             4711 	.byte	0
                        4712 

                                                                      Page 85
                                                              C:\Users\nhuliyap\AppData\Local\Temp\gh_00006641.s
                        4713 .LDW_4ce46c0:
000005bd 45             4714 	.byte	69
000005be 01             4715 	.byte	1
                        4716 
                        4717 .LDW_4ce2e58:
000005bf 12             4718 	.byte	18
000005c0 00000000*      4719 	.word	.LDW_304ee70
000005c4 00             4720 	.byte	0
                        4721 
000005c5 00             4722 	.byte	0
                        4723 
                        4724 .LDW_4ce38f8:
000005c6 44             4725 	.byte	68
000005c7 00000000*      4726 	.word	.LDW_3006f80
000005cb 01             4727 	.byte	1
                        4728 
                        4729 .LDW_4ce2a68:
000005cc 12             4730 	.byte	18
000005cd 00000000*      4731 	.word	.LDW_3006f80
000005d1 00             4732 	.byte	0
                        4733 
000005d2 00             4734 	.byte	0
                        4735 
                        4736 .LDW_4ce3ce8:
000005d3 44             4737 	.byte	68
000005d4 00000000*      4738 	.word	.LDW_3006f80
000005d8 01             4739 	.byte	1
                        4740 
                        4741 .LDW_4ce2be8:
000005d9 12             4742 	.byte	18
000005da 00000000*      4743 	.word	.LDW_3006f80
000005de 00             4744 	.byte	0
                        4745 
000005df 00             4746 	.byte	0
                        4747 
                        4748 .LDW_4ce3f18:
000005e0 44             4749 	.byte	68
000005e1 00000000*      4750 	.word	.LDW_304ee70
000005e5 01             4751 	.byte	1
                        4752 
                        4753 .LDW_4ce2d38:
000005e6 12             4754 	.byte	18
000005e7 00000000*      4755 	.word	.LDW_304ee70
000005eb 00             4756 	.byte	0
                        4757 
000005ec 00             4758 	.byte	0
                        4759 
                        4760 .LDW_4ce3a10:
000005ed 45             4761 	.byte	69
000005ee 01             4762 	.byte	1
                        4763 
000005ef 00             4764 	.byte	0
                        4765 
                        4766 .LDW_4ce9128:
000005f0 45             4767 	.byte	69
000005f1 01             4768 	.byte	1
                        4769 
000005f2 00             4770 	.byte	0
                        4771 
                        4772 .LDW_4ce9010:
000005f3 44             4773 	.byte	68

                                                                      Page 86
                                                              C:\Users\nhuliyap\AppData\Local\Temp\gh_00006641.s
000005f4 00000000*      4774 	.word	.LDW_4c867f0
000005f8 01             4775 	.byte	1
                        4776 
                        4777 .LDW_4ce31b8:
000005f9 12             4778 	.byte	18
000005fa 00000000*      4779 	.word	.LDW_4c864d8
000005fe 00             4780 	.byte	0
                        4781 
000005ff 00             4782 	.byte	0
                        4783 
                        4784 .LDW_4ce8f68:
00000600 44             4785 	.byte	68
00000601 00000000*      4786 	.word	.LDW_304ee70
00000605 01             4787 	.byte	1
                        4788 
                        4789 .LDW_4ce3308:
00000606 12             4790 	.byte	18
00000607 00000000*      4791 	.word	.LDW_4cbade8
0000060b 00             4792 	.byte	0
                        4793 
0000060c 00             4794 	.byte	0
                        4795 
                        4796 .LDW_4ce8da8:
0000060d 44             4797 	.byte	68
0000060e 00000000*      4798 	.word	.LDW_304ee70
00000612 01             4799 	.byte	1
                        4800 
                        4801 .LDW_4ce3368:
00000613 12             4802 	.byte	18
00000614 00000000*      4803 	.word	.LDW_4c85c38
00000618 00             4804 	.byte	0
                        4805 
00000619 00             4806 	.byte	0
                        4807 
                        4808 .LDW_4ce8bb0:
0000061a 45             4809 	.byte	69
0000061b 01             4810 	.byte	1
                        4811 
0000061c 00             4812 	.byte	0
                        4813 
                        4814 .LDW_4c867f0:
0000061d 28             4815 	.byte	40
0000061e 626f6f6c6561   4816 	.strz	"boolean"
00000624 6e00 
00000626 4e             4817 	.byte	78
00000627 49             4818 	.byte	73
00000628 03             4819 	.byte	3
00000629 00000000*      4820 	.word	.LDW_3006f80
                        4821 
                        4822 	.section	.debug_abbrev
00000061 28             4823 	.byte	40
00000062 16             4824 	.byte	22
00000063 00             4825 	.byte	0
00000064 0308           4826 	.byte	3,8
00000066 3b0f           4827 	.byte	59,15
00000068 390f           4828 	.byte	57,15
0000006a 3a0f           4829 	.byte	58,15
0000006c 4910           4830 	.byte	73,16
0000006e 0000           4831 	.byte	0,0
                        4832 
                        4833 	.section	.debug_info

                                                                      Page 87
                                                              C:\Users\nhuliyap\AppData\Local\Temp\gh_00006641.s
                        4834 .LDW_304dfd0:
0000062d 28             4835 	.byte	40
0000062e 73696e743800   4836 	.strz	"sint8"
00000634 4f             4837 	.byte	79
00000635 4b             4838 	.byte	75
00000636 03             4839 	.byte	3
00000637 00000000*      4840 	.word	.LDW_3006c70
                        4841 
                        4842 .LDW_304ee70:
0000063b 28             4843 	.byte	40
0000063c 75696e743800   4844 	.strz	"uint8"
00000642 50             4845 	.byte	80
00000643 4b             4846 	.byte	75
00000644 03             4847 	.byte	3
00000645 00000000*      4848 	.word	.LDW_3006f80
                        4849 
                        4850 .LDW_4c864d8:
00000649 28             4851 	.byte	40
0000064a 75696e743136   4852 	.strz	"uint16"
00000650 00 
00000651 52             4853 	.byte	82
00000652 4a             4854 	.byte	74
00000653 03             4855 	.byte	3
00000654 00000000*      4856 	.word	.LDW_4c85f48
                        4857 
                        4858 .LDW_4bf1ae8:
00000658 28             4859 	.byte	40
00000659 75696e743332   4860 	.strz	"uint32"
0000065f 00 
00000660 54             4861 	.byte	84
00000661 4a             4862 	.byte	74
00000662 03             4863 	.byte	3
00000663 00000000*      4864 	.word	.LDW_3006d50
                        4865 
                        4866 .LDW_4c86480:
00000667 41             4867 	.byte	65
00000668 5f             4868 	.byte	95
00000669 0f             4869 	.byte	15
0000066a 0a             4870 	.byte	10
0000066b 18             4871 	.byte	24
0000066c 01             4872 	.byte	1
                        4873 
                        4874 	.section	.debug_abbrev
00000070 41             4875 	.byte	65
00000071 13             4876 	.byte	19
00000072 01             4877 	.byte	1
00000073 3b0f           4878 	.byte	59,15
00000075 390f           4879 	.byte	57,15
00000077 3a0f           4880 	.byte	58,15
00000079 0b0f           4881 	.byte	11,15
0000007b 320b           4882 	.byte	50,11
0000007d 0000           4883 	.byte	0,0
                        4884 
                        4885 	.section	.debug_info
                        4886 .LDW_4b44be0:
0000066d 23             4887 	.byte	35
0000066e 756c52785469   4888 	.strz	"ulRxTimeStamp"
00000674 6d655374616d 
0000067a 7000 
0000067c 60             4889 	.byte	96
0000067d 0b             4890 	.byte	11

                                                                      Page 88
                                                              C:\Users\nhuliyap\AppData\Local\Temp\gh_00006641.s
0000067e 0a             4891 	.byte	10
0000067f 00000000*      4892 	.word	.LDW_4bf1ae8
00000683 0223           4893 	.byte	2,35
00000685 00             4894 	.byte	0
00000686 01             4895 	.byte	1
                        4896 
                        4897 	.section	.debug_abbrev
0000007f 23             4898 	.byte	35
00000080 0d             4899 	.byte	13
00000081 00             4900 	.byte	0
00000082 0308           4901 	.byte	3,8
00000084 3b0f           4902 	.byte	59,15
00000086 390f           4903 	.byte	57,15
00000088 3a0f           4904 	.byte	58,15
0000008a 4910           4905 	.byte	73,16
0000008c 380a           4906 	.byte	56,10
0000008e 320b           4907 	.byte	50,11
00000090 0000           4908 	.byte	0,0
                        4909 
                        4910 	.section	.debug_info
                        4911 .LDW_4b44c28:
00000687 23             4912 	.byte	35
00000688 756952785253   4913 	.strz	"uiRxRSSI"
0000068e 534900 
00000691 61             4914 	.byte	97
00000692 0b             4915 	.byte	11
00000693 0a             4916 	.byte	10
00000694 00000000*      4917 	.word	.LDW_4c864d8
00000698 0223           4918 	.byte	2,35
0000069a 04             4919 	.byte	4
0000069b 01             4920 	.byte	1
                        4921 
                        4922 .LDW_4b44448:
0000069c 23             4923 	.byte	35
0000069d 75636154656c   4924 	.strz	"ucaTelegram"
000006a3 656772616d00 
000006a9 62             4925 	.byte	98
000006aa 0b             4926 	.byte	11
000006ab 0a             4927 	.byte	10
000006ac 00000000*      4928 	.word	.LDW_4b20f30
000006b0 0223           4929 	.byte	2,35
000006b2 06             4930 	.byte	6
000006b3 01             4931 	.byte	1
                        4932 
000006b4 00             4933 	.byte	0
                        4934 
                        4935 .LDW_4c86270:
000006b5 28             4936 	.byte	40
000006b6 747357535f52   4937 	.strz	"tsWS_RxDataIn"
000006bc 784461746149 
000006c2 6e00 
000006c4 63             4938 	.byte	99
000006c5 02             4939 	.byte	2
000006c6 0a             4940 	.byte	10
000006c7 00000000*      4941 	.word	.LDW_4c86480
                        4942 
                        4943 .LDW_4ccdab8:
000006cb 41             4944 	.byte	65
000006cc 12             4945 	.byte	18
000006cd 0f             4946 	.byte	15
000006ce 12             4947 	.byte	18

                                                                      Page 89
                                                              C:\Users\nhuliyap\AppData\Local\Temp\gh_00006641.s
000006cf 02             4948 	.byte	2
000006d0 01             4949 	.byte	1
                        4950 
                        4951 .LDW_4ccf838:
000006d1 23             4952 	.byte	35
000006d2 756354547970   4953 	.strz	"ucTType"
000006d8 6500 
000006da 13             4954 	.byte	19
000006db 12             4955 	.byte	18
000006dc 12             4956 	.byte	18
000006dd 00000000*      4957 	.word	.LDW_4cd02f0
000006e1 0223           4958 	.byte	2,35
000006e3 00             4959 	.byte	0
000006e4 01             4960 	.byte	1
                        4961 
000006e5 00             4962 	.byte	0
                        4963 
                        4964 .LDW_4ccd328:
000006e6 28             4965 	.byte	40
000006e7 507265427566   4966 	.strz	"PreBufHeader"
000006ed 486561646572 
000006f3 00 
000006f4 14             4967 	.byte	20
000006f5 02             4968 	.byte	2
000006f6 12             4969 	.byte	18
000006f7 00000000*      4970 	.word	.LDW_4ccdab8
                        4971 
                        4972 .LDW_4ccd6f0:
000006fb 41             4973 	.byte	65
000006fc 17             4974 	.byte	23
000006fd 0f             4975 	.byte	15
000006fe 12             4976 	.byte	18
000006ff 0a             4977 	.byte	10
00000700 01             4978 	.byte	1
                        4979 
                        4980 .LDW_4ccf448:
00000701 23             4981 	.byte	35
00000702 756348656164   4982 	.strz	"ucHeader"
00000708 657200 
0000070b 18             4983 	.byte	24
0000070c 12             4984 	.byte	18
0000070d 12             4985 	.byte	18
0000070e 00000000*      4986 	.word	.LDW_4cd0378
00000712 0223           4987 	.byte	2,35
00000714 00             4988 	.byte	0
00000715 01             4989 	.byte	1
                        4990 
                        4991 .LDW_4ccf3b8:
00000716 23             4992 	.byte	35
00000717 7563436d6449   4993 	.strz	"ucCmdID"
0000071d 4400 
0000071f 19             4994 	.byte	25
00000720 12             4995 	.byte	18
00000721 12             4996 	.byte	18
00000722 00000000*      4997 	.word	.LDW_3006f80
00000726 0223           4998 	.byte	2,35
00000728 02             4999 	.byte	2
00000729 01             5000 	.byte	1
                        5001 
                        5002 .LDW_4ccf400:
0000072a 23             5003 	.byte	35

                                                                      Page 90
                                                              C:\Users\nhuliyap\AppData\Local\Temp\gh_00006641.s
0000072b 7563494400     5004 	.strz	"ucID"
00000730 1a             5005 	.byte	26
00000731 12             5006 	.byte	18
00000732 12             5007 	.byte	18
00000733 00000000*      5008 	.word	.LDW_4cd11f8
00000737 0223           5009 	.byte	2,35
00000739 03             5010 	.byte	3
0000073a 01             5011 	.byte	1
                        5012 
                        5013 .LDW_4ccf5f8:
0000073b 23             5014 	.byte	35
0000073c 756350726573   5015 	.strz	"ucPressure"
00000742 7375726500 
00000747 1b             5016 	.byte	27
00000748 12             5017 	.byte	18
00000749 12             5018 	.byte	18
0000074a 00000000*      5019 	.word	.LDW_3006f80
0000074e 0223           5020 	.byte	2,35
00000750 07             5021 	.byte	7
00000751 01             5022 	.byte	1
                        5023 
                        5024 .LDW_4ccf640:
00000752 23             5025 	.byte	35
00000753 756354656d70   5026 	.strz	"ucTemperature"
00000759 657261747572 
0000075f 6500 
00000761 1c             5027 	.byte	28
00000762 12             5028 	.byte	18
00000763 12             5029 	.byte	18
00000764 00000000*      5030 	.word	.LDW_3006f80
00000768 0223           5031 	.byte	2,35
0000076a 08             5032 	.byte	8
0000076b 01             5033 	.byte	1
                        5034 
                        5035 .LDW_4ccfac0:
0000076c 23             5036 	.byte	35
0000076d 756343524338   5037 	.strz	"ucCRC8"
00000773 00 
00000774 1d             5038 	.byte	29
00000775 12             5039 	.byte	18
00000776 12             5040 	.byte	18
00000777 00000000*      5041 	.word	.LDW_3006f80
0000077b 0223           5042 	.byte	2,35
0000077d 09             5043 	.byte	9
0000077e 01             5044 	.byte	1
                        5045 
0000077f 00             5046 	.byte	0
                        5047 
                        5048 .LDW_4ccd7f8:
00000780 28             5049 	.byte	40
00000781 507265427566   5050 	.strz	"PreBufAK35def"
00000787 414b33356465 
0000078d 6600 
0000078f 1e             5051 	.byte	30
00000790 02             5052 	.byte	2
00000791 12             5053 	.byte	18
00000792 00000000*      5054 	.word	.LDW_4ccd6f0
                        5055 
                        5056 .LDW_4ccd850:
00000796 41             5057 	.byte	65
00000797 20             5058 	.byte	32

                                                                      Page 91
                                                              C:\Users\nhuliyap\AppData\Local\Temp\gh_00006641.s
00000798 0f             5059 	.byte	15
00000799 12             5060 	.byte	18
0000079a 0c             5061 	.byte	12
0000079b 01             5062 	.byte	1
                        5063 
                        5064 .LDW_4ccf6d0:
0000079c 23             5065 	.byte	35
0000079d 756348656164   5066 	.strz	"ucHeader"
000007a3 657200 
000007a6 21             5067 	.byte	33
000007a7 12             5068 	.byte	18
000007a8 12             5069 	.byte	18
000007a9 00000000*      5070 	.word	.LDW_4cd1170
000007ad 0223           5071 	.byte	2,35
000007af 00             5072 	.byte	0
000007b0 01             5073 	.byte	1
                        5074 
                        5075 .LDW_4ccf298:
000007b1 23             5076 	.byte	35
000007b2 7563436d6449   5077 	.strz	"ucCmdID"
000007b8 4400 
000007ba 22             5078 	.byte	34
000007bb 12             5079 	.byte	18
000007bc 12             5080 	.byte	18
000007bd 00000000*      5081 	.word	.LDW_3006f80
000007c1 0223           5082 	.byte	2,35
000007c3 02             5083 	.byte	2
000007c4 01             5084 	.byte	1
                        5085 
                        5086 .LDW_4ccf208:
000007c5 23             5087 	.byte	35
000007c6 7563494400     5088 	.strz	"ucID"
000007cb 23             5089 	.byte	35
000007cc 12             5090 	.byte	18
000007cd 12             5091 	.byte	18
000007ce 00000000*      5092 	.word	.LDW_4cd0428
000007d2 0223           5093 	.byte	2,35
000007d4 03             5094 	.byte	3
000007d5 01             5095 	.byte	1
                        5096 
                        5097 .LDW_4ccf688:
000007d6 23             5098 	.byte	35
000007d7 756350726573   5099 	.strz	"ucPressure"
000007dd 7375726500 
000007e2 24             5100 	.byte	36
000007e3 12             5101 	.byte	18
000007e4 12             5102 	.byte	18
000007e5 00000000*      5103 	.word	.LDW_3006f80
000007e9 0223           5104 	.byte	2,35
000007eb 07             5105 	.byte	7
000007ec 01             5106 	.byte	1
                        5107 
                        5108 .LDW_4ccf958:
000007ed 23             5109 	.byte	35
000007ee 756354656d70   5110 	.strz	"ucTemperature"
000007f4 657261747572 
000007fa 6500 
000007fc 25             5111 	.byte	37
000007fd 12             5112 	.byte	18
000007fe 12             5113 	.byte	18
000007ff 00000000*      5114 	.word	.LDW_3006f80

                                                                      Page 92
                                                              C:\Users\nhuliyap\AppData\Local\Temp\gh_00006641.s
00000803 0223           5115 	.byte	2,35
00000805 08             5116 	.byte	8
00000806 01             5117 	.byte	1
                        5118 
                        5119 .LDW_4ccf760:
00000807 23             5120 	.byte	35
00000808 756342797465   5121 	.strz	"ucByte1Status"
0000080e 315374617475 
00000814 7300 
00000816 26             5122 	.byte	38
00000817 12             5123 	.byte	18
00000818 12             5124 	.byte	18
00000819 00000000*      5125 	.word	.LDW_3006f80
0000081d 0223           5126 	.byte	2,35
0000081f 09             5127 	.byte	9
00000820 01             5128 	.byte	1
                        5129 
                        5130 .LDW_4ccf880:
00000821 23             5131 	.byte	35
00000822 756342797465   5132 	.strz	"ucByte2Status"
00000828 325374617475 
0000082e 7300 
00000830 27             5133 	.byte	39
00000831 12             5134 	.byte	18
00000832 12             5135 	.byte	18
00000833 00000000*      5136 	.word	.LDW_3006f80
00000837 0223           5137 	.byte	2,35
00000839 0a             5138 	.byte	10
0000083a 01             5139 	.byte	1
                        5140 
                        5141 .LDW_4ccf250:
0000083b 23             5142 	.byte	35
0000083c 756343524338   5143 	.strz	"ucCRC8"
00000842 00 
00000843 28             5144 	.byte	40
00000844 12             5145 	.byte	18
00000845 12             5146 	.byte	18
00000846 00000000*      5147 	.word	.LDW_3006f80
0000084a 0223           5148 	.byte	2,35
0000084c 0b             5149 	.byte	11
0000084d 01             5150 	.byte	1
                        5151 
0000084e 00             5152 	.byte	0
                        5153 
                        5154 .LDW_4ccd900:
0000084f 28             5155 	.byte	40
00000850 507265427566   5156 	.strz	"PreBufHufStatus"
00000856 487566537461 
0000085c 74757300 
00000860 29             5157 	.byte	41
00000861 02             5158 	.byte	2
00000862 12             5159 	.byte	18
00000863 00000000*      5160 	.word	.LDW_4ccd850
                        5161 
                        5162 .LDW_4ccdcc8:
00000867 41             5163 	.byte	65
00000868 2b             5164 	.byte	43
00000869 0f             5165 	.byte	15
0000086a 12             5166 	.byte	18
0000086b 0b             5167 	.byte	11
0000086c 01             5168 	.byte	1

                                                                      Page 93
                                                              C:\Users\nhuliyap\AppData\Local\Temp\gh_00006641.s
                        5169 
                        5170 .LDW_4ccf8c8:
0000086d 23             5171 	.byte	35
0000086e 756348656164   5172 	.strz	"ucHeader"
00000874 657200 
00000877 2c             5173 	.byte	44
00000878 12             5174 	.byte	18
00000879 12             5175 	.byte	18
0000087a 00000000*      5176 	.word	.LDW_4cd04b0
0000087e 0223           5177 	.byte	2,35
00000880 00             5178 	.byte	0
00000881 01             5179 	.byte	1
                        5180 
                        5181 .LDW_4ccf910:
00000882 23             5182 	.byte	35
00000883 7563436d6449   5183 	.strz	"ucCmdID"
00000889 4400 
0000088b 2d             5184 	.byte	45
0000088c 12             5185 	.byte	18
0000088d 12             5186 	.byte	18
0000088e 00000000*      5187 	.word	.LDW_3006f80
00000892 0223           5188 	.byte	2,35
00000894 02             5189 	.byte	2
00000895 01             5190 	.byte	1
                        5191 
                        5192 .LDW_4ccf9a0:
00000896 23             5193 	.byte	35
00000897 7563494400     5194 	.strz	"ucID"
0000089c 2e             5195 	.byte	46
0000089d 12             5196 	.byte	18
0000089e 12             5197 	.byte	18
0000089f 00000000*      5198 	.word	.LDW_4cd06d0
000008a3 0223           5199 	.byte	2,35
000008a5 03             5200 	.byte	3
000008a6 01             5201 	.byte	1
                        5202 
                        5203 .LDW_4ccfa30:
000008a7 23             5204 	.byte	35
000008a8 75635000       5205 	.strz	"ucP"
000008ac 2f             5206 	.byte	47
000008ad 12             5207 	.byte	18
000008ae 12             5208 	.byte	18
000008af 00000000*      5209 	.word	.LDW_3006f80
000008b3 0223           5210 	.byte	2,35
000008b5 07             5211 	.byte	7
000008b6 01             5212 	.byte	1
                        5213 
                        5214 .LDW_4ccf9e8:
000008b7 23             5215 	.byte	35
000008b8 75635400       5216 	.strz	"ucT"
000008bc 30             5217 	.byte	48
000008bd 12             5218 	.byte	18
000008be 12             5219 	.byte	18
000008bf 00000000*      5220 	.word	.LDW_3006f80
000008c3 0223           5221 	.byte	2,35
000008c5 08             5222 	.byte	8
000008c6 01             5223 	.byte	1
                        5224 
                        5225 .LDW_4ccf2e0:
000008c7 23             5226 	.byte	35
000008c8 756354656c53   5227 	.strz	"ucTelSentnEnergy"

                                                                      Page 94
                                                              C:\Users\nhuliyap\AppData\Local\Temp\gh_00006641.s
000008ce 656e746e456e 
000008d4 6572677900 
000008d9 31             5228 	.byte	49
000008da 12             5229 	.byte	18
000008db 12             5230 	.byte	18
000008dc 00000000*      5231 	.word	.LDW_3006f80
000008e0 0223           5232 	.byte	2,35
000008e2 09             5233 	.byte	9
000008e3 01             5234 	.byte	1
                        5235 
                        5236 .LDW_4ccff40:
000008e4 23             5237 	.byte	35
000008e5 756343524338   5238 	.strz	"ucCRC8"
000008eb 00 
000008ec 32             5239 	.byte	50
000008ed 12             5240 	.byte	18
000008ee 12             5241 	.byte	18
000008ef 00000000*      5242 	.word	.LDW_3006f80
000008f3 0223           5243 	.byte	2,35
000008f5 0a             5244 	.byte	10
000008f6 01             5245 	.byte	1
                        5246 
000008f7 00             5247 	.byte	0
                        5248 
                        5249 .LDW_4ccded8:
000008f8 28             5250 	.byte	40
000008f9 507265427566   5251 	.strz	"PreBufG4Std"
000008ff 473453746400 
00000905 33             5252 	.byte	51
00000906 02             5253 	.byte	2
00000907 12             5254 	.byte	18
00000908 00000000*      5255 	.word	.LDW_4ccdcc8
                        5256 
                        5257 .LDW_4cce038:
0000090c 41             5258 	.byte	65
0000090d 35             5259 	.byte	53
0000090e 0f             5260 	.byte	15
0000090f 12             5261 	.byte	18
00000910 0a             5262 	.byte	10
00000911 01             5263 	.byte	1
                        5264 
                        5265 .LDW_4ccfb98:
00000912 23             5266 	.byte	35
00000913 756348656164   5267 	.strz	"ucHeader"
00000919 657200 
0000091c 36             5268 	.byte	54
0000091d 12             5269 	.byte	18
0000091e 12             5270 	.byte	18
0000091f 00000000*      5271 	.word	.LDW_4cd0538
00000923 0223           5272 	.byte	2,35
00000925 00             5273 	.byte	0
00000926 01             5274 	.byte	1
                        5275 
                        5276 .LDW_4ccfdd8:
00000927 23             5277 	.byte	35
00000928 7563436d6449   5278 	.strz	"ucCmdID"
0000092e 4400 
00000930 37             5279 	.byte	55
00000931 12             5280 	.byte	18
00000932 12             5281 	.byte	18
00000933 00000000*      5282 	.word	.LDW_3006f80

                                                                      Page 95
                                                              C:\Users\nhuliyap\AppData\Local\Temp\gh_00006641.s
00000937 0223           5283 	.byte	2,35
00000939 02             5284 	.byte	2
0000093a 01             5285 	.byte	1
                        5286 
                        5287 .LDW_4ccfef8:
0000093b 23             5288 	.byte	35
0000093c 7563494400     5289 	.strz	"ucID"
00000941 38             5290 	.byte	56
00000942 12             5291 	.byte	18
00000943 12             5292 	.byte	18
00000944 00000000*      5293 	.word	.LDW_4cd0c20
00000948 0223           5294 	.byte	2,35
0000094a 03             5295 	.byte	3
0000094b 01             5296 	.byte	1
                        5297 
                        5298 .LDW_4ccfb50:
0000094c 23             5299 	.byte	35
0000094d 7563536e5248   5300 	.strz	"ucSnRH"
00000953 00 
00000954 39             5301 	.byte	57
00000955 12             5302 	.byte	18
00000956 12             5303 	.byte	18
00000957 00000000*      5304 	.word	.LDW_3006f80
0000095b 0223           5305 	.byte	2,35
0000095d 07             5306 	.byte	7
0000095e 01             5307 	.byte	1
                        5308 
                        5309 .LDW_4ccfe68:
0000095f 23             5310 	.byte	35
00000960 7563524c00     5311 	.strz	"ucRL"
00000965 3a             5312 	.byte	58
00000966 12             5313 	.byte	18
00000967 12             5314 	.byte	18
00000968 00000000*      5315 	.word	.LDW_3006f80
0000096c 0223           5316 	.byte	2,35
0000096e 08             5317 	.byte	8
0000096f 01             5318 	.byte	1
                        5319 
                        5320 .LDW_4ccfe20:
00000970 23             5321 	.byte	35
00000971 756343524338   5322 	.strz	"ucCRC8"
00000977 00 
00000978 3b             5323 	.byte	59
00000979 12             5324 	.byte	18
0000097a 12             5325 	.byte	18
0000097b 00000000*      5326 	.word	.LDW_3006f80
0000097f 0223           5327 	.byte	2,35
00000981 09             5328 	.byte	9
00000982 01             5329 	.byte	1
                        5330 
00000983 00             5331 	.byte	0
                        5332 
                        5333 .LDW_4ccdfe0:
00000984 28             5334 	.byte	40
00000985 507265427566   5335 	.strz	"PreBufRotatS"
0000098b 526f74617453 
00000991 00 
00000992 3c             5336 	.byte	60
00000993 02             5337 	.byte	2
00000994 12             5338 	.byte	18
00000995 00000000*      5339 	.word	.LDW_4cce038

                                                                      Page 96
                                                              C:\Users\nhuliyap\AppData\Local\Temp\gh_00006641.s
                        5340 
                        5341 .LDW_4ccdf30:
00000999 41             5342 	.byte	65
0000099a 3e             5343 	.byte	62
0000099b 0f             5344 	.byte	15
0000099c 12             5345 	.byte	18
0000099d 0d             5346 	.byte	13
0000099e 01             5347 	.byte	1
                        5348 
                        5349 .LDW_4ccfc70:
0000099f 23             5350 	.byte	35
000009a0 756348656164   5351 	.strz	"ucHeader"
000009a6 657200 
000009a9 3f             5352 	.byte	63
000009aa 11             5353 	.byte	17
000009ab 12             5354 	.byte	18
000009ac 00000000*      5355 	.word	.LDW_4cd05c0
000009b0 0223           5356 	.byte	2,35
000009b2 00             5357 	.byte	0
000009b3 01             5358 	.byte	1
                        5359 
                        5360 .LDW_4cd0018:
000009b4 23             5361 	.byte	35
000009b5 7563436d6449   5362 	.strz	"ucCmdID"
000009bb 4400 
000009bd 40             5363 	.byte	64
000009be 11             5364 	.byte	17
000009bf 12             5365 	.byte	18
000009c0 00000000*      5366 	.word	.LDW_3006f80
000009c4 0223           5367 	.byte	2,35
000009c6 02             5368 	.byte	2
000009c7 01             5369 	.byte	1
                        5370 
                        5371 .LDW_4ccfd00:
000009c8 23             5372 	.byte	35
000009c9 7563494400     5373 	.strz	"ucID"
000009ce 41             5374 	.byte	65
000009cf 11             5375 	.byte	17
000009d0 12             5376 	.byte	18
000009d1 00000000*      5377 	.word	.LDW_4cd0b98
000009d5 0223           5378 	.byte	2,35
000009d7 03             5379 	.byte	3
000009d8 01             5380 	.byte	1
                        5381 
                        5382 .LDW_4ccfb08:
000009d9 23             5383 	.byte	35
000009da 756350726573   5384 	.strz	"ucPressure"
000009e0 7375726500 
000009e5 42             5385 	.byte	66
000009e6 11             5386 	.byte	17
000009e7 12             5387 	.byte	18
000009e8 00000000*      5388 	.word	.LDW_3006f80
000009ec 0223           5389 	.byte	2,35
000009ee 07             5390 	.byte	7
000009ef 01             5391 	.byte	1
                        5392 
                        5393 .LDW_4ccfbe0:
000009f0 23             5394 	.byte	35
000009f1 756354656d70   5395 	.strz	"ucTemperature"
000009f7 657261747572 
000009fd 6500 

                                                                      Page 97
                                                              C:\Users\nhuliyap\AppData\Local\Temp\gh_00006641.s
000009ff 43             5396 	.byte	67
00000a00 11             5397 	.byte	17
00000a01 12             5398 	.byte	18
00000a02 00000000*      5399 	.word	.LDW_3006f80
00000a06 0223           5400 	.byte	2,35
00000a08 08             5401 	.byte	8
00000a09 01             5402 	.byte	1
                        5403 
                        5404 .LDW_4ccfcb8:
00000a0a 23             5405 	.byte	35
00000a0b 756352657365   5406 	.strz	"ucReserved"
00000a11 7276656400 
00000a16 44             5407 	.byte	68
00000a17 11             5408 	.byte	17
00000a18 12             5409 	.byte	18
00000a19 00000000*      5410 	.word	.LDW_3006f80
00000a1d 0223           5411 	.byte	2,35
00000a1f 09             5412 	.byte	9
00000a20 01             5413 	.byte	1
                        5414 
                        5415 .LDW_4ccfc28:
00000a21 23             5416 	.byte	35
00000a22 756342797465   5417 	.strz	"ucByte1Status"
00000a28 315374617475 
00000a2e 7300 
00000a30 45             5418 	.byte	69
00000a31 11             5419 	.byte	17
00000a32 12             5420 	.byte	18
00000a33 00000000*      5421 	.word	.LDW_3006f80
00000a37 0223           5422 	.byte	2,35
00000a39 0a             5423 	.byte	10
00000a3a 01             5424 	.byte	1
                        5425 
                        5426 .LDW_4cd00a8:
00000a3b 23             5427 	.byte	35
00000a3c 756342797465   5428 	.strz	"ucByte2Status"
00000a42 325374617475 
00000a48 7300 
00000a4a 46             5429 	.byte	70
00000a4b 11             5430 	.byte	17
00000a4c 12             5431 	.byte	18
00000a4d 00000000*      5432 	.word	.LDW_3006f80
00000a51 0223           5433 	.byte	2,35
00000a53 0b             5434 	.byte	11
00000a54 01             5435 	.byte	1
                        5436 
                        5437 .LDW_4cd00f0:
00000a55 23             5438 	.byte	35
00000a56 756343524338   5439 	.strz	"ucCRC8"
00000a5c 00 
00000a5d 47             5440 	.byte	71
00000a5e 11             5441 	.byte	17
00000a5f 12             5442 	.byte	18
00000a60 00000000*      5443 	.word	.LDW_3006f80
00000a64 0223           5444 	.byte	2,35
00000a66 0c             5445 	.byte	12
00000a67 01             5446 	.byte	1
                        5447 
00000a68 00             5448 	.byte	0
                        5449 
                        5450 .LDW_4ccdf88:

                                                                      Page 98
                                                              C:\Users\nhuliyap\AppData\Local\Temp\gh_00006641.s
00000a69 28             5451 	.byte	40
00000a6a 507265427566   5452 	.strz	"PreBufHufLfResponse"
00000a70 4875664c6652 
00000a76 6573706f6e73 
00000a7c 6500 
00000a7e 48             5453 	.byte	72
00000a7f 02             5454 	.byte	2
00000a80 12             5455 	.byte	18
00000a81 00000000*      5456 	.word	.LDW_4ccdf30
                        5457 
                        5458 .LDW_4ccdc70:
00000a85 41             5459 	.byte	65
00000a86 4a             5460 	.byte	74
00000a87 0f             5461 	.byte	15
00000a88 12             5462 	.byte	18
00000a89 0d             5463 	.byte	13
00000a8a 01             5464 	.byte	1
                        5465 
                        5466 .LDW_4ccff88:
00000a8b 23             5467 	.byte	35
00000a8c 756348656164   5468 	.strz	"ucHeader"
00000a92 657200 
00000a95 4b             5469 	.byte	75
00000a96 12             5470 	.byte	18
00000a97 12             5471 	.byte	18
00000a98 00000000*      5472 	.word	.LDW_4cd0e40
00000a9c 0223           5473 	.byte	2,35
00000a9e 00             5474 	.byte	0
00000a9f 01             5475 	.byte	1
                        5476 
                        5477 .LDW_4ccfd48:
00000aa0 23             5478 	.byte	35
00000aa1 7563436d6449   5479 	.strz	"ucCmdID"
00000aa7 4400 
00000aa9 4c             5480 	.byte	76
00000aaa 12             5481 	.byte	18
00000aab 12             5482 	.byte	18
00000aac 00000000*      5483 	.word	.LDW_3006f80
00000ab0 0223           5484 	.byte	2,35
00000ab2 02             5485 	.byte	2
00000ab3 01             5486 	.byte	1
                        5487 
                        5488 .LDW_4ccfeb0:
00000ab4 23             5489 	.byte	35
00000ab5 7563494400     5490 	.strz	"ucID"
00000aba 4d             5491 	.byte	77
00000abb 12             5492 	.byte	18
00000abc 12             5493 	.byte	18
00000abd 00000000*      5494 	.word	.LDW_4cd0758
00000ac1 0223           5495 	.byte	2,35
00000ac3 03             5496 	.byte	3
00000ac4 01             5497 	.byte	1
                        5498 
                        5499 .LDW_4cd0060:
00000ac5 23             5500 	.byte	35
00000ac6 75635000       5501 	.strz	"ucP"
00000aca 4e             5502 	.byte	78
00000acb 12             5503 	.byte	18
00000acc 12             5504 	.byte	18
00000acd 00000000*      5505 	.word	.LDW_3006f80
00000ad1 0223           5506 	.byte	2,35

                                                                      Page 99
                                                              C:\Users\nhuliyap\AppData\Local\Temp\gh_00006641.s
00000ad3 07             5507 	.byte	7
00000ad4 01             5508 	.byte	1
                        5509 
                        5510 .LDW_4ccfd90:
00000ad5 23             5511 	.byte	35
00000ad6 75635400       5512 	.strz	"ucT"
00000ada 4f             5513 	.byte	79
00000adb 12             5514 	.byte	18
00000adc 12             5515 	.byte	18
00000add 00000000*      5516 	.word	.LDW_3006f80
00000ae1 0223           5517 	.byte	2,35
00000ae3 08             5518 	.byte	8
00000ae4 01             5519 	.byte	1
                        5520 
                        5521 .LDW_4ccffd0:
00000ae5 23             5522 	.byte	35
00000ae6 756342617400   5523 	.strz	"ucBat"
00000aec 50             5524 	.byte	80
00000aed 12             5525 	.byte	18
00000aee 12             5526 	.byte	18
00000aef 00000000*      5527 	.word	.LDW_3006f80
00000af3 0223           5528 	.byte	2,35
00000af5 09             5529 	.byte	9
00000af6 01             5530 	.byte	1
                        5531 
                        5532 .LDW_4cd0138:
00000af7 23             5533 	.byte	35
00000af8 756341636300   5534 	.strz	"ucAcc"
00000afe 51             5535 	.byte	81
00000aff 12             5536 	.byte	18
00000b00 12             5537 	.byte	18
00000b01 00000000*      5538 	.word	.LDW_3006f80
00000b05 0223           5539 	.byte	2,35
00000b07 0a             5540 	.byte	10
00000b08 01             5541 	.byte	1
                        5542 
                        5543 .LDW_4cd0180:
00000b09 23             5544 	.byte	35
00000b0a 75634d6f6465   5545 	.strz	"ucModeNCode"
00000b10 4e436f646500 
00000b16 52             5546 	.byte	82
00000b17 12             5547 	.byte	18
00000b18 12             5548 	.byte	18
00000b19 00000000*      5549 	.word	.LDW_3006f80
00000b1d 0223           5550 	.byte	2,35
00000b1f 0b             5551 	.byte	11
00000b20 01             5552 	.byte	1
                        5553 
                        5554 .LDW_4cd1948:
00000b21 23             5555 	.byte	35
00000b22 756343524338   5556 	.strz	"ucCRC8"
00000b28 00 
00000b29 53             5557 	.byte	83
00000b2a 12             5558 	.byte	18
00000b2b 12             5559 	.byte	18
00000b2c 00000000*      5560 	.word	.LDW_3006f80
00000b30 0223           5561 	.byte	2,35
00000b32 0c             5562 	.byte	12
00000b33 01             5563 	.byte	1
                        5564 
00000b34 00             5565 	.byte	0

                                                                      Page 100
                                                              C:\Users\nhuliyap\AppData\Local\Temp\gh_00006641.s
                        5566 
                        5567 .LDW_4cce090:
00000b35 28             5568 	.byte	40
00000b36 507265427566   5569 	.strz	"PreBufContiFP"
00000b3c 436f6e746946 
00000b42 5000 
00000b44 54             5570 	.byte	84
00000b45 02             5571 	.byte	2
00000b46 12             5572 	.byte	18
00000b47 00000000*      5573 	.word	.LDW_4ccdc70
                        5574 
                        5575 .LDW_4ccde28:
00000b4b 41             5576 	.byte	65
00000b4c 56             5577 	.byte	86
00000b4d 0f             5578 	.byte	15
00000b4e 12             5579 	.byte	18
00000b4f 10             5580 	.byte	16
00000b50 01             5581 	.byte	1
                        5582 
                        5583 .LDW_4cd1a20:
00000b51 23             5584 	.byte	35
00000b52 756348656164   5585 	.strz	"ucHeader"
00000b58 657200 
00000b5b 57             5586 	.byte	87
00000b5c 11             5587 	.byte	17
00000b5d 12             5588 	.byte	18
00000b5e 00000000*      5589 	.word	.LDW_4cd0b10
00000b62 0223           5590 	.byte	2,35
00000b64 00             5591 	.byte	0
00000b65 01             5592 	.byte	1
                        5593 
                        5594 .LDW_4cd18b8:
00000b66 23             5595 	.byte	35
00000b67 7563436d6449   5596 	.strz	"ucCmdID"
00000b6d 4400 
00000b6f 58             5597 	.byte	88
00000b70 11             5598 	.byte	17
00000b71 12             5599 	.byte	18
00000b72 00000000*      5600 	.word	.LDW_3006f80
00000b76 0223           5601 	.byte	2,35
00000b78 02             5602 	.byte	2
00000b79 01             5603 	.byte	1
                        5604 
                        5605 .LDW_4cd1ab0:
00000b7a 23             5606 	.byte	35
00000b7b 7563494400     5607 	.strz	"ucID"
00000b80 59             5608 	.byte	89
00000b81 11             5609 	.byte	17
00000b82 12             5610 	.byte	18
00000b83 00000000*      5611 	.word	.LDW_4cd1308
00000b87 0223           5612 	.byte	2,35
00000b89 03             5613 	.byte	3
00000b8a 01             5614 	.byte	1
                        5615 
                        5616 .LDW_4cd1828:
00000b8b 23             5617 	.byte	35
00000b8c 756352657365   5618 	.strz	"ucReserved1"
00000b92 727665643100 
00000b98 5a             5619 	.byte	90
00000b99 11             5620 	.byte	17
00000b9a 12             5621 	.byte	18

                                                                      Page 101
                                                              C:\Users\nhuliyap\AppData\Local\Temp\gh_00006641.s
00000b9b 00000000*      5622 	.word	.LDW_3006f80
00000b9f 0223           5623 	.byte	2,35
00000ba1 07             5624 	.byte	7
00000ba2 01             5625 	.byte	1
                        5626 
                        5627 .LDW_4cd1750:
00000ba3 23             5628 	.byte	35
00000ba4 756352657365   5629 	.strz	"ucReserved2"
00000baa 727665643200 
00000bb0 5b             5630 	.byte	91
00000bb1 11             5631 	.byte	17
00000bb2 12             5632 	.byte	18
00000bb3 00000000*      5633 	.word	.LDW_3006f80
00000bb7 0223           5634 	.byte	2,35
00000bb9 08             5635 	.byte	8
00000bba 01             5636 	.byte	1
                        5637 
                        5638 .LDW_4cd1990:
00000bbb 23             5639 	.byte	35
00000bbc 756352657365   5640 	.strz	"ucReserved3"
00000bc2 727665643300 
00000bc8 5c             5641 	.byte	92
00000bc9 11             5642 	.byte	17
00000bca 12             5643 	.byte	18
00000bcb 00000000*      5644 	.word	.LDW_3006f80
00000bcf 0223           5645 	.byte	2,35
00000bd1 09             5646 	.byte	9
00000bd2 01             5647 	.byte	1
                        5648 
                        5649 .LDW_4cd1630:
00000bd3 23             5650 	.byte	35
00000bd4 756352657365   5651 	.strz	"ucReserved4"
00000bda 727665643400 
00000be0 5d             5652 	.byte	93
00000be1 11             5653 	.byte	17
00000be2 12             5654 	.byte	18
00000be3 00000000*      5655 	.word	.LDW_3006f80
00000be7 0223           5656 	.byte	2,35
00000be9 0a             5657 	.byte	10
00000bea 01             5658 	.byte	1
                        5659 
                        5660 .LDW_4cd1438:
00000beb 23             5661 	.byte	35
00000bec 756352657365   5662 	.strz	"ucReserved5"
00000bf2 727665643500 
00000bf8 5e             5663 	.byte	94
00000bf9 11             5664 	.byte	17
00000bfa 12             5665 	.byte	18
00000bfb 00000000*      5666 	.word	.LDW_3006f80
00000bff 0223           5667 	.byte	2,35
00000c01 0b             5668 	.byte	11
00000c02 01             5669 	.byte	1
                        5670 
                        5671 .LDW_4cd1708:
00000c03 23             5672 	.byte	35
00000c04 756352657365   5673 	.strz	"ucReserved6"
00000c0a 727665643600 
00000c10 5f             5674 	.byte	95
00000c11 11             5675 	.byte	17
00000c12 12             5676 	.byte	18
00000c13 00000000*      5677 	.word	.LDW_3006f80

                                                                      Page 102
                                                              C:\Users\nhuliyap\AppData\Local\Temp\gh_00006641.s
00000c17 0223           5678 	.byte	2,35
00000c19 0c             5679 	.byte	12
00000c1a 01             5680 	.byte	1
                        5681 
                        5682 .LDW_4cd1c60:
00000c1b 23             5683 	.byte	35
00000c1c 756352657365   5684 	.strz	"ucReserved7"
00000c22 727665643700 
00000c28 60             5685 	.byte	96
00000c29 11             5686 	.byte	17
00000c2a 12             5687 	.byte	18
00000c2b 00000000*      5688 	.word	.LDW_3006f80
00000c2f 0223           5689 	.byte	2,35
00000c31 0d             5690 	.byte	13
00000c32 01             5691 	.byte	1
                        5692 
                        5693 .LDW_4cd16c0:
00000c33 23             5694 	.byte	35
00000c34 756352657365   5695 	.strz	"ucReserved8"
00000c3a 727665643800 
00000c40 61             5696 	.byte	97
00000c41 11             5697 	.byte	17
00000c42 12             5698 	.byte	18
00000c43 00000000*      5699 	.word	.LDW_3006f80
00000c47 0223           5700 	.byte	2,35
00000c49 0e             5701 	.byte	14
00000c4a 01             5702 	.byte	1
                        5703 
                        5704 .LDW_4cd1b40:
00000c4b 23             5705 	.byte	35
00000c4c 756343524338   5706 	.strz	"ucCRC8"
00000c52 00 
00000c53 62             5707 	.byte	98
00000c54 11             5708 	.byte	17
00000c55 12             5709 	.byte	18
00000c56 00000000*      5710 	.word	.LDW_3006f80
00000c5a 0223           5711 	.byte	2,35
00000c5c 0f             5712 	.byte	15
00000c5d 01             5713 	.byte	1
                        5714 
00000c5e 00             5715 	.byte	0
                        5716 
                        5717 .LDW_4cce0e8:
00000c5f 28             5718 	.byte	40
00000c60 507265427566   5719 	.strz	"PreBufSchraderFp"
00000c66 536368726164 
00000c6c 6572467000 
00000c71 63             5720 	.byte	99
00000c72 02             5721 	.byte	2
00000c73 12             5722 	.byte	18
00000c74 00000000*      5723 	.word	.LDW_4ccde28
                        5724 
                        5725 .LDW_4ccdd20:
00000c78 41             5726 	.byte	65
00000c79 65             5727 	.byte	101
00000c7a 10             5728 	.byte	16
00000c7b 12             5729 	.byte	18
00000c7c 18             5730 	.byte	24
00000c7d 01             5731 	.byte	1
                        5732 
                        5733 .LDW_4cd1870:

                                                                      Page 103
                                                              C:\Users\nhuliyap\AppData\Local\Temp\gh_00006641.s
00000c7e 23             5734 	.byte	35
00000c7f 617563486561   5735 	.strz	"aucHeader"
00000c85 64657200 
00000c89 66             5736 	.byte	102
00000c8a 11             5737 	.byte	17
00000c8b 12             5738 	.byte	18
00000c8c 00000000*      5739 	.word	.LDW_4cd0648
00000c90 0223           5740 	.byte	2,35
00000c92 00             5741 	.byte	0
00000c93 01             5742 	.byte	1
                        5743 
                        5744 .LDW_4cd1900:
00000c94 23             5745 	.byte	35
00000c95 61756354656c   5746 	.strz	"aucTelDat"
00000c9b 44617400 
00000c9f 67             5747 	.byte	103
00000ca0 11             5748 	.byte	17
00000ca1 12             5749 	.byte	18
00000ca2 00000000*      5750 	.word	.LDW_4cd08f0
00000ca6 0223           5751 	.byte	2,35
00000ca8 02             5752 	.byte	2
00000ca9 01             5753 	.byte	1
                        5754 
                        5755 .LDW_4cd19d8:
00000caa 23             5756 	.byte	35
00000cab 756341766700   5757 	.strz	"ucAvg"
00000cb1 68             5758 	.byte	104
00000cb2 11             5759 	.byte	17
00000cb3 12             5760 	.byte	18
00000cb4 00000000*      5761 	.word	.LDW_3006f80
00000cb8 0223           5762 	.byte	2,35
00000cba 10             5763 	.byte	16
00000cbb 01             5764 	.byte	1
                        5765 
                        5766 .LDW_4cd1480:
00000cbc 23             5767 	.byte	35
00000cbd 756c54696d65   5768 	.strz	"ulTimeStamp"
00000cc3 5374616d7000 
00000cc9 69             5769 	.byte	105
00000cca 11             5770 	.byte	17
00000ccb 12             5771 	.byte	18
00000ccc 00000000*      5772 	.word	.LDW_3006d50
00000cd0 0223           5773 	.byte	2,35
00000cd2 14             5774 	.byte	20
00000cd3 01             5775 	.byte	1
                        5776 
00000cd4 00             5777 	.byte	0
                        5778 
                        5779 .LDW_4ccdd78:
00000cd5 28             5780 	.byte	40
00000cd6 507265427566   5781 	.strz	"PreBufStructure"
00000cdc 537472756374 
00000ce2 75726500 
00000ce6 6a             5782 	.byte	106
00000ce7 02             5783 	.byte	2
00000ce8 12             5784 	.byte	18
00000ce9 00000000*      5785 	.word	.LDW_4ccdd20
                        5786 
                        5787 .LDW_304db78:
00000ced 42             5788 	.byte	66
00000cee 707265627566   5789 	.strz	"prebuffer"

                                                                      Page 104
                                                              C:\Users\nhuliyap\AppData\Local\Temp\gh_00006641.s
00000cf4 66657200 
00000cf8 6c             5790 	.byte	108
00000cf9 0f             5791 	.byte	15
00000cfa 12             5792 	.byte	18
00000cfb 18             5793 	.byte	24
00000cfc 01             5794 	.byte	1
                        5795 
                        5796 	.section	.debug_abbrev
00000092 42             5797 	.byte	66
00000093 17             5798 	.byte	23
00000094 01             5799 	.byte	1
00000095 0308           5800 	.byte	3,8
00000097 3b0f           5801 	.byte	59,15
00000099 390f           5802 	.byte	57,15
0000009b 3a0f           5803 	.byte	58,15
0000009d 0b0f           5804 	.byte	11,15
0000009f 320b           5805 	.byte	50,11
000000a1 0000           5806 	.byte	0,0
                        5807 
                        5808 	.section	.debug_info
                        5809 .LDW_4cd1798:
00000cfd 23             5810 	.byte	35
00000cfe 486561646572   5811 	.strz	"Header"
00000d04 00 
00000d05 6d             5812 	.byte	109
00000d06 10             5813 	.byte	16
00000d07 12             5814 	.byte	18
00000d08 00000000*      5815 	.word	.LDW_4ccd328
00000d0c 0223           5816 	.byte	2,35
00000d0e 00             5817 	.byte	0
00000d0f 01             5818 	.byte	1
                        5819 
                        5820 .LDW_4cd1a68:
00000d10 23             5821 	.byte	35
00000d11 537472756300   5822 	.strz	"Struc"
00000d17 6e             5823 	.byte	110
00000d18 13             5824 	.byte	19
00000d19 12             5825 	.byte	18
00000d1a 00000000*      5826 	.word	.LDW_4ccdd78
00000d1e 0223           5827 	.byte	2,35
00000d20 00             5828 	.byte	0
00000d21 01             5829 	.byte	1
                        5830 
                        5831 .LDW_4cd1af8:
00000d22 23             5832 	.byte	35
00000d23 414b33356465   5833 	.strz	"AK35def"
00000d29 6600 
00000d2b 6f             5834 	.byte	111
00000d2c 11             5835 	.byte	17
00000d2d 12             5836 	.byte	18
00000d2e 00000000*      5837 	.word	.LDW_4ccd7f8
00000d32 0223           5838 	.byte	2,35
00000d34 00             5839 	.byte	0
00000d35 01             5840 	.byte	1
                        5841 
                        5842 .LDW_4cd1b88:
00000d36 23             5843 	.byte	35
00000d37 487566537461   5844 	.strz	"HufStatus"
00000d3d 74757300 
00000d41 70             5845 	.byte	112
00000d42 13             5846 	.byte	19

                                                                      Page 105
                                                              C:\Users\nhuliyap\AppData\Local\Temp\gh_00006641.s
00000d43 12             5847 	.byte	18
00000d44 00000000*      5848 	.word	.LDW_4ccd900
00000d48 0223           5849 	.byte	2,35
00000d4a 00             5850 	.byte	0
00000d4b 01             5851 	.byte	1
                        5852 
                        5853 .LDW_4cd14c8:
00000d4c 23             5854 	.byte	35
00000d4d 473453746400   5855 	.strz	"G4Std"
00000d53 71             5856 	.byte	113
00000d54 0f             5857 	.byte	15
00000d55 12             5858 	.byte	18
00000d56 00000000*      5859 	.word	.LDW_4ccded8
00000d5a 0223           5860 	.byte	2,35
00000d5c 00             5861 	.byte	0
00000d5d 01             5862 	.byte	1
                        5863 
                        5864 .LDW_4cd1bd0:
00000d5e 23             5865 	.byte	35
00000d5f 436f6e746946   5866 	.strz	"ContiFP"
00000d65 5000 
00000d67 72             5867 	.byte	114
00000d68 11             5868 	.byte	17
00000d69 12             5869 	.byte	18
00000d6a 00000000*      5870 	.word	.LDW_4cce090
00000d6e 0223           5871 	.byte	2,35
00000d70 00             5872 	.byte	0
00000d71 01             5873 	.byte	1
                        5874 
                        5875 .LDW_4cd1c18:
00000d72 23             5876 	.byte	35
00000d73 526f74617453   5877 	.strz	"RotatS"
00000d79 00 
00000d7a 73             5878 	.byte	115
00000d7b 10             5879 	.byte	16
00000d7c 12             5880 	.byte	18
00000d7d 00000000*      5881 	.word	.LDW_4ccdfe0
00000d81 0223           5882 	.byte	2,35
00000d83 00             5883 	.byte	0
00000d84 01             5884 	.byte	1
                        5885 
                        5886 .LDW_4cd1cf0:
00000d85 23             5887 	.byte	35
00000d86 4c6652657370   5888 	.strz	"LfResponse"
00000d8c 6f6e736500 
00000d91 74             5889 	.byte	116
00000d92 17             5890 	.byte	23
00000d93 12             5891 	.byte	18
00000d94 00000000*      5892 	.word	.LDW_4ccdf88
00000d98 0223           5893 	.byte	2,35
00000d9a 00             5894 	.byte	0
00000d9b 01             5895 	.byte	1
                        5896 
                        5897 .LDW_4cd1678:
00000d9c 23             5898 	.byte	35
00000d9d 536368726164   5899 	.strz	"SchraderType"
00000da3 657254797065 
00000da9 00 
00000daa 75             5900 	.byte	117
00000dab 14             5901 	.byte	20
00000dac 12             5902 	.byte	18

                                                                      Page 106
                                                              C:\Users\nhuliyap\AppData\Local\Temp\gh_00006641.s
00000dad 00000000*      5903 	.word	.LDW_4cce0e8
00000db1 0223           5904 	.byte	2,35
00000db3 00             5905 	.byte	0
00000db4 01             5906 	.byte	1
                        5907 
00000db5 00             5908 	.byte	0
                        5909 
                        5910 .LDW_304dbd0:
00000db6 28             5911 	.byte	40
00000db7 745072654275   5912 	.strz	"tPreBuf"
00000dbd 6600 
00000dbf 76             5913 	.byte	118
00000dc0 02             5914 	.byte	2
00000dc1 12             5915 	.byte	18
00000dc2 00000000*      5916 	.word	.LDW_304db78
                        5917 
                        5918 .LDW_4cbbf18:
00000dc6 41             5919 	.byte	65
00000dc7 78             5920 	.byte	120
00000dc8 0f             5921 	.byte	15
00000dc9 12             5922 	.byte	18
00000dca 1c             5923 	.byte	28
00000dcb 01             5924 	.byte	1
                        5925 
                        5926 .LDW_4cd1ca8:
00000dcc 23             5927 	.byte	35
00000dcd 527844617461   5928 	.strz	"RxDataIn"
00000dd3 496e00 
00000dd6 79             5929 	.byte	121
00000dd7 11             5930 	.byte	17
00000dd8 12             5931 	.byte	18
00000dd9 00000000*      5932 	.word	.LDW_4c86270
00000ddd 0223           5933 	.byte	2,35
00000ddf 00             5934 	.byte	0
00000de0 01             5935 	.byte	1
                        5936 
                        5937 .LDW_4cd1558:
00000de1 23             5938 	.byte	35
00000de2 757368566568   5939 	.strz	"ushVehSpeed"
00000de8 537065656400 
00000dee 7a             5940 	.byte	122
00000def 12             5941 	.byte	18
00000df0 12             5942 	.byte	18
00000df1 00000000*      5943 	.word	.LDW_4c85f48
00000df5 0223           5944 	.byte	2,35
00000df7 18             5945 	.byte	24
00000df8 01             5946 	.byte	1
                        5947 
00000df9 00             5948 	.byte	0
                        5949 
                        5950 .LDW_4cbbec0:
00000dfa 28             5951 	.byte	40
00000dfb 745278526f74   5952 	.strz	"tRxRotatSBuf"
00000e01 617453427566 
00000e07 00 
00000e08 7b             5953 	.byte	123
00000e09 02             5954 	.byte	2
00000e0a 12             5955 	.byte	18
00000e0b 00000000*      5956 	.word	.LDW_4cbbf18
                        5957 
                        5958 .LDW_4cd5e88:

                                                                      Page 107
                                                              C:\Users\nhuliyap\AppData\Local\Temp\gh_00006641.s
00000e0f 41             5959 	.byte	65
00000e10 19             5960 	.byte	25
00000e11 0f             5961 	.byte	15
00000e12 01             5962 	.byte	1
00000e13 0c             5963 	.byte	12
00000e14 01             5964 	.byte	1
                        5965 
                        5966 .LDW_4cd9a20:
00000e15 23             5967 	.byte	35
00000e16 756c494400     5968 	.strz	"ulID"
00000e1b 1a             5969 	.byte	26
00000e1c 0b             5970 	.byte	11
00000e1d 01             5971 	.byte	1
00000e1e 00000000*      5972 	.word	.LDW_4bf1ae8
00000e22 0223           5973 	.byte	2,35
00000e24 00             5974 	.byte	0
00000e25 01             5975 	.byte	1
                        5976 
                        5977 .LDW_4cda098:
00000e26 23             5978 	.byte	35
00000e27 756350726573   5979 	.strz	"ucPressure"
00000e2d 7375726500 
00000e32 1b             5980 	.byte	27
00000e33 0a             5981 	.byte	10
00000e34 01             5982 	.byte	1
00000e35 00000000*      5983 	.word	.LDW_304ee70
00000e39 0223           5984 	.byte	2,35
00000e3b 04             5985 	.byte	4
00000e3c 01             5986 	.byte	1
                        5987 
                        5988 .LDW_4cd9e10:
00000e3d 23             5989 	.byte	35
00000e3e 736354656d70   5990 	.strz	"scTemperature"
00000e44 657261747572 
00000e4a 6500 
00000e4c 1c             5991 	.byte	28
00000e4d 0a             5992 	.byte	10
00000e4e 01             5993 	.byte	1
00000e4f 00000000*      5994 	.word	.LDW_304dfd0
00000e53 0223           5995 	.byte	2,35
00000e55 05             5996 	.byte	5
00000e56 01             5997 	.byte	1
                        5998 
                        5999 .LDW_4cd9cf0:
00000e57 23             6000 	.byte	35
00000e58 756352656d61   6001 	.strz	"ucRemainingLifeTime"
00000e5e 696e696e674c 
00000e64 69666554696d 
00000e6a 6500 
00000e6c 1d             6002 	.byte	29
00000e6d 0a             6003 	.byte	10
00000e6e 01             6004 	.byte	1
00000e6f 00000000*      6005 	.word	.LDW_304ee70
00000e73 0223           6006 	.byte	2,35
00000e75 06             6007 	.byte	6
00000e76 01             6008 	.byte	1
                        6009 
                        6010 .LDW_4cd9d80:
00000e77 23             6011 	.byte	35
00000e78 75635472616e   6012 	.strz	"ucTransMode"
00000e7e 734d6f646500 

                                                                      Page 108
                                                              C:\Users\nhuliyap\AppData\Local\Temp\gh_00006641.s
00000e84 1e             6013 	.byte	30
00000e85 0a             6014 	.byte	10
00000e86 01             6015 	.byte	1
00000e87 00000000*      6016 	.word	.LDW_304ee70
00000e8b 0223           6017 	.byte	2,35
00000e8d 07             6018 	.byte	7
00000e8e 01             6019 	.byte	1
                        6020 
                        6021 .LDW_4cd9ca8:
00000e8f 23             6022 	.byte	35
00000e90 75736853656e   6023 	.strz	"ushSensorDefect"
00000e96 736f72446566 
00000e9c 65637400 
00000ea0 1f             6024 	.byte	31
00000ea1 0b             6025 	.byte	11
00000ea2 01             6026 	.byte	1
00000ea3 00000000*      6027 	.word	.LDW_4c864d8
00000ea7 0223           6028 	.byte	2,35
00000ea9 08             6029 	.byte	8
00000eaa 01             6030 	.byte	1
                        6031 
00000eab 00             6032 	.byte	0
                        6033 
                        6034 .LDW_4cd60f0:
00000eac 28             6035 	.byte	40
00000ead 745245444154   6036 	.strz	"tREDATAPREPROC_DECL"
00000eb3 415052455052 
00000eb9 4f435f444543 
00000ebf 4c00 
00000ec1 20             6037 	.byte	32
00000ec2 02             6038 	.byte	2
00000ec3 01             6039 	.byte	1
00000ec4 00000000*      6040 	.word	.LDW_4cd5e88
                        6041 
                        6042 .LDW_4cd6618:
00000ec8 04             6043 	.byte	4
00000ec9 745265446174   6044 	.strz	"tReDataPD"
00000ecf 61504400 
00000ed3 22             6045 	.byte	34
00000ed4 10             6046 	.byte	16
00000ed5 01             6047 	.byte	1
00000ed6 00000000*      6048 	.word	.LDW_304dbd0
00000eda 00             6049 	.byte	0
00000edb 00             6050 	.byte	0
00000edc 0503           6051 	.byte	5,3
00000ede 00000000*      6052 	.word	_tReDataPD..C.3A.5C_ECU2.5CECU_Rivian_A1.5CTarget.5Crepo_projects.5CpRealEcu.5CcR_LATEST.5Cmake.5Coutput.5Cobjects.5Cprocdat.
                        6053 
                        6054 	.section	.debug_abbrev
000000a3 04             6055 	.byte	4
000000a4 34             6056 	.byte	52
000000a5 00             6057 	.byte	0
000000a6 0308           6058 	.byte	3,8
000000a8 3b0f           6059 	.byte	59,15
000000aa 390f           6060 	.byte	57,15
000000ac 3a0f           6061 	.byte	58,15
000000ae 4910           6062 	.byte	73,16
000000b0 3f0c           6063 	.byte	63,12
000000b2 3c0c           6064 	.byte	60,12
000000b4 020a           6065 	.byte	2,10
000000b6 0000           6066 	.byte	0,0
                        6067 

                                                                      Page 109
                                                              C:\Users\nhuliyap\AppData\Local\Temp\gh_00006641.s
                        6068 	.section	.debug_info
                        6069 .LDW_4cd6460:
00000ee2 04             6070 	.byte	4
00000ee3 7457735f5278   6071 	.strz	"tWs_RxRotatSBuf"
00000ee9 526f74617453 
00000eef 42756600 
00000ef3 23             6072 	.byte	35
00000ef4 15             6073 	.byte	21
00000ef5 01             6074 	.byte	1
00000ef6 00000000*      6075 	.word	.LDW_4cd80d0
00000efa 00             6076 	.byte	0
00000efb 00             6077 	.byte	0
00000efc 0503           6078 	.byte	5,3
00000efe 00000000*      6079 	.word	_tWs_RxRotatSBuf..C.3A.5C_ECU2.5CECU_Rivian_A1.5CTarget.5Crepo_projects.5CpRealEcu.5CcR_LATEST.5Cmake.5Coutput.5Cobjects.5Cprocdat.
                        6080 
                        6081 .LDW_4cd6358:
00000f02 04             6082 	.byte	4
00000f03 7563526f7461   6083 	.strz	"ucRotatSTelIndexPut"
00000f09 745354656c49 
00000f0f 6e6465785075 
00000f15 7400 
00000f17 24             6084 	.byte	36
00000f18 0e             6085 	.byte	14
00000f19 01             6086 	.byte	1
00000f1a 00000000*      6087 	.word	.LDW_304ee70
00000f1e 00             6088 	.byte	0
00000f1f 00             6089 	.byte	0
00000f20 0503           6090 	.byte	5,3
00000f22 00000000*      6091 	.word	_ucRotatSTelIndexPut..C.3A.5C_ECU2.5CECU_Rivian_A1.5CTarget.5Crepo_projects.5CpRealEcu.5CcR_LATEST.5Cmake.5Coutput.5Cobjects.5Cprocdat.
                        6092 
                        6093 .LDW_4cd64b8:
00000f26 04             6094 	.byte	4
00000f27 756354797265   6095 	.strz	"ucTyreInvalidPressSurpressionCnt"
00000f2d 496e76616c69 
00000f33 645072657373 
00000f39 537572707265 
00000f3f 7373696f6e43 
00000f45 6e7400 
00000f48 25             6096 	.byte	37
00000f49 0f             6097 	.byte	15
00000f4a 01             6098 	.byte	1
00000f4b 00000000*      6099 	.word	.LDW_4cd7a70
00000f4f 00             6100 	.byte	0
00000f50 00             6101 	.byte	0
00000f51 0503           6102 	.byte	5,3
00000f53 00000000*      6103 	.word	_ucTyreInvalidPressSurpressionCnt..C.3A.5C_ECU2.5CECU_Rivian_A1.5CTarget.5Crepo_projects.5CpRealEcu.5CcR_LATEST.5Cmake.5Coutput.5Cobjects.5Cprocdat.
                        6104 
                        6105 .LDW_4cd6510:
00000f57 04             6106 	.byte	4
00000f58 7563526f744c   6107 	.strz	"ucRotL"
00000f5e 00 
00000f5f 26             6108 	.byte	38
00000f60 0e             6109 	.byte	14
00000f61 01             6110 	.byte	1
00000f62 00000000*      6111 	.word	.LDW_304ee70
00000f66 00             6112 	.byte	0
00000f67 00             6113 	.byte	0
00000f68 0503           6114 	.byte	5,3
00000f6a 00000000*      6115 	.word	_ucRotL..C.3A.5C_ECU2.5CECU_Rivian_A1.5CTarget.5Crepo_projects.5CpRealEcu.5CcR_LATEST.5Cmake.5Coutput.5Cobjects.5Cprocdat.
                        6116 
                        6117 .LDW_4cd65c0:

                                                                      Page 110
                                                              C:\Users\nhuliyap\AppData\Local\Temp\gh_00006641.s
00000f6e 04             6118 	.byte	4
00000f6f 7563536e526f   6119 	.strz	"ucSnRotH"
00000f75 744800 
00000f78 27             6120 	.byte	39
00000f79 0e             6121 	.byte	14
00000f7a 01             6122 	.byte	1
00000f7b 00000000*      6123 	.word	.LDW_304ee70
00000f7f 00             6124 	.byte	0
00000f80 00             6125 	.byte	0
00000f81 0503           6126 	.byte	5,3
00000f83 00000000*      6127 	.word	_ucSnRotH..C.3A.5C_ECU2.5CECU_Rivian_A1.5CTarget.5Crepo_projects.5CpRealEcu.5CcR_LATEST.5Cmake.5Coutput.5Cobjects.5Cprocdat.
                        6128 
                        6129 .LDW_4cd6670:
00000f87 04             6130 	.byte	4
00000f88 756352656345   6131 	.strz	"ucRecEventPD"
00000f8e 76656e745044 
00000f94 00 
00000f95 28             6132 	.byte	40
00000f96 0e             6133 	.byte	14
00000f97 01             6134 	.byte	1
00000f98 00000000*      6135 	.word	.LDW_304ee70
00000f9c 00             6136 	.byte	0
00000f9d 00             6137 	.byte	0
00000f9e 0503           6138 	.byte	5,3
00000fa0 00000000*      6139 	.word	_ucRecEventPD..C.3A.5C_ECU2.5CECU_Rivian_A1.5CTarget.5Crepo_projects.5CpRealEcu.5CcR_LATEST.5Cmake.5Coutput.5Cobjects.5Cprocdat.
                        6140 
                        6141 .LDW_4cd66c8:
00000fa4 04             6142 	.byte	4
00000fa5 55385f416c6c   6143 	.strz	"U8_AllReceivedTelegCnt"
00000fab 526563656976 
00000fb1 656454656c65 
00000fb7 67436e7400 
00000fbc 29             6144 	.byte	41
00000fbd 0e             6145 	.byte	14
00000fbe 01             6146 	.byte	1
00000fbf 00000000*      6147 	.word	.LDW_304ee70
00000fc3 00             6148 	.byte	0
00000fc4 00             6149 	.byte	0
00000fc5 0503           6150 	.byte	5,3
00000fc7 00000000*      6151 	.word	_U8_AllReceivedTelegCnt..C.3A.5C_ECU2.5CECU_Rivian_A1.5CTarget.5Crepo_projects.5CpRealEcu.5CcR_LATEST.5Cmake.5Coutput.5Cobjects.5Cprocdat.
                        6152 
                        6153 .LDW_4cdaea8:
00000fcb 04             6154 	.byte	4
00000fcc 756352656966   6155 	.strz	"ucReifendruckPD"
00000fd2 656e64727563 
00000fd8 6b504400 
00000fdc 2a             6156 	.byte	42
00000fdd 0e             6157 	.byte	14
00000fde 01             6158 	.byte	1
00000fdf 00000000*      6159 	.word	.LDW_4cd8158
00000fe3 00             6160 	.byte	0
00000fe4 00             6161 	.byte	0
00000fe5 0503           6162 	.byte	5,3
00000fe7 00000000*      6163 	.word	_ucReifendruckPD..C.3A.5C_ECU2.5CECU_Rivian_A1.5CTarget.5Crepo_projects.5CpRealEcu.5CcR_LATEST.5Cmake.5Coutput.5Cobjects.5Cprocdat.
                        6164 
                        6165 .LDW_4cdaa30:
00000feb 04             6166 	.byte	4
00000fec 736354656d70   6167 	.strz	"scTemperaturPD"
00000ff2 657261747572 
00000ff8 504400 
00000ffb 2b             6168 	.byte	43

                                                                      Page 111
                                                              C:\Users\nhuliyap\AppData\Local\Temp\gh_00006641.s
00000ffc 0e             6169 	.byte	14
00000ffd 01             6170 	.byte	1
00000ffe 00000000*      6171 	.word	.LDW_4cd8510
00001002 00             6172 	.byte	0
00001003 00             6173 	.byte	0
00001004 0503           6174 	.byte	5,3
00001006 00000000*      6175 	.word	_scTemperaturPD..C.3A.5C_ECU2.5CECU_Rivian_A1.5CTarget.5Crepo_projects.5CpRealEcu.5CcR_LATEST.5Cmake.5Coutput.5Cobjects.5Cprocdat.
                        6176 
                        6177 .LDW_4cda878:
0000100a 04             6178 	.byte	4
0000100b 756352657374   6179 	.strz	"ucRestlebensdauerPD"
00001011 6c6562656e73 
00001017 646175657250 
0000101d 4400 
0000101f 2c             6180 	.byte	44
00001020 0e             6181 	.byte	14
00001021 01             6182 	.byte	1
00001022 00000000*      6183 	.word	.LDW_4cd8378
00001026 00             6184 	.byte	0
00001027 00             6185 	.byte	0
00001028 0503           6186 	.byte	5,3
0000102a 00000000*      6187 	.word	_ucRestlebensdauerPD..C.3A.5C_ECU2.5CECU_Rivian_A1.5CTarget.5Crepo_projects.5CpRealEcu.5CcR_LATEST.5Cmake.5Coutput.5Cobjects.5Cprocdat.
                        6188 
                        6189 .LDW_4cdae50:
0000102e 04             6190 	.byte	4
0000102f 756352535349   6191 	.strz	"ucRSSIsumPD"
00001035 73756d504400 
0000103b 2d             6192 	.byte	45
0000103c 0e             6193 	.byte	14
0000103d 01             6194 	.byte	1
0000103e 00000000*      6195 	.word	.LDW_4cd8598
00001042 00             6196 	.byte	0
00001043 00             6197 	.byte	0
00001044 0503           6198 	.byte	5,3
00001046 00000000*      6199 	.word	_ucRSSIsumPD..C.3A.5C_ECU2.5CECU_Rivian_A1.5CTarget.5Crepo_projects.5CpRealEcu.5CcR_LATEST.5Cmake.5Coutput.5Cobjects.5Cprocdat.
                        6200 
                        6201 .LDW_4cdaf00:
0000104a 04             6202 	.byte	4
0000104b 756354656c54   6203 	.strz	"ucTelTypePD"
00001051 797065504400 
00001057 2e             6204 	.byte	46
00001058 0e             6205 	.byte	14
00001059 01             6206 	.byte	1
0000105a 00000000*      6207 	.word	.LDW_4cd8400
0000105e 00             6208 	.byte	0
0000105f 00             6209 	.byte	0
00001060 0503           6210 	.byte	5,3
00001062 00000000*      6211 	.word	_ucTelTypePD..C.3A.5C_ECU2.5CECU_Rivian_A1.5CTarget.5Crepo_projects.5CpRealEcu.5CcR_LATEST.5Cmake.5Coutput.5Cobjects.5Cprocdat.
                        6212 
                        6213 .LDW_4cdb110:
00001066 04             6214 	.byte	4
00001067 75635472616e   6215 	.strz	"ucTransModePD"
0000106d 734d6f646550 
00001073 4400 
00001075 2f             6216 	.byte	47
00001076 0e             6217 	.byte	14
00001077 01             6218 	.byte	1
00001078 00000000*      6219 	.word	.LDW_4cd7da0
0000107c 00             6220 	.byte	0
0000107d 00             6221 	.byte	0
0000107e 0503           6222 	.byte	5,3

                                                                      Page 112
                                                              C:\Users\nhuliyap\AppData\Local\Temp\gh_00006641.s
00001080 00000000*      6223 	.word	_ucTransModePD..C.3A.5C_ECU2.5CECU_Rivian_A1.5CTarget.5Crepo_projects.5CpRealEcu.5CcR_LATEST.5Cmake.5Coutput.5Cobjects.5Cprocdat.
                        6224 
                        6225 .LDW_4cdaa88:
00001084 04             6226 	.byte	4
00001085 75736853656e   6227 	.strz	"ushSensorDefectPD"
0000108b 736f72446566 
00001091 656374504400 
00001097 30             6228 	.byte	48
00001098 0f             6229 	.byte	15
00001099 01             6230 	.byte	1
0000109a 00000000*      6231 	.word	.LDW_4cd79e8
0000109e 00             6232 	.byte	0
0000109f 00             6233 	.byte	0
000010a0 0503           6234 	.byte	5,3
000010a2 00000000*      6235 	.word	_ushSensorDefectPD..C.3A.5C_ECU2.5CECU_Rivian_A1.5CTarget.5Crepo_projects.5CpRealEcu.5CcR_LATEST.5Cmake.5Coutput.5Cobjects.5Cprocdat.
                        6236 
                        6237 .LDW_4cdacf0:
000010a6 04             6238 	.byte	4
000010a7 75635061746d   6239 	.strz	"ucPatmoPD"
000010ad 6f504400 
000010b1 31             6240 	.byte	49
000010b2 0e             6241 	.byte	14
000010b3 01             6242 	.byte	1
000010b4 00000000*      6243 	.word	.LDW_304ee70
000010b8 00             6244 	.byte	0
000010b9 00             6245 	.byte	0
000010ba 0503           6246 	.byte	5,3
000010bc 00000000*      6247 	.word	_ucPatmoPD..C.3A.5C_ECU2.5CECU_Rivian_A1.5CTarget.5Crepo_projects.5CpRealEcu.5CcR_LATEST.5Cmake.5Coutput.5Cobjects.5Cprocdat.
                        6248 
                        6249 .LDW_4cdb168:
000010c0 04             6250 	.byte	4
000010c1 745265446174   6251 	.strz	"tReDataPreProcPD"
000010c7 615072655072 
000010cd 6f63504400 
000010d2 33             6252 	.byte	51
000010d3 1c             6253 	.byte	28
000010d4 01             6254 	.byte	1
000010d5 00000000*      6255 	.word	.LDW_4cd60f0
000010d9 00             6256 	.byte	0
000010da 00             6257 	.byte	0
000010db 0503           6258 	.byte	5,3
000010dd 00000000*      6259 	.word	_tReDataPreProcPD..C.3A.5C_ECU2.5CECU_Rivian_A1.5CTarget.5Crepo_projects.5CpRealEcu.5CcR_LATEST.5Cmake.5Coutput.5Cobjects.5Cprocdat.
                        6260 
                        6261 .LDW_4cdb008:
000010e1 04             6262 	.byte	4
000010e2 7563526f7461   6263 	.strz	"ucRotatSTelIndexGet"
000010e8 745354656c49 
000010ee 6e6465784765 
000010f4 7400 
000010f6 3b             6264 	.byte	59
000010f7 07             6265 	.byte	7
000010f8 01             6266 	.byte	1
000010f9 00000000*      6267 	.word	.LDW_304ee70
000010fd 01             6268 	.byte	1
000010fe 00             6269 	.byte	0
000010ff 0503           6270 	.byte	5,3
00001101 00000000*      6271 	.word	_ucRotatSTelIndexGet
                        6272 
                        6273 .LDW_4cdda60:
00001105 16             6274 	.byte	22
00001106 756347657457   6275 	.strz	"ucGetWPOfCol"

                                                                      Page 113
                                                              C:\Users\nhuliyap\AppData\Local\Temp\gh_00006641.s
0000110c 504f66436f6c 
00001112 00 
00001113 8801           6276 	.byte	136,1
00001115 16             6277 	.byte	22
00001116 0e             6278 	.byte	14
00001117 00000000*      6279 	.word	.LDW_3006f80
0000111b 01             6280 	.byte	1
0000111c 00             6281 	.byte	0
0000111d 01             6282 	.byte	1
0000111e 01             6283 	.byte	1
0000111f 00             6284 	.byte	0
00001120 01             6285 	.byte	1
                        6286 
                        6287 	.section	.debug_abbrev
000000b8 16             6288 	.byte	22
000000b9 2e             6289 	.byte	46
000000ba 01             6290 	.byte	1
000000bb 0308           6291 	.byte	3,8
000000bd 3b0f           6292 	.byte	59,15
000000bf 390f           6293 	.byte	57,15
000000c1 3a0f           6294 	.byte	58,15
000000c3 4910           6295 	.byte	73,16
000000c5 3c0c           6296 	.byte	60,12
000000c7 200b           6297 	.byte	32,11
000000c9 3f0c           6298 	.byte	63,12
000000cb 320b           6299 	.byte	50,11
000000cd 4c0b           6300 	.byte	76,11
000000cf 270c           6301 	.byte	39,12
000000d1 0000           6302 	.byte	0,0
                        6303 
                        6304 	.section	.debug_info
00001121 00             6305 	.byte	0
                        6306 
                        6307 .LDW_4ce0d20:
00001122 16             6308 	.byte	22
00001123 474554756350   6309 	.strz	"GETucPatmoEE"
00001129 61746d6f4545 
0000112f 00 
00001130 2d             6310 	.byte	45
00001131 10             6311 	.byte	16
00001132 0d             6312 	.byte	13
00001133 00000000*      6313 	.word	.LDW_304ee70
00001137 01             6314 	.byte	1
00001138 00             6315 	.byte	0
00001139 01             6316 	.byte	1
0000113a 01             6317 	.byte	1
0000113b 00             6318 	.byte	0
0000113c 01             6319 	.byte	1
                        6320 
0000113d 00             6321 	.byte	0
                        6322 
                        6323 .LDW_4ce51b0:
0000113e 15             6324 	.byte	21
0000113f 4e764d5f5772   6325 	.strz	"NvM_WriteData_PressureFL"
00001145 697465446174 
0000114b 615f50726573 
00001151 73757265464c 
00001157 00 
00001158 62             6326 	.byte	98
00001159 0d             6327 	.byte	13
0000115a 0d             6328 	.byte	13

                                                                      Page 114
                                                              C:\Users\nhuliyap\AppData\Local\Temp\gh_00006641.s
0000115b 01             6329 	.byte	1
0000115c 00             6330 	.byte	0
0000115d 01             6331 	.byte	1
0000115e 01             6332 	.byte	1
0000115f 00             6333 	.byte	0
00001160 01             6334 	.byte	1
                        6335 
                        6336 	.section	.debug_abbrev
000000d3 15             6337 	.byte	21
000000d4 2e             6338 	.byte	46
000000d5 01             6339 	.byte	1
000000d6 0308           6340 	.byte	3,8
000000d8 3b0f           6341 	.byte	59,15
000000da 390f           6342 	.byte	57,15
000000dc 3a0f           6343 	.byte	58,15
000000de 3c0c           6344 	.byte	60,12
000000e0 200b           6345 	.byte	32,11
000000e2 3f0c           6346 	.byte	63,12
000000e4 320b           6347 	.byte	50,11
000000e6 4c0b           6348 	.byte	76,11
000000e8 270c           6349 	.byte	39,12
000000ea 0000           6350 	.byte	0,0
                        6351 
                        6352 	.section	.debug_info
00001161 00             6353 	.byte	0
                        6354 
                        6355 .LDW_4ce5248:
00001162 15             6356 	.byte	21
00001163 4e764d5f5772   6357 	.strz	"NvM_WriteData_PressureFR"
00001169 697465446174 
0000116f 615f50726573 
00001175 737572654652 
0000117b 00 
0000117c 64             6358 	.byte	100
0000117d 0d             6359 	.byte	13
0000117e 0d             6360 	.byte	13
0000117f 01             6361 	.byte	1
00001180 00             6362 	.byte	0
00001181 01             6363 	.byte	1
00001182 01             6364 	.byte	1
00001183 00             6365 	.byte	0
00001184 01             6366 	.byte	1
                        6367 
00001185 00             6368 	.byte	0
                        6369 
                        6370 .LDW_4ce4d88:
00001186 15             6371 	.byte	21
00001187 4e764d5f5772   6372 	.strz	"NvM_WriteData_PressureRL"
0000118d 697465446174 
00001193 615f50726573 
00001199 73757265524c 
0000119f 00 
000011a0 66             6373 	.byte	102
000011a1 0d             6374 	.byte	13
000011a2 0d             6375 	.byte	13
000011a3 01             6376 	.byte	1
000011a4 00             6377 	.byte	0
000011a5 01             6378 	.byte	1
000011a6 01             6379 	.byte	1
000011a7 00             6380 	.byte	0
000011a8 01             6381 	.byte	1

                                                                      Page 115
                                                              C:\Users\nhuliyap\AppData\Local\Temp\gh_00006641.s
                        6382 
000011a9 00             6383 	.byte	0
                        6384 
                        6385 .LDW_4ce4e20:
000011aa 15             6386 	.byte	21
000011ab 4e764d5f5772   6387 	.strz	"NvM_WriteData_PressureRR"
000011b1 697465446174 
000011b7 615f50726573 
000011bd 737572655252 
000011c3 00 
000011c4 68             6388 	.byte	104
000011c5 0d             6389 	.byte	13
000011c6 0d             6390 	.byte	13
000011c7 01             6391 	.byte	1
000011c8 00             6392 	.byte	0
000011c9 01             6393 	.byte	1
000011ca 01             6394 	.byte	1
000011cb 00             6395 	.byte	0
000011cc 01             6396 	.byte	1
                        6397 
000011cd 00             6398 	.byte	0
                        6399 
                        6400 .LDW_4ce54a8:
000011ce 15             6401 	.byte	21
000011cf 4e764d5f5772   6402 	.strz	"NvM_WriteData_TemperatureFL"
000011d5 697465446174 
000011db 615f54656d70 
000011e1 657261747572 
000011e7 65464c00 
000011eb 6a             6403 	.byte	106
000011ec 0d             6404 	.byte	13
000011ed 0d             6405 	.byte	13
000011ee 01             6406 	.byte	1
000011ef 00             6407 	.byte	0
000011f0 01             6408 	.byte	1
000011f1 01             6409 	.byte	1
000011f2 00             6410 	.byte	0
000011f3 01             6411 	.byte	1
                        6412 
000011f4 00             6413 	.byte	0
                        6414 
                        6415 .LDW_4ce57a0:
000011f5 15             6416 	.byte	21
000011f6 4e764d5f5772   6417 	.strz	"NvM_WriteData_TemperatureFR"
000011fc 697465446174 
00001202 615f54656d70 
00001208 657261747572 
0000120e 65465200 
00001212 6c             6418 	.byte	108
00001213 0d             6419 	.byte	13
00001214 0d             6420 	.byte	13
00001215 01             6421 	.byte	1
00001216 00             6422 	.byte	0
00001217 01             6423 	.byte	1
00001218 01             6424 	.byte	1
00001219 00             6425 	.byte	0
0000121a 01             6426 	.byte	1
                        6427 
0000121b 00             6428 	.byte	0
                        6429 
                        6430 .LDW_4ce58d0:

                                                                      Page 116
                                                              C:\Users\nhuliyap\AppData\Local\Temp\gh_00006641.s
0000121c 15             6431 	.byte	21
0000121d 4e764d5f5772   6432 	.strz	"NvM_WriteData_TemperatureRL"
00001223 697465446174 
00001229 615f54656d70 
0000122f 657261747572 
00001235 65524c00 
00001239 6e             6433 	.byte	110
0000123a 0d             6434 	.byte	13
0000123b 0d             6435 	.byte	13
0000123c 01             6436 	.byte	1
0000123d 00             6437 	.byte	0
0000123e 01             6438 	.byte	1
0000123f 01             6439 	.byte	1
00001240 00             6440 	.byte	0
00001241 01             6441 	.byte	1
                        6442 
00001242 00             6443 	.byte	0
                        6444 
                        6445 .LDW_4ce62e8:
00001243 15             6446 	.byte	21
00001244 4e764d5f5772   6447 	.strz	"NvM_WriteData_TemperatureRR"
0000124a 697465446174 
00001250 615f54656d70 
00001256 657261747572 
0000125c 65525200 
00001260 70             6448 	.byte	112
00001261 0d             6449 	.byte	13
00001262 0d             6450 	.byte	13
00001263 01             6451 	.byte	1
00001264 00             6452 	.byte	0
00001265 01             6453 	.byte	1
00001266 01             6454 	.byte	1
00001267 00             6455 	.byte	0
00001268 01             6456 	.byte	1
                        6457 
00001269 00             6458 	.byte	0
                        6459 
                        6460 .LDW_4ce5ff0:
0000126a 16             6461 	.byte	22
0000126b 75634765744c   6462 	.strz	"ucGetLen4Cmd"
00001271 656e34436d64 
00001277 00 
00001278 8101           6463 	.byte	129,1
0000127a 16             6464 	.byte	22
0000127b 12             6465 	.byte	18
0000127c 00000000*      6466 	.word	.LDW_3006f80
00001280 01             6467 	.byte	1
00001281 00             6468 	.byte	0
00001282 01             6469 	.byte	1
00001283 01             6470 	.byte	1
00001284 00             6471 	.byte	0
00001285 01             6472 	.byte	1
                        6473 
00001286 00             6474 	.byte	0
                        6475 
                        6476 .LDW_4ce61b8:
00001287 16             6477 	.byte	22
00001288 756354656c4f   6478 	.strz	"ucTelOfInterest"
0000128e 66496e746572 
00001294 65737400 
00001298 8201           6479 	.byte	130,1

                                                                      Page 117
                                                              C:\Users\nhuliyap\AppData\Local\Temp\gh_00006641.s
0000129a 16             6480 	.byte	22
0000129b 12             6481 	.byte	18
0000129c 00000000*      6482 	.word	.LDW_3006f80
000012a0 01             6483 	.byte	1
000012a1 00             6484 	.byte	0
000012a2 01             6485 	.byte	1
000012a3 01             6486 	.byte	1
000012a4 00             6487 	.byte	0
000012a5 01             6488 	.byte	1
                        6489 
000012a6 00             6490 	.byte	0
                        6491 
                        6492 .LDW_4ce65e0:
000012a7 16             6493 	.byte	22
000012a8 756347657452   6494 	.strz	"ucGetRadPosAtSlotPDIF"
000012ae 6164506f7341 
000012b4 74536c6f7450 
000012ba 44494600 
000012be 08             6495 	.byte	8
000012bf 0e             6496 	.byte	14
000012c0 13             6497 	.byte	19
000012c1 00000000*      6498 	.word	.LDW_304ee70
000012c5 01             6499 	.byte	1
000012c6 00             6500 	.byte	0
000012c7 01             6501 	.byte	1
000012c8 01             6502 	.byte	1
000012c9 00             6503 	.byte	0
000012ca 01             6504 	.byte	1
                        6505 
000012cb 00             6506 	.byte	0
                        6507 
                        6508 .LDW_4ce5ec0:
000012cc 15             6509 	.byte	21
000012cd 52656c6f6164   6510 	.strz	"ReloadSTATISTICS"
000012d3 535441544953 
000012d9 5449435300 
000012de 0e             6511 	.byte	14
000012df 0d             6512 	.byte	13
000012e0 14             6513 	.byte	20
000012e1 01             6514 	.byte	1
000012e2 00             6515 	.byte	0
000012e3 01             6516 	.byte	1
000012e4 01             6517 	.byte	1
000012e5 00             6518 	.byte	0
000012e6 01             6519 	.byte	1
                        6520 
000012e7 00             6521 	.byte	0
                        6522 
                        6523 .LDW_4ce6a00:
000012e8 15             6524 	.byte	21
000012e9 457652654461   6525 	.strz	"EvReDataSM"
000012ef 7461534d00 
000012f4 08             6526 	.byte	8
000012f5 0d             6527 	.byte	13
000012f6 15             6528 	.byte	21
000012f7 01             6529 	.byte	1
000012f8 00             6530 	.byte	0
000012f9 01             6531 	.byte	1
000012fa 01             6532 	.byte	1
000012fb 00             6533 	.byte	0
000012fc 01             6534 	.byte	1

                                                                      Page 118
                                                              C:\Users\nhuliyap\AppData\Local\Temp\gh_00006641.s
                        6535 
000012fd 00             6536 	.byte	0
                        6537 
                        6538 .LDW_4ce7bd0:
000012fe 16             6539 	.byte	22
000012ff 624765744269   6540 	.strz	"bGetBitBetriebszustandBZ"
00001305 744265747269 
0000130b 6562737a7573 
00001311 74616e64425a 
00001317 00 
00001318 1a             6541 	.byte	26
00001319 10             6542 	.byte	16
0000131a 16             6543 	.byte	22
0000131b 00000000*      6544 	.word	.LDW_4c867f0
0000131f 01             6545 	.byte	1
00001320 00             6546 	.byte	0
00001321 01             6547 	.byte	1
00001322 01             6548 	.byte	1
00001323 00             6549 	.byte	0
00001324 01             6550 	.byte	1
                        6551 
00001325 00             6552 	.byte	0
                        6553 
                        6554 .LDW_4ce8128:
00001326 16             6555 	.byte	22
00001327 526563656976   6556 	.strz	"ReceiveGetVehicleSpeed"
0000132d 654765745665 
00001333 6869636c6553 
00001339 7065656400 
0000133e 29             6557 	.byte	41
0000133f 10             6558 	.byte	16
00001340 17             6559 	.byte	23
00001341 00000000*      6560 	.word	.LDW_304ee70
00001345 01             6561 	.byte	1
00001346 00             6562 	.byte	0
00001347 01             6563 	.byte	1
00001348 01             6564 	.byte	1
00001349 00             6565 	.byte	0
0000134a 01             6566 	.byte	1
                        6567 
0000134b 00             6568 	.byte	0
                        6569 
                        6570 .LDW_4cea980:
0000134c 16             6571 	.byte	22
0000134d 526563656976   6572 	.strz	"ReceiveGetFmmotmax"
00001353 65476574466d 
00001359 6d6f746d6178 
0000135f 00 
00001360 2e             6573 	.byte	46
00001361 10             6574 	.byte	16
00001362 17             6575 	.byte	23
00001363 00000000*      6576 	.word	.LDW_304ee70
00001367 01             6577 	.byte	1
00001368 00             6578 	.byte	0
00001369 01             6579 	.byte	1
0000136a 01             6580 	.byte	1
0000136b 00             6581 	.byte	0
0000136c 01             6582 	.byte	1
                        6583 
0000136d 00             6584 	.byte	0
                        6585 

                                                                      Page 119
                                                              C:\Users\nhuliyap\AppData\Local\Temp\gh_00006641.s
                        6586 .LDW_4ce9978:
0000136e 15             6587 	.byte	21
0000136f 44434d5f4576   6588 	.strz	"DCM_EventDataUpdateOnRx"
00001375 656e74446174 
0000137b 615570646174 
00001381 654f6e527800 
00001387 9505           6589 	.byte	149,5
00001389 0d             6590 	.byte	13
0000138a 18             6591 	.byte	24
0000138b 01             6592 	.byte	1
0000138c 00             6593 	.byte	0
0000138d 01             6594 	.byte	1
0000138e 01             6595 	.byte	1
0000138f 00             6596 	.byte	0
00001390 01             6597 	.byte	1
                        6598 
00001391 00             6599 	.byte	0
                        6600 
                        6601 .LDW_304edd8:
00001392 13             6602 	.byte	19
00001393 496e69745044   6603 	.strz	"InitPD"
00001399 00 
0000139a 44             6604 	.byte	68
0000139b 06             6605 	.byte	6
0000139c 01             6606 	.byte	1
0000139d 00000000*      6607 	.word	_InitPD
000013a1 00000000*      6608 	.word	___ghs_eofn_InitPD
000013a5 0153           6609 	.byte	1,83
000013a7 828080800a     6610 	.byte	130,128,128,128,10
000013ac 08             6611 	.byte	8
000013ad 03             6612 	.byte	3
000013ae 08             6613 	.byte	8
000013af 00             6614 	.byte	0
000013b0 00             6615 	.byte	0
000013b1 00             6616 	.byte	0
000013b2 01             6617 	.byte	1
000013b3 01             6618 	.byte	1
000013b4 00             6619 	.byte	0
000013b5 01             6620 	.byte	1
                        6621 
                        6622 	.section	.debug_abbrev
000000ec 13             6623 	.byte	19
000000ed 2e             6624 	.byte	46
000000ee 01             6625 	.byte	1
000000ef 0308           6626 	.byte	3,8
000000f1 3b0f           6627 	.byte	59,15
000000f3 390f           6628 	.byte	57,15
000000f5 3a0f           6629 	.byte	58,15
000000f7 1101           6630 	.byte	17,1
000000f9 1201           6631 	.byte	18,1
000000fb 400a           6632 	.byte	64,10
000000fd 8341           6633 	.byte	131,65
000000ff 0f             6634 	.byte	15
00000100 8741           6635 	.byte	135,65
00000102 0d             6636 	.byte	13
00000103 8541           6637 	.byte	133,65
00000105 0f             6638 	.byte	15
00000106 8641           6639 	.byte	134,65
00000108 0d             6640 	.byte	13
00000109 9241           6641 	.byte	146,65
0000010b 0f             6642 	.byte	15

                                                                      Page 120
                                                              C:\Users\nhuliyap\AppData\Local\Temp\gh_00006641.s
0000010c 3c0c           6643 	.byte	60,12
0000010e 200b           6644 	.byte	32,11
00000110 3f0c           6645 	.byte	63,12
00000112 320b           6646 	.byte	50,11
00000114 4c0b           6647 	.byte	76,11
00000116 270c           6648 	.byte	39,12
00000118 0000           6649 	.byte	0,0
                        6650 
                        6651 	.section	.debug_frame
                        6652 .LDW_4ccc768:
00000090 00000000*      6653 	.word	.LDW_unq_4-.LDW_unq_3
                        6654 .LDW_unq_3:
00000094 00000000*      6655 	.word	.LDW_4c2b7e0
00000098 00000000*      6656 	.word	_InitPD
0000009c 00000000*      6657 	.word	___ghs_eofn_InitPD-_InitPD
000000a0 44             6658 	.byte	68
000000a1 9f             6659 	.byte	159
000000a2 00             6660 	.byte	0
000000a3 40             6661 	.byte	64
000000a4 9d             6662 	.byte	157
000000a5 04             6663 	.byte	4
000000a6 01             6664 	.byte	1
000000a7 00000000*      6665 	.word	.LDW31
000000ab 00             6666 	.byte	0
                        6667 .LDW_unq_4:
                        6668 	.section	.debug_line
00000470 000502         6669 	.byte	0,5,2
00000473 00000000*      6670 	.word	_InitPD
00000477 03             6671 	.byte	3
00000478 c400           6672 	.byte	196,0
0000047a 02             6673 	.byte	2
0000047b 00             6674 	.byte	0
0000047c 01             6675 	.byte	1
0000047d 06             6676 	.byte	6
0000047e 000502         6677 	.byte	0,5,2
00000481 00000000*      6678 	.word	.LDWlin2
00000485 0c             6679 	.byte	12
00000486 000502         6680 	.byte	0,5,2
00000489 00000000*      6681 	.word	.LDWlin3
0000048d 0b             6682 	.byte	11
0000048e 15             6683 	.byte	21
0000048f 000502         6684 	.byte	0,5,2
00000492 00000000*      6685 	.word	.LDWlin4
00000496 03             6686 	.byte	3
00000497 7e             6687 	.byte	126
00000498 02             6688 	.byte	2
00000499 00             6689 	.byte	0
0000049a 01             6690 	.byte	1
0000049b 13             6691 	.byte	19
0000049c 24             6692 	.byte	36
0000049d 02             6693 	.byte	2
0000049e 02             6694 	.byte	2
0000049f 0b             6695 	.byte	11
000004a0 23             6696 	.byte	35
000004a1 1b             6697 	.byte	27
000004a2 2b             6698 	.byte	43
000004a3 13             6699 	.byte	19
000004a4 13             6700 	.byte	19
000004a5 13             6701 	.byte	19
000004a6 33             6702 	.byte	51
000004a7 03             6703 	.byte	3

                                                                      Page 121
                                                              C:\Users\nhuliyap\AppData\Local\Temp\gh_00006641.s
000004a8 78             6704 	.byte	120
000004a9 02             6705 	.byte	2
000004aa 02             6706 	.byte	2
000004ab 01             6707 	.byte	1
000004ac 000502         6708 	.byte	0,5,2
000004af 00000000*      6709 	.word	.LDWlin5
000004b3 03             6710 	.byte	3
000004b4 09             6711 	.byte	9
000004b5 02             6712 	.byte	2
000004b6 00             6713 	.byte	0
000004b7 01             6714 	.byte	1
000004b8 0b             6715 	.byte	11
000004b9 000502         6716 	.byte	0,5,2
000004bc 00000000*      6717 	.word	.LDWlin6
000004c0 0c             6718 	.byte	12
000004c1 02             6719 	.byte	2
000004c2 04             6720 	.byte	4
000004c3 000101         6721 	.byte	0,1,1
                        6722 	.section	.debug_info
                        6723 .LDW_30014f0:
000013b6 1d             6724 	.byte	29
000013b7 00000000*      6725 	.word	.LDW21
000013bb 00000000*      6726 	.word	.LDW31
                        6727 
                        6728 	.section	.debug_abbrev
0000011a 1d             6729 	.byte	29
0000011b 0b             6730 	.byte	11
0000011c 01             6731 	.byte	1
0000011d 1101           6732 	.byte	17,1
0000011f 1201           6733 	.byte	18,1
00000121 0000           6734 	.byte	0,0
                        6735 
                        6736 	.section	.debug_info
                        6737 .LDW_304eec8:
000013bf 04             6738 	.byte	4
000013c0 75634c6f6f70   6739 	.strz	"ucLoop"
000013c6 00 
000013c7 46             6740 	.byte	70
000013c8 0a             6741 	.byte	10
000013c9 01             6742 	.byte	1
000013ca 00000000*      6743 	.word	.LDW_304ee70
000013ce 00             6744 	.byte	0
000013cf 00             6745 	.byte	0
000013d0 0162           6746 	.byte	1,98
                        6747 
000013d2 00             6748 	.byte	0
                        6749 
000013d3 00             6750 	.byte	0
                        6751 
                        6752 .LDW_304ef20:
000013d4 13             6753 	.byte	19
000013d5 496e6372656d   6754 	.strz	"IncrementAllReceivedTelegCnt"
000013db 656e74416c6c 
000013e1 526563656976 
000013e7 656454656c65 
000013ed 67436e7400 
000013f2 5a             6755 	.byte	90
000013f3 06             6756 	.byte	6
000013f4 01             6757 	.byte	1
000013f5 00000000*      6758 	.word	_IncrementAllReceivedTelegCnt
000013f9 00000000*      6759 	.word	___ghs_eofn_IncrementAllReceivedTelegCnt

                                                                      Page 122
                                                              C:\Users\nhuliyap\AppData\Local\Temp\gh_00006641.s
000013fd 0153           6760 	.byte	1,83
000013ff 02             6761 	.byte	2
00001400 00             6762 	.byte	0
00001401 02             6763 	.byte	2
00001402 00             6764 	.byte	0
00001403 00             6765 	.byte	0
00001404 00             6766 	.byte	0
00001405 00             6767 	.byte	0
00001406 01             6768 	.byte	1
00001407 01             6769 	.byte	1
00001408 00             6770 	.byte	0
00001409 01             6771 	.byte	1
                        6772 
                        6773 	.section	.debug_frame
                        6774 .LDW_4ccc668:
000000ac 00000000*      6775 	.word	.LDW_unq_6-.LDW_unq_5
                        6776 .LDW_unq_5:
000000b0 00000000*      6777 	.word	.LDW_4c2b7e0
000000b4 00000000*      6778 	.word	_IncrementAllReceivedTelegCnt
000000b8 00000000*      6779 	.word	___ghs_eofn_IncrementAllReceivedTelegCnt-_IncrementAllReceivedTelegCnt
000000bc 01             6780 	.byte	1
000000bd 00000000*      6781 	.word	.LDW51
000000c1 00             6782 	.byte	0
000000c2 00             6783 	.byte	0
000000c3 00             6784 	.byte	0
                        6785 .LDW_unq_6:
                        6786 	.section	.debug_line
000004c6 000502         6787 	.byte	0,5,2
000004c9 00000000*      6788 	.word	_IncrementAllReceivedTelegCnt
000004cd 06             6789 	.byte	6
000004ce 03             6790 	.byte	3
000004cf da00           6791 	.byte	218,0
000004d1 02             6792 	.byte	2
000004d2 00             6793 	.byte	0
000004d3 01             6794 	.byte	1
000004d4 000502         6795 	.byte	0,5,2
000004d7 00000000*      6796 	.word	.LDWlin7
000004db 0b             6797 	.byte	11
000004dc 02             6798 	.byte	2
000004dd 02             6799 	.byte	2
000004de 000101         6800 	.byte	0,1,1
                        6801 	.section	.debug_info
                        6802 .LDW_3001b20:
0000140a 1d             6803 	.byte	29
0000140b 00000000*      6804 	.word	.LDW41
0000140f 00000000*      6805 	.word	.LDW51
                        6806 
00001413 00             6807 	.byte	0
                        6808 
00001414 00             6809 	.byte	0
                        6810 
                        6811 .LDW_4bf1b40:
00001415 14             6812 	.byte	20
00001416 756c47657452   6813 	.strz	"ulGetReDataIdPD"
0000141c 654461746149 
00001422 64504400 
00001426 5e             6814 	.byte	94
00001427 08             6815 	.byte	8
00001428 01             6816 	.byte	1
00001429 00000000*      6817 	.word	.LDW_4bf1ae8
0000142d 00000000*      6818 	.word	_ulGetReDataIdPD

                                                                      Page 123
                                                              C:\Users\nhuliyap\AppData\Local\Temp\gh_00006641.s
00001431 00000000*      6819 	.word	___ghs_eofn_ulGetReDataIdPD
00001435 0153           6820 	.byte	1,83
00001437 02             6821 	.byte	2
00001438 00             6822 	.byte	0
00001439 02             6823 	.byte	2
0000143a 00             6824 	.byte	0
0000143b 00             6825 	.byte	0
0000143c 00             6826 	.byte	0
0000143d 00             6827 	.byte	0
0000143e 01             6828 	.byte	1
0000143f 01             6829 	.byte	1
00001440 00             6830 	.byte	0
00001441 01             6831 	.byte	1
                        6832 
                        6833 	.section	.debug_abbrev
00000123 14             6834 	.byte	20
00000124 2e             6835 	.byte	46
00000125 01             6836 	.byte	1
00000126 0308           6837 	.byte	3,8
00000128 3b0f           6838 	.byte	59,15
0000012a 390f           6839 	.byte	57,15
0000012c 3a0f           6840 	.byte	58,15
0000012e 4910           6841 	.byte	73,16
00000130 1101           6842 	.byte	17,1
00000132 1201           6843 	.byte	18,1
00000134 400a           6844 	.byte	64,10
00000136 8341           6845 	.byte	131,65
00000138 0f             6846 	.byte	15
00000139 8741           6847 	.byte	135,65
0000013b 0d             6848 	.byte	13
0000013c 8541           6849 	.byte	133,65
0000013e 0f             6850 	.byte	15
0000013f 8641           6851 	.byte	134,65
00000141 0d             6852 	.byte	13
00000142 9241           6853 	.byte	146,65
00000144 0f             6854 	.byte	15
00000145 3c0c           6855 	.byte	60,12
00000147 200b           6856 	.byte	32,11
00000149 3f0c           6857 	.byte	63,12
0000014b 320b           6858 	.byte	50,11
0000014d 4c0b           6859 	.byte	76,11
0000014f 270c           6860 	.byte	39,12
00000151 0000           6861 	.byte	0,0
                        6862 
                        6863 	.section	.debug_frame
                        6864 .LDW_4ccc8a8:
000000c4 00000000*      6865 	.word	.LDW_unq_8-.LDW_unq_7
                        6866 .LDW_unq_7:
000000c8 00000000*      6867 	.word	.LDW_4c2b7e0
000000cc 00000000*      6868 	.word	_ulGetReDataIdPD
000000d0 00000000*      6869 	.word	___ghs_eofn_ulGetReDataIdPD-_ulGetReDataIdPD
000000d4 01             6870 	.byte	1
000000d5 00000000*      6871 	.word	.LDW71
000000d9 00             6872 	.byte	0
000000da 00             6873 	.byte	0
000000db 00             6874 	.byte	0
                        6875 .LDW_unq_8:
                        6876 	.section	.debug_line
000004e1 000502         6877 	.byte	0,5,2
000004e4 00000000*      6878 	.word	_ulGetReDataIdPD
000004e8 03             6879 	.byte	3

                                                                      Page 124
                                                              C:\Users\nhuliyap\AppData\Local\Temp\gh_00006641.s
000004e9 de00           6880 	.byte	222,0
000004eb 02             6881 	.byte	2
000004ec 00             6882 	.byte	0
000004ed 01             6883 	.byte	1
000004ee 06             6884 	.byte	6
000004ef 000502         6885 	.byte	0,5,2
000004f2 00000000*      6886 	.word	.LDWlin8
000004f6 0d             6887 	.byte	13
000004f7 06             6888 	.byte	6
000004f8 02             6889 	.byte	2
000004f9 14             6890 	.byte	20
000004fa 02             6891 	.byte	2
000004fb 02             6892 	.byte	2
000004fc 000101         6893 	.byte	0,1,1
                        6894 	.section	.debug_info
                        6895 .LDW_3001be0:
00001442 1d             6896 	.byte	29
00001443 00000000*      6897 	.word	.LDW61
00001447 00000000*      6898 	.word	.LDW71
                        6899 
                        6900 .LDW_4bf1bd8:
0000144b 05             6901 	.byte	5
0000144c 756c5f4c6f63   6902 	.strz	"ul_LocalID"
00001452 616c494400 
00001457 60             6903 	.byte	96
00001458 0b             6904 	.byte	11
00001459 01             6905 	.byte	1
0000145a 00000000*      6906 	.word	.LDW_4bf1ae8
0000145e 00             6907 	.byte	0
0000145f 00             6908 	.byte	0
                        6909 
                        6910 	.section	.debug_abbrev
00000153 05             6911 	.byte	5
00000154 34             6912 	.byte	52
00000155 00             6913 	.byte	0
00000156 0308           6914 	.byte	3,8
00000158 3b0f           6915 	.byte	59,15
0000015a 390f           6916 	.byte	57,15
0000015c 3a0f           6917 	.byte	58,15
0000015e 4910           6918 	.byte	73,16
00000160 3f0c           6919 	.byte	63,12
00000162 3c0c           6920 	.byte	60,12
00000164 0000           6921 	.byte	0,0
                        6922 
                        6923 	.section	.debug_info
00001460 00             6924 	.byte	0
                        6925 
00001461 00             6926 	.byte	0
                        6927 
                        6928 .LDW_4bf1c30:
00001462 14             6929 	.byte	20
00001463 756347657452   6930 	.strz	"ucGetReDataPressurePD"
00001469 654461746150 
0000146f 726573737572 
00001475 65504400 
00001479 65             6931 	.byte	101
0000147a 07             6932 	.byte	7
0000147b 01             6933 	.byte	1
0000147c 00000000*      6934 	.word	.LDW_304ee70
00001480 00000000*      6935 	.word	_ucGetReDataPressurePD
00001484 00000000*      6936 	.word	___ghs_eofn_ucGetReDataPressurePD

                                                                      Page 125
                                                              C:\Users\nhuliyap\AppData\Local\Temp\gh_00006641.s
00001488 0153           6937 	.byte	1,83
0000148a 02             6938 	.byte	2
0000148b 00             6939 	.byte	0
0000148c 02             6940 	.byte	2
0000148d 00             6941 	.byte	0
0000148e 00             6942 	.byte	0
0000148f 00             6943 	.byte	0
00001490 00             6944 	.byte	0
00001491 01             6945 	.byte	1
00001492 01             6946 	.byte	1
00001493 00             6947 	.byte	0
00001494 01             6948 	.byte	1
                        6949 
                        6950 	.section	.debug_frame
                        6951 .LDW_4ccc9e8:
000000dc 00000000*      6952 	.word	.LDW_unq_a-.LDW_unq_9
                        6953 .LDW_unq_9:
000000e0 00000000*      6954 	.word	.LDW_4c2b7e0
000000e4 00000000*      6955 	.word	_ucGetReDataPressurePD
000000e8 00000000*      6956 	.word	___ghs_eofn_ucGetReDataPressurePD-_ucGetReDataPressurePD
000000ec 01             6957 	.byte	1
000000ed 00000000*      6958 	.word	.LDW91
000000f1 00             6959 	.byte	0
000000f2 00             6960 	.byte	0
000000f3 00             6961 	.byte	0
                        6962 .LDW_unq_a:
                        6963 	.section	.debug_line
000004ff 000502         6964 	.byte	0,5,2
00000502 00000000*      6965 	.word	_ucGetReDataPressurePD
00000506 03             6966 	.byte	3
00000507 e500           6967 	.byte	229,0
00000509 02             6968 	.byte	2
0000050a 00             6969 	.byte	0
0000050b 01             6970 	.byte	1
0000050c 06             6971 	.byte	6
0000050d 000502         6972 	.byte	0,5,2
00000510 00000000*      6973 	.word	.LDWlin9
00000514 0c             6974 	.byte	12
00000515 000502         6975 	.byte	0,5,2
00000518 00000000*      6976 	.word	.LDWlin10
0000051c 02             6977 	.byte	2
0000051d 00             6978 	.byte	0
0000051e 0b             6979 	.byte	11
0000051f 000502         6980 	.byte	0,5,2
00000522 00000000*      6981 	.word	.LDWlin11
00000526 0b             6982 	.byte	11
00000527 0b             6983 	.byte	11
00000528 0b             6984 	.byte	11
00000529 13             6985 	.byte	19
0000052a 02             6986 	.byte	2
0000052b 00             6987 	.byte	0
0000052c 0b             6988 	.byte	11
0000052d 02             6989 	.byte	2
0000052e 02             6990 	.byte	2
0000052f 000101         6991 	.byte	0,1,1
                        6992 	.section	.debug_info
                        6993 .LDW_3001a90:
00001495 1d             6994 	.byte	29
00001496 00000000*      6995 	.word	.LDW81
0000149a 00000000*      6996 	.word	.LDW91
                        6997 

                                                                      Page 126
                                                              C:\Users\nhuliyap\AppData\Local\Temp\gh_00006641.s
                        6998 .LDW_4bf1cc8:
0000149e 04             6999 	.byte	4
0000149f 756348656c70   7000 	.strz	"ucHelp"
000014a5 00 
000014a6 67             7001 	.byte	103
000014a7 0a             7002 	.byte	10
000014a8 01             7003 	.byte	1
000014a9 00000000*      7004 	.word	.LDW_304ee70
000014ad 00             7005 	.byte	0
000014ae 00             7006 	.byte	0
000014af 015a           7007 	.byte	1,90
                        7008 
000014b1 00             7009 	.byte	0
                        7010 
000014b2 00             7011 	.byte	0
                        7012 
                        7013 .LDW_4bf1d20:
000014b3 14             7014 	.byte	20
000014b4 756347657452   7015 	.strz	"ucGetReDataTemperaturePD"
000014ba 654461746154 
000014c0 656d70657261 
000014c6 747572655044 
000014cc 00 
000014cd 71             7016 	.byte	113
000014ce 07             7017 	.byte	7
000014cf 01             7018 	.byte	1
000014d0 00000000*      7019 	.word	.LDW_304ee70
000014d4 00000000*      7020 	.word	_ucGetReDataTemperaturePD
000014d8 00000000*      7021 	.word	___ghs_eofn_ucGetReDataTemperaturePD
000014dc 0153           7022 	.byte	1,83
000014de 02             7023 	.byte	2
000014df 00             7024 	.byte	0
000014e0 02             7025 	.byte	2
000014e1 00             7026 	.byte	0
000014e2 00             7027 	.byte	0
000014e3 00             7028 	.byte	0
000014e4 00             7029 	.byte	0
000014e5 01             7030 	.byte	1
000014e6 01             7031 	.byte	1
000014e7 00             7032 	.byte	0
000014e8 01             7033 	.byte	1
                        7034 
                        7035 	.section	.debug_frame
                        7036 .LDW_4ccd0e8:
000000f4 00000000*      7037 	.word	.LDW_unq_c-.LDW_unq_b
                        7038 .LDW_unq_b:
000000f8 00000000*      7039 	.word	.LDW_4c2b7e0
000000fc 00000000*      7040 	.word	_ucGetReDataTemperaturePD
00000100 00000000*      7041 	.word	___ghs_eofn_ucGetReDataTemperaturePD-_ucGetReDataTemperaturePD
00000104 01             7042 	.byte	1
00000105 00000000*      7043 	.word	.LDW12
00000109 00             7044 	.byte	0
0000010a 00             7045 	.byte	0
0000010b 00             7046 	.byte	0
                        7047 .LDW_unq_c:
                        7048 	.section	.debug_line
00000532 000502         7049 	.byte	0,5,2
00000535 00000000*      7050 	.word	_ucGetReDataTemperaturePD
00000539 03             7051 	.byte	3
0000053a f100           7052 	.byte	241,0
0000053c 02             7053 	.byte	2

                                                                      Page 127
                                                              C:\Users\nhuliyap\AppData\Local\Temp\gh_00006641.s
0000053d 00             7054 	.byte	0
0000053e 01             7055 	.byte	1
0000053f 06             7056 	.byte	6
00000540 000502         7057 	.byte	0,5,2
00000543 00000000*      7058 	.word	.LDWlin12
00000547 0c             7059 	.byte	12
00000548 000502         7060 	.byte	0,5,2
0000054b 00000000*      7061 	.word	.LDWlin13
0000054f 02             7062 	.byte	2
00000550 00             7063 	.byte	0
00000551 0b             7064 	.byte	11
00000552 000502         7065 	.byte	0,5,2
00000555 00000000*      7066 	.word	.LDWlin14
00000559 0b             7067 	.byte	11
0000055a 0b             7068 	.byte	11
0000055b 0b             7069 	.byte	11
0000055c 13             7070 	.byte	19
0000055d 02             7071 	.byte	2
0000055e 00             7072 	.byte	0
0000055f 0b             7073 	.byte	11
00000560 02             7074 	.byte	2
00000561 02             7075 	.byte	2
00000562 000101         7076 	.byte	0,1,1
                        7077 	.section	.debug_info
                        7078 .LDW_3001b50:
000014e9 1d             7079 	.byte	29
000014ea 00000000*      7080 	.word	.LDW02
000014ee 00000000*      7081 	.word	.LDW12
                        7082 
                        7083 .LDW_4bf1db8:
000014f2 04             7084 	.byte	4
000014f3 756348656c70   7085 	.strz	"ucHelp"
000014f9 00 
000014fa 73             7086 	.byte	115
000014fb 0a             7087 	.byte	10
000014fc 01             7088 	.byte	1
000014fd 00000000*      7089 	.word	.LDW_304ee70
00001501 00             7090 	.byte	0
00001502 00             7091 	.byte	0
00001503 015a           7092 	.byte	1,90
                        7093 
00001505 00             7094 	.byte	0
                        7095 
00001506 00             7096 	.byte	0
                        7097 
                        7098 .LDW_4bf1e10:
00001507 14             7099 	.byte	20
00001508 756347657452   7100 	.strz	"ucGetReDataRemainingLifeTimePD"
0000150e 654461746152 
00001514 656d61696e69 
0000151a 6e674c696665 
00001520 54696d655044 
00001526 00 
00001527 7d             7101 	.byte	125
00001528 07             7102 	.byte	7
00001529 01             7103 	.byte	1
0000152a 00000000*      7104 	.word	.LDW_304ee70
0000152e 00000000*      7105 	.word	_ucGetReDataRemainingLifeTimePD
00001532 00000000*      7106 	.word	___ghs_eofn_ucGetReDataRemainingLifeTimePD
00001536 0153           7107 	.byte	1,83
00001538 02             7108 	.byte	2

                                                                      Page 128
                                                              C:\Users\nhuliyap\AppData\Local\Temp\gh_00006641.s
00001539 00             7109 	.byte	0
0000153a 02             7110 	.byte	2
0000153b 00             7111 	.byte	0
0000153c 00             7112 	.byte	0
0000153d 00             7113 	.byte	0
0000153e 00             7114 	.byte	0
0000153f 01             7115 	.byte	1
00001540 01             7116 	.byte	1
00001541 00             7117 	.byte	0
00001542 01             7118 	.byte	1
                        7119 
                        7120 	.section	.debug_frame
                        7121 .LDW_4ccca68:
0000010c 00000000*      7122 	.word	.LDW_unq_e-.LDW_unq_d
                        7123 .LDW_unq_d:
00000110 00000000*      7124 	.word	.LDW_4c2b7e0
00000114 00000000*      7125 	.word	_ucGetReDataRemainingLifeTimePD
00000118 00000000*      7126 	.word	___ghs_eofn_ucGetReDataRemainingLifeTimePD-_ucGetReDataRemainingLifeTimePD
0000011c 01             7127 	.byte	1
0000011d 00000000*      7128 	.word	.LDW32
00000121 00             7129 	.byte	0
00000122 00             7130 	.byte	0
00000123 00             7131 	.byte	0
                        7132 .LDW_unq_e:
                        7133 	.section	.debug_line
00000565 000502         7134 	.byte	0,5,2
00000568 00000000*      7135 	.word	_ucGetReDataRemainingLifeTimePD
0000056c 03             7136 	.byte	3
0000056d fd00           7137 	.byte	253,0
0000056f 02             7138 	.byte	2
00000570 00             7139 	.byte	0
00000571 01             7140 	.byte	1
00000572 06             7141 	.byte	6
00000573 000502         7142 	.byte	0,5,2
00000576 00000000*      7143 	.word	.LDWlin15
0000057a 0c             7144 	.byte	12
0000057b 000502         7145 	.byte	0,5,2
0000057e 00000000*      7146 	.word	.LDWlin16
00000582 02             7147 	.byte	2
00000583 00             7148 	.byte	0
00000584 0b             7149 	.byte	11
00000585 000502         7150 	.byte	0,5,2
00000588 00000000*      7151 	.word	.LDWlin17
0000058c 0b             7152 	.byte	11
0000058d 0b             7153 	.byte	11
0000058e 0b             7154 	.byte	11
0000058f 13             7155 	.byte	19
00000590 02             7156 	.byte	2
00000591 00             7157 	.byte	0
00000592 0b             7158 	.byte	11
00000593 02             7159 	.byte	2
00000594 02             7160 	.byte	2
00000595 000101         7161 	.byte	0,1,1
                        7162 	.section	.debug_info
                        7163 .LDW_3001bb0:
00001543 1d             7164 	.byte	29
00001544 00000000*      7165 	.word	.LDW22
00001548 00000000*      7166 	.word	.LDW32
                        7167 
                        7168 .LDW_4bf1ea8:
0000154c 04             7169 	.byte	4

                                                                      Page 129
                                                              C:\Users\nhuliyap\AppData\Local\Temp\gh_00006641.s
0000154d 756348656c70   7170 	.strz	"ucHelp"
00001553 00 
00001554 7f             7171 	.byte	127
00001555 0a             7172 	.byte	10
00001556 01             7173 	.byte	1
00001557 00000000*      7174 	.word	.LDW_304ee70
0000155b 00             7175 	.byte	0
0000155c 00             7176 	.byte	0
0000155d 015a           7177 	.byte	1,90
                        7178 
0000155f 00             7179 	.byte	0
                        7180 
00001560 00             7181 	.byte	0
                        7182 
                        7183 .LDW_4bf1f00:
00001561 14             7184 	.byte	20
00001562 756347657452   7185 	.strz	"ucGetReDataStatePD"
00001568 654461746153 
0000156e 746174655044 
00001574 00 
00001575 8901           7186 	.byte	137,1
00001577 07             7187 	.byte	7
00001578 01             7188 	.byte	1
00001579 00000000*      7189 	.word	.LDW_304ee70
0000157d 00000000*      7190 	.word	_ucGetReDataStatePD
00001581 00000000*      7191 	.word	___ghs_eofn_ucGetReDataStatePD
00001585 0153           7192 	.byte	1,83
00001587 02             7193 	.byte	2
00001588 00             7194 	.byte	0
00001589 02             7195 	.byte	2
0000158a 00             7196 	.byte	0
0000158b 00             7197 	.byte	0
0000158c 00             7198 	.byte	0
0000158d 00             7199 	.byte	0
0000158e 01             7200 	.byte	1
0000158f 01             7201 	.byte	1
00001590 00             7202 	.byte	0
00001591 01             7203 	.byte	1
                        7204 
                        7205 	.section	.debug_frame
                        7206 .LDW_4cccca8:
00000124 00000000*      7207 	.word	.LDW_unq_10-.LDW_unq_f
                        7208 .LDW_unq_f:
00000128 00000000*      7209 	.word	.LDW_4c2b7e0
0000012c 00000000*      7210 	.word	_ucGetReDataStatePD
00000130 00000000*      7211 	.word	___ghs_eofn_ucGetReDataStatePD-_ucGetReDataStatePD
00000134 01             7212 	.byte	1
00000135 00000000*      7213 	.word	.LDW52
00000139 00             7214 	.byte	0
0000013a 00             7215 	.byte	0
0000013b 00             7216 	.byte	0
                        7217 .LDW_unq_10:
                        7218 	.section	.debug_line
00000598 000502         7219 	.byte	0,5,2
0000059b 00000000*      7220 	.word	_ucGetReDataStatePD
0000059f 03             7221 	.byte	3
000005a0 8901           7222 	.byte	137,1
000005a2 02             7223 	.byte	2
000005a3 00             7224 	.byte	0
000005a4 01             7225 	.byte	1
000005a5 06             7226 	.byte	6

                                                                      Page 130
                                                              C:\Users\nhuliyap\AppData\Local\Temp\gh_00006641.s
000005a6 000502         7227 	.byte	0,5,2
000005a9 00000000*      7228 	.word	.LDWlin18
000005ad 0c             7229 	.byte	12
000005ae 02             7230 	.byte	2
000005af 04             7231 	.byte	4
000005b0 0b             7232 	.byte	11
000005b1 000502         7233 	.byte	0,5,2
000005b4 00000000*      7234 	.word	.LDWlin19
000005b8 0b             7235 	.byte	11
000005b9 0b             7236 	.byte	11
000005ba 02             7237 	.byte	2
000005bb 00             7238 	.byte	0
000005bc 02             7239 	.byte	2
000005bd 04             7240 	.byte	4
000005be 0b             7241 	.byte	11
000005bf 000502         7242 	.byte	0,5,2
000005c2 00000000*      7243 	.word	.LDWlin20
000005c6 0b             7244 	.byte	11
000005c7 0b             7245 	.byte	11
000005c8 02             7246 	.byte	2
000005c9 00             7247 	.byte	0
000005ca 000502         7248 	.byte	0,5,2
000005cd 00000000*      7249 	.word	.LDWlin21
000005d1 02             7250 	.byte	2
000005d2 00             7251 	.byte	0
000005d3 0b             7252 	.byte	11
000005d4 02             7253 	.byte	2
000005d5 04             7254 	.byte	4
000005d6 0b             7255 	.byte	11
000005d7 000502         7256 	.byte	0,5,2
000005da 00000000*      7257 	.word	.LDWlin22
000005de 0b             7258 	.byte	11
000005df 0b             7259 	.byte	11
000005e0 0b             7260 	.byte	11
000005e1 000502         7261 	.byte	0,5,2
000005e4 00000000*      7262 	.word	.LDWlin23
000005e8 03             7263 	.byte	3
000005e9 07             7264 	.byte	7
000005ea 02             7265 	.byte	2
000005eb 00             7266 	.byte	0
000005ec 01             7267 	.byte	1
000005ed 0c             7268 	.byte	12
000005ee 0b             7269 	.byte	11
000005ef 13             7270 	.byte	19
000005f0 000502         7271 	.byte	0,5,2
000005f3 00000000*      7272 	.word	.LDWlin24
000005f7 03             7273 	.byte	3
000005f8 78             7274 	.byte	120
000005f9 02             7275 	.byte	2
000005fa 00             7276 	.byte	0
000005fb 01             7277 	.byte	1
000005fc 0c             7278 	.byte	12
000005fd 0b             7279 	.byte	11
000005fe 13             7280 	.byte	19
000005ff 000502         7281 	.byte	0,5,2
00000602 00000000*      7282 	.word	.LDWlin25
00000606 03             7283 	.byte	3
00000607 7a             7284 	.byte	122
00000608 02             7285 	.byte	2
00000609 00             7286 	.byte	0
0000060a 01             7287 	.byte	1

                                                                      Page 131
                                                              C:\Users\nhuliyap\AppData\Local\Temp\gh_00006641.s
0000060b 0b             7288 	.byte	11
0000060c 03             7289 	.byte	3
0000060d 09             7290 	.byte	9
0000060e 02             7291 	.byte	2
0000060f 02             7292 	.byte	2
00000610 01             7293 	.byte	1
00000611 0c             7294 	.byte	12
00000612 0b             7295 	.byte	11
00000613 000502         7296 	.byte	0,5,2
00000616 00000000*      7297 	.word	.LDWlin26
0000061a 02             7298 	.byte	2
0000061b 00             7299 	.byte	0
0000061c 0b             7300 	.byte	11
0000061d 000502         7301 	.byte	0,5,2
00000620 00000000*      7302 	.word	.LDWlin27
00000624 0b             7303 	.byte	11
00000625 02             7304 	.byte	2
00000626 00             7305 	.byte	0
00000627 0b             7306 	.byte	11
00000628 02             7307 	.byte	2
00000629 00             7308 	.byte	0
0000062a 0b             7309 	.byte	11
0000062b 0b             7310 	.byte	11
0000062c 0b             7311 	.byte	11
0000062d 000502         7312 	.byte	0,5,2
00000630 00000000*      7313 	.word	.LDWlin28
00000634 0b             7314 	.byte	11
00000635 02             7315 	.byte	2
00000636 00             7316 	.byte	0
00000637 02             7317 	.byte	2
00000638 00             7318 	.byte	0
00000639 02             7319 	.byte	2
0000063a 00             7320 	.byte	0
0000063b 02             7321 	.byte	2
0000063c 00             7322 	.byte	0
0000063d 02             7323 	.byte	2
0000063e 00             7324 	.byte	0
0000063f 0b             7325 	.byte	11
00000640 02             7326 	.byte	2
00000641 02             7327 	.byte	2
00000642 000101         7328 	.byte	0,1,1
                        7329 	.section	.debug_info
                        7330 .LDW_3001b80:
00001592 1d             7331 	.byte	29
00001593 00000000*      7332 	.word	.LDW42
00001597 00000000*      7333 	.word	.LDW52
                        7334 
                        7335 .LDW_304d900:
0000159b 04             7336 	.byte	4
0000159c 756348656c70   7337 	.strz	"ucHelp"
000015a2 00 
000015a3 8b01           7338 	.byte	139,1
000015a5 0a             7339 	.byte	10
000015a6 01             7340 	.byte	1
000015a7 00000000*      7341 	.word	.LDW_304ee70
000015ab 00             7342 	.byte	0
000015ac 00             7343 	.byte	0
000015ad 015a           7344 	.byte	1,90
                        7345 
000015af 00             7346 	.byte	0
                        7347 

                                                                      Page 132
                                                              C:\Users\nhuliyap\AppData\Local\Temp\gh_00006641.s
000015b0 00             7348 	.byte	0
                        7349 
                        7350 .LDW_304d958:
000015b1 14             7351 	.byte	20
000015b2 756347657452   7352 	.strz	"ucGetReDataRssiAvgPD"
000015b8 654461746152 
000015be 737369417667 
000015c4 504400 
000015c7 b001           7353 	.byte	176,1
000015c9 07             7354 	.byte	7
000015ca 01             7355 	.byte	1
000015cb 00000000*      7356 	.word	.LDW_304ee70
000015cf 00000000*      7357 	.word	_ucGetReDataRssiAvgPD
000015d3 00000000*      7358 	.word	___ghs_eofn_ucGetReDataRssiAvgPD
000015d7 0153           7359 	.byte	1,83
000015d9 02             7360 	.byte	2
000015da 00             7361 	.byte	0
000015db 02             7362 	.byte	2
000015dc 00             7363 	.byte	0
000015dd 00             7364 	.byte	0
000015de 00             7365 	.byte	0
000015df 00             7366 	.byte	0
000015e0 01             7367 	.byte	1
000015e1 01             7368 	.byte	1
000015e2 00             7369 	.byte	0
000015e3 01             7370 	.byte	1
                        7371 
                        7372 	.section	.debug_frame
                        7373 .LDW_4ccc9a8:
0000013c 00000000*      7374 	.word	.LDW_unq_12-.LDW_unq_11
                        7375 .LDW_unq_11:
00000140 00000000*      7376 	.word	.LDW_4c2b7e0
00000144 00000000*      7377 	.word	_ucGetReDataRssiAvgPD
00000148 00000000*      7378 	.word	___ghs_eofn_ucGetReDataRssiAvgPD-_ucGetReDataRssiAvgPD
0000014c 01             7379 	.byte	1
0000014d 00000000*      7380 	.word	.LDW72
00000151 00             7381 	.byte	0
00000152 00             7382 	.byte	0
00000153 00             7383 	.byte	0
                        7384 .LDW_unq_12:
                        7385 	.section	.debug_line
00000645 000502         7386 	.byte	0,5,2
00000648 00000000*      7387 	.word	_ucGetReDataRssiAvgPD
0000064c 06             7388 	.byte	6
0000064d 03             7389 	.byte	3
0000064e b101           7390 	.byte	177,1
00000650 02             7391 	.byte	2
00000651 00             7392 	.byte	0
00000652 01             7393 	.byte	1
00000653 06             7394 	.byte	6
00000654 000502         7395 	.byte	0,5,2
00000657 00000000*      7396 	.word	.LDWlin29
0000065b 02             7397 	.byte	2
0000065c 00             7398 	.byte	0
0000065d 02             7399 	.byte	2
0000065e 02             7400 	.byte	2
0000065f 000101         7401 	.byte	0,1,1
                        7402 	.section	.debug_info
                        7403 .LDW_3001ac0:
000015e4 1d             7404 	.byte	29
000015e5 00000000*      7405 	.word	.LDW62

                                                                      Page 133
                                                              C:\Users\nhuliyap\AppData\Local\Temp\gh_00006641.s
000015e9 00000000*      7406 	.word	.LDW72
                        7407 
000015ed 00             7408 	.byte	0
                        7409 
000015ee 00             7410 	.byte	0
                        7411 
                        7412 .LDW_304d9f0:
000015ef 14             7413 	.byte	20
000015f0 756347657452   7414 	.strz	"ucGetReDataTelTypePD"
000015f6 654461746154 
000015fc 656c54797065 
00001602 504400 
00001605 b501           7415 	.byte	181,1
00001607 07             7416 	.byte	7
00001608 01             7417 	.byte	1
00001609 00000000*      7418 	.word	.LDW_304ee70
0000160d 00000000*      7419 	.word	_ucGetReDataTelTypePD
00001611 00000000*      7420 	.word	___ghs_eofn_ucGetReDataTelTypePD
00001615 0153           7421 	.byte	1,83
00001617 02             7422 	.byte	2
00001618 00             7423 	.byte	0
00001619 02             7424 	.byte	2
0000161a 00             7425 	.byte	0
0000161b 00             7426 	.byte	0
0000161c 00             7427 	.byte	0
0000161d 00             7428 	.byte	0
0000161e 01             7429 	.byte	1
0000161f 01             7430 	.byte	1
00001620 00             7431 	.byte	0
00001621 01             7432 	.byte	1
                        7433 
                        7434 	.section	.debug_frame
                        7435 .LDW_4ccca28:
00000154 00000000*      7436 	.word	.LDW_unq_14-.LDW_unq_13
                        7437 .LDW_unq_13:
00000158 00000000*      7438 	.word	.LDW_4c2b7e0
0000015c 00000000*      7439 	.word	_ucGetReDataTelTypePD
00000160 00000000*      7440 	.word	___ghs_eofn_ucGetReDataTelTypePD-_ucGetReDataTelTypePD
00000164 01             7441 	.byte	1
00000165 00000000*      7442 	.word	.LDW92
00000169 00             7443 	.byte	0
0000016a 00             7444 	.byte	0
0000016b 00             7445 	.byte	0
                        7446 .LDW_unq_14:
                        7447 	.section	.debug_line
00000662 000502         7448 	.byte	0,5,2
00000665 00000000*      7449 	.word	_ucGetReDataTelTypePD
00000669 06             7450 	.byte	6
0000066a 03             7451 	.byte	3
0000066b b501           7452 	.byte	181,1
0000066d 02             7453 	.byte	2
0000066e 00             7454 	.byte	0
0000066f 01             7455 	.byte	1
00000670 06             7456 	.byte	6
00000671 000502         7457 	.byte	0,5,2
00000674 00000000*      7458 	.word	.LDWlin30
00000678 02             7459 	.byte	2
00000679 00             7460 	.byte	0
0000067a 02             7461 	.byte	2
0000067b 02             7462 	.byte	2
0000067c 000101         7463 	.byte	0,1,1

                                                                      Page 134
                                                              C:\Users\nhuliyap\AppData\Local\Temp\gh_00006641.s
                        7464 	.section	.debug_info
                        7465 .LDW_3001a60:
00001622 1d             7466 	.byte	29
00001623 00000000*      7467 	.word	.LDW82
00001627 00000000*      7468 	.word	.LDW92
                        7469 
0000162b 00             7470 	.byte	0
                        7471 
0000162c 00             7472 	.byte	0
                        7473 
                        7474 .LDW_304da88:
0000162d 14             7475 	.byte	20
0000162e 756347657452   7476 	.strz	"ucGetReDataTGCounter"
00001634 654461746154 
0000163a 47436f756e74 
00001640 657200 
00001643 b901           7477 	.byte	185,1
00001645 07             7478 	.byte	7
00001646 01             7479 	.byte	1
00001647 00000000*      7480 	.word	.LDW_304ee70
0000164b 00000000*      7481 	.word	_ucGetReDataTGCounter
0000164f 00000000*      7482 	.word	___ghs_eofn_ucGetReDataTGCounter
00001653 0153           7483 	.byte	1,83
00001655 02             7484 	.byte	2
00001656 00             7485 	.byte	0
00001657 02             7486 	.byte	2
00001658 00             7487 	.byte	0
00001659 00             7488 	.byte	0
0000165a 00             7489 	.byte	0
0000165b 00             7490 	.byte	0
0000165c 01             7491 	.byte	1
0000165d 01             7492 	.byte	1
0000165e 00             7493 	.byte	0
0000165f 01             7494 	.byte	1
                        7495 
                        7496 	.section	.debug_frame
                        7497 .LDW_4cccba8:
0000016c 00000000*      7498 	.word	.LDW_unq_16-.LDW_unq_15
                        7499 .LDW_unq_15:
00000170 00000000*      7500 	.word	.LDW_4c2b7e0
00000174 00000000*      7501 	.word	_ucGetReDataTGCounter
00000178 00000000*      7502 	.word	___ghs_eofn_ucGetReDataTGCounter-_ucGetReDataTGCounter
0000017c 01             7503 	.byte	1
0000017d 00000000*      7504 	.word	.LDW13
00000181 00             7505 	.byte	0
00000182 00             7506 	.byte	0
00000183 00             7507 	.byte	0
                        7508 .LDW_unq_16:
                        7509 	.section	.debug_line
0000067f 000502         7510 	.byte	0,5,2
00000682 00000000*      7511 	.word	_ucGetReDataTGCounter
00000686 03             7512 	.byte	3
00000687 b801           7513 	.byte	184,1
00000689 02             7514 	.byte	2
0000068a 00             7515 	.byte	0
0000068b 01             7516 	.byte	1
0000068c 06             7517 	.byte	6
0000068d 000502         7518 	.byte	0,5,2
00000690 00000000*      7519 	.word	.LDWlin31
00000694 0c             7520 	.byte	12
00000695 000502         7521 	.byte	0,5,2

                                                                      Page 135
                                                              C:\Users\nhuliyap\AppData\Local\Temp\gh_00006641.s
00000698 00000000*      7522 	.word	.LDWlin32
0000069c 02             7523 	.byte	2
0000069d 00             7524 	.byte	0
0000069e 0b             7525 	.byte	11
0000069f 000502         7526 	.byte	0,5,2
000006a2 00000000*      7527 	.word	.LDWlin33
000006a6 0b             7528 	.byte	11
000006a7 0b             7529 	.byte	11
000006a8 0b             7530 	.byte	11
000006a9 13             7531 	.byte	19
000006aa 02             7532 	.byte	2
000006ab 00             7533 	.byte	0
000006ac 0b             7534 	.byte	11
000006ad 02             7535 	.byte	2
000006ae 02             7536 	.byte	2
000006af 000101         7537 	.byte	0,1,1
                        7538 	.section	.debug_info
                        7539 .LDW_3001af0:
00001660 1d             7540 	.byte	29
00001661 00000000*      7541 	.word	.LDW03
00001665 00000000*      7542 	.word	.LDW13
                        7543 
                        7544 .LDW_304db20:
00001669 04             7545 	.byte	4
0000166a 756348656c70   7546 	.strz	"ucHelp"
00001670 00 
00001671 ba01           7547 	.byte	186,1
00001673 0a             7548 	.byte	10
00001674 01             7549 	.byte	1
00001675 00000000*      7550 	.word	.LDW_304ee70
00001679 00             7551 	.byte	0
0000167a 00             7552 	.byte	0
0000167b 015a           7553 	.byte	1,90
                        7554 
0000167d 00             7555 	.byte	0
                        7556 
0000167e 00             7557 	.byte	0
                        7558 
                        7559 .LDW_304dc28:
0000167f 14             7560 	.byte	20
00001680 704765744375   7561 	.strz	"pGetCurTel"
00001686 7254656c00 
0000168b c401           7562 	.byte	196,1
0000168d 0a             7563 	.byte	10
0000168e 01             7564 	.byte	1
0000168f 00000000*      7565 	.word	.LDW_3007028
00001693 00000000*      7566 	.word	_pGetCurTel
00001697 00000000*      7567 	.word	___ghs_eofn_pGetCurTel
0000169b 0153           7568 	.byte	1,83
0000169d 02             7569 	.byte	2
0000169e 00             7570 	.byte	0
0000169f 02             7571 	.byte	2
000016a0 00             7572 	.byte	0
000016a1 00             7573 	.byte	0
000016a2 00             7574 	.byte	0
000016a3 00             7575 	.byte	0
000016a4 01             7576 	.byte	1
000016a5 01             7577 	.byte	1
000016a6 00             7578 	.byte	0
000016a7 01             7579 	.byte	1
                        7580 

                                                                      Page 136
                                                              C:\Users\nhuliyap\AppData\Local\Temp\gh_00006641.s
                        7581 	.section	.debug_frame
                        7582 .LDW_4cccc68:
00000184 00000000*      7583 	.word	.LDW_unq_18-.LDW_unq_17
                        7584 .LDW_unq_17:
00000188 00000000*      7585 	.word	.LDW_4c2b7e0
0000018c 00000000*      7586 	.word	_pGetCurTel
00000190 00000000*      7587 	.word	___ghs_eofn_pGetCurTel-_pGetCurTel
00000194 01             7588 	.byte	1
00000195 00000000*      7589 	.word	.LDW33
00000199 00             7590 	.byte	0
0000019a 00             7591 	.byte	0
0000019b 00             7592 	.byte	0
                        7593 .LDW_unq_18:
                        7594 	.section	.debug_line
000006b2 000502         7595 	.byte	0,5,2
000006b5 00000000*      7596 	.word	_pGetCurTel
000006b9 06             7597 	.byte	6
000006ba 03             7598 	.byte	3
000006bb c401           7599 	.byte	196,1
000006bd 02             7600 	.byte	2
000006be 00             7601 	.byte	0
000006bf 01             7602 	.byte	1
000006c0 06             7603 	.byte	6
000006c1 000502         7604 	.byte	0,5,2
000006c4 00000000*      7605 	.word	.LDWlin34
000006c8 02             7606 	.byte	2
000006c9 00             7607 	.byte	0
000006ca 02             7608 	.byte	2
000006cb 02             7609 	.byte	2
000006cc 000101         7610 	.byte	0,1,1
                        7611 	.section	.debug_info
                        7612 .LDW_4c847a0:
000016a8 1d             7613 	.byte	29
000016a9 00000000*      7614 	.word	.LDW23
000016ad 00000000*      7615 	.word	.LDW33
                        7616 
000016b1 00             7617 	.byte	0
                        7618 
000016b2 00             7619 	.byte	0
                        7620 
                        7621 .LDW_304dcc0:
000016b3 14             7622 	.byte	20
000016b4 756c47657452   7623 	.strz	"ulGetReDataPreProcIdPD"
000016ba 654461746150 
000016c0 726550726f63 
000016c6 4964504400 
000016cb c801           7624 	.byte	200,1
000016cd 08             7625 	.byte	8
000016ce 01             7626 	.byte	1
000016cf 00000000*      7627 	.word	.LDW_4bf1ae8
000016d3 00000000*      7628 	.word	_ulGetReDataPreProcIdPD
000016d7 00000000*      7629 	.word	___ghs_eofn_ulGetReDataPreProcIdPD
000016db 0153           7630 	.byte	1,83
000016dd 02             7631 	.byte	2
000016de 00             7632 	.byte	0
000016df 02             7633 	.byte	2
000016e0 00             7634 	.byte	0
000016e1 00             7635 	.byte	0
000016e2 00             7636 	.byte	0
000016e3 00             7637 	.byte	0
000016e4 01             7638 	.byte	1

                                                                      Page 137
                                                              C:\Users\nhuliyap\AppData\Local\Temp\gh_00006641.s
000016e5 01             7639 	.byte	1
000016e6 00             7640 	.byte	0
000016e7 01             7641 	.byte	1
                        7642 
                        7643 	.section	.debug_frame
                        7644 .LDW_4cccb28:
0000019c 00000000*      7645 	.word	.LDW_unq_1a-.LDW_unq_19
                        7646 .LDW_unq_19:
000001a0 00000000*      7647 	.word	.LDW_4c2b7e0
000001a4 00000000*      7648 	.word	_ulGetReDataPreProcIdPD
000001a8 00000000*      7649 	.word	___ghs_eofn_ulGetReDataPreProcIdPD-_ulGetReDataPreProcIdPD
000001ac 01             7650 	.byte	1
000001ad 00000000*      7651 	.word	.LDW53
000001b1 00             7652 	.byte	0
000001b2 00             7653 	.byte	0
000001b3 00             7654 	.byte	0
                        7655 .LDW_unq_1a:
                        7656 	.section	.debug_line
000006cf 000502         7657 	.byte	0,5,2
000006d2 00000000*      7658 	.word	_ulGetReDataPreProcIdPD
000006d6 03             7659 	.byte	3
000006d7 c801           7660 	.byte	200,1
000006d9 02             7661 	.byte	2
000006da 00             7662 	.byte	0
000006db 01             7663 	.byte	1
000006dc 06             7664 	.byte	6
000006dd 000502         7665 	.byte	0,5,2
000006e0 00000000*      7666 	.word	.LDWlin35
000006e4 0b             7667 	.byte	11
000006e5 06             7668 	.byte	6
000006e6 02             7669 	.byte	2
000006e7 04             7670 	.byte	4
000006e8 02             7671 	.byte	2
000006e9 02             7672 	.byte	2
000006ea 000101         7673 	.byte	0,1,1
                        7674 	.section	.debug_info
                        7675 .LDW_4c84770:
000016e8 1d             7676 	.byte	29
000016e9 00000000*      7677 	.word	.LDW43
000016ed 00000000*      7678 	.word	.LDW53
                        7679 
000016f1 00             7680 	.byte	0
                        7681 
000016f2 00             7682 	.byte	0
                        7683 
                        7684 .LDW_304dd58:
000016f3 13             7685 	.byte	19
000016f4 507574526544   7686 	.strz	"PutReDataPreProcIdPD"
000016fa 617461507265 
00001700 50726f634964 
00001706 504400 
00001709 cd01           7687 	.byte	205,1
0000170b 06             7688 	.byte	6
0000170c 01             7689 	.byte	1
0000170d 00000000*      7690 	.word	_PutReDataPreProcIdPD
00001711 00000000*      7691 	.word	___ghs_eofn_PutReDataPreProcIdPD
00001715 0153           7692 	.byte	1,83
00001717 02             7693 	.byte	2
00001718 00             7694 	.byte	0
00001719 02             7695 	.byte	2
0000171a 00             7696 	.byte	0

                                                                      Page 138
                                                              C:\Users\nhuliyap\AppData\Local\Temp\gh_00006641.s
0000171b 00             7697 	.byte	0
0000171c 00             7698 	.byte	0
0000171d 00             7699 	.byte	0
0000171e 01             7700 	.byte	1
0000171f 01             7701 	.byte	1
00001720 00             7702 	.byte	0
00001721 01             7703 	.byte	1
                        7704 
                        7705 	.section	.debug_frame
                        7706 .LDW_4cccc28:
000001b4 00000000*      7707 	.word	.LDW_unq_1c-.LDW_unq_1b
                        7708 .LDW_unq_1b:
000001b8 00000000*      7709 	.word	.LDW_4c2b7e0
000001bc 00000000*      7710 	.word	_PutReDataPreProcIdPD
000001c0 00000000*      7711 	.word	___ghs_eofn_PutReDataPreProcIdPD-_PutReDataPreProcIdPD
000001c4 01             7712 	.byte	1
000001c5 00000000*      7713 	.word	.LDW73
000001c9 00             7714 	.byte	0
000001ca 00             7715 	.byte	0
000001cb 00             7716 	.byte	0
                        7717 .LDW_unq_1c:
                        7718 	.section	.debug_line
000006ed 000502         7719 	.byte	0,5,2
000006f0 00000000*      7720 	.word	_PutReDataPreProcIdPD
000006f4 03             7721 	.byte	3
000006f5 cd01           7722 	.byte	205,1
000006f7 02             7723 	.byte	2
000006f8 00             7724 	.byte	0
000006f9 01             7725 	.byte	1
000006fa 06             7726 	.byte	6
000006fb 000502         7727 	.byte	0,5,2
000006fe 00000000*      7728 	.word	.LDWlin36
00000702 0b             7729 	.byte	11
00000703 1b             7730 	.byte	27
00000704 02             7731 	.byte	2
00000705 02             7732 	.byte	2
00000706 000101         7733 	.byte	0,1,1
                        7734 	.section	.debug_info
                        7735 .LDW_304ddf0:
00001722 0f             7736 	.byte	15
00001723 756c494400     7737 	.strz	"ulID"
00001728 ce01           7738 	.byte	206,1
0000172a 0b             7739 	.byte	11
0000172b 01             7740 	.byte	1
0000172c 00000000*      7741 	.word	.LDW_4bf1ae8
00001730 00             7742 	.byte	0
00001731 0156           7743 	.byte	1,86
                        7744 
                        7745 	.section	.debug_abbrev
00000166 0f             7746 	.byte	15
00000167 05             7747 	.byte	5
00000168 00             7748 	.byte	0
00000169 0308           7749 	.byte	3,8
0000016b 3b0f           7750 	.byte	59,15
0000016d 390f           7751 	.byte	57,15
0000016f 3a0f           7752 	.byte	58,15
00000171 4910           7753 	.byte	73,16
00000173 4b0c           7754 	.byte	75,12
00000175 020a           7755 	.byte	2,10
00000177 0000           7756 	.byte	0,0
                        7757 

                                                                      Page 139
                                                              C:\Users\nhuliyap\AppData\Local\Temp\gh_00006641.s
                        7758 	.section	.debug_info
                        7759 .LDW_4c84650:
00001733 1d             7760 	.byte	29
00001734 00000000*      7761 	.word	.LDW63
00001738 00000000*      7762 	.word	.LDW73
                        7763 
0000173c 00             7764 	.byte	0
                        7765 
0000173d 00             7766 	.byte	0
                        7767 
                        7768 .LDW_304de48:
0000173e 14             7769 	.byte	20
0000173f 756347657452   7770 	.strz	"ucGetReDataPreProcPressurePD"
00001745 654461746150 
0000174b 726550726f63 
00001751 507265737375 
00001757 7265504400 
0000175c d201           7771 	.byte	210,1
0000175e 07             7772 	.byte	7
0000175f 01             7773 	.byte	1
00001760 00000000*      7774 	.word	.LDW_304ee70
00001764 00000000*      7775 	.word	_ucGetReDataPreProcPressurePD
00001768 00000000*      7776 	.word	___ghs_eofn_ucGetReDataPreProcPressurePD
0000176c 0153           7777 	.byte	1,83
0000176e 02             7778 	.byte	2
0000176f 00             7779 	.byte	0
00001770 02             7780 	.byte	2
00001771 00             7781 	.byte	0
00001772 00             7782 	.byte	0
00001773 00             7783 	.byte	0
00001774 00             7784 	.byte	0
00001775 01             7785 	.byte	1
00001776 01             7786 	.byte	1
00001777 00             7787 	.byte	0
00001778 01             7788 	.byte	1
                        7789 
                        7790 	.section	.debug_frame
                        7791 .LDW_4cccee8:
000001cc 00000000*      7792 	.word	.LDW_unq_1e-.LDW_unq_1d
                        7793 .LDW_unq_1d:
000001d0 00000000*      7794 	.word	.LDW_4c2b7e0
000001d4 00000000*      7795 	.word	_ucGetReDataPreProcPressurePD
000001d8 00000000*      7796 	.word	___ghs_eofn_ucGetReDataPreProcPressurePD-_ucGetReDataPreProcPressurePD
000001dc 01             7797 	.byte	1
000001dd 00000000*      7798 	.word	.LDW93
000001e1 00             7799 	.byte	0
000001e2 00             7800 	.byte	0
000001e3 00             7801 	.byte	0
                        7802 .LDW_unq_1e:
                        7803 	.section	.debug_line
00000709 000502         7804 	.byte	0,5,2
0000070c 00000000*      7805 	.word	_ucGetReDataPreProcPressurePD
00000710 03             7806 	.byte	3
00000711 d201           7807 	.byte	210,1
00000713 02             7808 	.byte	2
00000714 00             7809 	.byte	0
00000715 01             7810 	.byte	1
00000716 06             7811 	.byte	6
00000717 000502         7812 	.byte	0,5,2
0000071a 00000000*      7813 	.word	.LDWlin37
0000071e 0b             7814 	.byte	11

                                                                      Page 140
                                                              C:\Users\nhuliyap\AppData\Local\Temp\gh_00006641.s
0000071f 06             7815 	.byte	6
00000720 02             7816 	.byte	2
00000721 04             7817 	.byte	4
00000722 02             7818 	.byte	2
00000723 02             7819 	.byte	2
00000724 000101         7820 	.byte	0,1,1
                        7821 	.section	.debug_info
                        7822 .LDW_4c84710:
00001779 1d             7823 	.byte	29
0000177a 00000000*      7824 	.word	.LDW83
0000177e 00000000*      7825 	.word	.LDW93
                        7826 
00001782 00             7827 	.byte	0
                        7828 
00001783 00             7829 	.byte	0
                        7830 
                        7831 .LDW_304dee0:
00001784 13             7832 	.byte	19
00001785 507574526544   7833 	.strz	"PutReDataPreProcPressurePD"
0000178b 617461507265 
00001791 50726f635072 
00001797 657373757265 
0000179d 504400 
000017a0 d701           7834 	.byte	215,1
000017a2 06             7835 	.byte	6
000017a3 01             7836 	.byte	1
000017a4 00000000*      7837 	.word	_PutReDataPreProcPressurePD
000017a8 00000000*      7838 	.word	___ghs_eofn_PutReDataPreProcPressurePD
000017ac 0153           7839 	.byte	1,83
000017ae 02             7840 	.byte	2
000017af 00             7841 	.byte	0
000017b0 02             7842 	.byte	2
000017b1 00             7843 	.byte	0
000017b2 00             7844 	.byte	0
000017b3 00             7845 	.byte	0
000017b4 00             7846 	.byte	0
000017b5 01             7847 	.byte	1
000017b6 01             7848 	.byte	1
000017b7 00             7849 	.byte	0
000017b8 01             7850 	.byte	1
                        7851 
                        7852 	.section	.debug_frame
                        7853 .LDW_4cccda8:
000001e4 00000000*      7854 	.word	.LDW_unq_20-.LDW_unq_1f
                        7855 .LDW_unq_1f:
000001e8 00000000*      7856 	.word	.LDW_4c2b7e0
000001ec 00000000*      7857 	.word	_PutReDataPreProcPressurePD
000001f0 00000000*      7858 	.word	___ghs_eofn_PutReDataPreProcPressurePD-_PutReDataPreProcPressurePD
000001f4 01             7859 	.byte	1
000001f5 00000000*      7860 	.word	.LDW14
000001f9 00             7861 	.byte	0
000001fa 00             7862 	.byte	0
000001fb 00             7863 	.byte	0
                        7864 .LDW_unq_20:
                        7865 	.section	.debug_line
00000727 000502         7866 	.byte	0,5,2
0000072a 00000000*      7867 	.word	_PutReDataPreProcPressurePD
0000072e 03             7868 	.byte	3
0000072f d701           7869 	.byte	215,1
00000731 02             7870 	.byte	2
00000732 00             7871 	.byte	0

                                                                      Page 141
                                                              C:\Users\nhuliyap\AppData\Local\Temp\gh_00006641.s
00000733 01             7872 	.byte	1
00000734 06             7873 	.byte	6
00000735 000502         7874 	.byte	0,5,2
00000738 00000000*      7875 	.word	.LDWlin38
0000073c 0b             7876 	.byte	11
0000073d 1b             7877 	.byte	27
0000073e 02             7878 	.byte	2
0000073f 02             7879 	.byte	2
00000740 000101         7880 	.byte	0,1,1
                        7881 	.section	.debug_info
                        7882 .LDW_304df78:
000017b9 0f             7883 	.byte	15
000017ba 756350726573   7884 	.strz	"ucPressure"
000017c0 7375726500 
000017c5 d801           7885 	.byte	216,1
000017c7 0a             7886 	.byte	10
000017c8 01             7887 	.byte	1
000017c9 00000000*      7888 	.word	.LDW_304ee70
000017cd 00             7889 	.byte	0
000017ce 0156           7890 	.byte	1,86
                        7891 
                        7892 .LDW_4c84680:
000017d0 1d             7893 	.byte	29
000017d1 00000000*      7894 	.word	.LDW04
000017d5 00000000*      7895 	.word	.LDW14
                        7896 
000017d9 00             7897 	.byte	0
                        7898 
000017da 00             7899 	.byte	0
                        7900 
                        7901 .LDW_304e028:
000017db 14             7902 	.byte	20
000017dc 736347657452   7903 	.strz	"scGetReDataPreProcTemperaturePD"
000017e2 654461746150 
000017e8 726550726f63 
000017ee 54656d706572 
000017f4 617475726550 
000017fa 4400 
000017fc dc01           7904 	.byte	220,1
000017fe 07             7905 	.byte	7
000017ff 01             7906 	.byte	1
00001800 00000000*      7907 	.word	.LDW_304dfd0
00001804 00000000*      7908 	.word	_scGetReDataPreProcTemperaturePD
00001808 00000000*      7909 	.word	___ghs_eofn_scGetReDataPreProcTemperaturePD
0000180c 0153           7910 	.byte	1,83
0000180e 02             7911 	.byte	2
0000180f 00             7912 	.byte	0
00001810 02             7913 	.byte	2
00001811 00             7914 	.byte	0
00001812 00             7915 	.byte	0
00001813 00             7916 	.byte	0
00001814 00             7917 	.byte	0
00001815 01             7918 	.byte	1
00001816 01             7919 	.byte	1
00001817 00             7920 	.byte	0
00001818 01             7921 	.byte	1
                        7922 
                        7923 	.section	.debug_frame
                        7924 .LDW_4ccd0a8:
000001fc 00000000*      7925 	.word	.LDW_unq_22-.LDW_unq_21
                        7926 .LDW_unq_21:

                                                                      Page 142
                                                              C:\Users\nhuliyap\AppData\Local\Temp\gh_00006641.s
00000200 00000000*      7927 	.word	.LDW_4c2b7e0
00000204 00000000*      7928 	.word	_scGetReDataPreProcTemperaturePD
00000208 00000000*      7929 	.word	___ghs_eofn_scGetReDataPreProcTemperaturePD-_scGetReDataPreProcTemperaturePD
0000020c 01             7930 	.byte	1
0000020d 00000000*      7931 	.word	.LDW34
00000211 00             7932 	.byte	0
00000212 00             7933 	.byte	0
00000213 00             7934 	.byte	0
                        7935 .LDW_unq_22:
                        7936 	.section	.debug_line
00000743 000502         7937 	.byte	0,5,2
00000746 00000000*      7938 	.word	_scGetReDataPreProcTemperaturePD
0000074a 03             7939 	.byte	3
0000074b dc01           7940 	.byte	220,1
0000074d 02             7941 	.byte	2
0000074e 00             7942 	.byte	0
0000074f 01             7943 	.byte	1
00000750 06             7944 	.byte	6
00000751 000502         7945 	.byte	0,5,2
00000754 00000000*      7946 	.word	.LDWlin39
00000758 0b             7947 	.byte	11
00000759 06             7948 	.byte	6
0000075a 02             7949 	.byte	2
0000075b 04             7950 	.byte	4
0000075c 02             7951 	.byte	2
0000075d 02             7952 	.byte	2
0000075e 000101         7953 	.byte	0,1,1
                        7954 	.section	.debug_info
                        7955 .LDW_4c846b0:
00001819 1d             7956 	.byte	29
0000181a 00000000*      7957 	.word	.LDW24
0000181e 00000000*      7958 	.word	.LDW34
                        7959 
00001822 00             7960 	.byte	0
                        7961 
00001823 00             7962 	.byte	0
                        7963 
                        7964 .LDW_4c851d0:
00001824 13             7965 	.byte	19
00001825 507574526544   7966 	.strz	"PutReDataPreProcTemperaturePD"
0000182b 617461507265 
00001831 50726f635465 
00001837 6d7065726174 
0000183d 757265504400 
00001843 e101           7967 	.byte	225,1
00001845 06             7968 	.byte	6
00001846 01             7969 	.byte	1
00001847 00000000*      7970 	.word	_PutReDataPreProcTemperaturePD
0000184b 00000000*      7971 	.word	___ghs_eofn_PutReDataPreProcTemperaturePD
0000184f 0153           7972 	.byte	1,83
00001851 02             7973 	.byte	2
00001852 00             7974 	.byte	0
00001853 02             7975 	.byte	2
00001854 00             7976 	.byte	0
00001855 00             7977 	.byte	0
00001856 00             7978 	.byte	0
00001857 00             7979 	.byte	0
00001858 01             7980 	.byte	1
00001859 01             7981 	.byte	1
0000185a 00             7982 	.byte	0
0000185b 01             7983 	.byte	1

                                                                      Page 143
                                                              C:\Users\nhuliyap\AppData\Local\Temp\gh_00006641.s
                        7984 
                        7985 	.section	.debug_frame
                        7986 .LDW_4cccfa8:
00000214 00000000*      7987 	.word	.LDW_unq_24-.LDW_unq_23
                        7988 .LDW_unq_23:
00000218 00000000*      7989 	.word	.LDW_4c2b7e0
0000021c 00000000*      7990 	.word	_PutReDataPreProcTemperaturePD
00000220 00000000*      7991 	.word	___ghs_eofn_PutReDataPreProcTemperaturePD-_PutReDataPreProcTemperaturePD
00000224 01             7992 	.byte	1
00000225 00000000*      7993 	.word	.LDW54
00000229 00             7994 	.byte	0
0000022a 00             7995 	.byte	0
0000022b 00             7996 	.byte	0
                        7997 .LDW_unq_24:
                        7998 	.section	.debug_line
00000761 000502         7999 	.byte	0,5,2
00000764 00000000*      8000 	.word	_PutReDataPreProcTemperaturePD
00000768 03             8001 	.byte	3
00000769 e101           8002 	.byte	225,1
0000076b 02             8003 	.byte	2
0000076c 00             8004 	.byte	0
0000076d 01             8005 	.byte	1
0000076e 06             8006 	.byte	6
0000076f 000502         8007 	.byte	0,5,2
00000772 00000000*      8008 	.word	.LDWlin40
00000776 0b             8009 	.byte	11
00000777 1b             8010 	.byte	27
00000778 02             8011 	.byte	2
00000779 02             8012 	.byte	2
0000077a 000101         8013 	.byte	0,1,1
                        8014 	.section	.debug_info
                        8015 .LDW_4c85830:
0000185c 0f             8016 	.byte	15
0000185d 736354656d70   8017 	.strz	"scTemperature"
00001863 657261747572 
00001869 6500 
0000186b e201           8018 	.byte	226,1
0000186d 0a             8019 	.byte	10
0000186e 01             8020 	.byte	1
0000186f 00000000*      8021 	.word	.LDW_304dfd0
00001873 00             8022 	.byte	0
00001874 0156           8023 	.byte	1,86
                        8024 
                        8025 .LDW_4c84380:
00001876 1d             8026 	.byte	29
00001877 00000000*      8027 	.word	.LDW44
0000187b 00000000*      8028 	.word	.LDW54
                        8029 
0000187f 00             8030 	.byte	0
                        8031 
00001880 00             8032 	.byte	0
                        8033 
                        8034 .LDW_4c85690:
00001881 14             8035 	.byte	20
00001882 756347657452   8036 	.strz	"ucGetReDataPreProcRemainingLifeTimePD"
00001888 654461746150 
0000188e 726550726f63 
00001894 52656d61696e 
0000189a 696e674c6966 
000018a0 6554696d6550 
000018a6 4400 

                                                                      Page 144
                                                              C:\Users\nhuliyap\AppData\Local\Temp\gh_00006641.s
000018a8 e601           8037 	.byte	230,1
000018aa 07             8038 	.byte	7
000018ab 01             8039 	.byte	1
000018ac 00000000*      8040 	.word	.LDW_304ee70
000018b0 00000000*      8041 	.word	_ucGetReDataPreProcRemainingLifeTimePD
000018b4 00000000*      8042 	.word	___ghs_eofn_ucGetReDataPreProcRemainingLifeTimePD
000018b8 0153           8043 	.byte	1,83
000018ba 02             8044 	.byte	2
000018bb 00             8045 	.byte	0
000018bc 02             8046 	.byte	2
000018bd 00             8047 	.byte	0
000018be 00             8048 	.byte	0
000018bf 00             8049 	.byte	0
000018c0 00             8050 	.byte	0
000018c1 01             8051 	.byte	1
000018c2 01             8052 	.byte	1
000018c3 00             8053 	.byte	0
000018c4 01             8054 	.byte	1
                        8055 
                        8056 	.section	.debug_frame
                        8057 .LDW_4ccd028:
0000022c 00000000*      8058 	.word	.LDW_unq_26-.LDW_unq_25
                        8059 .LDW_unq_25:
00000230 00000000*      8060 	.word	.LDW_4c2b7e0
00000234 00000000*      8061 	.word	_ucGetReDataPreProcRemainingLifeTimePD
00000238 00000000*      8062 	.word	___ghs_eofn_ucGetReDataPreProcRemainingLifeTimePD-_ucGetReDataPreProcRemainingLifeTimePD
0000023c 01             8063 	.byte	1
0000023d 00000000*      8064 	.word	.LDW74
00000241 00             8065 	.byte	0
00000242 00             8066 	.byte	0
00000243 00             8067 	.byte	0
                        8068 .LDW_unq_26:
                        8069 	.section	.debug_line
0000077d 000502         8070 	.byte	0,5,2
00000780 00000000*      8071 	.word	_ucGetReDataPreProcRemainingLifeTimePD
00000784 03             8072 	.byte	3
00000785 e601           8073 	.byte	230,1
00000787 02             8074 	.byte	2
00000788 00             8075 	.byte	0
00000789 01             8076 	.byte	1
0000078a 06             8077 	.byte	6
0000078b 000502         8078 	.byte	0,5,2
0000078e 00000000*      8079 	.word	.LDWlin41
00000792 0b             8080 	.byte	11
00000793 06             8081 	.byte	6
00000794 02             8082 	.byte	2
00000795 04             8083 	.byte	4
00000796 02             8084 	.byte	2
00000797 02             8085 	.byte	2
00000798 000101         8086 	.byte	0,1,1
                        8087 	.section	.debug_info
                        8088 .LDW_4c841d0:
000018c5 1d             8089 	.byte	29
000018c6 00000000*      8090 	.word	.LDW64
000018ca 00000000*      8091 	.word	.LDW74
                        8092 
000018ce 00             8093 	.byte	0
                        8094 
000018cf 00             8095 	.byte	0
                        8096 
                        8097 .LDW_4c85008:

                                                                      Page 145
                                                              C:\Users\nhuliyap\AppData\Local\Temp\gh_00006641.s
000018d0 13             8098 	.byte	19
000018d1 507574526544   8099 	.strz	"PutReDataPreProcRemainingLifeTimePD"
000018d7 617461507265 
000018dd 50726f635265 
000018e3 6d61696e696e 
000018e9 674c69666554 
000018ef 696d65504400 
000018f5 eb01           8100 	.byte	235,1
000018f7 06             8101 	.byte	6
000018f8 01             8102 	.byte	1
000018f9 00000000*      8103 	.word	_PutReDataPreProcRemainingLifeTimePD
000018fd 00000000*      8104 	.word	___ghs_eofn_PutReDataPreProcRemainingLifeTimePD
00001901 0153           8105 	.byte	1,83
00001903 02             8106 	.byte	2
00001904 00             8107 	.byte	0
00001905 02             8108 	.byte	2
00001906 00             8109 	.byte	0
00001907 00             8110 	.byte	0
00001908 00             8111 	.byte	0
00001909 00             8112 	.byte	0
0000190a 01             8113 	.byte	1
0000190b 01             8114 	.byte	1
0000190c 00             8115 	.byte	0
0000190d 01             8116 	.byte	1
                        8117 
                        8118 	.section	.debug_frame
                        8119 .LDW_4d0dcc0:
00000244 00000000*      8120 	.word	.LDW_unq_28-.LDW_unq_27
                        8121 .LDW_unq_27:
00000248 00000000*      8122 	.word	.LDW_4c2b7e0
0000024c 00000000*      8123 	.word	_PutReDataPreProcRemainingLifeTimePD
00000250 00000000*      8124 	.word	___ghs_eofn_PutReDataPreProcRemainingLifeTimePD-_PutReDataPreProcRemainingLifeTimePD
00000254 01             8125 	.byte	1
00000255 00000000*      8126 	.word	.LDW94
00000259 00             8127 	.byte	0
0000025a 00             8128 	.byte	0
0000025b 00             8129 	.byte	0
                        8130 .LDW_unq_28:
                        8131 	.section	.debug_line
0000079b 000502         8132 	.byte	0,5,2
0000079e 00000000*      8133 	.word	_PutReDataPreProcRemainingLifeTimePD
000007a2 03             8134 	.byte	3
000007a3 eb01           8135 	.byte	235,1
000007a5 02             8136 	.byte	2
000007a6 00             8137 	.byte	0
000007a7 01             8138 	.byte	1
000007a8 06             8139 	.byte	6
000007a9 000502         8140 	.byte	0,5,2
000007ac 00000000*      8141 	.word	.LDWlin42
000007b0 0b             8142 	.byte	11
000007b1 1b             8143 	.byte	27
000007b2 02             8144 	.byte	2
000007b3 02             8145 	.byte	2
000007b4 000101         8146 	.byte	0,1,1
                        8147 	.section	.debug_info
                        8148 .LDW_4c86090:
0000190e 0f             8149 	.byte	15
0000190f 756352656d61   8150 	.strz	"ucRemainingLifeTime"
00001915 696e696e674c 
0000191b 69666554696d 
00001921 6500 

                                                                      Page 146
                                                              C:\Users\nhuliyap\AppData\Local\Temp\gh_00006641.s
00001923 ec01           8151 	.byte	236,1
00001925 0a             8152 	.byte	10
00001926 01             8153 	.byte	1
00001927 00000000*      8154 	.word	.LDW_304ee70
0000192b 00             8155 	.byte	0
0000192c 0156           8156 	.byte	1,86
                        8157 
                        8158 .LDW_4c84320:
0000192e 1d             8159 	.byte	29
0000192f 00000000*      8160 	.word	.LDW84
00001933 00000000*      8161 	.word	.LDW94
                        8162 
00001937 00             8163 	.byte	0
                        8164 
00001938 00             8165 	.byte	0
                        8166 
                        8167 .LDW_4c85268:
00001939 14             8168 	.byte	20
0000193a 756347657452   8169 	.strz	"ucGetReDataPreProcTransModePD"
00001940 654461746150 
00001946 726550726f63 
0000194c 5472616e734d 
00001952 6f6465504400 
00001958 f001           8170 	.byte	240,1
0000195a 07             8171 	.byte	7
0000195b 01             8172 	.byte	1
0000195c 00000000*      8173 	.word	.LDW_304ee70
00001960 00000000*      8174 	.word	_ucGetReDataPreProcTransModePD
00001964 00000000*      8175 	.word	___ghs_eofn_ucGetReDataPreProcTransModePD
00001968 0153           8176 	.byte	1,83
0000196a 02             8177 	.byte	2
0000196b 00             8178 	.byte	0
0000196c 02             8179 	.byte	2
0000196d 00             8180 	.byte	0
0000196e 00             8181 	.byte	0
0000196f 00             8182 	.byte	0
00001970 00             8183 	.byte	0
00001971 01             8184 	.byte	1
00001972 01             8185 	.byte	1
00001973 00             8186 	.byte	0
00001974 01             8187 	.byte	1
                        8188 
                        8189 	.section	.debug_frame
                        8190 .LDW_4d0da00:
0000025c 00000000*      8191 	.word	.LDW_unq_2a-.LDW_unq_29
                        8192 .LDW_unq_29:
00000260 00000000*      8193 	.word	.LDW_4c2b7e0
00000264 00000000*      8194 	.word	_ucGetReDataPreProcTransModePD
00000268 00000000*      8195 	.word	___ghs_eofn_ucGetReDataPreProcTransModePD-_ucGetReDataPreProcTransModePD
0000026c 01             8196 	.byte	1
0000026d 00000000*      8197 	.word	.LDW15
00000271 00             8198 	.byte	0
00000272 00             8199 	.byte	0
00000273 00             8200 	.byte	0
                        8201 .LDW_unq_2a:
                        8202 	.section	.debug_line
000007b7 000502         8203 	.byte	0,5,2
000007ba 00000000*      8204 	.word	_ucGetReDataPreProcTransModePD
000007be 03             8205 	.byte	3
000007bf f001           8206 	.byte	240,1
000007c1 02             8207 	.byte	2

                                                                      Page 147
                                                              C:\Users\nhuliyap\AppData\Local\Temp\gh_00006641.s
000007c2 00             8208 	.byte	0
000007c3 01             8209 	.byte	1
000007c4 06             8210 	.byte	6
000007c5 000502         8211 	.byte	0,5,2
000007c8 00000000*      8212 	.word	.LDWlin43
000007cc 0b             8213 	.byte	11
000007cd 06             8214 	.byte	6
000007ce 02             8215 	.byte	2
000007cf 04             8216 	.byte	4
000007d0 02             8217 	.byte	2
000007d1 02             8218 	.byte	2
000007d2 000101         8219 	.byte	0,1,1
                        8220 	.section	.debug_info
                        8221 .LDW_4c845c0:
00001975 1d             8222 	.byte	29
00001976 00000000*      8223 	.word	.LDW05
0000197a 00000000*      8224 	.word	.LDW15
                        8225 
0000197e 00             8226 	.byte	0
                        8227 
0000197f 00             8228 	.byte	0
                        8229 
                        8230 .LDW_4c84850:
00001980 13             8231 	.byte	19
00001981 507574526544   8232 	.strz	"PutReDataPreProcTransModePD"
00001987 617461507265 
0000198d 50726f635472 
00001993 616e734d6f64 
00001999 65504400 
0000199d f501           8233 	.byte	245,1
0000199f 06             8234 	.byte	6
000019a0 01             8235 	.byte	1
000019a1 00000000*      8236 	.word	_PutReDataPreProcTransModePD
000019a5 00000000*      8237 	.word	___ghs_eofn_PutReDataPreProcTransModePD
000019a9 0153           8238 	.byte	1,83
000019ab 02             8239 	.byte	2
000019ac 00             8240 	.byte	0
000019ad 02             8241 	.byte	2
000019ae 00             8242 	.byte	0
000019af 00             8243 	.byte	0
000019b0 00             8244 	.byte	0
000019b1 00             8245 	.byte	0
000019b2 01             8246 	.byte	1
000019b3 01             8247 	.byte	1
000019b4 00             8248 	.byte	0
000019b5 01             8249 	.byte	1
                        8250 
                        8251 	.section	.debug_frame
                        8252 .LDW_4d0d840:
00000274 00000000*      8253 	.word	.LDW_unq_2c-.LDW_unq_2b
                        8254 .LDW_unq_2b:
00000278 00000000*      8255 	.word	.LDW_4c2b7e0
0000027c 00000000*      8256 	.word	_PutReDataPreProcTransModePD
00000280 00000000*      8257 	.word	___ghs_eofn_PutReDataPreProcTransModePD-_PutReDataPreProcTransModePD
00000284 01             8258 	.byte	1
00000285 00000000*      8259 	.word	.LDW35
00000289 00             8260 	.byte	0
0000028a 00             8261 	.byte	0
0000028b 00             8262 	.byte	0
                        8263 .LDW_unq_2c:
                        8264 	.section	.debug_line

                                                                      Page 148
                                                              C:\Users\nhuliyap\AppData\Local\Temp\gh_00006641.s
000007d5 000502         8265 	.byte	0,5,2
000007d8 00000000*      8266 	.word	_PutReDataPreProcTransModePD
000007dc 03             8267 	.byte	3
000007dd f501           8268 	.byte	245,1
000007df 02             8269 	.byte	2
000007e0 00             8270 	.byte	0
000007e1 01             8271 	.byte	1
000007e2 06             8272 	.byte	6
000007e3 000502         8273 	.byte	0,5,2
000007e6 00000000*      8274 	.word	.LDWlin44
000007ea 0b             8275 	.byte	11
000007eb 1b             8276 	.byte	27
000007ec 02             8277 	.byte	2
000007ed 02             8278 	.byte	2
000007ee 000101         8279 	.byte	0,1,1
                        8280 	.section	.debug_info
                        8281 .LDW_4c86798:
000019b6 0f             8282 	.byte	15
000019b7 75635472616e   8283 	.strz	"ucTransMode"
000019bd 734d6f646500 
000019c3 f601           8284 	.byte	246,1
000019c5 0a             8285 	.byte	10
000019c6 01             8286 	.byte	1
000019c7 00000000*      8287 	.word	.LDW_304ee70
000019cb 00             8288 	.byte	0
000019cc 0156           8289 	.byte	1,86
                        8290 
                        8291 .LDW_4c840b0:
000019ce 1d             8292 	.byte	29
000019cf 00000000*      8293 	.word	.LDW25
000019d3 00000000*      8294 	.word	.LDW35
                        8295 
000019d7 00             8296 	.byte	0
                        8297 
000019d8 00             8298 	.byte	0
                        8299 
                        8300 .LDW_4c85398:
000019d9 14             8301 	.byte	20
000019da 757368476574   8302 	.strz	"ushGetReDataPreProcSensorDefectPD"
000019e0 526544617461 
000019e6 50726550726f 
000019ec 6353656e736f 
000019f2 724465666563 
000019f8 74504400 
000019fc fa01           8303 	.byte	250,1
000019fe 08             8304 	.byte	8
000019ff 01             8305 	.byte	1
00001a00 00000000*      8306 	.word	.LDW_4c864d8
00001a04 00000000*      8307 	.word	_ushGetReDataPreProcSensorDefectPD
00001a08 00000000*      8308 	.word	___ghs_eofn_ushGetReDataPreProcSensorDefectPD
00001a0c 0153           8309 	.byte	1,83
00001a0e 02             8310 	.byte	2
00001a0f 00             8311 	.byte	0
00001a10 02             8312 	.byte	2
00001a11 00             8313 	.byte	0
00001a12 00             8314 	.byte	0
00001a13 00             8315 	.byte	0
00001a14 00             8316 	.byte	0
00001a15 01             8317 	.byte	1
00001a16 01             8318 	.byte	1
00001a17 00             8319 	.byte	0

                                                                      Page 149
                                                              C:\Users\nhuliyap\AppData\Local\Temp\gh_00006641.s
00001a18 01             8320 	.byte	1
                        8321 
                        8322 	.section	.debug_frame
                        8323 .LDW_4d0d880:
0000028c 00000000*      8324 	.word	.LDW_unq_2e-.LDW_unq_2d
                        8325 .LDW_unq_2d:
00000290 00000000*      8326 	.word	.LDW_4c2b7e0
00000294 00000000*      8327 	.word	_ushGetReDataPreProcSensorDefectPD
00000298 00000000*      8328 	.word	___ghs_eofn_ushGetReDataPreProcSensorDefectPD-_ushGetReDataPreProcSensorDefectPD
0000029c 01             8329 	.byte	1
0000029d 00000000*      8330 	.word	.LDW55
000002a1 00             8331 	.byte	0
000002a2 00             8332 	.byte	0
000002a3 00             8333 	.byte	0
                        8334 .LDW_unq_2e:
                        8335 	.section	.debug_line
000007f1 000502         8336 	.byte	0,5,2
000007f4 00000000*      8337 	.word	_ushGetReDataPreProcSensorDefectPD
000007f8 03             8338 	.byte	3
000007f9 fa01           8339 	.byte	250,1
000007fb 02             8340 	.byte	2
000007fc 00             8341 	.byte	0
000007fd 01             8342 	.byte	1
000007fe 06             8343 	.byte	6
000007ff 000502         8344 	.byte	0,5,2
00000802 00000000*      8345 	.word	.LDWlin45
00000806 0b             8346 	.byte	11
00000807 06             8347 	.byte	6
00000808 02             8348 	.byte	2
00000809 04             8349 	.byte	4
0000080a 02             8350 	.byte	2
0000080b 02             8351 	.byte	2
0000080c 000101         8352 	.byte	0,1,1
                        8353 	.section	.debug_info
                        8354 .LDW_4c843b0:
00001a19 1d             8355 	.byte	29
00001a1a 00000000*      8356 	.word	.LDW45
00001a1e 00000000*      8357 	.word	.LDW55
                        8358 
00001a22 00             8359 	.byte	0
                        8360 
00001a23 00             8361 	.byte	0
                        8362 
                        8363 .LDW_4c85560:
00001a24 13             8364 	.byte	19
00001a25 507574526544   8365 	.strz	"PutReDataPreProcSensorDefectPD"
00001a2b 617461507265 
00001a31 50726f635365 
00001a37 6e736f724465 
00001a3d 666563745044 
00001a43 00 
00001a44 ff01           8366 	.byte	255,1
00001a46 06             8367 	.byte	6
00001a47 01             8368 	.byte	1
00001a48 00000000*      8369 	.word	_PutReDataPreProcSensorDefectPD
00001a4c 00000000*      8370 	.word	___ghs_eofn_PutReDataPreProcSensorDefectPD
00001a50 0153           8371 	.byte	1,83
00001a52 02             8372 	.byte	2
00001a53 00             8373 	.byte	0
00001a54 02             8374 	.byte	2
00001a55 00             8375 	.byte	0

                                                                      Page 150
                                                              C:\Users\nhuliyap\AppData\Local\Temp\gh_00006641.s
00001a56 00             8376 	.byte	0
00001a57 00             8377 	.byte	0
00001a58 00             8378 	.byte	0
00001a59 01             8379 	.byte	1
00001a5a 01             8380 	.byte	1
00001a5b 00             8381 	.byte	0
00001a5c 01             8382 	.byte	1
                        8383 
                        8384 	.section	.debug_frame
                        8385 .LDW_4d0db80:
000002a4 00000000*      8386 	.word	.LDW_unq_30-.LDW_unq_2f
                        8387 .LDW_unq_2f:
000002a8 00000000*      8388 	.word	.LDW_4c2b7e0
000002ac 00000000*      8389 	.word	_PutReDataPreProcSensorDefectPD
000002b0 00000000*      8390 	.word	___ghs_eofn_PutReDataPreProcSensorDefectPD-_PutReDataPreProcSensorDefectPD
000002b4 01             8391 	.byte	1
000002b5 00000000*      8392 	.word	.LDW75
000002b9 00             8393 	.byte	0
000002ba 00             8394 	.byte	0
000002bb 00             8395 	.byte	0
                        8396 .LDW_unq_30:
                        8397 	.section	.debug_line
0000080f 000502         8398 	.byte	0,5,2
00000812 00000000*      8399 	.word	_PutReDataPreProcSensorDefectPD
00000816 03             8400 	.byte	3
00000817 ff01           8401 	.byte	255,1
00000819 02             8402 	.byte	2
0000081a 00             8403 	.byte	0
0000081b 01             8404 	.byte	1
0000081c 06             8405 	.byte	6
0000081d 000502         8406 	.byte	0,5,2
00000820 00000000*      8407 	.word	.LDWlin46
00000824 0b             8408 	.byte	11
00000825 1b             8409 	.byte	27
00000826 02             8410 	.byte	2
00000827 02             8411 	.byte	2
00000828 000101         8412 	.byte	0,1,1
                        8413 	.section	.debug_info
                        8414 .LDW_4c86638:
00001a5d 0f             8415 	.byte	15
00001a5e 75736853656e   8416 	.strz	"ushSensorDefect"
00001a64 736f72446566 
00001a6a 65637400 
00001a6e 8002           8417 	.byte	128,2
00001a70 0b             8418 	.byte	11
00001a71 01             8419 	.byte	1
00001a72 00000000*      8420 	.word	.LDW_4c864d8
00001a76 00             8421 	.byte	0
00001a77 0156           8422 	.byte	1,86
                        8423 
                        8424 .LDW_4c84110:
00001a79 1d             8425 	.byte	29
00001a7a 00000000*      8426 	.word	.LDW65
00001a7e 00000000*      8427 	.word	.LDW75
                        8428 
00001a82 00             8429 	.byte	0
                        8430 
00001a83 00             8431 	.byte	0
                        8432 
                        8433 .LDW_4c84be0:
00001a84 14             8434 	.byte	20

                                                                      Page 151
                                                              C:\Users\nhuliyap\AppData\Local\Temp\gh_00006641.s
00001a85 756347657456   8435 	.strz	"ucGetValidTyrePressureRelAtPosPD"
00001a8b 616c69645479 
00001a91 726550726573 
00001a97 737572655265 
00001a9d 6c4174506f73 
00001aa3 504400 
00001aa6 8402           8436 	.byte	132,2
00001aa8 07             8437 	.byte	7
00001aa9 01             8438 	.byte	1
00001aaa 00000000*      8439 	.word	.LDW_304ee70
00001aae 00000000*      8440 	.word	_ucGetValidTyrePressureRelAtPosPD
00001ab2 00000000*      8441 	.word	___ghs_eofn_ucGetValidTyrePressureRelAtPosPD
00001ab6 0153           8442 	.byte	1,83
00001ab8 8280808008     8443 	.byte	130,128,128,128,8
00001abd 04             8444 	.byte	4
00001abe 03             8445 	.byte	3
00001abf 04             8446 	.byte	4
00001ac0 00             8447 	.byte	0
00001ac1 00             8448 	.byte	0
00001ac2 00             8449 	.byte	0
00001ac3 01             8450 	.byte	1
00001ac4 01             8451 	.byte	1
00001ac5 00             8452 	.byte	0
00001ac6 01             8453 	.byte	1
                        8454 
                        8455 	.section	.debug_frame
                        8456 .LDW_4d0db00:
000002bc 00000000*      8457 	.word	.LDW_unq_32-.LDW_unq_31
                        8458 .LDW_unq_31:
000002c0 00000000*      8459 	.word	.LDW_4c2b7e0
000002c4 00000000*      8460 	.word	_ucGetValidTyrePressureRelAtPosPD
000002c8 00000000*      8461 	.word	___ghs_eofn_ucGetValidTyrePressureRelAtPosPD-_ucGetValidTyrePressureRelAtPosPD
000002cc 44             8462 	.byte	68
000002cd 9f             8463 	.byte	159
000002ce 00             8464 	.byte	0
000002cf 01             8465 	.byte	1
000002d0 00000000*      8466 	.word	.LDW16
                        8467 .LDW_unq_32:
                        8468 	.section	.debug_line
0000082b 000502         8469 	.byte	0,5,2
0000082e 00000000*      8470 	.word	_ucGetValidTyrePressureRelAtPosPD
00000832 03             8471 	.byte	3
00000833 8402           8472 	.byte	132,2
00000835 02             8473 	.byte	2
00000836 00             8474 	.byte	0
00000837 01             8475 	.byte	1
00000838 06             8476 	.byte	6
00000839 25             8477 	.byte	37
0000083a 000502         8478 	.byte	0,5,2
0000083d 00000000*      8479 	.word	.LDWlin52
00000841 0c             8480 	.byte	12
00000842 000502         8481 	.byte	0,5,2
00000845 00000000*      8482 	.word	.LDWlin53
00000849 02             8483 	.byte	2
0000084a 00             8484 	.byte	0
0000084b 0b             8485 	.byte	11
0000084c 000502         8486 	.byte	0,5,2
0000084f 00000000*      8487 	.word	.LDWlin54
00000853 0c             8488 	.byte	12
00000854 0b             8489 	.byte	11
00000855 0b             8490 	.byte	11

                                                                      Page 152
                                                              C:\Users\nhuliyap\AppData\Local\Temp\gh_00006641.s
00000856 06             8491 	.byte	6
00000857 000502         8492 	.byte	0,5,2
0000085a 00000000*      8493 	.word	.LDWlin55
0000085e 03             8494 	.byte	3
0000085f 7d             8495 	.byte	125
00000860 02             8496 	.byte	2
00000861 00             8497 	.byte	0
00000862 01             8498 	.byte	1
00000863 06             8499 	.byte	6
00000864 03             8500 	.byte	3
00000865 04             8501 	.byte	4
00000866 02             8502 	.byte	2
00000867 00             8503 	.byte	0
00000868 01             8504 	.byte	1
00000869 02             8505 	.byte	2
0000086a 00             8506 	.byte	0
0000086b 0b             8507 	.byte	11
0000086c 0b             8508 	.byte	11
0000086d 0b             8509 	.byte	11
0000086e 1b             8510 	.byte	27
0000086f 02             8511 	.byte	2
00000870 00             8512 	.byte	0
00000871 0b             8513 	.byte	11
00000872 02             8514 	.byte	2
00000873 04             8515 	.byte	4
00000874 000101         8516 	.byte	0,1,1
                        8517 	.section	.debug_info
                        8518 .LDW_4c86110:
00001ac7 0f             8519 	.byte	15
00001ac8 756352616450   8520 	.strz	"ucRadPos"
00001ace 6f7300 
00001ad1 8502           8521 	.byte	133,2
00001ad3 0a             8522 	.byte	10
00001ad4 01             8523 	.byte	1
00001ad5 00000000*      8524 	.word	.LDW_304ee70
00001ad9 00             8525 	.byte	0
00001ada 0156           8526 	.byte	1,86
                        8527 
                        8528 .LDW_4c84230:
00001adc 1d             8529 	.byte	29
00001add 00000000*      8530 	.word	.LDW06
00001ae1 00000000*      8531 	.word	.LDW16
                        8532 
                        8533 .LDW_4c86848:
00001ae5 04             8534 	.byte	4
00001ae6 756352657400   8535 	.strz	"ucRet"
00001aec 8602           8536 	.byte	134,2
00001aee 0a             8537 	.byte	10
00001aef 01             8538 	.byte	1
00001af0 00000000*      8539 	.word	.LDW_304ee70
00001af4 00             8540 	.byte	0
00001af5 00             8541 	.byte	0
00001af6 015a           8542 	.byte	1,90
                        8543 
                        8544 .LDW_4c86378:
00001af8 04             8545 	.byte	4
00001af9 75635a6f6d50   8546 	.strz	"ucZomPos"
00001aff 6f7300 
00001b02 8702           8547 	.byte	135,2
00001b04 0a             8548 	.byte	10
00001b05 01             8549 	.byte	1

                                                                      Page 153
                                                              C:\Users\nhuliyap\AppData\Local\Temp\gh_00006641.s
00001b06 00000000*      8550 	.word	.LDW_304ee70
00001b0a 00             8551 	.byte	0
00001b0b 00             8552 	.byte	0
00001b0c 016e           8553 	.byte	1,110
                        8554 
00001b0e 00             8555 	.byte	0
                        8556 
00001b0f 00             8557 	.byte	0
                        8558 
                        8559 .LDW_4c85138:
00001b10 14             8560 	.byte	20
00001b11 756347657456   8561 	.strz	"ucGetValidTemperatureRelAtPosPD"
00001b17 616c69645465 
00001b1d 6d7065726174 
00001b23 75726552656c 
00001b29 4174506f7350 
00001b2f 4400 
00001b31 9802           8562 	.byte	152,2
00001b33 07             8563 	.byte	7
00001b34 01             8564 	.byte	1
00001b35 00000000*      8565 	.word	.LDW_304ee70
00001b39 00000000*      8566 	.word	_ucGetValidTemperatureRelAtPosPD
00001b3d 00000000*      8567 	.word	___ghs_eofn_ucGetValidTemperatureRelAtPosPD
00001b41 0153           8568 	.byte	1,83
00001b43 8280808008     8569 	.byte	130,128,128,128,8
00001b48 04             8570 	.byte	4
00001b49 03             8571 	.byte	3
00001b4a 04             8572 	.byte	4
00001b4b 00             8573 	.byte	0
00001b4c 00             8574 	.byte	0
00001b4d 00             8575 	.byte	0
00001b4e 01             8576 	.byte	1
00001b4f 01             8577 	.byte	1
00001b50 00             8578 	.byte	0
00001b51 01             8579 	.byte	1
                        8580 
                        8581 	.section	.debug_frame
                        8582 .LDW_4d0d8c0:
000002d4 00000000*      8583 	.word	.LDW_unq_34-.LDW_unq_33
                        8584 .LDW_unq_33:
000002d8 00000000*      8585 	.word	.LDW_4c2b7e0
000002dc 00000000*      8586 	.word	_ucGetValidTemperatureRelAtPosPD
000002e0 00000000*      8587 	.word	___ghs_eofn_ucGetValidTemperatureRelAtPosPD-_ucGetValidTemperatureRelAtPosPD
000002e4 44             8588 	.byte	68
000002e5 9f             8589 	.byte	159
000002e6 00             8590 	.byte	0
000002e7 01             8591 	.byte	1
000002e8 00000000*      8592 	.word	.LDW36
                        8593 .LDW_unq_34:
                        8594 	.section	.debug_line
00000877 000502         8595 	.byte	0,5,2
0000087a 00000000*      8596 	.word	_ucGetValidTemperatureRelAtPosPD
0000087e 03             8597 	.byte	3
0000087f 9802           8598 	.byte	152,2
00000881 02             8599 	.byte	2
00000882 00             8600 	.byte	0
00000883 01             8601 	.byte	1
00000884 06             8602 	.byte	6
00000885 25             8603 	.byte	37
00000886 000502         8604 	.byte	0,5,2
00000889 00000000*      8605 	.word	.LDWlin56

                                                                      Page 154
                                                              C:\Users\nhuliyap\AppData\Local\Temp\gh_00006641.s
0000088d 0c             8606 	.byte	12
0000088e 000502         8607 	.byte	0,5,2
00000891 00000000*      8608 	.word	.LDWlin57
00000895 02             8609 	.byte	2
00000896 00             8610 	.byte	0
00000897 0b             8611 	.byte	11
00000898 000502         8612 	.byte	0,5,2
0000089b 00000000*      8613 	.word	.LDWlin58
0000089f 0c             8614 	.byte	12
000008a0 0b             8615 	.byte	11
000008a1 0b             8616 	.byte	11
000008a2 06             8617 	.byte	6
000008a3 000502         8618 	.byte	0,5,2
000008a6 00000000*      8619 	.word	.LDWlin59
000008aa 03             8620 	.byte	3
000008ab 7d             8621 	.byte	125
000008ac 02             8622 	.byte	2
000008ad 00             8623 	.byte	0
000008ae 01             8624 	.byte	1
000008af 06             8625 	.byte	6
000008b0 03             8626 	.byte	3
000008b1 04             8627 	.byte	4
000008b2 02             8628 	.byte	2
000008b3 00             8629 	.byte	0
000008b4 01             8630 	.byte	1
000008b5 02             8631 	.byte	2
000008b6 00             8632 	.byte	0
000008b7 0b             8633 	.byte	11
000008b8 0b             8634 	.byte	11
000008b9 0b             8635 	.byte	11
000008ba 1b             8636 	.byte	27
000008bb 02             8637 	.byte	2
000008bc 00             8638 	.byte	0
000008bd 0b             8639 	.byte	11
000008be 02             8640 	.byte	2
000008bf 04             8641 	.byte	4
000008c0 000101         8642 	.byte	0,1,1
                        8643 	.section	.debug_info
                        8644 .LDW_4c86168:
00001b52 0f             8645 	.byte	15
00001b53 756352616450   8646 	.strz	"ucRadPos"
00001b59 6f7300 
00001b5c 9902           8647 	.byte	153,2
00001b5e 0a             8648 	.byte	10
00001b5f 01             8649 	.byte	1
00001b60 00000000*      8650 	.word	.LDW_304ee70
00001b64 00             8651 	.byte	0
00001b65 0156           8652 	.byte	1,86
                        8653 
                        8654 .LDW_4c841a0:
00001b67 1d             8655 	.byte	29
00001b68 00000000*      8656 	.word	.LDW26
00001b6c 00000000*      8657 	.word	.LDW36
                        8658 
                        8659 .LDW_4c861c0:
00001b70 04             8660 	.byte	4
00001b71 756352657400   8661 	.strz	"ucRet"
00001b77 9a02           8662 	.byte	154,2
00001b79 0a             8663 	.byte	10
00001b7a 01             8664 	.byte	1
00001b7b 00000000*      8665 	.word	.LDW_304ee70

                                                                      Page 155
                                                              C:\Users\nhuliyap\AppData\Local\Temp\gh_00006641.s
00001b7f 00             8666 	.byte	0
00001b80 00             8667 	.byte	0
00001b81 015a           8668 	.byte	1,90
                        8669 
                        8670 .LDW_4c862c8:
00001b83 04             8671 	.byte	4
00001b84 75635a6f6d50   8672 	.strz	"ucZomPos"
00001b8a 6f7300 
00001b8d 9b02           8673 	.byte	155,2
00001b8f 0a             8674 	.byte	10
00001b90 01             8675 	.byte	1
00001b91 00000000*      8676 	.word	.LDW_304ee70
00001b95 00             8677 	.byte	0
00001b96 00             8678 	.byte	0
00001b97 016e           8679 	.byte	1,110
                        8680 
00001b99 00             8681 	.byte	0
                        8682 
00001b9a 00             8683 	.byte	0
                        8684 
                        8685 .LDW_4c84c78:
00001b9b 14             8686 	.byte	20
00001b9c 756347657453   8687 	.strz	"ucGetSlotNoAtPosPD"
00001ba2 6c6f744e6f41 
00001ba8 74506f735044 
00001bae 00 
00001baf ac02           8688 	.byte	172,2
00001bb1 07             8689 	.byte	7
00001bb2 01             8690 	.byte	1
00001bb3 00000000*      8691 	.word	.LDW_304ee70
00001bb7 00000000*      8692 	.word	_ucGetSlotNoAtPosPD
00001bbb 00000000*      8693 	.word	___ghs_eofn_ucGetSlotNoAtPosPD
00001bbf 0153           8694 	.byte	1,83
00001bc1 828080c00b     8695 	.byte	130,128,128,192,11
00001bc6 10             8696 	.byte	16
00001bc7 03             8697 	.byte	3
00001bc8 10             8698 	.byte	16
00001bc9 00             8699 	.byte	0
00001bca 00             8700 	.byte	0
00001bcb 00             8701 	.byte	0
00001bcc 01             8702 	.byte	1
00001bcd 01             8703 	.byte	1
00001bce 00             8704 	.byte	0
00001bcf 01             8705 	.byte	1
                        8706 
                        8707 	.section	.debug_frame
                        8708 .LDW_4d0da80:
000002ec 00000000*      8709 	.word	.LDW_unq_36-.LDW_unq_35
                        8710 .LDW_unq_35:
000002f0 00000000*      8711 	.word	.LDW_4c2b7e0
000002f4 00000000*      8712 	.word	_ucGetSlotNoAtPosPD
000002f8 00000000*      8713 	.word	___ghs_eofn_ucGetSlotNoAtPosPD-_ucGetSlotNoAtPosPD
000002fc 44             8714 	.byte	68
000002fd 9f             8715 	.byte	159
000002fe 00             8716 	.byte	0
000002ff 40             8717 	.byte	64
00000300 9d             8718 	.byte	157
00000301 04             8719 	.byte	4
00000302 40             8720 	.byte	64
00000303 9c             8721 	.byte	156
00000304 08             8722 	.byte	8

                                                                      Page 156
                                                              C:\Users\nhuliyap\AppData\Local\Temp\gh_00006641.s
00000305 40             8723 	.byte	64
00000306 9b             8724 	.byte	155
00000307 0c             8725 	.byte	12
00000308 01             8726 	.byte	1
00000309 00000000*      8727 	.word	.LDW95
0000030d 00             8728 	.byte	0
0000030e 00             8729 	.byte	0
0000030f 00             8730 	.byte	0
                        8731 .LDW_unq_36:
                        8732 	.section	.debug_line
000008c3 000502         8733 	.byte	0,5,2
000008c6 00000000*      8734 	.word	_ucGetSlotNoAtPosPD
000008ca 03             8735 	.byte	3
000008cb ac02           8736 	.byte	172,2
000008cd 02             8737 	.byte	2
000008ce 00             8738 	.byte	0
000008cf 01             8739 	.byte	1
000008d0 06             8740 	.byte	6
000008d1 2d             8741 	.byte	45
000008d2 06             8742 	.byte	6
000008d3 000502         8743 	.byte	0,5,2
000008d6 00000000*      8744 	.word	.LDWlin47
000008da 03             8745 	.byte	3
000008db 0c             8746 	.byte	12
000008dc 02             8747 	.byte	2
000008dd 00             8748 	.byte	0
000008de 01             8749 	.byte	1
000008df 03             8750 	.byte	3
000008e0 76             8751 	.byte	118
000008e1 02             8752 	.byte	2
000008e2 00             8753 	.byte	0
000008e3 01             8754 	.byte	1
000008e4 03             8755 	.byte	3
000008e5 7e             8756 	.byte	126
000008e6 02             8757 	.byte	2
000008e7 00             8758 	.byte	0
000008e8 01             8759 	.byte	1
000008e9 06             8760 	.byte	6
000008ea 1d             8761 	.byte	29
000008eb 000502         8762 	.byte	0,5,2
000008ee 00000000*      8763 	.word	.LDWlin48
000008f2 0b             8764 	.byte	11
000008f3 000502         8765 	.byte	0,5,2
000008f6 00000000*      8766 	.word	.LDWlin49
000008fa 0b             8767 	.byte	11
000008fb 0c             8768 	.byte	12
000008fc 000502         8769 	.byte	0,5,2
000008ff 00000000*      8770 	.word	.LDWlin50
00000903 03             8771 	.byte	3
00000904 06             8772 	.byte	6
00000905 02             8773 	.byte	2
00000906 00             8774 	.byte	0
00000907 01             8775 	.byte	1
00000908 02             8776 	.byte	2
00000909 00             8777 	.byte	0
0000090a 0b             8778 	.byte	11
0000090b 06             8779 	.byte	6
0000090c 02             8780 	.byte	2
0000090d 02             8781 	.byte	2
0000090e 06             8782 	.byte	6
0000090f 000502         8783 	.byte	0,5,2

                                                                      Page 157
                                                              C:\Users\nhuliyap\AppData\Local\Temp\gh_00006641.s
00000912 00000000*      8784 	.word	.LDWlin51
00000916 03             8785 	.byte	3
00000917 7a             8786 	.byte	122
00000918 02             8787 	.byte	2
00000919 00             8788 	.byte	0
0000091a 01             8789 	.byte	1
0000091b 02             8790 	.byte	2
0000091c 00             8791 	.byte	0
0000091d 03             8792 	.byte	3
0000091e 7b             8793 	.byte	123
0000091f 02             8794 	.byte	2
00000920 00             8795 	.byte	0
00000921 01             8796 	.byte	1
00000922 02             8797 	.byte	2
00000923 08             8798 	.byte	8
00000924 000101         8799 	.byte	0,1,1
                        8800 	.section	.debug_info
                        8801 .LDW_4c86690:
00001bd0 0f             8802 	.byte	15
00001bd1 756352616450   8803 	.strz	"ucRadPos"
00001bd7 6f7300 
00001bda ad02           8804 	.byte	173,2
00001bdc 0a             8805 	.byte	10
00001bdd 01             8806 	.byte	1
00001bde 00000000*      8807 	.word	.LDW_304ee70
00001be2 00             8808 	.byte	0
00001be3 016b           8809 	.byte	1,107
                        8810 
                        8811 .LDW_4c84260:
00001be5 1d             8812 	.byte	29
00001be6 00000000*      8813 	.word	.LDW85
00001bea 00000000*      8814 	.word	.LDW95
                        8815 
                        8816 .LDW_4c86320:
00001bee 04             8817 	.byte	4
00001bef 75634c6f6f70   8818 	.strz	"ucLoop"
00001bf5 00 
00001bf6 ae02           8819 	.byte	174,2
00001bf8 0a             8820 	.byte	10
00001bf9 01             8821 	.byte	1
00001bfa 00000000*      8822 	.word	.LDW_304ee70
00001bfe 00             8823 	.byte	0
00001bff 00             8824 	.byte	0
00001c00 016d           8825 	.byte	1,109
                        8826 
                        8827 .LDW_4c865e0:
00001c02 04             8828 	.byte	4
00001c03 756352657400   8829 	.strz	"ucRet"
00001c09 af02           8830 	.byte	175,2
00001c0b 0a             8831 	.byte	10
00001c0c 01             8832 	.byte	1
00001c0d 00000000*      8833 	.word	.LDW_304ee70
00001c11 00             8834 	.byte	0
00001c12 00             8835 	.byte	0
00001c13 016c           8836 	.byte	1,108
                        8837 
00001c15 00             8838 	.byte	0
                        8839 
00001c16 00             8840 	.byte	0
                        8841 
                        8842 .LDW_4c850a0:

                                                                      Page 158
                                                              C:\Users\nhuliyap\AppData\Local\Temp\gh_00006641.s
00001c17 13             8843 	.byte	19
00001c18 526561645265   8844 	.strz	"ReadReDataFromRingBuffer_iBTCM"
00001c1e 446174614672 
00001c24 6f6d52696e67 
00001c2a 427566666572 
00001c30 5f694254434d 
00001c36 00 
00001c37 c102           8845 	.byte	193,2
00001c39 06             8846 	.byte	6
00001c3a 01             8847 	.byte	1
00001c3b 00000000*      8848 	.word	_ReadReDataFromRingBuffer_iBTCM
00001c3f 00000000*      8849 	.word	___ghs_eofn_ReadReDataFromRingBuffer_iBTCM
00001c43 0153           8850 	.byte	1,83
00001c45 828080e00b     8851 	.byte	130,128,128,224,11
00001c4a 14             8852 	.byte	20
00001c4b 03             8853 	.byte	3
00001c4c 14             8854 	.byte	20
00001c4d 00             8855 	.byte	0
00001c4e 00             8856 	.byte	0
00001c4f 00             8857 	.byte	0
00001c50 01             8858 	.byte	1
00001c51 01             8859 	.byte	1
00001c52 00             8860 	.byte	0
00001c53 01             8861 	.byte	1
                        8862 
                        8863 	.section	.debug_frame
                        8864 .LDW_4d0d900:
00000310 00000000*      8865 	.word	.LDW_unq_38-.LDW_unq_37
                        8866 .LDW_unq_37:
00000314 00000000*      8867 	.word	.LDW_4c2b7e0
00000318 00000000*      8868 	.word	_ReadReDataFromRingBuffer_iBTCM
0000031c 00000000*      8869 	.word	___ghs_eofn_ReadReDataFromRingBuffer_iBTCM-_ReadReDataFromRingBuffer_iBTCM
00000320 44             8870 	.byte	68
00000321 9f             8871 	.byte	159
00000322 00             8872 	.byte	0
00000323 40             8873 	.byte	64
00000324 9d             8874 	.byte	157
00000325 04             8875 	.byte	4
00000326 40             8876 	.byte	64
00000327 9c             8877 	.byte	156
00000328 08             8878 	.byte	8
00000329 40             8879 	.byte	64
0000032a 9b             8880 	.byte	155
0000032b 0c             8881 	.byte	12
0000032c 40             8882 	.byte	64
0000032d 9a             8883 	.byte	154
0000032e 10             8884 	.byte	16
0000032f 01             8885 	.byte	1
00000330 00000000*      8886 	.word	.LDW56
                        8887 .LDW_unq_38:
                        8888 	.section	.debug_line
00000927 000502         8889 	.byte	0,5,2
0000092a 00000000*      8890 	.word	_ReadReDataFromRingBuffer_iBTCM
0000092e 03             8891 	.byte	3
0000092f c102           8892 	.byte	193,2
00000931 02             8893 	.byte	2
00000932 00             8894 	.byte	0
00000933 01             8895 	.byte	1
00000934 06             8896 	.byte	6
00000935 000502         8897 	.byte	0,5,2
00000938 00000000*      8898 	.word	.LDWlin60

                                                                      Page 159
                                                              C:\Users\nhuliyap\AppData\Local\Temp\gh_00006641.s
0000093c 03             8899 	.byte	3
0000093d 06             8900 	.byte	6
0000093e 02             8901 	.byte	2
0000093f 00             8902 	.byte	0
00000940 01             8903 	.byte	1
00000941 03             8904 	.byte	3
00000942 7f             8905 	.byte	127
00000943 02             8906 	.byte	2
00000944 04             8907 	.byte	4
00000945 01             8908 	.byte	1
00000946 14             8909 	.byte	20
00000947 000502         8910 	.byte	0,5,2
0000094a 00000000*      8911 	.word	.LDWlin61
0000094e 0b             8912 	.byte	11
0000094f 0b             8913 	.byte	11
00000950 1c             8914 	.byte	28
00000951 03             8915 	.byte	3
00000952 7f             8916 	.byte	127
00000953 02             8917 	.byte	2
00000954 08             8918 	.byte	8
00000955 01             8919 	.byte	1
00000956 000502         8920 	.byte	0,5,2
00000959 00000000*      8921 	.word	.LDWlin62
0000095d 03             8922 	.byte	3
0000095e 34             8923 	.byte	52
0000095f 02             8924 	.byte	2
00000960 00             8925 	.byte	0
00000961 01             8926 	.byte	1
00000962 1b             8927 	.byte	27
00000963 03             8928 	.byte	3
00000964 0d             8929 	.byte	13
00000965 02             8930 	.byte	2
00000966 04             8931 	.byte	4
00000967 01             8932 	.byte	1
00000968 03             8933 	.byte	3
00000969 74             8934 	.byte	116
0000096a 02             8935 	.byte	2
0000096b 04             8936 	.byte	4
0000096c 01             8937 	.byte	1
0000096d 23             8938 	.byte	35
0000096e 23             8939 	.byte	35
0000096f 23             8940 	.byte	35
00000970 23             8941 	.byte	35
00000971 23             8942 	.byte	35
00000972 23             8943 	.byte	35
00000973 23             8944 	.byte	35
00000974 23             8945 	.byte	35
00000975 23             8946 	.byte	35
00000976 23             8947 	.byte	35
00000977 23             8948 	.byte	35
00000978 24             8949 	.byte	36
00000979 06             8950 	.byte	6
0000097a 000502         8951 	.byte	0,5,2
0000097d 00000000*      8952 	.word	.LDWlin63
00000981 03             8953 	.byte	3
00000982 42             8954 	.byte	66
00000983 02             8955 	.byte	2
00000984 00             8956 	.byte	0
00000985 01             8957 	.byte	1
00000986 06             8958 	.byte	6
00000987 03             8959 	.byte	3

                                                                      Page 160
                                                              C:\Users\nhuliyap\AppData\Local\Temp\gh_00006641.s
00000988 17             8960 	.byte	23
00000989 02             8961 	.byte	2
0000098a 00             8962 	.byte	0
0000098b 01             8963 	.byte	1
0000098c 06             8964 	.byte	6
0000098d 03             8965 	.byte	3
0000098e 6a             8966 	.byte	106
0000098f 02             8967 	.byte	2
00000990 04             8968 	.byte	4
00000991 01             8969 	.byte	1
00000992 06             8970 	.byte	6
00000993 03             8971 	.byte	3
00000994 17             8972 	.byte	23
00000995 02             8973 	.byte	2
00000996 00             8974 	.byte	0
00000997 01             8975 	.byte	1
00000998 06             8976 	.byte	6
00000999 03             8977 	.byte	3
0000099a 6a             8978 	.byte	106
0000099b 02             8979 	.byte	2
0000099c 06             8980 	.byte	6
0000099d 01             8981 	.byte	1
0000099e 06             8982 	.byte	6
0000099f 03             8983 	.byte	3
000009a0 17             8984 	.byte	23
000009a1 02             8985 	.byte	2
000009a2 00             8986 	.byte	0
000009a3 01             8987 	.byte	1
000009a4 06             8988 	.byte	6
000009a5 03             8989 	.byte	3
000009a6 6a             8990 	.byte	106
000009a7 02             8991 	.byte	2
000009a8 06             8992 	.byte	6
000009a9 01             8993 	.byte	1
000009aa 06             8994 	.byte	6
000009ab 03             8995 	.byte	3
000009ac 17             8996 	.byte	23
000009ad 02             8997 	.byte	2
000009ae 00             8998 	.byte	0
000009af 01             8999 	.byte	1
000009b0 06             9000 	.byte	6
000009b1 03             9001 	.byte	3
000009b2 6a             9002 	.byte	106
000009b3 02             9003 	.byte	2
000009b4 06             9004 	.byte	6
000009b5 01             9005 	.byte	1
000009b6 06             9006 	.byte	6
000009b7 03             9007 	.byte	3
000009b8 17             9008 	.byte	23
000009b9 02             9009 	.byte	2
000009ba 00             9010 	.byte	0
000009bb 01             9011 	.byte	1
000009bc 06             9012 	.byte	6
000009bd 03             9013 	.byte	3
000009be 6a             9014 	.byte	106
000009bf 02             9015 	.byte	2
000009c0 06             9016 	.byte	6
000009c1 01             9017 	.byte	1
000009c2 06             9018 	.byte	6
000009c3 03             9019 	.byte	3
000009c4 17             9020 	.byte	23

                                                                      Page 161
                                                              C:\Users\nhuliyap\AppData\Local\Temp\gh_00006641.s
000009c5 02             9021 	.byte	2
000009c6 00             9022 	.byte	0
000009c7 01             9023 	.byte	1
000009c8 06             9024 	.byte	6
000009c9 03             9025 	.byte	3
000009ca 6a             9026 	.byte	106
000009cb 02             9027 	.byte	2
000009cc 06             9028 	.byte	6
000009cd 01             9029 	.byte	1
000009ce 06             9030 	.byte	6
000009cf 03             9031 	.byte	3
000009d0 17             9032 	.byte	23
000009d1 02             9033 	.byte	2
000009d2 00             9034 	.byte	0
000009d3 01             9035 	.byte	1
000009d4 06             9036 	.byte	6
000009d5 03             9037 	.byte	3
000009d6 6a             9038 	.byte	106
000009d7 02             9039 	.byte	2
000009d8 06             9040 	.byte	6
000009d9 01             9041 	.byte	1
000009da 06             9042 	.byte	6
000009db 03             9043 	.byte	3
000009dc 17             9044 	.byte	23
000009dd 02             9045 	.byte	2
000009de 00             9046 	.byte	0
000009df 01             9047 	.byte	1
000009e0 23             9048 	.byte	35
000009e1 000502         9049 	.byte	0,5,2
000009e4 00000000*      9050 	.word	.LDWlin64
000009e8 03             9051 	.byte	3
000009e9 69             9052 	.byte	105
000009ea 02             9053 	.byte	2
000009eb 00             9054 	.byte	0
000009ec 01             9055 	.byte	1
000009ed 0d             9056 	.byte	13
000009ee 1b             9057 	.byte	27
000009ef 23             9058 	.byte	35
000009f0 23             9059 	.byte	35
000009f1 23             9060 	.byte	35
000009f2 23             9061 	.byte	35
000009f3 23             9062 	.byte	35
000009f4 23             9063 	.byte	35
000009f5 23             9064 	.byte	35
000009f6 23             9065 	.byte	35
000009f7 23             9066 	.byte	35
000009f8 000502         9067 	.byte	0,5,2
000009fb 00000000*      9068 	.word	.LDWlin65
000009ff 03             9069 	.byte	3
00000a00 0c             9070 	.byte	12
00000a01 02             9071 	.byte	2
00000a02 00             9072 	.byte	0
00000a03 01             9073 	.byte	1
00000a04 1b             9074 	.byte	27
00000a05 03             9075 	.byte	3
00000a06 0a             9076 	.byte	10
00000a07 02             9077 	.byte	2
00000a08 04             9078 	.byte	4
00000a09 01             9079 	.byte	1
00000a0a 03             9080 	.byte	3
00000a0b 77             9081 	.byte	119

                                                                      Page 162
                                                              C:\Users\nhuliyap\AppData\Local\Temp\gh_00006641.s
00000a0c 02             9082 	.byte	2
00000a0d 04             9083 	.byte	4
00000a0e 01             9084 	.byte	1
00000a0f 23             9085 	.byte	35
00000a10 23             9086 	.byte	35
00000a11 23             9087 	.byte	35
00000a12 23             9088 	.byte	35
00000a13 23             9089 	.byte	35
00000a14 23             9090 	.byte	35
00000a15 23             9091 	.byte	35
00000a16 23             9092 	.byte	35
00000a17 24             9093 	.byte	36
00000a18 03             9094 	.byte	3
00000a19 14             9095 	.byte	20
00000a1a 02             9096 	.byte	2
00000a1b 00             9097 	.byte	0
00000a1c 01             9098 	.byte	1
00000a1d 06             9099 	.byte	6
00000a1e 03             9100 	.byte	3
00000a1f 7f             9101 	.byte	127
00000a20 02             9102 	.byte	2
00000a21 00             9103 	.byte	0
00000a22 01             9104 	.byte	1
00000a23 06             9105 	.byte	6
00000a24 0c             9106 	.byte	12
00000a25 0b             9107 	.byte	11
00000a26 0b             9108 	.byte	11
00000a27 0c             9109 	.byte	12
00000a28 02             9110 	.byte	2
00000a29 00             9111 	.byte	0
00000a2a 0b             9112 	.byte	11
00000a2b 02             9113 	.byte	2
00000a2c 00             9114 	.byte	0
00000a2d 0b             9115 	.byte	11
00000a2e 000502         9116 	.byte	0,5,2
00000a31 00000000*      9117 	.word	.LDWlin66
00000a35 0b             9118 	.byte	11
00000a36 000502         9119 	.byte	0,5,2
00000a39 00000000*      9120 	.word	.LDWlin67
00000a3d 02             9121 	.byte	2
00000a3e 00             9122 	.byte	0
00000a3f 0b             9123 	.byte	11
00000a40 000502         9124 	.byte	0,5,2
00000a43 00000000*      9125 	.word	.LDWlin68
00000a47 0b             9126 	.byte	11
00000a48 02             9127 	.byte	2
00000a49 00             9128 	.byte	0
00000a4a 0b             9129 	.byte	11
00000a4b 000502         9130 	.byte	0,5,2
00000a4e 00000000*      9131 	.word	.LDWlin69
00000a52 0b             9132 	.byte	11
00000a53 02             9133 	.byte	2
00000a54 00             9134 	.byte	0
00000a55 0b             9135 	.byte	11
00000a56 02             9136 	.byte	2
00000a57 04             9137 	.byte	4
00000a58 000101         9138 	.byte	0,1,1
                        9139 	.section	.debug_info
                        9140 .LDW_4c866e8:
00001c54 0f             9141 	.byte	15
00001c55 737052784461   9142 	.strz	"spRxDataIn"

                                                                      Page 163
                                                              C:\Users\nhuliyap\AppData\Local\Temp\gh_00006641.s
00001c5b 7461496e00 
00001c60 c202           9143 	.byte	194,2
00001c62 19             9144 	.byte	25
00001c63 01             9145 	.byte	1
00001c64 00000000*      9146 	.word	.LDW_4c85d18
00001c68 00             9147 	.byte	0
00001c69 016c           9148 	.byte	1,108
                        9149 
                        9150 .LDW_4c844a0:
00001c6b 1d             9151 	.byte	29
00001c6c 00000000*      9152 	.word	.LDW46
00001c70 00000000*      9153 	.word	.LDW56
                        9154 
                        9155 .LDW_4c86218:
00001c74 05             9156 	.byte	5
00001c75 6c5f62446f49   9157 	.strz	"l_bDoIt"
00001c7b 7400 
00001c7d c302           9158 	.byte	195,2
00001c7f 0c             9159 	.byte	12
00001c80 01             9160 	.byte	1
00001c81 00000000*      9161 	.word	.LDW_4c867f0
00001c85 00             9162 	.byte	0
00001c86 00             9163 	.byte	0
                        9164 
                        9165 .LDW_4c86530:
00001c87 04             9166 	.byte	4
00001c88 6c5f62416e61   9167 	.strz	"l_bAnalyseTelegram"
00001c8e 6c7973655465 
00001c94 6c656772616d 
00001c9a 00 
00001c9b c402           9168 	.byte	196,2
00001c9d 0c             9169 	.byte	12
00001c9e 01             9170 	.byte	1
00001c9f 00000000*      9171 	.word	.LDW_4c867f0
00001ca3 00             9172 	.byte	0
00001ca4 00             9173 	.byte	0
00001ca5 016a           9174 	.byte	1,106
                        9175 
                        9176 .LDW_4c86588:
00001ca7 04             9177 	.byte	4
00001ca8 6c5f75635465   9178 	.strz	"l_ucTelType"
00001cae 6c5479706500 
00001cb4 c502           9179 	.byte	197,2
00001cb6 0a             9180 	.byte	10
00001cb7 01             9181 	.byte	1
00001cb8 00000000*      9182 	.word	.LDW_304ee70
00001cbc 00             9183 	.byte	0
00001cbd 00             9184 	.byte	0
00001cbe 016b           9185 	.byte	1,107
                        9186 
00001cc0 00             9187 	.byte	0
                        9188 
00001cc1 00             9189 	.byte	0
                        9190 
                        9191 .LDW_4c85300:
00001cc2 13             9192 	.byte	19
00001cc3 525353494261   9193 	.strz	"RSSIBalancePD"
00001cc9 6c616e636550 
00001ccf 4400 
00001cd1 a103           9194 	.byte	161,3
00001cd3 06             9195 	.byte	6

                                                                      Page 164
                                                              C:\Users\nhuliyap\AppData\Local\Temp\gh_00006641.s
00001cd4 01             9196 	.byte	1
00001cd5 00000000*      9197 	.word	_RSSIBalancePD
00001cd9 00000000*      9198 	.word	___ghs_eofn_RSSIBalancePD
00001cdd 0153           9199 	.byte	1,83
00001cdf 02             9200 	.byte	2
00001ce0 00             9201 	.byte	0
00001ce1 02             9202 	.byte	2
00001ce2 00             9203 	.byte	0
00001ce3 00             9204 	.byte	0
00001ce4 00             9205 	.byte	0
00001ce5 00             9206 	.byte	0
00001ce6 01             9207 	.byte	1
00001ce7 01             9208 	.byte	1
00001ce8 00             9209 	.byte	0
00001ce9 01             9210 	.byte	1
                        9211 
                        9212 	.section	.debug_frame
                        9213 .LDW_4d0dbc0:
00000334 00000000*      9214 	.word	.LDW_unq_3a-.LDW_unq_39
                        9215 .LDW_unq_39:
00000338 00000000*      9216 	.word	.LDW_4c2b7e0
0000033c 00000000*      9217 	.word	_RSSIBalancePD
00000340 00000000*      9218 	.word	___ghs_eofn_RSSIBalancePD-_RSSIBalancePD
00000344 01             9219 	.byte	1
00000345 00000000*      9220 	.word	.LDW76
00000349 00             9221 	.byte	0
0000034a 00             9222 	.byte	0
0000034b 00             9223 	.byte	0
                        9224 .LDW_unq_3a:
                        9225 	.section	.debug_line
00000a5b 000502         9226 	.byte	0,5,2
00000a5e 00000000*      9227 	.word	_RSSIBalancePD
00000a62 03             9228 	.byte	3
00000a63 a103           9229 	.byte	161,3
00000a65 02             9230 	.byte	2
00000a66 00             9231 	.byte	0
00000a67 01             9232 	.byte	1
00000a68 06             9233 	.byte	6
00000a69 000502         9234 	.byte	0,5,2
00000a6c 00000000*      9235 	.word	.LDWlin70
00000a70 0b             9236 	.byte	11
00000a71 02             9237 	.byte	2
00000a72 0e             9238 	.byte	14
00000a73 0c             9239 	.byte	12
00000a74 0b             9240 	.byte	11
00000a75 0b             9241 	.byte	11
00000a76 13             9242 	.byte	19
00000a77 02             9243 	.byte	2
00000a78 00             9244 	.byte	0
00000a79 0b             9245 	.byte	11
00000a7a 02             9246 	.byte	2
00000a7b 02             9247 	.byte	2
00000a7c 000101         9248 	.byte	0,1,1
                        9249 	.section	.debug_info
                        9250 .LDW_4c86740:
00001cea 0f             9251 	.byte	15
00001ceb 75634f666673   9252 	.strz	"ucOffsetVal"
00001cf1 657456616c00 
00001cf7 a203           9253 	.byte	162,3
00001cf9 0a             9254 	.byte	10
00001cfa 01             9255 	.byte	1

                                                                      Page 165
                                                              C:\Users\nhuliyap\AppData\Local\Temp\gh_00006641.s
00001cfb 00000000*      9256 	.word	.LDW_304ee70
00001cff 00             9257 	.byte	0
00001d00 0156           9258 	.byte	1,86
                        9259 
                        9260 .LDW_4c84440:
00001d02 1d             9261 	.byte	29
00001d03 00000000*      9262 	.word	.LDW66
00001d07 00000000*      9263 	.word	.LDW76
                        9264 
00001d0b 00             9265 	.byte	0
                        9266 
00001d0c 00             9267 	.byte	0
                        9268 
                        9269 .LDW_4c84b48:
00001d0d 13             9270 	.byte	19
00001d0e 436c65617252   9271 	.strz	"ClearReDataInSlotPD"
00001d14 654461746149 
00001d1a 6e536c6f7450 
00001d20 4400 
00001d22 ab03           9272 	.byte	171,3
00001d24 06             9273 	.byte	6
00001d25 01             9274 	.byte	1
00001d26 00000000*      9275 	.word	_ClearReDataInSlotPD
00001d2a 00000000*      9276 	.word	___ghs_eofn_ClearReDataInSlotPD
00001d2e 0153           9277 	.byte	1,83
00001d30 02             9278 	.byte	2
00001d31 00             9279 	.byte	0
00001d32 02             9280 	.byte	2
00001d33 00             9281 	.byte	0
00001d34 00             9282 	.byte	0
00001d35 00             9283 	.byte	0
00001d36 00             9284 	.byte	0
00001d37 01             9285 	.byte	1
00001d38 01             9286 	.byte	1
00001d39 00             9287 	.byte	0
00001d3a 01             9288 	.byte	1
                        9289 
                        9290 	.section	.debug_frame
                        9291 .LDW_4d0d700:
0000034c 00000000*      9292 	.word	.LDW_unq_3c-.LDW_unq_3b
                        9293 .LDW_unq_3b:
00000350 00000000*      9294 	.word	.LDW_4c2b7e0
00000354 00000000*      9295 	.word	_ClearReDataInSlotPD
00000358 00000000*      9296 	.word	___ghs_eofn_ClearReDataInSlotPD-_ClearReDataInSlotPD
0000035c 01             9297 	.byte	1
0000035d 00000000*      9298 	.word	.LDW96
00000361 00             9299 	.byte	0
00000362 00             9300 	.byte	0
00000363 00             9301 	.byte	0
                        9302 .LDW_unq_3c:
                        9303 	.section	.debug_line
00000a7f 000502         9304 	.byte	0,5,2
00000a82 00000000*      9305 	.word	_ClearReDataInSlotPD
00000a86 03             9306 	.byte	3
00000a87 ab03           9307 	.byte	171,3
00000a89 02             9308 	.byte	2
00000a8a 00             9309 	.byte	0
00000a8b 01             9310 	.byte	1
00000a8c 06             9311 	.byte	6
00000a8d 000502         9312 	.byte	0,5,2
00000a90 00000000*      9313 	.word	.LDWlin71

                                                                      Page 166
                                                              C:\Users\nhuliyap\AppData\Local\Temp\gh_00006641.s
00000a94 0b             9314 	.byte	11
00000a95 23             9315 	.byte	35
00000a96 1b             9316 	.byte	27
00000a97 2b             9317 	.byte	43
00000a98 13             9318 	.byte	19
00000a99 13             9319 	.byte	19
00000a9a 13             9320 	.byte	19
00000a9b 2b             9321 	.byte	43
00000a9c 02             9322 	.byte	2
00000a9d 02             9323 	.byte	2
00000a9e 000101         9324 	.byte	0,1,1
                        9325 	.section	.debug_info
                        9326 .LDW_4c86428:
00001d3b 0f             9327 	.byte	15
00001d3c 75635a6f6d53   9328 	.strz	"ucZomSlot"
00001d42 6c6f7400 
00001d46 ac03           9329 	.byte	172,3
00001d48 0a             9330 	.byte	10
00001d49 01             9331 	.byte	1
00001d4a 00000000*      9332 	.word	.LDW_304ee70
00001d4e 00             9333 	.byte	0
00001d4f 0156           9334 	.byte	1,86
                        9335 
                        9336 .LDW_4c84590:
00001d51 1d             9337 	.byte	29
00001d52 00000000*      9338 	.word	.LDW86
00001d56 00000000*      9339 	.word	.LDW96
                        9340 
00001d5a 00             9341 	.byte	0
                        9342 
00001d5b 00             9343 	.byte	0
                        9344 
                        9345 .LDW_4c855f8:
00001d5c 14             9346 	.byte	20
00001d5d 474554756352   9347 	.strz	"GETucReifendruckPD"
00001d63 656966656e64 
00001d69 7275636b5044 
00001d6f 00 
00001d70 b603           9348 	.byte	182,3
00001d72 07             9349 	.byte	7
00001d73 01             9350 	.byte	1
00001d74 00000000*      9351 	.word	.LDW_304ee70
00001d78 00000000*      9352 	.word	_GETucReifendruckPD
00001d7c 00000000*      9353 	.word	___ghs_eofn_GETucReifendruckPD
00001d80 0153           9354 	.byte	1,83
00001d82 02             9355 	.byte	2
00001d83 00             9356 	.byte	0
00001d84 02             9357 	.byte	2
00001d85 00             9358 	.byte	0
00001d86 00             9359 	.byte	0
00001d87 00             9360 	.byte	0
00001d88 00             9361 	.byte	0
00001d89 01             9362 	.byte	1
00001d8a 01             9363 	.byte	1
00001d8b 00             9364 	.byte	0
00001d8c 01             9365 	.byte	1
                        9366 
                        9367 	.section	.debug_frame
                        9368 .LDW_4d0d780:
00000364 00000000*      9369 	.word	.LDW_unq_3e-.LDW_unq_3d
                        9370 .LDW_unq_3d:

                                                                      Page 167
                                                              C:\Users\nhuliyap\AppData\Local\Temp\gh_00006641.s
00000368 00000000*      9371 	.word	.LDW_4c2b7e0
0000036c 00000000*      9372 	.word	_GETucReifendruckPD
00000370 00000000*      9373 	.word	___ghs_eofn_GETucReifendruckPD-_GETucReifendruckPD
00000374 01             9374 	.byte	1
00000375 00000000*      9375 	.word	.LDW17
00000379 00             9376 	.byte	0
0000037a 00             9377 	.byte	0
0000037b 00             9378 	.byte	0
                        9379 .LDW_unq_3e:
                        9380 	.section	.debug_line
00000aa1 000502         9381 	.byte	0,5,2
00000aa4 00000000*      9382 	.word	_GETucReifendruckPD
00000aa8 03             9383 	.byte	3
00000aa9 b603           9384 	.byte	182,3
00000aab 02             9385 	.byte	2
00000aac 00             9386 	.byte	0
00000aad 01             9387 	.byte	1
00000aae 06             9388 	.byte	6
00000aaf 1b             9389 	.byte	27
00000ab0 06             9390 	.byte	6
00000ab1 000502         9391 	.byte	0,5,2
00000ab4 00000000*      9392 	.word	.LDWlin72
00000ab8 02             9393 	.byte	2
00000ab9 00             9394 	.byte	0
00000aba 02             9395 	.byte	2
00000abb 02             9396 	.byte	2
00000abc 000101         9397 	.byte	0,1,1
                        9398 	.section	.debug_info
                        9399 .LDW_4c97110:
00001d8d 0f             9400 	.byte	15
00001d8e 75635a6f6d53   9401 	.strz	"ucZomSlot"
00001d94 6c6f7400 
00001d98 b703           9402 	.byte	183,3
00001d9a 0a             9403 	.byte	10
00001d9b 01             9404 	.byte	1
00001d9c 00000000*      9405 	.word	.LDW_304ee70
00001da0 00             9406 	.byte	0
00001da1 0156           9407 	.byte	1,86
                        9408 
                        9409 .LDW_4c84290:
00001da3 1d             9410 	.byte	29
00001da4 00000000*      9411 	.word	.LDW07
00001da8 00000000*      9412 	.word	.LDW17
                        9413 
00001dac 00             9414 	.byte	0
                        9415 
00001dad 00             9416 	.byte	0
                        9417 
                        9418 .LDW_4c85728:
00001dae 13             9419 	.byte	19
00001daf 505554756352   9420 	.strz	"PUTucReifendruckPD"
00001db5 656966656e64 
00001dbb 7275636b5044 
00001dc1 00 
00001dc2 bb03           9421 	.byte	187,3
00001dc4 06             9422 	.byte	6
00001dc5 01             9423 	.byte	1
00001dc6 00000000*      9424 	.word	_PUTucReifendruckPD
00001dca 00000000*      9425 	.word	___ghs_eofn_PUTucReifendruckPD
00001dce 0153           9426 	.byte	1,83
00001dd0 828080800a     9427 	.byte	130,128,128,128,10

                                                                      Page 168
                                                              C:\Users\nhuliyap\AppData\Local\Temp\gh_00006641.s
00001dd5 08             9428 	.byte	8
00001dd6 03             9429 	.byte	3
00001dd7 08             9430 	.byte	8
00001dd8 00             9431 	.byte	0
00001dd9 00             9432 	.byte	0
00001dda 00             9433 	.byte	0
00001ddb 01             9434 	.byte	1
00001ddc 01             9435 	.byte	1
00001ddd 00             9436 	.byte	0
00001dde 01             9437 	.byte	1
                        9438 
                        9439 	.section	.debug_frame
                        9440 .LDW_4d0d980:
0000037c 00000000*      9441 	.word	.LDW_unq_40-.LDW_unq_3f
                        9442 .LDW_unq_3f:
00000380 00000000*      9443 	.word	.LDW_4c2b7e0
00000384 00000000*      9444 	.word	_PUTucReifendruckPD
00000388 00000000*      9445 	.word	___ghs_eofn_PUTucReifendruckPD-_PUTucReifendruckPD
0000038c 48             9446 	.byte	72
0000038d 9f             9447 	.byte	159
0000038e 00             9448 	.byte	0
0000038f 40             9449 	.byte	64
00000390 9d             9450 	.byte	157
00000391 04             9451 	.byte	4
00000392 01             9452 	.byte	1
00000393 00000000*      9453 	.word	.LDW37
00000397 00             9454 	.byte	0
                        9455 .LDW_unq_40:
                        9456 	.section	.debug_line
00000abf 000502         9457 	.byte	0,5,2
00000ac2 00000000*      9458 	.word	_PUTucReifendruckPD
00000ac6 03             9459 	.byte	3
00000ac7 bc03           9460 	.byte	188,3
00000ac9 02             9461 	.byte	2
00000aca 00             9462 	.byte	0
00000acb 01             9463 	.byte	1
00000acc 06             9464 	.byte	6
00000acd 4c             9465 	.byte	76
00000ace 1b             9466 	.byte	27
00000acf 000502         9467 	.byte	0,5,2
00000ad2 00000000*      9468 	.word	.LDWlin73
00000ad6 0c             9469 	.byte	12
00000ad7 000502         9470 	.byte	0,5,2
00000ada 00000000*      9471 	.word	.LDWlin74
00000ade 03             9472 	.byte	3
00000adf 0e             9473 	.byte	14
00000ae0 02             9474 	.byte	2
00000ae1 00             9475 	.byte	0
00000ae2 01             9476 	.byte	1
00000ae3 000502         9477 	.byte	0,5,2
00000ae6 00000000*      9478 	.word	.LDWlin75
00000aea 0c             9479 	.byte	12
00000aeb 000502         9480 	.byte	0,5,2
00000aee 00000000*      9481 	.word	.LDWlin76
00000af2 03             9482 	.byte	3
00000af3 72             9483 	.byte	114
00000af4 02             9484 	.byte	2
00000af5 00             9485 	.byte	0
00000af6 01             9486 	.byte	1
00000af7 000502         9487 	.byte	0,5,2
00000afa 00000000*      9488 	.word	.LDWlin77

                                                                      Page 169
                                                              C:\Users\nhuliyap\AppData\Local\Temp\gh_00006641.s
00000afe 0c             9489 	.byte	12
00000aff 000502         9490 	.byte	0,5,2
00000b02 00000000*      9491 	.word	.LDWlin78
00000b06 0c             9492 	.byte	12
00000b07 000502         9493 	.byte	0,5,2
00000b0a 00000000*      9494 	.word	.LDWlin79
00000b0e 0c             9495 	.byte	12
00000b0f 000502         9496 	.byte	0,5,2
00000b12 00000000*      9497 	.word	.LDWlin80
00000b16 0c             9498 	.byte	12
00000b17 000502         9499 	.byte	0,5,2
00000b1a 00000000*      9500 	.word	.LDWlin81
00000b1e 0c             9501 	.byte	12
00000b1f 03             9502 	.byte	3
00000b20 05             9503 	.byte	5
00000b21 02             9504 	.byte	2
00000b22 00             9505 	.byte	0
00000b23 01             9506 	.byte	1
00000b24 0b             9507 	.byte	11
00000b25 0b             9508 	.byte	11
00000b26 0b             9509 	.byte	11
00000b27 02             9510 	.byte	2
00000b28 04             9511 	.byte	4
00000b29 000101         9512 	.byte	0,1,1
                        9513 	.section	.debug_info
                        9514 .LDW_4c973d0:
00001ddf 0f             9515 	.byte	15
00001de0 7563496e4461   9516 	.strz	"ucInData"
00001de6 746100 
00001de9 bc03           9517 	.byte	188,3
00001deb 0a             9518 	.byte	10
00001dec 01             9519 	.byte	1
00001ded 00000000*      9520 	.word	.LDW_304ee70
00001df1 00             9521 	.byte	0
00001df2 016d           9522 	.byte	1,109
                        9523 
                        9524 .LDW_4c96a30:
00001df4 0f             9525 	.byte	15
00001df5 75635a6f6d53   9526 	.strz	"ucZomSlot"
00001dfb 6c6f7400 
00001dff bd03           9527 	.byte	189,3
00001e01 0a             9528 	.byte	10
00001e02 01             9529 	.byte	1
00001e03 00000000*      9530 	.word	.LDW_304ee70
00001e07 00             9531 	.byte	0
00001e08 0157           9532 	.byte	1,87
                        9533 
                        9534 .LDW_4c84350:
00001e0a 1d             9535 	.byte	29
00001e0b 00000000*      9536 	.word	.LDW27
00001e0f 00000000*      9537 	.word	.LDW37
                        9538 
                        9539 .LDW_4c971c0:
00001e13 05             9540 	.byte	5
00001e14 756357686565   9541 	.strz	"ucWheelPosition"
00001e1a 6c506f736974 
00001e20 696f6e00 
00001e24 be03           9542 	.byte	190,3
00001e26 0a             9543 	.byte	10
00001e27 01             9544 	.byte	1
00001e28 00000000*      9545 	.word	.LDW_304ee70

                                                                      Page 170
                                                              C:\Users\nhuliyap\AppData\Local\Temp\gh_00006641.s
00001e2c 00             9546 	.byte	0
00001e2d 00             9547 	.byte	0
                        9548 
00001e2e 00             9549 	.byte	0
                        9550 
00001e2f 00             9551 	.byte	0
                        9552 
                        9553 .LDW_4c84ed8:
00001e30 14             9554 	.byte	20
00001e31 474554736354   9555 	.strz	"GETscTemperaturPD"
00001e37 656d70657261 
00001e3d 747572504400 
00001e43 d803           9556 	.byte	216,3
00001e45 07             9557 	.byte	7
00001e46 01             9558 	.byte	1
00001e47 00000000*      9559 	.word	.LDW_304dfd0
00001e4b 00000000*      9560 	.word	_GETscTemperaturPD
00001e4f 00000000*      9561 	.word	___ghs_eofn_GETscTemperaturPD
00001e53 0153           9562 	.byte	1,83
00001e55 02             9563 	.byte	2
00001e56 00             9564 	.byte	0
00001e57 02             9565 	.byte	2
00001e58 00             9566 	.byte	0
00001e59 00             9567 	.byte	0
00001e5a 00             9568 	.byte	0
00001e5b 00             9569 	.byte	0
00001e5c 01             9570 	.byte	1
00001e5d 01             9571 	.byte	1
00001e5e 00             9572 	.byte	0
00001e5f 01             9573 	.byte	1
                        9574 
                        9575 	.section	.debug_frame
                        9576 .LDW_4d0cfc0:
00000398 00000000*      9577 	.word	.LDW_unq_42-.LDW_unq_41
                        9578 .LDW_unq_41:
0000039c 00000000*      9579 	.word	.LDW_4c2b7e0
000003a0 00000000*      9580 	.word	_GETscTemperaturPD
000003a4 00000000*      9581 	.word	___ghs_eofn_GETscTemperaturPD-_GETscTemperaturPD
000003a8 01             9582 	.byte	1
000003a9 00000000*      9583 	.word	.LDW57
000003ad 00             9584 	.byte	0
000003ae 00             9585 	.byte	0
000003af 00             9586 	.byte	0
                        9587 .LDW_unq_42:
                        9588 	.section	.debug_line
00000b2c 000502         9589 	.byte	0,5,2
00000b2f 00000000*      9590 	.word	_GETscTemperaturPD
00000b33 03             9591 	.byte	3
00000b34 d803           9592 	.byte	216,3
00000b36 02             9593 	.byte	2
00000b37 00             9594 	.byte	0
00000b38 01             9595 	.byte	1
00000b39 06             9596 	.byte	6
00000b3a 1b             9597 	.byte	27
00000b3b 06             9598 	.byte	6
00000b3c 000502         9599 	.byte	0,5,2
00000b3f 00000000*      9600 	.word	.LDWlin82
00000b43 02             9601 	.byte	2
00000b44 00             9602 	.byte	0
00000b45 02             9603 	.byte	2
00000b46 02             9604 	.byte	2

                                                                      Page 171
                                                              C:\Users\nhuliyap\AppData\Local\Temp\gh_00006641.s
00000b47 000101         9605 	.byte	0,1,1
                        9606 	.section	.debug_info
                        9607 .LDW_4c96cf0:
00001e60 0f             9608 	.byte	15
00001e61 75635a6f6d53   9609 	.strz	"ucZomSlot"
00001e67 6c6f7400 
00001e6b d903           9610 	.byte	217,3
00001e6d 0a             9611 	.byte	10
00001e6e 01             9612 	.byte	1
00001e6f 00000000*      9613 	.word	.LDW_304ee70
00001e73 00             9614 	.byte	0
00001e74 0156           9615 	.byte	1,86
                        9616 
                        9617 .LDW_4c840e0:
00001e76 1d             9618 	.byte	29
00001e77 00000000*      9619 	.word	.LDW47
00001e7b 00000000*      9620 	.word	.LDW57
                        9621 
00001e7f 00             9622 	.byte	0
                        9623 
00001e80 00             9624 	.byte	0
                        9625 
                        9626 .LDW_4c85430:
00001e81 13             9627 	.byte	19
00001e82 505554736354   9628 	.strz	"PUTscTemperaturPD"
00001e88 656d70657261 
00001e8e 747572504400 
00001e94 dd03           9629 	.byte	221,3
00001e96 06             9630 	.byte	6
00001e97 01             9631 	.byte	1
00001e98 00000000*      9632 	.word	_PUTscTemperaturPD
00001e9c 00000000*      9633 	.word	___ghs_eofn_PUTscTemperaturPD
00001ea0 0153           9634 	.byte	1,83
00001ea2 828080800a     9635 	.byte	130,128,128,128,10
00001ea7 08             9636 	.byte	8
00001ea8 03             9637 	.byte	3
00001ea9 08             9638 	.byte	8
00001eaa 00             9639 	.byte	0
00001eab 00             9640 	.byte	0
00001eac 00             9641 	.byte	0
00001ead 01             9642 	.byte	1
00001eae 01             9643 	.byte	1
00001eaf 00             9644 	.byte	0
00001eb0 01             9645 	.byte	1
                        9646 
                        9647 	.section	.debug_frame
                        9648 .LDW_4d0d5c0:
000003b0 00000000*      9649 	.word	.LDW_unq_44-.LDW_unq_43
                        9650 .LDW_unq_43:
000003b4 00000000*      9651 	.word	.LDW_4c2b7e0
000003b8 00000000*      9652 	.word	_PUTscTemperaturPD
000003bc 00000000*      9653 	.word	___ghs_eofn_PUTscTemperaturPD-_PUTscTemperaturPD
000003c0 48             9654 	.byte	72
000003c1 9f             9655 	.byte	159
000003c2 00             9656 	.byte	0
000003c3 40             9657 	.byte	64
000003c4 9d             9658 	.byte	157
000003c5 04             9659 	.byte	4
000003c6 01             9660 	.byte	1
000003c7 00000000*      9661 	.word	.LDW77
000003cb 00             9662 	.byte	0

                                                                      Page 172
                                                              C:\Users\nhuliyap\AppData\Local\Temp\gh_00006641.s
                        9663 .LDW_unq_44:
                        9664 	.section	.debug_line
00000b4a 000502         9665 	.byte	0,5,2
00000b4d 00000000*      9666 	.word	_PUTscTemperaturPD
00000b51 03             9667 	.byte	3
00000b52 de03           9668 	.byte	222,3
00000b54 02             9669 	.byte	2
00000b55 00             9670 	.byte	0
00000b56 01             9671 	.byte	1
00000b57 06             9672 	.byte	6
00000b58 44             9673 	.byte	68
00000b59 1b             9674 	.byte	27
00000b5a 000502         9675 	.byte	0,5,2
00000b5d 00000000*      9676 	.word	.LDWlin83
00000b61 0c             9677 	.byte	12
00000b62 000502         9678 	.byte	0,5,2
00000b65 00000000*      9679 	.word	.LDWlin84
00000b69 03             9680 	.byte	3
00000b6a 0e             9681 	.byte	14
00000b6b 02             9682 	.byte	2
00000b6c 00             9683 	.byte	0
00000b6d 01             9684 	.byte	1
00000b6e 000502         9685 	.byte	0,5,2
00000b71 00000000*      9686 	.word	.LDWlin85
00000b75 0c             9687 	.byte	12
00000b76 000502         9688 	.byte	0,5,2
00000b79 00000000*      9689 	.word	.LDWlin86
00000b7d 03             9690 	.byte	3
00000b7e 72             9691 	.byte	114
00000b7f 02             9692 	.byte	2
00000b80 00             9693 	.byte	0
00000b81 01             9694 	.byte	1
00000b82 000502         9695 	.byte	0,5,2
00000b85 00000000*      9696 	.word	.LDWlin87
00000b89 0c             9697 	.byte	12
00000b8a 000502         9698 	.byte	0,5,2
00000b8d 00000000*      9699 	.word	.LDWlin88
00000b91 0c             9700 	.byte	12
00000b92 000502         9701 	.byte	0,5,2
00000b95 00000000*      9702 	.word	.LDWlin89
00000b99 0c             9703 	.byte	12
00000b9a 000502         9704 	.byte	0,5,2
00000b9d 00000000*      9705 	.word	.LDWlin90
00000ba1 0c             9706 	.byte	12
00000ba2 000502         9707 	.byte	0,5,2
00000ba5 00000000*      9708 	.word	.LDWlin91
00000ba9 0c             9709 	.byte	12
00000baa 03             9710 	.byte	3
00000bab 05             9711 	.byte	5
00000bac 02             9712 	.byte	2
00000bad 00             9713 	.byte	0
00000bae 01             9714 	.byte	1
00000baf 0b             9715 	.byte	11
00000bb0 0b             9716 	.byte	11
00000bb1 0b             9717 	.byte	11
00000bb2 02             9718 	.byte	2
00000bb3 04             9719 	.byte	4
00000bb4 000101         9720 	.byte	0,1,1
                        9721 	.section	.debug_info
                        9722 .LDW_4c96d48:
00001eb1 0f             9723 	.byte	15

                                                                      Page 173
                                                              C:\Users\nhuliyap\AppData\Local\Temp\gh_00006641.s
00001eb2 7363496e4461   9724 	.strz	"scInData"
00001eb8 746100 
00001ebb de03           9725 	.byte	222,3
00001ebd 0a             9726 	.byte	10
00001ebe 01             9727 	.byte	1
00001ebf 00000000*      9728 	.word	.LDW_304dfd0
00001ec3 00             9729 	.byte	0
00001ec4 016d           9730 	.byte	1,109
                        9731 
                        9732 .LDW_4c96be8:
00001ec6 0f             9733 	.byte	15
00001ec7 75635a6f6d53   9734 	.strz	"ucZomSlot"
00001ecd 6c6f7400 
00001ed1 df03           9735 	.byte	223,3
00001ed3 0a             9736 	.byte	10
00001ed4 01             9737 	.byte	1
00001ed5 00000000*      9738 	.word	.LDW_304ee70
00001ed9 00             9739 	.byte	0
00001eda 0157           9740 	.byte	1,87
                        9741 
                        9742 .LDW_4c84170:
00001edc 1d             9743 	.byte	29
00001edd 00000000*      9744 	.word	.LDW67
00001ee1 00000000*      9745 	.word	.LDW77
                        9746 
                        9747 .LDW_4c97320:
00001ee5 05             9748 	.byte	5
00001ee6 756357686565   9749 	.strz	"ucWheelPosition"
00001eec 6c506f736974 
00001ef2 696f6e00 
00001ef6 e003           9750 	.byte	224,3
00001ef8 0a             9751 	.byte	10
00001ef9 01             9752 	.byte	1
00001efa 00000000*      9753 	.word	.LDW_304ee70
00001efe 00             9754 	.byte	0
00001eff 00             9755 	.byte	0
                        9756 
00001f00 00             9757 	.byte	0
                        9758 
00001f01 00             9759 	.byte	0
                        9760 
                        9761 .LDW_4c848e8:
00001f02 14             9762 	.byte	20
00001f03 474554756352   9763 	.strz	"GETucRestlebensdauerPD"
00001f09 6573746c6562 
00001f0f 656e73646175 
00001f15 6572504400 
00001f1a fa03           9764 	.byte	250,3
00001f1c 07             9765 	.byte	7
00001f1d 01             9766 	.byte	1
00001f1e 00000000*      9767 	.word	.LDW_304ee70
00001f22 00000000*      9768 	.word	_GETucRestlebensdauerPD
00001f26 00000000*      9769 	.word	___ghs_eofn_GETucRestlebensdauerPD
00001f2a 0153           9770 	.byte	1,83
00001f2c 02             9771 	.byte	2
00001f2d 00             9772 	.byte	0
00001f2e 02             9773 	.byte	2
00001f2f 00             9774 	.byte	0
00001f30 00             9775 	.byte	0
00001f31 00             9776 	.byte	0
00001f32 00             9777 	.byte	0

                                                                      Page 174
                                                              C:\Users\nhuliyap\AppData\Local\Temp\gh_00006641.s
00001f33 01             9778 	.byte	1
00001f34 01             9779 	.byte	1
00001f35 00             9780 	.byte	0
00001f36 01             9781 	.byte	1
                        9782 
                        9783 	.section	.debug_frame
                        9784 .LDW_4d0d4c0:
000003cc 00000000*      9785 	.word	.LDW_unq_46-.LDW_unq_45
                        9786 .LDW_unq_45:
000003d0 00000000*      9787 	.word	.LDW_4c2b7e0
000003d4 00000000*      9788 	.word	_GETucRestlebensdauerPD
000003d8 00000000*      9789 	.word	___ghs_eofn_GETucRestlebensdauerPD-_GETucRestlebensdauerPD
000003dc 01             9790 	.byte	1
000003dd 00000000*      9791 	.word	.LDW97
000003e1 00             9792 	.byte	0
000003e2 00             9793 	.byte	0
000003e3 00             9794 	.byte	0
                        9795 .LDW_unq_46:
                        9796 	.section	.debug_line
00000bb7 000502         9797 	.byte	0,5,2
00000bba 00000000*      9798 	.word	_GETucRestlebensdauerPD
00000bbe 03             9799 	.byte	3
00000bbf fa03           9800 	.byte	250,3
00000bc1 02             9801 	.byte	2
00000bc2 00             9802 	.byte	0
00000bc3 01             9803 	.byte	1
00000bc4 06             9804 	.byte	6
00000bc5 1b             9805 	.byte	27
00000bc6 06             9806 	.byte	6
00000bc7 000502         9807 	.byte	0,5,2
00000bca 00000000*      9808 	.word	.LDWlin92
00000bce 02             9809 	.byte	2
00000bcf 00             9810 	.byte	0
00000bd0 02             9811 	.byte	2
00000bd1 02             9812 	.byte	2
00000bd2 000101         9813 	.byte	0,1,1
                        9814 	.section	.debug_info
                        9815 .LDW_4c96b38:
00001f37 0f             9816 	.byte	15
00001f38 75635a6f6d53   9817 	.strz	"ucZomSlot"
00001f3e 6c6f7400 
00001f42 fb03           9818 	.byte	251,3
00001f44 0a             9819 	.byte	10
00001f45 01             9820 	.byte	1
00001f46 00000000*      9821 	.word	.LDW_304ee70
00001f4a 00             9822 	.byte	0
00001f4b 0156           9823 	.byte	1,86
                        9824 
                        9825 .LDW_4c97e10:
00001f4d 1d             9826 	.byte	29
00001f4e 00000000*      9827 	.word	.LDW87
00001f52 00000000*      9828 	.word	.LDW97
                        9829 
00001f56 00             9830 	.byte	0
                        9831 
00001f57 00             9832 	.byte	0
                        9833 
                        9834 .LDW_4c84980:
00001f58 13             9835 	.byte	19
00001f59 505554756352   9836 	.strz	"PUTucRestlebensdauerPD"
00001f5f 6573746c6562 

                                                                      Page 175
                                                              C:\Users\nhuliyap\AppData\Local\Temp\gh_00006641.s
00001f65 656e73646175 
00001f6b 6572504400 
00001f70 ff03           9837 	.byte	255,3
00001f72 06             9838 	.byte	6
00001f73 01             9839 	.byte	1
00001f74 00000000*      9840 	.word	_PUTucRestlebensdauerPD
00001f78 00000000*      9841 	.word	___ghs_eofn_PUTucRestlebensdauerPD
00001f7c 0153           9842 	.byte	1,83
00001f7e 02             9843 	.byte	2
00001f7f 00             9844 	.byte	0
00001f80 02             9845 	.byte	2
00001f81 00             9846 	.byte	0
00001f82 00             9847 	.byte	0
00001f83 00             9848 	.byte	0
00001f84 00             9849 	.byte	0
00001f85 01             9850 	.byte	1
00001f86 01             9851 	.byte	1
00001f87 00             9852 	.byte	0
00001f88 01             9853 	.byte	1
                        9854 
                        9855 	.section	.debug_frame
                        9856 .LDW_4d0d280:
000003e4 00000000*      9857 	.word	.LDW_unq_48-.LDW_unq_47
                        9858 .LDW_unq_47:
000003e8 00000000*      9859 	.word	.LDW_4c2b7e0
000003ec 00000000*      9860 	.word	_PUTucRestlebensdauerPD
000003f0 00000000*      9861 	.word	___ghs_eofn_PUTucRestlebensdauerPD-_PUTucRestlebensdauerPD
000003f4 01             9862 	.byte	1
000003f5 00000000*      9863 	.word	.LDW18
000003f9 00             9864 	.byte	0
000003fa 00             9865 	.byte	0
000003fb 00             9866 	.byte	0
                        9867 .LDW_unq_48:
                        9868 	.section	.debug_line
00000bd5 000502         9869 	.byte	0,5,2
00000bd8 00000000*      9870 	.word	_PUTucRestlebensdauerPD
00000bdc 03             9871 	.byte	3
00000bdd 8004           9872 	.byte	128,4
00000bdf 02             9873 	.byte	2
00000be0 00             9874 	.byte	0
00000be1 01             9875 	.byte	1
00000be2 06             9876 	.byte	6
00000be3 1b             9877 	.byte	27
00000be4 000502         9878 	.byte	0,5,2
00000be7 00000000*      9879 	.word	.LDWlin93
00000beb 0b             9880 	.byte	11
00000bec 02             9881 	.byte	2
00000bed 02             9882 	.byte	2
00000bee 000101         9883 	.byte	0,1,1
                        9884 	.section	.debug_info
                        9885 .LDW_4c96a88:
00001f89 0f             9886 	.byte	15
00001f8a 7563496e4461   9887 	.strz	"ucInData"
00001f90 746100 
00001f93 8004           9888 	.byte	128,4
00001f95 0a             9889 	.byte	10
00001f96 01             9890 	.byte	1
00001f97 00000000*      9891 	.word	.LDW_304ee70
00001f9b 00             9892 	.byte	0
00001f9c 0156           9893 	.byte	1,86
                        9894 

                                                                      Page 176
                                                              C:\Users\nhuliyap\AppData\Local\Temp\gh_00006641.s
                        9895 .LDW_4c97218:
00001f9e 0f             9896 	.byte	15
00001f9f 75635a6f6d53   9897 	.strz	"ucZomSlot"
00001fa5 6c6f7400 
00001fa9 8104           9898 	.byte	129,4
00001fab 0a             9899 	.byte	10
00001fac 01             9900 	.byte	1
00001fad 00000000*      9901 	.word	.LDW_304ee70
00001fb1 00             9902 	.byte	0
00001fb2 0157           9903 	.byte	1,87
                        9904 
                        9905 .LDW_4c97cf0:
00001fb4 1d             9906 	.byte	29
00001fb5 00000000*      9907 	.word	.LDW08
00001fb9 00000000*      9908 	.word	.LDW18
                        9909 
00001fbd 00             9910 	.byte	0
                        9911 
00001fbe 00             9912 	.byte	0
                        9913 
                        9914 .LDW_4c854c8:
00001fbf 13             9915 	.byte	19
00001fc0 505554756352   9916 	.strz	"PUTucRSSIsumPD"
00001fc6 53534973756d 
00001fcc 504400 
00001fcf 8504           9917 	.byte	133,4
00001fd1 06             9918 	.byte	6
00001fd2 01             9919 	.byte	1
00001fd3 00000000*      9920 	.word	_PUTucRSSIsumPD
00001fd7 00000000*      9921 	.word	___ghs_eofn_PUTucRSSIsumPD
00001fdb 0153           9922 	.byte	1,83
00001fdd 02             9923 	.byte	2
00001fde 00             9924 	.byte	0
00001fdf 02             9925 	.byte	2
00001fe0 00             9926 	.byte	0
00001fe1 00             9927 	.byte	0
00001fe2 00             9928 	.byte	0
00001fe3 00             9929 	.byte	0
00001fe4 01             9930 	.byte	1
00001fe5 01             9931 	.byte	1
00001fe6 00             9932 	.byte	0
00001fe7 01             9933 	.byte	1
                        9934 
                        9935 	.section	.debug_frame
                        9936 .LDW_4d0d340:
000003fc 00000000*      9937 	.word	.LDW_unq_4a-.LDW_unq_49
                        9938 .LDW_unq_49:
00000400 00000000*      9939 	.word	.LDW_4c2b7e0
00000404 00000000*      9940 	.word	_PUTucRSSIsumPD
00000408 00000000*      9941 	.word	___ghs_eofn_PUTucRSSIsumPD-_PUTucRSSIsumPD
0000040c 01             9942 	.byte	1
0000040d 00000000*      9943 	.word	.LDW38
00000411 00             9944 	.byte	0
00000412 00             9945 	.byte	0
00000413 00             9946 	.byte	0
                        9947 .LDW_unq_4a:
                        9948 	.section	.debug_line
00000bf1 000502         9949 	.byte	0,5,2
00000bf4 00000000*      9950 	.word	_PUTucRSSIsumPD
00000bf8 03             9951 	.byte	3
00000bf9 8604           9952 	.byte	134,4

                                                                      Page 177
                                                              C:\Users\nhuliyap\AppData\Local\Temp\gh_00006641.s
00000bfb 02             9953 	.byte	2
00000bfc 00             9954 	.byte	0
00000bfd 01             9955 	.byte	1
00000bfe 06             9956 	.byte	6
00000bff 1b             9957 	.byte	27
00000c00 000502         9958 	.byte	0,5,2
00000c03 00000000*      9959 	.word	.LDWlin94
00000c07 0b             9960 	.byte	11
00000c08 02             9961 	.byte	2
00000c09 02             9962 	.byte	2
00000c0a 000101         9963 	.byte	0,1,1
                        9964 	.section	.debug_info
                        9965 .LDW_4c97270:
00001fe8 0f             9966 	.byte	15
00001fe9 7563496e4461   9967 	.strz	"ucInData"
00001fef 746100 
00001ff2 8604           9968 	.byte	134,4
00001ff4 0a             9969 	.byte	10
00001ff5 01             9970 	.byte	1
00001ff6 00000000*      9971 	.word	.LDW_304ee70
00001ffa 00             9972 	.byte	0
00001ffb 0156           9973 	.byte	1,86
                        9974 
                        9975 .LDW_4c97008:
00001ffd 0f             9976 	.byte	15
00001ffe 75635a6f6d53   9977 	.strz	"ucZomSlot"
00002004 6c6f7400 
00002008 8704           9978 	.byte	135,4
0000200a 0a             9979 	.byte	10
0000200b 01             9980 	.byte	1
0000200c 00000000*      9981 	.word	.LDW_304ee70
00002010 00             9982 	.byte	0
00002011 0157           9983 	.byte	1,87
                        9984 
                        9985 .LDW_4c97ea0:
00002013 1d             9986 	.byte	29
00002014 00000000*      9987 	.word	.LDW28
00002018 00000000*      9988 	.word	.LDW38
                        9989 
0000201c 00             9990 	.byte	0
                        9991 
0000201d 00             9992 	.byte	0
                        9993 
                        9994 .LDW_4c84a18:
0000201e 13             9995 	.byte	19
0000201f 505554756354   9996 	.strz	"PUTucTelTypePD"
00002025 656c54797065 
0000202b 504400 
0000202e 8b04           9997 	.byte	139,4
00002030 06             9998 	.byte	6
00002031 01             9999 	.byte	1
00002032 00000000*     10000 	.word	_PUTucTelTypePD
00002036 00000000*     10001 	.word	___ghs_eofn_PUTucTelTypePD
0000203a 0153          10002 	.byte	1,83
0000203c 02            10003 	.byte	2
0000203d 00            10004 	.byte	0
0000203e 02            10005 	.byte	2
0000203f 00            10006 	.byte	0
00002040 00            10007 	.byte	0
00002041 00            10008 	.byte	0
00002042 00            10009 	.byte	0

                                                                      Page 178
                                                              C:\Users\nhuliyap\AppData\Local\Temp\gh_00006641.s
00002043 01            10010 	.byte	1
00002044 01            10011 	.byte	1
00002045 00            10012 	.byte	0
00002046 01            10013 	.byte	1
                       10014 
                       10015 	.section	.debug_frame
                       10016 .LDW_4d0d380:
00000414 00000000*     10017 	.word	.LDW_unq_4c-.LDW_unq_4b
                       10018 .LDW_unq_4b:
00000418 00000000*     10019 	.word	.LDW_4c2b7e0
0000041c 00000000*     10020 	.word	_PUTucTelTypePD
00000420 00000000*     10021 	.word	___ghs_eofn_PUTucTelTypePD-_PUTucTelTypePD
00000424 01            10022 	.byte	1
00000425 00000000*     10023 	.word	.LDW58
00000429 00            10024 	.byte	0
0000042a 00            10025 	.byte	0
0000042b 00            10026 	.byte	0
                       10027 .LDW_unq_4c:
                       10028 	.section	.debug_line
00000c0d 000502        10029 	.byte	0,5,2
00000c10 00000000*     10030 	.word	_PUTucTelTypePD
00000c14 03            10031 	.byte	3
00000c15 8c04          10032 	.byte	140,4
00000c17 02            10033 	.byte	2
00000c18 00            10034 	.byte	0
00000c19 01            10035 	.byte	1
00000c1a 06            10036 	.byte	6
00000c1b 1b            10037 	.byte	27
00000c1c 000502        10038 	.byte	0,5,2
00000c1f 00000000*     10039 	.word	.LDWlin95
00000c23 0b            10040 	.byte	11
00000c24 02            10041 	.byte	2
00000c25 02            10042 	.byte	2
00000c26 000101        10043 	.byte	0,1,1
                       10044 	.section	.debug_info
                       10045 .LDW_4c970b8:
00002047 0f            10046 	.byte	15
00002048 7563496e4461  10047 	.strz	"ucInData"
0000204e 746100 
00002051 8c04          10048 	.byte	140,4
00002053 0a            10049 	.byte	10
00002054 01            10050 	.byte	1
00002055 00000000*     10051 	.word	.LDW_304ee70
00002059 00            10052 	.byte	0
0000205a 0156          10053 	.byte	1,86
                       10054 
                       10055 .LDW_4c96f00:
0000205c 0f            10056 	.byte	15
0000205d 75635a6f6d53  10057 	.strz	"ucZomSlot"
00002063 6c6f7400 
00002067 8d04          10058 	.byte	141,4
00002069 0a            10059 	.byte	10
0000206a 01            10060 	.byte	1
0000206b 00000000*     10061 	.word	.LDW_304ee70
0000206f 00            10062 	.byte	0
00002070 0157          10063 	.byte	1,87
                       10064 
                       10065 .LDW_4c97cc0:
00002072 1d            10066 	.byte	29
00002073 00000000*     10067 	.word	.LDW48
00002077 00000000*     10068 	.word	.LDW58

                                                                      Page 179
                                                              C:\Users\nhuliyap\AppData\Local\Temp\gh_00006641.s
                       10069 
0000207b 00            10070 	.byte	0
                       10071 
0000207c 00            10072 	.byte	0
                       10073 
                       10074 .LDW_4c84d10:
0000207d 14            10075 	.byte	20
0000207e 474554756354  10076 	.strz	"GETucTransModePD"
00002084 72616e734d6f 
0000208a 6465504400 
0000208f 9104          10077 	.byte	145,4
00002091 07            10078 	.byte	7
00002092 01            10079 	.byte	1
00002093 00000000*     10080 	.word	.LDW_304ee70
00002097 00000000*     10081 	.word	_GETucTransModePD
0000209b 00000000*     10082 	.word	___ghs_eofn_GETucTransModePD
0000209f 0153          10083 	.byte	1,83
000020a1 02            10084 	.byte	2
000020a2 00            10085 	.byte	0
000020a3 02            10086 	.byte	2
000020a4 00            10087 	.byte	0
000020a5 00            10088 	.byte	0
000020a6 00            10089 	.byte	0
000020a7 00            10090 	.byte	0
000020a8 01            10091 	.byte	1
000020a9 01            10092 	.byte	1
000020aa 00            10093 	.byte	0
000020ab 01            10094 	.byte	1
                       10095 
                       10096 	.section	.debug_frame
                       10097 .LDW_4d0d640:
0000042c 00000000*     10098 	.word	.LDW_unq_4e-.LDW_unq_4d
                       10099 .LDW_unq_4d:
00000430 00000000*     10100 	.word	.LDW_4c2b7e0
00000434 00000000*     10101 	.word	_GETucTransModePD
00000438 00000000*     10102 	.word	___ghs_eofn_GETucTransModePD-_GETucTransModePD
0000043c 01            10103 	.byte	1
0000043d 00000000*     10104 	.word	.LDW78
00000441 00            10105 	.byte	0
00000442 00            10106 	.byte	0
00000443 00            10107 	.byte	0
                       10108 .LDW_unq_4e:
                       10109 	.section	.debug_line
00000c29 000502        10110 	.byte	0,5,2
00000c2c 00000000*     10111 	.word	_GETucTransModePD
00000c30 03            10112 	.byte	3
00000c31 9104          10113 	.byte	145,4
00000c33 02            10114 	.byte	2
00000c34 00            10115 	.byte	0
00000c35 01            10116 	.byte	1
00000c36 06            10117 	.byte	6
00000c37 1b            10118 	.byte	27
00000c38 06            10119 	.byte	6
00000c39 000502        10120 	.byte	0,5,2
00000c3c 00000000*     10121 	.word	.LDWlin96
00000c40 02            10122 	.byte	2
00000c41 00            10123 	.byte	0
00000c42 02            10124 	.byte	2
00000c43 02            10125 	.byte	2
00000c44 000101        10126 	.byte	0,1,1
                       10127 	.section	.debug_info

                                                                      Page 180
                                                              C:\Users\nhuliyap\AppData\Local\Temp\gh_00006641.s
                       10128 .LDW_4c96da0:
000020ac 0f            10129 	.byte	15
000020ad 75635a6f6d53  10130 	.strz	"ucZomSlot"
000020b3 6c6f7400 
000020b7 9204          10131 	.byte	146,4
000020b9 0a            10132 	.byte	10
000020ba 01            10133 	.byte	1
000020bb 00000000*     10134 	.word	.LDW_304ee70
000020bf 00            10135 	.byte	0
000020c0 0156          10136 	.byte	1,86
                       10137 
                       10138 .LDW_4c97e40:
000020c2 1d            10139 	.byte	29
000020c3 00000000*     10140 	.word	.LDW68
000020c7 00000000*     10141 	.word	.LDW78
                       10142 
000020cb 00            10143 	.byte	0
                       10144 
000020cc 00            10145 	.byte	0
                       10146 
                       10147 .LDW_4c84da8:
000020cd 13            10148 	.byte	19
000020ce 505554756354  10149 	.strz	"PUTucTransModePD"
000020d4 72616e734d6f 
000020da 6465504400 
000020df 9604          10150 	.byte	150,4
000020e1 06            10151 	.byte	6
000020e2 01            10152 	.byte	1
000020e3 00000000*     10153 	.word	_PUTucTransModePD
000020e7 00000000*     10154 	.word	___ghs_eofn_PUTucTransModePD
000020eb 0153          10155 	.byte	1,83
000020ed 02            10156 	.byte	2
000020ee 00            10157 	.byte	0
000020ef 02            10158 	.byte	2
000020f0 00            10159 	.byte	0
000020f1 00            10160 	.byte	0
000020f2 00            10161 	.byte	0
000020f3 00            10162 	.byte	0
000020f4 01            10163 	.byte	1
000020f5 01            10164 	.byte	1
000020f6 00            10165 	.byte	0
000020f7 01            10166 	.byte	1
                       10167 
                       10168 	.section	.debug_frame
                       10169 .LDW_4d0d0c0:
00000444 00000000*     10170 	.word	.LDW_unq_50-.LDW_unq_4f
                       10171 .LDW_unq_4f:
00000448 00000000*     10172 	.word	.LDW_4c2b7e0
0000044c 00000000*     10173 	.word	_PUTucTransModePD
00000450 00000000*     10174 	.word	___ghs_eofn_PUTucTransModePD-_PUTucTransModePD
00000454 01            10175 	.byte	1
00000455 00000000*     10176 	.word	.LDW98
00000459 00            10177 	.byte	0
0000045a 00            10178 	.byte	0
0000045b 00            10179 	.byte	0
                       10180 .LDW_unq_50:
                       10181 	.section	.debug_line
00000c47 000502        10182 	.byte	0,5,2
00000c4a 00000000*     10183 	.word	_PUTucTransModePD
00000c4e 03            10184 	.byte	3
00000c4f 9704          10185 	.byte	151,4

                                                                      Page 181
                                                              C:\Users\nhuliyap\AppData\Local\Temp\gh_00006641.s
00000c51 02            10186 	.byte	2
00000c52 00            10187 	.byte	0
00000c53 01            10188 	.byte	1
00000c54 06            10189 	.byte	6
00000c55 1b            10190 	.byte	27
00000c56 000502        10191 	.byte	0,5,2
00000c59 00000000*     10192 	.word	.LDWlin97
00000c5d 0b            10193 	.byte	11
00000c5e 02            10194 	.byte	2
00000c5f 02            10195 	.byte	2
00000c60 000101        10196 	.byte	0,1,1
                       10197 	.section	.debug_info
                       10198 .LDW_4c972c8:
000020f8 0f            10199 	.byte	15
000020f9 7563496e4461  10200 	.strz	"ucInData"
000020ff 746100 
00002102 9704          10201 	.byte	151,4
00002104 0a            10202 	.byte	10
00002105 01            10203 	.byte	1
00002106 00000000*     10204 	.word	.LDW_304ee70
0000210a 00            10205 	.byte	0
0000210b 0156          10206 	.byte	1,86
                       10207 
                       10208 .LDW_4c97168:
0000210d 0f            10209 	.byte	15
0000210e 75635a6f6d53  10210 	.strz	"ucZomSlot"
00002114 6c6f7400 
00002118 9804          10211 	.byte	152,4
0000211a 0a            10212 	.byte	10
0000211b 01            10213 	.byte	1
0000211c 00000000*     10214 	.word	.LDW_304ee70
00002120 00            10215 	.byte	0
00002121 0157          10216 	.byte	1,87
                       10217 
                       10218 .LDW_4c97bd0:
00002123 1d            10219 	.byte	29
00002124 00000000*     10220 	.word	.LDW88
00002128 00000000*     10221 	.word	.LDW98
                       10222 
0000212c 00            10223 	.byte	0
                       10224 
0000212d 00            10225 	.byte	0
                       10226 
                       10227 .LDW_4c84ab0:
0000212e 14            10228 	.byte	20
0000212f 474554757368  10229 	.strz	"GETushSensorDefectPD"
00002135 53656e736f72 
0000213b 446566656374 
00002141 504400 
00002144 9c04          10230 	.byte	156,4
00002146 08            10231 	.byte	8
00002147 01            10232 	.byte	1
00002148 00000000*     10233 	.word	.LDW_4c864d8
0000214c 00000000*     10234 	.word	_GETushSensorDefectPD
00002150 00000000*     10235 	.word	___ghs_eofn_GETushSensorDefectPD
00002154 0153          10236 	.byte	1,83
00002156 02            10237 	.byte	2
00002157 00            10238 	.byte	0
00002158 02            10239 	.byte	2
00002159 00            10240 	.byte	0
0000215a 00            10241 	.byte	0

                                                                      Page 182
                                                              C:\Users\nhuliyap\AppData\Local\Temp\gh_00006641.s
0000215b 00            10242 	.byte	0
0000215c 00            10243 	.byte	0
0000215d 01            10244 	.byte	1
0000215e 01            10245 	.byte	1
0000215f 00            10246 	.byte	0
00002160 01            10247 	.byte	1
                       10248 
                       10249 	.section	.debug_frame
                       10250 .LDW_4d0d2c0:
0000045c 00000000*     10251 	.word	.LDW_unq_52-.LDW_unq_51
                       10252 .LDW_unq_51:
00000460 00000000*     10253 	.word	.LDW_4c2b7e0
00000464 00000000*     10254 	.word	_GETushSensorDefectPD
00000468 00000000*     10255 	.word	___ghs_eofn_GETushSensorDefectPD-_GETushSensorDefectPD
0000046c 01            10256 	.byte	1
0000046d 00000000*     10257 	.word	.LDW19
00000471 00            10258 	.byte	0
00000472 00            10259 	.byte	0
00000473 00            10260 	.byte	0
                       10261 .LDW_unq_52:
                       10262 	.section	.debug_line
00000c63 000502        10263 	.byte	0,5,2
00000c66 00000000*     10264 	.word	_GETushSensorDefectPD
00000c6a 03            10265 	.byte	3
00000c6b 9c04          10266 	.byte	156,4
00000c6d 02            10267 	.byte	2
00000c6e 00            10268 	.byte	0
00000c6f 01            10269 	.byte	1
00000c70 06            10270 	.byte	6
00000c71 1b            10271 	.byte	27
00000c72 06            10272 	.byte	6
00000c73 000502        10273 	.byte	0,5,2
00000c76 00000000*     10274 	.word	.LDWlin98
00000c7a 02            10275 	.byte	2
00000c7b 00            10276 	.byte	0
00000c7c 02            10277 	.byte	2
00000c7d 02            10278 	.byte	2
00000c7e 000101        10279 	.byte	0,1,1
                       10280 	.section	.debug_info
                       10281 .LDW_4c96c40:
00002161 0f            10282 	.byte	15
00002162 75635a6f6d53  10283 	.strz	"ucZomSlot"
00002168 6c6f7400 
0000216c 9d04          10284 	.byte	157,4
0000216e 0a            10285 	.byte	10
0000216f 01            10286 	.byte	1
00002170 00000000*     10287 	.word	.LDW_304ee70
00002174 00            10288 	.byte	0
00002175 0156          10289 	.byte	1,86
                       10290 
                       10291 .LDW_4c97c00:
00002177 1d            10292 	.byte	29
00002178 00000000*     10293 	.word	.LDW09
0000217c 00000000*     10294 	.word	.LDW19
                       10295 
00002180 00            10296 	.byte	0
                       10297 
00002181 00            10298 	.byte	0
                       10299 
                       10300 .LDW_4c84e40:
00002182 13            10301 	.byte	19

                                                                      Page 183
                                                              C:\Users\nhuliyap\AppData\Local\Temp\gh_00006641.s
00002183 505554757368  10302 	.strz	"PUTushSensorDefectPD"
00002189 53656e736f72 
0000218f 446566656374 
00002195 504400 
00002198 a104          10303 	.byte	161,4
0000219a 06            10304 	.byte	6
0000219b 01            10305 	.byte	1
0000219c 00000000*     10306 	.word	_PUTushSensorDefectPD
000021a0 00000000*     10307 	.word	___ghs_eofn_PUTushSensorDefectPD
000021a4 0153          10308 	.byte	1,83
000021a6 02            10309 	.byte	2
000021a7 00            10310 	.byte	0
000021a8 02            10311 	.byte	2
000021a9 00            10312 	.byte	0
000021aa 00            10313 	.byte	0
000021ab 00            10314 	.byte	0
000021ac 00            10315 	.byte	0
000021ad 01            10316 	.byte	1
000021ae 01            10317 	.byte	1
000021af 00            10318 	.byte	0
000021b0 01            10319 	.byte	1
                       10320 
                       10321 	.section	.debug_frame
                       10322 .LDW_4d0d180:
00000474 00000000*     10323 	.word	.LDW_unq_54-.LDW_unq_53
                       10324 .LDW_unq_53:
00000478 00000000*     10325 	.word	.LDW_4c2b7e0
0000047c 00000000*     10326 	.word	_PUTushSensorDefectPD
00000480 00000000*     10327 	.word	___ghs_eofn_PUTushSensorDefectPD-_PUTushSensorDefectPD
00000484 01            10328 	.byte	1
00000485 00000000*     10329 	.word	.LDW39
00000489 00            10330 	.byte	0
0000048a 00            10331 	.byte	0
0000048b 00            10332 	.byte	0
                       10333 .LDW_unq_54:
                       10334 	.section	.debug_line
00000c81 000502        10335 	.byte	0,5,2
00000c84 00000000*     10336 	.word	_PUTushSensorDefectPD
00000c88 03            10337 	.byte	3
00000c89 a204          10338 	.byte	162,4
00000c8b 02            10339 	.byte	2
00000c8c 00            10340 	.byte	0
00000c8d 01            10341 	.byte	1
00000c8e 06            10342 	.byte	6
00000c8f 1b            10343 	.byte	27
00000c90 000502        10344 	.byte	0,5,2
00000c93 00000000*     10345 	.word	.LDWlin99
00000c97 0b            10346 	.byte	11
00000c98 02            10347 	.byte	2
00000c99 02            10348 	.byte	2
00000c9a 000101        10349 	.byte	0,1,1
                       10350 	.section	.debug_info
                       10351 .LDW_4c96f58:
000021b1 0f            10352 	.byte	15
000021b2 757368496e44  10353 	.strz	"ushInData"
000021b8 61746100 
000021bc a204          10354 	.byte	162,4
000021be 0b            10355 	.byte	11
000021bf 01            10356 	.byte	1
000021c0 00000000*     10357 	.word	.LDW_4c864d8
000021c4 00            10358 	.byte	0

                                                                      Page 184
                                                              C:\Users\nhuliyap\AppData\Local\Temp\gh_00006641.s
000021c5 0156          10359 	.byte	1,86
                       10360 
                       10361 .LDW_4c96928:
000021c7 0f            10362 	.byte	15
000021c8 75635a6f6d53  10363 	.strz	"ucZomSlot"
000021ce 6c6f7400 
000021d2 a304          10364 	.byte	163,4
000021d4 0a            10365 	.byte	10
000021d5 01            10366 	.byte	1
000021d6 00000000*     10367 	.word	.LDW_304ee70
000021da 00            10368 	.byte	0
000021db 0157          10369 	.byte	1,87
                       10370 
                       10371 .LDW_4c97ab0:
000021dd 1d            10372 	.byte	29
000021de 00000000*     10373 	.word	.LDW29
000021e2 00000000*     10374 	.word	.LDW39
                       10375 
000021e6 00            10376 	.byte	0
                       10377 
000021e7 00            10378 	.byte	0
                       10379 
                       10380 .LDW_4c84f70:
000021e8 14            10381 	.byte	20
000021e9 474554756352  10382 	.strz	"GETucRadpositionPD"
000021ef 6164706f7369 
000021f5 74696f6e5044 
000021fb 00 
000021fc a704          10383 	.byte	167,4
000021fe 07            10384 	.byte	7
000021ff 01            10385 	.byte	1
00002200 00000000*     10386 	.word	.LDW_304ee70
00002204 00000000*     10387 	.word	_GETucRadpositionPD
00002208 00000000*     10388 	.word	___ghs_eofn_GETucRadpositionPD
0000220c 0153          10389 	.byte	1,83
0000220e 02            10390 	.byte	2
0000220f 00            10391 	.byte	0
00002210 02            10392 	.byte	2
00002211 00            10393 	.byte	0
00002212 00            10394 	.byte	0
00002213 00            10395 	.byte	0
00002214 00            10396 	.byte	0
00002215 01            10397 	.byte	1
00002216 01            10398 	.byte	1
00002217 00            10399 	.byte	0
00002218 01            10400 	.byte	1
                       10401 
                       10402 	.section	.debug_frame
                       10403 .LDW_4d0d3c0:
0000048c 00000000*     10404 	.word	.LDW_unq_56-.LDW_unq_55
                       10405 .LDW_unq_55:
00000490 00000000*     10406 	.word	.LDW_4c2b7e0
00000494 00000000*     10407 	.word	_GETucRadpositionPD
00000498 00000000*     10408 	.word	___ghs_eofn_GETucRadpositionPD-_GETucRadpositionPD
0000049c 01            10409 	.byte	1
0000049d 00000000*     10410 	.word	.LDW59
000004a1 00            10411 	.byte	0
000004a2 00            10412 	.byte	0
000004a3 00            10413 	.byte	0
                       10414 .LDW_unq_56:
                       10415 	.section	.debug_line

                                                                      Page 185
                                                              C:\Users\nhuliyap\AppData\Local\Temp\gh_00006641.s
00000c9d 000502        10416 	.byte	0,5,2
00000ca0 00000000*     10417 	.word	_GETucRadpositionPD
00000ca4 03            10418 	.byte	3
00000ca5 a704          10419 	.byte	167,4
00000ca7 02            10420 	.byte	2
00000ca8 00            10421 	.byte	0
00000ca9 01            10422 	.byte	1
00000caa 06            10423 	.byte	6
00000cab 13            10424 	.byte	19
00000cac 02            10425 	.byte	2
00000cad 04            10426 	.byte	4
00000cae 000101        10427 	.byte	0,1,1
                       10428 	.section	.debug_info
                       10429 .LDW_4c96fb0:
00002219 0f            10430 	.byte	15
0000221a 75635a6f6d53  10431 	.strz	"ucZomSlot"
00002220 6c6f7400 
00002224 a804          10432 	.byte	168,4
00002226 0a            10433 	.byte	10
00002227 01            10434 	.byte	1
00002228 00000000*     10435 	.word	.LDW_304ee70
0000222c 00            10436 	.byte	0
0000222d 0156          10437 	.byte	1,86
                       10438 
                       10439 .LDW_4c97b10:
0000222f 1d            10440 	.byte	29
00002230 00000000*     10441 	.word	.LDW49
00002234 00000000*     10442 	.word	.LDW59
                       10443 
00002238 00            10444 	.byte	0
                       10445 
00002239 00            10446 	.byte	0
                       10447 
                       10448 .LDW_4cb8b10:
0000223a 14            10449 	.byte	20
0000223b 50726550726f  10450 	.strz	"PreProcPressAndTempPD"
00002241 635072657373 
00002247 416e6454656d 
0000224d 70504400 
00002251 ad04          10451 	.byte	173,4
00002253 08            10452 	.byte	8
00002254 01            10453 	.byte	1
00002255 00000000*     10454 	.word	.LDW_4c864d8
00002259 00000000*     10455 	.word	_PreProcPressAndTempPD
0000225d 00000000*     10456 	.word	___ghs_eofn_PreProcPressAndTempPD
00002261 0153          10457 	.byte	1,83
00002263 828080800a    10458 	.byte	130,128,128,128,10
00002268 08            10459 	.byte	8
00002269 03            10460 	.byte	3
0000226a 0c            10461 	.byte	12
0000226b 00            10462 	.byte	0
0000226c 00            10463 	.byte	0
0000226d 00            10464 	.byte	0
0000226e 01            10465 	.byte	1
0000226f 01            10466 	.byte	1
00002270 00            10467 	.byte	0
00002271 01            10468 	.byte	1
                       10469 
                       10470 	.section	.debug_frame
                       10471 .LDW_4e29830:
000004a4 00000000*     10472 	.word	.LDW_unq_58-.LDW_unq_57

                                                                      Page 186
                                                              C:\Users\nhuliyap\AppData\Local\Temp\gh_00006641.s
                       10473 .LDW_unq_57:
000004a8 00000000*     10474 	.word	.LDW_4c2b7e0
000004ac 00000000*     10475 	.word	_PreProcPressAndTempPD
000004b0 00000000*     10476 	.word	___ghs_eofn_PreProcPressAndTempPD-_PreProcPressAndTempPD
000004b4 44            10477 	.byte	68
000004b5 9f            10478 	.byte	159
000004b6 03            10479 	.byte	3
000004b7 40            10480 	.byte	64
000004b8 9d            10481 	.byte	157
000004b9 07            10482 	.byte	7
000004ba 01            10483 	.byte	1
000004bb 00000000*     10484 	.word	.LDW301
000004bf 44            10485 	.byte	68
000004c0 df            10486 	.byte	223
000004c1 40            10487 	.byte	64
000004c2 dd            10488 	.byte	221
000004c3 00            10489 	.byte	0
                       10490 .LDW_unq_58:
                       10491 	.section	.debug_line
00000cb1 000502        10492 	.byte	0,5,2
00000cb4 00000000*     10493 	.word	_PreProcPressAndTempPD
00000cb8 03            10494 	.byte	3
00000cb9 ac04          10495 	.byte	172,4
00000cbb 02            10496 	.byte	2
00000cbc 00            10497 	.byte	0
00000cbd 01            10498 	.byte	1
00000cbe 06            10499 	.byte	6
00000cbf 03            10500 	.byte	3
00000cc0 04            10501 	.byte	4
00000cc1 02            10502 	.byte	2
00000cc2 04            10503 	.byte	4
00000cc3 01            10504 	.byte	1
00000cc4 000502        10505 	.byte	0,5,2
00000cc7 00000000*     10506 	.word	.LDWlin112
00000ccb 0d            10507 	.byte	13
00000ccc 000502        10508 	.byte	0,5,2
00000ccf 00000000*     10509 	.word	.LDWlin113
00000cd3 0d            10510 	.byte	13
00000cd4 000502        10511 	.byte	0,5,2
00000cd7 00000000*     10512 	.word	.LDWlin114
00000cdb 0c            10513 	.byte	12
00000cdc 000502        10514 	.byte	0,5,2
00000cdf 00000000*     10515 	.word	.LDWlin115
00000ce3 0c            10516 	.byte	12
00000ce4 02            10517 	.byte	2
00000ce5 04            10518 	.byte	4
00000ce6 000101        10519 	.byte	0,1,1
                       10520 	.section	.debug_info
                       10521 .LDW_4c97a20:
00002272 1d            10522 	.byte	29
00002273 00000000*     10523 	.word	.LDW201
00002277 00000000*     10524 	.word	.LDW301
                       10525 
                       10526 .LDW_4c97378:
0000227b 04            10527 	.byte	4
0000227c 756350726573  10528 	.strz	"ucPres"
00002282 00 
00002283 ae04          10529 	.byte	174,4
00002285 0a            10530 	.byte	10
00002286 01            10531 	.byte	1
00002287 00000000*     10532 	.word	.LDW_304ee70

                                                                      Page 187
                                                              C:\Users\nhuliyap\AppData\Local\Temp\gh_00006641.s
0000228b 00            10533 	.byte	0
0000228c 00            10534 	.byte	0
0000228d 0273          10535 	.byte	2,115
0000228f 02            10536 	.byte	2
                       10537 
                       10538 .LDW_4c96980:
00002290 04            10539 	.byte	4
00002291 736354656d70  10540 	.strz	"scTemp"
00002297 00 
00002298 af04          10541 	.byte	175,4
0000229a 0a            10542 	.byte	10
0000229b 01            10543 	.byte	1
0000229c 00000000*     10544 	.word	.LDW_304dfd0
000022a0 00            10545 	.byte	0
000022a1 00            10546 	.byte	0
000022a2 0273          10547 	.byte	2,115
000022a4 03            10548 	.byte	3
                       10549 
                       10550 .LDW_4c96c98:
000022a5 04            10551 	.byte	4
000022a6 75736853656e  10552 	.strz	"ushSensorfehler"
000022ac 736f72666568 
000022b2 6c657200 
000022b6 b004          10553 	.byte	176,4
000022b8 0b            10554 	.byte	11
000022b9 01            10555 	.byte	1
000022ba 00000000*     10556 	.word	.LDW_4c864d8
000022be 00            10557 	.byte	0
000022bf 00            10558 	.byte	0
000022c0 016d          10559 	.byte	1,109
                       10560 
000022c2 00            10561 	.byte	0
                       10562 
000022c3 00            10563 	.byte	0
                       10564 
                       10565 .LDW_4cb8ea0:
000022c4 14            10566 	.byte	20
000022c5 75736843616c  10567 	.strz	"ushCalcAKPressurePD"
000022cb 63414b507265 
000022d1 737375726550 
000022d7 4400 
000022d9 be04          10568 	.byte	190,4
000022db 0f            10569 	.byte	15
000022dc 01            10570 	.byte	1
000022dd 00000000*     10571 	.word	.LDW_4c864d8
000022e1 00000000*     10572 	.word	_ushCalcAKPressurePD..C.3A.5C_ECU2.5CECU_Rivian_A1.5CTarget.5Crepo_projects.5CpRealEcu.5CcR_LATEST.5Cmake.5Coutput.5Cobjects.5Cprocdat.
000022e5 00000000*     10573 	.word	___ghs_eofn_ushCalcAKPressurePD
000022e9 0153          10574 	.byte	1,83
000022eb 8280808009    10575 	.byte	130,128,128,128,9
000022f0 08            10576 	.byte	8
000022f1 03            10577 	.byte	3
000022f2 08            10578 	.byte	8
000022f3 00            10579 	.byte	0
000022f4 00            10580 	.byte	0
000022f5 00            10581 	.byte	0
000022f6 00            10582 	.byte	0
000022f7 01            10583 	.byte	1
000022f8 00            10584 	.byte	0
000022f9 01            10585 	.byte	1
                       10586 
                       10587 	.section	.debug_frame

                                                                      Page 188
                                                              C:\Users\nhuliyap\AppData\Local\Temp\gh_00006641.s
                       10588 .LDW_4d0d440:
000004c4 00000000*     10589 	.word	.LDW_unq_5a-.LDW_unq_59
                       10590 .LDW_unq_59:
000004c8 00000000*     10591 	.word	.LDW_4c2b7e0
000004cc 00000000*     10592 	.word	_ushCalcAKPressurePD..C.3A.5C_ECU2.5CECU_Rivian_A1.5CTarget.5Crepo_projects.5CpRealEcu.5CcR_LATEST.5Cmake.5Coutput.5Cobjects.5Cprocdat.
000004d0 00000000*     10593 	.word	___ghs_eofn_ushCalcAKPressurePD-_ushCalcAKPressurePD..C.3A.5C_ECU2.5CECU_Rivian_A1.5CTarget.5Crepo_projects.5CpRealEcu.5CcR_LATEST.5Cmake.5Coutput.5Cobjects.5Cprocdat.
000004d4 44            10594 	.byte	68
000004d5 9f            10595 	.byte	159
000004d6 00            10596 	.byte	0
000004d7 40            10597 	.byte	64
000004d8 9c            10598 	.byte	156
000004d9 04            10599 	.byte	4
000004da 01            10600 	.byte	1
000004db 00000000*     10601 	.word	.LDW99
000004df 00            10602 	.byte	0
                       10603 .LDW_unq_5a:
                       10604 	.section	.debug_line
00000ce9 000502        10605 	.byte	0,5,2
00000cec 00000000*     10606 	.word	_ushCalcAKPressurePD..C.3A.5C_ECU2.5CECU_Rivian_A1.5CTarget.5Crepo_projects.5CpRealEcu.5CcR_LATEST.5Cmake.5Coutput.5Cobjects.5Cprocdat.
00000cf0 03            10607 	.byte	3
00000cf1 bf04          10608 	.byte	191,4
00000cf3 02            10609 	.byte	2
00000cf4 00            10610 	.byte	0
00000cf5 01            10611 	.byte	1
00000cf6 06            10612 	.byte	6
00000cf7 25            10613 	.byte	37
00000cf8 000502        10614 	.byte	0,5,2
00000cfb 00000000*     10615 	.word	.LDWlin101
00000cff 03            10616 	.byte	3
00000d00 10            10617 	.byte	16
00000d01 02            10618 	.byte	2
00000d02 00            10619 	.byte	0
00000d03 01            10620 	.byte	1
00000d04 0b            10621 	.byte	11
00000d05 1b            10622 	.byte	27
00000d06 000502        10623 	.byte	0,5,2
00000d09 00000000*     10624 	.word	.LDWlin102
00000d0d 0d            10625 	.byte	13
00000d0e 0b            10626 	.byte	11
00000d0f 0b            10627 	.byte	11
00000d10 13            10628 	.byte	19
00000d11 1b            10629 	.byte	27
00000d12 02            10630 	.byte	2
00000d13 00            10631 	.byte	0
00000d14 0b            10632 	.byte	11
00000d15 0b            10633 	.byte	11
00000d16 0b            10634 	.byte	11
00000d17 000502        10635 	.byte	0,5,2
00000d1a 00000000*     10636 	.word	.LDWlin103
00000d1e 03            10637 	.byte	3
00000d1f 66            10638 	.byte	102
00000d20 02            10639 	.byte	2
00000d21 00            10640 	.byte	0
00000d22 01            10641 	.byte	1
00000d23 1b            10642 	.byte	27
00000d24 13            10643 	.byte	19
00000d25 000502        10644 	.byte	0,5,2
00000d28 00000000*     10645 	.word	.LDWlin104
00000d2c 0d            10646 	.byte	13
00000d2d 1b            10647 	.byte	27
00000d2e 13            10648 	.byte	19

                                                                      Page 189
                                                              C:\Users\nhuliyap\AppData\Local\Temp\gh_00006641.s
00000d2f 000502        10649 	.byte	0,5,2
00000d32 00000000*     10650 	.word	.LDWlin105
00000d36 0d            10651 	.byte	13
00000d37 1b            10652 	.byte	27
00000d38 13            10653 	.byte	19
00000d39 000502        10654 	.byte	0,5,2
00000d3c 00000000*     10655 	.word	.LDWlin106
00000d40 03            10656 	.byte	3
00000d41 04            10657 	.byte	4
00000d42 02            10658 	.byte	2
00000d43 00            10659 	.byte	0
00000d44 01            10660 	.byte	1
00000d45 0b            10661 	.byte	11
00000d46 13            10662 	.byte	19
00000d47 06            10663 	.byte	6
00000d48 02            10664 	.byte	2
00000d49 06            10665 	.byte	6
00000d4a 02            10666 	.byte	2
00000d4b 04            10667 	.byte	4
00000d4c 000101        10668 	.byte	0,1,1
                       10669 	.section	.debug_info
                       10670 .LDW_4c969d8:
000022fa 0f            10671 	.byte	15
000022fb 756352617750  10672 	.strz	"ucRawPres"
00002301 72657300 
00002305 bf04          10673 	.byte	191,4
00002307 0a            10674 	.byte	10
00002308 01            10675 	.byte	1
00002309 00000000*     10676 	.word	.LDW_304ee70
0000230d 00            10677 	.byte	0
0000230e 0156          10678 	.byte	1,86
                       10679 
                       10680 .LDW_4c96df8:
00002310 0f            10681 	.byte	15
00002311 707563506879  10682 	.strz	"pucPhyPres"
00002317 5072657300 
0000231c c004          10683 	.byte	192,4
0000231e 0b            10684 	.byte	11
0000231f 01            10685 	.byte	1
00002320 00000000*     10686 	.word	.LDW_4c85c38
00002324 00            10687 	.byte	0
00002325 016d          10688 	.byte	1,109
                       10689 
                       10690 .LDW_4c97a50:
00002327 1d            10691 	.byte	29
00002328 00000000*     10692 	.word	.LDW89
0000232c 00000000*     10693 	.word	.LDW99
                       10694 
                       10695 .LDW_4c97060:
00002330 04            10696 	.byte	4
00002331 757368457272  10697 	.strz	"ushError"
00002337 6f7200 
0000233a c104          10698 	.byte	193,4
0000233c 0b            10699 	.byte	11
0000233d 01            10700 	.byte	1
0000233e 00000000*     10701 	.word	.LDW_4c864d8
00002342 00            10702 	.byte	0
00002343 00            10703 	.byte	0
00002344 015a          10704 	.byte	1,90
                       10705 
                       10706 .LDW_4c96ae0:

                                                                      Page 190
                                                              C:\Users\nhuliyap\AppData\Local\Temp\gh_00006641.s
00002346 04            10707 	.byte	4
00002347 757368507365  10708 	.strz	"ushPsensorAbs"
0000234d 6e736f724162 
00002353 7300 
00002355 c204          10709 	.byte	194,4
00002357 0b            10710 	.byte	11
00002358 01            10711 	.byte	1
00002359 00000000*     10712 	.word	.LDW_4c864d8
0000235d 00            10713 	.byte	0
0000235e 00            10714 	.byte	0
0000235f 016c          10715 	.byte	1,108
                       10716 
00002361 00            10717 	.byte	0
                       10718 
00002362 00            10719 	.byte	0
                       10720 
                       10721 .LDW_4cb8ba8:
00002363 14            10722 	.byte	20
00002364 75736843616c  10723 	.strz	"ushCalcAKTemperaturePD"
0000236a 63414b54656d 
00002370 706572617475 
00002376 7265504400 
0000237b e204          10724 	.byte	226,4
0000237d 0f            10725 	.byte	15
0000237e 01            10726 	.byte	1
0000237f 00000000*     10727 	.word	.LDW_4c864d8
00002383 00000000*     10728 	.word	_ushCalcAKTemperaturePD..C.3A.5C_ECU2.5CECU_Rivian_A1.5CTarget.5Crepo_projects.5CpRealEcu.5CcR_LATEST.5Cmake.5Coutput.5Cobjects.5Cprocdat.
00002387 00000000*     10729 	.word	___ghs_eofn_ushCalcAKTemperaturePD
0000238b 0153          10730 	.byte	1,83
0000238d 02            10731 	.byte	2
0000238e 00            10732 	.byte	0
0000238f 02            10733 	.byte	2
00002390 00            10734 	.byte	0
00002391 00            10735 	.byte	0
00002392 00            10736 	.byte	0
00002393 00            10737 	.byte	0
00002394 00            10738 	.byte	0
00002395 01            10739 	.byte	1
00002396 00            10740 	.byte	0
00002397 01            10741 	.byte	1
                       10742 
                       10743 	.section	.debug_frame
                       10744 .LDW_4e299b0:
000004e0 00000000*     10745 	.word	.LDW_unq_5c-.LDW_unq_5b
                       10746 .LDW_unq_5b:
000004e4 00000000*     10747 	.word	.LDW_4c2b7e0
000004e8 00000000*     10748 	.word	_ushCalcAKTemperaturePD..C.3A.5C_ECU2.5CECU_Rivian_A1.5CTarget.5Crepo_projects.5CpRealEcu.5CcR_LATEST.5Cmake.5Coutput.5Cobjects.5Cprocdat.
000004ec 00000000*     10749 	.word	___ghs_eofn_ushCalcAKTemperaturePD-_ushCalcAKTemperaturePD..C.3A.5C_ECU2.5CECU_Rivian_A1.5CTarget.5Crepo_projects.5CpRealEcu.5CcR_LATEST.5Cmake.5Coutput.5Cobjects.5Cprocdat.
000004f0 01            10750 	.byte	1
000004f1 00000000*     10751 	.word	.LDW101
000004f5 00            10752 	.byte	0
000004f6 00            10753 	.byte	0
000004f7 00            10754 	.byte	0
                       10755 .LDW_unq_5c:
                       10756 	.section	.debug_line
00000d4f 000502        10757 	.byte	0,5,2
00000d52 00000000*     10758 	.word	_ushCalcAKTemperaturePD..C.3A.5C_ECU2.5CECU_Rivian_A1.5CTarget.5Crepo_projects.5CpRealEcu.5CcR_LATEST.5Cmake.5Coutput.5Cobjects.5Cprocdat.
00000d56 03            10759 	.byte	3
00000d57 e304          10760 	.byte	227,4
00000d59 02            10761 	.byte	2
00000d5a 00            10762 	.byte	0

                                                                      Page 191
                                                              C:\Users\nhuliyap\AppData\Local\Temp\gh_00006641.s
00000d5b 01            10763 	.byte	1
00000d5c 06            10764 	.byte	6
00000d5d 1b            10765 	.byte	27
00000d5e 13            10766 	.byte	19
00000d5f 000502        10767 	.byte	0,5,2
00000d62 00000000*     10768 	.word	.LDWlin107
00000d66 03            10769 	.byte	3
00000d67 0b            10770 	.byte	11
00000d68 02            10771 	.byte	2
00000d69 00            10772 	.byte	0
00000d6a 01            10773 	.byte	1
00000d6b 0b            10774 	.byte	11
00000d6c 000502        10775 	.byte	0,5,2
00000d6f 00000000*     10776 	.word	.LDWlin108
00000d73 0b            10777 	.byte	11
00000d74 0c            10778 	.byte	12
00000d75 0b            10779 	.byte	11
00000d76 0c            10780 	.byte	12
00000d77 02            10781 	.byte	2
00000d78 00            10782 	.byte	0
00000d79 0b            10783 	.byte	11
00000d7a 0b            10784 	.byte	11
00000d7b 0b            10785 	.byte	11
00000d7c 1b            10786 	.byte	27
00000d7d 000502        10787 	.byte	0,5,2
00000d80 00000000*     10788 	.word	.LDWlin109
00000d84 03            10789 	.byte	3
00000d85 6c            10790 	.byte	108
00000d86 02            10791 	.byte	2
00000d87 00            10792 	.byte	0
00000d88 01            10793 	.byte	1
00000d89 1b            10794 	.byte	27
00000d8a 1b            10795 	.byte	27
00000d8b 000502        10796 	.byte	0,5,2
00000d8e 00000000*     10797 	.word	.LDWlin110
00000d92 0d            10798 	.byte	13
00000d93 1b            10799 	.byte	27
00000d94 1b            10800 	.byte	27
00000d95 000502        10801 	.byte	0,5,2
00000d98 00000000*     10802 	.word	.LDWlin111
00000d9c 0d            10803 	.byte	13
00000d9d 0b            10804 	.byte	11
00000d9e 03            10805 	.byte	3
00000d9f 0a            10806 	.byte	10
00000da0 02            10807 	.byte	2
00000da1 0e            10808 	.byte	14
00000da2 01            10809 	.byte	1
00000da3 02            10810 	.byte	2
00000da4 00            10811 	.byte	0
00000da5 0b            10812 	.byte	11
00000da6 0b            10813 	.byte	11
00000da7 0b            10814 	.byte	11
00000da8 06            10815 	.byte	6
00000da9 02            10816 	.byte	2
00000daa 02            10817 	.byte	2
00000dab 02            10818 	.byte	2
00000dac 02            10819 	.byte	2
00000dad 000101        10820 	.byte	0,1,1
                       10821 	.section	.debug_info
                       10822 .LDW_4c96b90:
00002398 0f            10823 	.byte	15

                                                                      Page 192
                                                              C:\Users\nhuliyap\AppData\Local\Temp\gh_00006641.s
00002399 756352617754  10824 	.strz	"ucRawTemp"
0000239f 656d7000 
000023a3 e304          10825 	.byte	227,4
000023a5 0a            10826 	.byte	10
000023a6 01            10827 	.byte	1
000023a7 00000000*     10828 	.word	.LDW_304ee70
000023ab 00            10829 	.byte	0
000023ac 0156          10830 	.byte	1,86
                       10831 
                       10832 .LDW_4c96e50:
000023ae 0f            10833 	.byte	15
000023af 707363506879  10834 	.strz	"pscPhyTemp"
000023b5 54656d7000 
000023ba e404          10835 	.byte	228,4
000023bc 0b            10836 	.byte	11
000023bd 01            10837 	.byte	1
000023be 00000000*     10838 	.word	.LDW_4c85bc8
000023c2 00            10839 	.byte	0
000023c3 016e          10840 	.byte	1,110
                       10841 
                       10842 .LDW_4c97d80:
000023c5 1d            10843 	.byte	29
000023c6 00000000*     10844 	.word	.LDW001
000023ca 00000000*     10845 	.word	.LDW101
                       10846 
                       10847 .LDW_4c96ea8:
000023ce 04            10848 	.byte	4
000023cf 757368457272  10849 	.strz	"ushError"
000023d5 6f7200 
000023d8 e504          10850 	.byte	229,4
000023da 0b            10851 	.byte	11
000023db 01            10852 	.byte	1
000023dc 00000000*     10853 	.word	.LDW_4c864d8
000023e0 00            10854 	.byte	0
000023e1 00            10855 	.byte	0
000023e2 015a          10856 	.byte	1,90
                       10857 
000023e4 00            10858 	.byte	0
                       10859 
000023e5 00            10860 	.byte	0
                       10861 
                       10862 .LDW_4cb9198:
000023e6 13            10863 	.byte	19
000023e7 536176655265  10864 	.strz	"SaveReDataAtBufferPD"
000023ed 446174614174 
000023f3 427566666572 
000023f9 504400 
000023fc 8305          10865 	.byte	131,5
000023fe 06            10866 	.byte	6
000023ff 01            10867 	.byte	1
00002400 00000000*     10868 	.word	_SaveReDataAtBufferPD
00002404 00000000*     10869 	.word	___ghs_eofn_SaveReDataAtBufferPD
00002408 0153          10870 	.byte	1,83
0000240a 828080e00b    10871 	.byte	130,128,128,224,11
0000240f 14            10872 	.byte	20
00002410 03            10873 	.byte	3
00002411 14            10874 	.byte	20
00002412 00            10875 	.byte	0
00002413 00            10876 	.byte	0
00002414 00            10877 	.byte	0
00002415 01            10878 	.byte	1

                                                                      Page 193
                                                              C:\Users\nhuliyap\AppData\Local\Temp\gh_00006641.s
00002416 01            10879 	.byte	1
00002417 00            10880 	.byte	0
00002418 01            10881 	.byte	1
                       10882 
                       10883 	.section	.debug_frame
                       10884 .LDW_4e296f0:
000004f8 00000000*     10885 	.word	.LDW_unq_5e-.LDW_unq_5d
                       10886 .LDW_unq_5d:
000004fc 00000000*     10887 	.word	.LDW_4c2b7e0
00000500 00000000*     10888 	.word	_SaveReDataAtBufferPD
00000504 00000000*     10889 	.word	___ghs_eofn_SaveReDataAtBufferPD-_SaveReDataAtBufferPD
00000508 44            10890 	.byte	68
00000509 9f            10891 	.byte	159
0000050a 00            10892 	.byte	0
0000050b 40            10893 	.byte	64
0000050c 9d            10894 	.byte	157
0000050d 04            10895 	.byte	4
0000050e 40            10896 	.byte	64
0000050f 9c            10897 	.byte	156
00000510 08            10898 	.byte	8
00000511 40            10899 	.byte	64
00000512 9b            10900 	.byte	155
00000513 0c            10901 	.byte	12
00000514 40            10902 	.byte	64
00000515 9a            10903 	.byte	154
00000516 10            10904 	.byte	16
00000517 01            10905 	.byte	1
00000518 00000000*     10906 	.word	.LDW501
                       10907 .LDW_unq_5e:
                       10908 	.section	.debug_line
00000db0 000502        10909 	.byte	0,5,2
00000db3 00000000*     10910 	.word	_SaveReDataAtBufferPD
00000db7 03            10911 	.byte	3
00000db8 8305          10912 	.byte	131,5
00000dba 02            10913 	.byte	2
00000dbb 00            10914 	.byte	0
00000dbc 01            10915 	.byte	1
00000dbd 06            10916 	.byte	6
00000dbe 2d            10917 	.byte	45
00000dbf 000502        10918 	.byte	0,5,2
00000dc2 00000000*     10919 	.word	.LDWlin116
00000dc6 0c            10920 	.byte	12
00000dc7 000502        10921 	.byte	0,5,2
00000dca 00000000*     10922 	.word	.LDWlin117
00000dce 0b            10923 	.byte	11
00000dcf 000502        10924 	.byte	0,5,2
00000dd2 00000000*     10925 	.word	.LDWlin118
00000dd6 02            10926 	.byte	2
00000dd7 00            10927 	.byte	0
00000dd8 0b            10928 	.byte	11
00000dd9 000502        10929 	.byte	0,5,2
00000ddc 00000000*     10930 	.word	.LDWlin119
00000de0 0b            10931 	.byte	11
00000de1 000502        10932 	.byte	0,5,2
00000de4 00000000*     10933 	.word	.LDWlin120
00000de8 02            10934 	.byte	2
00000de9 00            10935 	.byte	0
00000dea 0b            10936 	.byte	11
00000deb 000502        10937 	.byte	0,5,2
00000dee 00000000*     10938 	.word	.LDWlin121
00000df2 02            10939 	.byte	2

                                                                      Page 194
                                                              C:\Users\nhuliyap\AppData\Local\Temp\gh_00006641.s
00000df3 00            10940 	.byte	0
00000df4 0b            10941 	.byte	11
00000df5 23            10942 	.byte	35
00000df6 02            10943 	.byte	2
00000df7 00            10944 	.byte	0
00000df8 0b            10945 	.byte	11
00000df9 000502        10946 	.byte	0,5,2
00000dfc 00000000*     10947 	.word	.LDWlin122
00000e00 02            10948 	.byte	2
00000e01 00            10949 	.byte	0
00000e02 0b            10950 	.byte	11
00000e03 000502        10951 	.byte	0,5,2
00000e06 00000000*     10952 	.word	.LDWlin123
00000e0a 02            10953 	.byte	2
00000e0b 00            10954 	.byte	0
00000e0c 0b            10955 	.byte	11
00000e0d 000502        10956 	.byte	0,5,2
00000e10 00000000*     10957 	.word	.LDWlin124
00000e14 0d            10958 	.byte	13
00000e15 0b            10959 	.byte	11
00000e16 0b            10960 	.byte	11
00000e17 000502        10961 	.byte	0,5,2
00000e1a 00000000*     10962 	.word	.LDWlin125
00000e1e 0c            10963 	.byte	12
00000e1f 02            10964 	.byte	2
00000e20 00            10965 	.byte	0
00000e21 0b            10966 	.byte	11
00000e22 0b            10967 	.byte	11
00000e23 0b            10968 	.byte	11
00000e24 02            10969 	.byte	2
00000e25 00            10970 	.byte	0
00000e26 0b            10971 	.byte	11
00000e27 0b            10972 	.byte	11
00000e28 0b            10973 	.byte	11
00000e29 03            10974 	.byte	3
00000e2a 12            10975 	.byte	18
00000e2b 02            10976 	.byte	2
00000e2c 02            10977 	.byte	2
00000e2d 01            10978 	.byte	1
00000e2e 02            10979 	.byte	2
00000e2f 00            10980 	.byte	0
00000e30 0b            10981 	.byte	11
00000e31 02            10982 	.byte	2
00000e32 00            10983 	.byte	0
00000e33 0b            10984 	.byte	11
00000e34 000502        10985 	.byte	0,5,2
00000e37 00000000*     10986 	.word	.LDWlin126
00000e3b 02            10987 	.byte	2
00000e3c 00            10988 	.byte	0
00000e3d 0b            10989 	.byte	11
00000e3e 000502        10990 	.byte	0,5,2
00000e41 00000000*     10991 	.word	.LDWlin127
00000e45 03            10992 	.byte	3
00000e46 6c            10993 	.byte	108
00000e47 02            10994 	.byte	2
00000e48 00            10995 	.byte	0
00000e49 01            10996 	.byte	1
00000e4a 02            10997 	.byte	2
00000e4b 00            10998 	.byte	0
00000e4c 0b            10999 	.byte	11
00000e4d 0b            11000 	.byte	11

                                                                      Page 195
                                                              C:\Users\nhuliyap\AppData\Local\Temp\gh_00006641.s
00000e4e 0b            11001 	.byte	11
00000e4f 1b            11002 	.byte	27
00000e50 000502        11003 	.byte	0,5,2
00000e53 00000000*     11004 	.word	.LDWlin128
00000e57 02            11005 	.byte	2
00000e58 00            11006 	.byte	0
00000e59 0b            11007 	.byte	11
00000e5a 000502        11008 	.byte	0,5,2
00000e5d 00000000*     11009 	.word	.LDWlin129
00000e61 0d            11010 	.byte	13
00000e62 000502        11011 	.byte	0,5,2
00000e65 00000000*     11012 	.word	.LDWlin130
00000e69 0d            11013 	.byte	13
00000e6a 0b            11014 	.byte	11
00000e6b 0b            11015 	.byte	11
00000e6c 000502        11016 	.byte	0,5,2
00000e6f 00000000*     11017 	.word	.LDWlin131
00000e73 0c            11018 	.byte	12
00000e74 000502        11019 	.byte	0,5,2
00000e77 00000000*     11020 	.word	.LDWlin132
00000e7b 03            11021 	.byte	3
00000e7c 0d            11022 	.byte	13
00000e7d 02            11023 	.byte	2
00000e7e 00            11024 	.byte	0
00000e7f 01            11025 	.byte	1
00000e80 0b            11026 	.byte	11
00000e81 0b            11027 	.byte	11
00000e82 000502        11028 	.byte	0,5,2
00000e85 00000000*     11029 	.word	.LDWlin133
00000e89 03            11030 	.byte	3
00000e8a 78            11031 	.byte	120
00000e8b 02            11032 	.byte	2
00000e8c 00            11033 	.byte	0
00000e8d 01            11034 	.byte	1
00000e8e 0b            11035 	.byte	11
00000e8f 0b            11036 	.byte	11
00000e90 000502        11037 	.byte	0,5,2
00000e93 00000000*     11038 	.word	.LDWlin134
00000e97 02            11039 	.byte	2
00000e98 00            11040 	.byte	0
00000e99 0b            11041 	.byte	11
00000e9a 000502        11042 	.byte	0,5,2
00000e9d 00000000*     11043 	.word	.LDWlin135
00000ea1 03            11044 	.byte	3
00000ea2 07            11045 	.byte	7
00000ea3 02            11046 	.byte	2
00000ea4 00            11047 	.byte	0
00000ea5 01            11048 	.byte	1
00000ea6 02            11049 	.byte	2
00000ea7 00            11050 	.byte	0
00000ea8 0b            11051 	.byte	11
00000ea9 000502        11052 	.byte	0,5,2
00000eac 00000000*     11053 	.word	.LDWlin136
00000eb0 0b            11054 	.byte	11
00000eb1 02            11055 	.byte	2
00000eb2 00            11056 	.byte	0
00000eb3 0b            11057 	.byte	11
00000eb4 000502        11058 	.byte	0,5,2
00000eb7 00000000*     11059 	.word	.LDWlin137
00000ebb 0c            11060 	.byte	12
00000ebc 000502        11061 	.byte	0,5,2

                                                                      Page 196
                                                              C:\Users\nhuliyap\AppData\Local\Temp\gh_00006641.s
00000ebf 00000000*     11062 	.word	.LDWlin138
00000ec3 0c            11063 	.byte	12
00000ec4 02            11064 	.byte	2
00000ec5 04            11065 	.byte	4
00000ec6 000101        11066 	.byte	0,1,1
                       11067 	.section	.debug_info
                       11068 .LDW_4c97428:
00002419 0f            11069 	.byte	15
0000241a 75635a6f6d53  11070 	.strz	"ucZomSlot"
00002420 6c6f7400 
00002424 8405          11071 	.byte	132,5
00002426 0a            11072 	.byte	10
00002427 01            11073 	.byte	1
00002428 00000000*     11074 	.word	.LDW_304ee70
0000242c 00            11075 	.byte	0
0000242d 016c          11076 	.byte	1,108
                       11077 
                       11078 .LDW_4c97de0:
0000242f 1d            11079 	.byte	29
00002430 00000000*     11080 	.word	.LDW401
00002434 00000000*     11081 	.word	.LDW501
                       11082 
                       11083 .LDW_4c97638:
00002438 04            11084 	.byte	4
00002439 75736853656e  11085 	.strz	"ushSensorDefect"
0000243f 736f72446566 
00002445 65637400 
00002449 8505          11086 	.byte	133,5
0000244b 0b            11087 	.byte	11
0000244c 01            11088 	.byte	1
0000244d 00000000*     11089 	.word	.LDW_4c864d8
00002451 00            11090 	.byte	0
00002452 00            11091 	.byte	0
00002453 016a          11092 	.byte	1,106
                       11093 
                       11094 .LDW_4c97690:
00002455 04            11095 	.byte	4
00002456 75634c6f6361  11096 	.strz	"ucLocalReDataTelType"
0000245c 6c5265446174 
00002462 6154656c5479 
00002468 706500 
0000246b 8605          11097 	.byte	134,5
0000246d 0a            11098 	.byte	10
0000246e 01            11099 	.byte	1
0000246f 00000000*     11100 	.word	.LDW_304ee70
00002473 00            11101 	.byte	0
00002474 00            11102 	.byte	0
00002475 016b          11103 	.byte	1,107
                       11104 
00002477 00            11105 	.byte	0
                       11106 
00002478 00            11107 	.byte	0
                       11108 
                       11109 .LDW_4cb8d70:
00002479 14            11110 	.byte	20
0000247a 756349735265  11111 	.strz	"ucIsReHwDefectPD"
00002480 487744656665 
00002486 6374504400 
0000248b c905          11112 	.byte	201,5
0000248d 07            11113 	.byte	7
0000248e 01            11114 	.byte	1

                                                                      Page 197
                                                              C:\Users\nhuliyap\AppData\Local\Temp\gh_00006641.s
0000248f 00000000*     11115 	.word	.LDW_304ee70
00002493 00000000*     11116 	.word	_ucIsReHwDefectPD
00002497 00000000*     11117 	.word	___ghs_eofn_ucIsReHwDefectPD
0000249b 0153          11118 	.byte	1,83
0000249d 828080800a    11119 	.byte	130,128,128,128,10
000024a2 08            11120 	.byte	8
000024a3 03            11121 	.byte	3
000024a4 08            11122 	.byte	8
000024a5 00            11123 	.byte	0
000024a6 00            11124 	.byte	0
000024a7 00            11125 	.byte	0
000024a8 01            11126 	.byte	1
000024a9 01            11127 	.byte	1
000024aa 00            11128 	.byte	0
000024ab 01            11129 	.byte	1
                       11130 
                       11131 	.section	.debug_frame
                       11132 .LDW_4e29870:
0000051c 00000000*     11133 	.word	.LDW_unq_60-.LDW_unq_5f
                       11134 .LDW_unq_5f:
00000520 00000000*     11135 	.word	.LDW_4c2b7e0
00000524 00000000*     11136 	.word	_ucIsReHwDefectPD
00000528 00000000*     11137 	.word	___ghs_eofn_ucIsReHwDefectPD-_ucIsReHwDefectPD
0000052c 44            11138 	.byte	68
0000052d 9f            11139 	.byte	159
0000052e 00            11140 	.byte	0
0000052f 40            11141 	.byte	64
00000530 9d            11142 	.byte	157
00000531 04            11143 	.byte	4
00000532 01            11144 	.byte	1
00000533 00000000*     11145 	.word	.LDW701
00000537 00            11146 	.byte	0
                       11147 .LDW_unq_60:
                       11148 	.section	.debug_line
00000ec9 000502        11149 	.byte	0,5,2
00000ecc 00000000*     11150 	.word	_ucIsReHwDefectPD
00000ed0 03            11151 	.byte	3
00000ed1 c905          11152 	.byte	201,5
00000ed3 02            11153 	.byte	2
00000ed4 00            11154 	.byte	0
00000ed5 01            11155 	.byte	1
00000ed6 06            11156 	.byte	6
00000ed7 24            11157 	.byte	36
00000ed8 000502        11158 	.byte	0,5,2
00000edb 00000000*     11159 	.word	.LDWlin139
00000edf 0b            11160 	.byte	11
00000ee0 0b            11161 	.byte	11
00000ee1 1b            11162 	.byte	27
00000ee2 0b            11163 	.byte	11
00000ee3 000502        11164 	.byte	0,5,2
00000ee6 00000000*     11165 	.word	.LDWlin140
00000eea 0b            11166 	.byte	11
00000eeb 02            11167 	.byte	2
00000eec 00            11168 	.byte	0
00000eed 0b            11169 	.byte	11
00000eee 0b            11170 	.byte	11
00000eef 0b            11171 	.byte	11
00000ef0 13            11172 	.byte	19
00000ef1 02            11173 	.byte	2
00000ef2 00            11174 	.byte	0
00000ef3 0b            11175 	.byte	11

                                                                      Page 198
                                                              C:\Users\nhuliyap\AppData\Local\Temp\gh_00006641.s
00000ef4 06            11176 	.byte	6
00000ef5 02            11177 	.byte	2
00000ef6 02            11178 	.byte	2
00000ef7 02            11179 	.byte	2
00000ef8 04            11180 	.byte	4
00000ef9 000101        11181 	.byte	0,1,1
                       11182 	.section	.debug_info
                       11183 .LDW_4c974d8:
000024ac 0f            11184 	.byte	15
000024ad 5a6f6d536c6f  11185 	.strz	"ZomSlot"
000024b3 7400 
000024b5 ca05          11186 	.byte	202,5
000024b7 0a            11187 	.byte	10
000024b8 01            11188 	.byte	1
000024b9 00000000*     11189 	.word	.LDW_304ee70
000024bd 00            11190 	.byte	0
000024be 0156          11191 	.byte	1,86
                       11192 
                       11193 .LDW_4c981d0:
000024c0 1d            11194 	.byte	29
000024c1 00000000*     11195 	.word	.LDW601
000024c5 00000000*     11196 	.word	.LDW701
                       11197 
                       11198 .LDW_4c97740:
000024c9 04            11199 	.byte	4
000024ca 756352657400  11200 	.strz	"ucRet"
000024d0 cb05          11201 	.byte	203,5
000024d2 0a            11202 	.byte	10
000024d3 01            11203 	.byte	1
000024d4 00000000*     11204 	.word	.LDW_304ee70
000024d8 00            11205 	.byte	0
000024d9 00            11206 	.byte	0
000024da 016d          11207 	.byte	1,109
                       11208 
000024dc 00            11209 	.byte	0
                       11210 
000024dd 00            11211 	.byte	0
                       11212 
                       11213 .LDW_4cb9360:
000024de 14            11214 	.byte	20
000024df 62497352654f  11215 	.strz	"bIsReOverTempPD"
000024e5 76657254656d 
000024eb 70504400 
000024ef d905          11216 	.byte	217,5
000024f1 09            11217 	.byte	9
000024f2 01            11218 	.byte	1
000024f3 00000000*     11219 	.word	.LDW_4c867f0
000024f7 00000000*     11220 	.word	_bIsReOverTempPD
000024fb 00000000*     11221 	.word	___ghs_eofn_bIsReOverTempPD
000024ff 0153          11222 	.byte	1,83
00002501 8280808008    11223 	.byte	130,128,128,128,8
00002506 04            11224 	.byte	4
00002507 03            11225 	.byte	3
00002508 04            11226 	.byte	4
00002509 00            11227 	.byte	0
0000250a 00            11228 	.byte	0
0000250b 00            11229 	.byte	0
0000250c 01            11230 	.byte	1
0000250d 01            11231 	.byte	1
0000250e 00            11232 	.byte	0
0000250f 01            11233 	.byte	1

                                                                      Page 199
                                                              C:\Users\nhuliyap\AppData\Local\Temp\gh_00006641.s
                       11234 
                       11235 	.section	.debug_frame
                       11236 .LDW_4e29570:
00000538 00000000*     11237 	.word	.LDW_unq_62-.LDW_unq_61
                       11238 .LDW_unq_61:
0000053c 00000000*     11239 	.word	.LDW_4c2b7e0
00000540 00000000*     11240 	.word	_bIsReOverTempPD
00000544 00000000*     11241 	.word	___ghs_eofn_bIsReOverTempPD-_bIsReOverTempPD
00000548 44            11242 	.byte	68
00000549 9f            11243 	.byte	159
0000054a 00            11244 	.byte	0
0000054b 01            11245 	.byte	1
0000054c 00000000*     11246 	.word	.LDW901
00000550 44            11247 	.byte	68
00000551 df            11248 	.byte	223
00000552 00            11249 	.byte	0
00000553 00            11250 	.byte	0
                       11251 .LDW_unq_62:
                       11252 	.section	.debug_line
00000efc 000502        11253 	.byte	0,5,2
00000eff 00000000*     11254 	.word	_bIsReOverTempPD
00000f03 03            11255 	.byte	3
00000f04 d905          11256 	.byte	217,5
00000f06 02            11257 	.byte	2
00000f07 00            11258 	.byte	0
00000f08 01            11259 	.byte	1
00000f09 06            11260 	.byte	6
00000f0a 24            11261 	.byte	36
00000f0b 000502        11262 	.byte	0,5,2
00000f0e 00000000*     11263 	.word	.LDWlin141
00000f12 03            11264 	.byte	3
00000f13 06            11265 	.byte	6
00000f14 02            11266 	.byte	2
00000f15 00            11267 	.byte	0
00000f16 01            11268 	.byte	1
00000f17 02            11269 	.byte	2
00000f18 00            11270 	.byte	0
00000f19 0b            11271 	.byte	11
00000f1a 02            11272 	.byte	2
00000f1b 04            11273 	.byte	4
00000f1c 000101        11274 	.byte	0,1,1
                       11275 	.section	.debug_info
                       11276 .LDW_4c976e8:
00002510 0f            11277 	.byte	15
00002511 5a6f6d536c6f  11278 	.strz	"ZomSlot"
00002517 7400 
00002519 da05          11279 	.byte	218,5
0000251b 0a            11280 	.byte	10
0000251c 01            11281 	.byte	1
0000251d 00000000*     11282 	.word	.LDW_304ee70
00002521 00            11283 	.byte	0
00002522 0156          11284 	.byte	1,86
                       11285 
                       11286 .LDW_4c98260:
00002524 1d            11287 	.byte	29
00002525 00000000*     11288 	.word	.LDW801
00002529 00000000*     11289 	.word	.LDW901
                       11290 
                       11291 .LDW_4c97530:
0000252d 04            11292 	.byte	4
0000252e 6252657400    11293 	.strz	"bRet"

                                                                      Page 200
                                                              C:\Users\nhuliyap\AppData\Local\Temp\gh_00006641.s
00002533 db05          11294 	.byte	219,5
00002535 0c            11295 	.byte	12
00002536 01            11296 	.byte	1
00002537 00000000*     11297 	.word	.LDW_4c867f0
0000253b 00            11298 	.byte	0
0000253c 00            11299 	.byte	0
0000253d 015a          11300 	.byte	1,90
                       11301 
0000253f 00            11302 	.byte	0
                       11303 
00002540 00            11304 	.byte	0
                       11305 
                       11306 .LDW_4cb96f0:
00002541 14            11307 	.byte	20
00002542 62497352654c  11308 	.strz	"bIsReLowLifeTimePD"
00002548 6f774c696665 
0000254e 54696d655044 
00002554 00 
00002555 e605          11309 	.byte	230,5
00002557 09            11310 	.byte	9
00002558 01            11311 	.byte	1
00002559 00000000*     11312 	.word	.LDW_4c867f0
0000255d 00000000*     11313 	.word	_bIsReLowLifeTimePD
00002561 00000000*     11314 	.word	___ghs_eofn_bIsReLowLifeTimePD
00002565 0153          11315 	.byte	1,83
00002567 8280808008    11316 	.byte	130,128,128,128,8
0000256c 04            11317 	.byte	4
0000256d 03            11318 	.byte	3
0000256e 04            11319 	.byte	4
0000256f 00            11320 	.byte	0
00002570 00            11321 	.byte	0
00002571 00            11322 	.byte	0
00002572 01            11323 	.byte	1
00002573 01            11324 	.byte	1
00002574 00            11325 	.byte	0
00002575 01            11326 	.byte	1
                       11327 
                       11328 	.section	.debug_frame
                       11329 .LDW_4e29a30:
00000554 00000000*     11330 	.word	.LDW_unq_64-.LDW_unq_63
                       11331 .LDW_unq_63:
00000558 00000000*     11332 	.word	.LDW_4c2b7e0
0000055c 00000000*     11333 	.word	_bIsReLowLifeTimePD
00000560 00000000*     11334 	.word	___ghs_eofn_bIsReLowLifeTimePD-_bIsReLowLifeTimePD
00000564 44            11335 	.byte	68
00000565 9f            11336 	.byte	159
00000566 00            11337 	.byte	0
00000567 01            11338 	.byte	1
00000568 00000000*     11339 	.word	.LDW111
0000056c 44            11340 	.byte	68
0000056d df            11341 	.byte	223
0000056e 00            11342 	.byte	0
0000056f 00            11343 	.byte	0
                       11344 .LDW_unq_64:
                       11345 	.section	.debug_line
00000f1f 000502        11346 	.byte	0,5,2
00000f22 00000000*     11347 	.word	_bIsReLowLifeTimePD
00000f26 03            11348 	.byte	3
00000f27 e605          11349 	.byte	230,5
00000f29 02            11350 	.byte	2
00000f2a 00            11351 	.byte	0

                                                                      Page 201
                                                              C:\Users\nhuliyap\AppData\Local\Temp\gh_00006641.s
00000f2b 01            11352 	.byte	1
00000f2c 06            11353 	.byte	6
00000f2d 24            11354 	.byte	36
00000f2e 000502        11355 	.byte	0,5,2
00000f31 00000000*     11356 	.word	.LDWlin142
00000f35 03            11357 	.byte	3
00000f36 06            11358 	.byte	6
00000f37 02            11359 	.byte	2
00000f38 00            11360 	.byte	0
00000f39 01            11361 	.byte	1
00000f3a 02            11362 	.byte	2
00000f3b 00            11363 	.byte	0
00000f3c 0b            11364 	.byte	11
00000f3d 02            11365 	.byte	2
00000f3e 04            11366 	.byte	4
00000f3f 000101        11367 	.byte	0,1,1
                       11368 	.section	.debug_info
                       11369 .LDW_4c97798:
00002576 0f            11370 	.byte	15
00002577 5a6f6d536c6f  11371 	.strz	"ZomSlot"
0000257d 7400 
0000257f e705          11372 	.byte	231,5
00002581 0a            11373 	.byte	10
00002582 01            11374 	.byte	1
00002583 00000000*     11375 	.word	.LDW_304ee70
00002587 00            11376 	.byte	0
00002588 0156          11377 	.byte	1,86
                       11378 
                       11379 .LDW_4c97ff0:
0000258a 1d            11380 	.byte	29
0000258b 00000000*     11381 	.word	.LDW011
0000258f 00000000*     11382 	.word	.LDW111
                       11383 
                       11384 .LDW_4c978a0:
00002593 04            11385 	.byte	4
00002594 6252657400    11386 	.strz	"bRet"
00002599 e805          11387 	.byte	232,5
0000259b 0c            11388 	.byte	12
0000259c 01            11389 	.byte	1
0000259d 00000000*     11390 	.word	.LDW_4c867f0
000025a1 00            11391 	.byte	0
000025a2 00            11392 	.byte	0
000025a3 015a          11393 	.byte	1,90
                       11394 
000025a5 00            11395 	.byte	0
                       11396 
000025a6 00            11397 	.byte	0
                       11398 
                       11399 .LDW_4cb8c40:
000025a7 14            11400 	.byte	20
000025a8 474554756350  11401 	.strz	"GETucPatmoPD"
000025ae 61746d6f5044 
000025b4 00 
000025b5 f305          11402 	.byte	243,5
000025b7 07            11403 	.byte	7
000025b8 01            11404 	.byte	1
000025b9 00000000*     11405 	.word	.LDW_304ee70
000025bd 00000000*     11406 	.word	_GETucPatmoPD
000025c1 00000000*     11407 	.word	___ghs_eofn_GETucPatmoPD
000025c5 0153          11408 	.byte	1,83
000025c7 02            11409 	.byte	2

                                                                      Page 202
                                                              C:\Users\nhuliyap\AppData\Local\Temp\gh_00006641.s
000025c8 00            11410 	.byte	0
000025c9 02            11411 	.byte	2
000025ca 00            11412 	.byte	0
000025cb 00            11413 	.byte	0
000025cc 00            11414 	.byte	0
000025cd 00            11415 	.byte	0
000025ce 01            11416 	.byte	1
000025cf 01            11417 	.byte	1
000025d0 00            11418 	.byte	0
000025d1 01            11419 	.byte	1
                       11420 
                       11421 	.section	.debug_frame
                       11422 .LDW_4d0cf40:
00000570 00000000*     11423 	.word	.LDW_unq_66-.LDW_unq_65
                       11424 .LDW_unq_65:
00000574 00000000*     11425 	.word	.LDW_4c2b7e0
00000578 00000000*     11426 	.word	_GETucPatmoPD
0000057c 00000000*     11427 	.word	___ghs_eofn_GETucPatmoPD-_GETucPatmoPD
00000580 01            11428 	.byte	1
00000581 00000000*     11429 	.word	.LDW79
00000585 00            11430 	.byte	0
00000586 00            11431 	.byte	0
00000587 00            11432 	.byte	0
                       11433 .LDW_unq_66:
                       11434 	.section	.debug_line
00000f42 000502        11435 	.byte	0,5,2
00000f45 00000000*     11436 	.word	_GETucPatmoPD
00000f49 06            11437 	.byte	6
00000f4a 03            11438 	.byte	3
00000f4b f505          11439 	.byte	245,5
00000f4d 02            11440 	.byte	2
00000f4e 00            11441 	.byte	0
00000f4f 01            11442 	.byte	1
00000f50 000502        11443 	.byte	0,5,2
00000f53 00000000*     11444 	.word	.LDWlin100
00000f57 02            11445 	.byte	2
00000f58 00            11446 	.byte	0
00000f59 0c            11447 	.byte	12
00000f5a 0b            11448 	.byte	11
00000f5b 0c            11449 	.byte	12
00000f5c 02            11450 	.byte	2
00000f5d 00            11451 	.byte	0
00000f5e 0b            11452 	.byte	11
00000f5f 02            11453 	.byte	2
00000f60 02            11454 	.byte	2
00000f61 000101        11455 	.byte	0,1,1
                       11456 	.section	.debug_info
                       11457 .LDW_4c98080:
000025d2 1d            11458 	.byte	29
000025d3 00000000*     11459 	.word	.LDW69
000025d7 00000000*     11460 	.word	.LDW79
                       11461 
                       11462 .LDW_4c977f0:
000025db 04            11463 	.byte	4
000025dc 72657400      11464 	.strz	"ret"
000025e0 f505          11465 	.byte	245,5
000025e2 0a            11466 	.byte	10
000025e3 01            11467 	.byte	1
000025e4 00000000*     11468 	.word	.LDW_304ee70
000025e8 00            11469 	.byte	0
000025e9 00            11470 	.byte	0

                                                                      Page 203
                                                              C:\Users\nhuliyap\AppData\Local\Temp\gh_00006641.s
000025ea 015a          11471 	.byte	1,90
                       11472 
000025ec 00            11473 	.byte	0
                       11474 
000025ed 00            11475 	.byte	0
                       11476 
                       11477 .LDW_4cb99e8:
000025ee 13            11478 	.byte	19
000025ef 505554756350  11479 	.strz	"PUTucPatmoPD"
000025f5 61746d6f5044 
000025fb 00 
000025fc ff05          11480 	.byte	255,5
000025fe 06            11481 	.byte	6
000025ff 01            11482 	.byte	1
00002600 00000000*     11483 	.word	_PUTucPatmoPD
00002604 00000000*     11484 	.word	___ghs_eofn_PUTucPatmoPD
00002608 0153          11485 	.byte	1,83
0000260a 02            11486 	.byte	2
0000260b 00            11487 	.byte	0
0000260c 02            11488 	.byte	2
0000260d 00            11489 	.byte	0
0000260e 00            11490 	.byte	0
0000260f 00            11491 	.byte	0
00002610 00            11492 	.byte	0
00002611 01            11493 	.byte	1
00002612 01            11494 	.byte	1
00002613 00            11495 	.byte	0
00002614 01            11496 	.byte	1
                       11497 
                       11498 	.section	.debug_frame
                       11499 .LDW_4ccc568:
00000588 00000000*     11500 	.word	.LDW_unq_68-.LDW_unq_67
                       11501 .LDW_unq_67:
0000058c 00000000*     11502 	.word	.LDW_4c2b7e0
00000590 00000000*     11503 	.word	_PUTucPatmoPD
00000594 00000000*     11504 	.word	___ghs_eofn_PUTucPatmoPD-_PUTucPatmoPD
00000598 01            11505 	.byte	1
00000599 00000000*     11506 	.word	.LDW11
0000059d 00            11507 	.byte	0
0000059e 00            11508 	.byte	0
0000059f 00            11509 	.byte	0
                       11510 .LDW_unq_68:
                       11511 	.section	.debug_line
00000f64 000502        11512 	.byte	0,5,2
00000f67 00000000*     11513 	.word	_PUTucPatmoPD
00000f6b 06            11514 	.byte	6
00000f6c 03            11515 	.byte	3
00000f6d 8006          11516 	.byte	128,6
00000f6f 02            11517 	.byte	2
00000f70 00            11518 	.byte	0
00000f71 01            11519 	.byte	1
00000f72 000502        11520 	.byte	0,5,2
00000f75 00000000*     11521 	.word	.LDWlin1
00000f79 0b            11522 	.byte	11
00000f7a 02            11523 	.byte	2
00000f7b 02            11524 	.byte	2
00000f7c 000101        11525 	.byte	0,1,1
                       11526 	.section	.debug_info
                       11527 .LDW_4c97848:
00002615 0f            11528 	.byte	15
00002616 7563496e4461  11529 	.strz	"ucInData"

                                                                      Page 204
                                                              C:\Users\nhuliyap\AppData\Local\Temp\gh_00006641.s
0000261c 746100 
0000261f 8006          11530 	.byte	128,6
00002621 0a            11531 	.byte	10
00002622 01            11532 	.byte	1
00002623 00000000*     11533 	.word	.LDW_304ee70
00002627 00            11534 	.byte	0
00002628 0156          11535 	.byte	1,86
                       11536 
                       11537 .LDW_4c984a0:
0000262a 1d            11538 	.byte	29
0000262b 00000000*     11539 	.word	.LDW01
0000262f 00000000*     11540 	.word	.LDW11
                       11541 
00002633 00            11542 	.byte	0
                       11543 
00002634 00            11544 	.byte	0
                       11545 
                       11546 .LDW_4cb92c8:
00002635 13            11547 	.byte	19
00002636 43616c635061  11548 	.strz	"CalcPatmo"
0000263c 746d6f00 
00002640 8406          11549 	.byte	132,6
00002642 06            11550 	.byte	6
00002643 01            11551 	.byte	1
00002644 00000000*     11552 	.word	_CalcPatmo
00002648 00000000*     11553 	.word	___ghs_eofn_CalcPatmo
0000264c 0153          11554 	.byte	1,83
0000264e 828080c00b    11555 	.byte	130,128,128,192,11
00002653 10            11556 	.byte	16
00002654 03            11557 	.byte	3
00002655 14            11558 	.byte	20
00002656 00            11559 	.byte	0
00002657 00            11560 	.byte	0
00002658 00            11561 	.byte	0
00002659 01            11562 	.byte	1
0000265a 01            11563 	.byte	1
0000265b 00            11564 	.byte	0
0000265c 01            11565 	.byte	1
                       11566 
                       11567 	.section	.debug_frame
                       11568 .LDW_4e296b0:
000005a0 00000000*     11569 	.word	.LDW_unq_6a-.LDW_unq_69
                       11570 .LDW_unq_69:
000005a4 00000000*     11571 	.word	.LDW_4c2b7e0
000005a8 00000000*     11572 	.word	_CalcPatmo
000005ac 00000000*     11573 	.word	___ghs_eofn_CalcPatmo-_CalcPatmo
000005b0 44            11574 	.byte	68
000005b1 9f            11575 	.byte	159
000005b2 03            11576 	.byte	3
000005b3 40            11577 	.byte	64
000005b4 9d            11578 	.byte	157
000005b5 07            11579 	.byte	7
000005b6 40            11580 	.byte	64
000005b7 9c            11581 	.byte	156
000005b8 0b            11582 	.byte	11
000005b9 40            11583 	.byte	64
000005ba 9b            11584 	.byte	155
000005bb 0f            11585 	.byte	15
000005bc 01            11586 	.byte	1
000005bd 00000000*     11587 	.word	.LDW311
000005c1 00            11588 	.byte	0

                                                                      Page 205
                                                              C:\Users\nhuliyap\AppData\Local\Temp\gh_00006641.s
000005c2 00            11589 	.byte	0
000005c3 00            11590 	.byte	0
                       11591 .LDW_unq_6a:
                       11592 	.section	.debug_line
00000f7f 000502        11593 	.byte	0,5,2
00000f82 00000000*     11594 	.word	_CalcPatmo
00000f86 03            11595 	.byte	3
00000f87 8406          11596 	.byte	132,6
00000f89 02            11597 	.byte	2
00000f8a 00            11598 	.byte	0
00000f8b 01            11599 	.byte	1
00000f8c 06            11600 	.byte	6
00000f8d 000502        11601 	.byte	0,5,2
00000f90 00000000*     11602 	.word	.LDWlin143
00000f94 03            11603 	.byte	3
00000f95 06            11604 	.byte	6
00000f96 02            11605 	.byte	2
00000f97 00            11606 	.byte	0
00000f98 01            11607 	.byte	1
00000f99 000502        11608 	.byte	0,5,2
00000f9c 00000000*     11609 	.word	.LDWlin144
00000fa0 03            11610 	.byte	3
00000fa1 7f            11611 	.byte	127
00000fa2 02            11612 	.byte	2
00000fa3 00            11613 	.byte	0
00000fa4 01            11614 	.byte	1
00000fa5 2c            11615 	.byte	44
00000fa6 000502        11616 	.byte	0,5,2
00000fa9 00000000*     11617 	.word	.LDWlin145
00000fad 02            11618 	.byte	2
00000fae 00            11619 	.byte	0
00000faf 0b            11620 	.byte	11
00000fb0 000502        11621 	.byte	0,5,2
00000fb3 00000000*     11622 	.word	.LDWlin146
00000fb7 0c            11623 	.byte	12
00000fb8 000502        11624 	.byte	0,5,2
00000fbb 00000000*     11625 	.word	.LDWlin147
00000fbf 02            11626 	.byte	2
00000fc0 00            11627 	.byte	0
00000fc1 0b            11628 	.byte	11
00000fc2 000502        11629 	.byte	0,5,2
00000fc5 00000000*     11630 	.word	.LDWlin148
00000fc9 02            11631 	.byte	2
00000fca 00            11632 	.byte	0
00000fcb 0b            11633 	.byte	11
00000fcc 000502        11634 	.byte	0,5,2
00000fcf 00000000*     11635 	.word	.LDWlin149
00000fd3 0b            11636 	.byte	11
00000fd4 02            11637 	.byte	2
00000fd5 00            11638 	.byte	0
00000fd6 0b            11639 	.byte	11
00000fd7 1b            11640 	.byte	27
00000fd8 000502        11641 	.byte	0,5,2
00000fdb 00000000*     11642 	.word	.LDWlin150
00000fdf 0c            11643 	.byte	12
00000fe0 000502        11644 	.byte	0,5,2
00000fe3 00000000*     11645 	.word	.LDWlin151
00000fe7 0c            11646 	.byte	12
00000fe8 000502        11647 	.byte	0,5,2
00000feb 00000000*     11648 	.word	.LDWlin152
00000fef 0c            11649 	.byte	12

                                                                      Page 206
                                                              C:\Users\nhuliyap\AppData\Local\Temp\gh_00006641.s
00000ff0 02            11650 	.byte	2
00000ff1 00            11651 	.byte	0
00000ff2 0b            11652 	.byte	11
00000ff3 1b            11653 	.byte	27
00000ff4 0b            11654 	.byte	11
00000ff5 0b            11655 	.byte	11
00000ff6 02            11656 	.byte	2
00000ff7 00            11657 	.byte	0
00000ff8 0b            11658 	.byte	11
00000ff9 02            11659 	.byte	2
00000ffa 04            11660 	.byte	4
00000ffb 000101        11661 	.byte	0,1,1
                       11662 	.section	.debug_info
                       11663 .LDW_4c981a0:
0000265d 1d            11664 	.byte	29
0000265e 00000000*     11665 	.word	.LDW211
00002662 00000000*     11666 	.word	.LDW311
                       11667 
                       11668 .LDW_4c97480:
00002666 04            11669 	.byte	4
00002667 7563466d6d6f  11670 	.strz	"ucFmmotmax"
0000266d 746d617800 
00002672 8706          11671 	.byte	135,6
00002674 0a            11672 	.byte	10
00002675 01            11673 	.byte	1
00002676 00000000*     11674 	.word	.LDW_304ee70
0000267a 00            11675 	.byte	0
0000267b 00            11676 	.byte	0
0000267c 0273          11677 	.byte	2,115
0000267e 03            11678 	.byte	3
                       11679 
                       11680 .LDW_4c97588:
0000267f 04            11681 	.byte	4
00002680 75736843616c  11682 	.strz	"ushCalcValue"
00002686 6356616c7565 
0000268c 00 
0000268d 8806          11683 	.byte	136,6
0000268f 0b            11684 	.byte	11
00002690 01            11685 	.byte	1
00002691 00000000*     11686 	.word	.LDW_4c864d8
00002695 00            11687 	.byte	0
00002696 00            11688 	.byte	0
00002697 0156          11689 	.byte	1,86
                       11690 
                       11691 .LDW_4c975e0:
00002699 04            11692 	.byte	4
0000269a 756331736563  11693 	.strz	"uc1secTimer"
000026a0 54696d657200 
000026a6 8606          11694 	.byte	134,6
000026a8 11            11695 	.byte	17
000026a9 01            11696 	.byte	1
000026aa 00000000*     11697 	.word	.LDW_304ee70
000026ae 00            11698 	.byte	0
000026af 00            11699 	.byte	0
000026b0 0503          11700 	.byte	5,3
000026b2 00000000*     11701 	.word	_uc1secTimer.CalcPatmo.C.3A.5C_ECU2.5CECU_Rivian_A1.5CTarget.5Crepo_projects.5CpRealEcu.5CcR_LATEST.5Cmake.5Coutput.5Cobjects.5Cprocdat..17
                       11702 
                       11703 .LDW_4cbbe10:
000026b6 04            11704 	.byte	4
000026b7 756c4d65616e  11705 	.strz	"ulMeanValue"
000026bd 56616c756500 

                                                                      Page 207
                                                              C:\Users\nhuliyap\AppData\Local\Temp\gh_00006641.s
000026c3 8906          11706 	.byte	137,6
000026c5 12            11707 	.byte	18
000026c6 01            11708 	.byte	1
000026c7 00000000*     11709 	.word	.LDW_4bf1ae8
000026cb 00            11710 	.byte	0
000026cc 00            11711 	.byte	0
000026cd 0503          11712 	.byte	5,3
000026cf 00000000*     11713 	.word	_ulMeanValue.CalcPatmo.C.3A.5C_ECU2.5CECU_Rivian_A1.5CTarget.5Crepo_projects.5CpRealEcu.5CcR_LATEST.5Cmake.5Coutput.5Cobjects.5Cprocdat..18
                       11714 
000026d3 00            11715 	.byte	0
                       11716 
000026d4 00            11717 	.byte	0
                       11718 
                       11719 .LDW_4cb8cd8:
000026d5 13            11720 	.byte	19
000026d6 53617665526f  11721 	.strz	"SaveRotatS"
000026dc 7461745300 
000026e1 a106          11722 	.byte	161,6
000026e3 06            11723 	.byte	6
000026e4 01            11724 	.byte	1
000026e5 00000000*     11725 	.word	_SaveRotatS
000026e9 00000000*     11726 	.word	___ghs_eofn_SaveRotatS
000026ed 0153          11727 	.byte	1,83
000026ef 02            11728 	.byte	2
000026f0 00            11729 	.byte	0
000026f1 02            11730 	.byte	2
000026f2 00            11731 	.byte	0
000026f3 00            11732 	.byte	0
000026f4 00            11733 	.byte	0
000026f5 00            11734 	.byte	0
000026f6 01            11735 	.byte	1
000026f7 01            11736 	.byte	1
000026f8 00            11737 	.byte	0
000026f9 01            11738 	.byte	1
                       11739 
                       11740 	.section	.debug_frame
                       11741 .LDW_4e294f0:
000005c4 00000000*     11742 	.word	.LDW_unq_6c-.LDW_unq_6b
                       11743 .LDW_unq_6b:
000005c8 00000000*     11744 	.word	.LDW_4c2b7e0
000005cc 00000000*     11745 	.word	_SaveRotatS
000005d0 00000000*     11746 	.word	___ghs_eofn_SaveRotatS-_SaveRotatS
000005d4 01            11747 	.byte	1
000005d5 00000000*     11748 	.word	.LDW511
000005d9 00            11749 	.byte	0
000005da 00            11750 	.byte	0
000005db 00            11751 	.byte	0
                       11752 .LDW_unq_6c:
                       11753 	.section	.debug_line
00000ffe 000502        11754 	.byte	0,5,2
00001001 00000000*     11755 	.word	_SaveRotatS
00001005 03            11756 	.byte	3
00001006 a006          11757 	.byte	160,6
00001008 02            11758 	.byte	2
00001009 00            11759 	.byte	0
0000100a 01            11760 	.byte	1
0000100b 06            11761 	.byte	6
0000100c 000502        11762 	.byte	0,5,2
0000100f 00000000*     11763 	.word	.LDWlin153
00001013 0b            11764 	.byte	11
00001014 1b            11765 	.byte	27

                                                                      Page 208
                                                              C:\Users\nhuliyap\AppData\Local\Temp\gh_00006641.s
00001015 23            11766 	.byte	35
00001016 02            11767 	.byte	2
00001017 02            11768 	.byte	2
00001018 000101        11769 	.byte	0,1,1
                       11770 	.section	.debug_info
                       11771 .LDW_4c97fc0:
000026fa 1d            11772 	.byte	29
000026fb 00000000*     11773 	.word	.LDW411
000026ff 00000000*     11774 	.word	.LDW511
                       11775 
00002703 00            11776 	.byte	0
                       11777 
00002704 00            11778 	.byte	0
                       11779 
                       11780 .LDW_4cb9788:
00002705 13            11781 	.byte	19
00002706 507574526f74  11782 	.strz	"PutRotatSDataInBuffer"
0000270c 617453446174 
00002712 61496e427566 
00002718 66657200 
0000271c a606          11783 	.byte	166,6
0000271e 06            11784 	.byte	6
0000271f 01            11785 	.byte	1
00002720 00000000*     11786 	.word	_PutRotatSDataInBuffer
00002724 00000000*     11787 	.word	___ghs_eofn_PutRotatSDataInBuffer
00002728 0153          11788 	.byte	1,83
0000272a 828080800a    11789 	.byte	130,128,128,128,10
0000272f 08            11790 	.byte	8
00002730 03            11791 	.byte	3
00002731 08            11792 	.byte	8
00002732 00            11793 	.byte	0
00002733 00            11794 	.byte	0
00002734 00            11795 	.byte	0
00002735 01            11796 	.byte	1
00002736 01            11797 	.byte	1
00002737 00            11798 	.byte	0
00002738 01            11799 	.byte	1
                       11800 
                       11801 	.section	.debug_frame
                       11802 .LDW_4e295f0:
000005dc 00000000*     11803 	.word	.LDW_unq_6e-.LDW_unq_6d
                       11804 .LDW_unq_6d:
000005e0 00000000*     11805 	.word	.LDW_4c2b7e0
000005e4 00000000*     11806 	.word	_PutRotatSDataInBuffer
000005e8 00000000*     11807 	.word	___ghs_eofn_PutRotatSDataInBuffer-_PutRotatSDataInBuffer
000005ec 44            11808 	.byte	68
000005ed 9f            11809 	.byte	159
000005ee 00            11810 	.byte	0
000005ef 40            11811 	.byte	64
000005f0 9d            11812 	.byte	157
000005f1 04            11813 	.byte	4
000005f2 01            11814 	.byte	1
000005f3 00000000*     11815 	.word	.LDW711
000005f7 00            11816 	.byte	0
                       11817 .LDW_unq_6e:
                       11818 	.section	.debug_line
0000101b 000502        11819 	.byte	0,5,2
0000101e 00000000*     11820 	.word	_PutRotatSDataInBuffer
00001022 03            11821 	.byte	3
00001023 a606          11822 	.byte	166,6
00001025 02            11823 	.byte	2

                                                                      Page 209
                                                              C:\Users\nhuliyap\AppData\Local\Temp\gh_00006641.s
00001026 00            11824 	.byte	0
00001027 01            11825 	.byte	1
00001028 06            11826 	.byte	6
00001029 000502        11827 	.byte	0,5,2
0000102c 00000000*     11828 	.word	.LDWlin154
00001030 0c            11829 	.byte	12
00001031 000502        11830 	.byte	0,5,2
00001034 00000000*     11831 	.word	.LDWlin155
00001038 02            11832 	.byte	2
00001039 00            11833 	.byte	0
0000103a 0b            11834 	.byte	11
0000103b 2c            11835 	.byte	44
0000103c 03            11836 	.byte	3
0000103d 7f            11837 	.byte	127
0000103e 02            11838 	.byte	2
0000103f 08            11839 	.byte	8
00001040 01            11840 	.byte	1
00001041 33            11841 	.byte	51
00001042 0b            11842 	.byte	11
00001043 03            11843 	.byte	3
00001044 7f            11844 	.byte	127
00001045 02            11845 	.byte	2
00001046 0c            11846 	.byte	12
00001047 01            11847 	.byte	1
00001048 000502        11848 	.byte	0,5,2
0000104b 00000000*     11849 	.word	.LDWlin156
0000104f 0c            11850 	.byte	12
00001050 0b            11851 	.byte	11
00001051 000502        11852 	.byte	0,5,2
00001054 00000000*     11853 	.word	.LDWlin157
00001058 0c            11854 	.byte	12
00001059 02            11855 	.byte	2
0000105a 00            11856 	.byte	0
0000105b 0b            11857 	.byte	11
0000105c 1b            11858 	.byte	27
0000105d 43            11859 	.byte	67
0000105e 02            11860 	.byte	2
0000105f 04            11861 	.byte	4
00001060 000101        11862 	.byte	0,1,1
                       11863 	.section	.debug_info
                       11864 .LDW_4cbbe68:
00002739 0f            11865 	.byte	15
0000273a 737052784461  11866 	.strz	"spRxDataIn"
00002740 7461496e00 
00002745 a706          11867 	.byte	167,6
00002747 19            11868 	.byte	25
00002748 01            11869 	.byte	1
00002749 00000000*     11870 	.word	.LDW_4c85d18
0000274d 00            11871 	.byte	0
0000274e 0156          11872 	.byte	1,86
                       11873 
                       11874 .LDW_4c983e0:
00002750 1d            11875 	.byte	29
00002751 00000000*     11876 	.word	.LDW611
00002755 00000000*     11877 	.word	.LDW711
                       11878 
                       11879 .LDW_4cbc0d0:
00002759 04            11880 	.byte	4
0000275a 6900          11881 	.strz	"i"
0000275c a806          11882 	.byte	168,6
0000275e 08            11883 	.byte	8

                                                                      Page 210
                                                              C:\Users\nhuliyap\AppData\Local\Temp\gh_00006641.s
0000275f 01            11884 	.byte	1
00002760 00000000*     11885 	.word	.LDW_4cbae20
00002764 00            11886 	.byte	0
00002765 00            11887 	.byte	0
00002766 0161          11888 	.byte	1,97
                       11889 
00002768 00            11890 	.byte	0
                       11891 
00002769 00            11892 	.byte	0
                       11893 
                       11894 .LDW_4cb9820:
0000276a 14            11895 	.byte	20
0000276b 70476574526f  11896 	.strz	"pGetRotatSDataTFromBuffer"
00002771 746174534461 
00002777 74615446726f 
0000277d 6d4275666665 
00002783 7200 
00002785 b606          11897 	.byte	182,6
00002787 0f            11898 	.byte	15
00002788 01            11899 	.byte	1
00002789 00000000*     11900 	.word	.LDW_4cba9c0
0000278d 00000000*     11901 	.word	_pGetRotatSDataTFromBuffer
00002791 00000000*     11902 	.word	___ghs_eofn_pGetRotatSDataTFromBuffer
00002795 0153          11903 	.byte	1,83
00002797 02            11904 	.byte	2
00002798 00            11905 	.byte	0
00002799 02            11906 	.byte	2
0000279a 00            11907 	.byte	0
0000279b 00            11908 	.byte	0
0000279c 00            11909 	.byte	0
0000279d 00            11910 	.byte	0
0000279e 01            11911 	.byte	1
0000279f 01            11912 	.byte	1
000027a0 00            11913 	.byte	0
000027a1 01            11914 	.byte	1
                       11915 
                       11916 	.section	.debug_frame
                       11917 .LDW_4e29230:
000005f8 00000000*     11918 	.word	.LDW_unq_70-.LDW_unq_6f
                       11919 .LDW_unq_6f:
000005fc 00000000*     11920 	.word	.LDW_4c2b7e0
00000600 00000000*     11921 	.word	_pGetRotatSDataTFromBuffer
00000604 00000000*     11922 	.word	___ghs_eofn_pGetRotatSDataTFromBuffer-_pGetRotatSDataTFromBuffer
00000608 01            11923 	.byte	1
00000609 00000000*     11924 	.word	.LDW911
0000060d 00            11925 	.byte	0
0000060e 00            11926 	.byte	0
0000060f 00            11927 	.byte	0
                       11928 .LDW_unq_70:
                       11929 	.section	.debug_line
00001063 000502        11930 	.byte	0,5,2
00001066 00000000*     11931 	.word	_pGetRotatSDataTFromBuffer
0000106a 03            11932 	.byte	3
0000106b b606          11933 	.byte	182,6
0000106d 02            11934 	.byte	2
0000106e 00            11935 	.byte	0
0000106f 01            11936 	.byte	1
00001070 06            11937 	.byte	6
00001071 13            11938 	.byte	19
00001072 06            11939 	.byte	6
00001073 000502        11940 	.byte	0,5,2

                                                                      Page 211
                                                              C:\Users\nhuliyap\AppData\Local\Temp\gh_00006641.s
00001076 00000000*     11941 	.word	.LDWlin158
0000107a 02            11942 	.byte	2
0000107b 00            11943 	.byte	0
0000107c 02            11944 	.byte	2
0000107d 02            11945 	.byte	2
0000107e 000101        11946 	.byte	0,1,1
                       11947 	.section	.debug_info
                       11948 .LDW_4cbbf70:
000027a2 0f            11949 	.byte	15
000027a3 756342756666  11950 	.strz	"ucBufferIndex"
000027a9 6572496e6465 
000027af 7800 
000027b1 b706          11951 	.byte	183,6
000027b3 0a            11952 	.byte	10
000027b4 01            11953 	.byte	1
000027b5 00000000*     11954 	.word	.LDW_304ee70
000027b9 00            11955 	.byte	0
000027ba 0156          11956 	.byte	1,86
                       11957 
                       11958 .LDW_4c980b0:
000027bc 1d            11959 	.byte	29
000027bd 00000000*     11960 	.word	.LDW811
000027c1 00000000*     11961 	.word	.LDW911
                       11962 
000027c5 00            11963 	.byte	0
                       11964 
000027c6 00            11965 	.byte	0
                       11966 
                       11967 .LDW_4cb9a80:
000027c7 14            11968 	.byte	20
000027c8 756347657452  11969 	.strz	"ucGetRotatSDataBufferIndex"
000027ce 6f7461745344 
000027d4 617461427566 
000027da 666572496e64 
000027e0 657800 
000027e3 bb06          11970 	.byte	187,6
000027e5 07            11971 	.byte	7
000027e6 01            11972 	.byte	1
000027e7 00000000*     11973 	.word	.LDW_304ee70
000027eb 00000000*     11974 	.word	_ucGetRotatSDataBufferIndex
000027ef 00000000*     11975 	.word	___ghs_eofn_ucGetRotatSDataBufferIndex
000027f3 0153          11976 	.byte	1,83
000027f5 02            11977 	.byte	2
000027f6 00            11978 	.byte	0
000027f7 02            11979 	.byte	2
000027f8 00            11980 	.byte	0
000027f9 00            11981 	.byte	0
000027fa 00            11982 	.byte	0
000027fb 00            11983 	.byte	0
000027fc 01            11984 	.byte	1
000027fd 01            11985 	.byte	1
000027fe 00            11986 	.byte	0
000027ff 01            11987 	.byte	1
                       11988 
                       11989 	.section	.debug_frame
                       11990 .LDW_4e28ff0:
00000610 00000000*     11991 	.word	.LDW_unq_72-.LDW_unq_71
                       11992 .LDW_unq_71:
00000614 00000000*     11993 	.word	.LDW_4c2b7e0
00000618 00000000*     11994 	.word	_ucGetRotatSDataBufferIndex
0000061c 00000000*     11995 	.word	___ghs_eofn_ucGetRotatSDataBufferIndex-_ucGetRotatSDataBufferIndex

                                                                      Page 212
                                                              C:\Users\nhuliyap\AppData\Local\Temp\gh_00006641.s
00000620 01            11996 	.byte	1
00000621 00000000*     11997 	.word	.LDW121
00000625 00            11998 	.byte	0
00000626 00            11999 	.byte	0
00000627 00            12000 	.byte	0
                       12001 .LDW_unq_72:
                       12002 	.section	.debug_line
00001081 000502        12003 	.byte	0,5,2
00001084 00000000*     12004 	.word	_ucGetRotatSDataBufferIndex
00001088 06            12005 	.byte	6
00001089 03            12006 	.byte	3
0000108a bb06          12007 	.byte	187,6
0000108c 02            12008 	.byte	2
0000108d 00            12009 	.byte	0
0000108e 01            12010 	.byte	1
0000108f 06            12011 	.byte	6
00001090 000502        12012 	.byte	0,5,2
00001093 00000000*     12013 	.word	.LDWlin159
00001097 02            12014 	.byte	2
00001098 00            12015 	.byte	0
00001099 02            12016 	.byte	2
0000109a 02            12017 	.byte	2
0000109b 000101        12018 	.byte	0,1,1
                       12019 	.section	.debug_info
                       12020 .LDW_4c98410:
00002800 1d            12021 	.byte	29
00002801 00000000*     12022 	.word	.LDW021
00002805 00000000*     12023 	.word	.LDW121
                       12024 
00002809 00            12025 	.byte	0
                       12026 
0000280a 00            12027 	.byte	0
                       12028 
                       12029 .LDW_4cb98b8:
0000280b 14            12030 	.byte	20
0000280c 757368476574  12031 	.strz	"ushGetRotatSVehSpeed"
00002812 526f74617453 
00002818 566568537065 
0000281e 656400 
00002821 bf06          12032 	.byte	191,6
00002823 08            12033 	.byte	8
00002824 01            12034 	.byte	1
00002825 00000000*     12035 	.word	.LDW_4c864d8
00002829 00000000*     12036 	.word	_ushGetRotatSVehSpeed
0000282d 00000000*     12037 	.word	___ghs_eofn_ushGetRotatSVehSpeed
00002831 0153          12038 	.byte	1,83
00002833 02            12039 	.byte	2
00002834 00            12040 	.byte	0
00002835 02            12041 	.byte	2
00002836 00            12042 	.byte	0
00002837 00            12043 	.byte	0
00002838 00            12044 	.byte	0
00002839 00            12045 	.byte	0
0000283a 01            12046 	.byte	1
0000283b 01            12047 	.byte	1
0000283c 00            12048 	.byte	0
0000283d 01            12049 	.byte	1
                       12050 
                       12051 	.section	.debug_frame
                       12052 .LDW_4e28bf0:
00000628 00000000*     12053 	.word	.LDW_unq_74-.LDW_unq_73

                                                                      Page 213
                                                              C:\Users\nhuliyap\AppData\Local\Temp\gh_00006641.s
                       12054 .LDW_unq_73:
0000062c 00000000*     12055 	.word	.LDW_4c2b7e0
00000630 00000000*     12056 	.word	_ushGetRotatSVehSpeed
00000634 00000000*     12057 	.word	___ghs_eofn_ushGetRotatSVehSpeed-_ushGetRotatSVehSpeed
00000638 01            12058 	.byte	1
00000639 00000000*     12059 	.word	.LDW321
0000063d 00            12060 	.byte	0
0000063e 00            12061 	.byte	0
0000063f 00            12062 	.byte	0
                       12063 .LDW_unq_74:
                       12064 	.section	.debug_line
0000109e 000502        12065 	.byte	0,5,2
000010a1 00000000*     12066 	.word	_ushGetRotatSVehSpeed
000010a5 06            12067 	.byte	6
000010a6 03            12068 	.byte	3
000010a7 c006          12069 	.byte	192,6
000010a9 02            12070 	.byte	2
000010aa 00            12071 	.byte	0
000010ab 01            12072 	.byte	1
000010ac 000502        12073 	.byte	0,5,2
000010af 00000000*     12074 	.word	.LDWlin160
000010b3 02            12075 	.byte	2
000010b4 00            12076 	.byte	0
000010b5 0b            12077 	.byte	11
000010b6 000502        12078 	.byte	0,5,2
000010b9 00000000*     12079 	.word	.LDWlin161
000010bd 03            12080 	.byte	3
000010be 04            12081 	.byte	4
000010bf 02            12082 	.byte	2
000010c0 00            12083 	.byte	0
000010c1 01            12084 	.byte	1
000010c2 02            12085 	.byte	2
000010c3 00            12086 	.byte	0
000010c4 0b            12087 	.byte	11
000010c5 02            12088 	.byte	2
000010c6 02            12089 	.byte	2
000010c7 000101        12090 	.byte	0,1,1
                       12091 	.section	.debug_info
                       12092 .LDW_4c98170:
0000283e 1d            12093 	.byte	29
0000283f 00000000*     12094 	.word	.LDW221
00002843 00000000*     12095 	.word	.LDW321
                       12096 
                       12097 .LDW_4cbbfc8:
00002847 04            12098 	.byte	4
00002848 56656869636c  12099 	.strz	"VehicleSpeedValue"
0000284e 655370656564 
00002854 56616c756500 
0000285a c006          12100 	.byte	192,6
0000285c 0b            12101 	.byte	11
0000285d 01            12102 	.byte	1
0000285e 00000000*     12103 	.word	.LDW_4c864d8
00002862 00            12104 	.byte	0
00002863 00            12105 	.byte	0
00002864 015a          12106 	.byte	1,90
                       12107 
00002866 00            12108 	.byte	0
                       12109 
00002867 00            12110 	.byte	0
                       12111 
                       12112 .LDW_4cb8fd0:

                                                                      Page 214
                                                              C:\Users\nhuliyap\AppData\Local\Temp\gh_00006641.s
00002868 13            12113 	.byte	19
00002869 44434d5f496e  12114 	.strz	"DCM_InvIf_RxStatusFieldGetValue"
0000286f 7649665f5278 
00002875 537461747573 
0000287b 4669656c6447 
00002881 657456616c75 
00002887 6500 
00002889 ca06          12115 	.byte	202,6
0000288b 06            12116 	.byte	6
0000288c 01            12117 	.byte	1
0000288d 00000000*     12118 	.word	_DCM_InvIf_RxStatusFieldGetValue
00002891 00000000*     12119 	.word	___ghs_eofn_DCM_InvIf_RxStatusFieldGetValue
00002895 0153          12120 	.byte	1,83
00002897 02            12121 	.byte	2
00002898 00            12122 	.byte	0
00002899 02            12123 	.byte	2
0000289a 00            12124 	.byte	0
0000289b 00            12125 	.byte	0
0000289c 00            12126 	.byte	0
0000289d 00            12127 	.byte	0
0000289e 01            12128 	.byte	1
0000289f 01            12129 	.byte	1
000028a0 00            12130 	.byte	0
000028a1 01            12131 	.byte	1
                       12132 
                       12133 	.section	.debug_frame
                       12134 .LDW_4e28db0:
00000640 00000000*     12135 	.word	.LDW_unq_76-.LDW_unq_75
                       12136 .LDW_unq_75:
00000644 00000000*     12137 	.word	.LDW_4c2b7e0
00000648 00000000*     12138 	.word	_DCM_InvIf_RxStatusFieldGetValue
0000064c 00000000*     12139 	.word	___ghs_eofn_DCM_InvIf_RxStatusFieldGetValue-_DCM_InvIf_RxStatusFieldGetValue
00000650 01            12140 	.byte	1
00000651 00000000*     12141 	.word	.LDW521
00000655 00            12142 	.byte	0
00000656 00            12143 	.byte	0
00000657 00            12144 	.byte	0
                       12145 .LDW_unq_76:
                       12146 	.section	.debug_line
000010ca 000502        12147 	.byte	0,5,2
000010cd 00000000*     12148 	.word	_DCM_InvIf_RxStatusFieldGetValue
000010d1 03            12149 	.byte	3
000010d2 ca06          12150 	.byte	202,6
000010d4 02            12151 	.byte	2
000010d5 00            12152 	.byte	0
000010d6 01            12153 	.byte	1
000010d7 06            12154 	.byte	6
000010d8 000502        12155 	.byte	0,5,2
000010db 00000000*     12156 	.word	.LDWlin162
000010df 0b            12157 	.byte	11
000010e0 000502        12158 	.byte	0,5,2
000010e3 00000000*     12159 	.word	.LDWlin163
000010e7 02            12160 	.byte	2
000010e8 00            12161 	.byte	0
000010e9 0b            12162 	.byte	11
000010ea 23            12163 	.byte	35
000010eb 000502        12164 	.byte	0,5,2
000010ee 00000000*     12165 	.word	.LDWlin164
000010f2 0b            12166 	.byte	11
000010f3 0b            12167 	.byte	11
000010f4 0b            12168 	.byte	11

                                                                      Page 215
                                                              C:\Users\nhuliyap\AppData\Local\Temp\gh_00006641.s
000010f5 13            12169 	.byte	19
000010f6 1b            12170 	.byte	27
000010f7 02            12171 	.byte	2
000010f8 00            12172 	.byte	0
000010f9 0b            12173 	.byte	11
000010fa 02            12174 	.byte	2
000010fb 02            12175 	.byte	2
000010fc 000101        12176 	.byte	0,1,1
                       12177 	.section	.debug_info
                       12178 .LDW_4cbbd60:
000028a2 0f            12179 	.byte	15
000028a3 75385f537461  12180 	.strz	"u8_StatusFieldValue"
000028a9 747573466965 
000028af 6c6456616c75 
000028b5 6500 
000028b7 cb06          12181 	.byte	203,6
000028b9 0b            12182 	.byte	11
000028ba 01            12183 	.byte	1
000028bb 00000000*     12184 	.word	.LDW_4c85c38
000028bf 00            12185 	.byte	0
000028c0 016e          12186 	.byte	1,110
                       12187 
                       12188 .LDW_4c98500:
000028c2 1d            12189 	.byte	29
000028c3 00000000*     12190 	.word	.LDW421
000028c7 00000000*     12191 	.word	.LDW521
                       12192 
000028cb 00            12193 	.byte	0
                       12194 
000028cc 00            12195 	.byte	0
                       12196 
                       12197 .LDW_4cb9950:
000028cd 14            12198 	.byte	20
000028ce 44434d5f496e  12199 	.strz	"DCM_InvIf_PressLastRxIDGetValue"
000028d4 7649665f5072 
000028da 6573734c6173 
000028e0 745278494447 
000028e6 657456616c75 
000028ec 6500 
000028ee d606          12200 	.byte	214,6
000028f0 07            12201 	.byte	7
000028f1 01            12202 	.byte	1
000028f2 00000000*     12203 	.word	.LDW_304ee70
000028f6 00000000*     12204 	.word	_DCM_InvIf_PressLastRxIDGetValue
000028fa 00000000*     12205 	.word	___ghs_eofn_DCM_InvIf_PressLastRxIDGetValue
000028fe 0153          12206 	.byte	1,83
00002900 02            12207 	.byte	2
00002901 00            12208 	.byte	0
00002902 02            12209 	.byte	2
00002903 00            12210 	.byte	0
00002904 00            12211 	.byte	0
00002905 00            12212 	.byte	0
00002906 00            12213 	.byte	0
00002907 01            12214 	.byte	1
00002908 01            12215 	.byte	1
00002909 00            12216 	.byte	0
0000290a 01            12217 	.byte	1
                       12218 
                       12219 	.section	.debug_frame
                       12220 .LDW_4e29270:
00000658 00000000*     12221 	.word	.LDW_unq_78-.LDW_unq_77

                                                                      Page 216
                                                              C:\Users\nhuliyap\AppData\Local\Temp\gh_00006641.s
                       12222 .LDW_unq_77:
0000065c 00000000*     12223 	.word	.LDW_4c2b7e0
00000660 00000000*     12224 	.word	_DCM_InvIf_PressLastRxIDGetValue
00000664 00000000*     12225 	.word	___ghs_eofn_DCM_InvIf_PressLastRxIDGetValue-_DCM_InvIf_PressLastRxIDGetValue
00000668 01            12226 	.byte	1
00000669 00000000*     12227 	.word	.LDW721
0000066d 00            12228 	.byte	0
0000066e 00            12229 	.byte	0
0000066f 00            12230 	.byte	0
                       12231 .LDW_unq_78:
                       12232 	.section	.debug_line
000010ff 000502        12233 	.byte	0,5,2
00001102 00000000*     12234 	.word	_DCM_InvIf_PressLastRxIDGetValue
00001106 06            12235 	.byte	6
00001107 03            12236 	.byte	3
00001108 d606          12237 	.byte	214,6
0000110a 02            12238 	.byte	2
0000110b 00            12239 	.byte	0
0000110c 01            12240 	.byte	1
0000110d 02            12241 	.byte	2
0000110e 04            12242 	.byte	4
0000110f 000101        12243 	.byte	0,1,1
                       12244 	.section	.debug_info
                       12245 .LDW_4c98350:
0000290b 1d            12246 	.byte	29
0000290c 00000000*     12247 	.word	.LDW621
00002910 00000000*     12248 	.word	.LDW721
                       12249 
00002914 00            12250 	.byte	0
                       12251 
00002915 00            12252 	.byte	0
                       12253 
                       12254 .LDW_4cb9b18:
00002916 14            12255 	.byte	20
00002917 44434d5f496e  12256 	.strz	"DCM_InvIf_TempLastRxIDGetValue"
0000291d 7649665f5465 
00002923 6d704c617374 
00002929 527849444765 
0000292f 7456616c7565 
00002935 00 
00002936 da06          12257 	.byte	218,6
00002938 07            12258 	.byte	7
00002939 01            12259 	.byte	1
0000293a 00000000*     12260 	.word	.LDW_304dfd0
0000293e 00000000*     12261 	.word	_DCM_InvIf_TempLastRxIDGetValue
00002942 00000000*     12262 	.word	___ghs_eofn_DCM_InvIf_TempLastRxIDGetValue
00002946 0153          12263 	.byte	1,83
00002948 02            12264 	.byte	2
00002949 00            12265 	.byte	0
0000294a 02            12266 	.byte	2
0000294b 00            12267 	.byte	0
0000294c 00            12268 	.byte	0
0000294d 00            12269 	.byte	0
0000294e 00            12270 	.byte	0
0000294f 01            12271 	.byte	1
00002950 01            12272 	.byte	1
00002951 00            12273 	.byte	0
00002952 01            12274 	.byte	1
                       12275 
                       12276 	.section	.debug_frame
                       12277 .LDW_4e28e30:

                                                                      Page 217
                                                              C:\Users\nhuliyap\AppData\Local\Temp\gh_00006641.s
00000670 00000000*     12278 	.word	.LDW_unq_7a-.LDW_unq_79
                       12279 .LDW_unq_79:
00000674 00000000*     12280 	.word	.LDW_4c2b7e0
00000678 00000000*     12281 	.word	_DCM_InvIf_TempLastRxIDGetValue
0000067c 00000000*     12282 	.word	___ghs_eofn_DCM_InvIf_TempLastRxIDGetValue-_DCM_InvIf_TempLastRxIDGetValue
00000680 01            12283 	.byte	1
00000681 00000000*     12284 	.word	.LDW921
00000685 00            12285 	.byte	0
00000686 00            12286 	.byte	0
00000687 00            12287 	.byte	0
                       12288 .LDW_unq_7a:
                       12289 	.section	.debug_line
00001112 000502        12290 	.byte	0,5,2
00001115 00000000*     12291 	.word	_DCM_InvIf_TempLastRxIDGetValue
00001119 06            12292 	.byte	6
0000111a 03            12293 	.byte	3
0000111b da06          12294 	.byte	218,6
0000111d 02            12295 	.byte	2
0000111e 00            12296 	.byte	0
0000111f 01            12297 	.byte	1
00001120 02            12298 	.byte	2
00001121 04            12299 	.byte	4
00001122 000101        12300 	.byte	0,1,1
                       12301 	.section	.debug_info
                       12302 .LDW_4c97f60:
00002953 1d            12303 	.byte	29
00002954 00000000*     12304 	.word	.LDW821
00002958 00000000*     12305 	.word	.LDW921
                       12306 
0000295c 00            12307 	.byte	0
                       12308 
0000295d 00            12309 	.byte	0
                       12310 
                       12311 .LDW_4cb9230:
0000295e 13            12312 	.byte	19
0000295f 44434d5f496e  12313 	.strz	"DCM_InvIf_LastRxIDGetValue"
00002965 7649665f4c61 
0000296b 737452784944 
00002971 47657456616c 
00002977 756500 
0000297a de06          12314 	.byte	222,6
0000297c 06            12315 	.byte	6
0000297d 01            12316 	.byte	1
0000297e 00000000*     12317 	.word	_DCM_InvIf_LastRxIDGetValue
00002982 00000000*     12318 	.word	___ghs_eofn_DCM_InvIf_LastRxIDGetValue
00002986 0153          12319 	.byte	1,83
00002988 02            12320 	.byte	2
00002989 00            12321 	.byte	0
0000298a 02            12322 	.byte	2
0000298b 00            12323 	.byte	0
0000298c 00            12324 	.byte	0
0000298d 00            12325 	.byte	0
0000298e 00            12326 	.byte	0
0000298f 01            12327 	.byte	1
00002990 01            12328 	.byte	1
00002991 00            12329 	.byte	0
00002992 01            12330 	.byte	1
                       12331 
                       12332 	.section	.debug_frame
                       12333 .LDW_4e28df0:
00000688 00000000*     12334 	.word	.LDW_unq_7c-.LDW_unq_7b

                                                                      Page 218
                                                              C:\Users\nhuliyap\AppData\Local\Temp\gh_00006641.s
                       12335 .LDW_unq_7b:
0000068c 00000000*     12336 	.word	.LDW_4c2b7e0
00000690 00000000*     12337 	.word	_DCM_InvIf_LastRxIDGetValue
00000694 00000000*     12338 	.word	___ghs_eofn_DCM_InvIf_LastRxIDGetValue-_DCM_InvIf_LastRxIDGetValue
00000698 01            12339 	.byte	1
00000699 00000000*     12340 	.word	.LDW131
0000069d 00            12341 	.byte	0
0000069e 00            12342 	.byte	0
0000069f 00            12343 	.byte	0
                       12344 .LDW_unq_7c:
                       12345 	.section	.debug_line
00001125 000502        12346 	.byte	0,5,2
00001128 00000000*     12347 	.word	_DCM_InvIf_LastRxIDGetValue
0000112c 03            12348 	.byte	3
0000112d de06          12349 	.byte	222,6
0000112f 02            12350 	.byte	2
00001130 00            12351 	.byte	0
00001131 01            12352 	.byte	1
00001132 06            12353 	.byte	6
00001133 000502        12354 	.byte	0,5,2
00001136 00000000*     12355 	.word	.LDWlin165
0000113a 0b            12356 	.byte	11
0000113b 23            12357 	.byte	35
0000113c 23            12358 	.byte	35
0000113d 23            12359 	.byte	35
0000113e 23            12360 	.byte	35
0000113f 02            12361 	.byte	2
00001140 02            12362 	.byte	2
00001141 000101        12363 	.byte	0,1,1
                       12364 	.section	.debug_info
                       12365 .LDW_4cbc020:
00002993 0f            12366 	.byte	15
00002994 75385f4c6173  12367 	.strz	"u8_LastIdReceived"
0000299a 744964526563 
000029a0 656976656400 
000029a6 df06          12368 	.byte	223,6
000029a8 0b            12369 	.byte	11
000029a9 01            12370 	.byte	1
000029aa 00000000*     12371 	.word	.LDW_4c85c38
000029ae 00            12372 	.byte	0
000029af 016e          12373 	.byte	1,110
                       12374 
                       12375 .LDW_4c98380:
000029b1 1d            12376 	.byte	29
000029b2 00000000*     12377 	.word	.LDW031
000029b6 00000000*     12378 	.word	.LDW131
                       12379 
000029ba 00            12380 	.byte	0
                       12381 
000029bb 00            12382 	.byte	0
                       12383 
                       12384 .LDW_4cb8e08:
000029bc 14            12385 	.byte	20
000029bd 44434d5f496e  12386 	.strz	"DCM_InvIf_TelTypeCurrIDGetValue"
000029c3 7649665f5465 
000029c9 6c5479706543 
000029cf 757272494447 
000029d5 657456616c75 
000029db 6500 
000029dd e606          12387 	.byte	230,6
000029df 07            12388 	.byte	7

                                                                      Page 219
                                                              C:\Users\nhuliyap\AppData\Local\Temp\gh_00006641.s
000029e0 01            12389 	.byte	1
000029e1 00000000*     12390 	.word	.LDW_304ee70
000029e5 00000000*     12391 	.word	_DCM_InvIf_TelTypeCurrIDGetValue
000029e9 00000000*     12392 	.word	___ghs_eofn_DCM_InvIf_TelTypeCurrIDGetValue
000029ed 0153          12393 	.byte	1,83
000029ef 02            12394 	.byte	2
000029f0 00            12395 	.byte	0
000029f1 02            12396 	.byte	2
000029f2 00            12397 	.byte	0
000029f3 00            12398 	.byte	0
000029f4 00            12399 	.byte	0
000029f5 00            12400 	.byte	0
000029f6 01            12401 	.byte	1
000029f7 01            12402 	.byte	1
000029f8 00            12403 	.byte	0
000029f9 01            12404 	.byte	1
                       12405 
                       12406 	.section	.debug_frame
                       12407 .LDW_4e28bb0:
000006a0 00000000*     12408 	.word	.LDW_unq_7e-.LDW_unq_7d
                       12409 .LDW_unq_7d:
000006a4 00000000*     12410 	.word	.LDW_4c2b7e0
000006a8 00000000*     12411 	.word	_DCM_InvIf_TelTypeCurrIDGetValue
000006ac 00000000*     12412 	.word	___ghs_eofn_DCM_InvIf_TelTypeCurrIDGetValue-_DCM_InvIf_TelTypeCurrIDGetValue
000006b0 01            12413 	.byte	1
000006b1 00000000*     12414 	.word	.LDW331
000006b5 00            12415 	.byte	0
000006b6 00            12416 	.byte	0
000006b7 00            12417 	.byte	0
                       12418 .LDW_unq_7e:
                       12419 	.section	.debug_line
00001144 000502        12420 	.byte	0,5,2
00001147 00000000*     12421 	.word	_DCM_InvIf_TelTypeCurrIDGetValue
0000114b 06            12422 	.byte	6
0000114c 03            12423 	.byte	3
0000114d e606          12424 	.byte	230,6
0000114f 02            12425 	.byte	2
00001150 00            12426 	.byte	0
00001151 01            12427 	.byte	1
00001152 02            12428 	.byte	2
00001153 04            12429 	.byte	4
00001154 000101        12430 	.byte	0,1,1
                       12431 	.section	.debug_info
                       12432 .LDW_4c98050:
000029fa 1d            12433 	.byte	29
000029fb 00000000*     12434 	.word	.LDW231
000029ff 00000000*     12435 	.word	.LDW331
                       12436 
00002a03 00            12437 	.byte	0
                       12438 
00002a04 00            12439 	.byte	0
                       12440 
                       12441 .LDW_4cb9bb0:
00002a05 13            12442 	.byte	19
00002a06 44434d5f496e  12443 	.strz	"DCM_InvIf_RFTimeStampGetValue"
00002a0c 7649665f5246 
00002a12 54696d655374 
00002a18 616d70476574 
00002a1e 56616c756500 
00002a24 ea06          12444 	.byte	234,6
00002a26 06            12445 	.byte	6

                                                                      Page 220
                                                              C:\Users\nhuliyap\AppData\Local\Temp\gh_00006641.s
00002a27 01            12446 	.byte	1
00002a28 00000000*     12447 	.word	_DCM_InvIf_RFTimeStampGetValue
00002a2c 00000000*     12448 	.word	___ghs_eofn_DCM_InvIf_RFTimeStampGetValue
00002a30 0153          12449 	.byte	1,83
00002a32 02            12450 	.byte	2
00002a33 00            12451 	.byte	0
00002a34 02            12452 	.byte	2
00002a35 00            12453 	.byte	0
00002a36 00            12454 	.byte	0
00002a37 00            12455 	.byte	0
00002a38 00            12456 	.byte	0
00002a39 01            12457 	.byte	1
00002a3a 01            12458 	.byte	1
00002a3b 00            12459 	.byte	0
00002a3c 01            12460 	.byte	1
                       12461 
                       12462 	.section	.debug_frame
                       12463 .LDW_4e28c30:
000006b8 00000000*     12464 	.word	.LDW_unq_80-.LDW_unq_7f
                       12465 .LDW_unq_7f:
000006bc 00000000*     12466 	.word	.LDW_4c2b7e0
000006c0 00000000*     12467 	.word	_DCM_InvIf_RFTimeStampGetValue
000006c4 00000000*     12468 	.word	___ghs_eofn_DCM_InvIf_RFTimeStampGetValue-_DCM_InvIf_RFTimeStampGetValue
000006c8 01            12469 	.byte	1
000006c9 00000000*     12470 	.word	.LDW531
000006cd 00            12471 	.byte	0
000006ce 00            12472 	.byte	0
000006cf 00            12473 	.byte	0
                       12474 .LDW_unq_80:
                       12475 	.section	.debug_line
00001157 000502        12476 	.byte	0,5,2
0000115a 00000000*     12477 	.word	_DCM_InvIf_RFTimeStampGetValue
0000115e 03            12478 	.byte	3
0000115f ea06          12479 	.byte	234,6
00001161 02            12480 	.byte	2
00001162 00            12481 	.byte	0
00001163 01            12482 	.byte	1
00001164 06            12483 	.byte	6
00001165 000502        12484 	.byte	0,5,2
00001168 00000000*     12485 	.word	.LDWlin166
0000116c 0b            12486 	.byte	11
0000116d 2b            12487 	.byte	43
0000116e 2b            12488 	.byte	43
0000116f 23            12489 	.byte	35
00001170 02            12490 	.byte	2
00001171 02            12491 	.byte	2
00001172 000101        12492 	.byte	0,1,1
                       12493 	.section	.debug_info
                       12494 .LDW_4cbbcb0:
00002a3d 0f            12495 	.byte	15
00002a3e 75385f54696d  12496 	.strz	"u8_TimeStampValue"
00002a44 655374616d70 
00002a4a 56616c756500 
00002a50 eb06          12497 	.byte	235,6
00002a52 0b            12498 	.byte	11
00002a53 01            12499 	.byte	1
00002a54 00000000*     12500 	.word	.LDW_4c85c38
00002a58 00            12501 	.byte	0
00002a59 016e          12502 	.byte	1,110
                       12503 
                       12504 .LDW_4c98020:

                                                                      Page 221
                                                              C:\Users\nhuliyap\AppData\Local\Temp\gh_00006641.s
00002a5b 1d            12505 	.byte	29
00002a5c 00000000*     12506 	.word	.LDW431
00002a60 00000000*     12507 	.word	.LDW531
                       12508 
00002a64 00            12509 	.byte	0
                       12510 
00002a65 00            12511 	.byte	0
                       12512 
                       12513 .LDW_4cb9490:
00002a66 14            12514 	.byte	20
00002a67 44434d5f496e  12515 	.strz	"DCM_InvIf_RawRSSIGetValue"
00002a6d 7649665f5261 
00002a73 775253534947 
00002a79 657456616c75 
00002a7f 6500 
00002a81 f106          12516 	.byte	241,6
00002a83 07            12517 	.byte	7
00002a84 01            12518 	.byte	1
00002a85 00000000*     12519 	.word	.LDW_304ee70
00002a89 00000000*     12520 	.word	_DCM_InvIf_RawRSSIGetValue
00002a8d 00000000*     12521 	.word	___ghs_eofn_DCM_InvIf_RawRSSIGetValue
00002a91 0153          12522 	.byte	1,83
00002a93 02            12523 	.byte	2
00002a94 00            12524 	.byte	0
00002a95 02            12525 	.byte	2
00002a96 00            12526 	.byte	0
00002a97 00            12527 	.byte	0
00002a98 00            12528 	.byte	0
00002a99 00            12529 	.byte	0
00002a9a 01            12530 	.byte	1
00002a9b 01            12531 	.byte	1
00002a9c 00            12532 	.byte	0
00002a9d 01            12533 	.byte	1
                       12534 
                       12535 	.section	.debug_frame
                       12536 .LDW_4e28cf0:
000006d0 00000000*     12537 	.word	.LDW_unq_82-.LDW_unq_81
                       12538 .LDW_unq_81:
000006d4 00000000*     12539 	.word	.LDW_4c2b7e0
000006d8 00000000*     12540 	.word	_DCM_InvIf_RawRSSIGetValue
000006dc 00000000*     12541 	.word	___ghs_eofn_DCM_InvIf_RawRSSIGetValue-_DCM_InvIf_RawRSSIGetValue
000006e0 01            12542 	.byte	1
000006e1 00000000*     12543 	.word	.LDW731
000006e5 00            12544 	.byte	0
000006e6 00            12545 	.byte	0
000006e7 00            12546 	.byte	0
                       12547 .LDW_unq_82:
                       12548 	.section	.debug_line
00001175 000502        12549 	.byte	0,5,2
00001178 00000000*     12550 	.word	_DCM_InvIf_RawRSSIGetValue
0000117c 06            12551 	.byte	6
0000117d 03            12552 	.byte	3
0000117e f106          12553 	.byte	241,6
00001180 02            12554 	.byte	2
00001181 00            12555 	.byte	0
00001182 01            12556 	.byte	1
00001183 06            12557 	.byte	6
00001184 000502        12558 	.byte	0,5,2
00001187 00000000*     12559 	.word	.LDWlin167
0000118b 02            12560 	.byte	2
0000118c 00            12561 	.byte	0

                                                                      Page 222
                                                              C:\Users\nhuliyap\AppData\Local\Temp\gh_00006641.s
0000118d 02            12562 	.byte	2
0000118e 02            12563 	.byte	2
0000118f 000101        12564 	.byte	0,1,1
                       12565 	.section	.debug_info
                       12566 .LDW_4c98200:
00002a9e 1d            12567 	.byte	29
00002a9f 00000000*     12568 	.word	.LDW631
00002aa3 00000000*     12569 	.word	.LDW731
                       12570 
00002aa7 00            12571 	.byte	0
                       12572 
00002aa8 00            12573 	.byte	0
                       12574 
                       12575 .LDW_4cb8948:
00002aa9 14            12576 	.byte	20
00002aaa 44434d5f496e  12577 	.strz	"DCM_InvIf_RecEventGetCntValue"
00002ab0 7649665f5265 
00002ab6 634576656e74 
00002abc 476574436e74 
00002ac2 56616c756500 
00002ac8 f506          12578 	.byte	245,6
00002aca 07            12579 	.byte	7
00002acb 01            12580 	.byte	1
00002acc 00000000*     12581 	.word	.LDW_304ee70
00002ad0 00000000*     12582 	.word	_DCM_InvIf_RecEventGetCntValue
00002ad4 00000000*     12583 	.word	___ghs_eofn_DCM_InvIf_RecEventGetCntValue
00002ad8 0153          12584 	.byte	1,83
00002ada 02            12585 	.byte	2
00002adb 00            12586 	.byte	0
00002adc 02            12587 	.byte	2
00002add 00            12588 	.byte	0
00002ade 00            12589 	.byte	0
00002adf 00            12590 	.byte	0
00002ae0 00            12591 	.byte	0
00002ae1 01            12592 	.byte	1
00002ae2 01            12593 	.byte	1
00002ae3 00            12594 	.byte	0
00002ae4 01            12595 	.byte	1
                       12596 
                       12597 	.section	.debug_frame
                       12598 .LDW_4e290f0:
000006e8 00000000*     12599 	.word	.LDW_unq_84-.LDW_unq_83
                       12600 .LDW_unq_83:
000006ec 00000000*     12601 	.word	.LDW_4c2b7e0
000006f0 00000000*     12602 	.word	_DCM_InvIf_RecEventGetCntValue
000006f4 00000000*     12603 	.word	___ghs_eofn_DCM_InvIf_RecEventGetCntValue-_DCM_InvIf_RecEventGetCntValue
000006f8 01            12604 	.byte	1
000006f9 00000000*     12605 	.word	.LDW931
000006fd 00            12606 	.byte	0
000006fe 00            12607 	.byte	0
000006ff 00            12608 	.byte	0
                       12609 .LDW_unq_84:
                       12610 	.section	.debug_line
00001192 000502        12611 	.byte	0,5,2
00001195 00000000*     12612 	.word	_DCM_InvIf_RecEventGetCntValue
00001199 06            12613 	.byte	6
0000119a 03            12614 	.byte	3
0000119b f506          12615 	.byte	245,6
0000119d 02            12616 	.byte	2
0000119e 00            12617 	.byte	0
0000119f 01            12618 	.byte	1

                                                                      Page 223
                                                              C:\Users\nhuliyap\AppData\Local\Temp\gh_00006641.s
000011a0 06            12619 	.byte	6
000011a1 000502        12620 	.byte	0,5,2
000011a4 00000000*     12621 	.word	.LDWlin168
000011a8 02            12622 	.byte	2
000011a9 00            12623 	.byte	0
000011aa 02            12624 	.byte	2
000011ab 02            12625 	.byte	2
000011ac 000101        12626 	.byte	0,1,1
                       12627 	.section	.debug_info
                       12628 .LDW_4c98440:
00002ae5 1d            12629 	.byte	29
00002ae6 00000000*     12630 	.word	.LDW831
00002aea 00000000*     12631 	.word	.LDW931
                       12632 
00002aee 00            12633 	.byte	0
                       12634 
00002aef 00            12635 	.byte	0
                       12636 
                       12637 .LDW_4cb9100:
00002af0 13            12638 	.byte	19
00002af1 44434d5f496e  12639 	.strz	"DCM_InvIf_RawRfTelGetValue"
00002af7 7649665f5261 
00002afd 77526654656c 
00002b03 47657456616c 
00002b09 756500 
00002b0c f906          12640 	.byte	249,6
00002b0e 06            12641 	.byte	6
00002b0f 01            12642 	.byte	1
00002b10 00000000*     12643 	.word	_DCM_InvIf_RawRfTelGetValue
00002b14 00000000*     12644 	.word	___ghs_eofn_DCM_InvIf_RawRfTelGetValue
00002b18 0153          12645 	.byte	1,83
00002b1a 828080b00b    12646 	.byte	130,128,128,176,11
00002b1f 14            12647 	.byte	20
00002b20 03            12648 	.byte	3
00002b21 14            12649 	.byte	20
00002b22 00            12650 	.byte	0
00002b23 00            12651 	.byte	0
00002b24 00            12652 	.byte	0
00002b25 01            12653 	.byte	1
00002b26 01            12654 	.byte	1
00002b27 00            12655 	.byte	0
00002b28 01            12656 	.byte	1
                       12657 
                       12658 	.section	.debug_frame
                       12659 .LDW_4e28ef0:
00000700 00000000*     12660 	.word	.LDW_unq_86-.LDW_unq_85
                       12661 .LDW_unq_85:
00000704 00000000*     12662 	.word	.LDW_4c2b7e0
00000708 00000000*     12663 	.word	_DCM_InvIf_RawRfTelGetValue
0000070c 00000000*     12664 	.word	___ghs_eofn_DCM_InvIf_RawRfTelGetValue-_DCM_InvIf_RawRfTelGetValue
00000710 44            12665 	.byte	68
00000711 9f            12666 	.byte	159
00000712 00            12667 	.byte	0
00000713 40            12668 	.byte	64
00000714 9d            12669 	.byte	157
00000715 04            12670 	.byte	4
00000716 40            12671 	.byte	64
00000717 9c            12672 	.byte	156
00000718 08            12673 	.byte	8
00000719 40            12674 	.byte	64
0000071a 9a            12675 	.byte	154

                                                                      Page 224
                                                              C:\Users\nhuliyap\AppData\Local\Temp\gh_00006641.s
0000071b 0c            12676 	.byte	12
0000071c 40            12677 	.byte	64
0000071d 99            12678 	.byte	153
0000071e 10            12679 	.byte	16
0000071f 01            12680 	.byte	1
00000720 00000000*     12681 	.word	.LDW141
                       12682 .LDW_unq_86:
                       12683 	.section	.debug_line
000011af 000502        12684 	.byte	0,5,2
000011b2 00000000*     12685 	.word	_DCM_InvIf_RawRfTelGetValue
000011b6 03            12686 	.byte	3
000011b7 fb06          12687 	.byte	251,6
000011b9 02            12688 	.byte	2
000011ba 00            12689 	.byte	0
000011bb 01            12690 	.byte	1
000011bc 06            12691 	.byte	6
000011bd 000502        12692 	.byte	0,5,2
000011c0 00000000*     12693 	.word	.LDWlin169
000011c4 0d            12694 	.byte	13
000011c5 000502        12695 	.byte	0,5,2
000011c8 00000000*     12696 	.word	.LDWlin170
000011cc 0c            12697 	.byte	12
000011cd 000502        12698 	.byte	0,5,2
000011d0 00000000*     12699 	.word	.LDWlin171
000011d4 02            12700 	.byte	2
000011d5 00            12701 	.byte	0
000011d6 0b            12702 	.byte	11
000011d7 1b            12703 	.byte	27
000011d8 02            12704 	.byte	2
000011d9 00            12705 	.byte	0
000011da 0b            12706 	.byte	11
000011db 02            12707 	.byte	2
000011dc 02            12708 	.byte	2
000011dd 000502        12709 	.byte	0,5,2
000011e0 00000000*     12710 	.word	.LDWlin172
000011e4 0d            12711 	.byte	13
000011e5 000502        12712 	.byte	0,5,2
000011e8 00000000*     12713 	.word	.LDWlin173
000011ec 02            12714 	.byte	2
000011ed 00            12715 	.byte	0
000011ee 0b            12716 	.byte	11
000011ef 03            12717 	.byte	3
000011f0 04            12718 	.byte	4
000011f1 02            12719 	.byte	2
000011f2 06            12720 	.byte	6
000011f3 01            12721 	.byte	1
000011f4 02            12722 	.byte	2
000011f5 00            12723 	.byte	0
000011f6 03            12724 	.byte	3
000011f7 78            12725 	.byte	120
000011f8 02            12726 	.byte	2
000011f9 00            12727 	.byte	0
000011fa 01            12728 	.byte	1
000011fb 000502        12729 	.byte	0,5,2
000011fe 00000000*     12730 	.word	.LDWlin174
00001202 03            12731 	.byte	3
00001203 09            12732 	.byte	9
00001204 02            12733 	.byte	2
00001205 00            12734 	.byte	0
00001206 01            12735 	.byte	1
00001207 0b            12736 	.byte	11

                                                                      Page 225
                                                              C:\Users\nhuliyap\AppData\Local\Temp\gh_00006641.s
00001208 02            12737 	.byte	2
00001209 04            12738 	.byte	4
0000120a 000101        12739 	.byte	0,1,1
                       12740 	.section	.debug_info
                       12741 .LDW_4cbbd08:
00002b29 0f            12742 	.byte	15
00002b2a 75385f537461  12743 	.strz	"u8_StartPosition"
00002b30 7274506f7369 
00002b36 74696f6e00 
00002b3b fa06          12744 	.byte	250,6
00002b3d 0a            12745 	.byte	10
00002b3e 01            12746 	.byte	1
00002b3f 00000000*     12747 	.word	.LDW_304ee70
00002b43 00            12748 	.byte	0
00002b44 016c          12749 	.byte	1,108
                       12750 
                       12751 .LDW_4cbc078:
00002b46 0f            12752 	.byte	15
00002b47 75385f4e756d  12753 	.strz	"u8_NumberOfBytesToCopy"
00002b4d 6265724f6642 
00002b53 79746573546f 
00002b59 436f707900 
00002b5e fb06          12754 	.byte	251,6
00002b60 0a            12755 	.byte	10
00002b61 01            12756 	.byte	1
00002b62 00000000*     12757 	.word	.LDW_304ee70
00002b66 00            12758 	.byte	0
00002b67 016a          12759 	.byte	1,106
                       12760 
                       12761 .LDW_4cbbc58:
00002b69 0f            12762 	.byte	15
00002b6a 75385f527854  12763 	.strz	"u8_RxTelegBytesValues"
00002b70 656c65674279 
00002b76 74657356616c 
00002b7c 75657300 
00002b80 fc06          12764 	.byte	252,6
00002b82 0a            12765 	.byte	10
00002b83 01            12766 	.byte	1
00002b84 00000000*     12767 	.word	.LDW_4c85c38
00002b88 00            12768 	.byte	0
00002b89 0169          12769 	.byte	1,105
                       12770 
                       12771 .LDW_4c98290:
00002b8b 1d            12772 	.byte	29
00002b8c 00000000*     12773 	.word	.LDW041
00002b90 00000000*     12774 	.word	.LDW141
                       12775 
                       12776 .LDW_4cbbdb8:
00002b94 04            12777 	.byte	4
00002b95 75385f4c6f63  12778 	.strz	"u8_LocalCnt"
00002b9b 616c436e7400 
00002ba1 fd06          12779 	.byte	253,6
00002ba3 0a            12780 	.byte	10
00002ba4 01            12781 	.byte	1
00002ba5 00000000*     12782 	.word	.LDW_304ee70
00002ba9 00            12783 	.byte	0
00002baa 00            12784 	.byte	0
00002bab 0162          12785 	.byte	1,98
                       12786 
                       12787 .LDW_4cbb1b0:
00002bad 04            12788 	.byte	4

                                                                      Page 226
                                                              C:\Users\nhuliyap\AppData\Local\Temp\gh_00006641.s
00002bae 753854475369  12789 	.strz	"u8TGSize"
00002bb4 7a6500 
00002bb7 fe06          12790 	.byte	254,6
00002bb9 0a            12791 	.byte	10
00002bba 01            12792 	.byte	1
00002bbb 00000000*     12793 	.word	.LDW_304ee70
00002bbf 00            12794 	.byte	0
00002bc0 00            12795 	.byte	0
00002bc1 015a          12796 	.byte	1,90
                       12797 
00002bc3 00            12798 	.byte	0
                       12799 
00002bc4 00            12800 	.byte	0
                       12801 
                       12802 .LDW_4cb9528:
00002bc5 14            12803 	.byte	20
00002bc6 44434d5f496e  12804 	.strz	"DCM_InvIf_AllReceivedTelegGetValue"
00002bcc 7649665f416c 
00002bd2 6c5265636569 
00002bd8 76656454656c 
00002bde 656747657456 
00002be4 616c756500 
00002be9 9007          12805 	.byte	144,7
00002beb 07            12806 	.byte	7
00002bec 01            12807 	.byte	1
00002bed 00000000*     12808 	.word	.LDW_304ee70
00002bf1 00000000*     12809 	.word	_DCM_InvIf_AllReceivedTelegGetValue
00002bf5 00000000*     12810 	.word	___ghs_eofn_DCM_InvIf_AllReceivedTelegGetValue
00002bf9 0153          12811 	.byte	1,83
00002bfb 02            12812 	.byte	2
00002bfc 00            12813 	.byte	0
00002bfd 02            12814 	.byte	2
00002bfe 00            12815 	.byte	0
00002bff 00            12816 	.byte	0
00002c00 00            12817 	.byte	0
00002c01 00            12818 	.byte	0
00002c02 01            12819 	.byte	1
00002c03 01            12820 	.byte	1
00002c04 00            12821 	.byte	0
00002c05 01            12822 	.byte	1
                       12823 
                       12824 	.section	.debug_frame
                       12825 .LDW_4e27bf0:
00000724 00000000*     12826 	.word	.LDW_unq_88-.LDW_unq_87
                       12827 .LDW_unq_87:
00000728 00000000*     12828 	.word	.LDW_4c2b7e0
0000072c 00000000*     12829 	.word	_DCM_InvIf_AllReceivedTelegGetValue
00000730 00000000*     12830 	.word	___ghs_eofn_DCM_InvIf_AllReceivedTelegGetValue-_DCM_InvIf_AllReceivedTelegGetValue
00000734 01            12831 	.byte	1
00000735 00000000*     12832 	.word	.LDW341
00000739 00            12833 	.byte	0
0000073a 00            12834 	.byte	0
0000073b 00            12835 	.byte	0
                       12836 .LDW_unq_88:
                       12837 	.section	.debug_line
0000120d 000502        12838 	.byte	0,5,2
00001210 00000000*     12839 	.word	_DCM_InvIf_AllReceivedTelegGetValue
00001214 06            12840 	.byte	6
00001215 03            12841 	.byte	3
00001216 9007          12842 	.byte	144,7
00001218 02            12843 	.byte	2

                                                                      Page 227
                                                              C:\Users\nhuliyap\AppData\Local\Temp\gh_00006641.s
00001219 00            12844 	.byte	0
0000121a 01            12845 	.byte	1
0000121b 06            12846 	.byte	6
0000121c 000502        12847 	.byte	0,5,2
0000121f 00000000*     12848 	.word	.LDWlin175
00001223 02            12849 	.byte	2
00001224 00            12850 	.byte	0
00001225 02            12851 	.byte	2
00001226 02            12852 	.byte	2
00001227 000101        12853 	.byte	0,1,1
                       12854 	.section	.debug_info
                       12855 .LDW_4c98800:
00002c06 1d            12856 	.byte	29
00002c07 00000000*     12857 	.word	.LDW241
00002c0b 00000000*     12858 	.word	.LDW341
                       12859 
00002c0f 00            12860 	.byte	0
                       12861 
00002c10 00            12862 	.byte	0
                       12863 
00002c11 00            12864 	.byte	0
                       12865 
                       12866 	.section	.debug_line
                       12867 .Ldw_line_end:
                       12868 	.section	.debug_macinfo
00000000 01            12869 	.byte	1
00000001 00            12870 	.byte	0
00000002 5f5f6768735f  12871 	.strz	"__ghs__ 1"
00000008 5f203100 
0000000c 01            12872 	.byte	1
0000000d 00            12873 	.byte	0
0000000e 5f5f4c4c4f4e  12874 	.strz	"__LLONG_BIT 64"
00000014 475f42495420 
0000001a 363400 
0000001d 03            12875 	.byte	3
0000001e 00            12876 	.byte	0
0000001f 01            12877 	.byte	1
00000020 03            12878 	.byte	3
00000021 01            12879 	.byte	1
00000022 02            12880 	.byte	2
00000023 03            12881 	.byte	3
00000024 1c            12882 	.byte	28
00000025 03            12883 	.byte	3
00000026 01            12884 	.byte	1
00000027 3c            12885 	.byte	60
00000028 545255452031  12886 	.strz	"TRUE 1u"
0000002e 7500 
00000030 01            12887 	.byte	1
00000031 40            12888 	.byte	64
00000032 46414c534520  12889 	.strz	"FALSE 0u"
00000038 307500 
0000003b 04            12890 	.byte	4
0000003c 03            12891 	.byte	3
0000003d 1d            12892 	.byte	29
0000003e 04            12893 	.byte	4
0000003f 03            12894 	.byte	3
00000040 1b            12895 	.byte	27
00000041 05            12896 	.byte	5
00000042 03            12897 	.byte	3
00000043 54            12898 	.byte	84
00000044 06            12899 	.byte	6

                                                                      Page 228
                                                              C:\Users\nhuliyap\AppData\Local\Temp\gh_00006641.s
00000045 04            12900 	.byte	4
00000046 04            12901 	.byte	4
00000047 04            12902 	.byte	4
00000048 04            12903 	.byte	4
00000049 03            12904 	.byte	3
0000004a 03            12905 	.byte	3
0000004b 07            12906 	.byte	7
0000004c 03            12907 	.byte	3
0000004d 06            12908 	.byte	6
0000004e 08            12909 	.byte	8
0000004f 03            12910 	.byte	3
00000050 04            12911 	.byte	4
00000051 09            12912 	.byte	9
00000052 04            12913 	.byte	4
00000053 01            12914 	.byte	1
00000054 0e            12915 	.byte	14
00000055 50524f445543  12916 	.strz	"PRODUCTION_SW 0x0"
0000005b 54494f4e5f53 
00000061 572030783000 
00000067 01            12917 	.byte	1
00000068 0f            12918 	.byte	15
00000069 444556454c4f  12919 	.strz	"DEVELOPMENT_SW 0x1"
0000006f 504d454e545f 
00000075 535720307831 
0000007b 00 
0000007c 01            12920 	.byte	1
0000007d 10            12921 	.byte	16
0000007e 53575f434154  12922 	.strz	"SW_CATEGORY PRODUCTION_SW"
00000084 45474f525920 
0000008a 50524f445543 
00000090 54494f4e5f53 
00000096 5700 
00000098 04            12923 	.byte	4
00000099 01            12924 	.byte	1
0000009a 0e            12925 	.byte	14
0000009b 70625f514143  12926 	.strz	"pb_QACStatic_160503 "
000000a1 537461746963 
000000a7 5f3136303530 
000000ad 332000 
000000b0 01            12927 	.byte	1
000000b1 17            12928 	.byte	23
000000b2 756353756d57  12929 	.strz	"ucSumWEc (unsigned char) 4"
000000b8 45632028756e 
000000be 7369676e6564 
000000c4 206368617229 
000000ca 203400 
000000cd 04            12930 	.byte	4
000000ce 03            12931 	.byte	3
000000cf 04            12932 	.byte	4
000000d0 0a            12933 	.byte	10
000000d1 01            12934 	.byte	1
000000d2 06            12935 	.byte	6
000000d3 4d41585f5349  12936 	.strz	"MAX_SIZE_WS_TELEGRAM 16U"
000000d9 5a455f57535f 
000000df 54454c454752 
000000e5 414d20313655 
000000eb 00 
000000ec 01            12937 	.byte	1
000000ed 0e            12938 	.byte	14
000000ee 4e564d5f424c  12939 	.strz	"NVM_BLOCK_TYPE uint32"
000000f4 4f434b5f5459 

                                                                      Page 229
                                                              C:\Users\nhuliyap\AppData\Local\Temp\gh_00006641.s
000000fa 50452075696e 
00000100 74333200 
00000104 04            12940 	.byte	4
00000105 03            12941 	.byte	3
00000106 05            12942 	.byte	5
00000107 0b            12943 	.byte	11
00000108 03            12944 	.byte	3
00000109 06            12945 	.byte	6
0000010a 0c            12946 	.byte	12
0000010b 04            12947 	.byte	4
0000010c 01            12948 	.byte	1
0000010d 18            12949 	.byte	24
0000010e 53454e534f52  12950 	.strz	"SENSOR_AUFLOESUNG_25MBAR "
00000114 5f4155464c4f 
0000011a 4553554e475f 
00000120 32354d424152 
00000126 2000 
00000128 04            12951 	.byte	4
00000129 03            12952 	.byte	3
0000012a 06            12953 	.byte	6
0000012b 0d            12954 	.byte	13
0000012c 03            12955 	.byte	3
0000012d 03            12956 	.byte	3
0000012e 0e            12957 	.byte	14
0000012f 01            12958 	.byte	1
00000130 7b            12959 	.byte	123
00000131 4650412000    12960 	.strz	"FPA "
00000136 01            12961 	.byte	1
00000137 7c            12962 	.byte	124
00000138 4142535f5465  12963 	.strz	"ABS_Test_LOG_ENABLE "
0000013e 73745f4c4f47 
00000144 5f454e41424c 
0000014a 452000 
0000014d 04            12964 	.byte	4
0000014e 04            12965 	.byte	4
0000014f 03            12966 	.byte	3
00000150 07            12967 	.byte	7
00000151 0f            12968 	.byte	15
00000152 03            12969 	.byte	3
00000153 04            12970 	.byte	4
00000154 10            12971 	.byte	16
00000155 03            12972 	.byte	3
00000156 05            12973 	.byte	5
00000157 11            12974 	.byte	17
00000158 01            12975 	.byte	1
00000159 04            12976 	.byte	4
0000015a 46494c544552  12977 	.strz	"FILTER_SYMC_CAN_MSGS "
00000160 5f53594d435f 
00000166 43414e5f4d53 
0000016c 47532000 
00000170 04            12978 	.byte	4
00000171 01            12979 	.byte	1
00000172 08            12980 	.byte	8
00000173 63416e7a5261  12981 	.strz	"cAnzRad ( (uint8) 4 )"
00000179 642028202875 
0000017f 696e74382920 
00000185 34202900 
00000189 01            12982 	.byte	1
0000018a 0a            12983 	.byte	10
0000018b 63526164506f  12984 	.strz	"cRadPosVL ( (uint8) 0 )"
00000191 73564c202820 

                                                                      Page 230
                                                              C:\Users\nhuliyap\AppData\Local\Temp\gh_00006641.s
00000197 2875696e7438 
0000019d 292030202900 
000001a3 01            12985 	.byte	1
000001a4 0b            12986 	.byte	11
000001a5 63526164506f  12987 	.strz	"cRadPosVR ( (uint8) 1 )"
000001ab 735652202820 
000001b1 2875696e7438 
000001b7 292031202900 
000001bd 01            12988 	.byte	1
000001be 0c            12989 	.byte	12
000001bf 63526164506f  12990 	.strz	"cRadPosHL ( (uint8) 2 )"
000001c5 73484c202820 
000001cb 2875696e7438 
000001d1 292032202900 
000001d7 01            12991 	.byte	1
000001d8 0d            12992 	.byte	13
000001d9 63526164506f  12993 	.strz	"cRadPosHR ( (uint8) 3 )"
000001df 734852202820 
000001e5 2875696e7438 
000001eb 292033202900 
000001f1 01            12994 	.byte	1
000001f2 14            12995 	.byte	20
000001f3 63496e76616c  12996 	.strz	"cInvalidREpressure ( (uint8) 0xff )"
000001f9 696452457072 
000001ff 657373757265 
00000205 202820287569 
0000020b 6e7438292030 
00000211 786666202900 
00000217 01            12997 	.byte	1
00000218 15            12998 	.byte	21
00000219 63496e76616c  12999 	.strz	"cInvalidREtemperature ( (sint8) 0x7f )"
0000021f 696452457465 
00000225 6d7065726174 
0000022b 757265202820 
00000231 2873696e7438 
00000237 292030783766 
0000023d 202900 
00000240 01            13000 	.byte	1
00000241 16            13001 	.byte	22
00000242 63496e76616c  13002 	.strz	"cInvalidRElifeTime ( (uint8) 0x0f )"
00000248 696452456c69 
0000024e 666554696d65 
00000254 202820287569 
0000025a 6e7438292030 
00000260 783066202900 
00000266 01            13003 	.byte	1
00000267 18            13004 	.byte	24
00000268 63496e76616c  13005 	.strz	"cInvalidRSSIsum ( (uint8) 0x00 )"
0000026e 696452535349 
00000274 73756d202820 
0000027a 2875696e7438 
00000280 292030783030 
00000286 202900 
00000289 01            13006 	.byte	1
0000028a 1a            13007 	.byte	26
0000028b 63496e76616c  13008 	.strz	"cInvalidTelType ( (uint8) 0xff )"
00000291 696454656c54 
00000297 797065202820 
0000029d 2875696e7438 
000002a3 292030786666 
000002a9 202900 

                                                                      Page 231
                                                              C:\Users\nhuliyap\AppData\Local\Temp\gh_00006641.s
000002ac 01            13009 	.byte	1
000002ad 1b            13010 	.byte	27
000002ae 63496e76616c  13011 	.strz	"cInvalidTransMode ( (uint8) 0x00 )"
000002b4 69645472616e 
000002ba 734d6f646520 
000002c0 28202875696e 
000002c6 743829203078 
000002cc 3030202900 
000002d1 01            13012 	.byte	1
000002d2 1c            13013 	.byte	28
000002d3 63496e76616c  13014 	.strz	"cInvalidSensorDefect ( (uint16) 0x00 )"
000002d9 696453656e73 
000002df 6f7244656665 
000002e5 637420282028 
000002eb 75696e743136 
000002f1 292030783030 
000002f7 202900 
000002fa 04            13015 	.byte	4
000002fb 03            13016 	.byte	3
000002fc 05            13017 	.byte	5
000002fd 12            13018 	.byte	18
000002fe 01            13019 	.byte	1
000002ff 06            13020 	.byte	6
00000300 6354656c5479  13021 	.strz	"cTelTypeAK35def 0U"
00000306 7065414b3335 
0000030c 646566203055 
00000312 00 
00000313 01            13022 	.byte	1
00000314 07            13023 	.byte	7
00000315 6354656c5479  13024 	.strz	"cTelTypeStandstill 0x90U"
0000031b 70655374616e 
00000321 647374696c6c 
00000327 203078393055 
0000032d 00 
0000032e 01            13025 	.byte	1
0000032f 08            13026 	.byte	8
00000330 6354656c5479  13027 	.strz	"cTelTypeHufStatusLearn 0xA3U"
00000336 706548756653 
0000033c 74617475734c 
00000342 6561726e2030 
00000348 7841335500 
0000034d 01            13028 	.byte	1
0000034e 09            13029 	.byte	9
0000034f 6354656c5479  13030 	.strz	"cTelTypeHufStatus 0x83U"
00000355 706548756653 
0000035b 746174757320 
00000361 307838335500 
00000367 01            13031 	.byte	1
00000368 0a            13032 	.byte	10
00000369 6354656c5479  13033 	.strz	"cTelTypeRotatS 0xE7U"
0000036f 7065526f7461 
00000375 745320307845 
0000037b 375500 
0000037e 01            13034 	.byte	1
0000037f 0b            13035 	.byte	11
00000380 6354656c5479  13036 	.strz	"cTelTypeAK35defLMA 0x20U"
00000386 7065414b3335 
0000038c 6465664c4d41 
00000392 203078323055 
00000398 00 
00000399 01            13037 	.byte	1

                                                                      Page 232
                                                              C:\Users\nhuliyap\AppData\Local\Temp\gh_00006641.s
0000039a 0c            13038 	.byte	12
0000039b 6354656c5479  13039 	.strz	"cTelTypeSchraderFP 0x80U"
000003a1 706553636872 
000003a7 616465724650 
000003ad 203078383055 
000003b3 00 
000003b4 01            13040 	.byte	1
000003b5 0e            13041 	.byte	14
000003b6 6354656c5479  13042 	.strz	"cTelTypeHufLfResponse 0x03U"
000003bc 70654875664c 
000003c2 66526573706f 
000003c8 6e7365203078 
000003ce 30335500 
000003d2 01            13043 	.byte	1
000003d3 0f            13044 	.byte	15
000003d4 634d6178414b  13045 	.strz	"cMaxAK35DataBytes 14U"
000003da 333544617461 
000003e0 427974657320 
000003e6 31345500 
000003ea 01            13046 	.byte	1
000003eb 10            13047 	.byte	16
000003ec 63577354656c  13048 	.strz	"cWsTelBufferSize 12U"
000003f2 427566666572 
000003f8 53697a652031 
000003fe 325500 
00000401 04            13049 	.byte	4
00000402 01            13050 	.byte	1
00000403 14            13051 	.byte	20
00000404 6352455f414b  13052 	.strz	"cRE_AK_PRES_INVALID ((uint8) 0x00)"
0000040a 5f505245535f 
00000410 494e56414c49 
00000416 442028287569 
0000041c 6e7438292030 
00000422 7830302900 
00000427 01            13053 	.byte	1
00000428 15            13054 	.byte	21
00000429 6352455f414b  13055 	.strz	"cRE_AK_PRES_UNDERFLOW ((uint8) 0x01)"
0000042f 5f505245535f 
00000435 554e44455246 
0000043b 4c4f57202828 
00000441 75696e743829 
00000447 203078303129 
0000044d 00 
0000044e 01            13056 	.byte	1
0000044f 16            13057 	.byte	22
00000450 6352455f414b  13058 	.strz	"cRE_AK_PRES_OVERFLOW ((uint8) 0xff)"
00000456 5f505245535f 
0000045c 4f564552464c 
00000462 4f5720282875 
00000468 696e74382920 
0000046e 307866662900 
00000474 01            13059 	.byte	1
00000475 17            13060 	.byte	23
00000476 6352455f414b  13061 	.strz	"cRE_AK_TEMP_INVALID ((uint8) 0x00)"
0000047c 5f54454d505f 
00000482 494e56414c49 
00000488 442028287569 
0000048e 6e7438292030 
00000494 7830302900 
00000499 01            13062 	.byte	1
0000049a 18            13063 	.byte	24

                                                                      Page 233
                                                              C:\Users\nhuliyap\AppData\Local\Temp\gh_00006641.s
0000049b 6352455f414b  13064 	.strz	"cRE_AK_TEMP_UNDERFLOW ((uint8) 0x01)"
000004a1 5f54454d505f 
000004a7 554e44455246 
000004ad 4c4f57202828 
000004b3 75696e743829 
000004b9 203078303129 
000004bf 00 
000004c0 01            13065 	.byte	1
000004c1 19            13066 	.byte	25
000004c2 6352455f414b  13067 	.strz	"cRE_AK_TEMP_OVERFLOW ((uint8) 0xf0)"
000004c8 5f54454d505f 
000004ce 4f564552464c 
000004d4 4f5720282875 
000004da 696e74382920 
000004e0 307866302900 
000004e6 01            13068 	.byte	1
000004e7 1a            13069 	.byte	26
000004e8 6352455f414b  13070 	.strz	"cRE_AK_TEMP_RANGE_VALUE ((uint8) 0xAD)"
000004ee 5f54454d505f 
000004f4 52414e47455f 
000004fa 56414c554520 
00000500 282875696e74 
00000506 382920307841 
0000050c 442900 
0000050f 01            13071 	.byte	1
00000510 1b            13072 	.byte	27
00000511 6352455f414b  13073 	.strz	"cRE_AK_TM_MODE_STANDSTILL ((uint8) 0x00)"
00000517 5f544d5f4d4f 
0000051d 44455f535441 
00000523 4e445354494c 
00000529 4c2028287569 
0000052f 6e7438292030 
00000535 7830302900 
0000053a 01            13074 	.byte	1
0000053b 1c            13075 	.byte	28
0000053c 6352455f414b  13076 	.strz	"cRE_AK_TM_MODE_DRIVE ((uint8) 0x01)"
00000542 5f544d5f4d4f 
00000548 44455f445249 
0000054e 564520282875 
00000554 696e74382920 
0000055a 307830312900 
00000560 01            13077 	.byte	1
00000561 1d            13078 	.byte	29
00000562 6352455f414b  13079 	.strz	"cRE_AK_TM_MODE_LEARNDRIVE ((uint8) 0x02)"
00000568 5f544d5f4d4f 
0000056e 44455f4c4541 
00000574 524e44524956 
0000057a 452028287569 
00000580 6e7438292030 
00000586 7830322900 
0000058b 01            13080 	.byte	1
0000058c 1e            13081 	.byte	30
0000058d 6352455f414b  13082 	.strz	"cRE_AK_TM_MODE_OVERTEMP ((uint8) 0x04)"
00000593 5f544d5f4d4f 
00000599 44455f4f5645 
0000059f 5254454d5020 
000005a5 282875696e74 
000005ab 382920307830 
000005b1 342900 
000005b4 01            13083 	.byte	1
000005b5 1f            13084 	.byte	31

                                                                      Page 234
                                                              C:\Users\nhuliyap\AppData\Local\Temp\gh_00006641.s
000005b6 6352455f414b  13085 	.strz	"cRE_AK_TM_EVENT_DP ((uint8) 0x10)"
000005bc 5f544d5f4556 
000005c2 454e545f4450 
000005c8 20282875696e 
000005ce 743829203078 
000005d4 31302900 
000005d8 01            13086 	.byte	1
000005d9 26            13087 	.byte	38
000005da 52455f414b5f  13088 	.strz	"RE_AK_SF_PRES_FAIL ((uint16) 0x0010)"
000005e0 53465f505245 
000005e6 535f4641494c 
000005ec 20282875696e 
000005f2 743136292030 
000005f8 783030313029 
000005fe 00 
000005ff 01            13089 	.byte	1
00000600 28            13090 	.byte	40
00000601 52455f414b5f  13091 	.strz	"RE_AK_SF_PRES_UNDERFLOW ((uint16) 0x0040)"
00000607 53465f505245 
0000060d 535f554e4445 
00000613 52464c4f5720 
00000619 282875696e74 
0000061f 313629203078 
00000625 303034302900 
0000062b 01            13092 	.byte	1
0000062c 29            13093 	.byte	41
0000062d 52455f414b5f  13094 	.strz	"RE_AK_SF_PRES_OVERFLOW ((uint16) 0x0080)"
00000633 53465f505245 
00000639 535f4f564552 
0000063f 464c4f572028 
00000645 2875696e7431 
0000064b 362920307830 
00000651 3038302900 
00000656 01            13095 	.byte	1
00000657 2b            13096 	.byte	43
00000658 52455f414b5f  13097 	.strz	"RE_AK_SF_TEMP_UNDERFLOW ((uint16) 0x0200)"
0000065e 53465f54454d 
00000664 505f554e4445 
0000066a 52464c4f5720 
00000670 282875696e74 
00000676 313629203078 
0000067c 303230302900 
00000682 01            13098 	.byte	1
00000683 2c            13099 	.byte	44
00000684 52455f414b5f  13100 	.strz	"RE_AK_SF_TEMP_OVERFLOW ((uint16) 0x0400)"
0000068a 53465f54454d 
00000690 505f4f564552 
00000696 464c4f572028 
0000069c 2875696e7431 
000006a2 362920307830 
000006a8 3430302900 
000006ad 01            13101 	.byte	1
000006ae 2d            13102 	.byte	45
000006af 52455f414b5f  13103 	.strz	"RE_AK_SF_TEMP_FAIL ((uint16) 0x0800)"
000006b5 53465f54454d 
000006bb 505f4641494c 
000006c1 20282875696e 
000006c7 743136292030 
000006cd 783038303029 
000006d3 00 
000006d4 01            13104 	.byte	1

                                                                      Page 235
                                                              C:\Users\nhuliyap\AppData\Local\Temp\gh_00006641.s
000006d5 2e            13105 	.byte	46
000006d6 52455f414b5f  13106 	.strz	"RE_AK_SF_PRES_NOT_RECEIVED ((uint16) 0x1000)"
000006dc 53465f505245 
000006e2 535f4e4f545f 
000006e8 524543454956 
000006ee 454420282875 
000006f4 696e74313629 
000006fa 203078313030 
00000700 302900 
00000703 01            13107 	.byte	1
00000704 2f            13108 	.byte	47
00000705 52455f414b5f  13109 	.strz	"RE_AK_SF_TEMP_NOT_RECEIVED ((uint16) 0x2000)"
0000070b 53465f54454d 
00000711 505f4e4f545f 
00000717 524543454956 
0000071d 454420282875 
00000723 696e74313629 
00000729 203078323030 
0000072f 302900 
00000732 01            13110 	.byte	1
00000733 30            13111 	.byte	48
00000734 52455f414b5f  13112 	.strz	"RE_AK_SF_RLT_NOT_RECEIVED ((uint16) 0x4000)"
0000073a 53465f524c54 
00000740 5f4e4f545f52 
00000746 454345495645 
0000074c 442028287569 
00000752 6e7431362920 
00000758 307834303030 
0000075e 2900 
00000760 01            13113 	.byte	1
00000761 31            13114 	.byte	49
00000762 52455f414b5f  13115 	.strz	"RE_AK_SF_MOTION_NOT_RECEIVED ((uint16) 0x8000)"
00000768 53465f4d4f54 
0000076e 494f4e5f4e4f 
00000774 545f52454345 
0000077a 495645442028 
00000780 2875696e7431 
00000786 362920307838 
0000078c 3030302900 
00000791 01            13116 	.byte	1
00000792 32            13117 	.byte	50
00000793 52455f414b5f  13118 	.strz	"RE_AK_SF_HW_DEFECT ((uint16) 0x0810)"
00000799 53465f48575f 
0000079f 444546454354 
000007a5 20282875696e 
000007ab 743136292030 
000007b1 783038313029 
000007b7 00 
000007b8 04            13119 	.byte	4
000007b9 03            13120 	.byte	3
000007ba 08            13121 	.byte	8
000007bb 13            13122 	.byte	19
000007bc 04            13123 	.byte	4
000007bd 03            13124 	.byte	3
000007be 09            13125 	.byte	9
000007bf 14            13126 	.byte	20
000007c0 04            13127 	.byte	4
000007c1 03            13128 	.byte	3
000007c2 0b            13129 	.byte	11
000007c3 15            13130 	.byte	21
000007c4 04            13131 	.byte	4

                                                                      Page 236
                                                              C:\Users\nhuliyap\AppData\Local\Temp\gh_00006641.s
000007c5 03            13132 	.byte	3
000007c6 0c            13133 	.byte	12
000007c7 16            13134 	.byte	22
000007c8 01            13135 	.byte	1
000007c9 08            13136 	.byte	8
000007ca 635a5547454f  13137 	.strz	"cZUGEORDNET ((uint16) 0x0010)"
000007d0 52444e455420 
000007d6 282875696e74 
000007dc 313629203078 
000007e2 303031302900 
000007e8 04            13138 	.byte	4
000007e9 03            13139 	.byte	3
000007ea 0d            13140 	.byte	13
000007eb 17            13141 	.byte	23
000007ec 01            13142 	.byte	1
000007ed 0d            13143 	.byte	13
000007ee 63464d4d4f54  13144 	.strz	"cFMMOTMAXmin ((uint8)0x47)"
000007f4 4d41586d696e 
000007fa 20282875696e 
00000800 743829307834 
00000806 372900 
00000809 01            13145 	.byte	1
0000080a 0e            13146 	.byte	14
0000080b 63464d4d4f54  13147 	.strz	"cFMMOTMAXmax ((uint8)0x8D)"
00000811 4d41586d6178 
00000817 20282875696e 
0000081d 743829307838 
00000823 442900 
00000826 04            13148 	.byte	4
00000827 03            13149 	.byte	3
00000828 0e            13150 	.byte	14
00000829 18            13151 	.byte	24
0000082a 04            13152 	.byte	4
0000082b 03            13153 	.byte	3
0000082c 0f            13154 	.byte	15
0000082d 19            13155 	.byte	25
0000082e 04            13156 	.byte	4
0000082f 03            13157 	.byte	3
00000830 10            13158 	.byte	16
00000831 1a            13159 	.byte	26
00000832 01            13160 	.byte	1
00000833 1c            13161 	.byte	28
00000834 63496e76616c  13162 	.strz	"cInvalidTemperatureCAN 0xFF"
0000083a 696454656d70 
00000840 657261747572 
00000846 6543414e2030 
0000084c 78464600 
00000850 04            13163 	.byte	4
00000851 01            13164 	.byte	1
00000852 12            13165 	.byte	18
00000853 54494d455f31  13166 	.strz	"TIME_1S_OVER ( (uint8) 1 )"
00000859 535f4f564552 
0000085f 202820287569 
00000865 6e7438292031 
0000086b 202900 
0000086e 01            13167 	.byte	1
0000086f 13            13168 	.byte	19
00000870 4e525f4f465f  13169 	.strz	"NR_OF_SURPRESSED_TELEGRAMS ((uint8) 5U )"
00000876 535552505245 
0000087c 535345445f54 
00000882 454c45475241 

                                                                      Page 237
                                                              C:\Users\nhuliyap\AppData\Local\Temp\gh_00006641.s
00000888 4d5320282875 
0000088e 696e74382920 
00000894 3555202900 
00000899 01            13170 	.byte	1
0000089a 14            13171 	.byte	20
0000089b 4f5645525f54  13172 	.strz	"OVER_TEMPERATURE_VALUE ((uint8) 0xF7U )"
000008a1 454d50455241 
000008a7 545552455f56 
000008ad 414c55452028 
000008b3 2875696e7438 
000008b9 292030784637 
000008bf 55202900 
000008c3 01            13173 	.byte	1
000008c4 15            13174 	.byte	21
000008c5 4f4e455f4241  13175 	.strz	"ONE_BAR_PRESSURE ((uint16) 40U )"
000008cb 525f50524553 
000008d1 535552452028 
000008d7 2875696e7431 
000008dd 362920343055 
000008e3 202900 
000008e6 01            13176 	.byte	1
000008e7 16            13177 	.byte	22
000008e8 4c4f57455354  13178 	.strz	"LOWEST_ATMOSPHERIC_PRESS ((uint8) 22U )"
000008ee 5f41544d4f53 
000008f4 504845524943 
000008fa 5f5052455353 
00000900 20282875696e 
00000906 743829203232 
0000090c 55202900 
00000910 01            13179 	.byte	1
00000911 17            13180 	.byte	23
00000912 484947484553  13181 	.strz	"HIGHEST_ATMOSPHERIC_PRESS ((uint8) 44U )"
00000918 545f41544d4f 
0000091e 535048455249 
00000924 435f50524553 
0000092a 532028287569 
00000930 6e7438292034 
00000936 3455202900 
0000093b 04            13182 	.byte	4
0000093c 00            13183 	.byte	0
                       13184 	.section	.debug_abbrev
00000179 00            13185 	.byte	0
                       13186 	.section	.debug_info
                       13187 .Ldw_end:
                       13188 .rh850_flags REGMODE32,DATA_ALIGN8,GP_FIX,EP_NONFIX,TP_FIX,REG2_RESERVE,G3K,GHS_MISALIGN,SDA_EXTRA_REGS_0
