                                                                      Page 1
                                                              C:\Users\nhuliyap\AppData\Local\Temp\gh_0000da81.s
Command Line: C:\ghs\comp_201517\ease850.exe -w -elf -b0 -I../source/common -I../source/ProjectCompiler -I../source/ProjectCfg -I../source/SwcApplTpms -I../source/SwcApplEcuM -I../source/SwcServiceBswM -I../source/SwcServiceEcuM -I../source/SwcServiceNvM -I../source/SwcServiceOs -I../source/SwcServiceStartUp -I../source/McalAdc -I../source/McalDio -I../source/McalGpt -I../source/McalMcu -I../source/McalWdg -I../source/wrappers -I../source/wrappers/McalAta -I../source/McalLin -I../source/McalCan -I../source/wrappers/OS -I../source/McalFls -I../source/EcuabFee -I../source/EcuabMemIf -I../source/wrappers/VStdLib -I../source/wrappers/Crc -I../source/wrappers/FBL_APPL -I../source/wrappers/NVM_MANAGER -I../source/wrappers/DEM_MANAGER -I../source/wrappers/RDC_MANAGER -I../source/wrappers/ENV_MANAGER -I../source/wrappers/SYS_MANAGER -I../source/wrappers/EcuabCanIf -I../source/EcuabCanTrcv -I../source/wrappers/SwcServiceCanSM -I../source/wrappers/SwcServiceCanTp -I../source/wrappers/SwcServiceCanTp_PreCompile -I../source/wrappers/SwcServiceCom -I../source/wrappers/SwcServiceComM -I../source/wrappers/SwcServiceDcm -I../source/wrappers/SwcServicePduR -I../source/wrappers/SwcServiceEcuM -I../source/wrappers/Bfx -I../source/wrappers/SwcServiceDem -I../source/SwcServiceCom -I../source/SwcServiceDet -I../source/SwcServiceFiM -I../source/SwcServicePduR -I../source/SwcServiceSchM -I../source/wrappers/LibAutosarDiag -I../source/wrappers/rba_BswSrv -IC:\ghs\comp_201517\lib\rh850 -cg_underscore -cpu=rh850g3k -no_v850_simd -rh850_fpsimd=none -nomacro -patch_dbo=C:\_ECU2\ECU_Rivian_A1\Target\repo_projects\pRealEcu\cR_LATEST\make\output\objects\r_fdl_user_if.dbo -source=r_fdl_user_if.c -o output\objects\gh_0000da81.o -list=output\list\r_fdl_user_if.lst C:\Users\nhuliyap\AppData\Local\Temp\gh_0000da81.s 
Original File: C:\Users\nhuliyap\AppData\Local\Temp\gh_0000da81.s
Source File: r_fdl_user_if.c
Directory: C:\_ECU2\ECU_Rivian_A1\Target\repo_projects\pRealEcu\cR_LATEST\make
Host OS: Windows
EASE: Copyright (C) 1983-2015 Green Hills Software.  All Rights Reserved.
Release: Compiler v2015.1.7
Build Directory: [Directory] BTOWORKER6:c:/build_2015_1_bto/2015-10-21.2100-2015_1_bto/win32-comp-ecom
Revision: [VCInfo] http://toolsvc/branches/release-branch-70-bto/src@544153 (built by build)
Revision Date: Thu Oct 22 07:50:13 2015

Release Date: Thu Oct 22 09:32:32 2015

                           1 --Driver Command: ccv850 ../source/McalFls/r_fdl_user_if.c -cpu=rh850 -fhard
                           2 --		-ignore_callt_state_in_interrupts -large_sda -misalign_pack
                           3 --		-nofarcalls -nofloatio -no_callt -Ogeneral -Onounroll
                           4 --		-prepare_dispose -registermode=32 -reserve_r2 -sda=0
                           5 --		-shorten_loads -Wshadow --brief_diagnostics --no_commons
                           6 --		--no_wrap_diagnostics --prototype_errors --short_enum -list -G
                           7 --		-dual_debug -dwarf -X5523 -lnk=-no_xda_modifications -D
                           8 --		NOT_READY_FOR_TESTING_OR_DEPLOYMENT -D IBTCM_SW_ANPASSUNGEN -D
                           9 --		BUILD_RIVIAN -c -inline_prologue -I../source/common
                          10 --		-I../source/ProjectCompiler -I../source/ProjectCfg
                          11 --		-I../source/SwcApplTpms -I../source/SwcApplEcuM
                          12 --		-I../source/SwcServiceBswM -I../source/SwcServiceEcuM
                          13 --		-I../source/SwcServiceNvM -I../source/SwcServiceOs
                          14 --		-I../source/SwcServiceStartUp -I../source/McalAdc
                          15 --		-I../source/McalDio -I../source/McalGpt -I../source/McalMcu
                          16 --		-I../source/McalWdg -I../source/wrappers
                          17 --		-I../source/wrappers/McalAta -I../source/McalLin
                          18 --		-I../source/McalCan -I../source/wrappers/OS -I../source/McalFls
                          19 --		-I../source/EcuabFee -I../source/EcuabMemIf
                          20 --		-I../source/wrappers/VStdLib -I../source/wrappers
                          21 --		-I../source/wrappers/Crc -I../source/wrappers/FBL_APPL
                          22 --		-I../source/wrappers/NVM_MANAGER -I../source/wrappers/DEM_MANAGER
                          23 --		-I../source/wrappers/RDC_MANAGER -I../source/wrappers/ENV_MANAGER
                          24 --		-I../source/wrappers/SYS_MANAGER -I../source/wrappers/EcuabCanIf
                          25 --		-I../source/EcuabCanTrcv -I../source/wrappers/SwcServiceCanSM
                          26 --		-I../source/wrappers/SwcServiceCanTp
                          27 --		-I../source/wrappers/SwcServiceCanTp_PreCompile
                          28 --		-I../source/wrappers/SwcServiceCom
                          29 --		-I../source/wrappers/SwcServiceComM
                          30 --		-I../source/wrappers/SwcServiceDcm
                          31 --		-I../source/wrappers/SwcServicePduR
                          32 --		-I../source/wrappers/SwcServiceEcuM -I../source/wrappers/Bfx
                          33 --		-I../source/wrappers/SwcServiceDem -I../source/SwcServiceCom
                          34 --		-I../source/SwcServiceDet -I../source/SwcServiceFiM
                          35 --		-I../source/SwcServicePduR -I../source/SwcServiceSchM
                          36 --		-I../source/wrappers/LibAutosarDiag
                          37 --		-I../source/wrappers/rba_BswSrv -object_dir=output/objects
                          38 --		-list_dir=output/list
                          39 --Source File:   ../source/McalFls/r_fdl_user_if.c
                          40 --Directory:     
                          41 --		C:\_ECU2\ECU_Rivian_A1\Target\repo_projects\pRealEcu\cR_LATEST\make
                          42 --Compile Date:  Fri Sep 15 14:15:39 2023
                          43 --Host OS:       Win32
                          44 --Version:       C-RH850 2015.1.7 RELEASE VERSION
                          45 --Release:       Compiler v2015.1.7
                          46 --Revision Date: Thu Oct 22 08:06:12 2015
                          47 --Release Date:  Thu Oct 22 09:34:32 2015
                          48 -- ecom  -g -w -OM
                          49 	.text
                          50 ..bof.C.3A.5C_ECU2.5CECU_Rivian_A1.5CTarget.5Crepo_projects.5CpRealEcu.5CcR_LATEST.5Cmake.5Coutput.5Cobjects.5Cr_fdl_user_if...43.3A.5C_ECU2.5CECU_Rivian_A1.5CTarget.5Crepo_projects.5CpRealEcu.5CcR_LATEST.5Cmake..65044AEB..0::

                                                                      Page 2
                                                              C:\Users\nhuliyap\AppData\Local\Temp\gh_0000da81.s
                          51 ..gh.beginasm.0:
                          52 	.type	..gh.beginasm.0,@object
                          53 	.size	..gh.beginasm.0,0
                          54 
                          55 
                          56 
                          57 
                          58 
                          59 
                          60 
                          61     .set  regframe, 21
                          62 
                          63 
                          64     .set  framesize, regframe*4
                          65 
                          66 ..gh.endasm.1:
                          67 	.type	..gh.endasm.1,@object
                          68 	.size	..gh.endasm.1,0
                          69 	.text
                          70 	.align	2
                          71 ..gh.f.f.1.e.2:
                          72 	.type	..gh.f.f.1.e.2,@object
                          73 	.size	..gh.f.f.1.e.2,0
                          74 	.global	_R_FDL_InitVariables
                          75 _R_FDL_InitVariables:
00000000 8007e130         76 	prepare	{r26,r27,r28,r29,r31},0
00000004 06d0             77 	mov	r6,r26
                          78 --	    .bf
                          79 .LDW01:
00000006 3d0600000000*    80 	mov	_g_fdl_str,r29
0000000c 1dd8             81 	mov	r29,r27
                          82 --line50
                          83 ..lin.C.3A.5C_ECU2.5CECU_Rivian_A1.5CTarget.5Crepo_projects.5CpRealEcu.5CcR_LATEST.5Cmake.5Coutput.5Cobjects.5Cr_fdl_user_if.1::
                          84 .LDWlin1:
0000000e 20e65400         85 	movea	84,zero,r28
                          86 .L54:
00000012 1b30             87 	mov	r27,r6
00000014 003a             88 	mov	0,r7
                          89 	jarl	_R_FDL_IFct_WriteMemoryU08,lp
                          89 <EXPANSION BEGIN>
                          89 jarl22 _R_FDL_IFct_WriteMemoryU08 , lp 
00000016 80ff0000*        89 <EXPANSION END>
                          90 --line53
                          91 ..lin.C.3A.5C_ECU2.5CECU_Rivian_A1.5CTarget.5Crepo_projects.5CpRealEcu.5CcR_LATEST.5Cmake.5Coutput.5Cobjects.5Cr_fdl_user_if.2::
                          92 .LDWlin2:
0000001a 41da             93 	add	1,r27
0000001c fc060b00*        94 	loop	r28,.L54
                          95 --line56
                          96 ..lin.C.3A.5C_ECU2.5CECU_Rivian_A1.5CTarget.5Crepo_projects.5CpRealEcu.5CcR_LATEST.5Cmake.5Coutput.5Cobjects.5Cr_fdl_user_if.3::
                          97 .LDWlin3:
00000020 7d075100         98 	st.w	zero,80[r29]
00000024 e0d1             99 	cmp	zero,r26
00000026 a21d*           100 	be	.L7
                         101 --line62
                         102 ..lin.C.3A.5C_ECU2.5CECU_Rivian_A1.5CTarget.5Crepo_projects.5CpRealEcu.5CcR_LATEST.5Cmake.5Coutput.5Cobjects.5Cr_fdl_user_if.4::
                         103 .LDWlin4:
00000028 1df0            104 	mov	r29,ep
0000002a 01d5            105 	sst.w	r26,0[ep]
0000002c 1305            106 	sst.w	zero,36[ep]
0000002e 1505            107 	sst.w	zero,40[ep]
00000030 c803            108 	sst.b	zero,72[ep]

                                                                      Page 3
                                                              C:\Users\nhuliyap\AppData\Local\Temp\gh_0000da81.s
00000032 c903            109 	sst.b	zero,73[ep]
00000034 ca03            110 	sst.b	zero,74[ep]
00000036 a204            111 	sst.h	zero,68[ep]
00000038 ac03            112 	sst.b	zero,44[ep]
0000003a 1af0            113 	mov	r26,ep
0000003c 7190            114 	sld.hu	2[ep],r18
0000003e e091            115 	cmp	zero,r18
00000040 d20d*           116 	be	.L7
                         117 --line77
                         118 ..lin.C.3A.5C_ECU2.5CECU_Rivian_A1.5CTarget.5Crepo_projects.5CpRealEcu.5CcR_LATEST.5Cmake.5Coutput.5Cobjects.5Cr_fdl_user_if.5::
                         119 .LDWlin5:
00000042 7388            120 	sld.hu	6[ep],r17
00000044 7248            121 	sld.hu	4[ep],r9
00000046 12860100        122 	addi	1,r18,r16
0000004a c989            123 	add	r9,r17
0000004c d100            124 	zxh	r17
0000004e f089            125 	cmp	r16,r17
00000050 e3e71253        126 	cmovnl	3,r28,r10
00000054 e105*           127 	bl	.L16
                         128 --	    .ef
                         129 .LDW11:
                         130 --line77
                         131 ..lin.C.3A.5C_ECU2.5CECU_Rivian_A1.5CTarget.5Crepo_projects.5CpRealEcu.5CcR_LATEST.5Cmake.5Coutput.5Cobjects.5Cr_fdl_user_if.6::
                         132 .LDWlin6:
00000056 4006ff30        133 	dispose	0,{r26,r27,r28,r29,r31},[lp]
                         134 .L7:
                         135 --line87
                         136 ..lin.C.3A.5C_ECU2.5CECU_Rivian_A1.5CTarget.5Crepo_projects.5CpRealEcu.5CcR_LATEST.5Cmake.5Coutput.5Cobjects.5Cr_fdl_user_if.7::
                         137 .LDWlin7:
0000005a 0352            138 	mov	3,r10
0000005c 4006ff30        139 	dispose	0,{r26,r27,r28,r29,r31},[lp]
                         140 .L16:
                         141 --line93
                         142 ..lin.C.3A.5C_ECU2.5CECU_Rivian_A1.5CTarget.5Crepo_projects.5CpRealEcu.5CcR_LATEST.5Cmake.5Coutput.5Cobjects.5Cr_fdl_user_if.8::
                         143 .LDWlin8:
00000060 2f0654555555    144 	mov	1431655764,r15
00000066 7d7f5100        145 	st.w	r15,80[r29]
                         146 --line96
                         147 ..lin.C.3A.5C_ECU2.5CECU_Rivian_A1.5CTarget.5Crepo_projects.5CpRealEcu.5CcR_LATEST.5Cmake.5Coutput.5Cobjects.5Cr_fdl_user_if.9::
                         148 .LDWlin9:
0000006a 4006ff30        149 	dispose	0,{r26,r27,r28,r29,r31},[lp]
                         150 	.global	___ghs_eofn_R_FDL_InitVariables
                         151 ___ghs_eofn_R_FDL_InitVariables:
                         152 	.type	_R_FDL_InitVariables,@function
                         153 	.size	_R_FDL_InitVariables,.-_R_FDL_InitVariables
                         154 	.align	2
                         155 --_ret	r10	local
                         156 --_fdAdd	r27	local
                         157 
                         158 --_descriptor_pstr	r26	param
                         159 
                         160 	.section ".bss","awb"
                         161 .L215:
                         162 	.type	.L215,@object
                         163 	.size	.L215,0
                         164 	.data
                         165 	.text
                         166 	.align	2
                         167 	.align	2
                         168 ..gh.f.f.1.e.3:
                         169 	.type	..gh.f.f.1.e.3,@object

                                                                      Page 4
                                                              C:\Users\nhuliyap\AppData\Local\Temp\gh_0000da81.s
                         170 	.size	..gh.f.f.1.e.3,0
                         171 	.global	_R_FDL_UFct_FlashOpStart..C.3A.5C_ECU2.5CECU_Rivian_A1.5CTarget.5Crepo_projects.5CpRealEcu.5CcR_LATEST.5Cmake.5Coutput.5Cobjects.5Cr_fdl_user_if.
                         172 _R_FDL_UFct_FlashOpStart..C.3A.5C_ECU2.5CECU_Rivian_A1.5CTarget.5Crepo_projects.5CpRealEcu.5CcR_LATEST.5Cmake.5Coutput.5Cobjects.5Cr_fdl_user_if.:
                         173 _R_FDL_UFct_FlashOpStart:
0000006e 8407e1ff        174 	prepare	{r20,r21,r22,r23,r24,r25,r26,r27,r28,r29,r31},2
00000072 08a0            175 	mov	r8,r20
00000074 06d8            176 	mov	r6,r27
00000076 07e0            177 	mov	r7,r28
00000078 b400            178 	sxb	r20
                         179 --	    .bf
                         180 .LDW21:
0000007a 06f0            181 	mov	r6,ep
0000007c 043d            182 	sld.w	8[ep],r7
0000007e 76e8            183 	sld.hu	12[ep],r29
00000080 00cb            184 	sld.b	0[ep],r25
00000082 0ebb            185 	sld.b	14[ep],r23
00000084 02d5            186 	sld.w	4[ep],r26
00000086 01c2            187 	mov	1,r24
00000088 633f0100        188 	st.w	r7,0[sp]
0000008c 5cc70000        189 	st.b	r24,0[r28]
00000090 e0c9            190 	cmp	zero,r25
00000092 ca0d*           191 	bne	.L299
                         192 --line937
                         193 ..lin.C.3A.5C_ECU2.5CECU_Rivian_A1.5CTarget.5Crepo_projects.5CpRealEcu.5CcR_LATEST.5Cmake.5Coutput.5Cobjects.5Cr_fdl_user_if.10::
                         194 .LDWlin10:
00000094 c63a            195 	shl	6,r7
00000096 03f0            196 	mov	sp,ep
00000098 20464000        197 	movea	64,zero,r8
0000009c 013d            198 	sst.w	r7,0[ep]
0000009e c6ea            199 	shl	6,r29
000000a0 0345            200 	sst.w	r8,4[ep]
000000a2 18d0            201 	mov	r24,r26
000000a4 20b62000        202 	movea	32,zero,r22
000000a8 951d*           203 	br	.L301
                         204 .L299:
                         205 --line946
                         206 ..lin.C.3A.5C_ECU2.5CECU_Rivian_A1.5CTarget.5Crepo_projects.5CpRealEcu.5CcR_LATEST.5Cmake.5Coutput.5Cobjects.5Cr_fdl_user_if.11::
                         207 .LDWlin11:
000000aa c2ea            208 	shl	2,r29
000000ac 62ca            209 	cmp	2,r25
000000ae ba0d*           210 	bne	.L302
                         211 --line949
                         212 ..lin.C.3A.5C_ECU2.5CECU_Rivian_A1.5CTarget.5Crepo_projects.5CpRealEcu.5CcR_LATEST.5Cmake.5Coutput.5Cobjects.5Cr_fdl_user_if.12::
                         213 .LDWlin12:
000000b0 63ef0500        214 	st.w	r29,4[sp]
000000b4 23360400        215 	movea	4,sp,r6
                         216 	jarl	_R_FDL_IFct_CalcFOpUnitCnt_BC,lp
                         216 <EXPANSION BEGIN>
                         216 jarl22 _R_FDL_IFct_CalcFOpUnitCnt_BC , lp 
000000b8 80ff0000*       216 <EXPANSION END>
                         217 --line953
                         218 ..lin.C.3A.5C_ECU2.5CECU_Rivian_A1.5CTarget.5Crepo_projects.5CpRealEcu.5CcR_LATEST.5Cmake.5Coutput.5Cobjects.5Cr_fdl_user_if.13::
                         219 .LDWlin13:
000000bc 18d0            220 	mov	r24,r26
000000be 20b67100        221 	movea	113,zero,r22
000000c2 c50d*           222 	br	.L301
                         223 .L302:
                         224 --line957
                         225 ..lin.C.3A.5C_ECU2.5CECU_Rivian_A1.5CTarget.5Crepo_projects.5CpRealEcu.5CcR_LATEST.5Cmake.5Coutput.5Cobjects.5Cr_fdl_user_if.14::
                         226 .LDWlin14:
000000c4 61ca            227 	cmp	1,r25

                                                                      Page 5
                                                              C:\Users\nhuliyap\AppData\Local\Temp\gh_0000da81.s
000000c6 fa05*           228 	bne	.L305
                         229 --line960
                         230 ..lin.C.3A.5C_ECU2.5CECU_Rivian_A1.5CTarget.5Crepo_projects.5CpRealEcu.5CcR_LATEST.5Cmake.5Coutput.5Cobjects.5Cr_fdl_user_if.15::
                         231 .LDWlin15:
000000c8 043a            232 	mov	4,r7
000000ca 633f0500        233 	st.w	r7,4[sp]
000000ce 20b6e800        234 	movea	232,zero,r22
000000d2 c505*           235 	br	.L301
                         236 .L305:
                         237 --line980
                         238 ..lin.C.3A.5C_ECU2.5CECU_Rivian_A1.5CTarget.5Crepo_projects.5CpRealEcu.5CcR_LATEST.5Cmake.5Coutput.5Cobjects.5Cr_fdl_user_if.16::
                         239 .LDWlin16:
000000d4 63ef0500        240 	st.w	r29,4[sp]
000000d8 00b2            241 	mov	0,r22
                         242 .L301:
000000da 03f0            243 	mov	sp,ep
000000dc 003d            244 	sld.w	0[ep],r7
000000de 0235            245 	sld.w	4[ep],r6
000000e0 c731            246 	add	r7,r6
000000e2 06aeffff        247 	addi	-1,r6,r21
000000e6 61a2            248 	cmp	1,r20
000000e8 da0d*           249 	bne	.L308
                         250 --line989
                         251 ..lin.C.3A.5C_ECU2.5CECU_Rivian_A1.5CTarget.5Crepo_projects.5CpRealEcu.5CcR_LATEST.5Cmake.5Coutput.5Cobjects.5Cr_fdl_user_if.17::
                         252 .LDWlin17:
000000ea 0452            253 	mov	4,r10
000000ec e0d1            254 	cmp	zero,r26
000000ee f205*           255 	be	.L312
                         256 --line994
                         257 ..lin.C.3A.5C_ECU2.5CECU_Rivian_A1.5CTarget.5Crepo_projects.5CpRealEcu.5CcR_LATEST.5Cmake.5Coutput.5Cobjects.5Cr_fdl_user_if.18::
                         258 .LDWlin18:
000000f0 0730            259 	mov	r7,r6
000000f2 1d38            260 	mov	r29,r7
000000f4 1740            261 	mov	r23,r8
000000f6 0a48            262 	mov	r10,r9
                         263 	jarl	_R_FDL_IFct_ChkAccessBoundaries,lp
                         263 <EXPANSION BEGIN>
                         263 jarl22 _R_FDL_IFct_ChkAccessBoundaries , lp 
000000f8 80ff0000*       263 <EXPANSION END>
                         264 .L312:
                         265 --line997
                         266 ..lin.C.3A.5C_ECU2.5CECU_Rivian_A1.5CTarget.5Crepo_projects.5CpRealEcu.5CcR_LATEST.5Cmake.5Coutput.5Cobjects.5Cr_fdl_user_if.19::
                         267 .LDWlin19:
000000fc 5c570000        268 	st.b	r10,0[r28]
00000100 00c2            269 	mov	0,r24
                         270 .L308:
00000102 1c370000        271 	ld.b	0[r28],r6
00000106 6132            272 	cmp	1,r6
00000108 ea6d*           273 	bne	.L313
                         274 --line1003
                         275 ..lin.C.3A.5C_ECU2.5CECU_Rivian_A1.5CTarget.5Crepo_projects.5CpRealEcu.5CcR_LATEST.5Cmake.5Coutput.5Cobjects.5Cr_fdl_user_if.20::
                         276 .LDWlin20:
0000010a 63ca            277 	cmp	3,r25
0000010c da15*           278 	bne	.L315
                         279 --line1006
                         280 ..lin.C.3A.5C_ECU2.5CECU_Rivian_A1.5CTarget.5Crepo_projects.5CpRealEcu.5CcR_LATEST.5Cmake.5Coutput.5Cobjects.5Cr_fdl_user_if.21::
                         281 .LDWlin21:
0000010e da060300        282 	andi	3,r26,zero
00000112 ea0d*           283 	bne	.L317
                         284 --line1008
                         285 ..lin.C.3A.5C_ECU2.5CECU_Rivian_A1.5CTarget.5Crepo_projects.5CpRealEcu.5CcR_LATEST.5Cmake.5Coutput.5Cobjects.5Cr_fdl_user_if.22::

                                                                      Page 6
                                                              C:\Users\nhuliyap\AppData\Local\Temp\gh_0000da81.s
                         286 .LDWlin22:
00000114 1d40            287 	mov	r29,r8
00000116 0330            288 	mov	sp,r6
00000118 1a38            289 	mov	r26,r7
0000011a 8242            290 	shr	2,r8
                         291 	jarl	_R_FDL_FCUFct_ReadOperation,lp
                         291 <EXPANSION BEGIN>
                         291 jarl22 _R_FDL_FCUFct_ReadOperation , lp 
0000011c 80ff0000*       291 <EXPANSION END>
                         292 --line1011
                         293 ..lin.C.3A.5C_ECU2.5CECU_Rivian_A1.5CTarget.5Crepo_projects.5CpRealEcu.5CcR_LATEST.5Cmake.5Coutput.5Cobjects.5Cr_fdl_user_if.23::
                         294 .LDWlin23:
00000120 23970100        295 	ld.w	0[sp],r18
00000124 5c570000        296 	st.b	r10,0[r28]
00000128 7b970900        297 	st.w	r18,8[r27]
0000012c c55d*           298 	br	.L313
                         299 .L317:
                         300 --line1014
                         301 ..lin.C.3A.5C_ECU2.5CECU_Rivian_A1.5CTarget.5Crepo_projects.5CpRealEcu.5CcR_LATEST.5Cmake.5Coutput.5Cobjects.5Cr_fdl_user_if.24::
                         302 .LDWlin24:
0000012e 048a            303 	mov	4,r17
00000130 5c8f0000        304 	st.b	r17,0[r28]
00000134 855d*           305 	br	.L313
                         306 .L315:
                         307 --line1018
                         308 ..lin.C.3A.5C_ECU2.5CECU_Rivian_A1.5CTarget.5Crepo_projects.5CpRealEcu.5CcR_LATEST.5Cmake.5Coutput.5Cobjects.5Cr_fdl_user_if.25::
                         309 .LDWlin25:
00000136 3b0600000000*   310 	mov	_g_fdl_str,r27
0000013c 61a2            311 	cmp	1,r20
0000013e ba15*           312 	bne	.L321
                         313 --line1020
                         314 ..lin.C.3A.5C_ECU2.5CECU_Rivian_A1.5CTarget.5Crepo_projects.5CpRealEcu.5CcR_LATEST.5Cmake.5Coutput.5Cobjects.5Cr_fdl_user_if.26::
                         315 .LDWlin26:
00000140 20368000        316 	movea	128,zero,r6
                         317 	jarl	_R_FDL_FCUFct_SwitchMode_Start,lp
                         317 <EXPANSION BEGIN>
                         317 jarl22 _R_FDL_FCUFct_SwitchMode_Start , lp 
00000144 80ff0000*       317 <EXPANSION END>
00000148 5c570000        318 	st.b	r10,0[r28]
                         319 --line1021
                         320 ..lin.C.3A.5C_ECU2.5CECU_Rivian_A1.5CTarget.5Crepo_projects.5CpRealEcu.5CcR_LATEST.5Cmake.5Coutput.5Cobjects.5Cr_fdl_user_if.27::
                         321 .LDWlin27:
0000014c e051            322 	cmp	zero,r10
0000014e ba0d*           323 	bne	.L321
                         324 --line1023
                         325 ..lin.C.3A.5C_ECU2.5CECU_Rivian_A1.5CTarget.5Crepo_projects.5CpRealEcu.5CcR_LATEST.5Cmake.5Coutput.5Cobjects.5Cr_fdl_user_if.28::
                         326 .LDWlin28:
                         327 	jarl	_R_FDL_FCUFct_SwitchMode_Check,lp
                         327 <EXPANSION BEGIN>
                         327 jarl22 _R_FDL_FCUFct_SwitchMode_Check , lp 
00000150 80ff0000*       327 <EXPANSION END>
                         328 --line1024
                         329 ..lin.C.3A.5C_ECU2.5CECU_Rivian_A1.5CTarget.5Crepo_projects.5CpRealEcu.5CcR_LATEST.5Cmake.5Coutput.5Cobjects.5Cr_fdl_user_if.29::
                         330 .LDWlin29:
00000154 e051            331 	cmp	zero,r10
00000156 5c570000        332 	st.b	r10,0[r28]
0000015a e1c704c3        333 	cmove	1,r24,r24
0000015e d205*           334 	be	.L329
                         335 --line1030
                         336 ..lin.C.3A.5C_ECU2.5CECU_Rivian_A1.5CTarget.5Crepo_projects.5CpRealEcu.5CcR_LATEST.5Cmake.5Coutput.5Cobjects.5Cr_fdl_user_if.30::
                         337 .LDWlin30:

                                                                      Page 7
                                                              C:\Users\nhuliyap\AppData\Local\Temp\gh_0000da81.s
00000160 5ba72c00        338 	st.b	r20,44[r27]
                         339 .L321:
00000164 61c2            340 	cmp	1,r24
00000166 fa3d*           341 	bne	.L313
                         342 .L329:
                         343 --line1037
                         344 ..lin.C.3A.5C_ECU2.5CECU_Rivian_A1.5CTarget.5Crepo_projects.5CpRealEcu.5CcR_LATEST.5Cmake.5Coutput.5Cobjects.5Cr_fdl_user_if.31::
                         345 .LDWlin31:
00000168 e0c9            346 	cmp	zero,r25
0000016a b205*           347 	be	.L331
0000016c 62ca            348 	cmp	2,r25
0000016e ba0d*           349 	bne	.L330
                         350 .L331:
                         351 --line1039
                         352 ..lin.C.3A.5C_ECU2.5CECU_Rivian_A1.5CTarget.5Crepo_projects.5CpRealEcu.5CcR_LATEST.5Cmake.5Coutput.5Cobjects.5Cr_fdl_user_if.32::
                         353 .LDWlin32:
00000170 23370100        354 	ld.w	0[sp],r6
00000174 1538            355 	mov	r21,r7
00000176 1640            356 	mov	r22,r8
00000178 1748            357 	mov	r23,r9
                         358 	jarl	_R_FDL_FCUFct_StartBCEraseOperation,lp
                         358 <EXPANSION BEGIN>
                         358 jarl22 _R_FDL_FCUFct_StartBCEraseOperation , lp 
0000017a 80ff0000*       358 <EXPANSION END>
0000017e 5c570000        359 	st.b	r10,0[r28]
00000182 f50d*           360 	br	.L333
                         361 .L330:
                         362 --line1042
                         363 ..lin.C.3A.5C_ECU2.5CECU_Rivian_A1.5CTarget.5Crepo_projects.5CpRealEcu.5CcR_LATEST.5Cmake.5Coutput.5Cobjects.5Cr_fdl_user_if.33::
                         364 .LDWlin33:
00000184 03f0            365 	mov	sp,ep
00000186 003d            366 	sld.w	0[ep],r7
00000188 0245            367 	sld.w	4[ep],r8
0000018a 1a30            368 	mov	r26,r6
0000018c 1748            369 	mov	r23,r9
                         370 	jarl	_R_FDL_FCUFct_StartWriteOperation,lp
                         370 <EXPANSION BEGIN>
                         370 jarl22 _R_FDL_FCUFct_StartWriteOperation , lp 
0000018e 80ff0000*       370 <EXPANSION END>
                         371 --line1044
                         372 ..lin.C.3A.5C_ECU2.5CECU_Rivian_A1.5CTarget.5Crepo_projects.5CpRealEcu.5CcR_LATEST.5Cmake.5Coutput.5Cobjects.5Cr_fdl_user_if.34::
                         373 .LDWlin34:
00000192 239f0500        374 	ld.w	4[sp],r19
00000196 5c570000        375 	st.b	r10,0[r28]
0000019a da99            376 	add	r26,r19
0000019c 7b9f0900        377 	st.w	r19,8[r27]
                         378 .L333:
000001a0 1c7f0000        379 	ld.b	0[r28],r15
000001a4 617a            380 	cmp	1,r15
000001a6 fa0d*           381 	bne	.L334
                         382 --line1052
                         383 ..lin.C.3A.5C_ECU2.5CECU_Rivian_A1.5CTarget.5Crepo_projects.5CpRealEcu.5CcR_LATEST.5Cmake.5Coutput.5Cobjects.5Cr_fdl_user_if.35::
                         384 .LDWlin35:
000001a8 23670100        385 	ld.w	0[sp],r12
000001ac 156e0100        386 	addi	1,r21,r13
000001b0 0772            387 	mov	7,r14
000001b2 1bf0            388 	mov	r27,ep
000001b4 cce9            389 	add	r12,r29
000001b6 1d5effff        390 	addi	-1,r29,r11
000001ba ac73            391 	sst.b	r14,44[ep]
000001bc 036d            392 	sst.w	r13,4[ep]

                                                                      Page 8
                                                              C:\Users\nhuliyap\AppData\Local\Temp\gh_0000da81.s
000001be 075d            393 	sst.w	r11,12[ep]
000001c0 90bb            394 	sst.b	r23,16[ep]
000001c2 9515*           395 	br	.L313
                         396 .L334:
                         397 --line1056
                         398 ..lin.C.3A.5C_ECU2.5CECU_Rivian_A1.5CTarget.5Crepo_projects.5CpRealEcu.5CcR_LATEST.5Cmake.5Coutput.5Cobjects.5Cr_fdl_user_if.36::
                         399 .LDWlin36:
000001c4 0032            400 	mov	0,r6
                         401 	jarl	_R_FDL_FCUFct_SwitchMode_Start,lp
                         401 <EXPANSION BEGIN>
                         401 jarl22 _R_FDL_FCUFct_SwitchMode_Start , lp 
000001c6 80ff0000*       401 <EXPANSION END>
                         402 --line1057
                         403 ..lin.C.3A.5C_ECU2.5CECU_Rivian_A1.5CTarget.5Crepo_projects.5CpRealEcu.5CcR_LATEST.5Cmake.5Coutput.5Cobjects.5Cr_fdl_user_if.37::
                         404 .LDWlin37:
                         405 	jarl	_R_FDL_FCUFct_SwitchMode_Check,lp
                         405 <EXPANSION BEGIN>
                         405 jarl22 _R_FDL_FCUFct_SwitchMode_Check , lp 
000001ca 80ff0000*       405 <EXPANSION END>
000001ce 6152            406 	cmp	1,r10
000001d0 aa0d*           407 	bne	.L313
                         408 --line1060
                         409 ..lin.C.3A.5C_ECU2.5CECU_Rivian_A1.5CTarget.5Crepo_projects.5CpRealEcu.5CcR_LATEST.5Cmake.5Coutput.5Cobjects.5Cr_fdl_user_if.38::
                         410 .LDWlin38:
000001d2 1cf0            411 	mov	r28,ep
000001d4 004b            412 	sld.b	0[ep],r9
000001d6 0942            413 	mov	9,r8
000001d8 5b472c00        414 	st.b	r8,44[r27]
000001dc 00c2            415 	mov	0,r24
000001de 5b4f4700        416 	st.b	r9,71[r27]
000001e2 8053            417 	sst.b	r10,0[ep]
                         418 .L313:
000001e4 1850            419 	mov	r24,r10
                         420 --	    .ef
                         421 .LDW31:
000001e6 4406ffff        422 	dispose	2,{r20,r21,r22,r23,r24,r25,r26,r27,r28,r29,r31},[lp]
                         423 ___ghs_eofn_R_FDL_UFct_FlashOpStart:
                         424 	.type	_R_FDL_UFct_FlashOpStart,@function
                         425 	.size	_R_FDL_UFct_FlashOpStart,.-_R_FDL_UFct_FlashOpStart
                         426 	.type	_R_FDL_UFct_FlashOpStart..C.3A.5C_ECU2.5CECU_Rivian_A1.5CTarget.5Crepo_projects.5CpRealEcu.5CcR_LATEST.5Cmake.5Coutput.5Cobjects.5Cr_fdl_user_if.,@function
                         427 	.size	_R_FDL_UFct_FlashOpStart..C.3A.5C_ECU2.5CECU_Rivian_A1.5CTarget.5Crepo_projects.5CpRealEcu.5CcR_LATEST.5Cmake.5Coutput.5Cobjects.5Cr_fdl_user_if.,.-_R_FDL_UFct_FlashOpStart..C.3A.5C_ECU2.5CECU_Rivian_A1.5CTarget.5Crepo_projects.5CpRealEcu.5CcR_LATEST.5Cmake.5Coutput.5Cobjects.5Cr_fdl_user_if.
                         428 	.align	2
                         429 --_addFlash	0[sp]	local
                         430 --_cntTotal	r29	local
                         431 --_addBuf	r26	local
                         432 --_cntCurOp	4[sp]	local
                         433 --_addEndCurOp	r21	local
                         434 --_cmd	r25	local
                         435 --_accType	r23	local
                         436 --_cont	r24	local
                         437 --_fcuCmd	r22	local
                         438 
                         439 --_request_pstr	r27	param
                         440 --_tmpStat_penu	r28	param
                         441 --_isCalledFromExecute_enu	r20	param
                         442 
                         443 	.section ".bss","awb"
                         444 .L591:
                         445 	.type	.L591,@object
                         446 	.size	.L591,0
                         447 	.data

                                                                      Page 9
                                                              C:\Users\nhuliyap\AppData\Local\Temp\gh_0000da81.s
                         448 	.text
                         449 	.align	2
                         450 	.align	2
                         451 ..gh.f.f.1.e.4:
                         452 	.type	..gh.f.f.1.e.4,@object
                         453 	.size	..gh.f.f.1.e.4,0
                         454 	.global	_R_FDL_Execute
                         455 _R_FDL_Execute:
000001ea 8207e100        456 	prepare	{r28,r29,r31},1
000001ee 06e8            457 	mov	r6,r29
                         458 --	    .bf
                         459 .LDW41:
000001f0 0692            460 	mov	6,r18
000001f2 43970300        461 	st.b	r18,3[sp]
000001f6 e031            462 	cmp	zero,r6
000001f8 d24d*           463 	be	.L875
                         464 --line111
                         465 ..lin.C.3A.5C_ECU2.5CECU_Rivian_A1.5CTarget.5Crepo_projects.5CpRealEcu.5CcR_LATEST.5Cmake.5Coutput.5Cobjects.5Cr_fdl_user_if.39::
                         466 .LDWlin39:
000001fa 3c0600000000*   467 	mov	_g_fdl_str,r28
00000200 3c8f2900        468 	ld.w	40[r28],r17
00000204 e089            469 	cmp	zero,r17
00000206 da2d*           470 	bne	.L908
                         471 --line113
                         472 ..lin.C.3A.5C_ECU2.5CECU_Rivian_A1.5CTarget.5Crepo_projects.5CpRealEcu.5CcR_LATEST.5Cmake.5Coutput.5Cobjects.5Cr_fdl_user_if.40::
                         473 .LDWlin40:
00000208 3c875100        474 	ld.w	80[r28],r16
0000020c 310654555555    475 	mov	1431655764,r17
00000212 f181            476 	cmp	r17,r16
00000214 9a15*           477 	bne	.L881
                         478 --line115
                         479 ..lin.C.3A.5C_ECU2.5CECU_Rivian_A1.5CTarget.5Crepo_projects.5CpRealEcu.5CcR_LATEST.5Cmake.5Coutput.5Cobjects.5Cr_fdl_user_if.41::
                         480 .LDWlin41:
00000216 06870000        481 	ld.b	0[r6],r16
0000021a 6582            482 	cmp	5,r16
0000021c aa25*           483 	bne	.L908
                         484 --line117
                         485 ..lin.C.3A.5C_ECU2.5CECU_Rivian_A1.5CTarget.5Crepo_projects.5CpRealEcu.5CcR_LATEST.5Cmake.5Coutput.5Cobjects.5Cr_fdl_user_if.42::
                         486 .LDWlin42:
0000021e 20368000        487 	movea	128,zero,r6
                         488 	jarl	_R_FDL_FCUFct_SwitchMode_Start,lp
                         488 <EXPANSION BEGIN>
                         488 jarl22 _R_FDL_FCUFct_SwitchMode_Start , lp 
00000222 80ff0000*       488 <EXPANSION END>
00000226 43570300        489 	st.b	r10,3[sp]
                         490 --line118
                         491 ..lin.C.3A.5C_ECU2.5CECU_Rivian_A1.5CTarget.5Crepo_projects.5CpRealEcu.5CcR_LATEST.5Cmake.5Coutput.5Cobjects.5Cr_fdl_user_if.43::
                         492 .LDWlin43:
0000022a e051            493 	cmp	zero,r10
0000022c ba2d*           494 	bne	.L879
                         495 --line120
                         496 ..lin.C.3A.5C_ECU2.5CECU_Rivian_A1.5CTarget.5Crepo_projects.5CpRealEcu.5CcR_LATEST.5Cmake.5Coutput.5Cobjects.5Cr_fdl_user_if.44::
                         497 .LDWlin44:
0000022e 0192            498 	mov	1,r18
00000230 5c972c00        499 	st.b	r18,44[r28]
00000234 b52d*           500 	br	.L909
                         501 .L881:
                         502 --line125
                         503 ..lin.C.3A.5C_ECU2.5CECU_Rivian_A1.5CTarget.5Crepo_projects.5CpRealEcu.5CcR_LATEST.5Cmake.5Coutput.5Cobjects.5Cr_fdl_user_if.45::
                         504 .LDWlin45:
00000236 11760100        505 	addi	1,r17,r14

                                                                      Page 10
                                                              C:\Users\nhuliyap\AppData\Local\Temp\gh_0000da81.s
0000023a ee81            506 	cmp	r14,r16
0000023c 920d*           507 	be	.L889
0000023e 0e6e0200        508 	addi	2,r14,r13
00000242 ed81            509 	cmp	r13,r16
00000244 ea0d*           510 	bne	.L908
00000246 1c674800        511 	ld.b	72[r28],r12
0000024a e061            512 	cmp	zero,r12
0000024c aa0d*           513 	bne	.L908
                         514 .L889:
                         515 --line130
                         516 ..lin.C.3A.5C_ECU2.5CECU_Rivian_A1.5CTarget.5Crepo_projects.5CpRealEcu.5CcR_LATEST.5Cmake.5Coutput.5Cobjects.5Cr_fdl_user_if.46::
                         517 .LDWlin46:
0000024e 067f0000        518 	ld.b	0[r6],r15
00000252 617a            519 	cmp	1,r15
00000254 b30d*           520 	bnh	.L897
00000256 637a            521 	cmp	3,r15
00000258 f30d*           522 	bnh	.L901
0000025a 657a            523 	cmp	5,r15
                         524 --line165
                         525 ..lin.C.3A.5C_ECU2.5CECU_Rivian_A1.5CTarget.5Crepo_projects.5CpRealEcu.5CcR_LATEST.5Cmake.5Coutput.5Cobjects.5Cr_fdl_user_if.47::
                         526 .LDWlin47:
0000025c ea971493        527 	cmovne	10,r18,r18
                         528 .L908:
00000260 5d070e00        529 	st.b	zero,14[r29]
00000264 5c072c00        530 	st.b	zero,44[r28]
00000268 b515*           531 	br	.L910
                         532 .L897:
                         533 --line144
                         534 ..lin.C.3A.5C_ECU2.5CECU_Rivian_A1.5CTarget.5Crepo_projects.5CpRealEcu.5CcR_LATEST.5Cmake.5Coutput.5Cobjects.5Cr_fdl_user_if.48::
                         535 .LDWlin48:
0000026a 06370000        536 	ld.b	0[r6],r6
                         537 	jarl	_R_FDL_FCUFct_ChkStartable,lp
                         537 <EXPANSION BEGIN>
                         537 jarl22 _R_FDL_FCUFct_ChkStartable , lp 
0000026e 80ff0000*       537 <EXPANSION END>
00000272 6152            538 	cmp	1,r10
00000274 fa05*           539 	bne	.L879
                         540 .L901:
                         541 --line153
                         542 ..lin.C.3A.5C_ECU2.5CECU_Rivian_A1.5CTarget.5Crepo_projects.5CpRealEcu.5CcR_LATEST.5Cmake.5Coutput.5Cobjects.5Cr_fdl_user_if.49::
                         543 .LDWlin49:
00000276 1d30            544 	mov	r29,r6
00000278 233e0300        545 	movea	3,sp,r7
0000027c 0142            546 	mov	1,r8
                         547 	jarl	_R_FDL_UFct_FlashOpStart,lp
                         547 <EXPANSION BEGIN>
                         547 jarl22 _R_FDL_UFct_FlashOpStart , lp 
0000027e bffff0fd*       547 <EXPANSION END>
                         548 .L879:
                         549 --line175
                         550 ..lin.C.3A.5C_ECU2.5CECU_Rivian_A1.5CTarget.5Crepo_projects.5CpRealEcu.5CcR_LATEST.5Cmake.5Coutput.5Cobjects.5Cr_fdl_user_if.50::
                         551 .LDWlin50:
00000282 03970300        552 	ld.b	3[sp],r18
00000286 6192            553 	cmp	1,r18
00000288 caed*           554 	bne	.L908
                         555 .L909:
                         556 --line178
                         557 ..lin.C.3A.5C_ECU2.5CECU_Rivian_A1.5CTarget.5Crepo_projects.5CpRealEcu.5CcR_LATEST.5Cmake.5Coutput.5Cobjects.5Cr_fdl_user_if.51::
                         558 .LDWlin51:
0000028a 7cef2900        559 	st.w	r29,40[r28]
                         560 .L910:

                                                                      Page 11
                                                              C:\Users\nhuliyap\AppData\Local\Temp\gh_0000da81.s
0000028e 5d970f00        561 	st.b	r18,15[r29]
                         562 .L875:
                         563 --	    .ef
                         564 .LDW51:
00000292 4206ff00        565 	dispose	1,{r28,r29,r31},[lp]
                         566 	.global	___ghs_eofn_R_FDL_Execute
                         567 ___ghs_eofn_R_FDL_Execute:
                         568 	.type	_R_FDL_Execute,@function
                         569 	.size	_R_FDL_Execute,.-_R_FDL_Execute
                         570 	.align	2
                         571 --_reqErr	3[sp]	local
                         572 
                         573 --_request_pstr	r29	param
                         574 
                         575 	.section ".bss","awb"
                         576 .L1083:
                         577 	.type	.L1083,@object
                         578 	.size	.L1083,0
                         579 	.data
                         580 	.text
                         581 	.align	2
                         582 	.align	2
                         583 ..gh.f.f.1.e.5:
                         584 	.type	..gh.f.f.1.e.5,@object
                         585 	.size	..gh.f.f.1.e.5,0
                         586 	.global	_R_FDL_Handler_CancelReq..C.3A.5C_ECU2.5CECU_Rivian_A1.5CTarget.5Crepo_projects.5CpRealEcu.5CcR_LATEST.5Cmake.5Coutput.5Cobjects.5Cr_fdl_user_if.
                         587 _R_FDL_Handler_CancelReq..C.3A.5C_ECU2.5CECU_Rivian_A1.5CTarget.5Crepo_projects.5CpRealEcu.5CcR_LATEST.5Cmake.5Coutput.5Cobjects.5Cr_fdl_user_if.:
                         588 _R_FDL_Handler_CancelReq:
00000296 8007e130        589 	prepare	{r26,r27,r28,r29,r31},0
0000029a 06d0            590 	mov	r6,r26
                         591 --	    .bf
                         592 .LDW61:
0000029c 3d0600000000*   593 	mov	_g_fdl_str,r29
000002a2 1d8f4800        594 	ld.b	72[r29],r17
                         595 --line202
                         596 ..lin.C.3A.5C_ECU2.5CECU_Rivian_A1.5CTarget.5Crepo_projects.5CpRealEcu.5CcR_LATEST.5Cmake.5Coutput.5Cobjects.5Cr_fdl_user_if.52::
                         597 .LDWlin52:
000002a6 01e2            598 	mov	1,r28
000002a8 618a            599 	cmp	1,r17
000002aa 8a2d*           600 	bne	.L1282
                         601 --line206
                         602 ..lin.C.3A.5C_ECU2.5CECU_Rivian_A1.5CTarget.5Crepo_projects.5CpRealEcu.5CcR_LATEST.5Cmake.5Coutput.5Cobjects.5Cr_fdl_user_if.53::
                         603 .LDWlin53:
                         604 	jarl	_R_FDL_FCUFct_SwitchMode_Check,lp
                         604 <EXPANSION BEGIN>
                         604 jarl22 _R_FDL_FCUFct_SwitchMode_Check , lp 
000002ac 80ff0000*       604 <EXPANSION END>
000002b0 e051            605 	cmp	zero,r10
000002b2 ba25*           606 	bne	.L1284
                         607 --line208
                         608 ..lin.C.3A.5C_ECU2.5CECU_Rivian_A1.5CTarget.5Crepo_projects.5CpRealEcu.5CcR_LATEST.5Cmake.5Coutput.5Cobjects.5Cr_fdl_user_if.54::
                         609 .LDWlin54:
000002b4 fd974500        610 	ld.hu	68[r29],r18
000002b8 0eda            611 	mov	14,r27
000002ba 120680ff        612 	addi	-128,r18,zero
000002be ba0d*           613 	bne	.L1286
                         614 --line210
                         615 ..lin.C.3A.5C_ECU2.5CECU_Rivian_A1.5CTarget.5Crepo_projects.5CpRealEcu.5CcR_LATEST.5Cmake.5Coutput.5Cobjects.5Cr_fdl_user_if.55::
                         616 .LDWlin55:
                         617 	jarl	_R_FDL_FCUFct_ForcedStop,lp
                         617 <EXPANSION BEGIN>

                                                                      Page 12
                                                              C:\Users\nhuliyap\AppData\Local\Temp\gh_0000da81.s
                         617 jarl22 _R_FDL_FCUFct_ForcedStop , lp 
000002c0 80ff0000*       617 <EXPANSION END>
                         618 --line211
                         619 ..lin.C.3A.5C_ECU2.5CECU_Rivian_A1.5CTarget.5Crepo_projects.5CpRealEcu.5CcR_LATEST.5Cmake.5Coutput.5Cobjects.5Cr_fdl_user_if.56::
                         620 .LDWlin56:
000002c4 0032            621 	mov	0,r6
                         622 	jarl	_R_FDL_FCUFct_SwitchMode_Start,lp
                         622 <EXPANSION BEGIN>
                         622 jarl22 _R_FDL_FCUFct_SwitchMode_Start , lp 
000002c6 80ff0000*       622 <EXPANSION END>
                         623 --line213
                         624 ..lin.C.3A.5C_ECU2.5CECU_Rivian_A1.5CTarget.5Crepo_projects.5CpRealEcu.5CcR_LATEST.5Cmake.5Coutput.5Cobjects.5Cr_fdl_user_if.57::
                         625 .LDWlin57:
000002ca 094a            626 	mov	9,r9
000002cc 1df0            627 	mov	r29,ep
000002ce ac4b            628 	sst.b	r9,44[ep]
000002d0 c7db            629 	sst.b	r27,71[ep]
000002d2 c505*           630 	br	.L1288
                         631 .L1286:
                         632 --line217
                         633 ..lin.C.3A.5C_ECU2.5CECU_Rivian_A1.5CTarget.5Crepo_projects.5CpRealEcu.5CcR_LATEST.5Cmake.5Coutput.5Cobjects.5Cr_fdl_user_if.58::
                         634 .LDWlin58:
000002d4 5adf0000        635 	st.b	r27,0[r26]
000002d8 0ae0            636 	mov	r10,r28
                         637 .L1288:
000002da 1df0            638 	mov	r29,ep
000002dc 280655555555    639 	mov	1431655765,r8
000002e2 c803            640 	sst.b	zero,72[ep]
                         641 --line222
                         642 ..lin.C.3A.5C_ECU2.5CECU_Rivian_A1.5CTarget.5Crepo_projects.5CpRealEcu.5CcR_LATEST.5Cmake.5Coutput.5Cobjects.5Cr_fdl_user_if.59::
                         643 .LDWlin59:
000002e4 c903            644 	sst.b	zero,73[ep]
000002e6 ca03            645 	sst.b	zero,74[ep]
000002e8 2945            646 	sst.w	r8,80[ep]
000002ea 12f5            647 	sld.w	36[ep],ep
000002ec e0f1            648 	cmp	zero,ep
000002ee e205*           649 	be	.L1282
                         650 --line228
                         651 ..lin.C.3A.5C_ECU2.5CECU_Rivian_A1.5CTarget.5Crepo_projects.5CpRealEcu.5CcR_LATEST.5Cmake.5Coutput.5Cobjects.5Cr_fdl_user_if.60::
                         652 .LDWlin60:
000002f0 8fdb            653 	sst.b	r27,15[ep]
000002f2 7d072500        654 	st.w	zero,36[r29]
000002f6 a505*           655 	br	.L1282
                         656 .L1284:
                         657 --line233
                         658 ..lin.C.3A.5C_ECU2.5CECU_Rivian_A1.5CTarget.5Crepo_projects.5CpRealEcu.5CcR_LATEST.5Cmake.5Coutput.5Cobjects.5Cr_fdl_user_if.61::
                         659 .LDWlin61:
000002f8 00e2            660 	mov	0,r28
                         661 .L1282:
000002fa 1c50            662 	mov	r28,r10
                         663 --	    .ef
                         664 .LDW71:
000002fc 4006ff30        665 	dispose	0,{r26,r27,r28,r29,r31},[lp]
                         666 ___ghs_eofn_R_FDL_Handler_CancelReq:
                         667 	.type	_R_FDL_Handler_CancelReq,@function
                         668 	.size	_R_FDL_Handler_CancelReq,.-_R_FDL_Handler_CancelReq
                         669 	.type	_R_FDL_Handler_CancelReq..C.3A.5C_ECU2.5CECU_Rivian_A1.5CTarget.5Crepo_projects.5CpRealEcu.5CcR_LATEST.5Cmake.5Coutput.5Cobjects.5Cr_fdl_user_if.,@function
                         670 	.size	_R_FDL_Handler_CancelReq..C.3A.5C_ECU2.5CECU_Rivian_A1.5CTarget.5Crepo_projects.5CpRealEcu.5CcR_LATEST.5Cmake.5Coutput.5Cobjects.5Cr_fdl_user_if.,.-_R_FDL_Handler_CancelReq..C.3A.5C_ECU2.5CECU_Rivian_A1.5CTarget.5Crepo_projects.5CpRealEcu.5CcR_LATEST.5Cmake.5Coutput.5Cobjects.5Cr_fdl_user_if.
                         671 	.align	2
                         672 --_cont	r28	local
                         673 

                                                                      Page 13
                                                              C:\Users\nhuliyap\AppData\Local\Temp\gh_0000da81.s
                         674 --_tmpStat_penu	r26	param
                         675 
                         676 	.section ".bss","awb"
                         677 .L1353:
                         678 	.type	.L1353,@object
                         679 	.size	.L1353,0
                         680 	.data
                         681 	.text
                         682 	.align	2
                         683 	.align	2
                         684 ..gh.f.f.1.e.6:
                         685 	.type	..gh.f.f.1.e.6,@object
                         686 	.size	..gh.f.f.1.e.6,0
                         687 	.global	_R_FDL_Handler_BusyAndSuspendPossible..C.3A.5C_ECU2.5CECU_Rivian_A1.5CTarget.5Crepo_projects.5CpRealEcu.5CcR_LATEST.5Cmake.5Coutput.5Cobjects.5Cr_fdl_user_if.
                         688 _R_FDL_Handler_BusyAndSuspendPossible..C.3A.5C_ECU2.5CECU_Rivian_A1.5CTarget.5Crepo_projects.5CpRealEcu.5CcR_LATEST.5Cmake.5Coutput.5Cobjects.5Cr_fdl_user_if.:
                         689 _R_FDL_Handler_BusyAndSuspendPossible:
00000300 8007e100        690 	prepare	{r28,r29,r31},0
                         691 --	    .bf
                         692 .LDW81:
00000304 3d0600000000*   693 	mov	_g_fdl_str,r29
0000030a 1d974900        694 	ld.b	73[r29],r18
                         695 --line247
                         696 ..lin.C.3A.5C_ECU2.5CECU_Rivian_A1.5CTarget.5Crepo_projects.5CpRealEcu.5CcR_LATEST.5Cmake.5Coutput.5Cobjects.5Cr_fdl_user_if.62::
                         697 .LDWlin62:
0000030e 01e2            698 	mov	1,r28
00000310 6192            699 	cmp	1,r18
00000312 ea0d*           700 	bne	.L1445
                         701 --line251
                         702 ..lin.C.3A.5C_ECU2.5CECU_Rivian_A1.5CTarget.5Crepo_projects.5CpRealEcu.5CcR_LATEST.5Cmake.5Coutput.5Cobjects.5Cr_fdl_user_if.63::
                         703 .LDWlin63:
                         704 	jarl	_R_FDL_FCUFct_ChkSuspendable,lp
                         704 <EXPANSION BEGIN>
                         704 jarl22 _R_FDL_FCUFct_ChkSuspendable , lp 
00000314 80ff0000*       704 <EXPANSION END>
00000318 6152            705 	cmp	1,r10
0000031a aa0d*           706 	bne	.L1445
                         707 --line254
                         708 ..lin.C.3A.5C_ECU2.5CECU_Rivian_A1.5CTarget.5Crepo_projects.5CpRealEcu.5CcR_LATEST.5Cmake.5Coutput.5Cobjects.5Cr_fdl_user_if.64::
                         709 .LDWlin64:
                         710 	jarl	_R_FDL_FCUFct_Suspend,lp
                         710 <EXPANSION BEGIN>
                         710 jarl22 _R_FDL_FCUFct_Suspend , lp 
0000031c 80ff0000*       710 <EXPANSION END>
                         711 --line256
                         712 ..lin.C.3A.5C_ECU2.5CECU_Rivian_A1.5CTarget.5Crepo_projects.5CpRealEcu.5CcR_LATEST.5Cmake.5Coutput.5Cobjects.5Cr_fdl_user_if.65::
                         713 .LDWlin65:
00000320 1df0            714 	mov	r29,ep
00000322 290656555555    715 	mov	1431655766,r9
00000328 c903            716 	sst.b	zero,73[ep]
0000032a 294d            717 	sst.w	r9,80[ep]
                         718 --line258
                         719 ..lin.C.3A.5C_ECU2.5CECU_Rivian_A1.5CTarget.5Crepo_projects.5CpRealEcu.5CcR_LATEST.5Cmake.5Coutput.5Cobjects.5Cr_fdl_user_if.66::
                         720 .LDWlin66:
0000032c 00e2            721 	mov	0,r28
                         722 .L1445:
0000032e 1c50            723 	mov	r28,r10
                         724 --	    .ef
                         725 .LDW91:
00000330 4006ff00        726 	dispose	0,{r28,r29,r31},[lp]
                         727 ___ghs_eofn_R_FDL_Handler_BusyAndSuspendPossible:
                         728 	.type	_R_FDL_Handler_BusyAndSuspendPossible,@function

                                                                      Page 14
                                                              C:\Users\nhuliyap\AppData\Local\Temp\gh_0000da81.s
                         729 	.size	_R_FDL_Handler_BusyAndSuspendPossible,.-_R_FDL_Handler_BusyAndSuspendPossible
                         730 	.type	_R_FDL_Handler_BusyAndSuspendPossible..C.3A.5C_ECU2.5CECU_Rivian_A1.5CTarget.5Crepo_projects.5CpRealEcu.5CcR_LATEST.5Cmake.5Coutput.5Cobjects.5Cr_fdl_user_if.,@function
                         731 	.size	_R_FDL_Handler_BusyAndSuspendPossible..C.3A.5C_ECU2.5CECU_Rivian_A1.5CTarget.5Crepo_projects.5CpRealEcu.5CcR_LATEST.5Cmake.5Coutput.5Cobjects.5Cr_fdl_user_if.,.-_R_FDL_Handler_BusyAndSuspendPossible..C.3A.5C_ECU2.5CECU_Rivian_A1.5CTarget.5Crepo_projects.5CpRealEcu.5CcR_LATEST.5Cmake.5Coutput.5Cobjects.5Cr_fdl_user_if.
                         732 	.align	2
                         733 --_cont	r28	local
                         734 
                         735 	.section ".bss","awb"
                         736 .L1488:
                         737 	.type	.L1488,@object
                         738 	.size	.L1488,0
                         739 	.data
                         740 	.text
                         741 	.align	2
                         742 	.align	2
                         743 ..gh.f.f.1.e.7:
                         744 	.type	..gh.f.f.1.e.7,@object
                         745 	.size	..gh.f.f.1.e.7,0
                         746 	.global	_R_FDL_Handler_ChkResume..C.3A.5C_ECU2.5CECU_Rivian_A1.5CTarget.5Crepo_projects.5CpRealEcu.5CcR_LATEST.5Cmake.5Coutput.5Cobjects.5Cr_fdl_user_if.
                         747 _R_FDL_Handler_ChkResume..C.3A.5C_ECU2.5CECU_Rivian_A1.5CTarget.5Crepo_projects.5CpRealEcu.5CcR_LATEST.5Cmake.5Coutput.5Cobjects.5Cr_fdl_user_if.:
                         748 _R_FDL_Handler_ChkResume:
00000334 8007e110        749 	prepare	{r27,r28,r29,r31},0
00000338 06f0            750 	mov	r6,ep
                         751 --	    .bf
                         752 .LDW02:
0000033a 3d0600000000*   753 	mov	_g_fdl_str,r29
00000340 3d3f2900        754 	ld.w	40[r29],r7
                         755 --line274
                         756 ..lin.C.3A.5C_ECU2.5CECU_Rivian_A1.5CTarget.5Crepo_projects.5CpRealEcu.5CcR_LATEST.5Cmake.5Coutput.5Cobjects.5Cr_fdl_user_if.67::
                         757 .LDWlin67:
00000344 00da            758 	mov	0,r27
00000346 e039            759 	cmp	zero,r7
00000348 ba4d*           760 	bne	.L1535
0000034a 1d374a00        761 	ld.b	74[r29],r6
0000034e 6132            762 	cmp	1,r6
00000350 fa45*           763 	bne	.L1535
                         764 --line281
                         765 ..lin.C.3A.5C_ECU2.5CECU_Rivian_A1.5CTarget.5Crepo_projects.5CpRealEcu.5CcR_LATEST.5Cmake.5Coutput.5Cobjects.5Cr_fdl_user_if.68::
                         766 .LDWlin68:
00000352 1d4f4600        767 	ld.b	70[r29],r9
00000356 5d074a00        768 	st.b	zero,74[r29]
0000035a 3c0655555555    769 	mov	1431655765,r28
00000360 614a            770 	cmp	1,r9
00000362 da0d*           771 	bne	.L1538
                         772 --line283
                         773 ..lin.C.3A.5C_ECU2.5CECU_Rivian_A1.5CTarget.5Crepo_projects.5CpRealEcu.5CcR_LATEST.5Cmake.5Coutput.5Cobjects.5Cr_fdl_user_if.69::
                         774 .LDWlin69:
00000364 20368000        775 	movea	128,zero,r6
                         776 	jarl	_R_FDL_FCUFct_SwitchMode_Start,lp
                         776 <EXPANSION BEGIN>
                         776 jarl22 _R_FDL_FCUFct_SwitchMode_Start , lp 
00000368 80ff0000*       776 <EXPANSION END>
                         777 --line284
                         778 ..lin.C.3A.5C_ECU2.5CECU_Rivian_A1.5CTarget.5Crepo_projects.5CpRealEcu.5CcR_LATEST.5Cmake.5Coutput.5Cobjects.5Cr_fdl_user_if.70::
                         779 .LDWlin70:
0000036c e051            780 	cmp	zero,r10
0000036e da15*           781 	bne	.L1548
00000370 0542            782 	mov	5,r8
                         783 .L1640:
00000372 1df0            784 	mov	r29,ep
00000374 ac43            785 	sst.b	r8,44[ep]
                         786 --line284

                                                                      Page 15
                                                              C:\Users\nhuliyap\AppData\Local\Temp\gh_0000da81.s
                         787 ..lin.C.3A.5C_ECU2.5CECU_Rivian_A1.5CTarget.5Crepo_projects.5CpRealEcu.5CcR_LATEST.5Cmake.5Coutput.5Cobjects.5Cr_fdl_user_if.71::
                         788 .LDWlin71:
00000376 01da            789 	mov	1,r27
00000378 29e5            790 	sst.w	r28,80[ep]
0000037a 9525*           791 	br	.L1552
                         792 .L1538:
                         793 --line297
                         794 ..lin.C.3A.5C_ECU2.5CECU_Rivian_A1.5CTarget.5Crepo_projects.5CpRealEcu.5CcR_LATEST.5Cmake.5Coutput.5Cobjects.5Cr_fdl_user_if.72::
                         795 .LDWlin72:
0000037c e049            796 	cmp	zero,r9
0000037e ea15*           797 	bne	.L1544
00000380 3d9f1d00        798 	ld.w	28[r29],r19
00000384 3d971500        799 	ld.w	20[r29],r18
00000388 f391            800 	cmp	r19,r18
0000038a 8915*           801 	bnl	.L1544
                         802 --line300
                         803 ..lin.C.3A.5C_ECU2.5CECU_Rivian_A1.5CTarget.5Crepo_projects.5CpRealEcu.5CcR_LATEST.5Cmake.5Coutput.5Cobjects.5Cr_fdl_user_if.73::
                         804 .LDWlin73:
0000038c 20368000        805 	movea	128,zero,r6
                         806 	jarl	_R_FDL_FCUFct_SwitchMode_Start,lp
                         806 <EXPANSION BEGIN>
                         806 jarl22 _R_FDL_FCUFct_SwitchMode_Start , lp 
00000390 80ff0000*       806 <EXPANSION END>
                         807 --line301
                         808 ..lin.C.3A.5C_ECU2.5CECU_Rivian_A1.5CTarget.5Crepo_projects.5CpRealEcu.5CcR_LATEST.5Cmake.5Coutput.5Cobjects.5Cr_fdl_user_if.74::
                         809 .LDWlin74:
00000394 e051            810 	cmp	zero,r10
00000396 d205*           811 	be	.L1547
                         812 .L1548:
                         813 --line304
                         814 ..lin.C.3A.5C_ECU2.5CECU_Rivian_A1.5CTarget.5Crepo_projects.5CpRealEcu.5CcR_LATEST.5Cmake.5Coutput.5Cobjects.5Cr_fdl_user_if.75::
                         815 .LDWlin75:
00000398 3df72500        816 	ld.w	36[r29],ep
0000039c 8f53            817 	sst.b	r10,15[ep]
0000039e 950d*           818 	br	.L1543
                         819 .L1547:
                         820 --line308
                         821 ..lin.C.3A.5C_ECU2.5CECU_Rivian_A1.5CTarget.5Crepo_projects.5CpRealEcu.5CcR_LATEST.5Cmake.5Coutput.5Cobjects.5Cr_fdl_user_if.76::
                         822 .LDWlin76:
000003a0 018a            823 	mov	1,r17
000003a2 0642            824 	mov	6,r8
000003a4 5d8f4600        825 	st.b	r17,70[r29]
000003a8 d5e5*           826 	br	.L1640
                         827 .L1544:
                         828 --line314
                         829 ..lin.C.3A.5C_ECU2.5CECU_Rivian_A1.5CTarget.5Crepo_projects.5CpRealEcu.5CcR_LATEST.5Cmake.5Coutput.5Cobjects.5Cr_fdl_user_if.77::
                         830 .LDWlin77:
000003aa 7de75100        831 	st.w	r28,80[r29]
000003ae 804b            832 	sst.b	r9,0[ep]
                         833 .L1543:
000003b0 3d7f5100        834 	ld.w	80[r29],r15
000003b4 1c860200        835 	addi	2,r28,r16
000003b8 f079            836 	cmp	r16,r15
000003ba b215*           837 	be	.L1553
                         838 .L1552:
                         839 --line323
                         840 ..lin.C.3A.5C_ECU2.5CECU_Rivian_A1.5CTarget.5Crepo_projects.5CpRealEcu.5CcR_LATEST.5Cmake.5Coutput.5Cobjects.5Cr_fdl_user_if.78::
                         841 .LDWlin78:
000003bc 3df72500        842 	ld.w	36[r29],ep
000003c0 0172            843 	mov	1,r14
000003c2 7df72900        844 	st.w	ep,40[r29]

                                                                      Page 16
                                                              C:\Users\nhuliyap\AppData\Local\Temp\gh_0000da81.s
000003c6 8f73            845 	sst.b	r14,15[ep]
000003c8 1df0            846 	mov	r29,ep
000003ca 0a6d            847 	sld.w	20[ep],r13
000003cc 0c65            848 	sld.w	24[ep],r12
000003ce 0e5d            849 	sld.w	28[ep],r11
000003d0 2053            850 	sld.b	32[ep],r10
000003d2 1305            851 	sst.w	zero,36[ep]
000003d4 036d            852 	sst.w	r13,4[ep]
000003d6 0565            853 	sst.w	r12,8[ep]
000003d8 075d            854 	sst.w	r11,12[ep]
000003da 9053            855 	sst.b	r10,16[ep]
000003dc a505*           856 	br	.L1553
                         857 .L1535:
                         858 --line334
                         859 ..lin.C.3A.5C_ECU2.5CECU_Rivian_A1.5CTarget.5Crepo_projects.5CpRealEcu.5CcR_LATEST.5Cmake.5Coutput.5Cobjects.5Cr_fdl_user_if.79::
                         860 .LDWlin79:
000003de 01da            861 	mov	1,r27
                         862 .L1553:
000003e0 1b50            863 	mov	r27,r10
                         864 --	    .ef
                         865 .LDW12:
000003e2 4006ff10        866 	dispose	0,{r27,r28,r29,r31},[lp]
                         867 ___ghs_eofn_R_FDL_Handler_ChkResume:
                         868 	.type	_R_FDL_Handler_ChkResume,@function
                         869 	.size	_R_FDL_Handler_ChkResume,.-_R_FDL_Handler_ChkResume
                         870 	.type	_R_FDL_Handler_ChkResume..C.3A.5C_ECU2.5CECU_Rivian_A1.5CTarget.5Crepo_projects.5CpRealEcu.5CcR_LATEST.5Cmake.5Coutput.5Cobjects.5Cr_fdl_user_if.,@function
                         871 	.size	_R_FDL_Handler_ChkResume..C.3A.5C_ECU2.5CECU_Rivian_A1.5CTarget.5Crepo_projects.5CpRealEcu.5CcR_LATEST.5Cmake.5Coutput.5Cobjects.5Cr_fdl_user_if.,.-_R_FDL_Handler_ChkResume..C.3A.5C_ECU2.5CECU_Rivian_A1.5CTarget.5Crepo_projects.5CpRealEcu.5CcR_LATEST.5Cmake.5Coutput.5Cobjects.5Cr_fdl_user_if.
                         872 	.align	2
                         873 --_cont	r27	local
                         874 --_res	r10	local
                         875 
                         876 --_tmpStat_penu	ep	param
                         877 
                         878 	.section ".bss","awb"
                         879 .L1713:
                         880 	.type	.L1713,@object
                         881 	.size	.L1713,0
                         882 	.data
                         883 	.text
                         884 	.align	2
                         885 	.align	2
                         886 ..gh.f.f.1.e.8:
                         887 	.type	..gh.f.f.1.e.8,@object
                         888 	.size	..gh.f.f.1.e.8,0
                         889 	.global	_R_FDL_Handler_ReactOnFatalErrors..C.3A.5C_ECU2.5CECU_Rivian_A1.5CTarget.5Crepo_projects.5CpRealEcu.5CcR_LATEST.5Cmake.5Coutput.5Cobjects.5Cr_fdl_user_if.
                         890 _R_FDL_Handler_ReactOnFatalErrors..C.3A.5C_ECU2.5CECU_Rivian_A1.5CTarget.5Crepo_projects.5CpRealEcu.5CcR_LATEST.5Cmake.5Coutput.5Cobjects.5Cr_fdl_user_if.:
                         891 _R_FDL_Handler_ReactOnFatalErrors:
000003e6 8007e110        892 	prepare	{r27,r28,r29,r31},0
000003ea 06d8            893 	mov	r6,r27
                         894 --	    .bf
                         895 .LDW22:
000003ec 01e2            896 	mov	1,r28
                         897 	jarl	_R_FDL_FCUFct_CheckFatalError,lp
                         897 <EXPANSION BEGIN>
                         897 jarl22 _R_FDL_FCUFct_CheckFatalError , lp 
000003ee 80ff0000*       897 <EXPANSION END>
000003f2 0ae8            898 	mov	r10,r29
                         899 --line353
                         900 ..lin.C.3A.5C_ECU2.5CECU_Rivian_A1.5CTarget.5Crepo_projects.5CpRealEcu.5CcR_LATEST.5Cmake.5Coutput.5Cobjects.5Cr_fdl_user_if.80::
                         901 .LDWlin80:
000003f4 e051            902 	cmp	zero,r10

                                                                      Page 17
                                                              C:\Users\nhuliyap\AppData\Local\Temp\gh_0000da81.s
000003f6 c215*           903 	be	.L1864
                         904 --line355
                         905 ..lin.C.3A.5C_ECU2.5CECU_Rivian_A1.5CTarget.5Crepo_projects.5CpRealEcu.5CcR_LATEST.5Cmake.5Coutput.5Cobjects.5Cr_fdl_user_if.81::
                         906 .LDWlin81:
                         907 	jarl	_R_FDL_FCUFct_ClearStatus,lp
                         907 <EXPANSION BEGIN>
                         907 jarl22 _R_FDL_FCUFct_ClearStatus , lp 
000003f8 80ff0000*       907 <EXPANSION END>
                         908 --line356
                         909 ..lin.C.3A.5C_ECU2.5CECU_Rivian_A1.5CTarget.5Crepo_projects.5CpRealEcu.5CcR_LATEST.5Cmake.5Coutput.5Cobjects.5Cr_fdl_user_if.82::
                         910 .LDWlin82:
000003fc 0032            911 	mov	0,r6
                         912 	jarl	_R_FDL_FCUFct_SwitchMode_Start,lp
                         912 <EXPANSION BEGIN>
                         912 jarl22 _R_FDL_FCUFct_SwitchMode_Start , lp 
000003fe 80ff0000*       912 <EXPANSION END>
                         913 --line358
                         914 ..lin.C.3A.5C_ECU2.5CECU_Rivian_A1.5CTarget.5Crepo_projects.5CpRealEcu.5CcR_LATEST.5Cmake.5Coutput.5Cobjects.5Cr_fdl_user_if.83::
                         915 .LDWlin83:
                         916 	jarl	_R_FDL_FCUFct_SwitchMode_Check,lp
                         916 <EXPANSION BEGIN>
                         916 jarl22 _R_FDL_FCUFct_SwitchMode_Check , lp 
00000402 80ff0000*       916 <EXPANSION END>
00000406 6152            917 	cmp	1,r10
00000408 8a0d*           918 	bne	.L1868
                         919 --line360
                         920 ..lin.C.3A.5C_ECU2.5CECU_Rivian_A1.5CTarget.5Crepo_projects.5CpRealEcu.5CcR_LATEST.5Cmake.5Coutput.5Cobjects.5Cr_fdl_user_if.84::
                         921 .LDWlin84:
0000040a 3e0600000000*   922 	mov	_g_fdl_str,ep
00000410 094a            923 	mov	9,r9
                         924 --line362
                         925 ..lin.C.3A.5C_ECU2.5CECU_Rivian_A1.5CTarget.5Crepo_projects.5CpRealEcu.5CcR_LATEST.5Cmake.5Coutput.5Cobjects.5Cr_fdl_user_if.85::
                         926 .LDWlin85:
00000412 c7eb            927 	sst.b	r29,71[ep]
00000414 ac4b            928 	sst.b	r9,44[ep]
00000416 1ce8            929 	mov	r28,r29
                         930 .L1868:
00000418 5bef0000        931 	st.b	r29,0[r27]
0000041c 00e2            932 	mov	0,r28
                         933 .L1864:
0000041e 1c50            934 	mov	r28,r10
                         935 --	    .ef
                         936 .LDW32:
00000420 4006ff10        937 	dispose	0,{r27,r28,r29,r31},[lp]
                         938 ___ghs_eofn_R_FDL_Handler_ReactOnFatalErrors:
                         939 	.type	_R_FDL_Handler_ReactOnFatalErrors,@function
                         940 	.size	_R_FDL_Handler_ReactOnFatalErrors,.-_R_FDL_Handler_ReactOnFatalErrors
                         941 	.type	_R_FDL_Handler_ReactOnFatalErrors..C.3A.5C_ECU2.5CECU_Rivian_A1.5CTarget.5Crepo_projects.5CpRealEcu.5CcR_LATEST.5Cmake.5Coutput.5Cobjects.5Cr_fdl_user_if.,@function
                         942 	.size	_R_FDL_Handler_ReactOnFatalErrors..C.3A.5C_ECU2.5CECU_Rivian_A1.5CTarget.5Crepo_projects.5CpRealEcu.5CcR_LATEST.5Cmake.5Coutput.5Cobjects.5Cr_fdl_user_if.,.-_R_FDL_Handler_ReactOnFatalErrors..C.3A.5C_ECU2.5CECU_Rivian_A1.5CTarget.5Crepo_projects.5CpRealEcu.5CcR_LATEST.5Cmake.5Coutput.5Cobjects.5Cr_fdl_user_if.
                         943 	.align	2
                         944 --_cont	r28	local
                         945 --_stat	r29	local
                         946 
                         947 --_tmpStat_penu	r27	param
                         948 
                         949 	.section ".bss","awb"
                         950 .L1922:
                         951 	.type	.L1922,@object
                         952 	.size	.L1922,0
                         953 	.data
                         954 	.text

                                                                      Page 18
                                                              C:\Users\nhuliyap\AppData\Local\Temp\gh_0000da81.s
                         955 	.align	2
                         956 	.align	2
                         957 ..gh.f.f.1.e.9:
                         958 	.type	..gh.f.f.1.e.9,@object
                         959 	.size	..gh.f.f.1.e.9,0
                         960 	.global	_R_FDL_Handler_StatusCheckAndSuspendOnReady..C.3A.5C_ECU2.5CECU_Rivian_A1.5CTarget.5Crepo_projects.5CpRealEcu.5CcR_LATEST.5Cmake.5Coutput.5Cobjects.5Cr_fdl_user_if.
                         961 _R_FDL_Handler_StatusCheckAndSuspendOnReady..C.3A.5C_ECU2.5CECU_Rivian_A1.5CTarget.5Crepo_projects.5CpRealEcu.5CcR_LATEST.5Cmake.5Coutput.5Cobjects.5Cr_fdl_user_if.:
                         962 _R_FDL_Handler_StatusCheckAndSuspendOnReady:
00000424 8007e130        963 	prepare	{r26,r27,r28,r29,r31},0
00000428 06d8            964 	mov	r6,r27
                         965 --	    .bf
                         966 .LDW42:
0000042a 01d2            967 	mov	1,r26
                         968 	jarl	_R_FDL_FCUFct_GetStat,lp
                         968 <EXPANSION BEGIN>
                         968 jarl22 _R_FDL_FCUFct_GetStat , lp 
0000042c 80ff0000*       968 <EXPANSION END>
00000430 5b570000        969 	st.b	r10,0[r27]
                         970 --line387
                         971 ..lin.C.3A.5C_ECU2.5CECU_Rivian_A1.5CTarget.5Crepo_projects.5CpRealEcu.5CcR_LATEST.5Cmake.5Coutput.5Cobjects.5Cr_fdl_user_if.86::
                         972 .LDWlin86:
                         973 	jarl	_R_FDL_FCUFct_ClearStatus,lp
                         973 <EXPANSION BEGIN>
                         973 jarl22 _R_FDL_FCUFct_ClearStatus , lp 
00000434 80ff0000*       973 <EXPANSION END>
                         974 --line389
                         975 ..lin.C.3A.5C_ECU2.5CECU_Rivian_A1.5CTarget.5Crepo_projects.5CpRealEcu.5CcR_LATEST.5Cmake.5Coutput.5Cobjects.5Cr_fdl_user_if.87::
                         976 .LDWlin87:
00000438 3d0600000000*   977 	mov	_g_fdl_str,r29
0000043e 1d974900        978 	ld.b	73[r29],r18
00000442 3c0656555555    979 	mov	1431655766,r28
00000448 6192            980 	cmp	1,r18
0000044a da05*           981 	bne	.L1986
                         982 --line392
                         983 ..lin.C.3A.5C_ECU2.5CECU_Rivian_A1.5CTarget.5Crepo_projects.5CpRealEcu.5CcR_LATEST.5Cmake.5Coutput.5Cobjects.5Cr_fdl_user_if.88::
                         984 .LDWlin88:
0000044c 1df0            985 	mov	r29,ep
0000044e c903            986 	sst.b	zero,73[ep]
00000450 29e5            987 	sst.w	r28,80[ep]
00000452 d505*           988 	br	.L1989
                         989 .L1986:
                         990 --line395
                         991 ..lin.C.3A.5C_ECU2.5CECU_Rivian_A1.5CTarget.5Crepo_projects.5CpRealEcu.5CcR_LATEST.5Cmake.5Coutput.5Cobjects.5Cr_fdl_user_if.89::
                         992 .LDWlin89:
00000454 3d8f5100        993 	ld.w	80[r29],r17
00000458 fc89            994 	cmp	r28,r17
0000045a da25*           995 	bne	.L1988
                         996 .L1989:
                         997 --line397
                         998 ..lin.C.3A.5C_ECU2.5CECU_Rivian_A1.5CTarget.5Crepo_projects.5CpRealEcu.5CcR_LATEST.5Cmake.5Coutput.5Cobjects.5Cr_fdl_user_if.90::
                         999 .LDWlin90:
0000045c 1b870000       1000 	ld.b	0[r27],r16
00000460 0032           1001 	mov	0,r6
00000462 5d874600       1002 	st.b	r16,70[r29]
                        1003 	jarl	_R_FDL_FCUFct_SwitchMode_Start,lp
                        1003 <EXPANSION BEGIN>
                        1003 jarl22 _R_FDL_FCUFct_SwitchMode_Start , lp 
00000466 80ff0000*      1003 <EXPANSION END>
                        1004 --line400
                        1005 ..lin.C.3A.5C_ECU2.5CECU_Rivian_A1.5CTarget.5Crepo_projects.5CpRealEcu.5CcR_LATEST.5Cmake.5Coutput.5Cobjects.5Cr_fdl_user_if.91::
                        1006 .LDWlin91:

                                                                      Page 19
                                                              C:\Users\nhuliyap\AppData\Local\Temp\gh_0000da81.s
                        1007 	jarl	_R_FDL_FCUFct_SwitchMode_Check,lp
                        1007 <EXPANSION BEGIN>
                        1007 jarl22 _R_FDL_FCUFct_SwitchMode_Check , lp 
0000046a 80ff0000*      1007 <EXPANSION END>
                        1008 --line402
                        1009 ..lin.C.3A.5C_ECU2.5CECU_Rivian_A1.5CTarget.5Crepo_projects.5CpRealEcu.5CcR_LATEST.5Cmake.5Coutput.5Cobjects.5Cr_fdl_user_if.92::
                        1010 .LDWlin92:
0000046e e051           1011 	cmp	zero,r10
00000470 ba0d*          1012 	bne	.L1990
                        1013 --line404
                        1014 ..lin.C.3A.5C_ECU2.5CECU_Rivian_A1.5CTarget.5Crepo_projects.5CpRealEcu.5CcR_LATEST.5Cmake.5Coutput.5Cobjects.5Cr_fdl_user_if.93::
                        1015 .LDWlin93:
00000472 027a           1016 	mov	2,r15
00000474 5b7f0000       1017 	st.b	r15,0[r27]
00000478 1df0           1018 	mov	r29,ep
0000047a 1475           1019 	sld.w	40[ep],r14
0000047c 1c6e0100       1020 	addi	1,r28,r13
00000480 296d           1021 	sst.w	r13,80[ep]
00000482 1375           1022 	sst.w	r14,36[ep]
00000484 e505*          1023 	br	.L1992
                        1024 .L1990:
                        1025 --line411
                        1026 ..lin.C.3A.5C_ECU2.5CECU_Rivian_A1.5CTarget.5Crepo_projects.5CpRealEcu.5CcR_LATEST.5Cmake.5Coutput.5Cobjects.5Cr_fdl_user_if.94::
                        1027 .LDWlin94:
00000486 5bd70000       1028 	st.b	r26,0[r27]
0000048a 085a           1029 	mov	8,r11
0000048c 5d5f2c00       1030 	st.b	r11,44[r29]
                        1031 .L1992:
00000490 1df0           1032 	mov	r29,ep
00000492 0255           1033 	sld.w	4[ep],r10
00000494 044d           1034 	sld.w	8[ep],r9
00000496 0645           1035 	sld.w	12[ep],r8
00000498 103b           1036 	sld.b	16[ep],r7
0000049a 0b55           1037 	sst.w	r10,20[ep]
0000049c 0d4d           1038 	sst.w	r9,24[ep]
0000049e 0f45           1039 	sst.w	r8,28[ep]
000004a0 a03b           1040 	sst.b	r7,32[ep]
000004a2 00d2           1041 	mov	0,r26
                        1042 .L1988:
000004a4 1a50           1043 	mov	r26,r10
                        1044 --	    .ef
                        1045 .LDW52:
000004a6 4006ff30       1046 	dispose	0,{r26,r27,r28,r29,r31},[lp]
                        1047 ___ghs_eofn_R_FDL_Handler_StatusCheckAndSuspendOnReady:
                        1048 	.type	_R_FDL_Handler_StatusCheckAndSuspendOnReady,@function
                        1049 	.size	_R_FDL_Handler_StatusCheckAndSuspendOnReady,.-_R_FDL_Handler_StatusCheckAndSuspendOnReady
                        1050 	.type	_R_FDL_Handler_StatusCheckAndSuspendOnReady..C.3A.5C_ECU2.5CECU_Rivian_A1.5CTarget.5Crepo_projects.5CpRealEcu.5CcR_LATEST.5Cmake.5Coutput.5Cobjects.5Cr_fdl_user_if.,@function
                        1051 	.size	_R_FDL_Handler_StatusCheckAndSuspendOnReady..C.3A.5C_ECU2.5CECU_Rivian_A1.5CTarget.5Crepo_projects.5CpRealEcu.5CcR_LATEST.5Cmake.5Coutput.5Cobjects.5Cr_fdl_user_if.,.-_R_FDL_Handler_StatusCheckAndSuspendOnReady..C.3A.5C_ECU2.5CECU_Rivian_A1.5CTarget.5Crepo_projects.5CpRealEcu.5CcR_LATEST.5Cmake.5Coutput.5Cobjects.5Cr_fdl_user_if.
                        1052 	.align	2
                        1053 --_cont	r26	local
                        1054 
                        1055 --_tmpStat_penu	r27	param
                        1056 
                        1057 	.section ".bss","awb"
                        1058 .L2062:
                        1059 	.type	.L2062,@object
                        1060 	.size	.L2062,0
                        1061 	.data
                        1062 	.text
                        1063 	.align	2
                        1064 	.align	2

                                                                      Page 20
                                                              C:\Users\nhuliyap\AppData\Local\Temp\gh_0000da81.s
                        1065 ..gh.f.f.1.e.10:
                        1066 	.type	..gh.f.f.1.e.10,@object
                        1067 	.size	..gh.f.f.1.e.10,0
                        1068 	.global	_R_FDL_Handler_MultiOperation..C.3A.5C_ECU2.5CECU_Rivian_A1.5CTarget.5Crepo_projects.5CpRealEcu.5CcR_LATEST.5Cmake.5Coutput.5Cobjects.5Cr_fdl_user_if.
                        1069 _R_FDL_Handler_MultiOperation..C.3A.5C_ECU2.5CECU_Rivian_A1.5CTarget.5Crepo_projects.5CpRealEcu.5CcR_LATEST.5Cmake.5Coutput.5Cobjects.5Cr_fdl_user_if.:
                        1070 _R_FDL_Handler_MultiOperation:
000004aa 8207e100       1071 	prepare	{r28,r29,r31},1
000004ae 06e0           1072 	mov	r6,r28
                        1073 --	    .bf
                        1074 .LDW62:
000004b0 3d0600000000*  1075 	mov	_g_fdl_str,r29
000004b6 3df72900       1076 	ld.w	40[r29],ep
                        1077 --line439
                        1078 ..lin.C.3A.5C_ECU2.5CECU_Rivian_A1.5CTarget.5Crepo_projects.5CpRealEcu.5CcR_LATEST.5Cmake.5Coutput.5Cobjects.5Cr_fdl_user_if.95::
                        1079 .LDWlin95:
000004ba 063f0000       1080 	ld.b	0[r6],r7
000004be 0152           1081 	mov	1,r10
000004c0 004b           1082 	sld.b	0[ep],r9
000004c2 e039           1083 	cmp	zero,r7
000004c4 8a65*          1084 	bne	.L2143
000004c6 1df0           1085 	mov	r29,ep
000004c8 023d           1086 	sld.w	4[ep],r7
000004ca 0695           1087 	sld.w	12[ep],r18
000004cc f239           1088 	cmp	r18,r7
000004ce b95d*          1089 	bnl	.L2143
                        1090 --line445
                        1091 ..lin.C.3A.5C_ECU2.5CECU_Rivian_A1.5CTarget.5Crepo_projects.5CpRealEcu.5CcR_LATEST.5Cmake.5Coutput.5Cobjects.5Cr_fdl_user_if.96::
                        1092 .LDWlin96:
000004d0 614a           1093 	cmp	1,r9
000004d2 ca15*          1094 	bne	.L2148
                        1095 --line460
                        1096 ..lin.C.3A.5C_ECU2.5CECU_Rivian_A1.5CTarget.5Crepo_projects.5CpRealEcu.5CcR_LATEST.5Cmake.5Coutput.5Cobjects.5Cr_fdl_user_if.97::
                        1097 .LDWlin97:
000004d4 0435           1098 	sld.w	8[ep],r6
000004d6 104b           1099 	sld.b	16[ep],r9
000004d8 0442           1100 	mov	4,r8
000004da 63470100       1101 	st.w	r8,0[sp]
                        1102 	jarl	_R_FDL_FCUFct_StartWriteOperation,lp
                        1102 <EXPANSION BEGIN>
                        1102 jarl22 _R_FDL_FCUFct_StartWriteOperation , lp 
000004de 80ff0000*      1102 <EXPANSION END>
000004e2 5c570000       1103 	st.b	r10,0[r28]
                        1104 --line465
                        1105 ..lin.C.3A.5C_ECU2.5CECU_Rivian_A1.5CTarget.5Crepo_projects.5CpRealEcu.5CcR_LATEST.5Cmake.5Coutput.5Cobjects.5Cr_fdl_user_if.98::
                        1106 .LDWlin98:
000004e6 1df0           1107 	mov	r29,ep
000004e8 23470100       1108 	ld.w	0[sp],r8
000004ec 028d           1109 	sld.w	4[ep],r17
000004ee 0485           1110 	sld.w	8[ep],r16
000004f0 c889           1111 	add	r8,r17
000004f2 c881           1112 	add	r8,r16
000004f4 038d           1113 	sst.w	r17,4[ep]
000004f6 0585           1114 	sst.w	r16,8[ep]
000004f8 8535*          1115 	br	.L2150
                        1116 .L2148:
                        1117 --line468
                        1118 ..lin.C.3A.5C_ECU2.5CECU_Rivian_A1.5CTarget.5Crepo_projects.5CpRealEcu.5CcR_LATEST.5Cmake.5Coutput.5Cobjects.5Cr_fdl_user_if.99::
                        1119 .LDWlin99:
000004fa e049           1120 	cmp	zero,r9
000004fc aa15*          1121 	bne	.L2151
                        1122 --line470

                                                                      Page 21
                                                              C:\Users\nhuliyap\AppData\Local\Temp\gh_0000da81.s
                        1123 ..lin.C.3A.5C_ECU2.5CECU_Rivian_A1.5CTarget.5Crepo_projects.5CpRealEcu.5CcR_LATEST.5Cmake.5Coutput.5Cobjects.5Cr_fdl_user_if.100::
                        1124 .LDWlin100:
000004fe 1d4f1000       1125 	ld.b	16[r29],r9
00000502 0730           1126 	mov	r7,r6
00000504 073e3f00       1127 	addi	63,r7,r7
00000508 20462000       1128 	movea	32,zero,r8
                        1129 	jarl	_R_FDL_FCUFct_StartBCEraseOperation,lp
                        1129 <EXPANSION BEGIN>
                        1129 jarl22 _R_FDL_FCUFct_StartBCEraseOperation , lp 
0000050c 80ff0000*      1129 <EXPANSION END>
00000510 5c570000       1130 	st.b	r10,0[r28]
                        1131 --line475
                        1132 ..lin.C.3A.5C_ECU2.5CECU_Rivian_A1.5CTarget.5Crepo_projects.5CpRealEcu.5CcR_LATEST.5Cmake.5Coutput.5Cobjects.5Cr_fdl_user_if.101::
                        1133 .LDWlin101:
00000514 1df0           1134 	mov	r29,ep
00000516 0235           1135 	sld.w	4[ep],r6
00000518 06364000       1136 	addi	64,r6,r6
0000051c 0335           1137 	sst.w	r6,4[ep]
0000051e d51d*          1138 	br	.L2150
                        1139 .L2151:
                        1140 --line478
                        1141 ..lin.C.3A.5C_ECU2.5CECU_Rivian_A1.5CTarget.5Crepo_projects.5CpRealEcu.5CcR_LATEST.5Cmake.5Coutput.5Cobjects.5Cr_fdl_user_if.102::
                        1142 .LDWlin102:
00000520 127e0100       1143 	addi	1,r18,r15
00000524 a779           1144 	sub	r7,r15
00000526 637f0100       1145 	st.w	r15,0[sp]
0000052a 0330           1146 	mov	sp,r6
                        1147 	jarl	_R_FDL_IFct_CalcFOpUnitCnt_BC,lp
                        1147 <EXPANSION BEGIN>
                        1147 jarl22 _R_FDL_IFct_CalcFOpUnitCnt_BC , lp 
0000052c 80ff0000*      1147 <EXPANSION END>
                        1148 --line482
                        1149 ..lin.C.3A.5C_ECU2.5CECU_Rivian_A1.5CTarget.5Crepo_projects.5CpRealEcu.5CcR_LATEST.5Cmake.5Coutput.5Cobjects.5Cr_fdl_user_if.103::
                        1150 .LDWlin103:
00000530 1df0           1151 	mov	r29,ep
00000532 0235           1152 	sld.w	4[ep],r6
00000534 239f0100       1153 	ld.w	0[sp],r19
00000538 104b           1154 	sld.b	16[ep],r9
0000053a 20467100       1155 	movea	113,zero,r8
0000053e c699           1156 	add	r6,r19
00000540 133effff       1157 	addi	-1,r19,r7
                        1158 	jarl	_R_FDL_FCUFct_StartBCEraseOperation,lp
                        1158 <EXPANSION BEGIN>
                        1158 jarl22 _R_FDL_FCUFct_StartBCEraseOperation , lp 
00000544 80ff0000*      1158 <EXPANSION END>
00000548 5c570000       1159 	st.b	r10,0[r28]
                        1160 --line487
                        1161 ..lin.C.3A.5C_ECU2.5CECU_Rivian_A1.5CTarget.5Crepo_projects.5CpRealEcu.5CcR_LATEST.5Cmake.5Coutput.5Cobjects.5Cr_fdl_user_if.104::
                        1162 .LDWlin104:
0000054c 1df0           1163 	mov	r29,ep
0000054e 0275           1164 	sld.w	4[ep],r14
00000550 23370100       1165 	ld.w	0[sp],r6
00000554 c671           1166 	add	r6,r14
00000556 0375           1167 	sst.w	r14,4[ep]
                        1168 .L2150:
00000558 1c9f0000       1169 	ld.b	0[r28],r19
0000055c 619a           1170 	cmp	1,r19
0000055e 8215*          1171 	be	.L2154
                        1172 --line492
                        1173 ..lin.C.3A.5C_ECU2.5CECU_Rivian_A1.5CTarget.5Crepo_projects.5CpRealEcu.5CcR_LATEST.5Cmake.5Coutput.5Cobjects.5Cr_fdl_user_if.105::
                        1174 .LDWlin105:

                                                                      Page 22
                                                              C:\Users\nhuliyap\AppData\Local\Temp\gh_0000da81.s
00000560 0032           1175 	mov	0,r6
                        1176 	jarl	_R_FDL_FCUFct_SwitchMode_Start,lp
                        1176 <EXPANSION BEGIN>
                        1176 jarl22 _R_FDL_FCUFct_SwitchMode_Start , lp 
00000562 80ff0000*      1176 <EXPANSION END>
                        1177 --line493
                        1178 ..lin.C.3A.5C_ECU2.5CECU_Rivian_A1.5CTarget.5Crepo_projects.5CpRealEcu.5CcR_LATEST.5Cmake.5Coutput.5Cobjects.5Cr_fdl_user_if.106::
                        1179 .LDWlin106:
                        1180 	jarl	_R_FDL_FCUFct_SwitchMode_Check,lp
                        1180 <EXPANSION BEGIN>
                        1180 jarl22 _R_FDL_FCUFct_SwitchMode_Check , lp 
00000566 80ff0000*      1180 <EXPANSION END>
0000056a 6152           1181 	cmp	1,r10
0000056c 9a0d*          1182 	bne	.L2154
                        1183 --line495
                        1184 ..lin.C.3A.5C_ECU2.5CECU_Rivian_A1.5CTarget.5Crepo_projects.5CpRealEcu.5CcR_LATEST.5Cmake.5Coutput.5Cobjects.5Cr_fdl_user_if.107::
                        1185 .LDWlin107:
0000056e 094a           1186 	mov	9,r9
00000570 1df0           1187 	mov	r29,ep
00000572 ac4b           1188 	sst.b	r9,44[ep]
00000574 1c470000       1189 	ld.b	0[r28],r8
00000578 c743           1190 	sst.b	r8,71[ep]
0000057a 5c570000       1191 	st.b	r10,0[r28]
                        1192 .L2154:
0000057e 0052           1193 	mov	0,r10
00000580 4206ff00       1194 	dispose	1,{r28,r29,r31},[lp]
                        1195 .L2143:
                        1196 --	    .ef
                        1197 .LDW72:
                        1198 --line505
                        1199 ..lin.C.3A.5C_ECU2.5CECU_Rivian_A1.5CTarget.5Crepo_projects.5CpRealEcu.5CcR_LATEST.5Cmake.5Coutput.5Cobjects.5Cr_fdl_user_if.108::
                        1200 .LDWlin108:
00000584 4206ff00       1201 	dispose	1,{r28,r29,r31},[lp]
                        1202 ___ghs_eofn_R_FDL_Handler_MultiOperation:
                        1203 	.type	_R_FDL_Handler_MultiOperation,@function
                        1204 	.size	_R_FDL_Handler_MultiOperation,.-_R_FDL_Handler_MultiOperation
                        1205 	.type	_R_FDL_Handler_MultiOperation..C.3A.5C_ECU2.5CECU_Rivian_A1.5CTarget.5Crepo_projects.5CpRealEcu.5CcR_LATEST.5Cmake.5Coutput.5Cobjects.5Cr_fdl_user_if.,@function
                        1206 	.size	_R_FDL_Handler_MultiOperation..C.3A.5C_ECU2.5CECU_Rivian_A1.5CTarget.5Crepo_projects.5CpRealEcu.5CcR_LATEST.5Cmake.5Coutput.5Cobjects.5Cr_fdl_user_if.,.-_R_FDL_Handler_MultiOperation..C.3A.5C_ECU2.5CECU_Rivian_A1.5CTarget.5Crepo_projects.5CpRealEcu.5CcR_LATEST.5Cmake.5Coutput.5Cobjects.5Cr_fdl_user_if.
                        1207 	.align	2
                        1208 --_cont	r10	local
                        1209 --_cnt	0[sp]	local
                        1210 --_cmd	r9	local
                        1211 
                        1212 --_tmpStat_penu	r28	param
                        1213 
                        1214 	.section ".bss","awb"
                        1215 .L2232:
                        1216 	.type	.L2232,@object
                        1217 	.size	.L2232,0
                        1218 	.data
                        1219 	.text
                        1220 	.align	2
                        1221 	.align	2
                        1222 ..gh.f.f.1.e.11:
                        1223 	.type	..gh.f.f.1.e.11,@object
                        1224 	.size	..gh.f.f.1.e.11,0
                        1225 	.global	_R_FDL_Handler_OperationStates..C.3A.5C_ECU2.5CECU_Rivian_A1.5CTarget.5Crepo_projects.5CpRealEcu.5CcR_LATEST.5Cmake.5Coutput.5Cobjects.5Cr_fdl_user_if.
                        1226 _R_FDL_Handler_OperationStates..C.3A.5C_ECU2.5CECU_Rivian_A1.5CTarget.5Crepo_projects.5CpRealEcu.5CcR_LATEST.5Cmake.5Coutput.5Cobjects.5Cr_fdl_user_if.:
                        1227 _R_FDL_Handler_OperationStates:
00000588 8007e110       1228 	prepare	{r27,r28,r29,r31},0
0000058c 06e0           1229 	mov	r6,r28

                                                                      Page 23
                                                              C:\Users\nhuliyap\AppData\Local\Temp\gh_0000da81.s
                        1230 --	    .bf
                        1231 .LDW82:
0000058e 3d0600000000*  1232 	mov	_g_fdl_str,r29
00000594 1d3f2c00       1233 	ld.b	44[r29],r7
                        1234 --line516
                        1235 ..lin.C.3A.5C_ECU2.5CECU_Rivian_A1.5CTarget.5Crepo_projects.5CpRealEcu.5CcR_LATEST.5Cmake.5Coutput.5Cobjects.5Cr_fdl_user_if.109::
                        1236 .LDWlin109:
00000598 01da           1237 	mov	1,r27
0000059a e039           1238 	cmp	zero,r7
0000059c e2074101*      1239 	be	.L2356
000005a0 673a           1240 	cmp	7,r7
000005a2 e2073b01*      1241 	be	.L2356
                        1242 --line521
                        1243 ..lin.C.3A.5C_ECU2.5CECU_Rivian_A1.5CTarget.5Crepo_projects.5CpRealEcu.5CcR_LATEST.5Cmake.5Coutput.5Cobjects.5Cr_fdl_user_if.110::
                        1244 .LDWlin110:
                        1245 	jarl	_R_FDL_FCUFct_SwitchMode_Check,lp
                        1245 <EXPANSION BEGIN>
                        1245 jarl22 _R_FDL_FCUFct_SwitchMode_Check , lp 
000005a6 80ff0000*      1245 <EXPANSION END>
000005aa 5c570000       1246 	st.b	r10,0[r28]
                        1247 --line522
                        1248 ..lin.C.3A.5C_ECU2.5CECU_Rivian_A1.5CTarget.5Crepo_projects.5CpRealEcu.5CcR_LATEST.5Cmake.5Coutput.5Cobjects.5Cr_fdl_user_if.111::
                        1249 .LDWlin111:
000005ae e051           1250 	cmp	zero,r10
000005b0 ea45*          1251 	bne	.L2359
                        1252 --line524
                        1253 ..lin.C.3A.5C_ECU2.5CECU_Rivian_A1.5CTarget.5Crepo_projects.5CpRealEcu.5CcR_LATEST.5Cmake.5Coutput.5Cobjects.5Cr_fdl_user_if.112::
                        1254 .LDWlin112:
000005b2 1d4f2c00       1255 	ld.b	44[r29],r9
000005b6 694a           1256 	cmp	9,r9
000005b8 eb072501*      1257 	bh	.L2356
000005bc c24a           1258 	shl	2,r9
000005be e90600000000*  1259 	jmp	.L2606[r9]
                        1260 .L2606:
000005c4 80071801*      1261 	jr	.L2356
000005c8 80072400*      1262 	jr	.L2363
000005cc 80075200*      1263 	jr	.L2369
000005d0 80077000*      1264 	jr	.L2373
000005d4 80078800*      1265 	jr	.L2375
000005d8 8007c400*      1266 	jr	.L2384
000005dc 8007d000*      1267 	jr	.L2386
000005e0 8007fc00*      1268 	jr	.L2356
000005e4 8007e200*      1269 	jr	.L2390
000005e8 8007d000*      1270 	jr	.L2388
                        1271 .L2363:
                        1272 --line528
                        1273 ..lin.C.3A.5C_ECU2.5CECU_Rivian_A1.5CTarget.5Crepo_projects.5CpRealEcu.5CcR_LATEST.5Cmake.5Coutput.5Cobjects.5Cr_fdl_user_if.113::
                        1274 .LDWlin113:
000005ec 3d372900       1275 	ld.w	40[r29],r6
000005f0 06470000       1276 	ld.b	0[r6],r8
000005f4 6542           1277 	cmp	5,r8
000005f6 ea0d*          1278 	bne	.L2364
                        1279 --line530
                        1280 ..lin.C.3A.5C_ECU2.5CECU_Rivian_A1.5CTarget.5Crepo_projects.5CpRealEcu.5CcR_LATEST.5Cmake.5Coutput.5Cobjects.5Cr_fdl_user_if.114::
                        1281 .LDWlin114:
                        1282 	jarl	_R_FDL_FCUFct_ForcedStop,lp
                        1282 <EXPANSION BEGIN>
                        1282 jarl22 _R_FDL_FCUFct_ForcedStop , lp 
000005f8 80ff0000*      1282 <EXPANSION END>
                        1283 --line531
                        1284 ..lin.C.3A.5C_ECU2.5CECU_Rivian_A1.5CTarget.5Crepo_projects.5CpRealEcu.5CcR_LATEST.5Cmake.5Coutput.5Cobjects.5Cr_fdl_user_if.115::

                                                                      Page 24
                                                              C:\Users\nhuliyap\AppData\Local\Temp\gh_0000da81.s
                        1285 .LDWlin115:
000005fc 0032           1286 	mov	0,r6
                        1287 	jarl	_R_FDL_FCUFct_SwitchMode_Start,lp
                        1287 <EXPANSION BEGIN>
                        1287 jarl22 _R_FDL_FCUFct_SwitchMode_Start , lp 
000005fe 80ff0000*      1287 <EXPANSION END>
                        1288 --line533
                        1289 ..lin.C.3A.5C_ECU2.5CECU_Rivian_A1.5CTarget.5Crepo_projects.5CpRealEcu.5CcR_LATEST.5Cmake.5Coutput.5Cobjects.5Cr_fdl_user_if.116::
                        1290 .LDWlin116:
00000602 023a           1291 	mov	2,r7
00000604 5d3f2c00       1292 	st.b	r7,44[r29]
00000608 0132           1293 	mov	1,r6
0000060a 00da           1294 	mov	0,r27
0000060c 5c370000       1295 	st.b	r6,0[r28]
00000610 e565*          1296 	br	.L2356
                        1297 .L2364:
                        1298 --line539
                        1299 ..lin.C.3A.5C_ECU2.5CECU_Rivian_A1.5CTarget.5Crepo_projects.5CpRealEcu.5CcR_LATEST.5Cmake.5Coutput.5Cobjects.5Cr_fdl_user_if.117::
                        1300 .LDWlin117:
00000612 1c38           1301 	mov	r28,r7
00000614 0a40           1302 	mov	r10,r8
                        1303 	jarl	_R_FDL_UFct_FlashOpStart,lp
                        1303 <EXPANSION BEGIN>
                        1303 jarl22 _R_FDL_UFct_FlashOpStart , lp 
00000616 bfff58fa*      1303 <EXPANSION END>
0000061a 0ad8           1304 	mov	r10,r27
0000061c 8565*          1305 	br	.L2356
                        1306 .L2369:
                        1307 --line547
                        1308 ..lin.C.3A.5C_ECU2.5CECU_Rivian_A1.5CTarget.5Crepo_projects.5CpRealEcu.5CcR_LATEST.5Cmake.5Coutput.5Cobjects.5Cr_fdl_user_if.118::
                        1309 .LDWlin118:
                        1310 	jarl	_R_FDL_FCUFct_InitRAM,lp
                        1310 <EXPANSION BEGIN>
                        1310 jarl22 _R_FDL_FCUFct_InitRAM , lp 
0000061e 80ff0000*      1310 <EXPANSION END>
                        1311 --line549
                        1312 ..lin.C.3A.5C_ECU2.5CECU_Rivian_A1.5CTarget.5Crepo_projects.5CpRealEcu.5CcR_LATEST.5Cmake.5Coutput.5Cobjects.5Cr_fdl_user_if.119::
                        1313 .LDWlin119:
00000622 20368000       1314 	movea	128,zero,r6
                        1315 	jarl	_R_FDL_FCUFct_SwitchMode_Start,lp
                        1315 <EXPANSION BEGIN>
                        1315 jarl22 _R_FDL_FCUFct_SwitchMode_Start , lp 
00000626 80ff0000*      1315 <EXPANSION END>
0000062a 5c570000       1316 	st.b	r10,0[r28]
                        1317 --line550
                        1318 ..lin.C.3A.5C_ECU2.5CECU_Rivian_A1.5CTarget.5Crepo_projects.5CpRealEcu.5CcR_LATEST.5Cmake.5Coutput.5Cobjects.5Cr_fdl_user_if.120::
                        1319 .LDWlin120:
0000062e e051           1320 	cmp	zero,r10
00000630 ea05*          1321 	bne	.L2359
                        1322 --line552
                        1323 ..lin.C.3A.5C_ECU2.5CECU_Rivian_A1.5CTarget.5Crepo_projects.5CpRealEcu.5CcR_LATEST.5Cmake.5Coutput.5Cobjects.5Cr_fdl_user_if.121::
                        1324 .LDWlin121:
00000632 5cdf0000       1325 	st.b	r27,0[r28]
00000636 0392           1326 	mov	3,r18
00000638 5d972c00       1327 	st.b	r18,44[r29]
                        1328 .L2359:
0000063c 00da           1329 	mov	0,r27
0000063e f54d*          1330 	br	.L2356
                        1331 .L2373:
                        1332 --line563
                        1333 ..lin.C.3A.5C_ECU2.5CECU_Rivian_A1.5CTarget.5Crepo_projects.5CpRealEcu.5CcR_LATEST.5Cmake.5Coutput.5Cobjects.5Cr_fdl_user_if.122::

                                                                      Page 25
                                                              C:\Users\nhuliyap\AppData\Local\Temp\gh_0000da81.s
                        1334 .LDWlin122:
                        1335 	jarl	_R_FDL_FCUFct_ForcedStop,lp
                        1335 <EXPANSION BEGIN>
                        1335 jarl22 _R_FDL_FCUFct_ForcedStop , lp 
00000640 80ff0000*      1335 <EXPANSION END>
                        1336 --line564
                        1337 ..lin.C.3A.5C_ECU2.5CECU_Rivian_A1.5CTarget.5Crepo_projects.5CpRealEcu.5CcR_LATEST.5Cmake.5Coutput.5Cobjects.5Cr_fdl_user_if.123::
                        1338 .LDWlin123:
                        1339 	jarl	_R_FDL_FCUFct_ClearStatus,lp
                        1339 <EXPANSION BEGIN>
                        1339 jarl22 _R_FDL_FCUFct_ClearStatus , lp 
00000644 80ff0000*      1339 <EXPANSION END>
                        1340 --line566
                        1341 ..lin.C.3A.5C_ECU2.5CECU_Rivian_A1.5CTarget.5Crepo_projects.5CpRealEcu.5CcR_LATEST.5Cmake.5Coutput.5Cobjects.5Cr_fdl_user_if.124::
                        1342 .LDWlin124:
00000648 0032           1343 	mov	0,r6
                        1344 	jarl	_R_FDL_FCUFct_SwitchMode_Start,lp
                        1344 <EXPANSION BEGIN>
                        1344 jarl22 _R_FDL_FCUFct_SwitchMode_Start , lp 
0000064a 80ff0000*      1344 <EXPANSION END>
                        1345 --line568
                        1346 ..lin.C.3A.5C_ECU2.5CECU_Rivian_A1.5CTarget.5Crepo_projects.5CpRealEcu.5CcR_LATEST.5Cmake.5Coutput.5Cobjects.5Cr_fdl_user_if.125::
                        1347 .LDWlin125:
0000064e 5cdf0000       1348 	st.b	r27,0[r28]
00000652 0482           1349 	mov	4,r16
00000654 5d872c00       1350 	st.b	r16,44[r29]
00000658 00da           1351 	mov	0,r27
0000065a 9545*          1352 	br	.L2356
                        1353 .L2375:
                        1354 --line576
                        1355 ..lin.C.3A.5C_ECU2.5CECU_Rivian_A1.5CTarget.5Crepo_projects.5CpRealEcu.5CcR_LATEST.5Cmake.5Coutput.5Cobjects.5Cr_fdl_user_if.126::
                        1356 .LDWlin126:
                        1357 	jarl	_R_FDL_FCUFct_VerifyChecksum,lp
                        1357 <EXPANSION BEGIN>
                        1357 jarl22 _R_FDL_FCUFct_VerifyChecksum , lp 
0000065c 80ff0000*      1357 <EXPANSION END>
00000660 5c570000       1358 	st.b	r10,0[r28]
                        1359 --line578
                        1360 ..lin.C.3A.5C_ECU2.5CECU_Rivian_A1.5CTarget.5Crepo_projects.5CpRealEcu.5CcR_LATEST.5Cmake.5Coutput.5Cobjects.5Cr_fdl_user_if.127::
                        1361 .LDWlin127:
00000664 6152           1362 	cmp	1,r10
00000666 ba15*          1363 	bne	.L2376
                        1364 --line580
                        1365 ..lin.C.3A.5C_ECU2.5CECU_Rivian_A1.5CTarget.5Crepo_projects.5CpRealEcu.5CcR_LATEST.5Cmake.5Coutput.5Cobjects.5Cr_fdl_user_if.128::
                        1366 .LDWlin128:
                        1367 	jarl	_R_FDL_FCUFct_GetDFSize,lp
                        1367 <EXPANSION BEGIN>
                        1367 jarl22 _R_FDL_FCUFct_GetDFSize , lp 
00000668 80ff0000*      1367 <EXPANSION END>
                        1368 --line585
                        1369 ..lin.C.3A.5C_ECU2.5CECU_Rivian_A1.5CTarget.5Crepo_projects.5CpRealEcu.5CcR_LATEST.5Cmake.5Coutput.5Cobjects.5Cr_fdl_user_if.129::
                        1370 .LDWlin129:
0000066c 3df70100       1371 	ld.w	0[r29],ep
00000670 c152           1372 	shl	1,r10
00000672 7d573500       1373 	st.w	r10,52[r29]
00000676 8652           1374 	shr	6,r10
00000678 7178           1375 	sld.hu	2[ep],r15
0000067a 0342           1376 	mov	3,r8
0000067c ea79           1377 	cmp	r10,r15
0000067e cb05*          1378 	bh	.L2454
                        1379 --line588

                                                                      Page 26
                                                              C:\Users\nhuliyap\AppData\Local\Temp\gh_0000da81.s
                        1380 ..lin.C.3A.5C_ECU2.5CECU_Rivian_A1.5CTarget.5Crepo_projects.5CpRealEcu.5CcR_LATEST.5Cmake.5Coutput.5Cobjects.5Cr_fdl_user_if.130::
                        1381 .LDWlin130:
                        1382 	jarl	_R_FDL_FCUFct_SetFrequency,lp
                        1382 <EXPANSION BEGIN>
                        1382 jarl22 _R_FDL_FCUFct_SetFrequency , lp 
00000680 80ff0000*      1382 <EXPANSION END>
00000684 0a40           1383 	mov	r10,r8
                        1384 .L2454:
00000686 0850           1385 	mov	r8,r10
00000688 5c470000       1386 	st.b	r8,0[r28]
                        1387 .L2376:
                        1388 --line596
                        1389 ..lin.C.3A.5C_ECU2.5CECU_Rivian_A1.5CTarget.5Crepo_projects.5CpRealEcu.5CcR_LATEST.5Cmake.5Coutput.5Cobjects.5Cr_fdl_user_if.131::
                        1390 .LDWlin131:
0000068c e051           1391 	cmp	zero,r10
0000068e fad5*          1392 	bne	.L2359
                        1393 --line598
                        1394 ..lin.C.3A.5C_ECU2.5CECU_Rivian_A1.5CTarget.5Crepo_projects.5CpRealEcu.5CcR_LATEST.5Cmake.5Coutput.5Cobjects.5Cr_fdl_user_if.132::
                        1395 .LDWlin132:
00000690 2e0655555555   1396 	mov	1431655765,r14
00000696 7d775100       1397 	st.w	r14,80[r29]
0000069a 95d5*          1398 	br	.L2359
                        1399 .L2384:
                        1400 --line607
                        1401 ..lin.C.3A.5C_ECU2.5CECU_Rivian_A1.5CTarget.5Crepo_projects.5CpRealEcu.5CcR_LATEST.5Cmake.5Coutput.5Cobjects.5Cr_fdl_user_if.133::
                        1402 .LDWlin133:
                        1403 	jarl	_R_FDL_FCUFct_Resume,lp
                        1403 <EXPANSION BEGIN>
                        1403 jarl22 _R_FDL_FCUFct_Resume , lp 
0000069c 80ff0000*      1403 <EXPANSION END>
                        1404 --line608
                        1405 ..lin.C.3A.5C_ECU2.5CECU_Rivian_A1.5CTarget.5Crepo_projects.5CpRealEcu.5CcR_LATEST.5Cmake.5Coutput.5Cobjects.5Cr_fdl_user_if.134::
                        1406 .LDWlin134:
000006a0 076a           1407 	mov	7,r13
000006a2 5d6f2c00       1408 	st.b	r13,44[r29]
000006a6 5cdf0000       1409 	st.b	r27,0[r28]
000006aa 951d*          1410 	br	.L2356
                        1411 .L2386:
                        1412 --line615
                        1413 ..lin.C.3A.5C_ECU2.5CECU_Rivian_A1.5CTarget.5Crepo_projects.5CpRealEcu.5CcR_LATEST.5Cmake.5Coutput.5Cobjects.5Cr_fdl_user_if.135::
                        1414 .LDWlin135:
000006ac 075a           1415 	mov	7,r11
000006ae 5d5f2c00       1416 	st.b	r11,44[r29]
000006b2 5cdf0000       1417 	st.b	r27,0[r28]
000006b6 b515*          1418 	br	.L2356
                        1419 .L2388:
                        1420 --line622
                        1421 ..lin.C.3A.5C_ECU2.5CECU_Rivian_A1.5CTarget.5Crepo_projects.5CpRealEcu.5CcR_LATEST.5Cmake.5Coutput.5Cobjects.5Cr_fdl_user_if.136::
                        1422 .LDWlin136:
000006b8 1df0           1423 	mov	r29,ep
000006ba 474b           1424 	sld.b	71[ep],r9
000006bc ac03           1425 	sst.b	zero,44[ep]
000006be 0ad8           1426 	mov	r10,r27
000006c0 5c4f0000       1427 	st.b	r9,0[r28]
000006c4 c50d*          1428 	br	.L2356
                        1429 .L2390:
                        1430 --line630
                        1431 ..lin.C.3A.5C_ECU2.5CECU_Rivian_A1.5CTarget.5Crepo_projects.5CpRealEcu.5CcR_LATEST.5Cmake.5Coutput.5Cobjects.5Cr_fdl_user_if.137::
                        1432 .LDWlin137:
000006c6 0242           1433 	mov	2,r8
000006c8 5c470000       1434 	st.b	r8,0[r28]

                                                                      Page 27
                                                              C:\Users\nhuliyap\AppData\Local\Temp\gh_0000da81.s
000006cc 1df0           1435 	mov	r29,ep
000006ce 143d           1436 	sld.w	40[ep],r7
000006d0 260657555555   1437 	mov	1431655767,r6
000006d6 2935           1438 	sst.w	r6,80[ep]
                        1439 --line634
                        1440 ..lin.C.3A.5C_ECU2.5CECU_Rivian_A1.5CTarget.5Crepo_projects.5CpRealEcu.5CcR_LATEST.5Cmake.5Coutput.5Cobjects.5Cr_fdl_user_if.138::
                        1441 .LDWlin138:
000006d8 0ad8           1442 	mov	r10,r27
000006da 133d           1443 	sst.w	r7,36[ep]
                        1444 .L2356:
000006dc 1b50           1445 	mov	r27,r10
                        1446 --	    .ef
                        1447 .LDW92:
000006de 4006ff10       1448 	dispose	0,{r27,r28,r29,r31},[lp]
                        1449 ___ghs_eofn_R_FDL_Handler_OperationStates:
                        1450 	.type	_R_FDL_Handler_OperationStates,@function
                        1451 	.size	_R_FDL_Handler_OperationStates,.-_R_FDL_Handler_OperationStates
                        1452 	.type	_R_FDL_Handler_OperationStates..C.3A.5C_ECU2.5CECU_Rivian_A1.5CTarget.5Crepo_projects.5CpRealEcu.5CcR_LATEST.5Cmake.5Coutput.5Cobjects.5Cr_fdl_user_if.,@function
                        1453 	.size	_R_FDL_Handler_OperationStates..C.3A.5C_ECU2.5CECU_Rivian_A1.5CTarget.5Crepo_projects.5CpRealEcu.5CcR_LATEST.5Cmake.5Coutput.5Cobjects.5Cr_fdl_user_if.,.-_R_FDL_Handler_OperationStates..C.3A.5C_ECU2.5CECU_Rivian_A1.5CTarget.5Crepo_projects.5CpRealEcu.5CcR_LATEST.5Cmake.5Coutput.5Cobjects.5Cr_fdl_user_if.
                        1454 	.align	2
                        1455 --_cont	r27	local
                        1456 
                        1457 --_tmpStat_penu	r28	param
                        1458 
                        1459 	.section ".bss","awb"
                        1460 .L2604:
                        1461 	.type	.L2604,@object
                        1462 	.size	.L2604,0
                        1463 	.data
                        1464 	.ghsnote jtable,2097156,.L2606,.L2606,.L2606,10
                        1465 	.text
                        1466 	.align	2
                        1467 	.align	2
                        1468 ..gh.f.f.1.e.12:
                        1469 	.type	..gh.f.f.1.e.12,@object
                        1470 	.size	..gh.f.f.1.e.12,0
                        1471 	.global	_R_FDL_UFct_StateNotStandBy..C.3A.5C_ECU2.5CECU_Rivian_A1.5CTarget.5Crepo_projects.5CpRealEcu.5CcR_LATEST.5Cmake.5Coutput.5Cobjects.5Cr_fdl_user_if.
                        1472 _R_FDL_UFct_StateNotStandBy..C.3A.5C_ECU2.5CECU_Rivian_A1.5CTarget.5Crepo_projects.5CpRealEcu.5CcR_LATEST.5Cmake.5Coutput.5Cobjects.5Cr_fdl_user_if.:
                        1473 _R_FDL_UFct_StateNotStandBy:
                        1474 --	    .bf
                        1475 .LDW03:
000006e2 404e0000*      1476 	movhi	hi(_g_fdl_str+80),zero,r9
000006e6 294f0100*      1477 	ld.w	lo(_g_fdl_str+80)[r9],r9
000006ea 280654555555   1478 	mov	1431655764,r8
000006f0 0990           1479 	mov	r9,r18
000006f2 a891           1480 	sub	r8,r18
000006f4 6292           1481 	cmp	2,r18
000006f6 f305*          1482 	bnh	.L2829
000006f8 083e0300       1483 	addi	3,r8,r7
000006fc e749           1484 	cmp	r7,r9
000006fe e2570000       1485 	setfe	r10
00000702 7f00           1486 	jmp	[lp]
                        1487 .L2829:
00000704 0152           1488 	mov	1,r10
                        1489 --	    .ef
                        1490 .LDW13:
                        1491 --line1107
                        1492 ..lin.C.3A.5C_ECU2.5CECU_Rivian_A1.5CTarget.5Crepo_projects.5CpRealEcu.5CcR_LATEST.5Cmake.5Coutput.5Cobjects.5Cr_fdl_user_if.139::
                        1493 .LDWlin139:
00000706 7f00           1494 	jmp	[lp]
                        1495 ___ghs_eofn_R_FDL_UFct_StateNotStandBy:

                                                                      Page 28
                                                              C:\Users\nhuliyap\AppData\Local\Temp\gh_0000da81.s
                        1496 	.type	_R_FDL_UFct_StateNotStandBy,@function
                        1497 	.size	_R_FDL_UFct_StateNotStandBy,.-_R_FDL_UFct_StateNotStandBy
                        1498 	.type	_R_FDL_UFct_StateNotStandBy..C.3A.5C_ECU2.5CECU_Rivian_A1.5CTarget.5Crepo_projects.5CpRealEcu.5CcR_LATEST.5Cmake.5Coutput.5Cobjects.5Cr_fdl_user_if.,@function
                        1499 	.size	_R_FDL_UFct_StateNotStandBy..C.3A.5C_ECU2.5CECU_Rivian_A1.5CTarget.5Crepo_projects.5CpRealEcu.5CcR_LATEST.5Cmake.5Coutput.5Cobjects.5Cr_fdl_user_if.,.-_R_FDL_UFct_StateNotStandBy..C.3A.5C_ECU2.5CECU_Rivian_A1.5CTarget.5Crepo_projects.5CpRealEcu.5CcR_LATEST.5Cmake.5Coutput.5Cobjects.5Cr_fdl_user_if.
                        1500 	.align	2
                        1501 --_ret	r10	local
                        1502 
                        1503 	.section ".bss","awb"
                        1504 .L2891:
                        1505 	.type	.L2891,@object
                        1506 	.size	.L2891,0
                        1507 	.data
                        1508 	.text
                        1509 	.align	2
                        1510 	.align	2
                        1511 ..gh.f.f.1.e.13:
                        1512 	.type	..gh.f.f.1.e.13,@object
                        1513 	.size	..gh.f.f.1.e.13,0
                        1514 	.global	_R_FDL_UFct_EndCurrentOperation..C.3A.5C_ECU2.5CECU_Rivian_A1.5CTarget.5Crepo_projects.5CpRealEcu.5CcR_LATEST.5Cmake.5Coutput.5Cobjects.5Cr_fdl_user_if.
                        1515 _R_FDL_UFct_EndCurrentOperation..C.3A.5C_ECU2.5CECU_Rivian_A1.5CTarget.5Crepo_projects.5CpRealEcu.5CcR_LATEST.5Cmake.5Coutput.5Cobjects.5Cr_fdl_user_if.:
                        1516 _R_FDL_UFct_EndCurrentOperation:
00000708 a600           1517 	sxb	r6
                        1518 --	    .bf
                        1519 .LDW23:
0000070a 320600000000*  1520 	mov	_g_fdl_str,r18
00000710 32f72900       1521 	ld.w	40[r18],ep
00000714 8f33           1522 	sst.b	r6,15[ep]
                        1523 --line1080
                        1524 ..lin.C.3A.5C_ECU2.5CECU_Rivian_A1.5CTarget.5Crepo_projects.5CpRealEcu.5CcR_LATEST.5Cmake.5Coutput.5Cobjects.5Cr_fdl_user_if.140::
                        1525 .LDWlin140:
00000716 009b           1526 	sld.b	0[ep],r19
00000718 629a           1527 	cmp	2,r19
0000071a ea05*          1528 	bne	.L2935
0000071c 6932           1529 	cmp	9,r6
0000071e ca05*          1530 	bne	.L2935
                        1531 --line1082
                        1532 ..lin.C.3A.5C_ECU2.5CECU_Rivian_A1.5CTarget.5Crepo_projects.5CpRealEcu.5CcR_LATEST.5Cmake.5Coutput.5Cobjects.5Cr_fdl_user_if.141::
                        1533 .LDWlin141:
00000720 328f3100       1534 	ld.w	48[r18],r17
00000724 058d           1535 	sst.w	r17,8[ep]
                        1536 .L2935:
00000726 8e03           1537 	sst.b	zero,14[ep]
00000728 12f0           1538 	mov	r18,ep
0000072a 1505           1539 	sst.w	zero,40[ep]
0000072c ac03           1540 	sst.b	zero,44[ep]
                        1541 --	    .ef
                        1542 .LDW33:
0000072e 7f00           1543 	jmp	[lp]
                        1544 ___ghs_eofn_R_FDL_UFct_EndCurrentOperation:
                        1545 	.type	_R_FDL_UFct_EndCurrentOperation,@function
                        1546 	.size	_R_FDL_UFct_EndCurrentOperation,.-_R_FDL_UFct_EndCurrentOperation
                        1547 	.type	_R_FDL_UFct_EndCurrentOperation..C.3A.5C_ECU2.5CECU_Rivian_A1.5CTarget.5Crepo_projects.5CpRealEcu.5CcR_LATEST.5Cmake.5Coutput.5Cobjects.5Cr_fdl_user_if.,@function
                        1548 	.size	_R_FDL_UFct_EndCurrentOperation..C.3A.5C_ECU2.5CECU_Rivian_A1.5CTarget.5Crepo_projects.5CpRealEcu.5CcR_LATEST.5Cmake.5Coutput.5Cobjects.5Cr_fdl_user_if.,.-_R_FDL_UFct_EndCurrentOperation..C.3A.5C_ECU2.5CECU_Rivian_A1.5CTarget.5Crepo_projects.5CpRealEcu.5CcR_LATEST.5Cmake.5Coutput.5Cobjects.5Cr_fdl_user_if.
                        1549 	.align	2
                        1550 
                        1551 --_ret_enu	r6	param
                        1552 
                        1553 	.section ".bss","awb"
                        1554 .L2976:
                        1555 	.type	.L2976,@object
                        1556 	.size	.L2976,0

                                                                      Page 29
                                                              C:\Users\nhuliyap\AppData\Local\Temp\gh_0000da81.s
                        1557 	.data
                        1558 	.text
                        1559 	.align	2
                        1560 	.align	2
                        1561 ..gh.f.f.1.e.14:
                        1562 	.type	..gh.f.f.1.e.14,@object
                        1563 	.size	..gh.f.f.1.e.14,0
                        1564 	.global	_R_FDL_Handler
                        1565 _R_FDL_Handler:
00000730 82076100       1566 	prepare	{r29,r31},1
                        1567 --	    .bf
                        1568 .LDW43:
00000734 019a           1569 	mov	1,r19
00000736 439f0300       1570 	st.b	r19,3[sp]
                        1571 	jarl	_R_FDL_UFct_StateNotStandBy,lp
                        1571 <EXPANSION BEGIN>
                        1571 jarl22 _R_FDL_UFct_StateNotStandBy , lp 
0000073a bfffa8ff*      1571 <EXPANSION END>
0000073e 6152           1572 	cmp	1,r10
00000740 9a55*          1573 	bne	.L3021
00000742 3d0600000000*  1574 	mov	_g_fdl_str,r29
00000748 3d4f2900       1575 	ld.w	40[r29],r9
0000074c e049           1576 	cmp	zero,r9
0000074e 9a0d*          1577 	bne	.L3024
00000750 1d474a00       1578 	ld.b	74[r29],r8
00000754 6142           1579 	cmp	1,r8
00000756 d205*          1580 	be	.L3024
00000758 1d3f4800       1581 	ld.b	72[r29],r7
0000075c 613a           1582 	cmp	1,r7
0000075e aa45*          1583 	bne	.L3021
                        1584 .L3024:
                        1585 --line669
                        1586 ..lin.C.3A.5C_ECU2.5CECU_Rivian_A1.5CTarget.5Crepo_projects.5CpRealEcu.5CcR_LATEST.5Cmake.5Coutput.5Cobjects.5Cr_fdl_user_if.142::
                        1587 .LDWlin142:
00000760 23360300       1588 	movea	3,sp,r6
                        1589 	jarl	_R_FDL_Handler_CancelReq,lp
                        1589 <EXPANSION BEGIN>
                        1589 jarl22 _R_FDL_Handler_CancelReq , lp 
00000764 bfff32fb*      1589 <EXPANSION END>
                        1590 --line671
                        1591 ..lin.C.3A.5C_ECU2.5CECU_Rivian_A1.5CTarget.5Crepo_projects.5CpRealEcu.5CcR_LATEST.5Cmake.5Coutput.5Cobjects.5Cr_fdl_user_if.143::
                        1592 .LDWlin143:
00000768 6152           1593 	cmp	1,r10
0000076a ea35*          1594 	bne	.L3042
                        1595 --line673
                        1596 ..lin.C.3A.5C_ECU2.5CECU_Rivian_A1.5CTarget.5Crepo_projects.5CpRealEcu.5CcR_LATEST.5Cmake.5Coutput.5Cobjects.5Cr_fdl_user_if.144::
                        1597 .LDWlin144:
                        1598 	jarl	_R_FDL_Handler_BusyAndSuspendPossible,lp
                        1598 <EXPANSION BEGIN>
                        1598 jarl22 _R_FDL_Handler_BusyAndSuspendPossible , lp 
0000076c bfff94fb*      1598 <EXPANSION END>
                        1599 --line676
                        1600 ..lin.C.3A.5C_ECU2.5CECU_Rivian_A1.5CTarget.5Crepo_projects.5CpRealEcu.5CcR_LATEST.5Cmake.5Coutput.5Cobjects.5Cr_fdl_user_if.145::
                        1601 .LDWlin145:
00000770 6152           1602 	cmp	1,r10
00000772 aa35*          1603 	bne	.L3042
                        1604 --line678
                        1605 ..lin.C.3A.5C_ECU2.5CECU_Rivian_A1.5CTarget.5Crepo_projects.5CpRealEcu.5CcR_LATEST.5Cmake.5Coutput.5Cobjects.5Cr_fdl_user_if.146::
                        1606 .LDWlin146:
00000774 23360300       1607 	movea	3,sp,r6
                        1608 	jarl	_R_FDL_Handler_ChkResume,lp

                                                                      Page 30
                                                              C:\Users\nhuliyap\AppData\Local\Temp\gh_0000da81.s
                        1608 <EXPANSION BEGIN>
                        1608 jarl22 _R_FDL_Handler_ChkResume , lp 
00000778 bfffbcfb*      1608 <EXPANSION END>
                        1609 --line681
                        1610 ..lin.C.3A.5C_ECU2.5CECU_Rivian_A1.5CTarget.5Crepo_projects.5CpRealEcu.5CcR_LATEST.5Cmake.5Coutput.5Cobjects.5Cr_fdl_user_if.147::
                        1611 .LDWlin147:
0000077c 6152           1612 	cmp	1,r10
0000077e ca2d*          1613 	bne	.L3042
                        1614 --line683
                        1615 ..lin.C.3A.5C_ECU2.5CECU_Rivian_A1.5CTarget.5Crepo_projects.5CpRealEcu.5CcR_LATEST.5Cmake.5Coutput.5Cobjects.5Cr_fdl_user_if.148::
                        1616 .LDWlin148:
00000780 23360300       1617 	movea	3,sp,r6
                        1618 	jarl	_R_FDL_Handler_OperationStates,lp
                        1618 <EXPANSION BEGIN>
                        1618 jarl22 _R_FDL_Handler_OperationStates , lp 
00000784 bfff04fe*      1618 <EXPANSION END>
                        1619 --line686
                        1620 ..lin.C.3A.5C_ECU2.5CECU_Rivian_A1.5CTarget.5Crepo_projects.5CpRealEcu.5CcR_LATEST.5Cmake.5Coutput.5Cobjects.5Cr_fdl_user_if.149::
                        1621 .LDWlin149:
00000788 6152           1622 	cmp	1,r10
0000078a ea25*          1623 	bne	.L3042
                        1624 --line688
                        1625 ..lin.C.3A.5C_ECU2.5CECU_Rivian_A1.5CTarget.5Crepo_projects.5CpRealEcu.5CcR_LATEST.5Cmake.5Coutput.5Cobjects.5Cr_fdl_user_if.150::
                        1626 .LDWlin150:
                        1627 	jarl	_R_FDL_FCUFct_ChkReady,lp
                        1627 <EXPANSION BEGIN>
                        1627 jarl22 _R_FDL_FCUFct_ChkReady , lp 
0000078c 80ff0000*      1627 <EXPANSION END>
                        1628 --line691
                        1629 ..lin.C.3A.5C_ECU2.5CECU_Rivian_A1.5CTarget.5Crepo_projects.5CpRealEcu.5CcR_LATEST.5Cmake.5Coutput.5Cobjects.5Cr_fdl_user_if.151::
                        1630 .LDWlin151:
00000790 6152           1631 	cmp	1,r10
00000792 aa25*          1632 	bne	.L3042
                        1633 --line693
                        1634 ..lin.C.3A.5C_ECU2.5CECU_Rivian_A1.5CTarget.5Crepo_projects.5CpRealEcu.5CcR_LATEST.5Cmake.5Coutput.5Cobjects.5Cr_fdl_user_if.152::
                        1635 .LDWlin152:
00000794 23360300       1636 	movea	3,sp,r6
                        1637 	jarl	_R_FDL_Handler_ReactOnFatalErrors,lp
                        1637 <EXPANSION BEGIN>
                        1637 jarl22 _R_FDL_Handler_ReactOnFatalErrors , lp 
00000798 bfff4efc*      1637 <EXPANSION END>
                        1638 --line696
                        1639 ..lin.C.3A.5C_ECU2.5CECU_Rivian_A1.5CTarget.5Crepo_projects.5CpRealEcu.5CcR_LATEST.5Cmake.5Coutput.5Cobjects.5Cr_fdl_user_if.153::
                        1640 .LDWlin153:
0000079c 6152           1641 	cmp	1,r10
0000079e ca1d*          1642 	bne	.L3042
                        1643 --line698
                        1644 ..lin.C.3A.5C_ECU2.5CECU_Rivian_A1.5CTarget.5Crepo_projects.5CpRealEcu.5CcR_LATEST.5Cmake.5Coutput.5Cobjects.5Cr_fdl_user_if.154::
                        1645 .LDWlin154:
000007a0 23360300       1646 	movea	3,sp,r6
                        1647 	jarl	_R_FDL_Handler_StatusCheckAndSuspendOnReady,lp
                        1647 <EXPANSION BEGIN>
                        1647 jarl22 _R_FDL_Handler_StatusCheckAndSuspendOnReady , lp 
000007a4 bfff80fc*      1647 <EXPANSION END>
                        1648 --line701
                        1649 ..lin.C.3A.5C_ECU2.5CECU_Rivian_A1.5CTarget.5Crepo_projects.5CpRealEcu.5CcR_LATEST.5Cmake.5Coutput.5Cobjects.5Cr_fdl_user_if.155::
                        1650 .LDWlin155:
000007a8 6152           1651 	cmp	1,r10
000007aa ea15*          1652 	bne	.L3042
                        1653 --line703
                        1654 ..lin.C.3A.5C_ECU2.5CECU_Rivian_A1.5CTarget.5Crepo_projects.5CpRealEcu.5CcR_LATEST.5Cmake.5Coutput.5Cobjects.5Cr_fdl_user_if.156::

                                                                      Page 31
                                                              C:\Users\nhuliyap\AppData\Local\Temp\gh_0000da81.s
                        1655 .LDWlin156:
000007ac 23360300       1656 	movea	3,sp,r6
                        1657 	jarl	_R_FDL_Handler_MultiOperation,lp
                        1657 <EXPANSION BEGIN>
                        1657 jarl22 _R_FDL_Handler_MultiOperation , lp 
000007b0 bffffafc*      1657 <EXPANSION END>
                        1658 --line706
                        1659 ..lin.C.3A.5C_ECU2.5CECU_Rivian_A1.5CTarget.5Crepo_projects.5CpRealEcu.5CcR_LATEST.5Cmake.5Coutput.5Cobjects.5Cr_fdl_user_if.157::
                        1660 .LDWlin157:
000007b4 6152           1661 	cmp	1,r10
000007b6 8a15*          1662 	bne	.L3042
                        1663 --line708
                        1664 ..lin.C.3A.5C_ECU2.5CECU_Rivian_A1.5CTarget.5Crepo_projects.5CpRealEcu.5CcR_LATEST.5Cmake.5Coutput.5Cobjects.5Cr_fdl_user_if.158::
                        1665 .LDWlin158:
000007b8 0032           1666 	mov	0,r6
                        1667 	jarl	_R_FDL_FCUFct_SwitchMode_Start,lp
                        1667 <EXPANSION BEGIN>
                        1667 jarl22 _R_FDL_FCUFct_SwitchMode_Start , lp 
000007ba 80ff0000*      1667 <EXPANSION END>
                        1668 --line709
                        1669 ..lin.C.3A.5C_ECU2.5CECU_Rivian_A1.5CTarget.5Crepo_projects.5CpRealEcu.5CcR_LATEST.5Cmake.5Coutput.5Cobjects.5Cr_fdl_user_if.159::
                        1670 .LDWlin159:
                        1671 	jarl	_R_FDL_FCUFct_SwitchMode_Check,lp
                        1671 <EXPANSION BEGIN>
                        1671 jarl22 _R_FDL_FCUFct_SwitchMode_Check , lp 
000007be 80ff0000*      1671 <EXPANSION END>
                        1672 --line710
                        1673 ..lin.C.3A.5C_ECU2.5CECU_Rivian_A1.5CTarget.5Crepo_projects.5CpRealEcu.5CcR_LATEST.5Cmake.5Coutput.5Cobjects.5Cr_fdl_user_if.160::
                        1674 .LDWlin160:
000007c2 6152           1675 	cmp	1,r10
000007c4 9a0d*          1676 	bne	.L3042
                        1677 --line714
                        1678 ..lin.C.3A.5C_ECU2.5CECU_Rivian_A1.5CTarget.5Crepo_projects.5CpRealEcu.5CcR_LATEST.5Cmake.5Coutput.5Cobjects.5Cr_fdl_user_if.161::
                        1679 .LDWlin161:
000007c6 039f0300       1680 	ld.b	3[sp],r19
000007ca 0932           1681 	mov	9,r6
000007cc 1df0           1682 	mov	r29,ep
000007ce ac33           1683 	sst.b	r6,44[ep]
000007d0 c79b           1684 	sst.b	r19,71[ep]
000007d2 42067f00       1685 	dispose	1,{r29,r31},[lp]
                        1686 .L3042:
                        1687 --line719
                        1688 ..lin.C.3A.5C_ECU2.5CECU_Rivian_A1.5CTarget.5Crepo_projects.5CpRealEcu.5CcR_LATEST.5Cmake.5Coutput.5Cobjects.5Cr_fdl_user_if.162::
                        1689 .LDWlin162:
000007d6 03370300       1690 	ld.b	3[sp],r6
000007da 6132           1691 	cmp	1,r6
000007dc b205*          1692 	be	.L3021
                        1693 --line721
                        1694 ..lin.C.3A.5C_ECU2.5CECU_Rivian_A1.5CTarget.5Crepo_projects.5CpRealEcu.5CcR_LATEST.5Cmake.5Coutput.5Cobjects.5Cr_fdl_user_if.163::
                        1695 .LDWlin163:
                        1696 	jarl	_R_FDL_UFct_EndCurrentOperation,lp
                        1696 <EXPANSION BEGIN>
                        1696 jarl22 _R_FDL_UFct_EndCurrentOperation , lp 
000007de bfff2aff*      1696 <EXPANSION END>
                        1697 .L3021:
                        1698 --	    .ef
                        1699 .LDW53:
                        1700 --line729
                        1701 ..lin.C.3A.5C_ECU2.5CECU_Rivian_A1.5CTarget.5Crepo_projects.5CpRealEcu.5CcR_LATEST.5Cmake.5Coutput.5Cobjects.5Cr_fdl_user_if.164::
                        1702 .LDWlin164:
000007e2 42067f00       1703 	dispose	1,{r29,r31},[lp]

                                                                      Page 32
                                                              C:\Users\nhuliyap\AppData\Local\Temp\gh_0000da81.s
                        1704 	.global	___ghs_eofn_R_FDL_Handler
                        1705 ___ghs_eofn_R_FDL_Handler:
                        1706 	.type	_R_FDL_Handler,@function
                        1707 	.size	_R_FDL_Handler,.-_R_FDL_Handler
                        1708 	.align	2
                        1709 --_contHdrFct	r10	local
                        1710 --_tmpStatus	3[sp]	local
                        1711 
                        1712 	.section ".bss","awb"
                        1713 .L3358:
                        1714 	.type	.L3358,@object
                        1715 	.size	.L3358,0
                        1716 	.data
                        1717 	.text
                        1718 	.align	2
                        1719 	.align	2
                        1720 ..gh.f.f.1.e.15:
                        1721 	.type	..gh.f.f.1.e.15,@object
                        1722 	.size	..gh.f.f.1.e.15,0
                        1723 	.global	_R_FDL_GetVersionString
                        1724 _R_FDL_GetVersionString:
                        1725 --	    .bf
                        1726 .LDW63:
000007e6 2a0600000000*  1727 	mov	.L3581,r10
                        1728 --	    .ef
                        1729 .LDW73:
                        1730 --line737
                        1731 ..lin.C.3A.5C_ECU2.5CECU_Rivian_A1.5CTarget.5Crepo_projects.5CpRealEcu.5CcR_LATEST.5Cmake.5Coutput.5Cobjects.5Cr_fdl_user_if.165::
                        1732 .LDWlin165:
000007ec 7f00           1733 	jmp	[lp]
                        1734 	.global	___ghs_eofn_R_FDL_GetVersionString
                        1735 ___ghs_eofn_R_FDL_GetVersionString:
                        1736 	.type	_R_FDL_GetVersionString,@function
                        1737 	.size	_R_FDL_GetVersionString,.-_R_FDL_GetVersionString
                        1738 	.align	2
                        1739 --_r_fdl_vStr	.L3581	static
                        1740 
                        1741 	.section ".bss","awb"
                        1742 .L3569:
                        1743 	.type	.L3569,@object
                        1744 	.size	.L3569,0
                        1745 	.section ".rodata","a"
                        1746 	.align	4
                        1747 .L3581:
                        1748 	.global	_r_fdl_vStr.R_FDL_GetVersionString.C.3A.5C_ECU2.5CECU_Rivian_A1.5CTarget.5Crepo_projects.5CpRealEcu.5CcR_LATEST.5Cmake.5Coutput.5Cobjects.5Cr_fdl_user_if..0
                        1749 _r_fdl_vStr.R_FDL_GetVersionString.C.3A.5C_ECU2.5CECU_Rivian_A1.5CTarget.5Crepo_projects.5CpRealEcu.5CcR_LATEST.5Cmake.5Coutput.5Cobjects.5Cr_fdl_user_if..0:
                        1750 --	"DH850T01xxxxxxV200"
00000000 44483835       1751 	.byte	68,72,56,53
00000004 30543031       1752 	.byte	48,84,48,49
00000008 78787878       1753 	.byte	120,120,120,120
0000000c 78785632       1754 	.byte	120,120,86,50
00000010 3030           1755 	.byte	48,48
00000012 00             1756 	.byte	0
00000013 00             1757 	.space	1
                        1758 	.type	_r_fdl_vStr.R_FDL_GetVersionString.C.3A.5C_ECU2.5CECU_Rivian_A1.5CTarget.5Crepo_projects.5CpRealEcu.5CcR_LATEST.5Cmake.5Coutput.5Cobjects.5Cr_fdl_user_if..0,@object
                        1759 	.size	_r_fdl_vStr.R_FDL_GetVersionString.C.3A.5C_ECU2.5CECU_Rivian_A1.5CTarget.5Crepo_projects.5CpRealEcu.5CcR_LATEST.5Cmake.5Coutput.5Cobjects.5Cr_fdl_user_if..0,20
                        1760 	.type	.L3581,@object
                        1761 	.size	.L3581,20
                        1762 	.data
                        1763 	.text
                        1764 	.align	2

                                                                      Page 33
                                                              C:\Users\nhuliyap\AppData\Local\Temp\gh_0000da81.s
                        1765 	.align	2
                        1766 ..gh.f.f.1.e.16:
                        1767 	.type	..gh.f.f.1.e.16,@object
                        1768 	.size	..gh.f.f.1.e.16,0
                        1769 	.global	_R_FDL_SuspendRequest
                        1770 _R_FDL_SuspendRequest:
000007ee 80076100       1771 	prepare	{r29,r31},0
                        1772 --	    .bf
                        1773 .LDW83:
000007f2 06ea           1774 	mov	6,r29
                        1775 	jarl	_R_FDL_UFct_StateNotStandBy,lp
                        1775 <EXPANSION BEGIN>
                        1775 jarl22 _R_FDL_UFct_StateNotStandBy , lp 
000007f4 bfffeefe*      1775 <EXPANSION END>
000007f8 6152           1776 	cmp	1,r10
000007fa da15*          1777 	bne	.L3590
                        1778 --line757
                        1779 ..lin.C.3A.5C_ECU2.5CECU_Rivian_A1.5CTarget.5Crepo_projects.5CpRealEcu.5CcR_LATEST.5Cmake.5Coutput.5Cobjects.5Cr_fdl_user_if.166::
                        1780 .LDWlin166:
000007fc 3e0600000000*  1781 	mov	_g_fdl_str,ep
00000802 144d           1782 	sld.w	40[ep],r9
00000804 e049           1783 	cmp	zero,r9
00000806 f20d*          1784 	be	.L3590
00000808 1245           1785 	sld.w	36[ep],r8
0000080a e041           1786 	cmp	zero,r8
0000080c ca0d*          1787 	bne	.L3590
0000080e 2835           1788 	sld.w	80[ep],r6
00000810 270655555555   1789 	mov	1431655765,r7
00000816 e731           1790 	cmp	r7,r6
00000818 ea05*          1791 	bne	.L3590
0000081a 4893           1792 	sld.b	72[ep],r18
0000081c e091           1793 	cmp	zero,r18
0000081e ba05*          1794 	bne	.L3590
                        1795 --line762
                        1796 ..lin.C.3A.5C_ECU2.5CECU_Rivian_A1.5CTarget.5Crepo_projects.5CpRealEcu.5CcR_LATEST.5Cmake.5Coutput.5Cobjects.5Cr_fdl_user_if.167::
                        1797 .LDWlin167:
00000820 08e8           1798 	mov	r8,r29
00000822 c953           1799 	sst.b	r10,73[ep]
                        1800 .L3590:
00000824 1d50           1801 	mov	r29,r10
                        1802 --	    .ef
                        1803 .LDW93:
00000826 40067f00       1804 	dispose	0,{r29,r31},[lp]
                        1805 	.global	___ghs_eofn_R_FDL_SuspendRequest
                        1806 ___ghs_eofn_R_FDL_SuspendRequest:
                        1807 	.type	_R_FDL_SuspendRequest,@function
                        1808 	.size	_R_FDL_SuspendRequest,.-_R_FDL_SuspendRequest
                        1809 	.align	2
                        1810 --_ret	r29	local
                        1811 
                        1812 	.section ".bss","awb"
                        1813 .L3665:
                        1814 	.type	.L3665,@object
                        1815 	.size	.L3665,0
                        1816 	.data
                        1817 	.text
                        1818 	.align	2
                        1819 	.align	2
                        1820 ..gh.f.f.1.e.17:
                        1821 	.type	..gh.f.f.1.e.17,@object
                        1822 	.size	..gh.f.f.1.e.17,0

                                                                      Page 34
                                                              C:\Users\nhuliyap\AppData\Local\Temp\gh_0000da81.s
                        1823 	.global	_R_FDL_ResumeRequest
                        1824 _R_FDL_ResumeRequest:
0000082a 80076100       1825 	prepare	{r29,r31},0
                        1826 --	    .bf
                        1827 .LDW04:
0000082e 00ea           1828 	mov	0,r29
                        1829 	jarl	_R_FDL_UFct_StateNotStandBy,lp
                        1829 <EXPANSION BEGIN>
                        1829 jarl22 _R_FDL_UFct_StateNotStandBy , lp 
00000830 bfffb2fe*      1829 <EXPANSION END>
00000834 6152           1830 	cmp	1,r10
00000836 fa0d*          1831 	bne	.L3739
                        1832 --line782
                        1833 ..lin.C.3A.5C_ECU2.5CECU_Rivian_A1.5CTarget.5Crepo_projects.5CpRealEcu.5CcR_LATEST.5Cmake.5Coutput.5Cobjects.5Cr_fdl_user_if.168::
                        1834 .LDWlin168:
00000838 3e0600000000*  1835 	mov	_g_fdl_str,ep
0000083e 2845           1836 	sld.w	80[ep],r8
00000840 290657555555   1837 	mov	1431655767,r9
00000846 e941           1838 	cmp	r9,r8
00000848 ea05*          1839 	bne	.L3739
0000084a 483b           1840 	sld.b	72[ep],r7
0000084c e039           1841 	cmp	zero,r7
0000084e ba05*          1842 	bne	.L3739
                        1843 --line785
                        1844 ..lin.C.3A.5C_ECU2.5CECU_Rivian_A1.5CTarget.5Crepo_projects.5CpRealEcu.5CcR_LATEST.5Cmake.5Coutput.5Cobjects.5Cr_fdl_user_if.169::
                        1845 .LDWlin169:
00000850 ca53           1846 	sst.b	r10,74[ep]
00000852 a505*          1847 	br	.L3745
                        1848 .L3739:
                        1849 --line792
                        1850 ..lin.C.3A.5C_ECU2.5CECU_Rivian_A1.5CTarget.5Crepo_projects.5CpRealEcu.5CcR_LATEST.5Cmake.5Coutput.5Cobjects.5Cr_fdl_user_if.170::
                        1851 .LDWlin170:
00000854 06ea           1852 	mov	6,r29
                        1853 .L3745:
00000856 1d50           1854 	mov	r29,r10
                        1855 --	    .ef
                        1856 .LDW14:
00000858 40067f00       1857 	dispose	0,{r29,r31},[lp]
                        1858 	.global	___ghs_eofn_R_FDL_ResumeRequest
                        1859 ___ghs_eofn_R_FDL_ResumeRequest:
                        1860 	.type	_R_FDL_ResumeRequest,@function
                        1861 	.size	_R_FDL_ResumeRequest,.-_R_FDL_ResumeRequest
                        1862 	.align	2
                        1863 --_ret	r29	local
                        1864 
                        1865 	.section ".bss","awb"
                        1866 .L3812:
                        1867 	.type	.L3812,@object
                        1868 	.size	.L3812,0
                        1869 	.data
                        1870 	.text
                        1871 	.align	2
                        1872 	.align	2
                        1873 ..gh.f.f.1.e.18:
                        1874 	.type	..gh.f.f.1.e.18,@object
                        1875 	.size	..gh.f.f.1.e.18,0
                        1876 	.global	_R_FDL_StandBy
                        1877 _R_FDL_StandBy:
0000085c 8007e110       1878 	prepare	{r27,r28,r29,r31},0
                        1879 --	    .bf
                        1880 .LDW24:

                                                                      Page 35
                                                              C:\Users\nhuliyap\AppData\Local\Temp\gh_0000da81.s
00000860 3c0600000000*  1881 	mov	_g_fdl_str,r28
00000866 3cdf5100       1882 	ld.w	80[r28],r27
0000086a 3d0654555555   1883 	mov	1431655764,r29
00000870 1d960400       1884 	addi	4,r29,r18
00000874 f2d9           1885 	cmp	r18,r27
00000876 c20d*          1886 	be	.L3881
                        1887 	jarl	_R_FDL_UFct_StateNotStandBy,lp
                        1887 <EXPANSION BEGIN>
                        1887 jarl22 _R_FDL_UFct_StateNotStandBy , lp 
00000878 bfff6afe*      1887 <EXPANSION END>
0000087c 6152           1888 	cmp	1,r10
0000087e aa1d*          1889 	bne	.L3877
                        1890 --line810
                        1891 ..lin.C.3A.5C_ECU2.5CECU_Rivian_A1.5CTarget.5Crepo_projects.5CpRealEcu.5CcR_LATEST.5Cmake.5Coutput.5Cobjects.5Cr_fdl_user_if.171::
                        1892 .LDWlin171:
00000880 fdd9           1893 	cmp	r29,r27
00000882 821d*          1894 	be	.L3877
                        1895 --line812
                        1896 ..lin.C.3A.5C_ECU2.5CECU_Rivian_A1.5CTarget.5Crepo_projects.5CpRealEcu.5CcR_LATEST.5Cmake.5Coutput.5Cobjects.5Cr_fdl_user_if.172::
                        1897 .LDWlin172:
00000884 1cf0           1898 	mov	r28,ep
00000886 1d4e0400       1899 	addi	4,r29,r9
0000088a 27dd           1900 	sst.w	r27,76[ep]
0000088c 294d           1901 	sst.w	r9,80[ep]
                        1902 .L3881:
                        1903 	jarl	_R_FDL_FCUFct_ChkReady,lp
                        1903 <EXPANSION BEGIN>
                        1903 jarl22 _R_FDL_FCUFct_ChkReady , lp 
0000088e 80ff0000*      1903 <EXPANSION END>
00000892 e051           1904 	cmp	zero,r10
00000894 9a0d*          1905 	bne	.L3883
                        1906 --line820
                        1907 ..lin.C.3A.5C_ECU2.5CECU_Rivian_A1.5CTarget.5Crepo_projects.5CpRealEcu.5CcR_LATEST.5Cmake.5Coutput.5Cobjects.5Cr_fdl_user_if.173::
                        1908 .LDWlin173:
00000896 01ea           1909 	mov	1,r29
                        1910 	jarl	_R_FDL_FCUFct_ChkSuspendable,lp
                        1910 <EXPANSION BEGIN>
                        1910 jarl22 _R_FDL_FCUFct_ChkSuspendable , lp 
00000898 80ff0000*      1910 <EXPANSION END>
0000089c 6152           1911 	cmp	1,r10
0000089e ba0d*          1912 	bne	.L3888
                        1913 --line824
                        1914 ..lin.C.3A.5C_ECU2.5CECU_Rivian_A1.5CTarget.5Crepo_projects.5CpRealEcu.5CcR_LATEST.5Cmake.5Coutput.5Cobjects.5Cr_fdl_user_if.174::
                        1915 .LDWlin174:
                        1916 	jarl	_R_FDL_FCUFct_Suspend,lp
                        1916 <EXPANSION BEGIN>
                        1916 jarl22 _R_FDL_FCUFct_Suspend , lp 
000008a0 80ff0000*      1916 <EXPANSION END>
000008a4 850d*          1917 	br	.L3888
                        1918 .L3883:
                        1919 --line829
                        1920 ..lin.C.3A.5C_ECU2.5CECU_Rivian_A1.5CTarget.5Crepo_projects.5CpRealEcu.5CcR_LATEST.5Cmake.5Coutput.5Cobjects.5Cr_fdl_user_if.175::
                        1921 .LDWlin175:
000008a6 1d4e0500       1922 	addi	5,r29,r9
000008aa 7c4f5100       1923 	st.w	r9,80[r28]
000008ae 00ea           1924 	mov	0,r29
000008b0 a505*          1925 	br	.L3888
                        1926 .L3877:
                        1927 --line835
                        1928 ..lin.C.3A.5C_ECU2.5CECU_Rivian_A1.5CTarget.5Crepo_projects.5CpRealEcu.5CcR_LATEST.5Cmake.5Coutput.5Cobjects.5Cr_fdl_user_if.176::
                        1929 .LDWlin176:

                                                                      Page 36
                                                              C:\Users\nhuliyap\AppData\Local\Temp\gh_0000da81.s
000008b2 06ea           1930 	mov	6,r29
                        1931 .L3888:
000008b4 1d50           1932 	mov	r29,r10
                        1933 --	    .ef
                        1934 .LDW34:
000008b6 4006ff10       1935 	dispose	0,{r27,r28,r29,r31},[lp]
                        1936 	.global	___ghs_eofn_R_FDL_StandBy
                        1937 ___ghs_eofn_R_FDL_StandBy:
                        1938 	.type	_R_FDL_StandBy,@function
                        1939 	.size	_R_FDL_StandBy,.-_R_FDL_StandBy
                        1940 	.align	2
                        1941 --_ret	r29	local
                        1942 
                        1943 	.section ".bss","awb"
                        1944 .L3990:
                        1945 	.type	.L3990,@object
                        1946 	.size	.L3990,0
                        1947 	.data
                        1948 	.text
                        1949 	.align	2
                        1950 	.align	2
                        1951 ..gh.f.f.1.e.19:
                        1952 	.type	..gh.f.f.1.e.19,@object
                        1953 	.size	..gh.f.f.1.e.19,0
                        1954 	.global	_R_FDL_WakeUp
                        1955 _R_FDL_WakeUp:
000008ba 80077b000000*  1956 	prepare	{r29,r31},0,_g_fdl_str
000008c0 0000*
                        1957 --	    .bf
                        1958 .LDW44:
000008c2 288d           1959 	sld.w	80[ep],r17
000008c4 320659555555   1960 	mov	1431655769,r18
000008ca f289           1961 	cmp	r18,r17
000008cc ba0d*          1962 	bne	.L4091
                        1963 --line852
                        1964 ..lin.C.3A.5C_ECU2.5CECU_Rivian_A1.5CTarget.5Crepo_projects.5CpRealEcu.5CcR_LATEST.5Cmake.5Coutput.5Cobjects.5Cr_fdl_user_if.177::
                        1965 .LDWlin177:
000008ce 2685           1966 	sld.w	76[ep],r16
000008d0 00ea           1967 	mov	0,r29
000008d2 2985           1968 	sst.w	r16,80[ep]
                        1969 	jarl	_R_FDL_FCUFct_ResumeChkNeed,lp
                        1969 <EXPANSION BEGIN>
                        1969 jarl22 _R_FDL_FCUFct_ResumeChkNeed , lp 
000008d4 80ff0000*      1969 <EXPANSION END>
000008d8 6152           1970 	cmp	1,r10
000008da da05*          1971 	bne	.L4095
                        1972 --line856
                        1973 ..lin.C.3A.5C_ECU2.5CECU_Rivian_A1.5CTarget.5Crepo_projects.5CpRealEcu.5CcR_LATEST.5Cmake.5Coutput.5Cobjects.5Cr_fdl_user_if.178::
                        1974 .LDWlin178:
                        1975 	jarl	_R_FDL_FCUFct_Resume,lp
                        1975 <EXPANSION BEGIN>
                        1975 jarl22 _R_FDL_FCUFct_Resume , lp 
000008dc 80ff0000*      1975 <EXPANSION END>
000008e0 a505*          1976 	br	.L4095
                        1977 .L4091:
                        1978 --line860
                        1979 ..lin.C.3A.5C_ECU2.5CECU_Rivian_A1.5CTarget.5Crepo_projects.5CpRealEcu.5CcR_LATEST.5Cmake.5Coutput.5Cobjects.5Cr_fdl_user_if.179::
                        1980 .LDWlin179:
000008e2 06ea           1981 	mov	6,r29
                        1982 .L4095:
000008e4 1d50           1983 	mov	r29,r10

                                                                      Page 37
                                                              C:\Users\nhuliyap\AppData\Local\Temp\gh_0000da81.s
                        1984 --	    .ef
                        1985 .LDW54:
000008e6 40067f00       1986 	dispose	0,{r29,r31},[lp]
                        1987 	.global	___ghs_eofn_R_FDL_WakeUp
                        1988 ___ghs_eofn_R_FDL_WakeUp:
                        1989 	.type	_R_FDL_WakeUp,@function
                        1990 	.size	_R_FDL_WakeUp,.-_R_FDL_WakeUp
                        1991 	.align	2
                        1992 --_ret	r29	local
                        1993 
                        1994 	.section ".bss","awb"
                        1995 .L4133:
                        1996 	.type	.L4133,@object
                        1997 	.size	.L4133,0
                        1998 	.data
                        1999 	.text
                        2000 	.align	2
                        2001 	.align	2
                        2002 ..gh.f.f.1.e.20:
                        2003 	.type	..gh.f.f.1.e.20,@object
                        2004 	.size	..gh.f.f.1.e.20,0
                        2005 	.global	_R_FDL_CancelRequest
                        2006 _R_FDL_CancelRequest:
000008ea 8007e100       2007 	prepare	{r28,r29,r31},0
                        2008 --	    .bf
                        2009 .LDW64:
000008ee 00e2           2010 	mov	0,r28
                        2011 	jarl	_R_FDL_UFct_StateNotStandBy,lp
                        2011 <EXPANSION BEGIN>
                        2011 jarl22 _R_FDL_UFct_StateNotStandBy , lp 
000008f0 bffff2fd*      2011 <EXPANSION END>
000008f4 6152           2012 	cmp	1,r10
000008f6 ba2d*          2013 	bne	.L4189
000008f8 3d0600000000*  2014 	mov	_g_fdl_str,r29
000008fe 3d8f5100       2015 	ld.w	80[r29],r17
00000902 320654555555   2016 	mov	1431655764,r18
00000908 f289           2017 	cmp	r18,r17
0000090a 9225*          2018 	be	.L4189
0000090c 1d4f4800       2019 	ld.b	72[r29],r9
00000910 e049           2020 	cmp	zero,r9
00000912 da1d*          2021 	bne	.L4189
                        2022 --line880
                        2023 ..lin.C.3A.5C_ECU2.5CECU_Rivian_A1.5CTarget.5Crepo_projects.5CpRealEcu.5CcR_LATEST.5Cmake.5Coutput.5Cobjects.5Cr_fdl_user_if.180::
                        2024 .LDWlin180:
00000914 12460300       2025 	addi	3,r18,r8
00000918 e889           2026 	cmp	r8,r17
0000091a da0d*          2027 	bne	.L4193
0000091c 3d3f2900       2028 	ld.w	40[r29],r7
00000920 e039           2029 	cmp	zero,r7
00000922 9a0d*          2030 	bne	.L4193
                        2031 --line883
                        2032 ..lin.C.3A.5C_ECU2.5CECU_Rivian_A1.5CTarget.5Crepo_projects.5CpRealEcu.5CcR_LATEST.5Cmake.5Coutput.5Cobjects.5Cr_fdl_user_if.181::
                        2033 .LDWlin181:
00000924 20368000       2034 	movea	128,zero,r6
                        2035 	jarl	_R_FDL_FCUFct_SwitchMode_Start,lp
                        2035 <EXPANSION BEGIN>
                        2035 jarl22 _R_FDL_FCUFct_SwitchMode_Start , lp 
00000928 80ff0000*      2035 <EXPANSION END>
0000092c 0ae0           2036 	mov	r10,r28
                        2037 --line894
                        2038 ..lin.C.3A.5C_ECU2.5CECU_Rivian_A1.5CTarget.5Crepo_projects.5CpRealEcu.5CcR_LATEST.5Cmake.5Coutput.5Cobjects.5Cr_fdl_user_if.182::

                                                                      Page 38
                                                              C:\Users\nhuliyap\AppData\Local\Temp\gh_0000da81.s
                        2039 .LDWlin182:
0000092e e051           2040 	cmp	zero,r10
00000930 fa0d*          2041 	bne	.L4203
00000932 950d*          2042 	br	.L4202
                        2043 .L4193:
                        2044 --line885
                        2045 ..lin.C.3A.5C_ECU2.5CECU_Rivian_A1.5CTarget.5Crepo_projects.5CpRealEcu.5CcR_LATEST.5Cmake.5Coutput.5Cobjects.5Cr_fdl_user_if.183::
                        2046 .LDWlin183:
00000934 12360100       2047 	addi	1,r18,r6
00000938 e689           2048 	cmp	r6,r17
0000093a da05*          2049 	bne	.L4202
0000093c 3d9f2900       2050 	ld.w	40[r29],r19
00000940 e099           2051 	cmp	zero,r19
00000942 d205*          2052 	be	.L4189
                        2053 .L4202:
                        2054 --line896
                        2055 ..lin.C.3A.5C_ECU2.5CECU_Rivian_A1.5CTarget.5Crepo_projects.5CpRealEcu.5CcR_LATEST.5Cmake.5Coutput.5Cobjects.5Cr_fdl_user_if.184::
                        2056 .LDWlin184:
00000944 0192           2057 	mov	1,r18
00000946 5d974800       2058 	st.b	r18,72[r29]
0000094a a505*          2059 	br	.L4203
                        2060 .L4189:
                        2061 --line900
                        2062 ..lin.C.3A.5C_ECU2.5CECU_Rivian_A1.5CTarget.5Crepo_projects.5CpRealEcu.5CcR_LATEST.5Cmake.5Coutput.5Cobjects.5Cr_fdl_user_if.185::
                        2063 .LDWlin185:
0000094c 06e2           2064 	mov	6,r28
                        2065 .L4203:
0000094e 1c50           2066 	mov	r28,r10
                        2067 --	    .ef
                        2068 .LDW74:
00000950 4006ff00       2069 	dispose	0,{r28,r29,r31},[lp]
                        2070 	.global	___ghs_eofn_R_FDL_CancelRequest
                        2071 ___ghs_eofn_R_FDL_CancelRequest:
                        2072 	.type	_R_FDL_CancelRequest,@function
                        2073 	.size	_R_FDL_CancelRequest,.-_R_FDL_CancelRequest
                        2074 	.align	2
                        2075 --_ret	r28	local
                        2076 
                        2077 	.section ".bss","awb"
                        2078 .L4325:
                        2079 	.type	.L4325,@object
                        2080 	.size	.L4325,0
                        2081 	.data
                        2082 	.text
                        2083 	.align	2
                        2084 
                        2085 	.data
                        2086 	.section ".bss","awb"
                        2087 	.align	4
                        2088 	.align	4
                        2089 	.global	_g_fdl_str
00000000 000000000000   2090 _g_fdl_str:	.space	84
00000006 000000000000 
0000000c 000000000000 
00000012 000000000000 
00000018 000000000000 
0000001e 000000000000 
00000024 000000000000 
0000002a 000000000000 
00000030 000000000000 
00000036 000000000000 

                                                                      Page 39
                                                              C:\Users\nhuliyap\AppData\Local\Temp\gh_0000da81.s
0000003c 000000000000 
00000042 000000000000 
00000048 000000000000 
0000004e 000000000000 
                        2091 	.type	_g_fdl_str,@object
                        2092 	.size	_g_fdl_str,84
                        2093 	.data
                        2094 	.ghsnote version,17
                        2095 	.ghsnote tools,8195
                        2096 	.ghsnote options,144
                        2097 	.text
                        2098 	.align	2
                        2099 ..eof.C.3A.5C_ECU2.5CECU_Rivian_A1.5CTarget.5Crepo_projects.5CpRealEcu.5CcR_LATEST.5Cmake.5Coutput.5Cobjects.5Cr_fdl_user_if...43.3A.5C_ECU2.5CECU_Rivian_A1.5CTarget.5Crepo_projects.5CpRealEcu.5CcR_LATEST.5Cmake..65044AEB..0::
                        2100 	.section	.debug_info
                        2101 .Ldw_begin:
00000000 ec180000       2102 	.word	.Ldw_end-.Ldw_begin-4
00000004 0200           2103 	.byte	2,0
00000006 00000000*      2104 	.word	.Ldw_abbr_begin
0000000a 04             2105 	.byte	4
                        2106 	.section	.debug_abbrev
                        2107 .Ldw_abbr_begin:
                        2108 	.section	.debug_info
0000000b 01             2109 	.byte	1
0000000c 00000000*      2110 	.word	..bof.C.3A.5C_ECU2.5CECU_Rivian_A1.5CTarget.5Crepo_projects.5CpRealEcu.5CcR_LATEST.5Cmake.5Coutput.5Cobjects.5Cr_fdl_user_if...43.3A.5C_ECU2.5CECU_Rivian_A1.5CTarget.5Crepo_projects.5CpRealEcu.5CcR_LATEST.5Cmake..65044AEB..0
00000010 00000000*      2111 	.word	..eof.C.3A.5C_ECU2.5CECU_Rivian_A1.5CTarget.5Crepo_projects.5CpRealEcu.5CcR_LATEST.5Cmake.5Coutput.5Cobjects.5Cr_fdl_user_if...43.3A.5C_ECU2.5CECU_Rivian_A1.5CTarget.5Crepo_projects.5CpRealEcu.5CcR_LATEST.5Cmake..65044AEB..0
00000014 2e2e2f736f75   2112 	.strz	"../source/McalFls/r_fdl_user_if.c"
0000001a 7263652f4d63 
00000020 616c466c732f 
00000026 725f66646c5f 
0000002c 757365725f69 
00000032 662e6300 
00000036 433a5c5f4543   2113 	.strz	"C:\\_ECU2\\ECU_Rivian_A1\\Target\\repo_projects\\pRealEcu\\cR_LATEST\\make"
0000003c 55325c454355 
00000042 5f5269766961 
00000048 6e5f41315c54 
0000004e 61726765745c 
00000054 7265706f5f70 
0000005a 726f6a656374 
00000060 735c70526561 
00000066 6c4563755c63 
0000006c 525f4c415445 
00000072 53545c6d616b 
00000078 6500 
0000007a 474853204320   2114 	.strz	"GHS C 2015.1.7 [dual]"
00000080 323031352e31 
00000086 2e37205b6475 
0000008c 616c5d00 
00000090 0100           2115 	.byte	1,0
00000092 00000000*      2116 	.word	.Ldw_line_begin
00000096 00000000*      2117 	.word	.Ldw_macinfo_begin
0000009a 00             2118 	.byte	0
                        2119 
                        2120 	.section	.debug_abbrev
00000000 01             2121 	.byte	1
00000001 11             2122 	.byte	17
00000002 01             2123 	.byte	1
00000003 1101           2124 	.byte	17,1
00000005 1201           2125 	.byte	18,1
00000007 0308           2126 	.byte	3,8
00000009 1b08           2127 	.byte	27,8
0000000b 2508           2128 	.byte	37,8

                                                                      Page 40
                                                              C:\Users\nhuliyap\AppData\Local\Temp\gh_0000da81.s
0000000d 1305           2129 	.byte	19,5
0000000f 1006           2130 	.byte	16,6
00000011 4306           2131 	.byte	67,6
00000013 420b           2132 	.byte	66,11
00000015 0000           2133 	.byte	0,0
                        2134 
                        2135 	.section	.debug_line
                        2136 .Ldw_line_begin:
00000000 450f0000       2137 	.word	.Ldw_line_end-.Ldw_line_begin-4
00000004 0200           2138 	.byte	2,0
00000006 00000000*      2139 	.word	.Ldw_lpro_end-.Ldw_lpro_begin
                        2140 .Ldw_lpro_begin:
0000000a 01             2141 	.byte	1
0000000b 00             2142 	.byte	0
0000000c 00             2143 	.byte	0
0000000d 04             2144 	.byte	4
0000000e 0a             2145 	.byte	10
0000000f 000101         2146 	.byte	0,1,1
00000012 010100         2147 	.byte	1,1,0
00000015 000001         2148 	.byte	0,0,1
00000018 00             2149 	.byte	0
00000019 2e2e2f736f75   2150 	.strz	"../source/McalFls/r_fdl_user_if.c"
0000001f 7263652f4d63 
00000025 616c466c732f 
0000002b 725f66646c5f 
00000031 757365725f69 
00000037 662e6300 
0000003b 000000         2151 	.byte	0,0,0
0000003e 2e2e2f736f75   2152 	.strz	"../source/common/Std_Types.hpp"
00000044 7263652f636f 
0000004a 6d6d6f6e2f53 
00000050 74645f547970 
00000056 65732e687070 
0000005c 00 
0000005d 000000         2153 	.byte	0,0,0
00000060 2e2e2f736f75   2154 	.strz	"../source/common/Platform_Types.hpp"
00000066 7263652f636f 
0000006c 6d6d6f6e2f50 
00000072 6c6174666f72 
00000078 6d5f54797065 
0000007e 732e68707000 
00000084 000000         2155 	.byte	0,0,0
00000087 2e2e2f736f75   2156 	.strz	"../source/common/Compiler.hpp"
0000008d 7263652f636f 
00000093 6d6d6f6e2f43 
00000099 6f6d70696c65 
0000009f 722e68707000 
000000a5 000000         2157 	.byte	0,0,0
000000a8 2e2e2f736f75   2158 	.strz	"../source/ProjectCompiler/Compiler_Cfg.hpp"
000000ae 7263652f5072 
000000b4 6f6a65637443 
000000ba 6f6d70696c65 
000000c0 722f436f6d70 
000000c6 696c65725f43 
000000cc 66672e687070 
000000d2 00 
000000d3 000000         2159 	.byte	0,0,0
000000d6 2e2e2f736f75   2160 	.strz	"../source/ProjectCompiler/CompilerCfg_SwcServiceOs.hpp"
000000dc 7263652f5072 
000000e2 6f6a65637443 
000000e8 6f6d70696c65 

                                                                      Page 41
                                                              C:\Users\nhuliyap\AppData\Local\Temp\gh_0000da81.s
000000ee 722f436f6d70 
000000f4 696c65724366 
000000fa 675f53776353 
00000100 657276696365 
00000106 4f732e687070 
0000010c 00 
0000010d 000000         2161 	.byte	0,0,0
00000110 2e2e2f736f75   2162 	.strz	"../source/McalFls/r_fdl_global.hpp"
00000116 7263652f4d63 
0000011c 616c466c732f 
00000122 725f66646c5f 
00000128 676c6f62616c 
0000012e 2e68707000 
00000133 000000         2163 	.byte	0,0,0
00000136 2e2e2f736f75   2164 	.strz	"../source/McalFls/r_typedefs.hpp"
0000013c 7263652f4d63 
00000142 616c466c732f 
00000148 725f74797065 
0000014e 646566732e68 
00000154 707000 
00000157 000000         2165 	.byte	0,0,0
0000015a 2e2e2f736f75   2166 	.strz	"../source/McalMcu/Types.hpp"
00000160 7263652f4d63 
00000166 616c4d63752f 
0000016c 54797065732e 
00000172 68707000 
00000176 000000         2167 	.byte	0,0,0
00000179 2e2e2f736f75   2168 	.strz	"../source/McalFls/r_fdl.hpp"
0000017f 7263652f4d63 
00000185 616c466c732f 
0000018b 725f66646c2e 
00000191 68707000 
00000195 000000         2169 	.byte	0,0,0
00000198 2e2e2f736f75   2170 	.strz	"../source/ProjectCfg/CfgMcalFls_Fdl.hpp"
0000019e 7263652f5072 
000001a4 6f6a65637443 
000001aa 66672f436667 
000001b0 4d63616c466c 
000001b6 735f46646c2e 
000001bc 68707000 
000001c0 000000         2171 	.byte	0,0,0
000001c3 2e2e2f736f75   2172 	.strz	"../source/McalFls/Fls.hpp"
000001c9 7263652f4d63 
000001cf 616c466c732f 
000001d5 466c732e6870 
000001db 7000 
000001dd 000000         2173 	.byte	0,0,0
000001e0 2e2e2f736f75   2174 	.strz	"../source/ProjectCfg/Fls_Cfg.hpp"
000001e6 7263652f5072 
000001ec 6f6a65637443 
000001f2 66672f466c73 
000001f8 5f4366672e68 
000001fe 707000 
00000201 000000         2175 	.byte	0,0,0
00000204 2e2e2f736f75   2176 	.strz	"../source/EcuabMemIf/MemIf_Types.hpp"
0000020a 7263652f4563 
00000210 7561624d656d 
00000216 49662f4d656d 
0000021c 49665f547970 
00000222 65732e687070 
00000228 00 

                                                                      Page 42
                                                              C:\Users\nhuliyap\AppData\Local\Temp\gh_0000da81.s
00000229 000000         2177 	.byte	0,0,0
0000022c 2e2e2f736f75   2178 	.strz	"../source/McalFls/Fls_Types.hpp"
00000232 7263652f4d63 
00000238 616c466c732f 
0000023e 466c735f5479 
00000244 7065732e6870 
0000024a 7000 
0000024c 000000         2179 	.byte	0,0,0
0000024f 2e2e2f736f75   2180 	.strz	"../source/McalFls/Fls_PBTypes.hpp"
00000255 7263652f4d63 
0000025b 616c466c732f 
00000261 466c735f5042 
00000267 54797065732e 
0000026d 68707000 
00000271 000000         2181 	.byte	0,0,0
00000274 2e2e2f736f75   2182 	.strz	"../source/ProjectCompiler/MemMap.hpp"
0000027a 7263652f5072 
00000280 6f6a65637443 
00000286 6f6d70696c65 
0000028c 722f4d656d4d 
00000292 61702e687070 
00000298 00 
00000299 000000         2183 	.byte	0,0,0
0000029c 2e2e2f736f75   2184 	.strz	"../source/ProjectCompiler/MemMap_Common.hpp"
000002a2 7263652f5072 
000002a8 6f6a65637443 
000002ae 6f6d70696c65 
000002b4 722f4d656d4d 
000002ba 61705f436f6d 
000002c0 6d6f6e2e6870 
000002c6 7000 
000002c8 000000         2185 	.byte	0,0,0
000002cb 2e2e2f736f75   2186 	.strz	"../source/McalFls/r_fdl_types.hpp"
000002d1 7263652f4d63 
000002d7 616c466c732f 
000002dd 725f66646c5f 
000002e3 74797065732e 
000002e9 68707000 
000002ed 000000         2187 	.byte	0,0,0
000002f0 2e2e2f736f75   2188 	.strz	"../source/McalFls/fdl_descriptor.hpp"
000002f6 7263652f4d63 
000002fc 616c466c732f 
00000302 66646c5f6465 
00000308 736372697074 
0000030e 6f722e687070 
00000314 00 
00000315 000000         2189 	.byte	0,0,0
00000318 2e2e2f736f75   2190 	.strz	"../source/SwcServiceSchM/SchM_Fls.hpp"
0000031e 7263652f5377 
00000324 635365727669 
0000032a 63655363684d 
00000330 2f5363684d5f 
00000336 466c732e6870 
0000033c 7000 
0000033e 000000         2191 	.byte	0,0,0
00000341 2e2e2f736f75   2192 	.strz	"../source/wrappers/OS/Os.hpp"
00000347 7263652f7772 
0000034d 617070657273 
00000353 2f4f532f4f73 
00000359 2e68707000 
0000035e 000000         2193 	.byte	0,0,0

                                                                      Page 43
                                                              C:\Users\nhuliyap\AppData\Local\Temp\gh_0000da81.s
00000361 2e2e2f736f75   2194 	.strz	"../source/SwcServiceOs/Types_SwcServiceOs.hpp"
00000367 7263652f5377 
0000036d 635365727669 
00000373 63654f732f54 
00000379 797065735f53 
0000037f 776353657276 
00000385 6963654f732e 
0000038b 68707000 
0000038f 000000         2195 	.byte	0,0,0
00000392 2e2e2f736f75   2196 	.strz	"../source/ProjectCompiler/Os_MemMap.hpp"
00000398 7263652f5072 
0000039e 6f6a65637443 
000003a4 6f6d70696c65 
000003aa 722f4f735f4d 
000003b0 656d4d61702e 
000003b6 68707000 
000003ba 000000         2197 	.byte	0,0,0
000003bd 2e2e2f736f75   2198 	.strz	"../source/ProjectCfg/Os_Cfg.hpp"
000003c3 7263652f5072 
000003c9 6f6a65637443 
000003cf 66672f4f735f 
000003d5 4366672e6870 
000003db 7000 
000003dd 000000         2199 	.byte	0,0,0
000003e0 2e2e2f736f75   2200 	.strz	"../source/McalFls/r_fdl_env.hpp"
000003e6 7263652f4d63 
000003ec 616c466c732f 
000003f2 725f66646c5f 
000003f8 656e762e6870 
000003fe 7000 
00000400 000000         2201 	.byte	0,0,0
00000403 2e2e2f736f75   2202 	.strz	"../source/ProjectCompiler/r_fdl_mem_map.hpp"
00000409 7263652f5072 
0000040f 6f6a65637443 
00000415 6f6d70696c65 
0000041b 722f725f6664 
00000421 6c5f6d656d5f 
00000427 6d61702e6870 
0000042d 7000 
0000042f 000000         2203 	.byte	0,0,0
00000432 00             2204 	.byte	0
                        2205 .Ldw_lpro_end:
                        2206 	.section	.debug_macinfo
                        2207 .Ldw_macinfo_begin:
                        2208 	.section	.debug_frame
                        2209 .LDW_4e8d320:
00000000 00000000*      2210 	.word	.LDW_unq_2-.LDW_unq_1
                        2211 .LDW_unq_1:
00000004 ffffffff       2212 	.byte	255,255,255,255
00000008 01             2213 	.byte	1
00000009 00             2214 	.byte	0
0000000a 01             2215 	.byte	1
0000000b 01             2216 	.byte	1
0000000c 1f             2217 	.byte	31
0000000d 0c             2218 	.byte	12
0000000e 03             2219 	.byte	3
0000000f 00             2220 	.byte	0
00000010 07             2221 	.byte	7
00000011 00             2222 	.byte	0
00000012 07             2223 	.byte	7
00000013 01             2224 	.byte	1

                                                                      Page 44
                                                              C:\Users\nhuliyap\AppData\Local\Temp\gh_0000da81.s
00000014 07             2225 	.byte	7
00000015 02             2226 	.byte	2
00000016 07             2227 	.byte	7
00000017 03             2228 	.byte	3
00000018 07             2229 	.byte	7
00000019 04             2230 	.byte	4
0000001a 07             2231 	.byte	7
0000001b 05             2232 	.byte	5
0000001c 07             2233 	.byte	7
0000001d 06             2234 	.byte	6
0000001e 07             2235 	.byte	7
0000001f 07             2236 	.byte	7
00000020 07             2237 	.byte	7
00000021 08             2238 	.byte	8
00000022 07             2239 	.byte	7
00000023 09             2240 	.byte	9
00000024 07             2241 	.byte	7
00000025 0a             2242 	.byte	10
00000026 07             2243 	.byte	7
00000027 0b             2244 	.byte	11
00000028 07             2245 	.byte	7
00000029 0c             2246 	.byte	12
0000002a 07             2247 	.byte	7
0000002b 0d             2248 	.byte	13
0000002c 07             2249 	.byte	7
0000002d 0e             2250 	.byte	14
0000002e 07             2251 	.byte	7
0000002f 0f             2252 	.byte	15
00000030 07             2253 	.byte	7
00000031 10             2254 	.byte	16
00000032 07             2255 	.byte	7
00000033 11             2256 	.byte	17
00000034 07             2257 	.byte	7
00000035 12             2258 	.byte	18
00000036 07             2259 	.byte	7
00000037 13             2260 	.byte	19
00000038 08             2261 	.byte	8
00000039 14             2262 	.byte	20
0000003a 08             2263 	.byte	8
0000003b 15             2264 	.byte	21
0000003c 08             2265 	.byte	8
0000003d 16             2266 	.byte	22
0000003e 08             2267 	.byte	8
0000003f 17             2268 	.byte	23
00000040 08             2269 	.byte	8
00000041 18             2270 	.byte	24
00000042 08             2271 	.byte	8
00000043 19             2272 	.byte	25
00000044 08             2273 	.byte	8
00000045 1a             2274 	.byte	26
00000046 08             2275 	.byte	8
00000047 1b             2276 	.byte	27
00000048 08             2277 	.byte	8
00000049 1c             2278 	.byte	28
0000004a 08             2279 	.byte	8
0000004b 1d             2280 	.byte	29
0000004c 07             2281 	.byte	7
0000004d 1e             2282 	.byte	30
0000004e 08             2283 	.byte	8
0000004f 1f             2284 	.byte	31
00000050 07             2285 	.byte	7

                                                                      Page 45
                                                              C:\Users\nhuliyap\AppData\Local\Temp\gh_0000da81.s
00000051 20             2286 	.byte	32
00000052 07             2287 	.byte	7
00000053 21             2288 	.byte	33
00000054 07             2289 	.byte	7
00000055 22             2290 	.byte	34
00000056 07             2291 	.byte	7
00000057 23             2292 	.byte	35
00000058 07             2293 	.byte	7
00000059 24             2294 	.byte	36
0000005a 07             2295 	.byte	7
0000005b 25             2296 	.byte	37
0000005c 07             2297 	.byte	7
0000005d 26             2298 	.byte	38
0000005e 07             2299 	.byte	7
0000005f 27             2300 	.byte	39
00000060 07             2301 	.byte	7
00000061 28             2302 	.byte	40
00000062 07             2303 	.byte	7
00000063 29             2304 	.byte	41
00000064 07             2305 	.byte	7
00000065 2a             2306 	.byte	42
00000066 07             2307 	.byte	7
00000067 2b             2308 	.byte	43
00000068 07             2309 	.byte	7
00000069 2c             2310 	.byte	44
0000006a 07             2311 	.byte	7
0000006b 2d             2312 	.byte	45
0000006c 07             2313 	.byte	7
0000006d 2e             2314 	.byte	46
0000006e 07             2315 	.byte	7
0000006f 2f             2316 	.byte	47
00000070 07             2317 	.byte	7
00000071 30             2318 	.byte	48
00000072 07             2319 	.byte	7
00000073 31             2320 	.byte	49
00000074 07             2321 	.byte	7
00000075 32             2322 	.byte	50
00000076 07             2323 	.byte	7
00000077 33             2324 	.byte	51
00000078 07             2325 	.byte	7
00000079 34             2326 	.byte	52
0000007a 07             2327 	.byte	7
0000007b 35             2328 	.byte	53
0000007c 07             2329 	.byte	7
0000007d 36             2330 	.byte	54
0000007e 07             2331 	.byte	7
0000007f 37             2332 	.byte	55
00000080 07             2333 	.byte	7
00000081 38             2334 	.byte	56
00000082 07             2335 	.byte	7
00000083 39             2336 	.byte	57
00000084 07             2337 	.byte	7
00000085 3a             2338 	.byte	58
00000086 07             2339 	.byte	7
00000087 3b             2340 	.byte	59
00000088 07             2341 	.byte	7
00000089 3c             2342 	.byte	60
0000008a 07             2343 	.byte	7
0000008b 3d             2344 	.byte	61
0000008c 07             2345 	.byte	7
0000008d 3e             2346 	.byte	62

                                                                      Page 46
                                                              C:\Users\nhuliyap\AppData\Local\Temp\gh_0000da81.s
0000008e 07             2347 	.byte	7
0000008f 3f             2348 	.byte	63
                        2349 .LDW_unq_2:
                        2350 	.section	.debug_info
                        2351 .LDW_4d15920:
0000009b 29             2352 	.byte	41
0000009c 00000000*      2353 	.word	.LDW_4d158c8
                        2354 
                        2355 	.section	.debug_abbrev
00000017 29             2356 	.byte	41
00000018 26             2357 	.byte	38
00000019 00             2358 	.byte	0
0000001a 4910           2359 	.byte	73,16
0000001c 0000           2360 	.byte	0,0
                        2361 
                        2362 	.section	.debug_info
                        2363 .LDW_40c70d8:
000000a0 2f             2364 	.byte	47
000000a1 00000000*      2365 	.word	.LDW_4d15920
                        2366 
                        2367 	.section	.debug_abbrev
0000001e 2f             2368 	.byte	47
0000001f 0f             2369 	.byte	15
00000020 00             2370 	.byte	0
00000021 4910           2371 	.byte	73,16
00000023 0000           2372 	.byte	0,0
                        2373 
                        2374 	.section	.debug_info
                        2375 .LDW_40c70a0:
000000a5 44             2376 	.byte	68
000000a6 00000000*      2377 	.word	.LDW_4d15818
000000aa 01             2378 	.byte	1
                        2379 
                        2380 	.section	.debug_abbrev
00000025 44             2381 	.byte	68
00000026 15             2382 	.byte	21
00000027 01             2383 	.byte	1
00000028 4910           2384 	.byte	73,16
0000002a 270c           2385 	.byte	39,12
0000002c 0000           2386 	.byte	0,0
                        2387 
                        2388 	.section	.debug_info
                        2389 .LDW_40c1b50:
000000ab 12             2390 	.byte	18
000000ac 00000000*      2391 	.word	.LDW_40c70d8
000000b0 00             2392 	.byte	0
                        2393 
                        2394 	.section	.debug_abbrev
0000002e 12             2395 	.byte	18
0000002f 05             2396 	.byte	5
00000030 00             2397 	.byte	0
00000031 4910           2398 	.byte	73,16
00000033 4b0c           2399 	.byte	75,12
00000035 0000           2400 	.byte	0,0
                        2401 
                        2402 	.section	.debug_info
000000b1 00             2403 	.byte	0
                        2404 
                        2405 .LDW_40c7148:
000000b2 25             2406 	.byte	37
000000b3 756e7369676e   2407 	.strz	"unsigned long"

                                                                      Page 47
                                                              C:\Users\nhuliyap\AppData\Local\Temp\gh_0000da81.s
000000b9 6564206c6f6e 
000000bf 6700 
000000c1 07             2408 	.byte	7
000000c2 04             2409 	.byte	4
                        2410 
                        2411 	.section	.debug_abbrev
00000037 25             2412 	.byte	37
00000038 24             2413 	.byte	36
00000039 00             2414 	.byte	0
0000003a 0308           2415 	.byte	3,8
0000003c 3e0b           2416 	.byte	62,11
0000003e 0b0b           2417 	.byte	11,11
00000040 0000           2418 	.byte	0,0
                        2419 
                        2420 	.section	.debug_info
                        2421 .LDW_40c7068:
000000c3 25             2422 	.byte	37
000000c4 756e7369676e   2423 	.strz	"unsigned short"
000000ca 65642073686f 
000000d0 727400 
000000d3 07             2424 	.byte	7
000000d4 02             2425 	.byte	2
                        2426 
                        2427 .LDW_4d00508:
000000d5 2b             2428 	.byte	43
000000d6 00000000*      2429 	.word	.LDW_4d004b0
                        2430 
                        2431 	.section	.debug_abbrev
00000042 2b             2432 	.byte	43
00000043 35             2433 	.byte	53
00000044 00             2434 	.byte	0
00000045 4910           2435 	.byte	73,16
00000047 0000           2436 	.byte	0,0
                        2437 
                        2438 	.section	.debug_info
                        2439 .LDW_40c7030:
000000da 2f             2440 	.byte	47
000000db 00000000*      2441 	.word	.LDW_4d00560
                        2442 
                        2443 .LDW_40c6e38:
000000df 45             2444 	.byte	69
000000e0 01             2445 	.byte	1
                        2446 
                        2447 	.section	.debug_abbrev
00000049 45             2448 	.byte	69
0000004a 15             2449 	.byte	21
0000004b 01             2450 	.byte	1
0000004c 270c           2451 	.byte	39,12
0000004e 0000           2452 	.byte	0,0
                        2453 
                        2454 	.section	.debug_info
                        2455 .LDW_40c1be0:
000000e1 12             2456 	.byte	18
000000e2 00000000*      2457 	.word	.LDW_40c7030
000000e6 00             2458 	.byte	0
                        2459 
000000e7 00             2460 	.byte	0
                        2461 
                        2462 .LDW_40c6d20:
000000e8 2f             2463 	.byte	47
000000e9 00000000*      2464 	.word	.LDW_4d15818

                                                                      Page 48
                                                              C:\Users\nhuliyap\AppData\Local\Temp\gh_0000da81.s
                        2465 
                        2466 .LDW_40c6f50:
000000ed 44             2467 	.byte	68
000000ee 00000000*      2468 	.word	.LDW_4dcdb10
000000f2 01             2469 	.byte	1
                        2470 
                        2471 .LDW_40c1a90:
000000f3 12             2472 	.byte	18
000000f4 00000000*      2473 	.word	.LDW_40c6d20
000000f8 00             2474 	.byte	0
                        2475 
000000f9 00             2476 	.byte	0
                        2477 
                        2478 .LDW_40c6f88:
000000fa 44             2479 	.byte	68
000000fb 00000000*      2480 	.word	.LDW_4dcdb10
000000ff 01             2481 	.byte	1
                        2482 
00000100 00             2483 	.byte	0
                        2484 
                        2485 .LDW_40c7110:
00000101 44             2486 	.byte	68
00000102 00000000*      2487 	.word	.LDW_4dcdb10
00000106 01             2488 	.byte	1
                        2489 
                        2490 .LDW_40c1bb0:
00000107 12             2491 	.byte	18
00000108 00000000*      2492 	.word	.LDW_40c6d20
0000010c 00             2493 	.byte	0
                        2494 
0000010d 00             2495 	.byte	0
                        2496 
                        2497 .LDW_40c71f0:
0000010e 44             2498 	.byte	68
0000010f 00000000*      2499 	.word	.LDW_4dcdb10
00000113 01             2500 	.byte	1
                        2501 
                        2502 .LDW_4107228:
00000114 12             2503 	.byte	18
00000115 00000000*      2504 	.word	.LDW_40c6d20
00000119 00             2505 	.byte	0
                        2506 
0000011a 00             2507 	.byte	0
                        2508 
                        2509 .LDW_40c7298:
0000011b 44             2510 	.byte	68
0000011c 00000000*      2511 	.word	.LDW_4dcdb10
00000120 01             2512 	.byte	1
                        2513 
                        2514 .LDW_4107168:
00000121 12             2515 	.byte	18
00000122 00000000*      2516 	.word	.LDW_40c6d20
00000126 00             2517 	.byte	0
                        2518 
00000127 00             2519 	.byte	0
                        2520 
                        2521 .LDW_40c7228:
00000128 44             2522 	.byte	68
00000129 00000000*      2523 	.word	.LDW_4dcdb10
0000012d 01             2524 	.byte	1
                        2525 

                                                                      Page 49
                                                              C:\Users\nhuliyap\AppData\Local\Temp\gh_0000da81.s
                        2526 .LDW_4107318:
0000012e 12             2527 	.byte	18
0000012f 00000000*      2528 	.word	.LDW_40c6d20
00000133 00             2529 	.byte	0
                        2530 
00000134 00             2531 	.byte	0
                        2532 
                        2533 .LDW_40c6c08:
00000135 44             2534 	.byte	68
00000136 00000000*      2535 	.word	.LDW_4dcdb10
0000013a 01             2536 	.byte	1
                        2537 
                        2538 .LDW_4107558:
0000013b 12             2539 	.byte	18
0000013c 00000000*      2540 	.word	.LDW_40c6d20
00000140 00             2541 	.byte	0
                        2542 
00000141 00             2543 	.byte	0
                        2544 
                        2545 .LDW_40c7260:
00000142 45             2546 	.byte	69
00000143 01             2547 	.byte	1
                        2548 
00000144 00             2549 	.byte	0
                        2550 
                        2551 .LDW_40c6fc0:
00000145 25             2552 	.byte	37
00000146 756e7369676e   2553 	.strz	"unsigned char"
0000014c 656420636861 
00000152 7200 
00000154 08             2554 	.byte	8
00000155 01             2555 	.byte	1
                        2556 
                        2557 .LDW_4e66ef8:
00000156 29             2558 	.byte	41
00000157 00000000*      2559 	.word	.LDW_4e66df0
                        2560 
                        2561 .LDW_40c6bd0:
0000015b 2f             2562 	.byte	47
0000015c 00000000*      2563 	.word	.LDW_4e66ef8
                        2564 
                        2565 .LDW_40c6c78:
00000160 44             2566 	.byte	68
00000161 00000000*      2567 	.word	.LDW_40c6bd0
00000165 01             2568 	.byte	1
                        2569 
00000166 00             2570 	.byte	0
                        2571 
                        2572 .LDW_40c6d58:
00000167 25             2573 	.byte	37
00000168 696e7400       2574 	.strz	"int"
0000016c 05             2575 	.byte	5
0000016d 04             2576 	.byte	4
                        2577 
                        2578 .LDW_4d00b78:
0000016e 3a             2579 	.byte	58
0000016f 00             2580 	.byte	0
00000170 13             2581 	.byte	19
00000171 00000000*      2582 	.word	.LDW_4e66ef8
                        2583 
                        2584 	.section	.debug_abbrev

                                                                      Page 50
                                                              C:\Users\nhuliyap\AppData\Local\Temp\gh_0000da81.s
00000050 3a             2585 	.byte	58
00000051 01             2586 	.byte	1
00000052 01             2587 	.byte	1
00000053 090b           2588 	.byte	9,11
00000055 0b0f           2589 	.byte	11,15
00000057 4910           2590 	.byte	73,16
00000059 0000           2591 	.byte	0,0
                        2592 
                        2593 	.section	.debug_info
00000175 32             2594 	.byte	50
00000176 00000000*      2595 	.word	.LDW_40c6d58
0000017a 04             2596 	.byte	4
0000017b 00             2597 	.byte	0
0000017c 12             2598 	.byte	18
                        2599 
                        2600 	.section	.debug_abbrev
0000005b 32             2601 	.byte	50
0000005c 21             2602 	.byte	33
0000005d 00             2603 	.byte	0
0000005e 4910           2604 	.byte	73,16
00000060 0b0f           2605 	.byte	11,15
00000062 220d           2606 	.byte	34,13
00000064 2f0d           2607 	.byte	47,13
00000066 0000           2608 	.byte	0,0
                        2609 
                        2610 	.section	.debug_info
0000017d 00             2611 	.byte	0
                        2612 
                        2613 .LDW_40c6d90:
0000017e 44             2614 	.byte	68
0000017f 00000000*      2615 	.word	.LDW_4d15818
00000183 01             2616 	.byte	1
                        2617 
00000184 00             2618 	.byte	0
                        2619 
                        2620 .LDW_40c6dc8:
00000185 44             2621 	.byte	68
00000186 00000000*      2622 	.word	.LDW_4d15818
0000018a 01             2623 	.byte	1
                        2624 
0000018b 00             2625 	.byte	0
                        2626 
                        2627 .LDW_40c72d0:
0000018c 44             2628 	.byte	68
0000018d 00000000*      2629 	.word	.LDW_4d15818
00000191 01             2630 	.byte	1
                        2631 
00000192 00             2632 	.byte	0
                        2633 
                        2634 .LDW_40c7340:
00000193 44             2635 	.byte	68
00000194 00000000*      2636 	.word	.LDW_4d15818
00000198 01             2637 	.byte	1
                        2638 
00000199 00             2639 	.byte	0
                        2640 
                        2641 .LDW_40c7308:
0000019a 44             2642 	.byte	68
0000019b 00000000*      2643 	.word	.LDW_4d15818
0000019f 01             2644 	.byte	1
                        2645 

                                                                      Page 51
                                                              C:\Users\nhuliyap\AppData\Local\Temp\gh_0000da81.s
000001a0 00             2646 	.byte	0
                        2647 
                        2648 .LDW_4107e88:
000001a1 44             2649 	.byte	68
000001a2 00000000*      2650 	.word	.LDW_4dcdb10
000001a6 01             2651 	.byte	1
                        2652 
                        2653 .LDW_4107288:
000001a7 12             2654 	.byte	18
000001a8 00000000*      2655 	.word	.LDW_40c7030
000001ac 00             2656 	.byte	0
                        2657 
                        2658 .LDW_4107438:
000001ad 12             2659 	.byte	18
000001ae 00000000*      2660 	.word	.LDW_40c6d20
000001b2 00             2661 	.byte	0
                        2662 
                        2663 .LDW_41076a8:
000001b3 12             2664 	.byte	18
000001b4 00000000*      2665 	.word	.LDW_4dcdb10
000001b8 00             2666 	.byte	0
                        2667 
000001b9 00             2668 	.byte	0
                        2669 
                        2670 .LDW_4107fa0:
000001ba 45             2671 	.byte	69
000001bb 01             2672 	.byte	1
                        2673 
                        2674 .LDW_4107498:
000001bc 12             2675 	.byte	18
000001bd 00000000*      2676 	.word	.LDW_4d15818
000001c1 00             2677 	.byte	0
                        2678 
000001c2 00             2679 	.byte	0
                        2680 
                        2681 .LDW_4107e50:
000001c3 44             2682 	.byte	68
000001c4 00000000*      2683 	.word	.LDW_4dcdb10
000001c8 01             2684 	.byte	1
                        2685 
000001c9 00             2686 	.byte	0
                        2687 
                        2688 .LDW_4107d00:
000001ca 25             2689 	.byte	37
000001cb 756e7369676e   2690 	.strz	"unsigned int"
000001d1 656420696e74 
000001d7 00 
000001d8 07             2691 	.byte	7
000001d9 04             2692 	.byte	4
                        2693 
                        2694 .LDW_4108818:
000001da 2f             2695 	.byte	47
000001db 00000000*      2696 	.word	.LDW_4d15ac0
                        2697 
                        2698 .LDW_4e9da98:
000001df 25             2699 	.byte	37
000001e0 6368617200     2700 	.strz	"char"
000001e5 06             2701 	.byte	6
000001e6 01             2702 	.byte	1
                        2703 
                        2704 .LDW_4eaac90:

                                                                      Page 52
                                                              C:\Users\nhuliyap\AppData\Local\Temp\gh_0000da81.s
000001e7 44             2705 	.byte	68
000001e8 00000000*      2706 	.word	.LDW_4d15818
000001ec 01             2707 	.byte	1
                        2708 
000001ed 00             2709 	.byte	0
                        2710 
                        2711 .LDW_4eaa8a0:
000001ee 44             2712 	.byte	68
000001ef 00000000*      2713 	.word	.LDW_4dcdb10
000001f3 01             2714 	.byte	1
                        2715 
000001f4 00             2716 	.byte	0
                        2717 
                        2718 .LDW_4eaa948:
000001f5 44             2719 	.byte	68
000001f6 00000000*      2720 	.word	.LDW_4dcdb10
000001fa 01             2721 	.byte	1
                        2722 
000001fb 00             2723 	.byte	0
                        2724 
                        2725 .LDW_4eaad38:
000001fc 44             2726 	.byte	68
000001fd 00000000*      2727 	.word	.LDW_4dcdb10
00000201 01             2728 	.byte	1
                        2729 
                        2730 .LDW_4ea7d40:
00000202 12             2731 	.byte	18
00000203 00000000*      2732 	.word	.LDW_4dcd5e8
00000207 00             2733 	.byte	0
                        2734 
00000208 00             2735 	.byte	0
                        2736 
                        2737 .LDW_4eaade0:
00000209 45             2738 	.byte	69
0000020a 01             2739 	.byte	1
                        2740 
0000020b 00             2741 	.byte	0
                        2742 
                        2743 .LDW_4eaa8d8:
0000020c 44             2744 	.byte	68
0000020d 00000000*      2745 	.word	.LDW_4d15818
00000211 01             2746 	.byte	1
                        2747 
00000212 00             2748 	.byte	0
                        2749 
                        2750 .LDW_4eaa910:
00000213 45             2751 	.byte	69
00000214 01             2752 	.byte	1
                        2753 
00000215 00             2754 	.byte	0
                        2755 
                        2756 .LDW_4e9f280:
00000216 2b             2757 	.byte	43
00000217 00000000*      2758 	.word	.LDW_4d15ac0
                        2759 
                        2760 .LDW_4eaaa28:
0000021b 2f             2761 	.byte	47
0000021c 00000000*      2762 	.word	.LDW_4e9f280
                        2763 
                        2764 .LDW_4eaa9f0:
00000220 44             2765 	.byte	68

                                                                      Page 53
                                                              C:\Users\nhuliyap\AppData\Local\Temp\gh_0000da81.s
00000221 00000000*      2766 	.word	.LDW_4d15818
00000225 01             2767 	.byte	1
                        2768 
                        2769 .LDW_4ea7d70:
00000226 12             2770 	.byte	18
00000227 00000000*      2771 	.word	.LDW_4eaaa28
0000022b 00             2772 	.byte	0
                        2773 
                        2774 .LDW_4ea7da0:
0000022c 12             2775 	.byte	18
0000022d 00000000*      2776 	.word	.LDW_4d15ac0
00000231 00             2777 	.byte	0
                        2778 
                        2779 .LDW_4ea7dd0:
00000232 12             2780 	.byte	18
00000233 00000000*      2781 	.word	.LDW_4d15ac0
00000237 00             2782 	.byte	0
                        2783 
00000238 00             2784 	.byte	0
                        2785 
                        2786 .LDW_4eaaa98:
00000239 44             2787 	.byte	68
0000023a 00000000*      2788 	.word	.LDW_4dcdb10
0000023e 01             2789 	.byte	1
                        2790 
0000023f 00             2791 	.byte	0
                        2792 
                        2793 .LDW_4eab400:
00000240 45             2794 	.byte	69
00000241 01             2795 	.byte	1
                        2796 
00000242 00             2797 	.byte	0
                        2798 
                        2799 .LDW_4eab3c8:
00000243 44             2800 	.byte	68
00000244 00000000*      2801 	.word	.LDW_4d15818
00000248 01             2802 	.byte	1
                        2803 
00000249 00             2804 	.byte	0
                        2805 
                        2806 .LDW_4eab080:
0000024a 44             2807 	.byte	68
0000024b 00000000*      2808 	.word	.LDW_4d15ac0
0000024f 01             2809 	.byte	1
                        2810 
00000250 00             2811 	.byte	0
                        2812 
                        2813 .LDW_4eab358:
00000251 44             2814 	.byte	68
00000252 00000000*      2815 	.word	.LDW_4d15818
00000256 01             2816 	.byte	1
                        2817 
                        2818 .LDW_4ea7e30:
00000257 12             2819 	.byte	18
00000258 00000000*      2820 	.word	.LDW_4d15ac0
0000025c 00             2821 	.byte	0
                        2822 
                        2823 .LDW_4ea7ec0:
0000025d 12             2824 	.byte	18
0000025e 00000000*      2825 	.word	.LDW_4d15ac0
00000262 00             2826 	.byte	0

                                                                      Page 54
                                                              C:\Users\nhuliyap\AppData\Local\Temp\gh_0000da81.s
                        2827 
                        2828 .LDW_4ea7e90:
00000263 12             2829 	.byte	18
00000264 00000000*      2830 	.word	.LDW_4e66df0
00000268 00             2831 	.byte	0
                        2832 
                        2833 .LDW_4ea7f80:
00000269 12             2834 	.byte	18
0000026a 00000000*      2835 	.word	.LDW_4e66608
0000026e 00             2836 	.byte	0
                        2837 
0000026f 00             2838 	.byte	0
                        2839 
                        2840 .LDW_4eab2b0:
00000270 44             2841 	.byte	68
00000271 00000000*      2842 	.word	.LDW_4d15818
00000275 01             2843 	.byte	1
                        2844 
                        2845 .LDW_4ea7fb0:
00000276 12             2846 	.byte	18
00000277 00000000*      2847 	.word	.LDW_4d15ac0
0000027b 00             2848 	.byte	0
                        2849 
                        2850 .LDW_4ea7fe0:
0000027c 12             2851 	.byte	18
0000027d 00000000*      2852 	.word	.LDW_4d15ac0
00000281 00             2853 	.byte	0
                        2854 
                        2855 .LDW_4ea7080:
00000282 12             2856 	.byte	18
00000283 00000000*      2857 	.word	.LDW_4d15ac0
00000287 00             2858 	.byte	0
                        2859 
                        2860 .LDW_4ea7440:
00000288 12             2861 	.byte	18
00000289 00000000*      2862 	.word	.LDW_4e66608
0000028d 00             2863 	.byte	0
                        2864 
0000028e 00             2865 	.byte	0
                        2866 
                        2867 .LDW_4eab320:
0000028f 45             2868 	.byte	69
00000290 01             2869 	.byte	1
                        2870 
00000291 00             2871 	.byte	0
                        2872 
                        2873 .LDW_4eab2e8:
00000292 44             2874 	.byte	68
00000293 00000000*      2875 	.word	.LDW_4d15818
00000297 01             2876 	.byte	1
                        2877 
                        2878 .LDW_4ea72f0:
00000298 12             2879 	.byte	18
00000299 00000000*      2880 	.word	.LDW_4d00400
0000029d 00             2881 	.byte	0
                        2882 
0000029e 00             2883 	.byte	0
                        2884 
                        2885 .LDW_4eab630:
0000029f 44             2886 	.byte	68
000002a0 00000000*      2887 	.word	.LDW_4d15818

                                                                      Page 55
                                                              C:\Users\nhuliyap\AppData\Local\Temp\gh_0000da81.s
000002a4 01             2888 	.byte	1
                        2889 
000002a5 00             2890 	.byte	0
                        2891 
                        2892 .LDW_4eab390:
000002a6 44             2893 	.byte	68
000002a7 00000000*      2894 	.word	.LDW_4d15818
000002ab 01             2895 	.byte	1
                        2896 
                        2897 .LDW_4ea7260:
000002ac 12             2898 	.byte	18
000002ad 00000000*      2899 	.word	.LDW_4d15ac0
000002b1 00             2900 	.byte	0
                        2901 
                        2902 .LDW_4ea70b0:
000002b2 12             2903 	.byte	18
000002b3 00000000*      2904 	.word	.LDW_4d15ac0
000002b7 00             2905 	.byte	0
                        2906 
                        2907 .LDW_4ea7320:
000002b8 12             2908 	.byte	18
000002b9 00000000*      2909 	.word	.LDW_4e66608
000002bd 00             2910 	.byte	0
                        2911 
                        2912 .LDW_4ea7290:
000002be 12             2913 	.byte	18
000002bf 00000000*      2914 	.word	.LDW_4d15ac0
000002c3 00             2915 	.byte	0
                        2916 
000002c4 00             2917 	.byte	0
                        2918 
                        2919 .LDW_4eab438:
000002c5 45             2920 	.byte	69
000002c6 01             2921 	.byte	1
                        2922 
                        2923 .LDW_4ea7350:
000002c7 12             2924 	.byte	18
000002c8 00000000*      2925 	.word	.LDW_4d15ac0
000002cc 00             2926 	.byte	0
                        2927 
                        2928 .LDW_4ea7170:
000002cd 12             2929 	.byte	18
000002ce 00000000*      2930 	.word	.LDW_4e66df0
000002d2 00             2931 	.byte	0
                        2932 
000002d3 00             2933 	.byte	0
                        2934 
                        2935 .LDW_4eab470:
000002d4 45             2936 	.byte	69
000002d5 01             2937 	.byte	1
                        2938 
                        2939 .LDW_4ea7380:
000002d6 12             2940 	.byte	18
000002d7 00000000*      2941 	.word	.LDW_4108818
000002db 00             2942 	.byte	0
                        2943 
                        2944 .LDW_4ea7050:
000002dc 12             2945 	.byte	18
000002dd 00000000*      2946 	.word	.LDW_4d15ac0
000002e1 00             2947 	.byte	0
                        2948 

                                                                      Page 56
                                                              C:\Users\nhuliyap\AppData\Local\Temp\gh_0000da81.s
000002e2 00             2949 	.byte	0
                        2950 
                        2951 .LDW_4eaaf68:
000002e3 45             2952 	.byte	69
000002e4 01             2953 	.byte	1
                        2954 
000002e5 00             2955 	.byte	0
                        2956 
                        2957 .LDW_4eab4a8:
000002e6 44             2958 	.byte	68
000002e7 00000000*      2959 	.word	.LDW_4d15818
000002eb 01             2960 	.byte	1
                        2961 
000002ec 00             2962 	.byte	0
                        2963 
                        2964 .LDW_4e66df0:
000002ed 28             2965 	.byte	40
000002ee 75696e74385f   2966 	.strz	"uint8_t"
000002f4 7400 
000002f6 15             2967 	.byte	21
000002f7 18             2968 	.byte	24
000002f8 09             2969 	.byte	9
000002f9 00000000*      2970 	.word	.LDW_40c6fc0
                        2971 
                        2972 	.section	.debug_abbrev
00000068 28             2973 	.byte	40
00000069 16             2974 	.byte	22
0000006a 00             2975 	.byte	0
0000006b 0308           2976 	.byte	3,8
0000006d 3b0f           2977 	.byte	59,15
0000006f 390f           2978 	.byte	57,15
00000071 3a0f           2979 	.byte	58,15
00000073 4910           2980 	.byte	73,16
00000075 0000           2981 	.byte	0,0
                        2982 
                        2983 	.section	.debug_info
                        2984 .LDW_4d00400:
000002fd 28             2985 	.byte	40
000002fe 75696e743136   2986 	.strz	"uint16_t"
00000304 5f7400 
00000307 16             2987 	.byte	22
00000308 18             2988 	.byte	24
00000309 09             2989 	.byte	9
0000030a 00000000*      2990 	.word	.LDW_40c7068
                        2991 
                        2992 .LDW_4d15ac0:
0000030e 28             2993 	.byte	40
0000030f 75696e743332   2994 	.strz	"uint32_t"
00000315 5f7400 
00000318 17             2995 	.byte	23
00000319 18             2996 	.byte	24
0000031a 09             2997 	.byte	9
0000031b 00000000*      2998 	.word	.LDW_40c7148
                        2999 
                        3000 .LDW_4d15870:
0000031f 40             3001 	.byte	64
00000320 525f46444c5f   3002 	.strz	"R_FDL_DESCRIPTOR_T"
00000326 444553435249 
0000032c 50544f525f54 
00000332 00 
00000333 16             3003 	.byte	22

                                                                      Page 57
                                                              C:\Users\nhuliyap\AppData\Local\Temp\gh_0000da81.s
00000334 10             3004 	.byte	16
00000335 13             3005 	.byte	19
00000336 08             3006 	.byte	8
00000337 01             3007 	.byte	1
                        3008 
                        3009 	.section	.debug_abbrev
00000077 40             3010 	.byte	64
00000078 13             3011 	.byte	19
00000079 01             3012 	.byte	1
0000007a 0308           3013 	.byte	3,8
0000007c 3b0f           3014 	.byte	59,15
0000007e 390f           3015 	.byte	57,15
00000080 3a0f           3016 	.byte	58,15
00000082 0b0f           3017 	.byte	11,15
00000084 320b           3018 	.byte	50,11
00000086 0000           3019 	.byte	0,0
                        3020 
                        3021 	.section	.debug_info
                        3022 .LDW_4e9a3d8:
00000338 23             3023 	.byte	35
00000339 637075467265   3024 	.strz	"cpuFrequencyMHz_u16"
0000033f 7175656e6379 
00000345 4d487a5f7531 
0000034b 3600 
0000034d 18             3025 	.byte	24
0000034e 10             3026 	.byte	16
0000034f 13             3027 	.byte	19
00000350 00000000*      3028 	.word	.LDW_4d00400
00000354 0223           3029 	.byte	2,35
00000356 00             3030 	.byte	0
00000357 01             3031 	.byte	1
                        3032 
                        3033 	.section	.debug_abbrev
00000088 23             3034 	.byte	35
00000089 0d             3035 	.byte	13
0000008a 00             3036 	.byte	0
0000008b 0308           3037 	.byte	3,8
0000008d 3b0f           3038 	.byte	59,15
0000008f 390f           3039 	.byte	57,15
00000091 3a0f           3040 	.byte	58,15
00000093 4910           3041 	.byte	73,16
00000095 380a           3042 	.byte	56,10
00000097 320b           3043 	.byte	50,11
00000099 0000           3044 	.byte	0,0
                        3045 
                        3046 	.section	.debug_info
                        3047 .LDW_4e9a390:
00000358 23             3048 	.byte	35
00000359 66646c506f6f   3049 	.strz	"fdlPoolSize_u16"
0000035f 6c53697a655f 
00000365 75313600 
00000369 19             3050 	.byte	25
0000036a 10             3051 	.byte	16
0000036b 13             3052 	.byte	19
0000036c 00000000*      3053 	.word	.LDW_4d00400
00000370 0223           3054 	.byte	2,35
00000372 02             3055 	.byte	2
00000373 01             3056 	.byte	1
                        3057 
                        3058 .LDW_4e9a468:
00000374 23             3059 	.byte	35

                                                                      Page 58
                                                              C:\Users\nhuliyap\AppData\Local\Temp\gh_0000da81.s
00000375 65656c506f6f   3060 	.strz	"eelPoolStart_u16"
0000037b 6c5374617274 
00000381 5f75313600 
00000386 1a             3061 	.byte	26
00000387 10             3062 	.byte	16
00000388 13             3063 	.byte	19
00000389 00000000*      3064 	.word	.LDW_4d00400
0000038d 0223           3065 	.byte	2,35
0000038f 04             3066 	.byte	4
00000390 01             3067 	.byte	1
                        3068 
                        3069 .LDW_4e99e38:
00000391 23             3070 	.byte	35
00000392 65656c506f6f   3071 	.strz	"eelPoolSize_u16"
00000398 6c53697a655f 
0000039e 75313600 
000003a2 1b             3072 	.byte	27
000003a3 10             3073 	.byte	16
000003a4 13             3074 	.byte	19
000003a5 00000000*      3075 	.word	.LDW_4d00400
000003a9 0223           3076 	.byte	2,35
000003ab 06             3077 	.byte	6
000003ac 01             3078 	.byte	1
                        3079 
000003ad 00             3080 	.byte	0
                        3081 
                        3082 .LDW_4d158c8:
000003ae 28             3083 	.byte	40
000003af 725f66646c5f   3084 	.strz	"r_fdl_descriptor_t"
000003b5 646573637269 
000003bb 70746f725f74 
000003c1 00 
000003c2 1c             3085 	.byte	28
000003c3 02             3086 	.byte	2
000003c4 13             3087 	.byte	19
000003c5 00000000*      3088 	.word	.LDW_4d15870
                        3089 
                        3090 .LDW_40dbab0:
000003c9 2e             3091 	.byte	46
000003ca 525f46444c5f   3092 	.strz	"R_FDL_STATUS_T"
000003d0 535441545553 
000003d6 5f5400 
000003d9 1e             3093 	.byte	30
000003da 0e             3094 	.byte	14
000003db 13             3095 	.byte	19
000003dc 01             3096 	.byte	1
000003dd 01             3097 	.byte	1
                        3098 
                        3099 	.section	.debug_abbrev
0000009b 2e             3100 	.byte	46
0000009c 04             3101 	.byte	4
0000009d 01             3102 	.byte	1
0000009e 0308           3103 	.byte	3,8
000000a0 3b0f           3104 	.byte	59,15
000000a2 390f           3105 	.byte	57,15
000000a4 3a0f           3106 	.byte	58,15
000000a6 0b0f           3107 	.byte	11,15
000000a8 320b           3108 	.byte	50,11
000000aa 0000           3109 	.byte	0,0
                        3110 
                        3111 	.section	.debug_info

                                                                      Page 59
                                                              C:\Users\nhuliyap\AppData\Local\Temp\gh_0000da81.s
                        3112 .LDW_40dbb00:
000003de 2d             3113 	.byte	45
000003df 525f46444c5f   3114 	.strz	"R_FDL_OK"
000003e5 4f4b00 
000003e8 20             3115 	.byte	32
000003e9 05             3116 	.byte	5
000003ea 13             3117 	.byte	19
000003eb 00             3118 	.byte	0
                        3119 
                        3120 	.section	.debug_abbrev
000000ac 2d             3121 	.byte	45
000000ad 28             3122 	.byte	40
000000ae 00             3123 	.byte	0
000000af 0308           3124 	.byte	3,8
000000b1 3b0f           3125 	.byte	59,15
000000b3 390f           3126 	.byte	57,15
000000b5 3a0f           3127 	.byte	58,15
000000b7 1c0d           3128 	.byte	28,13
000000b9 0000           3129 	.byte	0,0
                        3130 
                        3131 	.section	.debug_info
                        3132 .LDW_40dbb40:
000003ec 2d             3133 	.byte	45
000003ed 525f46444c5f   3134 	.strz	"R_FDL_BUSY"
000003f3 4255535900 
000003f8 21             3135 	.byte	33
000003f9 08             3136 	.byte	8
000003fa 13             3137 	.byte	19
000003fb 01             3138 	.byte	1
                        3139 
                        3140 .LDW_40dbb80:
000003fc 2d             3141 	.byte	45
000003fd 525f46444c5f   3142 	.strz	"R_FDL_SUSPENDED"
00000403 53555350454e 
00000409 44454400 
0000040d 22             3143 	.byte	34
0000040e 08             3144 	.byte	8
0000040f 13             3145 	.byte	19
00000410 02             3146 	.byte	2
                        3147 
                        3148 .LDW_40dbbc0:
00000411 2d             3149 	.byte	45
00000412 525f46444c5f   3150 	.strz	"R_FDL_ERR_CONFIGURATION"
00000418 4552525f434f 
0000041e 4e4649475552 
00000424 4154494f4e00 
0000042a 23             3151 	.byte	35
0000042b 08             3152 	.byte	8
0000042c 13             3153 	.byte	19
0000042d 03             3154 	.byte	3
                        3155 
                        3156 .LDW_40dbc00:
0000042e 2d             3157 	.byte	45
0000042f 525f46444c5f   3158 	.strz	"R_FDL_ERR_PARAMETER"
00000435 4552525f5041 
0000043b 52414d455445 
00000441 5200 
00000443 24             3159 	.byte	36
00000444 08             3160 	.byte	8
00000445 13             3161 	.byte	19
00000446 04             3162 	.byte	4

                                                                      Page 60
                                                              C:\Users\nhuliyap\AppData\Local\Temp\gh_0000da81.s
                        3163 
                        3164 .LDW_40dbc40:
00000447 2d             3165 	.byte	45
00000448 525f46444c5f   3166 	.strz	"R_FDL_ERR_PROTECTION"
0000044e 4552525f5052 
00000454 4f5445435449 
0000045a 4f4e00 
0000045d 25             3167 	.byte	37
0000045e 08             3168 	.byte	8
0000045f 13             3169 	.byte	19
00000460 05             3170 	.byte	5
                        3171 
                        3172 .LDW_4d15758:
00000461 2d             3173 	.byte	45
00000462 525f46444c5f   3174 	.strz	"R_FDL_ERR_REJECTED"
00000468 4552525f5245 
0000046e 4a4543544544 
00000474 00 
00000475 26             3175 	.byte	38
00000476 08             3176 	.byte	8
00000477 13             3177 	.byte	19
00000478 06             3178 	.byte	6
                        3179 
                        3180 .LDW_4d15798:
00000479 2d             3181 	.byte	45
0000047a 525f46444c5f   3182 	.strz	"R_FDL_ERR_WRITE"
00000480 4552525f5752 
00000486 49544500 
0000048a 27             3183 	.byte	39
0000048b 08             3184 	.byte	8
0000048c 13             3185 	.byte	19
0000048d 07             3186 	.byte	7
                        3187 
                        3188 .LDW_4d157d8:
0000048e 2d             3189 	.byte	45
0000048f 525f46444c5f   3190 	.strz	"R_FDL_ERR_ERASE"
00000495 4552525f4552 
0000049b 41534500 
0000049f 28             3191 	.byte	40
000004a0 08             3192 	.byte	8
000004a1 13             3193 	.byte	19
000004a2 08             3194 	.byte	8
                        3195 
                        3196 .LDW_4cfffe0:
000004a3 2d             3197 	.byte	45
000004a4 525f46444c5f   3198 	.strz	"R_FDL_ERR_BLANKCHECK"
000004aa 4552525f424c 
000004b0 414e4b434845 
000004b6 434b00 
000004b9 29             3199 	.byte	41
000004ba 08             3200 	.byte	8
000004bb 13             3201 	.byte	19
000004bc 09             3202 	.byte	9
                        3203 
                        3204 .LDW_4cffea0:
000004bd 2d             3205 	.byte	45
000004be 525f46444c5f   3206 	.strz	"R_FDL_ERR_COMMAND"
000004c4 4552525f434f 
000004ca 4d4d414e4400 
000004d0 2a             3207 	.byte	42
000004d1 08             3208 	.byte	8

                                                                      Page 61
                                                              C:\Users\nhuliyap\AppData\Local\Temp\gh_0000da81.s
000004d2 13             3209 	.byte	19
000004d3 0a             3210 	.byte	10
                        3211 
                        3212 .LDW_4d002e0:
000004d4 2d             3213 	.byte	45
000004d5 525f46444c5f   3214 	.strz	"R_FDL_ERR_ECC_SED"
000004db 4552525f4543 
000004e1 435f53454400 
000004e7 2b             3215 	.byte	43
000004e8 08             3216 	.byte	8
000004e9 13             3217 	.byte	19
000004ea 0b             3218 	.byte	11
                        3219 
                        3220 .LDW_4cffc20:
000004eb 2d             3221 	.byte	45
000004ec 525f46444c5f   3222 	.strz	"R_FDL_ERR_ECC_DED"
000004f2 4552525f4543 
000004f8 435f44454400 
000004fe 2c             3223 	.byte	44
000004ff 08             3224 	.byte	8
00000500 13             3225 	.byte	19
00000501 0c             3226 	.byte	12
                        3227 
                        3228 .LDW_4d00020:
00000502 2d             3229 	.byte	45
00000503 525f46444c5f   3230 	.strz	"R_FDL_ERR_INTERNAL"
00000509 4552525f494e 
0000050f 5445524e414c 
00000515 00 
00000516 2d             3231 	.byte	45
00000517 08             3232 	.byte	8
00000518 13             3233 	.byte	19
00000519 0d             3234 	.byte	13
                        3235 
                        3236 .LDW_4d00320:
0000051a 2d             3237 	.byte	45
0000051b 525f46444c5f   3238 	.strz	"R_FDL_CANCELLED"
00000521 43414e43454c 
00000527 4c454400 
0000052b 2e             3239 	.byte	46
0000052c 08             3240 	.byte	8
0000052d 13             3241 	.byte	19
0000052e 0e             3242 	.byte	14
                        3243 
0000052f 00             3244 	.byte	0
                        3245 
                        3246 .LDW_4d15818:
00000530 28             3247 	.byte	40
00000531 725f66646c5f   3248 	.strz	"r_fdl_status_t"
00000537 737461747573 
0000053d 5f7400 
00000540 2f             3249 	.byte	47
00000541 02             3250 	.byte	2
00000542 13             3251 	.byte	19
00000543 00000000*      3252 	.word	.LDW_40dbab0
                        3253 
                        3254 .LDW_4dcdf60:
00000547 2e             3255 	.byte	46
00000548 525f46444c5f   3256 	.strz	"R_FDL_ACCESS_TYPE_T"
0000054e 414343455353 
00000554 5f545950455f 

                                                                      Page 62
                                                              C:\Users\nhuliyap\AppData\Local\Temp\gh_0000da81.s
0000055a 5400 
0000055c 31             3257 	.byte	49
0000055d 0e             3258 	.byte	14
0000055e 13             3259 	.byte	19
0000055f 01             3260 	.byte	1
00000560 01             3261 	.byte	1
                        3262 
                        3263 .LDW_4d000a0:
00000561 2d             3264 	.byte	45
00000562 525f46444c5f   3265 	.strz	"R_FDL_ACCESS_NONE"
00000568 414343455353 
0000056e 5f4e4f4e4500 
00000574 33             3266 	.byte	51
00000575 05             3267 	.byte	5
00000576 13             3268 	.byte	19
00000577 00             3269 	.byte	0
                        3270 
                        3271 .LDW_4cffca0:
00000578 2d             3272 	.byte	45
00000579 525f46444c5f   3273 	.strz	"R_FDL_ACCESS_USER"
0000057f 414343455353 
00000585 5f5553455200 
0000058b 34             3274 	.byte	52
0000058c 08             3275 	.byte	8
0000058d 13             3276 	.byte	19
0000058e 01             3277 	.byte	1
                        3278 
                        3279 .LDW_4d000e0:
0000058f 2d             3280 	.byte	45
00000590 525f46444c5f   3281 	.strz	"R_FDL_ACCESS_EEL"
00000596 414343455353 
0000059c 5f45454c00 
000005a1 35             3282 	.byte	53
000005a2 08             3283 	.byte	8
000005a3 13             3284 	.byte	19
000005a4 02             3285 	.byte	2
                        3286 
000005a5 00             3287 	.byte	0
                        3288 
                        3289 .LDW_4e66608:
000005a6 28             3290 	.byte	40
000005a7 725f66646c5f   3291 	.strz	"r_fdl_accessType_t"
000005ad 616363657373 
000005b3 547970655f74 
000005b9 00 
000005ba 36             3292 	.byte	54
000005bb 02             3293 	.byte	2
000005bc 13             3294 	.byte	19
000005bd 00000000*      3295 	.word	.LDW_4dcdf60
                        3296 
                        3297 .LDW_4d00a90:
000005c1 2e             3298 	.byte	46
000005c2 525f46444c5f   3299 	.strz	"R_FDL_COMMAND_T"
000005c8 434f4d4d414e 
000005ce 445f5400 
000005d2 38             3300 	.byte	56
000005d3 0e             3301 	.byte	14
000005d4 13             3302 	.byte	19
000005d5 01             3303 	.byte	1
000005d6 01             3304 	.byte	1
                        3305 

                                                                      Page 63
                                                              C:\Users\nhuliyap\AppData\Local\Temp\gh_0000da81.s
                        3306 .LDW_4cfff20:
000005d7 2d             3307 	.byte	45
000005d8 525f46444c5f   3308 	.strz	"R_FDL_CMD_ERASE"
000005de 434d445f4552 
000005e4 41534500 
000005e8 3a             3309 	.byte	58
000005e9 05             3310 	.byte	5
000005ea 13             3311 	.byte	19
000005eb 00             3312 	.byte	0
                        3313 
                        3314 .LDW_4d00060:
000005ec 2d             3315 	.byte	45
000005ed 525f46444c5f   3316 	.strz	"R_FDL_CMD_WRITE"
000005f3 434d445f5752 
000005f9 49544500 
000005fd 3b             3317 	.byte	59
000005fe 08             3318 	.byte	8
000005ff 13             3319 	.byte	19
00000600 01             3320 	.byte	1
                        3321 
                        3322 .LDW_4d003a0:
00000601 2d             3323 	.byte	45
00000602 525f46444c5f   3324 	.strz	"R_FDL_CMD_BLANKCHECK"
00000608 434d445f424c 
0000060e 414e4b434845 
00000614 434b00 
00000617 3c             3325 	.byte	60
00000618 08             3326 	.byte	8
00000619 13             3327 	.byte	19
0000061a 02             3328 	.byte	2
                        3329 
                        3330 .LDW_4cfffa0:
0000061b 2d             3331 	.byte	45
0000061c 525f46444c5f   3332 	.strz	"R_FDL_CMD_READ"
00000622 434d445f5245 
00000628 414400 
0000062b 3d             3333 	.byte	61
0000062c 08             3334 	.byte	8
0000062d 13             3335 	.byte	19
0000062e 03             3336 	.byte	3
                        3337 
                        3338 .LDW_4cffc60:
0000062f 2d             3339 	.byte	45
00000630 525f46444c5f   3340 	.strz	"R_FDL_CMD_PREPARE_ENV"
00000636 434d445f5052 
0000063c 45504152455f 
00000642 454e5600 
00000646 41             3341 	.byte	65
00000647 05             3342 	.byte	5
00000648 13             3343 	.byte	19
00000649 05             3344 	.byte	5
                        3345 
0000064a 00             3346 	.byte	0
                        3347 
                        3348 .LDW_4dcd5e8:
0000064b 28             3349 	.byte	40
0000064c 725f66646c5f   3350 	.strz	"r_fdl_command_t"
00000652 636f6d6d616e 
00000658 645f7400 
0000065c 42             3351 	.byte	66
0000065d 02             3352 	.byte	2

                                                                      Page 64
                                                              C:\Users\nhuliyap\AppData\Local\Temp\gh_0000da81.s
0000065e 13             3353 	.byte	19
0000065f 00000000*      3354 	.word	.LDW_4d00a90
                        3355 
                        3356 .LDW_4d004b0:
00000663 40             3357 	.byte	64
00000664 525f46444c5f   3358 	.strz	"R_FDL_REQUEST_T"
0000066a 524551554553 
00000670 545f5400 
00000674 44             3359 	.byte	68
00000675 19             3360 	.byte	25
00000676 13             3361 	.byte	19
00000677 10             3362 	.byte	16
00000678 01             3363 	.byte	1
                        3364 
                        3365 .LDW_4e9a228:
00000679 23             3366 	.byte	35
0000067a 636f6d6d616e   3367 	.strz	"command_enu"
00000680 645f656e7500 
00000686 46             3368 	.byte	70
00000687 19             3369 	.byte	25
00000688 13             3370 	.byte	19
00000689 00000000*      3371 	.word	.LDW_4dcd5e8
0000068d 0223           3372 	.byte	2,35
0000068f 00             3373 	.byte	0
00000690 01             3374 	.byte	1
                        3375 
                        3376 .LDW_4e99e80:
00000691 23             3377 	.byte	35
00000692 627566416464   3378 	.strz	"bufAddr_u32"
00000698 725f75333200 
0000069e 47             3379 	.byte	71
0000069f 18             3380 	.byte	24
000006a0 13             3381 	.byte	19
000006a1 00000000*      3382 	.word	.LDW_4d15ac0
000006a5 0223           3383 	.byte	2,35
000006a7 04             3384 	.byte	4
000006a8 01             3385 	.byte	1
                        3386 
                        3387 .LDW_4e9a150:
000006a9 23             3388 	.byte	35
000006aa 6964785f7533   3389 	.strz	"idx_u32"
000006b0 3200 
000006b2 48             3390 	.byte	72
000006b3 18             3391 	.byte	24
000006b4 13             3392 	.byte	19
000006b5 00000000*      3393 	.word	.LDW_4d15ac0
000006b9 0223           3394 	.byte	2,35
000006bb 08             3395 	.byte	8
000006bc 01             3396 	.byte	1
                        3397 
                        3398 .LDW_4e99ec8:
000006bd 23             3399 	.byte	35
000006be 636e745f7531   3400 	.strz	"cnt_u16"
000006c4 3600 
000006c6 49             3401 	.byte	73
000006c7 18             3402 	.byte	24
000006c8 13             3403 	.byte	19
000006c9 00000000*      3404 	.word	.LDW_4d00400
000006cd 0223           3405 	.byte	2,35
000006cf 0c             3406 	.byte	12
000006d0 01             3407 	.byte	1

                                                                      Page 65
                                                              C:\Users\nhuliyap\AppData\Local\Temp\gh_0000da81.s
                        3408 
                        3409 .LDW_4e9a2b8:
000006d1 23             3410 	.byte	35
000006d2 616363657373   3411 	.strz	"accessType_enu"
000006d8 547970655f65 
000006de 6e7500 
000006e1 4a             3412 	.byte	74
000006e2 19             3413 	.byte	25
000006e3 13             3414 	.byte	19
000006e4 00000000*      3415 	.word	.LDW_4e66608
000006e8 0223           3416 	.byte	2,35
000006ea 0e             3417 	.byte	14
000006eb 01             3418 	.byte	1
                        3419 
                        3420 .LDW_4e99f10:
000006ec 23             3421 	.byte	35
000006ed 737461747573   3422 	.strz	"status_enu"
000006f3 5f656e7500 
000006f8 4b             3423 	.byte	75
000006f9 19             3424 	.byte	25
000006fa 13             3425 	.byte	19
000006fb 00000000*      3426 	.word	.LDW_4d15818
000006ff 0223           3427 	.byte	2,35
00000701 0f             3428 	.byte	15
00000702 01             3429 	.byte	1
                        3430 
00000703 00             3431 	.byte	0
                        3432 
                        3433 .LDW_4d00560:
00000704 28             3434 	.byte	40
00000705 725f66646c5f   3435 	.strz	"r_fdl_request_t"
0000070b 726571756573 
00000711 745f7400 
00000715 4c             3436 	.byte	76
00000716 02             3437 	.byte	2
00000717 13             3438 	.byte	19
00000718 00000000*      3439 	.word	.LDW_4d00508
                        3440 
                        3441 .LDW_4d15bc8:
0000071c 2e             3442 	.byte	46
0000071d 525f46444c5f   3443 	.strz	"R_FDL_FLAG_T"
00000723 464c41475f54 
00000729 00 
0000072a 0f             3444 	.byte	15
0000072b 0e             3445 	.byte	14
0000072c 07             3446 	.byte	7
0000072d 01             3447 	.byte	1
0000072e 01             3448 	.byte	1
                        3449 
                        3450 .LDW_4d00360:
0000072f 2d             3451 	.byte	45
00000730 525f46444c5f   3452 	.strz	"R_FDL_FALSE"
00000736 46414c534500 
0000073c 11             3453 	.byte	17
0000073d 05             3454 	.byte	5
0000073e 07             3455 	.byte	7
0000073f 00             3456 	.byte	0
                        3457 
                        3458 .LDW_4d001e0:
00000740 2d             3459 	.byte	45
00000741 525f46444c5f   3460 	.strz	"R_FDL_TRUE"

                                                                      Page 66
                                                              C:\Users\nhuliyap\AppData\Local\Temp\gh_0000da81.s
00000747 5452554500 
0000074c 12             3461 	.byte	18
0000074d 08             3462 	.byte	8
0000074e 07             3463 	.byte	7
0000074f 01             3464 	.byte	1
                        3465 
00000750 00             3466 	.byte	0
                        3467 
                        3468 .LDW_4dcdb10:
00000751 28             3469 	.byte	40
00000752 725f66646c5f   3470 	.strz	"r_fdl_flag_t"
00000758 666c61675f74 
0000075e 00 
0000075f 13             3471 	.byte	19
00000760 02             3472 	.byte	2
00000761 07             3473 	.byte	7
00000762 00000000*      3474 	.word	.LDW_4d15bc8
                        3475 
                        3476 .LDW_4ed23b0:
00000766 2e             3477 	.byte	46
00000767 525f46444c5f   3478 	.strz	"R_FDL_INT_STATUS_T"
0000076d 494e545f5354 
00000773 415455535f54 
00000779 00 
0000077a 15             3479 	.byte	21
0000077b 0e             3480 	.byte	14
0000077c 07             3481 	.byte	7
0000077d 04             3482 	.byte	4
0000077e 01             3483 	.byte	1
                        3484 
                        3485 .LDW_4ed0708:
0000077f 2d             3486 	.byte	45
00000780 525f46444c5f   3487 	.strz	"R_FDL_ISTAT_NOINIT"
00000786 49535441545f 
0000078c 4e4f494e4954 
00000792 00 
00000793 17             3488 	.byte	23
00000794 05             3489 	.byte	5
00000795 07             3490 	.byte	7
00000796 00             3491 	.byte	0
                        3492 
                        3493 .LDW_4ed05c8:
00000797 2d             3494 	.byte	45
00000798 525f46444c5f   3495 	.strz	"R_FDL_ISTAT_INIT"
0000079e 49535441545f 
000007a4 494e495400 
000007a9 18             3496 	.byte	24
000007aa 08             3497 	.byte	8
000007ab 07             3498 	.byte	7
000007ac d4aad5aa05     3499 	.byte	212,170,213,170,5
                        3500 
                        3501 .LDW_4ed0108:
000007b1 2d             3502 	.byte	45
000007b2 525f46444c5f   3503 	.strz	"R_FDL_ISTAT_NORMALOP"
000007b8 49535441545f 
000007be 4e4f524d414c 
000007c4 4f5000 
000007c7 19             3504 	.byte	25
000007c8 08             3505 	.byte	8
000007c9 07             3506 	.byte	7
000007ca d5aad5aa05     3507 	.byte	213,170,213,170,5

                                                                      Page 67
                                                              C:\Users\nhuliyap\AppData\Local\Temp\gh_0000da81.s
                        3508 
                        3509 .LDW_4ed0608:
000007cf 2d             3510 	.byte	45
000007d0 525f46444c5f   3511 	.strz	"R_FDL_ISTAT_SUSPEND_PR"
000007d6 49535441545f 
000007dc 53555350454e 
000007e2 445f505200 
000007e7 1a             3512 	.byte	26
000007e8 08             3513 	.byte	8
000007e9 07             3514 	.byte	7
000007ea d6aad5aa05     3515 	.byte	214,170,213,170,5
                        3516 
                        3517 .LDW_4ed03c8:
000007ef 2d             3518 	.byte	45
000007f0 525f46444c5f   3519 	.strz	"R_FDL_ISTAT_SUSPENDED"
000007f6 49535441545f 
000007fc 53555350454e 
00000802 44454400 
00000806 1b             3520 	.byte	27
00000807 08             3521 	.byte	8
00000808 07             3522 	.byte	7
00000809 d7aad5aa05     3523 	.byte	215,170,213,170,5
                        3524 
                        3525 .LDW_4ed0488:
0000080e 2d             3526 	.byte	45
0000080f 525f46444c5f   3527 	.strz	"R_FDL_ISTAT_STANDBY_PR"
00000815 49535441545f 
0000081b 5354414e4442 
00000821 595f505200 
00000826 1c             3528 	.byte	28
00000827 08             3529 	.byte	8
00000828 07             3530 	.byte	7
00000829 d8aad5aa05     3531 	.byte	216,170,213,170,5
                        3532 
                        3533 .LDW_4ed0748:
0000082e 2d             3534 	.byte	45
0000082f 525f46444c5f   3535 	.strz	"R_FDL_ISTAT_STANDBY"
00000835 49535441545f 
0000083b 5354414e4442 
00000841 5900 
00000843 1d             3536 	.byte	29
00000844 08             3537 	.byte	8
00000845 07             3538 	.byte	7
00000846 d9aad5aa05     3539 	.byte	217,170,213,170,5
                        3540 
0000084b 00             3541 	.byte	0
                        3542 
                        3543 .LDW_4e9c550:
0000084c 28             3544 	.byte	40
0000084d 725f66646c5f   3545 	.strz	"r_fdl_int_status_t"
00000853 696e745f7374 
00000859 617475735f74 
0000085f 00 
00000860 1e             3546 	.byte	30
00000861 02             3547 	.byte	2
00000862 07             3548 	.byte	7
00000863 00000000*      3549 	.word	.LDW_4ed23b0
                        3550 
                        3551 .LDW_4ed2720:
00000867 2e             3552 	.byte	46
00000868 525f46444c5f   3553 	.strz	"R_FDL_OP_STATUS_T"

                                                                      Page 68
                                                              C:\Users\nhuliyap\AppData\Local\Temp\gh_0000da81.s
0000086e 4f505f535441 
00000874 5455535f5400 
0000087a 22             3554 	.byte	34
0000087b 0e             3555 	.byte	14
0000087c 07             3556 	.byte	7
0000087d 01             3557 	.byte	1
0000087e 01             3558 	.byte	1
                        3559 
                        3560 .LDW_4ed0648:
0000087f 2d             3561 	.byte	45
00000880 525f46444c5f   3562 	.strz	"R_FDL_OP_IDLE"
00000886 4f505f49444c 
0000088c 4500 
0000088e 24             3563 	.byte	36
0000088f 05             3564 	.byte	5
00000890 07             3565 	.byte	7
00000891 00             3566 	.byte	0
                        3567 
                        3568 .LDW_4ed01c8:
00000892 2d             3569 	.byte	45
00000893 525f46444c5f   3570 	.strz	"R_FDL_OP_EXECUTE_SYNC_ON"
00000899 4f505f455845 
0000089f 435554455f53 
000008a5 594e435f4f4e 
000008ab 00 
000008ac 25             3571 	.byte	37
000008ad 08             3572 	.byte	8
000008ae 07             3573 	.byte	7
000008af 01             3574 	.byte	1
                        3575 
                        3576 .LDW_4ed0248:
000008b0 2d             3577 	.byte	45
000008b1 525f46444c5f   3578 	.strz	"R_FDL_OP_PREPARE_START"
000008b7 4f505f505245 
000008bd 504152455f53 
000008c3 5441525400 
000008c8 26             3579 	.byte	38
000008c9 08             3580 	.byte	8
000008ca 07             3581 	.byte	7
000008cb 02             3582 	.byte	2
                        3583 
                        3584 .LDW_4ed0408:
000008cc 2d             3585 	.byte	45
000008cd 525f46444c5f   3586 	.strz	"R_FDL_OP_PREPARE_RST_FCU"
000008d3 4f505f505245 
000008d9 504152455f52 
000008df 53545f464355 
000008e5 00 
000008e6 27             3587 	.byte	39
000008e7 08             3588 	.byte	8
000008e8 07             3589 	.byte	7
000008e9 03             3590 	.byte	3
                        3591 
                        3592 .LDW_4ed0288:
000008ea 2d             3593 	.byte	45
000008eb 525f46444c5f   3594 	.strz	"R_FDL_OP_PREPARE_END"
000008f1 4f505f505245 
000008f7 504152455f45 
000008fd 4e4400 
00000900 28             3595 	.byte	40
00000901 08             3596 	.byte	8

                                                                      Page 69
                                                              C:\Users\nhuliyap\AppData\Local\Temp\gh_0000da81.s
00000902 07             3597 	.byte	7
00000903 04             3598 	.byte	4
                        3599 
                        3600 .LDW_4ed0788:
00000904 2d             3601 	.byte	45
00000905 525f46444c5f   3602 	.strz	"R_FDL_OP_RESUME_SYNC_ON"
0000090b 4f505f524553 
00000911 554d455f5359 
00000917 4e435f4f4e00 
0000091d 29             3603 	.byte	41
0000091e 08             3604 	.byte	8
0000091f 07             3605 	.byte	7
00000920 05             3606 	.byte	5
                        3607 
                        3608 .LDW_4ed07c8:
00000921 2d             3609 	.byte	45
00000922 525f46444c5f   3610 	.strz	"R_FDL_OP_RESUME_MULTI_SYNC_ON"
00000928 4f505f524553 
0000092e 554d455f4d55 
00000934 4c54495f5359 
0000093a 4e435f4f4e00 
00000940 2a             3611 	.byte	42
00000941 08             3612 	.byte	8
00000942 07             3613 	.byte	7
00000943 06             3614 	.byte	6
                        3615 
                        3616 .LDW_4ed0848:
00000944 2d             3617 	.byte	45
00000945 525f46444c5f   3618 	.strz	"R_FDL_OP_BUSY"
0000094b 4f505f425553 
00000951 5900 
00000953 2b             3619 	.byte	43
00000954 08             3620 	.byte	8
00000955 07             3621 	.byte	7
00000956 07             3622 	.byte	7
                        3623 
                        3624 .LDW_4ed0808:
00000957 2d             3625 	.byte	45
00000958 525f46444c5f   3626 	.strz	"R_FDL_OP_SUSPEND_SYNC_OFF"
0000095e 4f505f535553 
00000964 50454e445f53 
0000096a 594e435f4f46 
00000970 4600 
00000972 2c             3627 	.byte	44
00000973 08             3628 	.byte	8
00000974 07             3629 	.byte	7
00000975 08             3630 	.byte	8
                        3631 
                        3632 .LDW_4ed0308:
00000976 2d             3633 	.byte	45
00000977 525f46444c5f   3634 	.strz	"R_FDL_OP_END_SYNC_OFF"
0000097d 4f505f454e44 
00000983 5f53594e435f 
00000989 4f464600 
0000098d 2d             3635 	.byte	45
0000098e 08             3636 	.byte	8
0000098f 07             3637 	.byte	7
00000990 09             3638 	.byte	9
                        3639 
00000991 00             3640 	.byte	0
                        3641 

                                                                      Page 70
                                                              C:\Users\nhuliyap\AppData\Local\Temp\gh_0000da81.s
                        3642 .LDW_4e9c5a8:
00000992 28             3643 	.byte	40
00000993 725f66646c5f   3644 	.strz	"r_fdl_op_status_t"
00000999 6f705f737461 
0000099f 7475735f7400 
000009a5 2e             3645 	.byte	46
000009a6 02             3646 	.byte	2
000009a7 07             3647 	.byte	7
000009a8 00000000*      3648 	.word	.LDW_4ed2720
                        3649 
                        3650 .LDW_4e9cf48:
000009ac 40             3651 	.byte	64
000009ad 525f46444c5f   3652 	.strz	"R_FDL_MULTIOP_T"
000009b3 4d554c54494f 
000009b9 505f5400 
000009bd 30             3653 	.byte	48
000009be 10             3654 	.byte	16
000009bf 07             3655 	.byte	7
000009c0 10             3656 	.byte	16
000009c1 01             3657 	.byte	1
                        3658 
                        3659 .LDW_4e9b350:
000009c2 23             3660 	.byte	35
000009c3 666c61736841   3661 	.strz	"flashAdd_u32"
000009c9 64645f753332 
000009cf 00 
000009d0 32             3662 	.byte	50
000009d1 18             3663 	.byte	24
000009d2 07             3664 	.byte	7
000009d3 00000000*      3665 	.word	.LDW_4d15ac0
000009d7 0223           3666 	.byte	2,35
000009d9 00             3667 	.byte	0
000009da 01             3668 	.byte	1
                        3669 
                        3670 .LDW_4e9aff0:
000009db 23             3671 	.byte	35
000009dc 627566416464   3672 	.strz	"bufAdd_u32"
000009e2 5f75333200 
000009e7 33             3673 	.byte	51
000009e8 18             3674 	.byte	24
000009e9 07             3675 	.byte	7
000009ea 00000000*      3676 	.word	.LDW_4d15ac0
000009ee 0223           3677 	.byte	2,35
000009f0 04             3678 	.byte	4
000009f1 01             3679 	.byte	1
                        3680 
                        3681 .LDW_4e9b3e0:
000009f2 23             3682 	.byte	35
000009f3 666c61736841   3683 	.strz	"flashAddEnd_u32"
000009f9 6464456e645f 
000009ff 75333200 
00000a03 34             3684 	.byte	52
00000a04 18             3685 	.byte	24
00000a05 07             3686 	.byte	7
00000a06 00000000*      3687 	.word	.LDW_4d15ac0
00000a0a 0223           3688 	.byte	2,35
00000a0c 08             3689 	.byte	8
00000a0d 01             3690 	.byte	1
                        3691 
                        3692 .LDW_4e9ae88:
00000a0e 23             3693 	.byte	35

                                                                      Page 71
                                                              C:\Users\nhuliyap\AppData\Local\Temp\gh_0000da81.s
00000a0f 616363657373   3694 	.strz	"accessType_enu"
00000a15 547970655f65 
00000a1b 6e7500 
00000a1e 35             3695 	.byte	53
00000a1f 19             3696 	.byte	25
00000a20 07             3697 	.byte	7
00000a21 00000000*      3698 	.word	.LDW_4e66608
00000a25 0223           3699 	.byte	2,35
00000a27 0c             3700 	.byte	12
00000a28 01             3701 	.byte	1
                        3702 
00000a29 00             3703 	.byte	0
                        3704 
                        3705 .LDW_4e9cc88:
00000a2a 28             3706 	.byte	40
00000a2b 725f66646c5f   3707 	.strz	"r_fdl_multiOp_t"
00000a31 6d756c74694f 
00000a37 705f7400 
00000a3b 36             3708 	.byte	54
00000a3c 02             3709 	.byte	2
00000a3d 07             3710 	.byte	7
00000a3e 00000000*      3711 	.word	.LDW_4e9cf48
                        3712 
                        3713 .LDW_4e9cce0:
00000a42 40             3714 	.byte	64
00000a43 525f46444c5f   3715 	.strz	"R_FDL_DATA_T"
00000a49 444154415f54 
00000a4f 00 
00000a50 38             3716 	.byte	56
00000a51 10             3717 	.byte	16
00000a52 07             3718 	.byte	7
00000a53 54             3719 	.byte	84
00000a54 01             3720 	.byte	1
                        3721 
                        3722 .LDW_4e9b230:
00000a55 23             3723 	.byte	35
00000a56 52544366675f   3724 	.strz	"RTCfg_pstr"
00000a5c 7073747200 
00000a61 3a             3725 	.byte	58
00000a62 20             3726 	.byte	32
00000a63 07             3727 	.byte	7
00000a64 00000000*      3728 	.word	.LDW_40c70d8
00000a68 0223           3729 	.byte	2,35
00000a6a 00             3730 	.byte	0
00000a6b 01             3731 	.byte	1
                        3732 
                        3733 .LDW_4e9afa8:
00000a6c 23             3734 	.byte	35
00000a6d 6d756c4f705f   3735 	.strz	"mulOp_str"
00000a73 73747200 
00000a77 3b             3736 	.byte	59
00000a78 19             3737 	.byte	25
00000a79 07             3738 	.byte	7
00000a7a 00000000*      3739 	.word	.LDW_4e9cc88
00000a7e 0223           3740 	.byte	2,35
00000a80 04             3741 	.byte	4
00000a81 01             3742 	.byte	1
                        3743 
                        3744 .LDW_4e9b278:
00000a82 23             3745 	.byte	35
00000a83 7370644d756c   3746 	.strz	"spdMulOp_str"

                                                                      Page 72
                                                              C:\Users\nhuliyap\AppData\Local\Temp\gh_0000da81.s
00000a89 4f705f737472 
00000a8f 00 
00000a90 3c             3747 	.byte	60
00000a91 19             3748 	.byte	25
00000a92 07             3749 	.byte	7
00000a93 00000000*      3750 	.word	.LDW_4e9cc88
00000a97 0223           3751 	.byte	2,35
00000a99 14             3752 	.byte	20
00000a9a 01             3753 	.byte	1
                        3754 
                        3755 .LDW_4e9b038:
00000a9b 23             3756 	.byte	35
00000a9c 726571537573   3757 	.strz	"reqSuspend_pstr"
00000aa2 70656e645f70 
00000aa8 73747200 
00000aac 3d             3758 	.byte	61
00000aad 19             3759 	.byte	25
00000aae 07             3760 	.byte	7
00000aaf 00000000*      3761 	.word	.LDW_40c7030
00000ab3 0223           3762 	.byte	2,35
00000ab5 24             3763 	.byte	36
00000ab6 01             3764 	.byte	1
                        3765 
                        3766 .LDW_4e9af60:
00000ab7 23             3767 	.byte	35
00000ab8 726571496e74   3768 	.strz	"reqInt_pstr"
00000abe 5f7073747200 
00000ac4 3e             3769 	.byte	62
00000ac5 19             3770 	.byte	25
00000ac6 07             3771 	.byte	7
00000ac7 00000000*      3772 	.word	.LDW_40c7030
00000acb 0223           3773 	.byte	2,35
00000acd 28             3774 	.byte	40
00000ace 01             3775 	.byte	1
                        3776 
                        3777 .LDW_4e9e660:
00000acf 23             3778 	.byte	35
00000ad0 6f7053746174   3779 	.strz	"opStatus_enu"
00000ad6 75735f656e75 
00000adc 00 
00000add 3f             3780 	.byte	63
00000ade 19             3781 	.byte	25
00000adf 07             3782 	.byte	7
00000ae0 00000000*      3783 	.word	.LDW_4e9c5a8
00000ae4 0223           3784 	.byte	2,35
00000ae6 2c             3785 	.byte	44
00000ae7 01             3786 	.byte	1
                        3787 
                        3788 .LDW_4e9e738:
00000ae8 23             3789 	.byte	35
00000ae9 6f704661696c   3790 	.strz	"opFailAddr_u32"
00000aef 416464725f75 
00000af5 333200 
00000af8 40             3791 	.byte	64
00000af9 18             3792 	.byte	24
00000afa 07             3793 	.byte	7
00000afb 00000000*      3794 	.word	.LDW_4d15ac0
00000aff 0223           3795 	.byte	2,35
00000b01 30             3796 	.byte	48
00000b02 01             3797 	.byte	1
                        3798 

                                                                      Page 73
                                                              C:\Users\nhuliyap\AppData\Local\Temp\gh_0000da81.s
                        3799 .LDW_4e9e9c0:
00000b03 23             3800 	.byte	35
00000b04 646653697a65   3801 	.strz	"dfSize_u32"
00000b0a 5f75333200 
00000b0f 41             3802 	.byte	65
00000b10 18             3803 	.byte	24
00000b11 07             3804 	.byte	7
00000b12 00000000*      3805 	.word	.LDW_4d15ac0
00000b16 0223           3806 	.byte	2,35
00000b18 34             3807 	.byte	52
00000b19 01             3808 	.byte	1
                        3809 
                        3810 .LDW_4e9ec00:
00000b1a 23             3811 	.byte	35
00000b1b 626173654164   3812 	.strz	"baseAddrECC_u32"
00000b21 64724543435f 
00000b27 75333200 
00000b2b 42             3813 	.byte	66
00000b2c 18             3814 	.byte	24
00000b2d 07             3815 	.byte	7
00000b2e 00000000*      3816 	.word	.LDW_4d15ac0
00000b32 0223           3817 	.byte	2,35
00000b34 38             3818 	.byte	56
00000b35 01             3819 	.byte	1
                        3820 
                        3821 .LDW_4e9e810:
00000b36 23             3822 	.byte	35
00000b37 63686b73756d   3823 	.strz	"chksumEndAddr_u32"
00000b3d 456e64416464 
00000b43 725f75333200 
00000b49 43             3824 	.byte	67
00000b4a 18             3825 	.byte	24
00000b4b 07             3826 	.byte	7
00000b4c 00000000*      3827 	.word	.LDW_4d15ac0
00000b50 0223           3828 	.byte	2,35
00000b52 3c             3829 	.byte	60
00000b53 01             3830 	.byte	1
                        3831 
                        3832 .LDW_4e9e6a8:
00000b54 23             3833 	.byte	35
00000b55 63686b73756d   3834 	.strz	"chksumVal_u32"
00000b5b 56616c5f7533 
00000b61 3200 
00000b63 44             3835 	.byte	68
00000b64 18             3836 	.byte	24
00000b65 07             3837 	.byte	7
00000b66 00000000*      3838 	.word	.LDW_4d15ac0
00000b6a 0223           3839 	.byte	2,35
00000b6c 40             3840 	.byte	64
00000b6d 01             3841 	.byte	1
                        3842 
                        3843 .LDW_4e9eb28:
00000b6e 23             3844 	.byte	35
00000b6f 666c6173684d   3845 	.strz	"flashMode_u16"
00000b75 6f64655f7531 
00000b7b 3600 
00000b7d 45             3846 	.byte	69
00000b7e 18             3847 	.byte	24
00000b7f 07             3848 	.byte	7
00000b80 00000000*      3849 	.word	.LDW_4d00400
00000b84 0223           3850 	.byte	2,35

                                                                      Page 74
                                                              C:\Users\nhuliyap\AppData\Local\Temp\gh_0000da81.s
00000b86 44             3851 	.byte	68
00000b87 01             3852 	.byte	1
                        3853 
                        3854 .LDW_4e9e978:
00000b88 23             3855 	.byte	35
00000b89 737064526573   3856 	.strz	"spdResStatus_enu"
00000b8f 537461747573 
00000b95 5f656e7500 
00000b9a 46             3857 	.byte	70
00000b9b 19             3858 	.byte	25
00000b9c 07             3859 	.byte	7
00000b9d 00000000*      3860 	.word	.LDW_4d15818
00000ba1 0223           3861 	.byte	2,35
00000ba3 46             3862 	.byte	70
00000ba4 01             3863 	.byte	1
                        3864 
                        3865 .LDW_4e9ea50:
00000ba5 23             3866 	.byte	35
00000ba6 6f7052657375   3867 	.strz	"opResult_enu"
00000bac 6c745f656e75 
00000bb2 00 
00000bb3 47             3868 	.byte	71
00000bb4 19             3869 	.byte	25
00000bb5 07             3870 	.byte	7
00000bb6 00000000*      3871 	.word	.LDW_4d15818
00000bba 0223           3872 	.byte	2,35
00000bbc 47             3873 	.byte	71
00000bbd 01             3874 	.byte	1
                        3875 
                        3876 .LDW_4e9eb70:
00000bbe 23             3877 	.byte	35
00000bbf 63616e63656c   3878 	.strz	"cancelRequest_enu"
00000bc5 526571756573 
00000bcb 745f656e7500 
00000bd1 48             3879 	.byte	72
00000bd2 19             3880 	.byte	25
00000bd3 07             3881 	.byte	7
00000bd4 00000000*      3882 	.word	.LDW_4dcdb10
00000bd8 0223           3883 	.byte	2,35
00000bda 48             3884 	.byte	72
00000bdb 01             3885 	.byte	1
                        3886 
                        3887 .LDW_4e9ea98:
00000bdc 23             3888 	.byte	35
00000bdd 737064537064   3889 	.strz	"spdSpdRequest_enu"
00000be3 526571756573 
00000be9 745f656e7500 
00000bef 49             3890 	.byte	73
00000bf0 19             3891 	.byte	25
00000bf1 07             3892 	.byte	7
00000bf2 00000000*      3893 	.word	.LDW_4dcdb10
00000bf6 0223           3894 	.byte	2,35
00000bf8 49             3895 	.byte	73
00000bf9 01             3896 	.byte	1
                        3897 
                        3898 .LDW_4e9ea08:
00000bfa 23             3899 	.byte	35
00000bfb 737064526573   3900 	.strz	"spdResRequest_enu"
00000c01 526571756573 
00000c07 745f656e7500 
00000c0d 4a             3901 	.byte	74

                                                                      Page 75
                                                              C:\Users\nhuliyap\AppData\Local\Temp\gh_0000da81.s
00000c0e 19             3902 	.byte	25
00000c0f 07             3903 	.byte	7
00000c10 00000000*      3904 	.word	.LDW_4dcdb10
00000c14 0223           3905 	.byte	2,35
00000c16 4a             3906 	.byte	74
00000c17 01             3907 	.byte	1
                        3908 
                        3909 .LDW_4e9e6f0:
00000c18 23             3910 	.byte	35
00000c19 737442794953   3911 	.strz	"stByIStatBackUp_enu"
00000c1f 746174426163 
00000c25 6b55705f656e 
00000c2b 7500 
00000c2d 4b             3912 	.byte	75
00000c2e 19             3913 	.byte	25
00000c2f 07             3914 	.byte	7
00000c30 00000000*      3915 	.word	.LDW_4e9c550
00000c34 0223           3916 	.byte	2,35
00000c36 4c             3917 	.byte	76
00000c37 01             3918 	.byte	1
                        3919 
                        3920 .LDW_4e9e780:
00000c38 23             3921 	.byte	35
00000c39 69537461745f   3922 	.strz	"iStat_enu"
00000c3f 656e7500 
00000c43 4c             3923 	.byte	76
00000c44 19             3924 	.byte	25
00000c45 07             3925 	.byte	7
00000c46 00000000*      3926 	.word	.LDW_4e9c550
00000c4a 0223           3927 	.byte	2,35
00000c4c 50             3928 	.byte	80
00000c4d 01             3929 	.byte	1
                        3930 
00000c4e 00             3931 	.byte	0
                        3932 
                        3933 .LDW_4e9ce98:
00000c4f 28             3934 	.byte	40
00000c50 725f66646c5f   3935 	.strz	"r_fdl_data_t"
00000c56 646174615f74 
00000c5c 00 
00000c5d 4d             3936 	.byte	77
00000c5e 02             3937 	.byte	2
00000c5f 07             3938 	.byte	7
00000c60 00000000*      3939 	.word	.LDW_4e9cce0
                        3940 
                        3941 .LDW_4e9f800:
00000c64 04             3942 	.byte	4
00000c65 675f66646c5f   3943 	.strz	"g_fdl_str"
00000c6b 73747200 
00000c6f 21             3944 	.byte	33
00000c70 1b             3945 	.byte	27
00000c71 01             3946 	.byte	1
00000c72 00000000*      3947 	.word	.LDW_4e9ce98
00000c76 01             3948 	.byte	1
00000c77 00             3949 	.byte	0
00000c78 0503           3950 	.byte	5,3
00000c7a 00000000*      3951 	.word	_g_fdl_str
                        3952 
                        3953 	.section	.debug_abbrev
000000bb 04             3954 	.byte	4
000000bc 34             3955 	.byte	52

                                                                      Page 76
                                                              C:\Users\nhuliyap\AppData\Local\Temp\gh_0000da81.s
000000bd 00             3956 	.byte	0
000000be 0308           3957 	.byte	3,8
000000c0 3b0f           3958 	.byte	59,15
000000c2 390f           3959 	.byte	57,15
000000c4 3a0f           3960 	.byte	58,15
000000c6 4910           3961 	.byte	73,16
000000c8 3f0c           3962 	.byte	63,12
000000ca 3c0c           3963 	.byte	60,12
000000cc 020a           3964 	.byte	2,10
000000ce 0000           3965 	.byte	0,0
                        3966 
                        3967 	.section	.debug_info
                        3968 .LDW_4ea8db8:
00000c7e 16             3969 	.byte	22
00000c7f 525f46444c5f   3970 	.strz	"R_FDL_FCUFct_CheckFatalError"
00000c85 464355466374 
00000c8b 5f436865636b 
00000c91 466174616c45 
00000c97 72726f7200 
00000c9c 53             3971 	.byte	83
00000c9d 11             3972 	.byte	17
00000c9e 07             3973 	.byte	7
00000c9f 00000000*      3974 	.word	.LDW_4d15818
00000ca3 01             3975 	.byte	1
00000ca4 00             3976 	.byte	0
00000ca5 01             3977 	.byte	1
00000ca6 01             3978 	.byte	1
00000ca7 00             3979 	.byte	0
00000ca8 01             3980 	.byte	1
                        3981 
                        3982 	.section	.debug_abbrev
000000d0 16             3983 	.byte	22
000000d1 2e             3984 	.byte	46
000000d2 01             3985 	.byte	1
000000d3 0308           3986 	.byte	3,8
000000d5 3b0f           3987 	.byte	59,15
000000d7 390f           3988 	.byte	57,15
000000d9 3a0f           3989 	.byte	58,15
000000db 4910           3990 	.byte	73,16
000000dd 3c0c           3991 	.byte	60,12
000000df 200b           3992 	.byte	32,11
000000e1 3f0c           3993 	.byte	63,12
000000e3 320b           3994 	.byte	50,11
000000e5 4c0b           3995 	.byte	76,11
000000e7 270c           3996 	.byte	39,12
000000e9 0000           3997 	.byte	0,0
                        3998 
                        3999 	.section	.debug_info
00000ca9 00             4000 	.byte	0
                        4001 
                        4002 .LDW_4ea8f80:
00000caa 16             4003 	.byte	22
00000cab 525f46444c5f   4004 	.strz	"R_FDL_FCUFct_ChkReady"
00000cb1 464355466374 
00000cb7 5f43686b5265 
00000cbd 61647900 
00000cc1 54             4005 	.byte	84
00000cc2 11             4006 	.byte	17
00000cc3 07             4007 	.byte	7
00000cc4 00000000*      4008 	.word	.LDW_4dcdb10
00000cc8 01             4009 	.byte	1

                                                                      Page 77
                                                              C:\Users\nhuliyap\AppData\Local\Temp\gh_0000da81.s
00000cc9 00             4010 	.byte	0
00000cca 01             4011 	.byte	1
00000ccb 01             4012 	.byte	1
00000ccc 00             4013 	.byte	0
00000ccd 01             4014 	.byte	1
                        4015 
00000cce 00             4016 	.byte	0
                        4017 
                        4018 .LDW_4ea8ac0:
00000ccf 16             4019 	.byte	22
00000cd0 525f46444c5f   4020 	.strz	"R_FDL_FCUFct_ChkSuspendable"
00000cd6 464355466374 
00000cdc 5f43686b5375 
00000ce2 7370656e6461 
00000ce8 626c6500 
00000cec 55             4021 	.byte	85
00000ced 11             4022 	.byte	17
00000cee 07             4023 	.byte	7
00000cef 00000000*      4024 	.word	.LDW_4dcdb10
00000cf3 01             4025 	.byte	1
00000cf4 00             4026 	.byte	0
00000cf5 01             4027 	.byte	1
00000cf6 01             4028 	.byte	1
00000cf7 00             4029 	.byte	0
00000cf8 01             4030 	.byte	1
                        4031 
00000cf9 00             4032 	.byte	0
                        4033 
                        4034 .LDW_4ea8e50:
00000cfa 16             4035 	.byte	22
00000cfb 525f46444c5f   4036 	.strz	"R_FDL_FCUFct_ChkStartable"
00000d01 464355466374 
00000d07 5f43686b5374 
00000d0d 61727461626c 
00000d13 6500 
00000d15 56             4037 	.byte	86
00000d16 11             4038 	.byte	17
00000d17 07             4039 	.byte	7
00000d18 00000000*      4040 	.word	.LDW_4dcdb10
00000d1c 01             4041 	.byte	1
00000d1d 00             4042 	.byte	0
00000d1e 01             4043 	.byte	1
00000d1f 01             4044 	.byte	1
00000d20 00             4045 	.byte	0
00000d21 01             4046 	.byte	1
                        4047 
00000d22 00             4048 	.byte	0
                        4049 
                        4050 .LDW_4eaa610:
00000d23 15             4051 	.byte	21
00000d24 525f46444c5f   4052 	.strz	"R_FDL_FCUFct_ClearStatus"
00000d2a 464355466374 
00000d30 5f436c656172 
00000d36 537461747573 
00000d3c 00 
00000d3d 57             4053 	.byte	87
00000d3e 11             4054 	.byte	17
00000d3f 07             4055 	.byte	7
00000d40 01             4056 	.byte	1
00000d41 00             4057 	.byte	0
00000d42 01             4058 	.byte	1

                                                                      Page 78
                                                              C:\Users\nhuliyap\AppData\Local\Temp\gh_0000da81.s
00000d43 01             4059 	.byte	1
00000d44 00             4060 	.byte	0
00000d45 01             4061 	.byte	1
                        4062 
                        4063 	.section	.debug_abbrev
000000eb 15             4064 	.byte	21
000000ec 2e             4065 	.byte	46
000000ed 01             4066 	.byte	1
000000ee 0308           4067 	.byte	3,8
000000f0 3b0f           4068 	.byte	59,15
000000f2 390f           4069 	.byte	57,15
000000f4 3a0f           4070 	.byte	58,15
000000f6 3c0c           4071 	.byte	60,12
000000f8 200b           4072 	.byte	32,11
000000fa 3f0c           4073 	.byte	63,12
000000fc 320b           4074 	.byte	50,11
000000fe 4c0b           4075 	.byte	76,11
00000100 270c           4076 	.byte	39,12
00000102 0000           4077 	.byte	0,0
                        4078 
                        4079 	.section	.debug_info
00000d46 00             4080 	.byte	0
                        4081 
                        4082 .LDW_4eaa020:
00000d47 16             4083 	.byte	22
00000d48 525f46444c5f   4084 	.strz	"R_FDL_FCUFct_GetStat"
00000d4e 464355466374 
00000d54 5f4765745374 
00000d5a 617400 
00000d5d 58             4085 	.byte	88
00000d5e 11             4086 	.byte	17
00000d5f 07             4087 	.byte	7
00000d60 00000000*      4088 	.word	.LDW_4d15818
00000d64 01             4089 	.byte	1
00000d65 00             4090 	.byte	0
00000d66 01             4091 	.byte	1
00000d67 01             4092 	.byte	1
00000d68 00             4093 	.byte	0
00000d69 01             4094 	.byte	1
                        4095 
00000d6a 00             4096 	.byte	0
                        4097 
                        4098 .LDW_4eaa740:
00000d6b 15             4099 	.byte	21
00000d6c 525f46444c5f   4100 	.strz	"R_FDL_FCUFct_InitRAM"
00000d72 464355466374 
00000d78 5f496e697452 
00000d7e 414d00 
00000d81 59             4101 	.byte	89
00000d82 11             4102 	.byte	17
00000d83 07             4103 	.byte	7
00000d84 01             4104 	.byte	1
00000d85 00             4105 	.byte	0
00000d86 01             4106 	.byte	1
00000d87 01             4107 	.byte	1
00000d88 00             4108 	.byte	0
00000d89 01             4109 	.byte	1
                        4110 
00000d8a 00             4111 	.byte	0
                        4112 
                        4113 .LDW_4eaa6a8:

                                                                      Page 79
                                                              C:\Users\nhuliyap\AppData\Local\Temp\gh_0000da81.s
00000d8b 16             4114 	.byte	22
00000d8c 525f46444c5f   4115 	.strz	"R_FDL_FCUFct_ReadOperation"
00000d92 464355466374 
00000d98 5f526561644f 
00000d9e 706572617469 
00000da4 6f6e00 
00000da7 5a             4116 	.byte	90
00000da8 11             4117 	.byte	17
00000da9 07             4118 	.byte	7
00000daa 00000000*      4119 	.word	.LDW_4d15818
00000dae 01             4120 	.byte	1
00000daf 00             4121 	.byte	0
00000db0 01             4122 	.byte	1
00000db1 01             4123 	.byte	1
00000db2 00             4124 	.byte	0
00000db3 01             4125 	.byte	1
                        4126 
00000db4 00             4127 	.byte	0
                        4128 
                        4129 .LDW_4ea9dc0:
00000db5 16             4130 	.byte	22
00000db6 525f46444c5f   4131 	.strz	"R_FDL_FCUFct_ResumeChkNeed"
00000dbc 464355466374 
00000dc2 5f526573756d 
00000dc8 6543686b4e65 
00000dce 656400 
00000dd1 5d             4132 	.byte	93
00000dd2 11             4133 	.byte	17
00000dd3 07             4134 	.byte	7
00000dd4 00000000*      4135 	.word	.LDW_4dcdb10
00000dd8 01             4136 	.byte	1
00000dd9 00             4137 	.byte	0
00000dda 01             4138 	.byte	1
00000ddb 01             4139 	.byte	1
00000ddc 00             4140 	.byte	0
00000ddd 01             4141 	.byte	1
                        4142 
00000dde 00             4143 	.byte	0
                        4144 
                        4145 .LDW_4eaa4e0:
00000ddf 15             4146 	.byte	21
00000de0 525f46444c5f   4147 	.strz	"R_FDL_FCUFct_Resume"
00000de6 464355466374 
00000dec 5f526573756d 
00000df2 6500 
00000df4 5e             4148 	.byte	94
00000df5 11             4149 	.byte	17
00000df6 07             4150 	.byte	7
00000df7 01             4151 	.byte	1
00000df8 00             4152 	.byte	0
00000df9 01             4153 	.byte	1
00000dfa 01             4154 	.byte	1
00000dfb 00             4155 	.byte	0
00000dfc 01             4156 	.byte	1
                        4157 
00000dfd 00             4158 	.byte	0
                        4159 
                        4160 .LDW_4eaa318:
00000dfe 16             4161 	.byte	22
00000dff 525f46444c5f   4162 	.strz	"R_FDL_FCUFct_SetFrequency"
00000e05 464355466374 

                                                                      Page 80
                                                              C:\Users\nhuliyap\AppData\Local\Temp\gh_0000da81.s
00000e0b 5f5365744672 
00000e11 657175656e63 
00000e17 7900 
00000e19 5f             4163 	.byte	95
00000e1a 11             4164 	.byte	17
00000e1b 07             4165 	.byte	7
00000e1c 00000000*      4166 	.word	.LDW_4d15818
00000e20 01             4167 	.byte	1
00000e21 00             4168 	.byte	0
00000e22 01             4169 	.byte	1
00000e23 01             4170 	.byte	1
00000e24 00             4171 	.byte	0
00000e25 01             4172 	.byte	1
                        4173 
00000e26 00             4174 	.byte	0
                        4175 
                        4176 .LDW_4ea9e58:
00000e27 16             4177 	.byte	22
00000e28 525f46444c5f   4178 	.strz	"R_FDL_FCUFct_GetDFSize"
00000e2e 464355466374 
00000e34 5f4765744446 
00000e3a 53697a6500 
00000e3f 60             4179 	.byte	96
00000e40 11             4180 	.byte	17
00000e41 07             4181 	.byte	7
00000e42 00000000*      4182 	.word	.LDW_4d15ac0
00000e46 01             4183 	.byte	1
00000e47 00             4184 	.byte	0
00000e48 01             4185 	.byte	1
00000e49 01             4186 	.byte	1
00000e4a 00             4187 	.byte	0
00000e4b 01             4188 	.byte	1
                        4189 
00000e4c 00             4190 	.byte	0
                        4191 
                        4192 .LDW_4ea9c90:
00000e4d 16             4193 	.byte	22
00000e4e 525f46444c5f   4194 	.strz	"R_FDL_FCUFct_StartBCEraseOperation"
00000e54 464355466374 
00000e5a 5f5374617274 
00000e60 424345726173 
00000e66 654f70657261 
00000e6c 74696f6e00 
00000e71 61             4195 	.byte	97
00000e72 11             4196 	.byte	17
00000e73 07             4197 	.byte	7
00000e74 00000000*      4198 	.word	.LDW_4d15818
00000e78 01             4199 	.byte	1
00000e79 00             4200 	.byte	0
00000e7a 01             4201 	.byte	1
00000e7b 01             4202 	.byte	1
00000e7c 00             4203 	.byte	0
00000e7d 01             4204 	.byte	1
                        4205 
00000e7e 00             4206 	.byte	0
                        4207 
                        4208 .LDW_4ea9f88:
00000e7f 16             4209 	.byte	22
00000e80 525f46444c5f   4210 	.strz	"R_FDL_FCUFct_StartWriteOperation"
00000e86 464355466374 
00000e8c 5f5374617274 

                                                                      Page 81
                                                              C:\Users\nhuliyap\AppData\Local\Temp\gh_0000da81.s
00000e92 57726974654f 
00000e98 706572617469 
00000e9e 6f6e00 
00000ea1 65             4211 	.byte	101
00000ea2 11             4212 	.byte	17
00000ea3 07             4213 	.byte	7
00000ea4 00000000*      4214 	.word	.LDW_4d15818
00000ea8 01             4215 	.byte	1
00000ea9 00             4216 	.byte	0
00000eaa 01             4217 	.byte	1
00000eab 01             4218 	.byte	1
00000eac 00             4219 	.byte	0
00000ead 01             4220 	.byte	1
                        4221 
00000eae 00             4222 	.byte	0
                        4223 
                        4224 .LDW_4eaa3b0:
00000eaf 15             4225 	.byte	21
00000eb0 525f46444c5f   4226 	.strz	"R_FDL_FCUFct_Suspend"
00000eb6 464355466374 
00000ebc 5f5375737065 
00000ec2 6e6400 
00000ec5 69             4227 	.byte	105
00000ec6 11             4228 	.byte	17
00000ec7 07             4229 	.byte	7
00000ec8 01             4230 	.byte	1
00000ec9 00             4231 	.byte	0
00000eca 01             4232 	.byte	1
00000ecb 01             4233 	.byte	1
00000ecc 00             4234 	.byte	0
00000ecd 01             4235 	.byte	1
                        4236 
00000ece 00             4237 	.byte	0
                        4238 
                        4239 .LDW_4ea9b60:
00000ecf 16             4240 	.byte	22
00000ed0 525f46444c5f   4241 	.strz	"R_FDL_FCUFct_SwitchMode_Start"
00000ed6 464355466374 
00000edc 5f5377697463 
00000ee2 684d6f64655f 
00000ee8 537461727400 
00000eee 6a             4242 	.byte	106
00000eef 11             4243 	.byte	17
00000ef0 07             4244 	.byte	7
00000ef1 00000000*      4245 	.word	.LDW_4d15818
00000ef5 01             4246 	.byte	1
00000ef6 00             4247 	.byte	0
00000ef7 01             4248 	.byte	1
00000ef8 01             4249 	.byte	1
00000ef9 00             4250 	.byte	0
00000efa 01             4251 	.byte	1
                        4252 
00000efb 00             4253 	.byte	0
                        4254 
                        4255 .LDW_4ea9bf8:
00000efc 16             4256 	.byte	22
00000efd 525f46444c5f   4257 	.strz	"R_FDL_FCUFct_SwitchMode_Check"
00000f03 464355466374 
00000f09 5f5377697463 
00000f0f 684d6f64655f 
00000f15 436865636b00 

                                                                      Page 82
                                                              C:\Users\nhuliyap\AppData\Local\Temp\gh_0000da81.s
00000f1b 6b             4258 	.byte	107
00000f1c 11             4259 	.byte	17
00000f1d 07             4260 	.byte	7
00000f1e 00000000*      4261 	.word	.LDW_4d15818
00000f22 01             4262 	.byte	1
00000f23 00             4263 	.byte	0
00000f24 01             4264 	.byte	1
00000f25 01             4265 	.byte	1
00000f26 00             4266 	.byte	0
00000f27 01             4267 	.byte	1
                        4268 
00000f28 00             4269 	.byte	0
                        4270 
                        4271 .LDW_4eaa0b8:
00000f29 16             4272 	.byte	22
00000f2a 525f46444c5f   4273 	.strz	"R_FDL_IFct_ChkAccessBoundaries"
00000f30 494663745f43 
00000f36 686b41636365 
00000f3c 7373426f756e 
00000f42 646172696573 
00000f48 00 
00000f49 6c             4274 	.byte	108
00000f4a 11             4275 	.byte	17
00000f4b 07             4276 	.byte	7
00000f4c 00000000*      4277 	.word	.LDW_4d15818
00000f50 01             4278 	.byte	1
00000f51 00             4279 	.byte	0
00000f52 01             4280 	.byte	1
00000f53 01             4281 	.byte	1
00000f54 00             4282 	.byte	0
00000f55 01             4283 	.byte	1
                        4284 
00000f56 00             4285 	.byte	0
                        4286 
                        4287 .LDW_4eaa578:
00000f57 15             4288 	.byte	21
00000f58 525f46444c5f   4289 	.strz	"R_FDL_IFct_WriteMemoryU08"
00000f5e 494663745f57 
00000f64 726974654d65 
00000f6a 6d6f72795530 
00000f70 3800 
00000f72 70             4290 	.byte	112
00000f73 11             4291 	.byte	17
00000f74 07             4292 	.byte	7
00000f75 01             4293 	.byte	1
00000f76 00             4294 	.byte	0
00000f77 01             4295 	.byte	1
00000f78 01             4296 	.byte	1
00000f79 00             4297 	.byte	0
00000f7a 01             4298 	.byte	1
                        4299 
00000f7b 00             4300 	.byte	0
                        4301 
                        4302 .LDW_4eaa150:
00000f7c 15             4303 	.byte	21
00000f7d 525f46444c5f   4304 	.strz	"R_FDL_IFct_CalcFOpUnitCnt_BC"
00000f83 494663745f43 
00000f89 616c63464f70 
00000f8f 556e6974436e 
00000f95 745f424300 
00000f9a 72             4305 	.byte	114

                                                                      Page 83
                                                              C:\Users\nhuliyap\AppData\Local\Temp\gh_0000da81.s
00000f9b 11             4306 	.byte	17
00000f9c 07             4307 	.byte	7
00000f9d 01             4308 	.byte	1
00000f9e 00             4309 	.byte	0
00000f9f 01             4310 	.byte	1
00000fa0 01             4311 	.byte	1
00000fa1 00             4312 	.byte	0
00000fa2 01             4313 	.byte	1
                        4314 
00000fa3 00             4315 	.byte	0
                        4316 
                        4317 .LDW_4eaa448:
00000fa4 15             4318 	.byte	21
00000fa5 525f46444c5f   4319 	.strz	"R_FDL_FCUFct_ForcedStop"
00000fab 464355466374 
00000fb1 5f466f726365 
00000fb7 6453746f7000 
00000fbd 74             4320 	.byte	116
00000fbe 11             4321 	.byte	17
00000fbf 07             4322 	.byte	7
00000fc0 01             4323 	.byte	1
00000fc1 00             4324 	.byte	0
00000fc2 01             4325 	.byte	1
00000fc3 01             4326 	.byte	1
00000fc4 00             4327 	.byte	0
00000fc5 01             4328 	.byte	1
                        4329 
00000fc6 00             4330 	.byte	0
                        4331 
                        4332 .LDW_4eaa1e8:
00000fc7 16             4333 	.byte	22
00000fc8 525f46444c5f   4334 	.strz	"R_FDL_FCUFct_VerifyChecksum"
00000fce 464355466374 
00000fd4 5f5665726966 
00000fda 79436865636b 
00000fe0 73756d00 
00000fe4 75             4335 	.byte	117
00000fe5 11             4336 	.byte	17
00000fe6 07             4337 	.byte	7
00000fe7 00000000*      4338 	.word	.LDW_4d15818
00000feb 01             4339 	.byte	1
00000fec 00             4340 	.byte	0
00000fed 01             4341 	.byte	1
00000fee 01             4342 	.byte	1
00000fef 00             4343 	.byte	0
00000ff0 01             4344 	.byte	1
                        4345 
00000ff1 00             4346 	.byte	0
                        4347 
                        4348 .LDW_4d15978:
00000ff2 14             4349 	.byte	20
00000ff3 525f46444c5f   4350 	.strz	"R_FDL_InitVariables"
00000ff9 496e69745661 
00000fff 726961626c65 
00001005 7300 
00001007 2a             4351 	.byte	42
00001008 10             4352 	.byte	16
00001009 01             4353 	.byte	1
0000100a 00000000*      4354 	.word	.LDW_4d15818
0000100e 00000000*      4355 	.word	_R_FDL_InitVariables
00001012 00000000*      4356 	.word	___ghs_eofn_R_FDL_InitVariables

                                                                      Page 84
                                                              C:\Users\nhuliyap\AppData\Local\Temp\gh_0000da81.s
00001016 0153           4357 	.byte	1,83
00001018 828080e00b     4358 	.byte	130,128,128,224,11
0000101d 14             4359 	.byte	20
0000101e 03             4360 	.byte	3
0000101f 14             4361 	.byte	20
00001020 00             4362 	.byte	0
00001021 00             4363 	.byte	0
00001022 00             4364 	.byte	0
00001023 01             4365 	.byte	1
00001024 01             4366 	.byte	1
00001025 00             4367 	.byte	0
00001026 01             4368 	.byte	1
                        4369 
                        4370 	.section	.debug_abbrev
00000104 14             4371 	.byte	20
00000105 2e             4372 	.byte	46
00000106 01             4373 	.byte	1
00000107 0308           4374 	.byte	3,8
00000109 3b0f           4375 	.byte	59,15
0000010b 390f           4376 	.byte	57,15
0000010d 3a0f           4377 	.byte	58,15
0000010f 4910           4378 	.byte	73,16
00000111 1101           4379 	.byte	17,1
00000113 1201           4380 	.byte	18,1
00000115 400a           4381 	.byte	64,10
00000117 8341           4382 	.byte	131,65
00000119 0f             4383 	.byte	15
0000011a 8741           4384 	.byte	135,65
0000011c 0d             4385 	.byte	13
0000011d 8541           4386 	.byte	133,65
0000011f 0f             4387 	.byte	15
00000120 8641           4388 	.byte	134,65
00000122 0d             4389 	.byte	13
00000123 9241           4390 	.byte	146,65
00000125 0f             4391 	.byte	15
00000126 3c0c           4392 	.byte	60,12
00000128 200b           4393 	.byte	32,11
0000012a 3f0c           4394 	.byte	63,12
0000012c 320b           4395 	.byte	50,11
0000012e 4c0b           4396 	.byte	76,11
00000130 270c           4397 	.byte	39,12
00000132 0000           4398 	.byte	0,0
                        4399 
                        4400 	.section	.debug_frame
                        4401 .LDW_4dc2f68:
00000090 00000000*      4402 	.word	.LDW_unq_4-.LDW_unq_3
                        4403 .LDW_unq_3:
00000094 00000000*      4404 	.word	.LDW_4e8d320
00000098 00000000*      4405 	.word	_R_FDL_InitVariables
0000009c 00000000*      4406 	.word	___ghs_eofn_R_FDL_InitVariables-_R_FDL_InitVariables
000000a0 44             4407 	.byte	68
000000a1 9f             4408 	.byte	159
000000a2 00             4409 	.byte	0
000000a3 40             4410 	.byte	64
000000a4 9d             4411 	.byte	157
000000a5 04             4412 	.byte	4
000000a6 40             4413 	.byte	64
000000a7 9c             4414 	.byte	156
000000a8 08             4415 	.byte	8
000000a9 40             4416 	.byte	64
000000aa 9b             4417 	.byte	155

                                                                      Page 85
                                                              C:\Users\nhuliyap\AppData\Local\Temp\gh_0000da81.s
000000ab 0c             4418 	.byte	12
000000ac 40             4419 	.byte	64
000000ad 9a             4420 	.byte	154
000000ae 10             4421 	.byte	16
000000af 01             4422 	.byte	1
000000b0 00000000*      4423 	.word	.LDW11
                        4424 .LDW_unq_4:
                        4425 	.section	.debug_line
00000433 000502         4426 	.byte	0,5,2
00000436 00000000*      4427 	.word	_R_FDL_InitVariables
0000043a 03             4428 	.byte	3
0000043b 2a             4429 	.byte	42
0000043c 02             4430 	.byte	2
0000043d 00             4431 	.byte	0
0000043e 01             4432 	.byte	1
0000043f 06             4433 	.byte	6
00000440 03             4434 	.byte	3
00000441 06             4435 	.byte	6
00000442 02             4436 	.byte	2
00000443 06             4437 	.byte	6
00000444 01             4438 	.byte	1
00000445 000502         4439 	.byte	0,5,2
00000448 00000000*      4440 	.word	.LDWlin1
0000044c 0b             4441 	.byte	11
0000044d 1c             4442 	.byte	28
0000044e 000502         4443 	.byte	0,5,2
00000451 00000000*      4444 	.word	.LDWlin2
00000455 0b             4445 	.byte	11
00000456 03             4446 	.byte	3
00000457 7d             4447 	.byte	125
00000458 02             4448 	.byte	2
00000459 02             4449 	.byte	2
0000045a 01             4450 	.byte	1
0000045b 000502         4451 	.byte	0,5,2
0000045e 00000000*      4452 	.word	.LDWlin3
00000462 03             4453 	.byte	3
00000463 04             4454 	.byte	4
00000464 02             4455 	.byte	2
00000465 00             4456 	.byte	0
00000466 01             4457 	.byte	1
00000467 0c             4458 	.byte	12
00000468 1d             4459 	.byte	29
00000469 000502         4460 	.byte	0,5,2
0000046c 00000000*      4461 	.word	.LDWlin4
00000470 0b             4462 	.byte	11
00000471 0c             4463 	.byte	12
00000472 1c             4464 	.byte	28
00000473 13             4465 	.byte	19
00000474 14             4466 	.byte	20
00000475 13             4467 	.byte	19
00000476 13             4468 	.byte	19
00000477 13             4469 	.byte	19
00000478 13             4470 	.byte	19
00000479 1c             4471 	.byte	28
0000047a 000502         4472 	.byte	0,5,2
0000047d 00000000*      4473 	.word	.LDWlin5
00000481 0b             4474 	.byte	11
00000482 0d             4475 	.byte	13
00000483 06             4476 	.byte	6
00000484 000502         4477 	.byte	0,5,2
00000487 00000000*      4478 	.word	.LDWlin6

                                                                      Page 86
                                                              C:\Users\nhuliyap\AppData\Local\Temp\gh_0000da81.s
0000048b 02             4479 	.byte	2
0000048c 00             4480 	.byte	0
0000048d 000502         4481 	.byte	0,5,2
00000490 00000000*      4482 	.word	.LDWlin7
00000494 0c             4483 	.byte	12
00000495 03             4484 	.byte	3
00000496 04             4485 	.byte	4
00000497 02             4486 	.byte	2
00000498 00             4487 	.byte	0
00000499 01             4488 	.byte	1
0000049a 06             4489 	.byte	6
0000049b 0b             4490 	.byte	11
0000049c 02             4491 	.byte	2
0000049d 00             4492 	.byte	0
0000049e 0b             4493 	.byte	11
0000049f 0b             4494 	.byte	11
000004a0 0b             4495 	.byte	11
000004a1 000502         4496 	.byte	0,5,2
000004a4 00000000*      4497 	.word	.LDWlin8
000004a8 0b             4498 	.byte	11
000004a9 02             4499 	.byte	2
000004aa 00             4500 	.byte	0
000004ab 0c             4501 	.byte	12
000004ac 0b             4502 	.byte	11
000004ad 0c             4503 	.byte	12
000004ae 000502         4504 	.byte	0,5,2
000004b1 00000000*      4505 	.word	.LDWlin9
000004b5 0b             4506 	.byte	11
000004b6 02             4507 	.byte	2
000004b7 00             4508 	.byte	0
000004b8 0c             4509 	.byte	12
000004b9 02             4510 	.byte	2
000004ba 04             4511 	.byte	4
000004bb 000101         4512 	.byte	0,1,1
                        4513 	.section	.debug_info
                        4514 .LDW_4d15a10:
00001027 0f             4515 	.byte	15
00001028 646573637269   4516 	.strz	"descriptor_pstr"
0000102e 70746f725f70 
00001034 73747200 
00001038 2a             4517 	.byte	42
00001039 40             4518 	.byte	64
0000103a 01             4519 	.byte	1
0000103b 00000000*      4520 	.word	.LDW_40c70d8
0000103f 00             4521 	.byte	0
00001040 016a           4522 	.byte	1,106
                        4523 
                        4524 	.section	.debug_abbrev
00000134 0f             4525 	.byte	15
00000135 05             4526 	.byte	5
00000136 00             4527 	.byte	0
00000137 0308           4528 	.byte	3,8
00000139 3b0f           4529 	.byte	59,15
0000013b 390f           4530 	.byte	57,15
0000013d 3a0f           4531 	.byte	58,15
0000013f 4910           4532 	.byte	73,16
00000141 4b0c           4533 	.byte	75,12
00000143 020a           4534 	.byte	2,10
00000145 0000           4535 	.byte	0,0
                        4536 
                        4537 	.section	.debug_info

                                                                      Page 87
                                                              C:\Users\nhuliyap\AppData\Local\Temp\gh_0000da81.s
                        4538 .LDW_40c1af0:
00001042 1d             4539 	.byte	29
00001043 00000000*      4540 	.word	.LDW01
00001047 00000000*      4541 	.word	.LDW11
                        4542 
                        4543 	.section	.debug_abbrev
00000147 1d             4544 	.byte	29
00000148 0b             4545 	.byte	11
00000149 01             4546 	.byte	1
0000014a 1101           4547 	.byte	17,1
0000014c 1201           4548 	.byte	18,1
0000014e 0000           4549 	.byte	0,0
                        4550 
                        4551 	.section	.debug_info
                        4552 .LDW_4d15a68:
0000104b 04             4553 	.byte	4
0000104c 72657400       4554 	.strz	"ret"
00001050 2c             4555 	.byte	44
00001051 14             4556 	.byte	20
00001052 01             4557 	.byte	1
00001053 00000000*      4558 	.word	.LDW_4d15818
00001057 00             4559 	.byte	0
00001058 00             4560 	.byte	0
00001059 015a           4561 	.byte	1,90
                        4562 
                        4563 .LDW_4d15b18:
0000105b 04             4564 	.byte	4
0000105c 666441646400   4565 	.strz	"fdAdd"
00001062 2d             4566 	.byte	45
00001063 13             4567 	.byte	19
00001064 01             4568 	.byte	1
00001065 00000000*      4569 	.word	.LDW_4d15ac0
00001069 00             4570 	.byte	0
0000106a 00             4571 	.byte	0
0000106b 016b           4572 	.byte	1,107
                        4573 
                        4574 .LDW_4d15b70:
0000106d 05             4575 	.byte	5
0000106e 6900           4576 	.strz	"i"
00001070 2e             4577 	.byte	46
00001071 13             4578 	.byte	19
00001072 01             4579 	.byte	1
00001073 00000000*      4580 	.word	.LDW_4d15ac0
00001077 00             4581 	.byte	0
00001078 00             4582 	.byte	0
                        4583 
                        4584 	.section	.debug_abbrev
00000150 05             4585 	.byte	5
00000151 34             4586 	.byte	52
00000152 00             4587 	.byte	0
00000153 0308           4588 	.byte	3,8
00000155 3b0f           4589 	.byte	59,15
00000157 390f           4590 	.byte	57,15
00000159 3a0f           4591 	.byte	58,15
0000015b 4910           4592 	.byte	73,16
0000015d 3f0c           4593 	.byte	63,12
0000015f 3c0c           4594 	.byte	60,12
00000161 0000           4595 	.byte	0,0
                        4596 
                        4597 	.section	.debug_info
                        4598 .LDW_4d00458:

                                                                      Page 88
                                                              C:\Users\nhuliyap\AppData\Local\Temp\gh_0000da81.s
00001079 05             4599 	.byte	5
0000107a 626c6b456e64   4600 	.strz	"blkEnd"
00001080 00 
00001081 2f             4601 	.byte	47
00001082 13             4602 	.byte	19
00001083 01             4603 	.byte	1
00001084 00000000*      4604 	.word	.LDW_4d00400
00001088 00             4605 	.byte	0
00001089 00             4606 	.byte	0
                        4607 
0000108a 00             4608 	.byte	0
                        4609 
0000108b 00             4610 	.byte	0
                        4611 
                        4612 .LDW_4d005b8:
0000108c 13             4613 	.byte	19
0000108d 525f46444c5f   4614 	.strz	"R_FDL_Execute"
00001093 457865637574 
00001099 6500 
0000109b 67             4615 	.byte	103
0000109c 07             4616 	.byte	7
0000109d 01             4617 	.byte	1
0000109e 00000000*      4618 	.word	_R_FDL_Execute
000010a2 00000000*      4619 	.word	___ghs_eofn_R_FDL_Execute
000010a6 0153           4620 	.byte	1,83
000010a8 828080800b     4621 	.byte	130,128,128,128,11
000010ad 0c             4622 	.byte	12
000010ae 03             4623 	.byte	3
000010af 10             4624 	.byte	16
000010b0 00             4625 	.byte	0
000010b1 00             4626 	.byte	0
000010b2 00             4627 	.byte	0
000010b3 01             4628 	.byte	1
000010b4 01             4629 	.byte	1
000010b5 00             4630 	.byte	0
000010b6 01             4631 	.byte	1
                        4632 
                        4633 	.section	.debug_abbrev
00000163 13             4634 	.byte	19
00000164 2e             4635 	.byte	46
00000165 01             4636 	.byte	1
00000166 0308           4637 	.byte	3,8
00000168 3b0f           4638 	.byte	59,15
0000016a 390f           4639 	.byte	57,15
0000016c 3a0f           4640 	.byte	58,15
0000016e 1101           4641 	.byte	17,1
00000170 1201           4642 	.byte	18,1
00000172 400a           4643 	.byte	64,10
00000174 8341           4644 	.byte	131,65
00000176 0f             4645 	.byte	15
00000177 8741           4646 	.byte	135,65
00000179 0d             4647 	.byte	13
0000017a 8541           4648 	.byte	133,65
0000017c 0f             4649 	.byte	15
0000017d 8641           4650 	.byte	134,65
0000017f 0d             4651 	.byte	13
00000180 9241           4652 	.byte	146,65
00000182 0f             4653 	.byte	15
00000183 3c0c           4654 	.byte	60,12
00000185 200b           4655 	.byte	32,11
00000187 3f0c           4656 	.byte	63,12

                                                                      Page 89
                                                              C:\Users\nhuliyap\AppData\Local\Temp\gh_0000da81.s
00000189 320b           4657 	.byte	50,11
0000018b 4c0b           4658 	.byte	76,11
0000018d 270c           4659 	.byte	39,12
0000018f 0000           4660 	.byte	0,0
                        4661 
                        4662 	.section	.debug_frame
                        4663 .LDW_4dc3128:
000000b4 00000000*      4664 	.word	.LDW_unq_6-.LDW_unq_5
                        4665 .LDW_unq_5:
000000b8 00000000*      4666 	.word	.LDW_4e8d320
000000bc 00000000*      4667 	.word	_R_FDL_Execute
000000c0 00000000*      4668 	.word	___ghs_eofn_R_FDL_Execute-_R_FDL_Execute
000000c4 44             4669 	.byte	68
000000c5 9f             4670 	.byte	159
000000c6 03             4671 	.byte	3
000000c7 40             4672 	.byte	64
000000c8 9d             4673 	.byte	157
000000c9 07             4674 	.byte	7
000000ca 40             4675 	.byte	64
000000cb 9c             4676 	.byte	156
000000cc 0b             4677 	.byte	11
000000cd 01             4678 	.byte	1
000000ce 00000000*      4679 	.word	.LDW51
000000d2 00             4680 	.byte	0
000000d3 00             4681 	.byte	0
                        4682 .LDW_unq_6:
                        4683 	.section	.debug_line
000004be 000502         4684 	.byte	0,5,2
000004c1 00000000*      4685 	.word	_R_FDL_Execute
000004c5 03             4686 	.byte	3
000004c6 e700           4687 	.byte	231,0
000004c8 02             4688 	.byte	2
000004c9 00             4689 	.byte	0
000004ca 01             4690 	.byte	1
000004cb 06             4691 	.byte	6
000004cc 25             4692 	.byte	37
000004cd 24             4693 	.byte	36
000004ce 000502         4694 	.byte	0,5,2
000004d1 00000000*      4695 	.word	.LDWlin39
000004d5 0b             4696 	.byte	11
000004d6 0b             4697 	.byte	11
000004d7 000502         4698 	.byte	0,5,2
000004da 00000000*      4699 	.word	.LDWlin40
000004de 0b             4700 	.byte	11
000004df 0b             4701 	.byte	11
000004e0 000502         4702 	.byte	0,5,2
000004e3 00000000*      4703 	.word	.LDWlin41
000004e7 0b             4704 	.byte	11
000004e8 0b             4705 	.byte	11
000004e9 000502         4706 	.byte	0,5,2
000004ec 00000000*      4707 	.word	.LDWlin42
000004f0 0b             4708 	.byte	11
000004f1 0b             4709 	.byte	11
000004f2 000502         4710 	.byte	0,5,2
000004f5 00000000*      4711 	.word	.LDWlin43
000004f9 0b             4712 	.byte	11
000004fa 000502         4713 	.byte	0,5,2
000004fd 00000000*      4714 	.word	.LDWlin44
00000501 0b             4715 	.byte	11
00000502 0b             4716 	.byte	11
00000503 13             4717 	.byte	19

                                                                      Page 90
                                                              C:\Users\nhuliyap\AppData\Local\Temp\gh_0000da81.s
00000504 000502         4718 	.byte	0,5,2
00000507 00000000*      4719 	.word	.LDWlin45
0000050b 0b             4720 	.byte	11
0000050c 02             4721 	.byte	2
0000050d 00             4722 	.byte	0
0000050e 0b             4723 	.byte	11
0000050f 02             4724 	.byte	2
00000510 00             4725 	.byte	0
00000511 0b             4726 	.byte	11
00000512 0b             4727 	.byte	11
00000513 02             4728 	.byte	2
00000514 00             4729 	.byte	0
00000515 000502         4730 	.byte	0,5,2
00000518 00000000*      4731 	.word	.LDWlin46
0000051c 0d             4732 	.byte	13
0000051d 0c             4733 	.byte	12
0000051e 000502         4734 	.byte	0,5,2
00000521 00000000*      4735 	.word	.LDWlin47
00000525 03             4736 	.byte	3
00000526 1e             4737 	.byte	30
00000527 02             4738 	.byte	2
00000528 00             4739 	.byte	0
00000529 01             4740 	.byte	1
0000052a 0d             4741 	.byte	13
0000052b 0c             4742 	.byte	12
0000052c 03             4743 	.byte	3
0000052d 0f             4744 	.byte	15
0000052e 02             4745 	.byte	2
0000052f 04             4746 	.byte	4
00000530 01             4747 	.byte	1
00000531 0b             4748 	.byte	11
00000532 0c             4749 	.byte	12
00000533 1c             4750 	.byte	28
00000534 000502         4751 	.byte	0,5,2
00000537 00000000*      4752 	.word	.LDWlin48
0000053b 03             4753 	.byte	3
0000053c 4e             4754 	.byte	78
0000053d 02             4755 	.byte	2
0000053e 00             4756 	.byte	0
0000053f 01             4757 	.byte	1
00000540 03             4758 	.byte	3
00000541 08             4759 	.byte	8
00000542 02             4760 	.byte	2
00000543 00             4761 	.byte	0
00000544 01             4762 	.byte	1
00000545 0b             4763 	.byte	11
00000546 06             4764 	.byte	6
00000547 000502         4765 	.byte	0,5,2
0000054a 00000000*      4766 	.word	.LDWlin49
0000054e 03             4767 	.byte	3
0000054f 76             4768 	.byte	118
00000550 02             4769 	.byte	2
00000551 00             4770 	.byte	0
00000552 01             4771 	.byte	1
00000553 03             4772 	.byte	3
00000554 0c             4773 	.byte	12
00000555 02             4774 	.byte	2
00000556 00             4775 	.byte	0
00000557 01             4776 	.byte	1
00000558 06             4777 	.byte	6
00000559 0b             4778 	.byte	11

                                                                      Page 91
                                                              C:\Users\nhuliyap\AppData\Local\Temp\gh_0000da81.s
0000055a 02             4779 	.byte	2
0000055b 00             4780 	.byte	0
0000055c 0b             4781 	.byte	11
0000055d 03             4782 	.byte	3
0000055e 04             4783 	.byte	4
0000055f 02             4784 	.byte	2
00000560 00             4785 	.byte	0
00000561 01             4786 	.byte	1
00000562 0b             4787 	.byte	11
00000563 000502         4788 	.byte	0,5,2
00000566 00000000*      4789 	.word	.LDWlin50
0000056a 0b             4790 	.byte	11
0000056b 03             4791 	.byte	3
0000056c 04             4792 	.byte	4
0000056d 02             4793 	.byte	2
0000056e 00             4794 	.byte	0
0000056f 01             4795 	.byte	1
00000570 03             4796 	.byte	3
00000571 08             4797 	.byte	8
00000572 02             4798 	.byte	2
00000573 00             4799 	.byte	0
00000574 01             4800 	.byte	1
00000575 0c             4801 	.byte	12
00000576 0b             4802 	.byte	11
00000577 0b             4803 	.byte	11
00000578 0c             4804 	.byte	12
00000579 02             4805 	.byte	2
0000057a 00             4806 	.byte	0
0000057b 02             4807 	.byte	2
0000057c 00             4808 	.byte	0
0000057d 02             4809 	.byte	2
0000057e 00             4810 	.byte	0
0000057f 0b             4811 	.byte	11
00000580 02             4812 	.byte	2
00000581 00             4813 	.byte	0
00000582 0c             4814 	.byte	12
00000583 000502         4815 	.byte	0,5,2
00000586 00000000*      4816 	.word	.LDWlin51
0000058a 0b             4817 	.byte	11
0000058b 0c             4818 	.byte	12
0000058c 03             4819 	.byte	3
0000058d 08             4820 	.byte	8
0000058e 02             4821 	.byte	2
0000058f 04             4822 	.byte	4
00000590 01             4823 	.byte	1
00000591 02             4824 	.byte	2
00000592 00             4825 	.byte	0
00000593 0c             4826 	.byte	12
00000594 1b             4827 	.byte	27
00000595 02             4828 	.byte	2
00000596 00             4829 	.byte	0
00000597 0c             4830 	.byte	12
00000598 02             4831 	.byte	2
00000599 04             4832 	.byte	4
0000059a 000101         4833 	.byte	0,1,1
                        4834 	.section	.debug_info
                        4835 .LDW_4d00650:
000010b7 0f             4836 	.byte	15
000010b8 726571756573   4837 	.strz	"request_pstr"
000010be 745f70737472 
000010c4 00 

                                                                      Page 92
                                                              C:\Users\nhuliyap\AppData\Local\Temp\gh_0000da81.s
000010c5 67             4838 	.byte	103
000010c6 28             4839 	.byte	40
000010c7 01             4840 	.byte	1
000010c8 00000000*      4841 	.word	.LDW_40c7030
000010cc 00             4842 	.byte	0
000010cd 016d           4843 	.byte	1,109
                        4844 
                        4845 .LDW_40c1b20:
000010cf 1d             4846 	.byte	29
000010d0 00000000*      4847 	.word	.LDW41
000010d4 00000000*      4848 	.word	.LDW51
                        4849 
                        4850 .LDW_4d006a8:
000010d8 04             4851 	.byte	4
000010d9 726571457272   4852 	.strz	"reqErr"
000010df 00 
000010e0 69             4853 	.byte	105
000010e1 14             4854 	.byte	20
000010e2 01             4855 	.byte	1
000010e3 00000000*      4856 	.word	.LDW_4d15818
000010e7 00             4857 	.byte	0
000010e8 00             4858 	.byte	0
000010e9 0273           4859 	.byte	2,115
000010eb 03             4860 	.byte	3
                        4861 
000010ec 00             4862 	.byte	0
                        4863 
000010ed 00             4864 	.byte	0
                        4865 
                        4866 .LDW_4d00700:
000010ee 14             4867 	.byte	20
000010ef 525f46444c5f   4868 	.strz	"R_FDL_Handler_CancelReq"
000010f5 48616e646c65 
000010fb 725f43616e63 
00001101 656c52657100 
00001107 c601           4869 	.byte	198,1
00001109 1b             4870 	.byte	27
0000110a 01             4871 	.byte	1
0000110b 00000000*      4872 	.word	.LDW_4dcdb10
0000110f 00000000*      4873 	.word	_R_FDL_Handler_CancelReq..C.3A.5C_ECU2.5CECU_Rivian_A1.5CTarget.5Crepo_projects.5CpRealEcu.5CcR_LATEST.5Cmake.5Coutput.5Cobjects.5Cr_fdl_user_if.
00001113 00000000*      4874 	.word	___ghs_eofn_R_FDL_Handler_CancelReq
00001117 0153           4875 	.byte	1,83
00001119 828080e00b     4876 	.byte	130,128,128,224,11
0000111e 14             4877 	.byte	20
0000111f 03             4878 	.byte	3
00001120 14             4879 	.byte	20
00001121 00             4880 	.byte	0
00001122 00             4881 	.byte	0
00001123 00             4882 	.byte	0
00001124 00             4883 	.byte	0
00001125 01             4884 	.byte	1
00001126 00             4885 	.byte	0
00001127 01             4886 	.byte	1
                        4887 
                        4888 	.section	.debug_frame
                        4889 .LDW_4dc3068:
000000d4 00000000*      4890 	.word	.LDW_unq_8-.LDW_unq_7
                        4891 .LDW_unq_7:
000000d8 00000000*      4892 	.word	.LDW_4e8d320
000000dc 00000000*      4893 	.word	_R_FDL_Handler_CancelReq..C.3A.5C_ECU2.5CECU_Rivian_A1.5CTarget.5Crepo_projects.5CpRealEcu.5CcR_LATEST.5Cmake.5Coutput.5Cobjects.5Cr_fdl_user_if.
000000e0 00000000*      4894 	.word	___ghs_eofn_R_FDL_Handler_CancelReq-_R_FDL_Handler_CancelReq..C.3A.5C_ECU2.5CECU_Rivian_A1.5CTarget.5Crepo_projects.5CpRealEcu.5CcR_LATEST.5Cmake.5Coutput.5Cobjects.5Cr_fdl_user_if.

                                                                      Page 93
                                                              C:\Users\nhuliyap\AppData\Local\Temp\gh_0000da81.s
000000e4 44             4895 	.byte	68
000000e5 9f             4896 	.byte	159
000000e6 00             4897 	.byte	0
000000e7 40             4898 	.byte	64
000000e8 9d             4899 	.byte	157
000000e9 04             4900 	.byte	4
000000ea 40             4901 	.byte	64
000000eb 9c             4902 	.byte	156
000000ec 08             4903 	.byte	8
000000ed 40             4904 	.byte	64
000000ee 9b             4905 	.byte	155
000000ef 0c             4906 	.byte	12
000000f0 40             4907 	.byte	64
000000f1 9a             4908 	.byte	154
000000f2 10             4909 	.byte	16
000000f3 01             4910 	.byte	1
000000f4 00000000*      4911 	.word	.LDW71
                        4912 .LDW_unq_8:
                        4913 	.section	.debug_line
0000059d 000502         4914 	.byte	0,5,2
000005a0 00000000*      4915 	.word	_R_FDL_Handler_CancelReq..C.3A.5C_ECU2.5CECU_Rivian_A1.5CTarget.5Crepo_projects.5CpRealEcu.5CcR_LATEST.5Cmake.5Coutput.5Cobjects.5Cr_fdl_user_if.
000005a4 03             4916 	.byte	3
000005a5 c601           4917 	.byte	198,1
000005a7 02             4918 	.byte	2
000005a8 00             4919 	.byte	0
000005a9 01             4920 	.byte	1
000005aa 06             4921 	.byte	6
000005ab 03             4922 	.byte	3
000005ac 05             4923 	.byte	5
000005ad 02             4924 	.byte	2
000005ae 06             4925 	.byte	6
000005af 01             4926 	.byte	1
000005b0 000502         4927 	.byte	0,5,2
000005b3 00000000*      4928 	.word	.LDWlin52
000005b7 03             4929 	.byte	3
000005b8 7e             4930 	.byte	126
000005b9 02             4931 	.byte	2
000005ba 00             4932 	.byte	0
000005bb 01             4933 	.byte	1
000005bc 000502         4934 	.byte	0,5,2
000005bf 00000000*      4935 	.word	.LDWlin53
000005c3 0d             4936 	.byte	13
000005c4 0b             4937 	.byte	11
000005c5 000502         4938 	.byte	0,5,2
000005c8 00000000*      4939 	.word	.LDWlin54
000005cc 0b             4940 	.byte	11
000005cd 0b             4941 	.byte	11
000005ce 000502         4942 	.byte	0,5,2
000005d1 00000000*      4943 	.word	.LDWlin55
000005d5 0b             4944 	.byte	11
000005d6 0b             4945 	.byte	11
000005d7 000502         4946 	.byte	0,5,2
000005da 00000000*      4947 	.word	.LDWlin56
000005de 0b             4948 	.byte	11
000005df 000502         4949 	.byte	0,5,2
000005e2 00000000*      4950 	.word	.LDWlin57
000005e6 0c             4951 	.byte	12
000005e7 23             4952 	.byte	35
000005e8 000502         4953 	.byte	0,5,2
000005eb 00000000*      4954 	.word	.LDWlin58
000005ef 0b             4955 	.byte	11

                                                                      Page 94
                                                              C:\Users\nhuliyap\AppData\Local\Temp\gh_0000da81.s
000005f0 0b             4956 	.byte	11
000005f1 0b             4957 	.byte	11
000005f2 1b             4958 	.byte	27
000005f3 13             4959 	.byte	19
000005f4 02             4960 	.byte	2
000005f5 00             4961 	.byte	0
000005f6 0c             4962 	.byte	12
000005f7 15             4963 	.byte	21
000005f8 000502         4964 	.byte	0,5,2
000005fb 00000000*      4965 	.word	.LDWlin59
000005ff 03             4966 	.byte	3
00000600 7e             4967 	.byte	126
00000601 02             4968 	.byte	2
00000602 00             4969 	.byte	0
00000603 01             4970 	.byte	1
00000604 13             4971 	.byte	19
00000605 1d             4972 	.byte	29
00000606 000502         4973 	.byte	0,5,2
00000609 00000000*      4974 	.word	.LDWlin60
0000060d 0b             4975 	.byte	11
0000060e 0b             4976 	.byte	11
0000060f 13             4977 	.byte	19
00000610 000502         4978 	.byte	0,5,2
00000613 00000000*      4979 	.word	.LDWlin61
00000617 0b             4980 	.byte	11
00000618 02             4981 	.byte	2
00000619 00             4982 	.byte	0
0000061a 0b             4983 	.byte	11
0000061b 0b             4984 	.byte	11
0000061c 0b             4985 	.byte	11
0000061d 13             4986 	.byte	19
0000061e 02             4987 	.byte	2
0000061f 00             4988 	.byte	0
00000620 0b             4989 	.byte	11
00000621 02             4990 	.byte	2
00000622 00             4991 	.byte	0
00000623 0c             4992 	.byte	12
00000624 06             4993 	.byte	6
00000625 02             4994 	.byte	2
00000626 02             4995 	.byte	2
00000627 02             4996 	.byte	2
00000628 04             4997 	.byte	4
00000629 000101         4998 	.byte	0,1,1
                        4999 	.section	.debug_info
                        5000 .LDW_4dcd698:
00001128 0f             5001 	.byte	15
00001129 746d70537461   5002 	.strz	"tmpStat_penu"
0000112f 745f70656e75 
00001135 00 
00001136 c601           5003 	.byte	198,1
00001138 45             5004 	.byte	69
00001139 01             5005 	.byte	1
0000113a 00000000*      5006 	.word	.LDW_40c6d20
0000113e 00             5007 	.byte	0
0000113f 016a           5008 	.byte	1,106
                        5009 
                        5010 .LDW_40c1b80:
00001141 1d             5011 	.byte	29
00001142 00000000*      5012 	.word	.LDW61
00001146 00000000*      5013 	.word	.LDW71
                        5014 

                                                                      Page 95
                                                              C:\Users\nhuliyap\AppData\Local\Temp\gh_0000da81.s
                        5015 .LDW_4dcd7a0:
0000114a 04             5016 	.byte	4
0000114b 636f6e7400     5017 	.strz	"cont"
00001150 c801           5018 	.byte	200,1
00001152 12             5019 	.byte	18
00001153 01             5020 	.byte	1
00001154 00000000*      5021 	.word	.LDW_4dcdb10
00001158 00             5022 	.byte	0
00001159 00             5023 	.byte	0
0000115a 016c           5024 	.byte	1,108
                        5025 
0000115c 00             5026 	.byte	0
                        5027 
0000115d 00             5028 	.byte	0
                        5029 
                        5030 .LDW_4d00798:
0000115e 14             5031 	.byte	20
0000115f 525f46444c5f   5032 	.strz	"R_FDL_Handler_BusyAndSuspendPossible"
00001165 48616e646c65 
0000116b 725f42757379 
00001171 416e64537573 
00001177 70656e64506f 
0000117d 737369626c65 
00001183 00 
00001184 f401           5033 	.byte	244,1
00001186 1b             5034 	.byte	27
00001187 01             5035 	.byte	1
00001188 00000000*      5036 	.word	.LDW_4dcdb10
0000118c 00000000*      5037 	.word	_R_FDL_Handler_BusyAndSuspendPossible..C.3A.5C_ECU2.5CECU_Rivian_A1.5CTarget.5Crepo_projects.5CpRealEcu.5CcR_LATEST.5Cmake.5Coutput.5Cobjects.5Cr_fdl_user_if.
00001190 00000000*      5038 	.word	___ghs_eofn_R_FDL_Handler_BusyAndSuspendPossible
00001194 0153           5039 	.byte	1,83
00001196 828080800b     5040 	.byte	130,128,128,128,11
0000119b 0c             5041 	.byte	12
0000119c 03             5042 	.byte	3
0000119d 0c             5043 	.byte	12
0000119e 00             5044 	.byte	0
0000119f 00             5045 	.byte	0
000011a0 00             5046 	.byte	0
000011a1 00             5047 	.byte	0
000011a2 01             5048 	.byte	1
000011a3 00             5049 	.byte	0
000011a4 01             5050 	.byte	1
                        5051 
                        5052 	.section	.debug_frame
                        5053 .LDW_4dc32e8:
000000f8 00000000*      5054 	.word	.LDW_unq_a-.LDW_unq_9
                        5055 .LDW_unq_9:
000000fc 00000000*      5056 	.word	.LDW_4e8d320
00000100 00000000*      5057 	.word	_R_FDL_Handler_BusyAndSuspendPossible..C.3A.5C_ECU2.5CECU_Rivian_A1.5CTarget.5Crepo_projects.5CpRealEcu.5CcR_LATEST.5Cmake.5Coutput.5Cobjects.5Cr_fdl_user_if.
00000104 00000000*      5058 	.word	___ghs_eofn_R_FDL_Handler_BusyAndSuspendPossible-_R_FDL_Handler_BusyAndSuspendPossible..C.3A.5C_ECU2.5CECU_Rivian_A1.5CTarget.5Crepo_projects.5CpRealEcu.5CcR_LATEST.5Cmake.5Coutput.5Cobjects.5Cr_fdl_user_if.
00000108 44             5059 	.byte	68
00000109 9f             5060 	.byte	159
0000010a 00             5061 	.byte	0
0000010b 40             5062 	.byte	64
0000010c 9d             5063 	.byte	157
0000010d 04             5064 	.byte	4
0000010e 40             5065 	.byte	64
0000010f 9c             5066 	.byte	156
00000110 08             5067 	.byte	8
00000111 01             5068 	.byte	1
00000112 00000000*      5069 	.word	.LDW91

                                                                      Page 96
                                                              C:\Users\nhuliyap\AppData\Local\Temp\gh_0000da81.s
00000116 00             5070 	.byte	0
00000117 00             5071 	.byte	0
                        5072 .LDW_unq_a:
                        5073 	.section	.debug_line
0000062c 000502         5074 	.byte	0,5,2
0000062f 00000000*      5075 	.word	_R_FDL_Handler_BusyAndSuspendPossible..C.3A.5C_ECU2.5CECU_Rivian_A1.5CTarget.5Crepo_projects.5CpRealEcu.5CcR_LATEST.5Cmake.5Coutput.5Cobjects.5Cr_fdl_user_if.
00000633 03             5076 	.byte	3
00000634 f301           5077 	.byte	243,1
00000636 02             5078 	.byte	2
00000637 00             5079 	.byte	0
00000638 01             5080 	.byte	1
00000639 06             5081 	.byte	6
0000063a 03             5082 	.byte	3
0000063b 05             5083 	.byte	5
0000063c 02             5084 	.byte	2
0000063d 04             5085 	.byte	4
0000063e 01             5086 	.byte	1
0000063f 000502         5087 	.byte	0,5,2
00000642 00000000*      5088 	.word	.LDWlin62
00000646 03             5089 	.byte	3
00000647 7e             5090 	.byte	126
00000648 02             5091 	.byte	2
00000649 00             5092 	.byte	0
0000064a 01             5093 	.byte	1
0000064b 000502         5094 	.byte	0,5,2
0000064e 00000000*      5095 	.word	.LDWlin63
00000652 0d             5096 	.byte	13
00000653 0b             5097 	.byte	11
00000654 000502         5098 	.byte	0,5,2
00000657 00000000*      5099 	.word	.LDWlin64
0000065b 0b             5100 	.byte	11
0000065c 0c             5101 	.byte	12
0000065d 000502         5102 	.byte	0,5,2
00000660 00000000*      5103 	.word	.LDWlin65
00000664 0c             5104 	.byte	12
00000665 13             5105 	.byte	19
00000666 000502         5106 	.byte	0,5,2
00000669 00000000*      5107 	.word	.LDWlin66
0000066d 0b             5108 	.byte	11
0000066e 13             5109 	.byte	19
0000066f 02             5110 	.byte	2
00000670 00             5111 	.byte	0
00000671 0b             5112 	.byte	11
00000672 02             5113 	.byte	2
00000673 00             5114 	.byte	0
00000674 0c             5115 	.byte	12
00000675 06             5116 	.byte	6
00000676 02             5117 	.byte	2
00000677 02             5118 	.byte	2
00000678 02             5119 	.byte	2
00000679 04             5120 	.byte	4
0000067a 000101         5121 	.byte	0,1,1
                        5122 	.section	.debug_info
                        5123 .LDW_40c1ac0:
000011a5 1d             5124 	.byte	29
000011a6 00000000*      5125 	.word	.LDW81
000011aa 00000000*      5126 	.word	.LDW91
                        5127 
                        5128 .LDW_4dcdbc0:
000011ae 04             5129 	.byte	4
000011af 636f6e7400     5130 	.strz	"cont"

                                                                      Page 97
                                                              C:\Users\nhuliyap\AppData\Local\Temp\gh_0000da81.s
000011b4 f501           5131 	.byte	245,1
000011b6 12             5132 	.byte	18
000011b7 01             5133 	.byte	1
000011b8 00000000*      5134 	.word	.LDW_4dcdb10
000011bc 00             5135 	.byte	0
000011bd 00             5136 	.byte	0
000011be 016c           5137 	.byte	1,108
                        5138 
000011c0 00             5139 	.byte	0
                        5140 
000011c1 00             5141 	.byte	0
                        5142 
                        5143 .LDW_4d00830:
000011c2 14             5144 	.byte	20
000011c3 525f46444c5f   5145 	.strz	"R_FDL_Handler_ChkResume"
000011c9 48616e646c65 
000011cf 725f43686b52 
000011d5 6573756d6500 
000011db 8d02           5146 	.byte	141,2
000011dd 1b             5147 	.byte	27
000011de 01             5148 	.byte	1
000011df 00000000*      5149 	.word	.LDW_4dcdb10
000011e3 00000000*      5150 	.word	_R_FDL_Handler_ChkResume..C.3A.5C_ECU2.5CECU_Rivian_A1.5CTarget.5Crepo_projects.5CpRealEcu.5CcR_LATEST.5Cmake.5Coutput.5Cobjects.5Cr_fdl_user_if.
000011e7 00000000*      5151 	.word	___ghs_eofn_R_FDL_Handler_ChkResume
000011eb 0153           5152 	.byte	1,83
000011ed 828080c00b     5153 	.byte	130,128,128,192,11
000011f2 10             5154 	.byte	16
000011f3 03             5155 	.byte	3
000011f4 10             5156 	.byte	16
000011f5 00             5157 	.byte	0
000011f6 00             5158 	.byte	0
000011f7 00             5159 	.byte	0
000011f8 00             5160 	.byte	0
000011f9 01             5161 	.byte	1
000011fa 00             5162 	.byte	0
000011fb 01             5163 	.byte	1
                        5164 
                        5165 	.section	.debug_frame
                        5166 .LDW_4dc2e68:
00000118 00000000*      5167 	.word	.LDW_unq_c-.LDW_unq_b
                        5168 .LDW_unq_b:
0000011c 00000000*      5169 	.word	.LDW_4e8d320
00000120 00000000*      5170 	.word	_R_FDL_Handler_ChkResume..C.3A.5C_ECU2.5CECU_Rivian_A1.5CTarget.5Crepo_projects.5CpRealEcu.5CcR_LATEST.5Cmake.5Coutput.5Cobjects.5Cr_fdl_user_if.
00000124 00000000*      5171 	.word	___ghs_eofn_R_FDL_Handler_ChkResume-_R_FDL_Handler_ChkResume..C.3A.5C_ECU2.5CECU_Rivian_A1.5CTarget.5Crepo_projects.5CpRealEcu.5CcR_LATEST.5Cmake.5Coutput.5Cobjects.5Cr_fdl_user_if.
00000128 44             5172 	.byte	68
00000129 9f             5173 	.byte	159
0000012a 00             5174 	.byte	0
0000012b 40             5175 	.byte	64
0000012c 9d             5176 	.byte	157
0000012d 04             5177 	.byte	4
0000012e 40             5178 	.byte	64
0000012f 9c             5179 	.byte	156
00000130 08             5180 	.byte	8
00000131 40             5181 	.byte	64
00000132 9b             5182 	.byte	155
00000133 0c             5183 	.byte	12
00000134 01             5184 	.byte	1
00000135 00000000*      5185 	.word	.LDW12
00000139 00             5186 	.byte	0
0000013a 00             5187 	.byte	0
0000013b 00             5188 	.byte	0

                                                                      Page 98
                                                              C:\Users\nhuliyap\AppData\Local\Temp\gh_0000da81.s
                        5189 .LDW_unq_c:
                        5190 	.section	.debug_line
0000067d 000502         5191 	.byte	0,5,2
00000680 00000000*      5192 	.word	_R_FDL_Handler_ChkResume..C.3A.5C_ECU2.5CECU_Rivian_A1.5CTarget.5Crepo_projects.5CpRealEcu.5CcR_LATEST.5Cmake.5Coutput.5Cobjects.5Cr_fdl_user_if.
00000684 03             5193 	.byte	3
00000685 8d02           5194 	.byte	141,2
00000687 02             5195 	.byte	2
00000688 00             5196 	.byte	0
00000689 01             5197 	.byte	1
0000068a 06             5198 	.byte	6
0000068b 03             5199 	.byte	3
0000068c 06             5200 	.byte	6
0000068d 02             5201 	.byte	2
0000068e 06             5202 	.byte	6
0000068f 01             5203 	.byte	1
00000690 000502         5204 	.byte	0,5,2
00000693 00000000*      5205 	.word	.LDWlin67
00000697 03             5206 	.byte	3
00000698 7e             5207 	.byte	126
00000699 02             5208 	.byte	2
0000069a 00             5209 	.byte	0
0000069b 01             5210 	.byte	1
0000069c 000502         5211 	.byte	0,5,2
0000069f 00000000*      5212 	.word	.LDWlin68
000006a3 03             5213 	.byte	3
000006a4 07             5214 	.byte	7
000006a5 02             5215 	.byte	2
000006a6 00             5216 	.byte	0
000006a7 01             5217 	.byte	1
000006a8 03             5218 	.byte	3
000006a9 7d             5219 	.byte	125
000006aa 02             5220 	.byte	2
000006ab 04             5221 	.byte	4
000006ac 01             5222 	.byte	1
000006ad 0b             5223 	.byte	11
000006ae 000502         5224 	.byte	0,5,2
000006b1 00000000*      5225 	.word	.LDWlin69
000006b5 0d             5226 	.byte	13
000006b6 0b             5227 	.byte	11
000006b7 000502         5228 	.byte	0,5,2
000006ba 00000000*      5229 	.word	.LDWlin70
000006be 0b             5230 	.byte	11
000006bf 03             5231 	.byte	3
000006c0 04             5232 	.byte	4
000006c1 02             5233 	.byte	2
000006c2 02             5234 	.byte	2
000006c3 01             5235 	.byte	1
000006c4 0b             5236 	.byte	11
000006c5 0b             5237 	.byte	11
000006c6 06             5238 	.byte	6
000006c7 000502         5239 	.byte	0,5,2
000006ca 00000000*      5240 	.word	.LDWlin71
000006ce 0b             5241 	.byte	11
000006cf 03             5242 	.byte	3
000006d0 12             5243 	.byte	18
000006d1 02             5244 	.byte	2
000006d2 00             5245 	.byte	0
000006d3 01             5246 	.byte	1
000006d4 03             5247 	.byte	3
000006d5 6d             5248 	.byte	109
000006d6 02             5249 	.byte	2

                                                                      Page 99
                                                              C:\Users\nhuliyap\AppData\Local\Temp\gh_0000da81.s
000006d7 00             5250 	.byte	0
000006d8 01             5251 	.byte	1
000006d9 14             5252 	.byte	20
000006da 03             5253 	.byte	3
000006db 12             5254 	.byte	18
000006dc 02             5255 	.byte	2
000006dd 00             5256 	.byte	0
000006de 01             5257 	.byte	1
000006df 03             5258 	.byte	3
000006e0 6c             5259 	.byte	108
000006e1 02             5260 	.byte	2
000006e2 00             5261 	.byte	0
000006e3 01             5262 	.byte	1
000006e4 06             5263 	.byte	6
000006e5 000502         5264 	.byte	0,5,2
000006e8 00000000*      5265 	.word	.LDWlin72
000006ec 0d             5266 	.byte	13
000006ed 02             5267 	.byte	2
000006ee 00             5268 	.byte	0
000006ef 0b             5269 	.byte	11
000006f0 0b             5270 	.byte	11
000006f1 0c             5271 	.byte	12
000006f2 000502         5272 	.byte	0,5,2
000006f5 00000000*      5273 	.word	.LDWlin73
000006f9 0c             5274 	.byte	12
000006fa 0b             5275 	.byte	11
000006fb 000502         5276 	.byte	0,5,2
000006fe 00000000*      5277 	.word	.LDWlin74
00000702 0b             5278 	.byte	11
00000703 06             5279 	.byte	6
00000704 000502         5280 	.byte	0,5,2
00000707 00000000*      5281 	.word	.LDWlin75
0000070b 03             5282 	.byte	3
0000070c 72             5283 	.byte	114
0000070d 02             5284 	.byte	2
0000070e 00             5285 	.byte	0
0000070f 01             5286 	.byte	1
00000710 06             5287 	.byte	6
00000711 03             5288 	.byte	3
00000712 0f             5289 	.byte	15
00000713 02             5290 	.byte	2
00000714 00             5291 	.byte	0
00000715 01             5292 	.byte	1
00000716 0c             5293 	.byte	12
00000717 000502         5294 	.byte	0,5,2
0000071a 00000000*      5295 	.word	.LDWlin76
0000071e 03             5296 	.byte	3
0000071f 04             5297 	.byte	4
00000720 02             5298 	.byte	2
00000721 00             5299 	.byte	0
00000722 01             5300 	.byte	1
00000723 03             5301 	.byte	3
00000724 7d             5302 	.byte	125
00000725 02             5303 	.byte	2
00000726 02             5304 	.byte	2
00000727 01             5305 	.byte	1
00000728 0b             5306 	.byte	11
00000729 0b             5307 	.byte	11
0000072a 000502         5308 	.byte	0,5,2
0000072d 00000000*      5309 	.word	.LDWlin77
00000731 03             5310 	.byte	3

                                                                      Page 100
                                                              C:\Users\nhuliyap\AppData\Local\Temp\gh_0000da81.s
00000732 04             5311 	.byte	4
00000733 02             5312 	.byte	2
00000734 00             5313 	.byte	0
00000735 01             5314 	.byte	1
00000736 02             5315 	.byte	2
00000737 00             5316 	.byte	0
00000738 0b             5317 	.byte	11
00000739 0b             5318 	.byte	11
0000073a 0b             5319 	.byte	11
0000073b 1b             5320 	.byte	27
0000073c 13             5321 	.byte	19
0000073d 02             5322 	.byte	2
0000073e 00             5323 	.byte	0
0000073f 0c             5324 	.byte	12
00000740 02             5325 	.byte	2
00000741 00             5326 	.byte	0
00000742 0c             5327 	.byte	12
00000743 000502         5328 	.byte	0,5,2
00000746 00000000*      5329 	.word	.LDWlin78
0000074a 0b             5330 	.byte	11
0000074b 0c             5331 	.byte	12
0000074c 1c             5332 	.byte	28
0000074d 2b             5333 	.byte	43
0000074e 13             5334 	.byte	19
0000074f 13             5335 	.byte	19
00000750 13             5336 	.byte	19
00000751 13             5337 	.byte	19
00000752 000502         5338 	.byte	0,5,2
00000755 00000000*      5339 	.word	.LDWlin79
00000759 0b             5340 	.byte	11
0000075a 02             5341 	.byte	2
0000075b 00             5342 	.byte	0
0000075c 0b             5343 	.byte	11
0000075d 0b             5344 	.byte	11
0000075e 0b             5345 	.byte	11
0000075f 13             5346 	.byte	19
00000760 02             5347 	.byte	2
00000761 00             5348 	.byte	0
00000762 0c             5349 	.byte	12
00000763 06             5350 	.byte	6
00000764 02             5351 	.byte	2
00000765 02             5352 	.byte	2
00000766 02             5353 	.byte	2
00000767 04             5354 	.byte	4
00000768 000101         5355 	.byte	0,1,1
                        5356 	.section	.debug_info
                        5357 .LDW_4dcda60:
000011fc 0f             5358 	.byte	15
000011fd 746d70537461   5359 	.strz	"tmpStat_penu"
00001203 745f70656e75 
00001209 00 
0000120a 8d02           5360 	.byte	141,2
0000120c 45             5361 	.byte	69
0000120d 01             5362 	.byte	1
0000120e 00000000*      5363 	.word	.LDW_40c6d20
00001212 00             5364 	.byte	0
00001213 016e           5365 	.byte	1,110
                        5366 
                        5367 .LDW_40c1a60:
00001215 1d             5368 	.byte	29
00001216 00000000*      5369 	.word	.LDW02

                                                                      Page 101
                                                              C:\Users\nhuliyap\AppData\Local\Temp\gh_0000da81.s
0000121a 00000000*      5370 	.word	.LDW12
                        5371 
                        5372 .LDW_4dcd590:
0000121e 04             5373 	.byte	4
0000121f 636f6e7400     5374 	.strz	"cont"
00001224 8f02           5375 	.byte	143,2
00001226 14             5376 	.byte	20
00001227 01             5377 	.byte	1
00001228 00000000*      5378 	.word	.LDW_4dcdb10
0000122c 00             5379 	.byte	0
0000122d 00             5380 	.byte	0
0000122e 016b           5381 	.byte	1,107
                        5382 
                        5383 .LDW_4dcd538:
00001230 04             5384 	.byte	4
00001231 72657300       5385 	.strz	"res"
00001235 9002           5386 	.byte	144,2
00001237 14             5387 	.byte	20
00001238 01             5388 	.byte	1
00001239 00000000*      5389 	.word	.LDW_4d15818
0000123d 00             5390 	.byte	0
0000123e 00             5391 	.byte	0
0000123f 015a           5392 	.byte	1,90
                        5393 
00001241 00             5394 	.byte	0
                        5395 
00001242 00             5396 	.byte	0
                        5397 
                        5398 .LDW_4d008c8:
00001243 14             5399 	.byte	20
00001244 525f46444c5f   5400 	.strz	"R_FDL_Handler_ReactOnFatalErrors"
0000124a 48616e646c65 
00001250 725f52656163 
00001256 744f6e466174 
0000125c 616c4572726f 
00001262 727300 
00001265 d802           5401 	.byte	216,2
00001267 1b             5402 	.byte	27
00001268 01             5403 	.byte	1
00001269 00000000*      5404 	.word	.LDW_4dcdb10
0000126d 00000000*      5405 	.word	_R_FDL_Handler_ReactOnFatalErrors..C.3A.5C_ECU2.5CECU_Rivian_A1.5CTarget.5Crepo_projects.5CpRealEcu.5CcR_LATEST.5Cmake.5Coutput.5Cobjects.5Cr_fdl_user_if.
00001271 00000000*      5406 	.word	___ghs_eofn_R_FDL_Handler_ReactOnFatalErrors
00001275 0153           5407 	.byte	1,83
00001277 828080c00b     5408 	.byte	130,128,128,192,11
0000127c 10             5409 	.byte	16
0000127d 03             5410 	.byte	3
0000127e 10             5411 	.byte	16
0000127f 00             5412 	.byte	0
00001280 00             5413 	.byte	0
00001281 00             5414 	.byte	0
00001282 00             5415 	.byte	0
00001283 01             5416 	.byte	1
00001284 00             5417 	.byte	0
00001285 01             5418 	.byte	1
                        5419 
                        5420 	.section	.debug_frame
                        5421 .LDW_4dc2fa8:
0000013c 00000000*      5422 	.word	.LDW_unq_e-.LDW_unq_d
                        5423 .LDW_unq_d:
00000140 00000000*      5424 	.word	.LDW_4e8d320
00000144 00000000*      5425 	.word	_R_FDL_Handler_ReactOnFatalErrors..C.3A.5C_ECU2.5CECU_Rivian_A1.5CTarget.5Crepo_projects.5CpRealEcu.5CcR_LATEST.5Cmake.5Coutput.5Cobjects.5Cr_fdl_user_if.

                                                                      Page 102
                                                              C:\Users\nhuliyap\AppData\Local\Temp\gh_0000da81.s
00000148 00000000*      5426 	.word	___ghs_eofn_R_FDL_Handler_ReactOnFatalErrors-_R_FDL_Handler_ReactOnFatalErrors..C.3A.5C_ECU2.5CECU_Rivian_A1.5CTarget.5Crepo_projects.5CpRealEcu.5CcR_LATEST.5Cmake.5Coutput.5Cobjects.5Cr_fdl_user_if.
0000014c 44             5427 	.byte	68
0000014d 9f             5428 	.byte	159
0000014e 00             5429 	.byte	0
0000014f 40             5430 	.byte	64
00000150 9d             5431 	.byte	157
00000151 04             5432 	.byte	4
00000152 40             5433 	.byte	64
00000153 9c             5434 	.byte	156
00000154 08             5435 	.byte	8
00000155 40             5436 	.byte	64
00000156 9b             5437 	.byte	155
00000157 0c             5438 	.byte	12
00000158 01             5439 	.byte	1
00000159 00000000*      5440 	.word	.LDW32
0000015d 00             5441 	.byte	0
0000015e 00             5442 	.byte	0
0000015f 00             5443 	.byte	0
                        5444 .LDW_unq_e:
                        5445 	.section	.debug_line
0000076b 000502         5446 	.byte	0,5,2
0000076e 00000000*      5447 	.word	_R_FDL_Handler_ReactOnFatalErrors..C.3A.5C_ECU2.5CECU_Rivian_A1.5CTarget.5Crepo_projects.5CpRealEcu.5CcR_LATEST.5Cmake.5Coutput.5Cobjects.5Cr_fdl_user_if.
00000772 03             5448 	.byte	3
00000773 d802           5449 	.byte	216,2
00000775 02             5450 	.byte	2
00000776 00             5451 	.byte	0
00000777 01             5452 	.byte	1
00000778 06             5453 	.byte	6
00000779 03             5454 	.byte	3
0000077a 04             5455 	.byte	4
0000077b 02             5456 	.byte	2
0000077c 06             5457 	.byte	6
0000077d 01             5458 	.byte	1
0000077e 14             5459 	.byte	20
0000077f 000502         5460 	.byte	0,5,2
00000782 00000000*      5461 	.word	.LDWlin80
00000786 0c             5462 	.byte	12
00000787 000502         5463 	.byte	0,5,2
0000078a 00000000*      5464 	.word	.LDWlin81
0000078e 0b             5465 	.byte	11
0000078f 0b             5466 	.byte	11
00000790 000502         5467 	.byte	0,5,2
00000793 00000000*      5468 	.word	.LDWlin82
00000797 0b             5469 	.byte	11
00000798 000502         5470 	.byte	0,5,2
0000079b 00000000*      5471 	.word	.LDWlin83
0000079f 0c             5472 	.byte	12
000007a0 000502         5473 	.byte	0,5,2
000007a3 00000000*      5474 	.word	.LDWlin84
000007a7 0b             5475 	.byte	11
000007a8 0b             5476 	.byte	11
000007a9 000502         5477 	.byte	0,5,2
000007ac 00000000*      5478 	.word	.LDWlin85
000007b0 0c             5479 	.byte	12
000007b1 1b             5480 	.byte	27
000007b2 13             5481 	.byte	19
000007b3 0b             5482 	.byte	11
000007b4 0c             5483 	.byte	12
000007b5 02             5484 	.byte	2
000007b6 00             5485 	.byte	0
000007b7 0c             5486 	.byte	12

                                                                      Page 103
                                                              C:\Users\nhuliyap\AppData\Local\Temp\gh_0000da81.s
000007b8 23             5487 	.byte	35
000007b9 02             5488 	.byte	2
000007ba 00             5489 	.byte	0
000007bb 0c             5490 	.byte	12
000007bc 06             5491 	.byte	6
000007bd 02             5492 	.byte	2
000007be 02             5493 	.byte	2
000007bf 02             5494 	.byte	2
000007c0 04             5495 	.byte	4
000007c1 000101         5496 	.byte	0,1,1
                        5497 	.section	.debug_info
                        5498 .LDW_4dcd8a8:
00001286 0f             5499 	.byte	15
00001287 746d70537461   5500 	.strz	"tmpStat_penu"
0000128d 745f70656e75 
00001293 00 
00001294 d802           5501 	.byte	216,2
00001296 4e             5502 	.byte	78
00001297 01             5503 	.byte	1
00001298 00000000*      5504 	.word	.LDW_40c6d20
0000129c 00             5505 	.byte	0
0000129d 016b           5506 	.byte	1,107
                        5507 
                        5508 .LDW_41071f8:
0000129f 1d             5509 	.byte	29
000012a0 00000000*      5510 	.word	.LDW22
000012a4 00000000*      5511 	.word	.LDW32
                        5512 
                        5513 .LDW_4dcd6f0:
000012a8 04             5514 	.byte	4
000012a9 636f6e7400     5515 	.strz	"cont"
000012ae da02           5516 	.byte	218,2
000012b0 14             5517 	.byte	20
000012b1 01             5518 	.byte	1
000012b2 00000000*      5519 	.word	.LDW_4dcdb10
000012b6 00             5520 	.byte	0
000012b7 00             5521 	.byte	0
000012b8 016c           5522 	.byte	1,108
                        5523 
                        5524 .LDW_4dcd640:
000012ba 04             5525 	.byte	4
000012bb 7374617400     5526 	.strz	"stat"
000012c0 db02           5527 	.byte	219,2
000012c2 14             5528 	.byte	20
000012c3 01             5529 	.byte	1
000012c4 00000000*      5530 	.word	.LDW_4d15818
000012c8 00             5531 	.byte	0
000012c9 00             5532 	.byte	0
000012ca 016d           5533 	.byte	1,109
                        5534 
000012cc 00             5535 	.byte	0
                        5536 
000012cd 00             5537 	.byte	0
                        5538 
                        5539 .LDW_4d00960:
000012ce 14             5540 	.byte	20
000012cf 525f46444c5f   5541 	.strz	"R_FDL_Handler_StatusCheckAndSuspendOnReady"
000012d5 48616e646c65 
000012db 725f53746174 
000012e1 757343686563 
000012e7 6b416e645375 

                                                                      Page 104
                                                              C:\Users\nhuliyap\AppData\Local\Temp\gh_0000da81.s
000012ed 7370656e644f 
000012f3 6e5265616479 
000012f9 00 
000012fa fb02           5542 	.byte	251,2
000012fc 1b             5543 	.byte	27
000012fd 01             5544 	.byte	1
000012fe 00000000*      5545 	.word	.LDW_4dcdb10
00001302 00000000*      5546 	.word	_R_FDL_Handler_StatusCheckAndSuspendOnReady..C.3A.5C_ECU2.5CECU_Rivian_A1.5CTarget.5Crepo_projects.5CpRealEcu.5CcR_LATEST.5Cmake.5Coutput.5Cobjects.5Cr_fdl_user_if.
00001306 00000000*      5547 	.word	___ghs_eofn_R_FDL_Handler_StatusCheckAndSuspendOnReady
0000130a 0153           5548 	.byte	1,83
0000130c 828080e00b     5549 	.byte	130,128,128,224,11
00001311 14             5550 	.byte	20
00001312 03             5551 	.byte	3
00001313 14             5552 	.byte	20
00001314 00             5553 	.byte	0
00001315 00             5554 	.byte	0
00001316 00             5555 	.byte	0
00001317 00             5556 	.byte	0
00001318 01             5557 	.byte	1
00001319 00             5558 	.byte	0
0000131a 01             5559 	.byte	1
                        5560 
                        5561 	.section	.debug_frame
                        5562 .LDW_4dc2a68:
00000160 00000000*      5563 	.word	.LDW_unq_10-.LDW_unq_f
                        5564 .LDW_unq_f:
00000164 00000000*      5565 	.word	.LDW_4e8d320
00000168 00000000*      5566 	.word	_R_FDL_Handler_StatusCheckAndSuspendOnReady..C.3A.5C_ECU2.5CECU_Rivian_A1.5CTarget.5Crepo_projects.5CpRealEcu.5CcR_LATEST.5Cmake.5Coutput.5Cobjects.5Cr_fdl_user_if.
0000016c 00000000*      5567 	.word	___ghs_eofn_R_FDL_Handler_StatusCheckAndSuspendOnReady-_R_FDL_Handler_StatusCheckAndSuspendOnReady..C.3A.5C_ECU2.5CECU_Rivian_A1.5CTarget.5Crepo_projects.5CpRealEcu.5CcR_LATEST.5Cmake.5Coutput.5Cobjects.5Cr_fdl_user_if.
00000170 44             5568 	.byte	68
00000171 9f             5569 	.byte	159
00000172 00             5570 	.byte	0
00000173 40             5571 	.byte	64
00000174 9d             5572 	.byte	157
00000175 04             5573 	.byte	4
00000176 40             5574 	.byte	64
00000177 9c             5575 	.byte	156
00000178 08             5576 	.byte	8
00000179 40             5577 	.byte	64
0000017a 9b             5578 	.byte	155
0000017b 0c             5579 	.byte	12
0000017c 40             5580 	.byte	64
0000017d 9a             5581 	.byte	154
0000017e 10             5582 	.byte	16
0000017f 01             5583 	.byte	1
00000180 00000000*      5584 	.word	.LDW52
                        5585 .LDW_unq_10:
                        5586 	.section	.debug_line
000007c4 000502         5587 	.byte	0,5,2
000007c7 00000000*      5588 	.word	_R_FDL_Handler_StatusCheckAndSuspendOnReady..C.3A.5C_ECU2.5CECU_Rivian_A1.5CTarget.5Crepo_projects.5CpRealEcu.5CcR_LATEST.5Cmake.5Coutput.5Cobjects.5Cr_fdl_user_if.
000007cb 03             5589 	.byte	3
000007cc fb02           5590 	.byte	251,2
000007ce 02             5591 	.byte	2
000007cf 00             5592 	.byte	0
000007d0 01             5593 	.byte	1
000007d1 06             5594 	.byte	6
000007d2 03             5595 	.byte	3
000007d3 04             5596 	.byte	4
000007d4 02             5597 	.byte	2
000007d5 06             5598 	.byte	6
000007d6 01             5599 	.byte	1

                                                                      Page 105
                                                              C:\Users\nhuliyap\AppData\Local\Temp\gh_0000da81.s
000007d7 14             5600 	.byte	20
000007d8 000502         5601 	.byte	0,5,2
000007db 00000000*      5602 	.word	.LDWlin86
000007df 0b             5603 	.byte	11
000007e0 000502         5604 	.byte	0,5,2
000007e3 00000000*      5605 	.word	.LDWlin87
000007e7 0c             5606 	.byte	12
000007e8 000502         5607 	.byte	0,5,2
000007eb 00000000*      5608 	.word	.LDWlin88
000007ef 0b             5609 	.byte	11
000007f0 0c             5610 	.byte	12
000007f1 1b             5611 	.byte	27
000007f2 000502         5612 	.byte	0,5,2
000007f5 00000000*      5613 	.word	.LDWlin89
000007f9 0b             5614 	.byte	11
000007fa 02             5615 	.byte	2
000007fb 00             5616 	.byte	0
000007fc 0b             5617 	.byte	11
000007fd 000502         5618 	.byte	0,5,2
00000800 00000000*      5619 	.word	.LDWlin90
00000804 0b             5620 	.byte	11
00000805 0b             5621 	.byte	11
00000806 1c             5622 	.byte	28
00000807 000502         5623 	.byte	0,5,2
0000080a 00000000*      5624 	.word	.LDWlin91
0000080e 0b             5625 	.byte	11
0000080f 000502         5626 	.byte	0,5,2
00000812 00000000*      5627 	.word	.LDWlin92
00000816 0c             5628 	.byte	12
00000817 000502         5629 	.byte	0,5,2
0000081a 00000000*      5630 	.word	.LDWlin93
0000081e 0b             5631 	.byte	11
0000081f 0b             5632 	.byte	11
00000820 24             5633 	.byte	36
00000821 1c             5634 	.byte	28
00000822 000502         5635 	.byte	0,5,2
00000825 00000000*      5636 	.word	.LDWlin94
00000829 0b             5637 	.byte	11
0000082a 0b             5638 	.byte	11
0000082b 0b             5639 	.byte	11
0000082c 1b             5640 	.byte	27
0000082d 23             5641 	.byte	35
0000082e 02             5642 	.byte	2
0000082f 00             5643 	.byte	0
00000830 0c             5644 	.byte	12
00000831 1b             5645 	.byte	27
00000832 13             5646 	.byte	19
00000833 13             5647 	.byte	19
00000834 34             5648 	.byte	52
00000835 13             5649 	.byte	19
00000836 02             5650 	.byte	2
00000837 00             5651 	.byte	0
00000838 0c             5652 	.byte	12
00000839 06             5653 	.byte	6
0000083a 02             5654 	.byte	2
0000083b 02             5655 	.byte	2
0000083c 02             5656 	.byte	2
0000083d 04             5657 	.byte	4
0000083e 000101         5658 	.byte	0,1,1
                        5659 	.section	.debug_info
                        5660 .LDW_4dcd488:

                                                                      Page 106
                                                              C:\Users\nhuliyap\AppData\Local\Temp\gh_0000da81.s
0000131b 0f             5661 	.byte	15
0000131c 746d70537461   5662 	.strz	"tmpStat_penu"
00001322 745f70656e75 
00001328 00 
00001329 fb02           5663 	.byte	251,2
0000132b 58             5664 	.byte	88
0000132c 01             5665 	.byte	1
0000132d 00000000*      5666 	.word	.LDW_40c6d20
00001331 00             5667 	.byte	0
00001332 016b           5668 	.byte	1,107
                        5669 
                        5670 .LDW_4107618:
00001334 1d             5671 	.byte	29
00001335 00000000*      5672 	.word	.LDW42
00001339 00000000*      5673 	.word	.LDW52
                        5674 
                        5675 .LDW_4dcd748:
0000133d 04             5676 	.byte	4
0000133e 636f6e7400     5677 	.strz	"cont"
00001343 fd02           5678 	.byte	253,2
00001345 14             5679 	.byte	20
00001346 01             5680 	.byte	1
00001347 00000000*      5681 	.word	.LDW_4dcdb10
0000134b 00             5682 	.byte	0
0000134c 00             5683 	.byte	0
0000134d 016a           5684 	.byte	1,106
                        5685 
                        5686 .LDW_4dcd7f8:
0000134f 05             5687 	.byte	5
00001350 72657300       5688 	.strz	"res"
00001354 fe02           5689 	.byte	254,2
00001356 14             5690 	.byte	20
00001357 01             5691 	.byte	1
00001358 00000000*      5692 	.word	.LDW_4d15818
0000135c 00             5693 	.byte	0
0000135d 00             5694 	.byte	0
                        5695 
0000135e 00             5696 	.byte	0
                        5697 
0000135f 00             5698 	.byte	0
                        5699 
                        5700 .LDW_4d009f8:
00001360 14             5701 	.byte	20
00001361 525f46444c5f   5702 	.strz	"R_FDL_Handler_MultiOperation"
00001367 48616e646c65 
0000136d 725f4d756c74 
00001373 694f70657261 
00001379 74696f6e00 
0000137e ae03           5703 	.byte	174,3
00001380 1b             5704 	.byte	27
00001381 01             5705 	.byte	1
00001382 00000000*      5706 	.word	.LDW_4dcdb10
00001386 00000000*      5707 	.word	_R_FDL_Handler_MultiOperation..C.3A.5C_ECU2.5CECU_Rivian_A1.5CTarget.5Crepo_projects.5CpRealEcu.5CcR_LATEST.5Cmake.5Coutput.5Cobjects.5Cr_fdl_user_if.
0000138a 00000000*      5708 	.word	___ghs_eofn_R_FDL_Handler_MultiOperation
0000138e 0153           5709 	.byte	1,83
00001390 828080800b     5710 	.byte	130,128,128,128,11
00001395 0c             5711 	.byte	12
00001396 03             5712 	.byte	3
00001397 10             5713 	.byte	16
00001398 00             5714 	.byte	0
00001399 00             5715 	.byte	0

                                                                      Page 107
                                                              C:\Users\nhuliyap\AppData\Local\Temp\gh_0000da81.s
0000139a 00             5716 	.byte	0
0000139b 00             5717 	.byte	0
0000139c 01             5718 	.byte	1
0000139d 00             5719 	.byte	0
0000139e 01             5720 	.byte	1
                        5721 
                        5722 	.section	.debug_frame
                        5723 .LDW_4dc25a8:
00000184 00000000*      5724 	.word	.LDW_unq_12-.LDW_unq_11
                        5725 .LDW_unq_11:
00000188 00000000*      5726 	.word	.LDW_4e8d320
0000018c 00000000*      5727 	.word	_R_FDL_Handler_MultiOperation..C.3A.5C_ECU2.5CECU_Rivian_A1.5CTarget.5Crepo_projects.5CpRealEcu.5CcR_LATEST.5Cmake.5Coutput.5Cobjects.5Cr_fdl_user_if.
00000190 00000000*      5728 	.word	___ghs_eofn_R_FDL_Handler_MultiOperation-_R_FDL_Handler_MultiOperation..C.3A.5C_ECU2.5CECU_Rivian_A1.5CTarget.5Crepo_projects.5CpRealEcu.5CcR_LATEST.5Cmake.5Coutput.5Cobjects.5Cr_fdl_user_if.
00000194 44             5729 	.byte	68
00000195 9f             5730 	.byte	159
00000196 03             5731 	.byte	3
00000197 40             5732 	.byte	64
00000198 9d             5733 	.byte	157
00000199 07             5734 	.byte	7
0000019a 40             5735 	.byte	64
0000019b 9c             5736 	.byte	156
0000019c 0b             5737 	.byte	11
0000019d 01             5738 	.byte	1
0000019e 00000000*      5739 	.word	.LDW72
000001a2 00             5740 	.byte	0
000001a3 00             5741 	.byte	0
                        5742 .LDW_unq_12:
                        5743 	.section	.debug_line
00000841 000502         5744 	.byte	0,5,2
00000844 00000000*      5745 	.word	_R_FDL_Handler_MultiOperation..C.3A.5C_ECU2.5CECU_Rivian_A1.5CTarget.5Crepo_projects.5CpRealEcu.5CcR_LATEST.5Cmake.5Coutput.5Cobjects.5Cr_fdl_user_if.
00000848 03             5746 	.byte	3
00000849 ae03           5747 	.byte	174,3
0000084b 02             5748 	.byte	2
0000084c 00             5749 	.byte	0
0000084d 01             5750 	.byte	1
0000084e 06             5751 	.byte	6
0000084f 03             5752 	.byte	3
00000850 06             5753 	.byte	6
00000851 02             5754 	.byte	2
00000852 06             5755 	.byte	6
00000853 01             5756 	.byte	1
00000854 000502         5757 	.byte	0,5,2
00000857 00000000*      5758 	.word	.LDWlin95
0000085b 0c             5759 	.byte	12
0000085c 03             5760 	.byte	3
0000085d 7d             5761 	.byte	125
0000085e 02             5762 	.byte	2
0000085f 04             5763 	.byte	4
00000860 01             5764 	.byte	1
00000861 000502         5765 	.byte	0,5,2
00000864 00000000*      5766 	.word	.LDWlin96
00000868 03             5767 	.byte	3
00000869 05             5768 	.byte	5
0000086a 02             5769 	.byte	2
0000086b 00             5770 	.byte	0
0000086c 01             5771 	.byte	1
0000086d 03             5772 	.byte	3
0000086e 04             5773 	.byte	4
0000086f 02             5774 	.byte	2
00000870 00             5775 	.byte	0
00000871 01             5776 	.byte	1

                                                                      Page 108
                                                              C:\Users\nhuliyap\AppData\Local\Temp\gh_0000da81.s
00000872 000502         5777 	.byte	0,5,2
00000875 00000000*      5778 	.word	.LDWlin97
00000879 03             5779 	.byte	3
0000087a 0f             5780 	.byte	15
0000087b 02             5781 	.byte	2
0000087c 00             5782 	.byte	0
0000087d 01             5783 	.byte	1
0000087e 03             5784 	.byte	3
0000087f 73             5785 	.byte	115
00000880 02             5786 	.byte	2
00000881 04             5787 	.byte	4
00000882 01             5788 	.byte	1
00000883 03             5789 	.byte	3
00000884 0a             5790 	.byte	10
00000885 02             5791 	.byte	2
00000886 00             5792 	.byte	0
00000887 01             5793 	.byte	1
00000888 000502         5794 	.byte	0,5,2
0000088b 00000000*      5795 	.word	.LDWlin98
0000088f 03             5796 	.byte	3
00000890 08             5797 	.byte	8
00000891 02             5798 	.byte	2
00000892 00             5799 	.byte	0
00000893 01             5800 	.byte	1
00000894 2b             5801 	.byte	43
00000895 000502         5802 	.byte	0,5,2
00000898 00000000*      5803 	.word	.LDWlin99
0000089c 0b             5804 	.byte	11
0000089d 0b             5805 	.byte	11
0000089e 02             5806 	.byte	2
0000089f 00             5807 	.byte	0
000008a0 000502         5808 	.byte	0,5,2
000008a3 00000000*      5809 	.word	.LDWlin100
000008a7 0b             5810 	.byte	11
000008a8 0b             5811 	.byte	11
000008a9 000502         5812 	.byte	0,5,2
000008ac 00000000*      5813 	.word	.LDWlin101
000008b0 03             5814 	.byte	3
000008b1 05             5815 	.byte	5
000008b2 02             5816 	.byte	2
000008b3 00             5817 	.byte	0
000008b4 01             5818 	.byte	1
000008b5 000502         5819 	.byte	0,5,2
000008b8 00000000*      5820 	.word	.LDWlin102
000008bc 0b             5821 	.byte	11
000008bd 0b             5822 	.byte	11
000008be 0b             5823 	.byte	11
000008bf 34             5824 	.byte	52
000008c0 000502         5825 	.byte	0,5,2
000008c3 00000000*      5826 	.word	.LDWlin103
000008c7 0c             5827 	.byte	12
000008c8 000502         5828 	.byte	0,5,2
000008cb 00000000*      5829 	.word	.LDWlin104
000008cf 03             5830 	.byte	3
000008d0 05             5831 	.byte	5
000008d1 02             5832 	.byte	2
000008d2 00             5833 	.byte	0
000008d3 01             5834 	.byte	1
000008d4 3b             5835 	.byte	59
000008d5 02             5836 	.byte	2
000008d6 00             5837 	.byte	0

                                                                      Page 109
                                                              C:\Users\nhuliyap\AppData\Local\Temp\gh_0000da81.s
000008d7 02             5838 	.byte	2
000008d8 00             5839 	.byte	0
000008d9 02             5840 	.byte	2
000008da 00             5841 	.byte	0
000008db 0c             5842 	.byte	12
000008dc 000502         5843 	.byte	0,5,2
000008df 00000000*      5844 	.word	.LDWlin105
000008e3 0b             5845 	.byte	11
000008e4 0b             5846 	.byte	11
000008e5 000502         5847 	.byte	0,5,2
000008e8 00000000*      5848 	.word	.LDWlin106
000008ec 0b             5849 	.byte	11
000008ed 000502         5850 	.byte	0,5,2
000008f0 00000000*      5851 	.word	.LDWlin107
000008f4 0b             5852 	.byte	11
000008f5 0b             5853 	.byte	11
000008f6 24             5854 	.byte	36
000008f7 23             5855 	.byte	35
000008f8 1b             5856 	.byte	27
000008f9 02             5857 	.byte	2
000008fa 00             5858 	.byte	0
000008fb 0b             5859 	.byte	11
000008fc 02             5860 	.byte	2
000008fd 00             5861 	.byte	0
000008fe 0c             5862 	.byte	12
000008ff 000502         5863 	.byte	0,5,2
00000902 00000000*      5864 	.word	.LDWlin108
00000906 0b             5865 	.byte	11
00000907 02             5866 	.byte	2
00000908 00             5867 	.byte	0
00000909 0c             5868 	.byte	12
0000090a 02             5869 	.byte	2
0000090b 04             5870 	.byte	4
0000090c 000101         5871 	.byte	0,1,1
                        5872 	.section	.debug_info
                        5873 .LDW_4dcd900:
0000139f 0f             5874 	.byte	15
000013a0 746d70537461   5875 	.strz	"tmpStat_penu"
000013a6 745f70656e75 
000013ac 00 
000013ad ae03           5876 	.byte	174,3
000013af 4a             5877 	.byte	74
000013b0 01             5878 	.byte	1
000013b1 00000000*      5879 	.word	.LDW_40c6d20
000013b5 00             5880 	.byte	0
000013b6 016c           5881 	.byte	1,108
                        5882 
                        5883 .LDW_4107678:
000013b8 1d             5884 	.byte	29
000013b9 00000000*      5885 	.word	.LDW62
000013bd 00000000*      5886 	.word	.LDW72
                        5887 
                        5888 .LDW_4dcd850:
000013c1 04             5889 	.byte	4
000013c2 636f6e7400     5890 	.strz	"cont"
000013c7 b003           5891 	.byte	176,3
000013c9 15             5892 	.byte	21
000013ca 01             5893 	.byte	1
000013cb 00000000*      5894 	.word	.LDW_4dcdb10
000013cf 00             5895 	.byte	0
000013d0 00             5896 	.byte	0

                                                                      Page 110
                                                              C:\Users\nhuliyap\AppData\Local\Temp\gh_0000da81.s
000013d1 015a           5897 	.byte	1,90
                        5898 
                        5899 .LDW_4dcd958:
000013d3 04             5900 	.byte	4
000013d4 636e7400       5901 	.strz	"cnt"
000013d8 b103           5902 	.byte	177,3
000013da 14             5903 	.byte	20
000013db 01             5904 	.byte	1
000013dc 00000000*      5905 	.word	.LDW_4d15ac0
000013e0 00             5906 	.byte	0
000013e1 00             5907 	.byte	0
000013e2 0273           5908 	.byte	2,115
000013e4 00             5909 	.byte	0
                        5910 
                        5911 .LDW_4dcdb68:
000013e5 04             5912 	.byte	4
000013e6 636d6400       5913 	.strz	"cmd"
000013ea b203           5914 	.byte	178,3
000013ec 15             5915 	.byte	21
000013ed 01             5916 	.byte	1
000013ee 00000000*      5917 	.word	.LDW_4dcd5e8
000013f2 00             5918 	.byte	0
000013f3 00             5919 	.byte	0
000013f4 0159           5920 	.byte	1,89
                        5921 
000013f6 00             5922 	.byte	0
                        5923 
000013f7 00             5924 	.byte	0
                        5925 
                        5926 .LDW_4d00ae0:
000013f8 14             5927 	.byte	20
000013f9 525f46444c5f   5928 	.strz	"R_FDL_Handler_OperationStates"
000013ff 48616e646c65 
00001405 725f4f706572 
0000140b 6174696f6e53 
00001411 746174657300 
00001417 8004           5929 	.byte	128,4
00001419 1b             5930 	.byte	27
0000141a 01             5931 	.byte	1
0000141b 00000000*      5932 	.word	.LDW_4dcdb10
0000141f 00000000*      5933 	.word	_R_FDL_Handler_OperationStates..C.3A.5C_ECU2.5CECU_Rivian_A1.5CTarget.5Crepo_projects.5CpRealEcu.5CcR_LATEST.5Cmake.5Coutput.5Cobjects.5Cr_fdl_user_if.
00001423 00000000*      5934 	.word	___ghs_eofn_R_FDL_Handler_OperationStates
00001427 0153           5935 	.byte	1,83
00001429 828080c00b     5936 	.byte	130,128,128,192,11
0000142e 10             5937 	.byte	16
0000142f 03             5938 	.byte	3
00001430 10             5939 	.byte	16
00001431 00             5940 	.byte	0
00001432 00             5941 	.byte	0
00001433 00             5942 	.byte	0
00001434 00             5943 	.byte	0
00001435 01             5944 	.byte	1
00001436 00             5945 	.byte	0
00001437 01             5946 	.byte	1
                        5947 
                        5948 	.section	.debug_frame
                        5949 .LDW_4dc2ba8:
000001a4 00000000*      5950 	.word	.LDW_unq_14-.LDW_unq_13
                        5951 .LDW_unq_13:
000001a8 00000000*      5952 	.word	.LDW_4e8d320
000001ac 00000000*      5953 	.word	_R_FDL_Handler_OperationStates..C.3A.5C_ECU2.5CECU_Rivian_A1.5CTarget.5Crepo_projects.5CpRealEcu.5CcR_LATEST.5Cmake.5Coutput.5Cobjects.5Cr_fdl_user_if.

                                                                      Page 111
                                                              C:\Users\nhuliyap\AppData\Local\Temp\gh_0000da81.s
000001b0 00000000*      5954 	.word	___ghs_eofn_R_FDL_Handler_OperationStates-_R_FDL_Handler_OperationStates..C.3A.5C_ECU2.5CECU_Rivian_A1.5CTarget.5Crepo_projects.5CpRealEcu.5CcR_LATEST.5Cmake.5Coutput.5Cobjects.5Cr_fdl_user_if.
000001b4 44             5955 	.byte	68
000001b5 9f             5956 	.byte	159
000001b6 00             5957 	.byte	0
000001b7 40             5958 	.byte	64
000001b8 9d             5959 	.byte	157
000001b9 04             5960 	.byte	4
000001ba 40             5961 	.byte	64
000001bb 9c             5962 	.byte	156
000001bc 08             5963 	.byte	8
000001bd 40             5964 	.byte	64
000001be 9b             5965 	.byte	155
000001bf 0c             5966 	.byte	12
000001c0 01             5967 	.byte	1
000001c1 00000000*      5968 	.word	.LDW92
000001c5 00             5969 	.byte	0
000001c6 00             5970 	.byte	0
000001c7 00             5971 	.byte	0
                        5972 .LDW_unq_14:
                        5973 	.section	.debug_line
0000090f 000502         5974 	.byte	0,5,2
00000912 00000000*      5975 	.word	_R_FDL_Handler_OperationStates..C.3A.5C_ECU2.5CECU_Rivian_A1.5CTarget.5Crepo_projects.5CpRealEcu.5CcR_LATEST.5Cmake.5Coutput.5Cobjects.5Cr_fdl_user_if.
00000916 03             5976 	.byte	3
00000917 8004           5977 	.byte	128,4
00000919 02             5978 	.byte	2
0000091a 00             5979 	.byte	0
0000091b 01             5980 	.byte	1
0000091c 06             5981 	.byte	6
0000091d 03             5982 	.byte	3
0000091e 05             5983 	.byte	5
0000091f 02             5984 	.byte	2
00000920 06             5985 	.byte	6
00000921 01             5986 	.byte	1
00000922 000502         5987 	.byte	0,5,2
00000925 00000000*      5988 	.word	.LDWlin109
00000929 03             5989 	.byte	3
0000092a 7e             5990 	.byte	126
0000092b 02             5991 	.byte	2
0000092c 00             5992 	.byte	0
0000092d 01             5993 	.byte	1
0000092e 000502         5994 	.byte	0,5,2
00000931 00000000*      5995 	.word	.LDWlin110
00000935 03             5996 	.byte	3
00000936 04             5997 	.byte	4
00000937 02             5998 	.byte	2
00000938 00             5999 	.byte	0
00000939 01             6000 	.byte	1
0000093a 0b             6001 	.byte	11
0000093b 000502         6002 	.byte	0,5,2
0000093e 00000000*      6003 	.word	.LDWlin111
00000942 0b             6004 	.byte	11
00000943 000502         6005 	.byte	0,5,2
00000946 00000000*      6006 	.word	.LDWlin112
0000094a 0b             6007 	.byte	11
0000094b 0b             6008 	.byte	11
0000094c 000502         6009 	.byte	0,5,2
0000094f 00000000*      6010 	.word	.LDWlin113
00000953 0d             6011 	.byte	13
00000954 0b             6012 	.byte	11
00000955 000502         6013 	.byte	0,5,2
00000958 00000000*      6014 	.word	.LDWlin114

                                                                      Page 112
                                                              C:\Users\nhuliyap\AppData\Local\Temp\gh_0000da81.s
0000095c 0b             6015 	.byte	11
0000095d 0b             6016 	.byte	11
0000095e 000502         6017 	.byte	0,5,2
00000961 00000000*      6018 	.word	.LDWlin115
00000965 0b             6019 	.byte	11
00000966 000502         6020 	.byte	0,5,2
00000969 00000000*      6021 	.word	.LDWlin116
0000096d 0c             6022 	.byte	12
0000096e 24             6023 	.byte	36
0000096f 03             6024 	.byte	3
00000970 7f             6025 	.byte	127
00000971 02             6026 	.byte	2
00000972 02             6027 	.byte	2
00000973 01             6028 	.byte	1
00000974 000502         6029 	.byte	0,5,2
00000977 00000000*      6030 	.word	.LDWlin117
0000097b 0c             6031 	.byte	12
0000097c 0c             6032 	.byte	12
0000097d 0b             6033 	.byte	11
0000097e 000502         6034 	.byte	0,5,2
00000981 00000000*      6035 	.word	.LDWlin118
00000985 0b             6036 	.byte	11
00000986 02             6037 	.byte	2
00000987 00             6038 	.byte	0
00000988 0b             6039 	.byte	11
00000989 03             6040 	.byte	3
0000098a 04             6041 	.byte	4
0000098b 02             6042 	.byte	2
0000098c 00             6043 	.byte	0
0000098d 01             6044 	.byte	1
0000098e 0c             6045 	.byte	12
0000098f 000502         6046 	.byte	0,5,2
00000992 00000000*      6047 	.word	.LDWlin119
00000996 0c             6048 	.byte	12
00000997 000502         6049 	.byte	0,5,2
0000099a 00000000*      6050 	.word	.LDWlin120
0000099e 0b             6051 	.byte	11
0000099f 000502         6052 	.byte	0,5,2
000009a2 00000000*      6053 	.word	.LDWlin121
000009a6 0b             6054 	.byte	11
000009a7 0b             6055 	.byte	11
000009a8 1b             6056 	.byte	27
000009a9 06             6057 	.byte	6
000009aa 25             6058 	.byte	37
000009ab 03             6059 	.byte	3
000009ac 2d             6060 	.byte	45
000009ad 02             6061 	.byte	2
000009ae 00             6062 	.byte	0
000009af 01             6063 	.byte	1
000009b0 06             6064 	.byte	6
000009b1 03             6065 	.byte	3
000009b2 22             6066 	.byte	34
000009b3 02             6067 	.byte	2
000009b4 00             6068 	.byte	0
000009b5 01             6069 	.byte	1
000009b6 0d             6070 	.byte	13
000009b7 0d             6071 	.byte	13
000009b8 0c             6072 	.byte	12
000009b9 0b             6073 	.byte	11
000009ba 0b             6074 	.byte	11
000009bb 0b             6075 	.byte	11

                                                                      Page 113
                                                              C:\Users\nhuliyap\AppData\Local\Temp\gh_0000da81.s
000009bc 000502         6076 	.byte	0,5,2
000009bf 00000000*      6077 	.word	.LDWlin122
000009c3 03             6078 	.byte	3
000009c4 a77f           6079 	.byte	167,127
000009c6 02             6080 	.byte	2
000009c7 00             6081 	.byte	0
000009c8 01             6082 	.byte	1
000009c9 03             6083 	.byte	3
000009ca 04             6084 	.byte	4
000009cb 02             6085 	.byte	2
000009cc 00             6086 	.byte	0
000009cd 01             6087 	.byte	1
000009ce 0c             6088 	.byte	12
000009cf 000502         6089 	.byte	0,5,2
000009d2 00000000*      6090 	.word	.LDWlin123
000009d6 0b             6091 	.byte	11
000009d7 000502         6092 	.byte	0,5,2
000009da 00000000*      6093 	.word	.LDWlin124
000009de 0c             6094 	.byte	12
000009df 000502         6095 	.byte	0,5,2
000009e2 00000000*      6096 	.word	.LDWlin125
000009e6 0c             6097 	.byte	12
000009e7 1b             6098 	.byte	27
000009e8 23             6099 	.byte	35
000009e9 13             6100 	.byte	19
000009ea 000502         6101 	.byte	0,5,2
000009ed 00000000*      6102 	.word	.LDWlin126
000009f1 02             6103 	.byte	2
000009f2 00             6104 	.byte	0
000009f3 03             6105 	.byte	3
000009f4 04             6106 	.byte	4
000009f5 02             6107 	.byte	2
000009f6 00             6108 	.byte	0
000009f7 01             6109 	.byte	1
000009f8 0b             6110 	.byte	11
000009f9 000502         6111 	.byte	0,5,2
000009fc 00000000*      6112 	.word	.LDWlin127
00000a00 0c             6113 	.byte	12
00000a01 000502         6114 	.byte	0,5,2
00000a04 00000000*      6115 	.word	.LDWlin128
00000a08 0b             6116 	.byte	11
00000a09 0b             6117 	.byte	11
00000a0a 000502         6118 	.byte	0,5,2
00000a0d 00000000*      6119 	.word	.LDWlin129
00000a11 03             6120 	.byte	3
00000a12 05             6121 	.byte	5
00000a13 02             6122 	.byte	2
00000a14 00             6123 	.byte	0
00000a15 01             6124 	.byte	1
00000a16 03             6125 	.byte	3
00000a17 7d             6126 	.byte	125
00000a18 02             6127 	.byte	2
00000a19 06             6128 	.byte	6
00000a1a 01             6129 	.byte	1
00000a1b 000502         6130 	.byte	0,5,2
00000a1e 00000000*      6131 	.word	.LDWlin130
00000a22 03             6132 	.byte	3
00000a23 04             6133 	.byte	4
00000a24 02             6134 	.byte	2
00000a25 00             6135 	.byte	0
00000a26 01             6136 	.byte	1

                                                                      Page 114
                                                              C:\Users\nhuliyap\AppData\Local\Temp\gh_0000da81.s
00000a27 0c             6137 	.byte	12
00000a28 000502         6138 	.byte	0,5,2
00000a2b 00000000*      6139 	.word	.LDWlin131
00000a2f 03             6140 	.byte	3
00000a30 05             6141 	.byte	5
00000a31 02             6142 	.byte	2
00000a32 00             6143 	.byte	0
00000a33 01             6144 	.byte	1
00000a34 02             6145 	.byte	2
00000a35 00             6146 	.byte	0
00000a36 0b             6147 	.byte	11
00000a37 02             6148 	.byte	2
00000a38 00             6149 	.byte	0
00000a39 0c             6150 	.byte	12
00000a3a 000502         6151 	.byte	0,5,2
00000a3d 00000000*      6152 	.word	.LDWlin132
00000a41 0b             6153 	.byte	11
00000a42 0b             6154 	.byte	11
00000a43 000502         6155 	.byte	0,5,2
00000a46 00000000*      6156 	.word	.LDWlin133
00000a4a 03             6157 	.byte	3
00000a4b 04             6158 	.byte	4
00000a4c 02             6159 	.byte	2
00000a4d 00             6160 	.byte	0
00000a4e 01             6161 	.byte	1
00000a4f 03             6162 	.byte	3
00000a50 04             6163 	.byte	4
00000a51 02             6164 	.byte	2
00000a52 00             6165 	.byte	0
00000a53 01             6166 	.byte	1
00000a54 0b             6167 	.byte	11
00000a55 000502         6168 	.byte	0,5,2
00000a58 00000000*      6169 	.word	.LDWlin134
00000a5c 0b             6170 	.byte	11
00000a5d 23             6171 	.byte	35
00000a5e 1b             6172 	.byte	27
00000a5f 000502         6173 	.byte	0,5,2
00000a62 00000000*      6174 	.word	.LDWlin135
00000a66 02             6175 	.byte	2
00000a67 00             6176 	.byte	0
00000a68 03             6177 	.byte	3
00000a69 04             6178 	.byte	4
00000a6a 02             6179 	.byte	2
00000a6b 00             6180 	.byte	0
00000a6c 01             6181 	.byte	1
00000a6d 0b             6182 	.byte	11
00000a6e 23             6183 	.byte	35
00000a6f 1b             6184 	.byte	27
00000a70 000502         6185 	.byte	0,5,2
00000a73 00000000*      6186 	.word	.LDWlin136
00000a77 02             6187 	.byte	2
00000a78 00             6188 	.byte	0
00000a79 03             6189 	.byte	3
00000a7a 04             6190 	.byte	4
00000a7b 02             6191 	.byte	2
00000a7c 00             6192 	.byte	0
00000a7d 01             6193 	.byte	1
00000a7e 0b             6194 	.byte	11
00000a7f 13             6195 	.byte	19
00000a80 1b             6196 	.byte	27
00000a81 23             6197 	.byte	35

                                                                      Page 115
                                                              C:\Users\nhuliyap\AppData\Local\Temp\gh_0000da81.s
00000a82 000502         6198 	.byte	0,5,2
00000a85 00000000*      6199 	.word	.LDWlin137
00000a89 02             6200 	.byte	2
00000a8a 00             6201 	.byte	0
00000a8b 03             6202 	.byte	3
00000a8c 04             6203 	.byte	4
00000a8d 02             6204 	.byte	2
00000a8e 00             6205 	.byte	0
00000a8f 01             6206 	.byte	1
00000a90 0b             6207 	.byte	11
00000a91 24             6208 	.byte	36
00000a92 1b             6209 	.byte	27
00000a93 000502         6210 	.byte	0,5,2
00000a96 00000000*      6211 	.word	.LDWlin138
00000a9a 0b             6212 	.byte	11
00000a9b 03             6213 	.byte	3
00000a9c 0d             6214 	.byte	13
00000a9d 02             6215 	.byte	2
00000a9e 04             6216 	.byte	4
00000a9f 01             6217 	.byte	1
00000aa0 02             6218 	.byte	2
00000aa1 00             6219 	.byte	0
00000aa2 0b             6220 	.byte	11
00000aa3 02             6221 	.byte	2
00000aa4 00             6222 	.byte	0
00000aa5 0b             6223 	.byte	11
00000aa6 06             6224 	.byte	6
00000aa7 02             6225 	.byte	2
00000aa8 02             6226 	.byte	2
00000aa9 02             6227 	.byte	2
00000aaa 04             6228 	.byte	4
00000aab 000101         6229 	.byte	0,1,1
                        6230 	.section	.debug_info
                        6231 .LDW_4dcd9b0:
00001438 0f             6232 	.byte	15
00001439 746d70537461   6233 	.strz	"tmpStat_penu"
0000143f 745f70656e75 
00001445 00 
00001446 8004           6234 	.byte	128,4
00001448 4b             6235 	.byte	75
00001449 01             6236 	.byte	1
0000144a 00000000*      6237 	.word	.LDW_40c6d20
0000144e 00             6238 	.byte	0
0000144f 016c           6239 	.byte	1,108
                        6240 
                        6241 .LDW_4107258:
00001451 1d             6242 	.byte	29
00001452 00000000*      6243 	.word	.LDW82
00001456 00000000*      6244 	.word	.LDW92
                        6245 
                        6246 .LDW_4dcdab8:
0000145a 04             6247 	.byte	4
0000145b 636f6e7400     6248 	.strz	"cont"
00001460 8204           6249 	.byte	130,4
00001462 12             6250 	.byte	18
00001463 01             6251 	.byte	1
00001464 00000000*      6252 	.word	.LDW_4dcdb10
00001468 00             6253 	.byte	0
00001469 00             6254 	.byte	0
0000146a 016b           6255 	.byte	1,107
                        6256 

                                                                      Page 116
                                                              C:\Users\nhuliyap\AppData\Local\Temp\gh_0000da81.s
0000146c 00             6257 	.byte	0
                        6258 
0000146d 00             6259 	.byte	0
                        6260 
                        6261 .LDW_4dcdc68:
0000146e 13             6262 	.byte	19
0000146f 525f46444c5f   6263 	.strz	"R_FDL_Handler"
00001475 48616e646c65 
0000147b 7200 
0000147d 9005           6264 	.byte	144,5
0000147f 06             6265 	.byte	6
00001480 01             6266 	.byte	1
00001481 00000000*      6267 	.word	_R_FDL_Handler
00001485 00000000*      6268 	.word	___ghs_eofn_R_FDL_Handler
00001489 0153           6269 	.byte	1,83
0000148b 828080800a     6270 	.byte	130,128,128,128,10
00001490 08             6271 	.byte	8
00001491 03             6272 	.byte	3
00001492 0c             6273 	.byte	12
00001493 00             6274 	.byte	0
00001494 00             6275 	.byte	0
00001495 00             6276 	.byte	0
00001496 01             6277 	.byte	1
00001497 01             6278 	.byte	1
00001498 00             6279 	.byte	0
00001499 01             6280 	.byte	1
                        6281 
                        6282 	.section	.debug_frame
                        6283 .LDW_4dc2668:
000001c8 00000000*      6284 	.word	.LDW_unq_16-.LDW_unq_15
                        6285 .LDW_unq_15:
000001cc 00000000*      6286 	.word	.LDW_4e8d320
000001d0 00000000*      6287 	.word	_R_FDL_Handler
000001d4 00000000*      6288 	.word	___ghs_eofn_R_FDL_Handler-_R_FDL_Handler
000001d8 44             6289 	.byte	68
000001d9 9f             6290 	.byte	159
000001da 03             6291 	.byte	3
000001db 40             6292 	.byte	64
000001dc 9d             6293 	.byte	157
000001dd 07             6294 	.byte	7
000001de 01             6295 	.byte	1
000001df 00000000*      6296 	.word	.LDW53
000001e3 00             6297 	.byte	0
                        6298 .LDW_unq_16:
                        6299 	.section	.debug_line
00000aae 000502         6300 	.byte	0,5,2
00000ab1 00000000*      6301 	.word	_R_FDL_Handler
00000ab5 03             6302 	.byte	3
00000ab6 8f05           6303 	.byte	143,5
00000ab8 02             6304 	.byte	2
00000ab9 00             6305 	.byte	0
00000aba 01             6306 	.byte	1
00000abb 06             6307 	.byte	6
00000abc 03             6308 	.byte	3
00000abd 05             6309 	.byte	5
00000abe 02             6310 	.byte	2
00000abf 04             6311 	.byte	4
00000ac0 01             6312 	.byte	1
00000ac1 24             6313 	.byte	36
00000ac2 000502         6314 	.byte	0,5,2
00000ac5 00000000*      6315 	.word	.LDWlin142

                                                                      Page 117
                                                              C:\Users\nhuliyap\AppData\Local\Temp\gh_0000da81.s
00000ac9 03             6316 	.byte	3
00000aca 04             6317 	.byte	4
00000acb 02             6318 	.byte	2
00000acc 00             6319 	.byte	0
00000acd 01             6320 	.byte	1
00000ace 0c             6321 	.byte	12
00000acf 000502         6322 	.byte	0,5,2
00000ad2 00000000*      6323 	.word	.LDWlin143
00000ad6 0c             6324 	.byte	12
00000ad7 000502         6325 	.byte	0,5,2
00000ada 00000000*      6326 	.word	.LDWlin144
00000ade 0b             6327 	.byte	11
00000adf 0b             6328 	.byte	11
00000ae0 000502         6329 	.byte	0,5,2
00000ae3 00000000*      6330 	.word	.LDWlin145
00000ae7 0b             6331 	.byte	11
00000ae8 02             6332 	.byte	2
00000ae9 00             6333 	.byte	0
00000aea 0c             6334 	.byte	12
00000aeb 000502         6335 	.byte	0,5,2
00000aee 00000000*      6336 	.word	.LDWlin146
00000af2 0b             6337 	.byte	11
00000af3 0b             6338 	.byte	11
00000af4 000502         6339 	.byte	0,5,2
00000af7 00000000*      6340 	.word	.LDWlin147
00000afb 0b             6341 	.byte	11
00000afc 02             6342 	.byte	2
00000afd 00             6343 	.byte	0
00000afe 0c             6344 	.byte	12
00000aff 000502         6345 	.byte	0,5,2
00000b02 00000000*      6346 	.word	.LDWlin148
00000b06 0b             6347 	.byte	11
00000b07 0b             6348 	.byte	11
00000b08 000502         6349 	.byte	0,5,2
00000b0b 00000000*      6350 	.word	.LDWlin149
00000b0f 0b             6351 	.byte	11
00000b10 02             6352 	.byte	2
00000b11 00             6353 	.byte	0
00000b12 0c             6354 	.byte	12
00000b13 000502         6355 	.byte	0,5,2
00000b16 00000000*      6356 	.word	.LDWlin150
00000b1a 0b             6357 	.byte	11
00000b1b 0b             6358 	.byte	11
00000b1c 000502         6359 	.byte	0,5,2
00000b1f 00000000*      6360 	.word	.LDWlin151
00000b23 0b             6361 	.byte	11
00000b24 02             6362 	.byte	2
00000b25 00             6363 	.byte	0
00000b26 0c             6364 	.byte	12
00000b27 000502         6365 	.byte	0,5,2
00000b2a 00000000*      6366 	.word	.LDWlin152
00000b2e 0b             6367 	.byte	11
00000b2f 0b             6368 	.byte	11
00000b30 000502         6369 	.byte	0,5,2
00000b33 00000000*      6370 	.word	.LDWlin153
00000b37 0b             6371 	.byte	11
00000b38 02             6372 	.byte	2
00000b39 00             6373 	.byte	0
00000b3a 0c             6374 	.byte	12
00000b3b 000502         6375 	.byte	0,5,2
00000b3e 00000000*      6376 	.word	.LDWlin154

                                                                      Page 118
                                                              C:\Users\nhuliyap\AppData\Local\Temp\gh_0000da81.s
00000b42 0b             6377 	.byte	11
00000b43 0b             6378 	.byte	11
00000b44 000502         6379 	.byte	0,5,2
00000b47 00000000*      6380 	.word	.LDWlin155
00000b4b 0b             6381 	.byte	11
00000b4c 02             6382 	.byte	2
00000b4d 00             6383 	.byte	0
00000b4e 0c             6384 	.byte	12
00000b4f 000502         6385 	.byte	0,5,2
00000b52 00000000*      6386 	.word	.LDWlin156
00000b56 0b             6387 	.byte	11
00000b57 0b             6388 	.byte	11
00000b58 000502         6389 	.byte	0,5,2
00000b5b 00000000*      6390 	.word	.LDWlin157
00000b5f 0b             6391 	.byte	11
00000b60 02             6392 	.byte	2
00000b61 00             6393 	.byte	0
00000b62 0c             6394 	.byte	12
00000b63 000502         6395 	.byte	0,5,2
00000b66 00000000*      6396 	.word	.LDWlin158
00000b6a 0b             6397 	.byte	11
00000b6b 0b             6398 	.byte	11
00000b6c 000502         6399 	.byte	0,5,2
00000b6f 00000000*      6400 	.word	.LDWlin159
00000b73 0b             6401 	.byte	11
00000b74 000502         6402 	.byte	0,5,2
00000b77 00000000*      6403 	.word	.LDWlin160
00000b7b 0b             6404 	.byte	11
00000b7c 000502         6405 	.byte	0,5,2
00000b7f 00000000*      6406 	.word	.LDWlin161
00000b83 03             6407 	.byte	3
00000b84 04             6408 	.byte	4
00000b85 02             6409 	.byte	2
00000b86 00             6410 	.byte	0
00000b87 01             6411 	.byte	1
00000b88 03             6412 	.byte	3
00000b89 7d             6413 	.byte	125
00000b8a 02             6414 	.byte	2
00000b8b 04             6415 	.byte	4
00000b8c 01             6416 	.byte	1
00000b8d 0b             6417 	.byte	11
00000b8e 2d             6418 	.byte	45
00000b8f 000502         6419 	.byte	0,5,2
00000b92 00000000*      6420 	.word	.LDWlin162
00000b96 0b             6421 	.byte	11
00000b97 02             6422 	.byte	2
00000b98 00             6423 	.byte	0
00000b99 0b             6424 	.byte	11
00000b9a 02             6425 	.byte	2
00000b9b 00             6426 	.byte	0
00000b9c 0c             6427 	.byte	12
00000b9d 000502         6428 	.byte	0,5,2
00000ba0 00000000*      6429 	.word	.LDWlin163
00000ba4 0b             6430 	.byte	11
00000ba5 0b             6431 	.byte	11
00000ba6 000502         6432 	.byte	0,5,2
00000ba9 00000000*      6433 	.word	.LDWlin164
00000bad 0b             6434 	.byte	11
00000bae 02             6435 	.byte	2
00000baf 00             6436 	.byte	0
00000bb0 03             6437 	.byte	3

                                                                      Page 119
                                                              C:\Users\nhuliyap\AppData\Local\Temp\gh_0000da81.s
00000bb1 06             6438 	.byte	6
00000bb2 02             6439 	.byte	2
00000bb3 00             6440 	.byte	0
00000bb4 01             6441 	.byte	1
00000bb5 02             6442 	.byte	2
00000bb6 00             6443 	.byte	0
00000bb7 0b             6444 	.byte	11
00000bb8 02             6445 	.byte	2
00000bb9 04             6446 	.byte	4
00000bba 000101         6447 	.byte	0,1,1
                        6448 	.section	.debug_info
                        6449 .LDW_4107108:
0000149a 1d             6450 	.byte	29
0000149b 00000000*      6451 	.word	.LDW43
0000149f 00000000*      6452 	.word	.LDW53
                        6453 
                        6454 .LDW_4dcd4e0:
000014a3 04             6455 	.byte	4
000014a4 636f6e744864   6456 	.strz	"contHdrFct"
000014aa 7246637400 
000014af 9105           6457 	.byte	145,5
000014b1 14             6458 	.byte	20
000014b2 01             6459 	.byte	1
000014b3 00000000*      6460 	.word	.LDW_4dcdb10
000014b7 00             6461 	.byte	0
000014b8 00             6462 	.byte	0
000014b9 015a           6463 	.byte	1,90
                        6464 
                        6465 .LDW_4dcda08:
000014bb 04             6466 	.byte	4
000014bc 746d70537461   6467 	.strz	"tmpStatus"
000014c2 74757300 
000014c6 9205           6468 	.byte	146,5
000014c8 14             6469 	.byte	20
000014c9 01             6470 	.byte	1
000014ca 00000000*      6471 	.word	.LDW_4d15818
000014ce 00             6472 	.byte	0
000014cf 00             6473 	.byte	0
000014d0 0273           6474 	.byte	2,115
000014d2 03             6475 	.byte	3
                        6476 
                        6477 .LDW_4e66be0:
000014d3 05             6478 	.byte	5
000014d4 72657300       6479 	.strz	"res"
000014d8 9305           6480 	.byte	147,5
000014da 14             6481 	.byte	20
000014db 01             6482 	.byte	1
000014dc 00000000*      6483 	.word	.LDW_4d15818
000014e0 00             6484 	.byte	0
000014e1 00             6485 	.byte	0
                        6486 
000014e2 00             6487 	.byte	0
                        6488 
000014e3 00             6489 	.byte	0
                        6490 
                        6491 .LDW_4dcdd00:
000014e4 14             6492 	.byte	20
000014e5 525f46444c5f   6493 	.strz	"R_FDL_GetVersionString"
000014eb 476574566572 
000014f1 73696f6e5374 
000014f7 72696e6700 

                                                                      Page 120
                                                              C:\Users\nhuliyap\AppData\Local\Temp\gh_0000da81.s
000014fc e105           6494 	.byte	225,5
000014fe 10             6495 	.byte	16
000014ff 01             6496 	.byte	1
00001500 00000000*      6497 	.word	.LDW_40c6bd0
00001504 00000000*      6498 	.word	_R_FDL_GetVersionString
00001508 00000000*      6499 	.word	___ghs_eofn_R_FDL_GetVersionString
0000150c 0153           6500 	.byte	1,83
0000150e 02             6501 	.byte	2
0000150f 00             6502 	.byte	0
00001510 02             6503 	.byte	2
00001511 00             6504 	.byte	0
00001512 00             6505 	.byte	0
00001513 00             6506 	.byte	0
00001514 00             6507 	.byte	0
00001515 01             6508 	.byte	1
00001516 01             6509 	.byte	1
00001517 00             6510 	.byte	0
00001518 01             6511 	.byte	1
                        6512 
                        6513 	.section	.debug_frame
                        6514 .LDW_4dc29e8:
000001e4 00000000*      6515 	.word	.LDW_unq_18-.LDW_unq_17
                        6516 .LDW_unq_17:
000001e8 00000000*      6517 	.word	.LDW_4e8d320
000001ec 00000000*      6518 	.word	_R_FDL_GetVersionString
000001f0 00000000*      6519 	.word	___ghs_eofn_R_FDL_GetVersionString-_R_FDL_GetVersionString
000001f4 01             6520 	.byte	1
000001f5 00000000*      6521 	.word	.LDW73
000001f9 00             6522 	.byte	0
000001fa 00             6523 	.byte	0
000001fb 00             6524 	.byte	0
                        6525 .LDW_unq_18:
                        6526 	.section	.debug_line
00000bbd 000502         6527 	.byte	0,5,2
00000bc0 00000000*      6528 	.word	_R_FDL_GetVersionString
00000bc4 06             6529 	.byte	6
00000bc5 03             6530 	.byte	3
00000bc6 e305           6531 	.byte	227,5
00000bc8 02             6532 	.byte	2
00000bc9 00             6533 	.byte	0
00000bca 01             6534 	.byte	1
00000bcb 06             6535 	.byte	6
00000bcc 000502         6536 	.byte	0,5,2
00000bcf 00000000*      6537 	.word	.LDWlin165
00000bd3 02             6538 	.byte	2
00000bd4 00             6539 	.byte	0
00000bd5 02             6540 	.byte	2
00000bd6 02             6541 	.byte	2
00000bd7 000101         6542 	.byte	0,1,1
                        6543 	.section	.debug_info
                        6544 .LDW_41074f8:
00001519 1d             6545 	.byte	29
0000151a 00000000*      6546 	.word	.LDW63
0000151e 00000000*      6547 	.word	.LDW73
                        6548 
                        6549 .LDW_4e668c8:
00001522 04             6550 	.byte	4
00001523 725f66646c5f   6551 	.strz	"r_fdl_vStr"
00001529 7653747200 
0000152e e205           6552 	.byte	226,5
00001530 19             6553 	.byte	25

                                                                      Page 121
                                                              C:\Users\nhuliyap\AppData\Local\Temp\gh_0000da81.s
00001531 01             6554 	.byte	1
00001532 00000000*      6555 	.word	.LDW_4d00b78
00001536 00             6556 	.byte	0
00001537 00             6557 	.byte	0
00001538 0503           6558 	.byte	5,3
0000153a 00000000*      6559 	.word	_r_fdl_vStr.R_FDL_GetVersionString.C.3A.5C_ECU2.5CECU_Rivian_A1.5CTarget.5Crepo_projects.5CpRealEcu.5CcR_LATEST.5Cmake.5Coutput.5Cobjects.5Cr_fdl_user_if..0
                        6560 
0000153e 00             6561 	.byte	0
                        6562 
0000153f 00             6563 	.byte	0
                        6564 
                        6565 .LDW_4dcdd98:
00001540 14             6566 	.byte	20
00001541 525f46444c5f   6567 	.strz	"R_FDL_SuspendRequest"
00001547 53757370656e 
0000154d 645265717565 
00001553 737400 
00001556 ed05           6568 	.byte	237,5
00001558 10             6569 	.byte	16
00001559 01             6570 	.byte	1
0000155a 00000000*      6571 	.word	.LDW_4d15818
0000155e 00000000*      6572 	.word	_R_FDL_SuspendRequest
00001562 00000000*      6573 	.word	___ghs_eofn_R_FDL_SuspendRequest
00001566 0153           6574 	.byte	1,83
00001568 828080800a     6575 	.byte	130,128,128,128,10
0000156d 08             6576 	.byte	8
0000156e 03             6577 	.byte	3
0000156f 08             6578 	.byte	8
00001570 00             6579 	.byte	0
00001571 00             6580 	.byte	0
00001572 00             6581 	.byte	0
00001573 01             6582 	.byte	1
00001574 01             6583 	.byte	1
00001575 00             6584 	.byte	0
00001576 01             6585 	.byte	1
                        6586 
                        6587 	.section	.debug_frame
                        6588 .LDW_4dc2968:
000001fc 00000000*      6589 	.word	.LDW_unq_1a-.LDW_unq_19
                        6590 .LDW_unq_19:
00000200 00000000*      6591 	.word	.LDW_4e8d320
00000204 00000000*      6592 	.word	_R_FDL_SuspendRequest
00000208 00000000*      6593 	.word	___ghs_eofn_R_FDL_SuspendRequest-_R_FDL_SuspendRequest
0000020c 44             6594 	.byte	68
0000020d 9f             6595 	.byte	159
0000020e 00             6596 	.byte	0
0000020f 40             6597 	.byte	64
00000210 9d             6598 	.byte	157
00000211 04             6599 	.byte	4
00000212 01             6600 	.byte	1
00000213 00000000*      6601 	.word	.LDW93
00000217 00             6602 	.byte	0
                        6603 .LDW_unq_1a:
                        6604 	.section	.debug_line
00000bda 000502         6605 	.byte	0,5,2
00000bdd 00000000*      6606 	.word	_R_FDL_SuspendRequest
00000be1 03             6607 	.byte	3
00000be2 ec05           6608 	.byte	236,5
00000be4 02             6609 	.byte	2
00000be5 00             6610 	.byte	0
00000be6 01             6611 	.byte	1

                                                                      Page 122
                                                              C:\Users\nhuliyap\AppData\Local\Temp\gh_0000da81.s
00000be7 06             6612 	.byte	6
00000be8 1d             6613 	.byte	29
00000be9 14             6614 	.byte	20
00000bea 000502         6615 	.byte	0,5,2
00000bed 00000000*      6616 	.word	.LDWlin166
00000bf1 0b             6617 	.byte	11
00000bf2 0c             6618 	.byte	12
00000bf3 000502         6619 	.byte	0,5,2
00000bf6 00000000*      6620 	.word	.LDWlin167
00000bfa 03             6621 	.byte	3
00000bfb 04             6622 	.byte	4
00000bfc 02             6623 	.byte	2
00000bfd 00             6624 	.byte	0
00000bfe 01             6625 	.byte	1
00000bff 0b             6626 	.byte	11
00000c00 13             6627 	.byte	19
00000c01 13             6628 	.byte	19
00000c02 02             6629 	.byte	2
00000c03 00             6630 	.byte	0
00000c04 0b             6631 	.byte	11
00000c05 02             6632 	.byte	2
00000c06 00             6633 	.byte	0
00000c07 0c             6634 	.byte	12
00000c08 06             6635 	.byte	6
00000c09 02             6636 	.byte	2
00000c0a 02             6637 	.byte	2
00000c0b 02             6638 	.byte	2
00000c0c 04             6639 	.byte	4
00000c0d 000101         6640 	.byte	0,1,1
                        6641 	.section	.debug_info
                        6642 .LDW_4107138:
00001577 1d             6643 	.byte	29
00001578 00000000*      6644 	.word	.LDW83
0000157c 00000000*      6645 	.word	.LDW93
                        6646 
                        6647 .LDW_4e66d40:
00001580 04             6648 	.byte	4
00001581 72657400       6649 	.strz	"ret"
00001585 ee05           6650 	.byte	238,5
00001587 14             6651 	.byte	20
00001588 01             6652 	.byte	1
00001589 00000000*      6653 	.word	.LDW_4d15818
0000158d 00             6654 	.byte	0
0000158e 00             6655 	.byte	0
0000158f 016d           6656 	.byte	1,109
                        6657 
00001591 00             6658 	.byte	0
                        6659 
00001592 00             6660 	.byte	0
                        6661 
                        6662 .LDW_4dcde30:
00001593 14             6663 	.byte	20
00001594 525f46444c5f   6664 	.strz	"R_FDL_ResumeRequest"
0000159a 526573756d65 
000015a0 526571756573 
000015a6 7400 
000015a8 8606           6665 	.byte	134,6
000015aa 10             6666 	.byte	16
000015ab 01             6667 	.byte	1
000015ac 00000000*      6668 	.word	.LDW_4d15818
000015b0 00000000*      6669 	.word	_R_FDL_ResumeRequest

                                                                      Page 123
                                                              C:\Users\nhuliyap\AppData\Local\Temp\gh_0000da81.s
000015b4 00000000*      6670 	.word	___ghs_eofn_R_FDL_ResumeRequest
000015b8 0153           6671 	.byte	1,83
000015ba 828080800a     6672 	.byte	130,128,128,128,10
000015bf 08             6673 	.byte	8
000015c0 03             6674 	.byte	3
000015c1 08             6675 	.byte	8
000015c2 00             6676 	.byte	0
000015c3 00             6677 	.byte	0
000015c4 00             6678 	.byte	0
000015c5 01             6679 	.byte	1
000015c6 01             6680 	.byte	1
000015c7 00             6681 	.byte	0
000015c8 01             6682 	.byte	1
                        6683 
                        6684 	.section	.debug_frame
                        6685 .LDW_4fd1d10:
00000218 00000000*      6686 	.word	.LDW_unq_1c-.LDW_unq_1b
                        6687 .LDW_unq_1b:
0000021c 00000000*      6688 	.word	.LDW_4e8d320
00000220 00000000*      6689 	.word	_R_FDL_ResumeRequest
00000224 00000000*      6690 	.word	___ghs_eofn_R_FDL_ResumeRequest-_R_FDL_ResumeRequest
00000228 44             6691 	.byte	68
00000229 9f             6692 	.byte	159
0000022a 00             6693 	.byte	0
0000022b 40             6694 	.byte	64
0000022c 9d             6695 	.byte	157
0000022d 04             6696 	.byte	4
0000022e 01             6697 	.byte	1
0000022f 00000000*      6698 	.word	.LDW14
00000233 00             6699 	.byte	0
                        6700 .LDW_unq_1c:
                        6701 	.section	.debug_line
00000c10 000502         6702 	.byte	0,5,2
00000c13 00000000*      6703 	.word	_R_FDL_ResumeRequest
00000c17 03             6704 	.byte	3
00000c18 8506           6705 	.byte	133,6
00000c1a 02             6706 	.byte	2
00000c1b 00             6707 	.byte	0
00000c1c 01             6708 	.byte	1
00000c1d 06             6709 	.byte	6
00000c1e 1d             6710 	.byte	29
00000c1f 14             6711 	.byte	20
00000c20 000502         6712 	.byte	0,5,2
00000c23 00000000*      6713 	.word	.LDWlin168
00000c27 0b             6714 	.byte	11
00000c28 0c             6715 	.byte	12
00000c29 000502         6716 	.byte	0,5,2
00000c2c 00000000*      6717 	.word	.LDWlin169
00000c30 0c             6718 	.byte	12
00000c31 0b             6719 	.byte	11
00000c32 06             6720 	.byte	6
00000c33 000502         6721 	.byte	0,5,2
00000c36 00000000*      6722 	.word	.LDWlin170
00000c3a 0d             6723 	.byte	13
00000c3b 06             6724 	.byte	6
00000c3c 0b             6725 	.byte	11
00000c3d 02             6726 	.byte	2
00000c3e 00             6727 	.byte	0
00000c3f 0b             6728 	.byte	11
00000c40 0b             6729 	.byte	11
00000c41 0b             6730 	.byte	11

                                                                      Page 124
                                                              C:\Users\nhuliyap\AppData\Local\Temp\gh_0000da81.s
00000c42 13             6731 	.byte	19
00000c43 02             6732 	.byte	2
00000c44 00             6733 	.byte	0
00000c45 0c             6734 	.byte	12
00000c46 06             6735 	.byte	6
00000c47 02             6736 	.byte	2
00000c48 02             6737 	.byte	2
00000c49 02             6738 	.byte	2
00000c4a 04             6739 	.byte	4
00000c4b 000101         6740 	.byte	0,1,1
                        6741 	.section	.debug_info
                        6742 .LDW_41075b8:
000015c9 1d             6743 	.byte	29
000015ca 00000000*      6744 	.word	.LDW04
000015ce 00000000*      6745 	.word	.LDW14
                        6746 
                        6747 .LDW_4e66f50:
000015d2 04             6748 	.byte	4
000015d3 72657400       6749 	.strz	"ret"
000015d7 8706           6750 	.byte	135,6
000015d9 14             6751 	.byte	20
000015da 01             6752 	.byte	1
000015db 00000000*      6753 	.word	.LDW_4d15818
000015df 00             6754 	.byte	0
000015e0 00             6755 	.byte	0
000015e1 016d           6756 	.byte	1,109
                        6757 
000015e3 00             6758 	.byte	0
                        6759 
000015e4 00             6760 	.byte	0
                        6761 
                        6762 .LDW_4dcdec8:
000015e5 14             6763 	.byte	20
000015e6 525f46444c5f   6764 	.strz	"R_FDL_StandBy"
000015ec 5374616e6442 
000015f2 7900 
000015f4 a206           6765 	.byte	162,6
000015f6 10             6766 	.byte	16
000015f7 01             6767 	.byte	1
000015f8 00000000*      6768 	.word	.LDW_4d15818
000015fc 00000000*      6769 	.word	_R_FDL_StandBy
00001600 00000000*      6770 	.word	___ghs_eofn_R_FDL_StandBy
00001604 0153           6771 	.byte	1,83
00001606 828080c00b     6772 	.byte	130,128,128,192,11
0000160b 10             6773 	.byte	16
0000160c 03             6774 	.byte	3
0000160d 10             6775 	.byte	16
0000160e 00             6776 	.byte	0
0000160f 00             6777 	.byte	0
00001610 00             6778 	.byte	0
00001611 01             6779 	.byte	1
00001612 01             6780 	.byte	1
00001613 00             6781 	.byte	0
00001614 01             6782 	.byte	1
                        6783 
                        6784 	.section	.debug_frame
                        6785 .LDW_4fd1f50:
00000234 00000000*      6786 	.word	.LDW_unq_1e-.LDW_unq_1d
                        6787 .LDW_unq_1d:
00000238 00000000*      6788 	.word	.LDW_4e8d320
0000023c 00000000*      6789 	.word	_R_FDL_StandBy

                                                                      Page 125
                                                              C:\Users\nhuliyap\AppData\Local\Temp\gh_0000da81.s
00000240 00000000*      6790 	.word	___ghs_eofn_R_FDL_StandBy-_R_FDL_StandBy
00000244 44             6791 	.byte	68
00000245 9f             6792 	.byte	159
00000246 00             6793 	.byte	0
00000247 40             6794 	.byte	64
00000248 9d             6795 	.byte	157
00000249 04             6796 	.byte	4
0000024a 40             6797 	.byte	64
0000024b 9c             6798 	.byte	156
0000024c 08             6799 	.byte	8
0000024d 40             6800 	.byte	64
0000024e 9b             6801 	.byte	155
0000024f 0c             6802 	.byte	12
00000250 01             6803 	.byte	1
00000251 00000000*      6804 	.word	.LDW34
00000255 00             6805 	.byte	0
00000256 00             6806 	.byte	0
00000257 00             6807 	.byte	0
                        6808 .LDW_unq_1e:
                        6809 	.section	.debug_line
00000c4e 000502         6810 	.byte	0,5,2
00000c51 00000000*      6811 	.word	_R_FDL_StandBy
00000c55 03             6812 	.byte	3
00000c56 a106           6813 	.byte	161,6
00000c58 02             6814 	.byte	2
00000c59 00             6815 	.byte	0
00000c5a 01             6816 	.byte	1
00000c5b 06             6817 	.byte	6
00000c5c 1d             6818 	.byte	29
00000c5d 000502         6819 	.byte	0,5,2
00000c60 00000000*      6820 	.word	.LDWlin171
00000c64 0d             6821 	.byte	13
00000c65 0c             6822 	.byte	12
00000c66 000502         6823 	.byte	0,5,2
00000c69 00000000*      6824 	.word	.LDWlin172
00000c6d 0b             6825 	.byte	11
00000c6e 0b             6826 	.byte	11
00000c6f 14             6827 	.byte	20
00000c70 2b             6828 	.byte	43
00000c71 02             6829 	.byte	2
00000c72 00             6830 	.byte	0
00000c73 0c             6831 	.byte	12
00000c74 000502         6832 	.byte	0,5,2
00000c77 00000000*      6833 	.word	.LDWlin173
00000c7b 0b             6834 	.byte	11
00000c7c 0c             6835 	.byte	12
00000c7d 14             6836 	.byte	20
00000c7e 000502         6837 	.byte	0,5,2
00000c81 00000000*      6838 	.word	.LDWlin174
00000c85 0b             6839 	.byte	11
00000c86 0b             6840 	.byte	11
00000c87 000502         6841 	.byte	0,5,2
00000c8a 00000000*      6842 	.word	.LDWlin175
00000c8e 0b             6843 	.byte	11
00000c8f 02             6844 	.byte	2
00000c90 00             6845 	.byte	0
00000c91 0b             6846 	.byte	11
00000c92 0b             6847 	.byte	11
00000c93 0c             6848 	.byte	12
00000c94 2b             6849 	.byte	43
00000c95 000502         6850 	.byte	0,5,2

                                                                      Page 126
                                                              C:\Users\nhuliyap\AppData\Local\Temp\gh_0000da81.s
00000c98 00000000*      6851 	.word	.LDWlin176
00000c9c 0b             6852 	.byte	11
00000c9d 02             6853 	.byte	2
00000c9e 00             6854 	.byte	0
00000c9f 0b             6855 	.byte	11
00000ca0 0b             6856 	.byte	11
00000ca1 0c             6857 	.byte	12
00000ca2 13             6858 	.byte	19
00000ca3 02             6859 	.byte	2
00000ca4 00             6860 	.byte	0
00000ca5 0c             6861 	.byte	12
00000ca6 06             6862 	.byte	6
00000ca7 02             6863 	.byte	2
00000ca8 02             6864 	.byte	2
00000ca9 02             6865 	.byte	2
00000caa 04             6866 	.byte	4
00000cab 000101         6867 	.byte	0,1,1
                        6868 	.section	.debug_info
                        6869 .LDW_41072e8:
00001615 1d             6870 	.byte	29
00001616 00000000*      6871 	.word	.LDW24
0000161a 00000000*      6872 	.word	.LDW34
                        6873 
                        6874 .LDW_4e66558:
0000161e 04             6875 	.byte	4
0000161f 72657400       6876 	.strz	"ret"
00001623 a306           6877 	.byte	163,6
00001625 14             6878 	.byte	20
00001626 01             6879 	.byte	1
00001627 00000000*      6880 	.word	.LDW_4d15818
0000162b 00             6881 	.byte	0
0000162c 00             6882 	.byte	0
0000162d 016d           6883 	.byte	1,109
                        6884 
0000162f 00             6885 	.byte	0
                        6886 
00001630 00             6887 	.byte	0
                        6888 
                        6889 .LDW_4e88fc8:
00001631 14             6890 	.byte	20
00001632 525f46444c5f   6891 	.strz	"R_FDL_WakeUp"
00001638 57616b655570 
0000163e 00 
0000163f cd06           6892 	.byte	205,6
00001641 10             6893 	.byte	16
00001642 01             6894 	.byte	1
00001643 00000000*      6895 	.word	.LDW_4d15818
00001647 00000000*      6896 	.word	_R_FDL_WakeUp
0000164b 00000000*      6897 	.word	___ghs_eofn_R_FDL_WakeUp
0000164f 0153           6898 	.byte	1,83
00001651 828080800a     6899 	.byte	130,128,128,128,10
00001656 08             6900 	.byte	8
00001657 03             6901 	.byte	3
00001658 08             6902 	.byte	8
00001659 00             6903 	.byte	0
0000165a 00             6904 	.byte	0
0000165b 00             6905 	.byte	0
0000165c 01             6906 	.byte	1
0000165d 01             6907 	.byte	1
0000165e 00             6908 	.byte	0
0000165f 01             6909 	.byte	1

                                                                      Page 127
                                                              C:\Users\nhuliyap\AppData\Local\Temp\gh_0000da81.s
                        6910 
                        6911 	.section	.debug_frame
                        6912 .LDW_4fd1d90:
00000258 00000000*      6913 	.word	.LDW_unq_20-.LDW_unq_1f
                        6914 .LDW_unq_1f:
0000025c 00000000*      6915 	.word	.LDW_4e8d320
00000260 00000000*      6916 	.word	_R_FDL_WakeUp
00000264 00000000*      6917 	.word	___ghs_eofn_R_FDL_WakeUp-_R_FDL_WakeUp
00000268 48             6918 	.byte	72
00000269 9f             6919 	.byte	159
0000026a 00             6920 	.byte	0
0000026b 40             6921 	.byte	64
0000026c 9d             6922 	.byte	157
0000026d 04             6923 	.byte	4
0000026e 01             6924 	.byte	1
0000026f 00000000*      6925 	.word	.LDW54
00000273 00             6926 	.byte	0
                        6927 .LDW_unq_20:
                        6928 	.section	.debug_line
00000cae 000502         6929 	.byte	0,5,2
00000cb1 00000000*      6930 	.word	_R_FDL_WakeUp
00000cb5 03             6931 	.byte	3
00000cb6 cc06           6932 	.byte	204,6
00000cb8 02             6933 	.byte	2
00000cb9 00             6934 	.byte	0
00000cba 01             6935 	.byte	1
00000cbb 06             6936 	.byte	6
00000cbc 2d             6937 	.byte	45
00000cbd 000502         6938 	.byte	0,5,2
00000cc0 00000000*      6939 	.word	.LDWlin177
00000cc4 03             6940 	.byte	3
00000cc5 04             6941 	.byte	4
00000cc6 02             6942 	.byte	2
00000cc7 00             6943 	.byte	0
00000cc8 01             6944 	.byte	1
00000cc9 03             6945 	.byte	3
00000cca 7d             6946 	.byte	125
00000ccb 02             6947 	.byte	2
00000ccc 02             6948 	.byte	2
00000ccd 01             6949 	.byte	1
00000cce 0b             6950 	.byte	11
00000ccf 03             6951 	.byte	3
00000cd0 04             6952 	.byte	4
00000cd1 02             6953 	.byte	2
00000cd2 04             6954 	.byte	4
00000cd3 01             6955 	.byte	1
00000cd4 000502         6956 	.byte	0,5,2
00000cd7 00000000*      6957 	.word	.LDWlin178
00000cdb 0b             6958 	.byte	11
00000cdc 0b             6959 	.byte	11
00000cdd 000502         6960 	.byte	0,5,2
00000ce0 00000000*      6961 	.word	.LDWlin179
00000ce4 0b             6962 	.byte	11
00000ce5 02             6963 	.byte	2
00000ce6 00             6964 	.byte	0
00000ce7 0b             6965 	.byte	11
00000ce8 0b             6966 	.byte	11
00000ce9 0b             6967 	.byte	11
00000cea 13             6968 	.byte	19
00000ceb 02             6969 	.byte	2
00000cec 00             6970 	.byte	0

                                                                      Page 128
                                                              C:\Users\nhuliyap\AppData\Local\Temp\gh_0000da81.s
00000ced 0c             6971 	.byte	12
00000cee 06             6972 	.byte	6
00000cef 02             6973 	.byte	2
00000cf0 02             6974 	.byte	2
00000cf1 02             6975 	.byte	2
00000cf2 04             6976 	.byte	4
00000cf3 000101         6977 	.byte	0,1,1
                        6978 	.section	.debug_info
                        6979 .LDW_41071c8:
00001660 1d             6980 	.byte	29
00001661 00000000*      6981 	.word	.LDW44
00001665 00000000*      6982 	.word	.LDW54
                        6983 
                        6984 .LDW_4e665b0:
00001669 04             6985 	.byte	4
0000166a 72657400       6986 	.strz	"ret"
0000166e ce06           6987 	.byte	206,6
00001670 14             6988 	.byte	20
00001671 01             6989 	.byte	1
00001672 00000000*      6990 	.word	.LDW_4d15818
00001676 00             6991 	.byte	0
00001677 00             6992 	.byte	0
00001678 016d           6993 	.byte	1,109
                        6994 
0000167a 00             6995 	.byte	0
                        6996 
0000167b 00             6997 	.byte	0
                        6998 
                        6999 .LDW_4e89190:
0000167c 14             7000 	.byte	20
0000167d 525f46444c5f   7001 	.strz	"R_FDL_CancelRequest"
00001683 43616e63656c 
00001689 526571756573 
0000168f 7400 
00001691 e606           7002 	.byte	230,6
00001693 10             7003 	.byte	16
00001694 01             7004 	.byte	1
00001695 00000000*      7005 	.word	.LDW_4d15818
00001699 00000000*      7006 	.word	_R_FDL_CancelRequest
0000169d 00000000*      7007 	.word	___ghs_eofn_R_FDL_CancelRequest
000016a1 0153           7008 	.byte	1,83
000016a3 828080800b     7009 	.byte	130,128,128,128,11
000016a8 0c             7010 	.byte	12
000016a9 03             7011 	.byte	3
000016aa 0c             7012 	.byte	12
000016ab 00             7013 	.byte	0
000016ac 00             7014 	.byte	0
000016ad 00             7015 	.byte	0
000016ae 01             7016 	.byte	1
000016af 01             7017 	.byte	1
000016b0 00             7018 	.byte	0
000016b1 01             7019 	.byte	1
                        7020 
                        7021 	.section	.debug_frame
                        7022 .LDW_4fd1ed0:
00000274 00000000*      7023 	.word	.LDW_unq_22-.LDW_unq_21
                        7024 .LDW_unq_21:
00000278 00000000*      7025 	.word	.LDW_4e8d320
0000027c 00000000*      7026 	.word	_R_FDL_CancelRequest
00000280 00000000*      7027 	.word	___ghs_eofn_R_FDL_CancelRequest-_R_FDL_CancelRequest
00000284 44             7028 	.byte	68

                                                                      Page 129
                                                              C:\Users\nhuliyap\AppData\Local\Temp\gh_0000da81.s
00000285 9f             7029 	.byte	159
00000286 00             7030 	.byte	0
00000287 40             7031 	.byte	64
00000288 9d             7032 	.byte	157
00000289 04             7033 	.byte	4
0000028a 40             7034 	.byte	64
0000028b 9c             7035 	.byte	156
0000028c 08             7036 	.byte	8
0000028d 01             7037 	.byte	1
0000028e 00000000*      7038 	.word	.LDW74
00000292 00             7039 	.byte	0
00000293 00             7040 	.byte	0
                        7041 .LDW_unq_22:
                        7042 	.section	.debug_line
00000cf6 000502         7043 	.byte	0,5,2
00000cf9 00000000*      7044 	.word	_R_FDL_CancelRequest
00000cfd 03             7045 	.byte	3
00000cfe e506           7046 	.byte	229,6
00000d00 02             7047 	.byte	2
00000d01 00             7048 	.byte	0
00000d02 01             7049 	.byte	1
00000d03 06             7050 	.byte	6
00000d04 1d             7051 	.byte	29
00000d05 14             7052 	.byte	20
00000d06 000502         7053 	.byte	0,5,2
00000d09 00000000*      7054 	.word	.LDWlin180
00000d0d 0d             7055 	.byte	13
00000d0e 0c             7056 	.byte	12
00000d0f 000502         7057 	.byte	0,5,2
00000d12 00000000*      7058 	.word	.LDWlin181
00000d16 0c             7059 	.byte	12
00000d17 0b             7060 	.byte	11
00000d18 000502         7061 	.byte	0,5,2
00000d1b 00000000*      7062 	.word	.LDWlin182
00000d1f 03             7063 	.byte	3
00000d20 06             7064 	.byte	6
00000d21 02             7065 	.byte	2
00000d22 00             7066 	.byte	0
00000d23 01             7067 	.byte	1
00000d24 0b             7068 	.byte	11
00000d25 0c             7069 	.byte	12
00000d26 02             7070 	.byte	2
00000d27 00             7071 	.byte	0
00000d28 02             7072 	.byte	2
00000d29 00             7073 	.byte	0
00000d2a 02             7074 	.byte	2
00000d2b 00             7075 	.byte	0
00000d2c 0c             7076 	.byte	12
00000d2d 000502         7077 	.byte	0,5,2
00000d30 00000000*      7078 	.word	.LDWlin183
00000d34 03             7079 	.byte	3
00000d35 76             7080 	.byte	118
00000d36 02             7081 	.byte	2
00000d37 00             7082 	.byte	0
00000d38 01             7083 	.byte	1
00000d39 0b             7084 	.byte	11
00000d3a 02             7085 	.byte	2
00000d3b 00             7086 	.byte	0
00000d3c 000502         7087 	.byte	0,5,2
00000d3f 00000000*      7088 	.word	.LDWlin184
00000d43 03             7089 	.byte	3

                                                                      Page 130
                                                              C:\Users\nhuliyap\AppData\Local\Temp\gh_0000da81.s
00000d44 0a             7090 	.byte	10
00000d45 02             7091 	.byte	2
00000d46 00             7092 	.byte	0
00000d47 01             7093 	.byte	1
00000d48 0b             7094 	.byte	11
00000d49 06             7095 	.byte	6
00000d4a 000502         7096 	.byte	0,5,2
00000d4d 00000000*      7097 	.word	.LDWlin185
00000d51 03             7098 	.byte	3
00000d52 78             7099 	.byte	120
00000d53 02             7100 	.byte	2
00000d54 00             7101 	.byte	0
00000d55 01             7102 	.byte	1
00000d56 06             7103 	.byte	6
00000d57 03             7104 	.byte	3
00000d58 09             7105 	.byte	9
00000d59 02             7106 	.byte	2
00000d5a 00             7107 	.byte	0
00000d5b 01             7108 	.byte	1
00000d5c 02             7109 	.byte	2
00000d5d 00             7110 	.byte	0
00000d5e 0b             7111 	.byte	11
00000d5f 0b             7112 	.byte	11
00000d60 0b             7113 	.byte	11
00000d61 13             7114 	.byte	19
00000d62 02             7115 	.byte	2
00000d63 00             7116 	.byte	0
00000d64 0c             7117 	.byte	12
00000d65 06             7118 	.byte	6
00000d66 02             7119 	.byte	2
00000d67 02             7120 	.byte	2
00000d68 02             7121 	.byte	2
00000d69 04             7122 	.byte	4
00000d6a 000101         7123 	.byte	0,1,1
                        7124 	.section	.debug_info
                        7125 .LDW_4107198:
000016b2 1d             7126 	.byte	29
000016b3 00000000*      7127 	.word	.LDW64
000016b7 00000000*      7128 	.word	.LDW74
                        7129 
                        7130 .LDW_4e66500:
000016bb 04             7131 	.byte	4
000016bc 72657400       7132 	.strz	"ret"
000016c0 e706           7133 	.byte	231,6
000016c2 14             7134 	.byte	20
000016c3 01             7135 	.byte	1
000016c4 00000000*      7136 	.word	.LDW_4d15818
000016c8 00             7137 	.byte	0
000016c9 00             7138 	.byte	0
000016ca 016c           7139 	.byte	1,108
                        7140 
000016cc 00             7141 	.byte	0
                        7142 
000016cd 00             7143 	.byte	0
                        7144 
                        7145 .LDW_4e88a70:
000016ce 14             7146 	.byte	20
000016cf 525f46444c5f   7147 	.strz	"R_FDL_UFct_FlashOpStart"
000016d5 554663745f46 
000016db 6c6173684f70 
000016e1 537461727400 

                                                                      Page 131
                                                              C:\Users\nhuliyap\AppData\Local\Temp\gh_0000da81.s
000016e7 8e07           7148 	.byte	142,7
000016e9 1b             7149 	.byte	27
000016ea 01             7150 	.byte	1
000016eb 00000000*      7151 	.word	.LDW_4dcdb10
000016ef 00000000*      7152 	.word	_R_FDL_UFct_FlashOpStart..C.3A.5C_ECU2.5CECU_Rivian_A1.5CTarget.5Crepo_projects.5CpRealEcu.5CcR_LATEST.5Cmake.5Coutput.5Cobjects.5Cr_fdl_user_if.
000016f3 00000000*      7153 	.word	___ghs_eofn_R_FDL_UFct_FlashOpStart
000016f7 0153           7154 	.byte	1,83
000016f9 8280c0ff0b     7155 	.byte	130,128,192,255,11
000016fe 2c             7156 	.byte	44
000016ff 03             7157 	.byte	3
00001700 34             7158 	.byte	52
00001701 00             7159 	.byte	0
00001702 00             7160 	.byte	0
00001703 00             7161 	.byte	0
00001704 00             7162 	.byte	0
00001705 01             7163 	.byte	1
00001706 00             7164 	.byte	0
00001707 01             7165 	.byte	1
                        7166 
                        7167 	.section	.debug_frame
                        7168 .LDW_4dc2ce8:
00000294 00000000*      7169 	.word	.LDW_unq_24-.LDW_unq_23
                        7170 .LDW_unq_23:
00000298 00000000*      7171 	.word	.LDW_4e8d320
0000029c 00000000*      7172 	.word	_R_FDL_UFct_FlashOpStart..C.3A.5C_ECU2.5CECU_Rivian_A1.5CTarget.5Crepo_projects.5CpRealEcu.5CcR_LATEST.5Cmake.5Coutput.5Cobjects.5Cr_fdl_user_if.
000002a0 00000000*      7173 	.word	___ghs_eofn_R_FDL_UFct_FlashOpStart-_R_FDL_UFct_FlashOpStart..C.3A.5C_ECU2.5CECU_Rivian_A1.5CTarget.5Crepo_projects.5CpRealEcu.5CcR_LATEST.5Cmake.5Coutput.5Cobjects.5Cr_fdl_user_if.
000002a4 44             7174 	.byte	68
000002a5 9f             7175 	.byte	159
000002a6 06             7176 	.byte	6
000002a7 40             7177 	.byte	64
000002a8 9d             7178 	.byte	157
000002a9 0a             7179 	.byte	10
000002aa 40             7180 	.byte	64
000002ab 9c             7181 	.byte	156
000002ac 0e             7182 	.byte	14
000002ad 40             7183 	.byte	64
000002ae 9b             7184 	.byte	155
000002af 12             7185 	.byte	18
000002b0 40             7186 	.byte	64
000002b1 9a             7187 	.byte	154
000002b2 16             7188 	.byte	22
000002b3 40             7189 	.byte	64
000002b4 99             7190 	.byte	153
000002b5 1a             7191 	.byte	26
000002b6 40             7192 	.byte	64
000002b7 98             7193 	.byte	152
000002b8 1e             7194 	.byte	30
000002b9 40             7195 	.byte	64
000002ba 97             7196 	.byte	151
000002bb 22             7197 	.byte	34
000002bc 40             7198 	.byte	64
000002bd 96             7199 	.byte	150
000002be 26             7200 	.byte	38
000002bf 40             7201 	.byte	64
000002c0 95             7202 	.byte	149
000002c1 2a             7203 	.byte	42
000002c2 40             7204 	.byte	64
000002c3 94             7205 	.byte	148
000002c4 2e             7206 	.byte	46
000002c5 01             7207 	.byte	1
000002c6 00000000*      7208 	.word	.LDW31

                                                                      Page 132
                                                              C:\Users\nhuliyap\AppData\Local\Temp\gh_0000da81.s
000002ca 00             7209 	.byte	0
000002cb 00             7210 	.byte	0
                        7211 .LDW_unq_24:
                        7212 	.section	.debug_line
00000d6d 000502         7213 	.byte	0,5,2
00000d70 00000000*      7214 	.word	_R_FDL_UFct_FlashOpStart..C.3A.5C_ECU2.5CECU_Rivian_A1.5CTarget.5Crepo_projects.5CpRealEcu.5CcR_LATEST.5Cmake.5Coutput.5Cobjects.5Cr_fdl_user_if.
00000d74 03             7215 	.byte	3
00000d75 9007           7216 	.byte	144,7
00000d77 02             7217 	.byte	2
00000d78 00             7218 	.byte	0
00000d79 01             7219 	.byte	1
00000d7a 06             7220 	.byte	6
00000d7b 03             7221 	.byte	3
00000d7c 0c             7222 	.byte	12
00000d7d 02             7223 	.byte	2
00000d7e 0c             7224 	.byte	12
00000d7f 01             7225 	.byte	1
00000d80 1b             7226 	.byte	27
00000d81 13             7227 	.byte	19
00000d82 13             7228 	.byte	19
00000d83 13             7229 	.byte	19
00000d84 15             7230 	.byte	21
00000d85 23             7231 	.byte	35
00000d86 1c             7232 	.byte	28
00000d87 000502         7233 	.byte	0,5,2
00000d8a 00000000*      7234 	.word	.LDWlin10
00000d8e 0b             7235 	.byte	11
00000d8f 0b             7236 	.byte	11
00000d90 1d             7237 	.byte	29
00000d91 03             7238 	.byte	3
00000d92 7e             7239 	.byte	126
00000d93 02             7240 	.byte	2
00000d94 06             7241 	.byte	6
00000d95 01             7242 	.byte	1
00000d96 03             7243 	.byte	3
00000d97 04             7244 	.byte	4
00000d98 02             7245 	.byte	2
00000d99 04             7246 	.byte	4
00000d9a 01             7247 	.byte	1
00000d9b 14             7248 	.byte	20
00000d9c 000502         7249 	.byte	0,5,2
00000d9f 00000000*      7250 	.word	.LDWlin11
00000da3 0b             7251 	.byte	11
00000da4 0b             7252 	.byte	11
00000da5 02             7253 	.byte	2
00000da6 00             7254 	.byte	0
00000da7 000502         7255 	.byte	0,5,2
00000daa 00000000*      7256 	.word	.LDWlin12
00000dae 0b             7257 	.byte	11
00000daf 0c             7258 	.byte	12
00000db0 1c             7259 	.byte	28
00000db1 000502         7260 	.byte	0,5,2
00000db4 00000000*      7261 	.word	.LDWlin13
00000db8 0c             7262 	.byte	12
00000db9 14             7263 	.byte	20
00000dba 000502         7264 	.byte	0,5,2
00000dbd 00000000*      7265 	.word	.LDWlin14
00000dc1 0b             7266 	.byte	11
00000dc2 0b             7267 	.byte	11
00000dc3 02             7268 	.byte	2
00000dc4 00             7269 	.byte	0

                                                                      Page 133
                                                              C:\Users\nhuliyap\AppData\Local\Temp\gh_0000da81.s
00000dc5 000502         7270 	.byte	0,5,2
00000dc8 00000000*      7271 	.word	.LDWlin15
00000dcc 0b             7272 	.byte	11
00000dcd 0c             7273 	.byte	12
00000dce 25             7274 	.byte	37
00000dcf 000502         7275 	.byte	0,5,2
00000dd2 00000000*      7276 	.word	.LDWlin16
00000dd6 0b             7277 	.byte	11
00000dd7 03             7278 	.byte	3
00000dd8 0d             7279 	.byte	13
00000dd9 02             7280 	.byte	2
00000dda 00             7281 	.byte	0
00000ddb 01             7282 	.byte	1
00000ddc 0d             7283 	.byte	13
00000ddd 1c             7284 	.byte	28
00000dde 13             7285 	.byte	19
00000ddf 02             7286 	.byte	2
00000de0 00             7287 	.byte	0
00000de1 02             7288 	.byte	2
00000de2 00             7289 	.byte	0
00000de3 02             7290 	.byte	2
00000de4 00             7291 	.byte	0
00000de5 02             7292 	.byte	2
00000de6 00             7293 	.byte	0
00000de7 02             7294 	.byte	2
00000de8 00             7295 	.byte	0
00000de9 0c             7296 	.byte	12
00000dea 3c             7297 	.byte	60
00000deb 000502         7298 	.byte	0,5,2
00000dee 00000000*      7299 	.word	.LDWlin17
00000df2 0b             7300 	.byte	11
00000df3 0b             7301 	.byte	11
00000df4 000502         7302 	.byte	0,5,2
00000df7 00000000*      7303 	.word	.LDWlin18
00000dfb 0d             7304 	.byte	13
00000dfc 0b             7305 	.byte	11
00000dfd 0b             7306 	.byte	11
00000dfe 000502         7307 	.byte	0,5,2
00000e01 00000000*      7308 	.word	.LDWlin19
00000e05 0b             7309 	.byte	11
00000e06 02             7310 	.byte	2
00000e07 00             7311 	.byte	0
00000e08 0c             7312 	.byte	12
00000e09 23             7313 	.byte	35
00000e0a 02             7314 	.byte	2
00000e0b 00             7315 	.byte	0
00000e0c 0c             7316 	.byte	12
00000e0d 000502         7317 	.byte	0,5,2
00000e10 00000000*      7318 	.word	.LDWlin20
00000e14 0b             7319 	.byte	11
00000e15 0c             7320 	.byte	12
00000e16 000502         7321 	.byte	0,5,2
00000e19 00000000*      7322 	.word	.LDWlin21
00000e1d 0b             7323 	.byte	11
00000e1e 0c             7324 	.byte	12
00000e1f 000502         7325 	.byte	0,5,2
00000e22 00000000*      7326 	.word	.LDWlin22
00000e26 0b             7327 	.byte	11
00000e27 0b             7328 	.byte	11
00000e28 000502         7329 	.byte	0,5,2
00000e2b 00000000*      7330 	.word	.LDWlin23

                                                                      Page 134
                                                              C:\Users\nhuliyap\AppData\Local\Temp\gh_0000da81.s
00000e2f 0d             7331 	.byte	13
00000e30 000502         7332 	.byte	0,5,2
00000e33 00000000*      7333 	.word	.LDWlin24
00000e37 0b             7334 	.byte	11
00000e38 0b             7335 	.byte	11
00000e39 0b             7336 	.byte	11
00000e3a 000502         7337 	.byte	0,5,2
00000e3d 00000000*      7338 	.word	.LDWlin25
00000e41 0b             7339 	.byte	11
00000e42 02             7340 	.byte	2
00000e43 00             7341 	.byte	0
00000e44 0b             7342 	.byte	11
00000e45 0b             7343 	.byte	11
00000e46 0b             7344 	.byte	11
00000e47 000502         7345 	.byte	0,5,2
00000e4a 00000000*      7346 	.word	.LDWlin26
00000e4e 0b             7347 	.byte	11
00000e4f 0b             7348 	.byte	11
00000e50 000502         7349 	.byte	0,5,2
00000e53 00000000*      7350 	.word	.LDWlin27
00000e57 0b             7351 	.byte	11
00000e58 000502         7352 	.byte	0,5,2
00000e5b 00000000*      7353 	.word	.LDWlin28
00000e5f 0b             7354 	.byte	11
00000e60 0b             7355 	.byte	11
00000e61 000502         7356 	.byte	0,5,2
00000e64 00000000*      7357 	.word	.LDWlin29
00000e68 0b             7358 	.byte	11
00000e69 23             7359 	.byte	35
00000e6a 0b             7360 	.byte	11
00000e6b 000502         7361 	.byte	0,5,2
00000e6e 00000000*      7362 	.word	.LDWlin30
00000e72 0b             7363 	.byte	11
00000e73 0c             7364 	.byte	12
00000e74 0b             7365 	.byte	11
00000e75 1b             7366 	.byte	27
00000e76 02             7367 	.byte	2
00000e77 00             7368 	.byte	0
00000e78 0b             7369 	.byte	11
00000e79 02             7370 	.byte	2
00000e7a 00             7371 	.byte	0
00000e7b 0b             7372 	.byte	11
00000e7c 02             7373 	.byte	2
00000e7d 00             7374 	.byte	0
00000e7e 0c             7375 	.byte	12
00000e7f 000502         7376 	.byte	0,5,2
00000e82 00000000*      7377 	.word	.LDWlin31
00000e86 0b             7378 	.byte	11
00000e87 0b             7379 	.byte	11
00000e88 000502         7380 	.byte	0,5,2
00000e8b 00000000*      7381 	.word	.LDWlin32
00000e8f 0b             7382 	.byte	11
00000e90 0b             7383 	.byte	11
00000e91 000502         7384 	.byte	0,5,2
00000e94 00000000*      7385 	.word	.LDWlin33
00000e98 0b             7386 	.byte	11
00000e99 0b             7387 	.byte	11
00000e9a 0b             7388 	.byte	11
00000e9b 000502         7389 	.byte	0,5,2
00000e9e 00000000*      7390 	.word	.LDWlin34
00000ea2 0c             7391 	.byte	12

                                                                      Page 135
                                                              C:\Users\nhuliyap\AppData\Local\Temp\gh_0000da81.s
00000ea3 43             7392 	.byte	67
00000ea4 02             7393 	.byte	2
00000ea5 00             7394 	.byte	0
00000ea6 0c             7395 	.byte	12
00000ea7 000502         7396 	.byte	0,5,2
00000eaa 00000000*      7397 	.word	.LDWlin35
00000eae 03             7398 	.byte	3
00000eaf 05             7399 	.byte	5
00000eb0 02             7400 	.byte	2
00000eb1 00             7401 	.byte	0
00000eb2 01             7402 	.byte	1
00000eb3 03             7403 	.byte	3
00000eb4 7f             7404 	.byte	127
00000eb5 02             7405 	.byte	2
00000eb6 04             7406 	.byte	4
00000eb7 01             7407 	.byte	1
00000eb8 03             7408 	.byte	3
00000eb9 7d             7409 	.byte	125
00000eba 02             7410 	.byte	2
00000ebb 04             7411 	.byte	4
00000ebc 01             7412 	.byte	1
00000ebd 0b             7413 	.byte	11
00000ebe 03             7414 	.byte	3
00000ebf 04             7415 	.byte	4
00000ec0 02             7416 	.byte	2
00000ec1 10             7417 	.byte	16
00000ec2 01             7418 	.byte	1
00000ec3 000502         7419 	.byte	0,5,2
00000ec6 00000000*      7420 	.word	.LDWlin36
00000eca 0b             7421 	.byte	11
00000ecb 0b             7422 	.byte	11
00000ecc 0b             7423 	.byte	11
00000ecd 000502         7424 	.byte	0,5,2
00000ed0 00000000*      7425 	.word	.LDWlin37
00000ed4 0b             7426 	.byte	11
00000ed5 000502         7427 	.byte	0,5,2
00000ed8 00000000*      7428 	.word	.LDWlin38
00000edc 0b             7429 	.byte	11
00000edd 0c             7430 	.byte	12
00000ede 1b             7431 	.byte	27
00000edf 23             7432 	.byte	35
00000ee0 23             7433 	.byte	35
00000ee1 13             7434 	.byte	19
00000ee2 02             7435 	.byte	2
00000ee3 00             7436 	.byte	0
00000ee4 0b             7437 	.byte	11
00000ee5 02             7438 	.byte	2
00000ee6 00             7439 	.byte	0
00000ee7 0b             7440 	.byte	11
00000ee8 02             7441 	.byte	2
00000ee9 00             7442 	.byte	0
00000eea 0b             7443 	.byte	11
00000eeb 02             7444 	.byte	2
00000eec 00             7445 	.byte	0
00000eed 0b             7446 	.byte	11
00000eee 02             7447 	.byte	2
00000eef 00             7448 	.byte	0
00000ef0 0c             7449 	.byte	12
00000ef1 06             7450 	.byte	6
00000ef2 02             7451 	.byte	2
00000ef3 02             7452 	.byte	2

                                                                      Page 136
                                                              C:\Users\nhuliyap\AppData\Local\Temp\gh_0000da81.s
00000ef4 02             7453 	.byte	2
00000ef5 04             7454 	.byte	4
00000ef6 000101         7455 	.byte	0,1,1
                        7456 	.section	.debug_info
                        7457 .LDW_4e66ea0:
00001708 0f             7458 	.byte	15
00001709 726571756573   7459 	.strz	"request_pstr"
0000170f 745f70737472 
00001715 00 
00001716 8e07           7460 	.byte	142,7
00001718 46             7461 	.byte	70
00001719 01             7462 	.byte	1
0000171a 00000000*      7463 	.word	.LDW_40c7030
0000171e 00             7464 	.byte	0
0000171f 016b           7465 	.byte	1,107
                        7466 
                        7467 .LDW_4e669d0:
00001721 0f             7468 	.byte	15
00001722 746d70537461   7469 	.strz	"tmpStat_penu"
00001728 745f70656e75 
0000172e 00 
0000172f 8f07           7470 	.byte	143,7
00001731 1c             7471 	.byte	28
00001732 01             7472 	.byte	1
00001733 00000000*      7473 	.word	.LDW_40c6d20
00001737 00             7474 	.byte	0
00001738 016c           7475 	.byte	1,108
                        7476 
                        7477 .LDW_4e66e48:
0000173a 0f             7478 	.byte	15
0000173b 697343616c6c   7479 	.strz	"isCalledFromExecute_enu"
00001741 656446726f6d 
00001747 457865637574 
0000174d 655f656e7500 
00001753 9007           7480 	.byte	144,7
00001755 1c             7481 	.byte	28
00001756 01             7482 	.byte	1
00001757 00000000*      7483 	.word	.LDW_4dcdb10
0000175b 00             7484 	.byte	0
0000175c 0164           7485 	.byte	1,100
                        7486 
                        7487 .LDW_4107408:
0000175e 1d             7488 	.byte	29
0000175f 00000000*      7489 	.word	.LDW21
00001763 00000000*      7490 	.word	.LDW31
                        7491 
                        7492 .LDW_4e66c38:
00001767 04             7493 	.byte	4
00001768 616464466c61   7494 	.strz	"addFlash"
0000176e 736800 
00001771 9207           7495 	.byte	146,7
00001773 17             7496 	.byte	23
00001774 01             7497 	.byte	1
00001775 00000000*      7498 	.word	.LDW_4d15ac0
00001779 00             7499 	.byte	0
0000177a 00             7500 	.byte	0
0000177b 0273           7501 	.byte	2,115
0000177d 00             7502 	.byte	0
                        7503 
                        7504 .LDW_4e66ce8:
0000177e 04             7505 	.byte	4

                                                                      Page 137
                                                              C:\Users\nhuliyap\AppData\Local\Temp\gh_0000da81.s
0000177f 636e74546f74   7506 	.strz	"cntTotal"
00001785 616c00 
00001788 9307           7507 	.byte	147,7
0000178a 17             7508 	.byte	23
0000178b 01             7509 	.byte	1
0000178c 00000000*      7510 	.word	.LDW_4d15ac0
00001790 00             7511 	.byte	0
00001791 00             7512 	.byte	0
00001792 016d           7513 	.byte	1,109
                        7514 
                        7515 .LDW_4e66a80:
00001794 04             7516 	.byte	4
00001795 616464427566   7517 	.strz	"addBuf"
0000179b 00 
0000179c 9407           7518 	.byte	148,7
0000179e 17             7519 	.byte	23
0000179f 01             7520 	.byte	1
000017a0 00000000*      7521 	.word	.LDW_4d15ac0
000017a4 00             7522 	.byte	0
000017a5 00             7523 	.byte	0
000017a6 016a           7524 	.byte	1,106
                        7525 
                        7526 .LDW_4e66a28:
000017a8 05             7527 	.byte	5
000017a9 6772616e756c   7528 	.strz	"granularityCurOp"
000017af 617269747943 
000017b5 75724f7000 
000017ba 9507           7529 	.byte	149,7
000017bc 17             7530 	.byte	23
000017bd 01             7531 	.byte	1
000017be 00000000*      7532 	.word	.LDW_4d15ac0
000017c2 00             7533 	.byte	0
000017c3 00             7534 	.byte	0
                        7535 
                        7536 .LDW_4e66d98:
000017c4 04             7537 	.byte	4
000017c5 636e74437572   7538 	.strz	"cntCurOp"
000017cb 4f7000 
000017ce 9607           7539 	.byte	150,7
000017d0 17             7540 	.byte	23
000017d1 01             7541 	.byte	1
000017d2 00000000*      7542 	.word	.LDW_4d15ac0
000017d6 00             7543 	.byte	0
000017d7 00             7544 	.byte	0
000017d8 0273           7545 	.byte	2,115
000017da 04             7546 	.byte	4
                        7547 
                        7548 .LDW_4e666b8:
000017db 04             7549 	.byte	4
000017dc 616464456e64   7550 	.strz	"addEndCurOp"
000017e2 4375724f7000 
000017e8 9707           7551 	.byte	151,7
000017ea 17             7552 	.byte	23
000017eb 01             7553 	.byte	1
000017ec 00000000*      7554 	.word	.LDW_4d15ac0
000017f0 00             7555 	.byte	0
000017f1 00             7556 	.byte	0
000017f2 0165           7557 	.byte	1,101
                        7558 
                        7559 .LDW_4e66fa8:
000017f4 04             7560 	.byte	4

                                                                      Page 138
                                                              C:\Users\nhuliyap\AppData\Local\Temp\gh_0000da81.s
000017f5 636d6400       7561 	.strz	"cmd"
000017f9 9807           7562 	.byte	152,7
000017fb 18             7563 	.byte	24
000017fc 01             7564 	.byte	1
000017fd 00000000*      7565 	.word	.LDW_4dcd5e8
00001801 00             7566 	.byte	0
00001802 00             7567 	.byte	0
00001803 0169           7568 	.byte	1,105
                        7569 
                        7570 .LDW_4e66b30:
00001805 04             7571 	.byte	4
00001806 616363547970   7572 	.strz	"accType"
0000180c 6500 
0000180e 9907           7573 	.byte	153,7
00001810 18             7574 	.byte	24
00001811 01             7575 	.byte	1
00001812 00000000*      7576 	.word	.LDW_4e66608
00001816 00             7577 	.byte	0
00001817 00             7578 	.byte	0
00001818 0167           7579 	.byte	1,103
                        7580 
                        7581 .LDW_4e66660:
0000181a 04             7582 	.byte	4
0000181b 636f6e7400     7583 	.strz	"cont"
00001820 9a07           7584 	.byte	154,7
00001822 18             7585 	.byte	24
00001823 01             7586 	.byte	1
00001824 00000000*      7587 	.word	.LDW_4dcdb10
00001828 00             7588 	.byte	0
00001829 00             7589 	.byte	0
0000182a 0168           7590 	.byte	1,104
                        7591 
                        7592 .LDW_4e66ad8:
0000182c 04             7593 	.byte	4
0000182d 666375436d64   7594 	.strz	"fcuCmd"
00001833 00 
00001834 9b07           7595 	.byte	155,7
00001836 17             7596 	.byte	23
00001837 01             7597 	.byte	1
00001838 00000000*      7598 	.word	.LDW_4e66df0
0000183c 00             7599 	.byte	0
0000183d 00             7600 	.byte	0
0000183e 0166           7601 	.byte	1,102
                        7602 
00001840 00             7603 	.byte	0
                        7604 
00001841 00             7605 	.byte	0
                        7606 
                        7607 .LDW_4e88778:
00001842 13             7608 	.byte	19
00001843 525f46444c5f   7609 	.strz	"R_FDL_UFct_EndCurrentOperation"
00001849 554663745f45 
0000184f 6e6443757272 
00001855 656e744f7065 
0000185b 726174696f6e 
00001861 00 
00001862 b508           7610 	.byte	181,8
00001864 13             7611 	.byte	19
00001865 01             7612 	.byte	1
00001866 00000000*      7613 	.word	_R_FDL_UFct_EndCurrentOperation..C.3A.5C_ECU2.5CECU_Rivian_A1.5CTarget.5Crepo_projects.5CpRealEcu.5CcR_LATEST.5Cmake.5Coutput.5Cobjects.5Cr_fdl_user_if.
0000186a 00000000*      7614 	.word	___ghs_eofn_R_FDL_UFct_EndCurrentOperation

                                                                      Page 139
                                                              C:\Users\nhuliyap\AppData\Local\Temp\gh_0000da81.s
0000186e 0153           7615 	.byte	1,83
00001870 02             7616 	.byte	2
00001871 00             7617 	.byte	0
00001872 02             7618 	.byte	2
00001873 00             7619 	.byte	0
00001874 00             7620 	.byte	0
00001875 00             7621 	.byte	0
00001876 00             7622 	.byte	0
00001877 00             7623 	.byte	0
00001878 01             7624 	.byte	1
00001879 00             7625 	.byte	0
0000187a 01             7626 	.byte	1
                        7627 
                        7628 	.section	.debug_frame
                        7629 .LDW_4dc26e8:
000002cc 00000000*      7630 	.word	.LDW_unq_26-.LDW_unq_25
                        7631 .LDW_unq_25:
000002d0 00000000*      7632 	.word	.LDW_4e8d320
000002d4 00000000*      7633 	.word	_R_FDL_UFct_EndCurrentOperation..C.3A.5C_ECU2.5CECU_Rivian_A1.5CTarget.5Crepo_projects.5CpRealEcu.5CcR_LATEST.5Cmake.5Coutput.5Cobjects.5Cr_fdl_user_if.
000002d8 00000000*      7634 	.word	___ghs_eofn_R_FDL_UFct_EndCurrentOperation-_R_FDL_UFct_EndCurrentOperation..C.3A.5C_ECU2.5CECU_Rivian_A1.5CTarget.5Crepo_projects.5CpRealEcu.5CcR_LATEST.5Cmake.5Coutput.5Cobjects.5Cr_fdl_user_if.
000002dc 01             7635 	.byte	1
000002dd 00000000*      7636 	.word	.LDW33
000002e1 00             7637 	.byte	0
000002e2 00             7638 	.byte	0
000002e3 00             7639 	.byte	0
                        7640 .LDW_unq_26:
                        7641 	.section	.debug_line
00000ef9 000502         7642 	.byte	0,5,2
00000efc 00000000*      7643 	.word	_R_FDL_UFct_EndCurrentOperation..C.3A.5C_ECU2.5CECU_Rivian_A1.5CTarget.5Crepo_projects.5CpRealEcu.5CcR_LATEST.5Cmake.5Coutput.5Cobjects.5Cr_fdl_user_if.
00000f00 03             7644 	.byte	3
00000f01 b508           7645 	.byte	181,8
00000f03 02             7646 	.byte	2
00000f04 00             7647 	.byte	0
00000f05 01             7648 	.byte	1
00000f06 06             7649 	.byte	6
00000f07 13             7650 	.byte	19
00000f08 000502         7651 	.byte	0,5,2
00000f0b 00000000*      7652 	.word	.LDWlin140
00000f0f 0b             7653 	.byte	11
00000f10 000502         7654 	.byte	0,5,2
00000f13 00000000*      7655 	.word	.LDWlin141
00000f17 0b             7656 	.byte	11
00000f18 0b             7657 	.byte	11
00000f19 23             7658 	.byte	35
00000f1a 02             7659 	.byte	2
00000f1b 00             7660 	.byte	0
00000f1c 0b             7661 	.byte	11
00000f1d 13             7662 	.byte	19
00000f1e 1b             7663 	.byte	27
00000f1f 13             7664 	.byte	19
00000f20 02             7665 	.byte	2
00000f21 02             7666 	.byte	2
00000f22 000101         7667 	.byte	0,1,1
                        7668 	.section	.debug_info
                        7669 .LDW_4e66c90:
0000187b 0f             7670 	.byte	15
0000187c 7265745f656e   7671 	.strz	"ret_enu"
00001882 7500 
00001884 b508           7672 	.byte	181,8
00001886 42             7673 	.byte	66
00001887 01             7674 	.byte	1

                                                                      Page 140
                                                              C:\Users\nhuliyap\AppData\Local\Temp\gh_0000da81.s
00001888 00000000*      7675 	.word	.LDW_4d15818
0000188c 00             7676 	.byte	0
0000188d 0156           7677 	.byte	1,86
                        7678 
                        7679 .LDW_4107528:
0000188f 1d             7680 	.byte	29
00001890 00000000*      7681 	.word	.LDW23
00001894 00000000*      7682 	.word	.LDW33
                        7683 
00001898 00             7684 	.byte	0
                        7685 
00001899 00             7686 	.byte	0
                        7687 
                        7688 .LDW_4e88cd0:
0000189a 14             7689 	.byte	20
0000189b 525f46444c5f   7690 	.strz	"R_FDL_UFct_StateNotStandBy"
000018a1 554663745f53 
000018a7 746174654e6f 
000018ad 745374616e64 
000018b3 427900 
000018b6 c508           7691 	.byte	197,8
000018b8 1b             7692 	.byte	27
000018b9 01             7693 	.byte	1
000018ba 00000000*      7694 	.word	.LDW_4dcdb10
000018be 00000000*      7695 	.word	_R_FDL_UFct_StateNotStandBy..C.3A.5C_ECU2.5CECU_Rivian_A1.5CTarget.5Crepo_projects.5CpRealEcu.5CcR_LATEST.5Cmake.5Coutput.5Cobjects.5Cr_fdl_user_if.
000018c2 00000000*      7696 	.word	___ghs_eofn_R_FDL_UFct_StateNotStandBy
000018c6 0153           7697 	.byte	1,83
000018c8 02             7698 	.byte	2
000018c9 00             7699 	.byte	0
000018ca 02             7700 	.byte	2
000018cb 00             7701 	.byte	0
000018cc 00             7702 	.byte	0
000018cd 00             7703 	.byte	0
000018ce 00             7704 	.byte	0
000018cf 00             7705 	.byte	0
000018d0 01             7706 	.byte	1
000018d1 00             7707 	.byte	0
000018d2 01             7708 	.byte	1
                        7709 
                        7710 	.section	.debug_frame
                        7711 .LDW_4dc27a8:
000002e4 00000000*      7712 	.word	.LDW_unq_28-.LDW_unq_27
                        7713 .LDW_unq_27:
000002e8 00000000*      7714 	.word	.LDW_4e8d320
000002ec 00000000*      7715 	.word	_R_FDL_UFct_StateNotStandBy..C.3A.5C_ECU2.5CECU_Rivian_A1.5CTarget.5Crepo_projects.5CpRealEcu.5CcR_LATEST.5Cmake.5Coutput.5Cobjects.5Cr_fdl_user_if.
000002f0 00000000*      7716 	.word	___ghs_eofn_R_FDL_UFct_StateNotStandBy-_R_FDL_UFct_StateNotStandBy..C.3A.5C_ECU2.5CECU_Rivian_A1.5CTarget.5Crepo_projects.5CpRealEcu.5CcR_LATEST.5Cmake.5Coutput.5Cobjects.5Cr_fdl_user_if.
000002f4 01             7717 	.byte	1
000002f5 00000000*      7718 	.word	.LDW13
000002f9 00             7719 	.byte	0
000002fa 00             7720 	.byte	0
000002fb 00             7721 	.byte	0
                        7722 .LDW_unq_28:
                        7723 	.section	.debug_line
00000f25 000502         7724 	.byte	0,5,2
00000f28 00000000*      7725 	.word	_R_FDL_UFct_StateNotStandBy..C.3A.5C_ECU2.5CECU_Rivian_A1.5CTarget.5Crepo_projects.5CpRealEcu.5CcR_LATEST.5Cmake.5Coutput.5Cobjects.5Cr_fdl_user_if.
00000f2c 06             7726 	.byte	6
00000f2d 03             7727 	.byte	3
00000f2e c708           7728 	.byte	199,8
00000f30 02             7729 	.byte	2
00000f31 00             7730 	.byte	0
00000f32 01             7731 	.byte	1

                                                                      Page 141
                                                              C:\Users\nhuliyap\AppData\Local\Temp\gh_0000da81.s
00000f33 000502         7732 	.byte	0,5,2
00000f36 00000000*      7733 	.word	.LDWlin139
00000f3a 03             7734 	.byte	3
00000f3b 06             7735 	.byte	6
00000f3c 02             7736 	.byte	2
00000f3d 00             7737 	.byte	0
00000f3e 01             7738 	.byte	1
00000f3f 0b             7739 	.byte	11
00000f40 0c             7740 	.byte	12
00000f41 02             7741 	.byte	2
00000f42 00             7742 	.byte	0
00000f43 0c             7743 	.byte	12
00000f44 02             7744 	.byte	2
00000f45 02             7745 	.byte	2
00000f46 000101         7746 	.byte	0,1,1
                        7747 	.section	.debug_info
                        7748 .LDW_41074c8:
000018d3 1d             7749 	.byte	29
000018d4 00000000*      7750 	.word	.LDW03
000018d8 00000000*      7751 	.word	.LDW13
                        7752 
                        7753 .LDW_4e66710:
000018dc 04             7754 	.byte	4
000018dd 72657400       7755 	.strz	"ret"
000018e1 c608           7756 	.byte	198,8
000018e3 12             7757 	.byte	18
000018e4 01             7758 	.byte	1
000018e5 00000000*      7759 	.word	.LDW_4dcdb10
000018e9 00             7760 	.byte	0
000018ea 00             7761 	.byte	0
000018eb 015a           7762 	.byte	1,90
                        7763 
000018ed 00             7764 	.byte	0
                        7765 
000018ee 00             7766 	.byte	0
                        7767 
000018ef 00             7768 	.byte	0
                        7769 
                        7770 	.section	.debug_line
                        7771 .Ldw_line_end:
                        7772 	.section	.debug_macinfo
00000000 01             7773 	.byte	1
00000001 00             7774 	.byte	0
00000002 5f5f4748535f   7775 	.strz	"__GHS_VERSION_NUMBER 201517"
00000008 56455253494f 
0000000e 4e5f4e554d42 
00000014 455220323031 
0000001a 35313700 
0000001e 01             7776 	.byte	1
0000001f 00             7777 	.byte	0
00000020 5f5f6768735f   7778 	.strz	"__ghs__ 1"
00000026 5f203100 
0000002a 01             7779 	.byte	1
0000002b 00             7780 	.byte	0
0000002c 5f5f56383030   7781 	.strz	"__V800_registermode 32"
00000032 5f7265676973 
00000038 7465726d6f64 
0000003e 6520333200 
00000043 01             7782 	.byte	1
00000044 00             7783 	.byte	0
00000045 5f5f4c4c4f4e   7784 	.strz	"__LLONG_BIT 64"

                                                                      Page 142
                                                              C:\Users\nhuliyap\AppData\Local\Temp\gh_0000da81.s
0000004b 475f42495420 
00000051 363400 
00000054 03             7785 	.byte	3
00000055 00             7786 	.byte	0
00000056 01             7787 	.byte	1
00000057 03             7788 	.byte	3
00000058 01             7789 	.byte	1
00000059 02             7790 	.byte	2
0000005a 01             7791 	.byte	1
0000005b 02             7792 	.byte	2
0000005c 5354445f5459   7793 	.strz	"STD_TYPES_H "
00000062 5045535f4820 
00000068 00 
00000069 03             7794 	.byte	3
0000006a 1c             7795 	.byte	28
0000006b 03             7796 	.byte	3
0000006c 04             7797 	.byte	4
0000006d 03             7798 	.byte	3
0000006e 1d             7799 	.byte	29
0000006f 04             7800 	.byte	4
00000070 03             7801 	.byte	3
00000071 1b             7802 	.byte	27
00000072 05             7803 	.byte	5
00000073 03             7804 	.byte	3
00000074 54             7805 	.byte	84
00000075 06             7806 	.byte	6
00000076 01             7807 	.byte	1
00000077 32             7808 	.byte	50
00000078 4f535f434f4e   7809 	.strz	"OS_CONST "
0000007e 53542000 
00000082 01             7810 	.byte	1
00000083 35             7811 	.byte	53
00000084 4f535f415050   7812 	.strz	"OS_APPL_CODE "
0000008a 4c5f434f4445 
00000090 2000 
00000092 04             7813 	.byte	4
00000093 04             7814 	.byte	4
00000094 01             7815 	.byte	1
00000095 33             7816 	.byte	51
00000096 4c4f43414c5f   7817 	.strz	"LOCAL_INLINE static inline"
0000009c 494e4c494e45 
000000a2 207374617469 
000000a8 6320696e6c69 
000000ae 6e6500 
000000b1 01             7818 	.byte	1
000000b2 34             7819 	.byte	52
000000b3 46554e432872   7820 	.strz	"FUNC(rettype,memclass) rettype"
000000b9 657474797065 
000000bf 2c6d656d636c 
000000c5 617373292072 
000000cb 657474797065 
000000d1 00 
000000d2 01             7821 	.byte	1
000000d3 37             7822 	.byte	55
000000d4 503256415228   7823 	.strz	"P2VAR(ptrtype,memclass,ptrclass) ptrtype*"
000000da 707472747970 
000000e0 652c6d656d63 
000000e6 6c6173732c70 
000000ec 7472636c6173 
000000f2 732920707472 
000000f8 747970652a00 

                                                                      Page 143
                                                              C:\Users\nhuliyap\AppData\Local\Temp\gh_0000da81.s
000000fe 01             7824 	.byte	1
000000ff 38             7825 	.byte	56
00000100 5032434f4e53   7826 	.strz	"P2CONST(ptrtype,memclass,ptrclass) const ptrtype*"
00000106 542870747274 
0000010c 7970652c6d65 
00000112 6d636c617373 
00000118 2c707472636c 
0000011e 617373292063 
00000124 6f6e73742070 
0000012a 747274797065 
00000130 2a00 
00000132 01             7827 	.byte	1
00000133 39             7828 	.byte	57
00000134 434f4e535450   7829 	.strz	"CONSTP2VAR(ptrtype,memclass,ptrclass) ptrtype *const"
0000013a 325641522870 
00000140 747274797065 
00000146 2c6d656d636c 
0000014c 6173732c7074 
00000152 72636c617373 
00000158 292070747274 
0000015e 797065202a63 
00000164 6f6e737400 
00000169 01             7830 	.byte	1
0000016a 3a             7831 	.byte	58
0000016b 434f4e535450   7832 	.strz	"CONSTP2CONST(ptrtype,memclass,ptrclass) const ptrtype *const"
00000171 32434f4e5354 
00000177 287074727479 
0000017d 70652c6d656d 
00000183 636c6173732c 
00000189 707472636c61 
0000018f 73732920636f 
00000195 6e7374207074 
0000019b 727479706520 
000001a1 2a636f6e7374 
000001a7 00 
000001a8 01             7833 	.byte	1
000001a9 3b             7834 	.byte	59
000001aa 503246554e43   7835 	.strz	"P2FUNC(rettype,ptrclass,fctname) rettype (*fctname)"
000001b0 287265747479 
000001b6 70652c707472 
000001bc 636c6173732c 
000001c2 6663746e616d 
000001c8 652920726574 
000001ce 747970652028 
000001d4 2a6663746e61 
000001da 6d652900 
000001de 01             7836 	.byte	1
000001df 3d             7837 	.byte	61
000001e0 434f4e535428   7838 	.strz	"CONST(type,memclass) const type"
000001e6 747970652c6d 
000001ec 656d636c6173 
000001f2 732920636f6e 
000001f8 737420747970 
000001fe 6500 
00000200 01             7839 	.byte	1
00000201 3e             7840 	.byte	62
00000202 564152287661   7841 	.strz	"VAR(vartype,memclass) vartype"
00000208 72747970652c 
0000020e 6d656d636c61 
00000214 737329207661 
0000021a 727479706500 

                                                                      Page 144
                                                              C:\Users\nhuliyap\AppData\Local\Temp\gh_0000da81.s
00000220 04             7842 	.byte	4
00000221 01             7843 	.byte	1
00000222 3c             7844 	.byte	60
00000223 5354445f4f4e   7845 	.strz	"STD_ON 1u"
00000229 20317500 
0000022d 01             7846 	.byte	1
0000022e 3d             7847 	.byte	61
0000022f 5354445f4f46   7848 	.strz	"STD_OFF 0u"
00000235 4620307500 
0000023a 01             7849 	.byte	1
0000023b 4a             7850 	.byte	74
0000023c 535441545553   7851 	.strz	"STATUSTYPEDEFINED "
00000242 545950454445 
00000248 46494e454420 
0000024e 00 
0000024f 04             7852 	.byte	4
00000250 01             7853 	.byte	1
00000251 0b             7854 	.byte	11
00000252 525f46444c5f   7855 	.strz	"R_FDL_USERIF_C "
00000258 555345524946 
0000025e 5f432000 
00000262 03             7856 	.byte	3
00000263 0d             7857 	.byte	13
00000264 07             7858 	.byte	7
00000265 03             7859 	.byte	3
00000266 04             7860 	.byte	4
00000267 08             7861 	.byte	8
00000268 01             7862 	.byte	1
00000269 0a             7863 	.byte	10
0000026a 525f54595045   7864 	.strz	"R_TYPEDEFS_H "
00000270 444546535f48 
00000276 2000 
00000278 03             7865 	.byte	3
00000279 0c             7866 	.byte	12
0000027a 09             7867 	.byte	9
0000027b 04             7868 	.byte	4
0000027c 04             7869 	.byte	4
0000027d 03             7870 	.byte	3
0000027e 05             7871 	.byte	5
0000027f 0a             7872 	.byte	10
00000280 01             7873 	.byte	1
00000281 0c             7874 	.byte	12
00000282 525f46444c5f   7875 	.strz	"R_FDL_COMP_GHS 1"
00000288 434f4d505f47 
0000028e 4853203100 
00000293 01             7876 	.byte	1
00000294 17             7877 	.byte	23
00000295 525f46444c5f   7878 	.strz	"R_FDL_COMPILER R_FDL_COMP_GHS"
0000029b 434f4d50494c 
000002a1 455220525f46 
000002a7 444c5f434f4d 
000002ad 505f47485300 
000002b3 03             7879 	.byte	3
000002b4 1a             7880 	.byte	26
000002b5 0b             7881 	.byte	11
000002b6 03             7882 	.byte	3
000002b7 23             7883 	.byte	35
000002b8 0c             7884 	.byte	12
000002b9 01             7885 	.byte	1
000002ba 04             7886 	.byte	4
000002bb 464c535f4152   7887 	.strz	"FLS_AR_FOUR_ZERO_THREE 403"

                                                                      Page 145
                                                              C:\Users\nhuliyap\AppData\Local\Temp\gh_0000da81.s
000002c1 5f464f55525f 
000002c7 5a45524f5f54 
000002cd 485245452034 
000002d3 303300 
000002d6 01             7888 	.byte	1
000002d7 05             7889 	.byte	5
000002d8 464c535f4152   7890 	.strz	"FLS_AR_THREE_TWO_TWO 322"
000002de 5f5448524545 
000002e4 5f54574f5f54 
000002ea 574f20333232 
000002f0 00 
000002f1 01             7891 	.byte	1
000002f2 06             7892 	.byte	6
000002f3 464c535f4152   7893 	.strz	"FLS_AR_HIGHER_VERSION FLS_AR_FOUR_ZERO_THREE"
000002f9 5f4849474845 
000002ff 525f56455253 
00000305 494f4e20464c 
0000030b 535f41525f46 
00000311 4f55525f5a45 
00000317 524f5f544852 
0000031d 454500 
00000320 01             7894 	.byte	1
00000321 07             7895 	.byte	7
00000322 464c535f4152   7896 	.strz	"FLS_AR_LOWER_VERSION FLS_AR_THREE_TWO_TWO"
00000328 5f4c4f574552 
0000032e 5f5645525349 
00000334 4f4e20464c53 
0000033a 5f41525f5448 
00000340 5245455f5457 
00000346 4f5f54574f00 
0000034c 03             7897 	.byte	3
0000034d 09             7898 	.byte	9
0000034e 0d             7899 	.byte	13
0000034f 03             7900 	.byte	3
00000350 04             7901 	.byte	4
00000351 0e             7902 	.byte	14
00000352 04             7903 	.byte	4
00000353 01             7904 	.byte	1
00000354 13             7905 	.byte	19
00000355 464c535f4152   7906 	.strz	"FLS_AR_VERSION FLS_AR_LOWER_VERSION"
0000035b 5f5645525349 
00000361 4f4e20464c53 
00000367 5f41525f4c4f 
0000036d 5745525f5645 
00000373 5253494f4e00 
00000379 01             7907 	.byte	1
0000037a 14             7908 	.byte	20
0000037b 464c535f464c   7909 	.strz	"FLS_FLASH_ACCESS FLS_DATAFLASH_ACCESS"
00000381 4153485f4143 
00000387 434553532046 
0000038d 4c535f444154 
00000393 41464c415348 
00000399 5f4143434553 
0000039f 5300 
000003a1 01             7910 	.byte	1
000003a2 15             7911 	.byte	21
000003a3 464c535f4445   7912 	.strz	"FLS_DEV_ERROR_DETECT STD_OFF"
000003a9 565f4552524f 
000003af 525f44455445 
000003b5 435420535444 
000003bb 5f4f464600 

                                                                      Page 146
                                                              C:\Users\nhuliyap\AppData\Local\Temp\gh_0000da81.s
000003c0 01             7913 	.byte	1
000003c1 16             7914 	.byte	22
000003c2 464c535f5645   7915 	.strz	"FLS_VERSION_INFO_API STD_OFF"
000003c8 5253494f4e5f 
000003ce 494e464f5f41 
000003d4 504920535444 
000003da 5f4f464600 
000003df 01             7916 	.byte	1
000003e0 17             7917 	.byte	23
000003e1 464c535f4341   7918 	.strz	"FLS_CANCEL_API STD_ON"
000003e7 4e43454c5f41 
000003ed 504920535444 
000003f3 5f4f4e00 
000003f7 01             7919 	.byte	1
000003f8 18             7920 	.byte	24
000003f9 464c535f434f   7921 	.strz	"FLS_COMPARE_API STD_ON"
000003ff 4d504152455f 
00000405 415049205354 
0000040b 445f4f4e00 
00000410 01             7922 	.byte	1
00000411 19             7923 	.byte	25
00000412 464c535f5345   7924 	.strz	"FLS_SET_MODE_API STD_OFF"
00000418 545f4d4f4445 
0000041e 5f4150492053 
00000424 54445f4f4646 
0000042a 00 
0000042b 01             7925 	.byte	1
0000042c 1a             7926 	.byte	26
0000042d 464c535f4745   7927 	.strz	"FLS_GET_STATUS_API STD_ON"
00000433 545f53544154 
00000439 55535f415049 
0000043f 205354445f4f 
00000445 4e00 
00000447 01             7928 	.byte	1
00000448 1b             7929 	.byte	27
00000449 464c535f4745   7930 	.strz	"FLS_GET_JOB_RESULT_API STD_ON"
0000044f 545f4a4f425f 
00000455 524553554c54 
0000045b 5f4150492053 
00000461 54445f4f4e00 
00000467 01             7931 	.byte	1
00000468 1d             7932 	.byte	29
00000469 464c535f4352   7933 	.strz	"FLS_CRITICAL_SECTION_PROTECTION STD_ON"
0000046f 49544943414c 
00000475 5f5345435449 
0000047b 4f4e5f50524f 
00000481 54454354494f 
00000487 4e205354445f 
0000048d 4f4e00 
00000490 01             7934 	.byte	1
00000491 21             7935 	.byte	33
00000492 464c535f5449   7936 	.strz	"FLS_TIMEOUT_MONITORING STD_OFF"
00000498 4d454f55545f 
0000049e 4d4f4e49544f 
000004a4 52494e472053 
000004aa 54445f4f4646 
000004b0 00 
000004b1 01             7937 	.byte	1
000004b2 22             7938 	.byte	34
000004b3 464c535f424c   7939 	.strz	"FLS_BLANKCHECK_API STD_ON"
000004b9 414e4b434845 

                                                                      Page 147
                                                              C:\Users\nhuliyap\AppData\Local\Temp\gh_0000da81.s
000004bf 434b5f415049 
000004c5 205354445f4f 
000004cb 4e00 
000004cd 01             7940 	.byte	1
000004ce 23             7941 	.byte	35
000004cf 464c535f5245   7942 	.strz	"FLS_READIMMEDIATE_API STD_OFF"
000004d5 4144494d4d45 
000004db 44494154455f 
000004e1 415049205354 
000004e7 445f4f464600 
000004ed 01             7943 	.byte	1
000004ee 24             7944 	.byte	36
000004ef 464c535f494e   7945 	.strz	"FLS_INTERRUPT_MODE STD_OFF"
000004f5 544552525550 
000004fb 545f4d4f4445 
00000501 205354445f4f 
00000507 464600 
0000050a 01             7946 	.byte	1
0000050b 26             7947 	.byte	38
0000050c 464c535f5355   7948 	.strz	"FLS_SUSPEND_API STD_OFF"
00000512 5350454e445f 
00000518 415049205354 
0000051e 445f4f464600 
00000524 01             7949 	.byte	1
00000525 27             7950 	.byte	39
00000526 464c535f5245   7951 	.strz	"FLS_RESUME_API STD_OFF"
0000052c 53554d455f41 
00000532 504920535444 
00000538 5f4f464600 
0000053d 01             7952 	.byte	1
0000053e 2f             7953 	.byte	47
0000053f 464c535f4648   7954 	.strz	"FLS_FHVE_REGS NOT_SUPPORTED"
00000545 56455f524547 
0000054b 53204e4f545f 
00000551 535550504f52 
00000557 54454400 
0000055b 01             7955 	.byte	1
0000055c 30             7956 	.byte	48
0000055d 464c535f464c   7957 	.strz	"FLS_FLMD_REGS SUPPORTED"
00000563 4d445f524547 
00000569 532053555050 
0000056f 4f5254454400 
00000575 04             7958 	.byte	4
00000576 03             7959 	.byte	3
00000577 0a             7960 	.byte	10
00000578 0f             7961 	.byte	15
00000579 03             7962 	.byte	3
0000057a 04             7963 	.byte	4
0000057b 10             7964 	.byte	16
0000057c 01             7965 	.byte	1
0000057d 2a             7966 	.byte	42
0000057e 535550504f52   7967 	.strz	"SUPPORTED 0"
00000584 544544203000 
0000058a 01             7968 	.byte	1
0000058b 2b             7969 	.byte	43
0000058c 4e4f545f5355   7970 	.strz	"NOT_SUPPORTED 1"
00000592 50504f525445 
00000598 44203100 
0000059c 01             7971 	.byte	1
0000059d 40             7972 	.byte	64
0000059e 464c535f4441   7973 	.strz	"FLS_DATAFLASH_ACCESS 0"

                                                                      Page 148
                                                              C:\Users\nhuliyap\AppData\Local\Temp\gh_0000da81.s
000005a4 5441464c4153 
000005aa 485f41434345 
000005b0 5353203000 
000005b5 01             7974 	.byte	1
000005b6 41             7975 	.byte	65
000005b7 464c535f434f   7976 	.strz	"FLS_CODEFLASH_ACCESS 1"
000005bd 4445464c4153 
000005c3 485f41434345 
000005c9 5353203100 
000005ce 01             7977 	.byte	1
000005cf 42             7978 	.byte	66
000005d0 464c535f4346   7979 	.strz	"FLS_CFDF_ACCESS 2"
000005d6 44465f414343 
000005dc 455353203200 
000005e2 01             7980 	.byte	1
000005e3 6b             7981 	.byte	107
000005e4 464c535f5354   7982 	.strz	"FLS_START_SEC_BUFFER_CODE "
000005ea 4152545f5345 
000005f0 435f42554646 
000005f6 45525f434f44 
000005fc 452000 
000005ff 03             7983 	.byte	3
00000600 6c             7984 	.byte	108
00000601 11             7985 	.byte	17
00000602 01             7986 	.byte	1
00000603 02             7987 	.byte	2
00000604 4d454d4d4150   7988 	.strz	"MEMMAP_VENDOR_ID (30u)"
0000060a 5f56454e444f 
00000610 525f49442028 
00000616 3330752900 
0000061b 01             7989 	.byte	1
0000061c 08             7990 	.byte	8
0000061d 4d454d4d4150   7991 	.strz	"MEMMAP_AR_RELEASE_MAJOR_VERSION (4u)"
00000623 5f41525f5245 
00000629 4c454153455f 
0000062f 4d414a4f525f 
00000635 56455253494f 
0000063b 4e2028347529 
00000641 00 
00000642 01             7992 	.byte	1
00000643 09             7993 	.byte	9
00000644 4d454d4d4150   7994 	.strz	"MEMMAP_AR_RELEASE_MINOR_VERSION (0u)"
0000064a 5f41525f5245 
00000650 4c454153455f 
00000656 4d494e4f525f 
0000065c 56455253494f 
00000662 4e2028307529 
00000668 00 
00000669 01             7995 	.byte	1
0000066a 0a             7996 	.byte	10
0000066b 4d454d4d4150   7997 	.strz	"MEMMAP_AR_RELEASE_REVISION_VERSION (3u)"
00000671 5f41525f5245 
00000677 4c454153455f 
0000067d 524556495349 
00000683 4f4e5f564552 
00000689 53494f4e2028 
0000068f 33752900 
00000693 01             7998 	.byte	1
00000694 10             7999 	.byte	16
00000695 4d454d5f4152   8000 	.strz	"MEM_AR_RELEASE_MAJOR_VERSION MEMMAP_AR_RELEASE_MAJOR_VERSION"
0000069b 5f52454c4541 

                                                                      Page 149
                                                              C:\Users\nhuliyap\AppData\Local\Temp\gh_0000da81.s
000006a1 53455f4d414a 
000006a7 4f525f564552 
000006ad 53494f4e204d 
000006b3 454d4d41505f 
000006b9 41525f52454c 
000006bf 454153455f4d 
000006c5 414a4f525f56 
000006cb 455253494f4e 
000006d1 00 
000006d2 01             8001 	.byte	1
000006d3 11             8002 	.byte	17
000006d4 4d454d5f4152   8003 	.strz	"MEM_AR_RELEASE_MINOR_VERSION MEMMAP_AR_RELEASE_MINOR_VERSION"
000006da 5f52454c4541 
000006e0 53455f4d494e 
000006e6 4f525f564552 
000006ec 53494f4e204d 
000006f2 454d4d41505f 
000006f8 41525f52454c 
000006fe 454153455f4d 
00000704 494e4f525f56 
0000070a 455253494f4e 
00000710 00 
00000711 01             8004 	.byte	1
00000712 12             8005 	.byte	18
00000713 4d454d5f4152   8006 	.strz	"MEM_AR_RELEASE_PATCH_VERSION MEMMAP_AR_RELEASE_REVISION_VERSION"
00000719 5f52454c4541 
0000071f 53455f504154 
00000725 43485f564552 
0000072b 53494f4e204d 
00000731 454d4d41505f 
00000737 41525f52454c 
0000073d 454153455f52 
00000743 45564953494f 
00000749 4e5f56455253 
0000074f 494f4e00 
00000753 01             8007 	.byte	1
00000754 18             8008 	.byte	24
00000755 4d454d4d4150   8009 	.strz	"MEMMAP_SW_MAJOR_VERSION (1u)"
0000075b 5f53575f4d41 
00000761 4a4f525f5645 
00000767 5253494f4e20 
0000076d 2831752900 
00000772 01             8010 	.byte	1
00000773 19             8011 	.byte	25
00000774 4d454d4d4150   8012 	.strz	"MEMMAP_SW_MINOR_VERSION (11u)"
0000077a 5f53575f4d49 
00000780 4e4f525f5645 
00000786 5253494f4e20 
0000078c 283131752900 
00000792 01             8013 	.byte	1
00000793 1a             8014 	.byte	26
00000794 4d454d4d4150   8015 	.strz	"MEMMAP_SW_PATCH_VERSION (0u)"
0000079a 5f53575f5041 
000007a0 5443485f5645 
000007a6 5253494f4e20 
000007ac 2830752900 
000007b1 01             8016 	.byte	1
000007b2 20             8017 	.byte	32
000007b3 4d454d5f5357   8018 	.strz	"MEM_SW_MAJOR_VERSION MEMMAP_SW_MAJOR_VERSION"
000007b9 5f4d414a4f52 
000007bf 5f5645525349 

                                                                      Page 150
                                                              C:\Users\nhuliyap\AppData\Local\Temp\gh_0000da81.s
000007c5 4f4e204d454d 
000007cb 4d41505f5357 
000007d1 5f4d414a4f52 
000007d7 5f5645525349 
000007dd 4f4e00 
000007e0 01             8019 	.byte	1
000007e1 21             8020 	.byte	33
000007e2 4d454d5f5357   8021 	.strz	"MEM_SW_MINOR_VERSION MEMMAP_SW_MINOR_VERSION"
000007e8 5f4d494e4f52 
000007ee 5f5645525349 
000007f4 4f4e204d454d 
000007fa 4d41505f5357 
00000800 5f4d494e4f52 
00000806 5f5645525349 
0000080c 4f4e00 
0000080f 01             8022 	.byte	1
00000810 22             8023 	.byte	34
00000811 4d454d5f5357   8024 	.strz	"MEM_SW_PATCH_VERSION MEMMAP_SW_PATCH_VERSION"
00000817 5f5041544348 
0000081d 5f5645525349 
00000823 4f4e204d454d 
00000829 4d41505f5357 
0000082f 5f5041544348 
00000835 5f5645525349 
0000083b 4f4e00 
0000083e 01             8025 	.byte	1
0000083f 24             8026 	.byte	36
00000840 4d454d4d4150   8027 	.strz	"MEMMAP_ERROR "
00000846 5f4552524f52 
0000084c 2000 
0000084e 01             8028 	.byte	1
0000084f 9502           8029 	.byte	149,2
00000851 53544152545f   8030 	.strz	"START_SEC_CODE "
00000857 5345435f434f 
0000085d 44452000 
00000861 03             8031 	.byte	3
00000862 f403           8032 	.byte	244,3
00000864 12             8033 	.byte	18
00000865 01             8034 	.byte	1
00000866 f307           8035 	.byte	243,7
00000868 434f44455f53   8036 	.strz	"CODE_SEC_OPEN "
0000086e 45435f4f5045 
00000874 4e2000 
00000877 04             8037 	.byte	4
00000878 04             8038 	.byte	4
00000879 01             8039 	.byte	1
0000087a 70             8040 	.byte	112
0000087b 464c535f5354   8041 	.strz	"FLS_STOP_SEC_BUFFER_CODE "
00000881 4f505f534543 
00000887 5f4255464645 
0000088d 525f434f4445 
00000893 2000 
00000895 03             8042 	.byte	3
00000896 71             8043 	.byte	113
00000897 11             8044 	.byte	17
00000898 01             8045 	.byte	1
00000899 02             8046 	.byte	2
0000089a 4d454d4d4150   8047 	.strz	"MEMMAP_VENDOR_ID (30u)"
000008a0 5f56454e444f 
000008a6 525f49442028 
000008ac 3330752900 

                                                                      Page 151
                                                              C:\Users\nhuliyap\AppData\Local\Temp\gh_0000da81.s
000008b1 01             8048 	.byte	1
000008b2 08             8049 	.byte	8
000008b3 4d454d4d4150   8050 	.strz	"MEMMAP_AR_RELEASE_MAJOR_VERSION (4u)"
000008b9 5f41525f5245 
000008bf 4c454153455f 
000008c5 4d414a4f525f 
000008cb 56455253494f 
000008d1 4e2028347529 
000008d7 00 
000008d8 01             8051 	.byte	1
000008d9 09             8052 	.byte	9
000008da 4d454d4d4150   8053 	.strz	"MEMMAP_AR_RELEASE_MINOR_VERSION (0u)"
000008e0 5f41525f5245 
000008e6 4c454153455f 
000008ec 4d494e4f525f 
000008f2 56455253494f 
000008f8 4e2028307529 
000008fe 00 
000008ff 01             8054 	.byte	1
00000900 0a             8055 	.byte	10
00000901 4d454d4d4150   8056 	.strz	"MEMMAP_AR_RELEASE_REVISION_VERSION (3u)"
00000907 5f41525f5245 
0000090d 4c454153455f 
00000913 524556495349 
00000919 4f4e5f564552 
0000091f 53494f4e2028 
00000925 33752900 
00000929 01             8057 	.byte	1
0000092a 10             8058 	.byte	16
0000092b 4d454d5f4152   8059 	.strz	"MEM_AR_RELEASE_MAJOR_VERSION MEMMAP_AR_RELEASE_MAJOR_VERSION"
00000931 5f52454c4541 
00000937 53455f4d414a 
0000093d 4f525f564552 
00000943 53494f4e204d 
00000949 454d4d41505f 
0000094f 41525f52454c 
00000955 454153455f4d 
0000095b 414a4f525f56 
00000961 455253494f4e 
00000967 00 
00000968 01             8060 	.byte	1
00000969 11             8061 	.byte	17
0000096a 4d454d5f4152   8062 	.strz	"MEM_AR_RELEASE_MINOR_VERSION MEMMAP_AR_RELEASE_MINOR_VERSION"
00000970 5f52454c4541 
00000976 53455f4d494e 
0000097c 4f525f564552 
00000982 53494f4e204d 
00000988 454d4d41505f 
0000098e 41525f52454c 
00000994 454153455f4d 
0000099a 494e4f525f56 
000009a0 455253494f4e 
000009a6 00 
000009a7 01             8063 	.byte	1
000009a8 12             8064 	.byte	18
000009a9 4d454d5f4152   8065 	.strz	"MEM_AR_RELEASE_PATCH_VERSION MEMMAP_AR_RELEASE_REVISION_VERSION"
000009af 5f52454c4541 
000009b5 53455f504154 
000009bb 43485f564552 
000009c1 53494f4e204d 
000009c7 454d4d41505f 

                                                                      Page 152
                                                              C:\Users\nhuliyap\AppData\Local\Temp\gh_0000da81.s
000009cd 41525f52454c 
000009d3 454153455f52 
000009d9 45564953494f 
000009df 4e5f56455253 
000009e5 494f4e00 
000009e9 01             8066 	.byte	1
000009ea 18             8067 	.byte	24
000009eb 4d454d4d4150   8068 	.strz	"MEMMAP_SW_MAJOR_VERSION (1u)"
000009f1 5f53575f4d41 
000009f7 4a4f525f5645 
000009fd 5253494f4e20 
00000a03 2831752900 
00000a08 01             8069 	.byte	1
00000a09 19             8070 	.byte	25
00000a0a 4d454d4d4150   8071 	.strz	"MEMMAP_SW_MINOR_VERSION (11u)"
00000a10 5f53575f4d49 
00000a16 4e4f525f5645 
00000a1c 5253494f4e20 
00000a22 283131752900 
00000a28 01             8072 	.byte	1
00000a29 1a             8073 	.byte	26
00000a2a 4d454d4d4150   8074 	.strz	"MEMMAP_SW_PATCH_VERSION (0u)"
00000a30 5f53575f5041 
00000a36 5443485f5645 
00000a3c 5253494f4e20 
00000a42 2830752900 
00000a47 01             8075 	.byte	1
00000a48 20             8076 	.byte	32
00000a49 4d454d5f5357   8077 	.strz	"MEM_SW_MAJOR_VERSION MEMMAP_SW_MAJOR_VERSION"
00000a4f 5f4d414a4f52 
00000a55 5f5645525349 
00000a5b 4f4e204d454d 
00000a61 4d41505f5357 
00000a67 5f4d414a4f52 
00000a6d 5f5645525349 
00000a73 4f4e00 
00000a76 01             8078 	.byte	1
00000a77 21             8079 	.byte	33
00000a78 4d454d5f5357   8080 	.strz	"MEM_SW_MINOR_VERSION MEMMAP_SW_MINOR_VERSION"
00000a7e 5f4d494e4f52 
00000a84 5f5645525349 
00000a8a 4f4e204d454d 
00000a90 4d41505f5357 
00000a96 5f4d494e4f52 
00000a9c 5f5645525349 
00000aa2 4f4e00 
00000aa5 01             8081 	.byte	1
00000aa6 22             8082 	.byte	34
00000aa7 4d454d5f5357   8083 	.strz	"MEM_SW_PATCH_VERSION MEMMAP_SW_PATCH_VERSION"
00000aad 5f5041544348 
00000ab3 5f5645525349 
00000ab9 4f4e204d454d 
00000abf 4d41505f5357 
00000ac5 5f5041544348 
00000acb 5f5645525349 
00000ad1 4f4e00 
00000ad4 01             8084 	.byte	1
00000ad5 24             8085 	.byte	36
00000ad6 4d454d4d4150   8086 	.strz	"MEMMAP_ERROR "
00000adc 5f4552524f52 
00000ae2 2000 

                                                                      Page 153
                                                              C:\Users\nhuliyap\AppData\Local\Temp\gh_0000da81.s
00000ae4 01             8087 	.byte	1
00000ae5 9902           8088 	.byte	153,2
00000ae7 53544f505f53   8089 	.strz	"STOP_SEC_CODE "
00000aed 45435f434f44 
00000af3 452000 
00000af6 03             8090 	.byte	3
00000af7 f403           8091 	.byte	244,3
00000af9 12             8092 	.byte	18
00000afa 04             8093 	.byte	4
00000afb 04             8094 	.byte	4
00000afc 04             8095 	.byte	4
00000afd 03             8096 	.byte	3
00000afe 05             8097 	.byte	5
00000aff 08             8098 	.byte	8
00000b00 04             8099 	.byte	4
00000b01 03             8100 	.byte	3
00000b02 08             8101 	.byte	8
00000b03 13             8102 	.byte	19
00000b04 01             8103 	.byte	1
00000b05 0a             8104 	.byte	10
00000b06 525f46444c5f   8105 	.strz	"R_FDL_TYPES_H "
00000b0c 54595045535f 
00000b12 482000 
00000b15 04             8106 	.byte	4
00000b16 04             8107 	.byte	4
00000b17 03             8108 	.byte	3
00000b18 14             8109 	.byte	20
00000b19 14             8110 	.byte	20
00000b1a 04             8111 	.byte	4
00000b1b 01             8112 	.byte	1
00000b1c 4a             8113 	.byte	74
00000b1d 464c535f5354   8114 	.strz	"FLS_START_SEC_PUBLIC_CODE "
00000b23 4152545f5345 
00000b29 435f5055424c 
00000b2f 49435f434f44 
00000b35 452000 
00000b38 03             8115 	.byte	3
00000b39 4b             8116 	.byte	75
00000b3a 11             8117 	.byte	17
00000b3b 01             8118 	.byte	1
00000b3c 02             8119 	.byte	2
00000b3d 4d454d4d4150   8120 	.strz	"MEMMAP_VENDOR_ID (30u)"
00000b43 5f56454e444f 
00000b49 525f49442028 
00000b4f 3330752900 
00000b54 01             8121 	.byte	1
00000b55 08             8122 	.byte	8
00000b56 4d454d4d4150   8123 	.strz	"MEMMAP_AR_RELEASE_MAJOR_VERSION (4u)"
00000b5c 5f41525f5245 
00000b62 4c454153455f 
00000b68 4d414a4f525f 
00000b6e 56455253494f 
00000b74 4e2028347529 
00000b7a 00 
00000b7b 01             8124 	.byte	1
00000b7c 09             8125 	.byte	9
00000b7d 4d454d4d4150   8126 	.strz	"MEMMAP_AR_RELEASE_MINOR_VERSION (0u)"
00000b83 5f41525f5245 
00000b89 4c454153455f 
00000b8f 4d494e4f525f 
00000b95 56455253494f 

                                                                      Page 154
                                                              C:\Users\nhuliyap\AppData\Local\Temp\gh_0000da81.s
00000b9b 4e2028307529 
00000ba1 00 
00000ba2 01             8127 	.byte	1
00000ba3 0a             8128 	.byte	10
00000ba4 4d454d4d4150   8129 	.strz	"MEMMAP_AR_RELEASE_REVISION_VERSION (3u)"
00000baa 5f41525f5245 
00000bb0 4c454153455f 
00000bb6 524556495349 
00000bbc 4f4e5f564552 
00000bc2 53494f4e2028 
00000bc8 33752900 
00000bcc 01             8130 	.byte	1
00000bcd 10             8131 	.byte	16
00000bce 4d454d5f4152   8132 	.strz	"MEM_AR_RELEASE_MAJOR_VERSION MEMMAP_AR_RELEASE_MAJOR_VERSION"
00000bd4 5f52454c4541 
00000bda 53455f4d414a 
00000be0 4f525f564552 
00000be6 53494f4e204d 
00000bec 454d4d41505f 
00000bf2 41525f52454c 
00000bf8 454153455f4d 
00000bfe 414a4f525f56 
00000c04 455253494f4e 
00000c0a 00 
00000c0b 01             8133 	.byte	1
00000c0c 11             8134 	.byte	17
00000c0d 4d454d5f4152   8135 	.strz	"MEM_AR_RELEASE_MINOR_VERSION MEMMAP_AR_RELEASE_MINOR_VERSION"
00000c13 5f52454c4541 
00000c19 53455f4d494e 
00000c1f 4f525f564552 
00000c25 53494f4e204d 
00000c2b 454d4d41505f 
00000c31 41525f52454c 
00000c37 454153455f4d 
00000c3d 494e4f525f56 
00000c43 455253494f4e 
00000c49 00 
00000c4a 01             8136 	.byte	1
00000c4b 12             8137 	.byte	18
00000c4c 4d454d5f4152   8138 	.strz	"MEM_AR_RELEASE_PATCH_VERSION MEMMAP_AR_RELEASE_REVISION_VERSION"
00000c52 5f52454c4541 
00000c58 53455f504154 
00000c5e 43485f564552 
00000c64 53494f4e204d 
00000c6a 454d4d41505f 
00000c70 41525f52454c 
00000c76 454153455f52 
00000c7c 45564953494f 
00000c82 4e5f56455253 
00000c88 494f4e00 
00000c8c 01             8139 	.byte	1
00000c8d 18             8140 	.byte	24
00000c8e 4d454d4d4150   8141 	.strz	"MEMMAP_SW_MAJOR_VERSION (1u)"
00000c94 5f53575f4d41 
00000c9a 4a4f525f5645 
00000ca0 5253494f4e20 
00000ca6 2831752900 
00000cab 01             8142 	.byte	1
00000cac 19             8143 	.byte	25
00000cad 4d454d4d4150   8144 	.strz	"MEMMAP_SW_MINOR_VERSION (11u)"
00000cb3 5f53575f4d49 

                                                                      Page 155
                                                              C:\Users\nhuliyap\AppData\Local\Temp\gh_0000da81.s
00000cb9 4e4f525f5645 
00000cbf 5253494f4e20 
00000cc5 283131752900 
00000ccb 01             8145 	.byte	1
00000ccc 1a             8146 	.byte	26
00000ccd 4d454d4d4150   8147 	.strz	"MEMMAP_SW_PATCH_VERSION (0u)"
00000cd3 5f53575f5041 
00000cd9 5443485f5645 
00000cdf 5253494f4e20 
00000ce5 2830752900 
00000cea 01             8148 	.byte	1
00000ceb 20             8149 	.byte	32
00000cec 4d454d5f5357   8150 	.strz	"MEM_SW_MAJOR_VERSION MEMMAP_SW_MAJOR_VERSION"
00000cf2 5f4d414a4f52 
00000cf8 5f5645525349 
00000cfe 4f4e204d454d 
00000d04 4d41505f5357 
00000d0a 5f4d414a4f52 
00000d10 5f5645525349 
00000d16 4f4e00 
00000d19 01             8151 	.byte	1
00000d1a 21             8152 	.byte	33
00000d1b 4d454d5f5357   8153 	.strz	"MEM_SW_MINOR_VERSION MEMMAP_SW_MINOR_VERSION"
00000d21 5f4d494e4f52 
00000d27 5f5645525349 
00000d2d 4f4e204d454d 
00000d33 4d41505f5357 
00000d39 5f4d494e4f52 
00000d3f 5f5645525349 
00000d45 4f4e00 
00000d48 01             8154 	.byte	1
00000d49 22             8155 	.byte	34
00000d4a 4d454d5f5357   8156 	.strz	"MEM_SW_PATCH_VERSION MEMMAP_SW_PATCH_VERSION"
00000d50 5f5041544348 
00000d56 5f5645525349 
00000d5c 4f4e204d454d 
00000d62 4d41505f5357 
00000d68 5f5041544348 
00000d6e 5f5645525349 
00000d74 4f4e00 
00000d77 01             8157 	.byte	1
00000d78 24             8158 	.byte	36
00000d79 4d454d4d4150   8159 	.strz	"MEMMAP_ERROR "
00000d7f 5f4552524f52 
00000d85 2000 
00000d87 01             8160 	.byte	1
00000d88 f101           8161 	.byte	241,1
00000d8a 53544152545f   8162 	.strz	"START_SEC_CODE "
00000d90 5345435f434f 
00000d96 44452000 
00000d9a 03             8163 	.byte	3
00000d9b f403           8164 	.byte	244,3
00000d9d 12             8165 	.byte	18
00000d9e 01             8166 	.byte	1
00000d9f f307           8167 	.byte	243,7
00000da1 434f44455f53   8168 	.strz	"CODE_SEC_OPEN "
00000da7 45435f4f5045 
00000dad 4e2000 
00000db0 04             8169 	.byte	4
00000db1 04             8170 	.byte	4
00000db2 01             8171 	.byte	1

                                                                      Page 156
                                                              C:\Users\nhuliyap\AppData\Local\Temp\gh_0000da81.s
00000db3 a501           8172 	.byte	165,1
00000db5 464c535f5354   8173 	.strz	"FLS_STOP_SEC_PUBLIC_CODE "
00000dbb 4f505f534543 
00000dc1 5f5055424c49 
00000dc7 435f434f4445 
00000dcd 2000 
00000dcf 03             8174 	.byte	3
00000dd0 a601           8175 	.byte	166,1
00000dd2 11             8176 	.byte	17
00000dd3 01             8177 	.byte	1
00000dd4 02             8178 	.byte	2
00000dd5 4d454d4d4150   8179 	.strz	"MEMMAP_VENDOR_ID (30u)"
00000ddb 5f56454e444f 
00000de1 525f49442028 
00000de7 3330752900 
00000dec 01             8180 	.byte	1
00000ded 08             8181 	.byte	8
00000dee 4d454d4d4150   8182 	.strz	"MEMMAP_AR_RELEASE_MAJOR_VERSION (4u)"
00000df4 5f41525f5245 
00000dfa 4c454153455f 
00000e00 4d414a4f525f 
00000e06 56455253494f 
00000e0c 4e2028347529 
00000e12 00 
00000e13 01             8183 	.byte	1
00000e14 09             8184 	.byte	9
00000e15 4d454d4d4150   8185 	.strz	"MEMMAP_AR_RELEASE_MINOR_VERSION (0u)"
00000e1b 5f41525f5245 
00000e21 4c454153455f 
00000e27 4d494e4f525f 
00000e2d 56455253494f 
00000e33 4e2028307529 
00000e39 00 
00000e3a 01             8186 	.byte	1
00000e3b 0a             8187 	.byte	10
00000e3c 4d454d4d4150   8188 	.strz	"MEMMAP_AR_RELEASE_REVISION_VERSION (3u)"
00000e42 5f41525f5245 
00000e48 4c454153455f 
00000e4e 524556495349 
00000e54 4f4e5f564552 
00000e5a 53494f4e2028 
00000e60 33752900 
00000e64 01             8189 	.byte	1
00000e65 10             8190 	.byte	16
00000e66 4d454d5f4152   8191 	.strz	"MEM_AR_RELEASE_MAJOR_VERSION MEMMAP_AR_RELEASE_MAJOR_VERSION"
00000e6c 5f52454c4541 
00000e72 53455f4d414a 
00000e78 4f525f564552 
00000e7e 53494f4e204d 
00000e84 454d4d41505f 
00000e8a 41525f52454c 
00000e90 454153455f4d 
00000e96 414a4f525f56 
00000e9c 455253494f4e 
00000ea2 00 
00000ea3 01             8192 	.byte	1
00000ea4 11             8193 	.byte	17
00000ea5 4d454d5f4152   8194 	.strz	"MEM_AR_RELEASE_MINOR_VERSION MEMMAP_AR_RELEASE_MINOR_VERSION"
00000eab 5f52454c4541 
00000eb1 53455f4d494e 
00000eb7 4f525f564552 

                                                                      Page 157
                                                              C:\Users\nhuliyap\AppData\Local\Temp\gh_0000da81.s
00000ebd 53494f4e204d 
00000ec3 454d4d41505f 
00000ec9 41525f52454c 
00000ecf 454153455f4d 
00000ed5 494e4f525f56 
00000edb 455253494f4e 
00000ee1 00 
00000ee2 01             8195 	.byte	1
00000ee3 12             8196 	.byte	18
00000ee4 4d454d5f4152   8197 	.strz	"MEM_AR_RELEASE_PATCH_VERSION MEMMAP_AR_RELEASE_REVISION_VERSION"
00000eea 5f52454c4541 
00000ef0 53455f504154 
00000ef6 43485f564552 
00000efc 53494f4e204d 
00000f02 454d4d41505f 
00000f08 41525f52454c 
00000f0e 454153455f52 
00000f14 45564953494f 
00000f1a 4e5f56455253 
00000f20 494f4e00 
00000f24 01             8198 	.byte	1
00000f25 18             8199 	.byte	24
00000f26 4d454d4d4150   8200 	.strz	"MEMMAP_SW_MAJOR_VERSION (1u)"
00000f2c 5f53575f4d41 
00000f32 4a4f525f5645 
00000f38 5253494f4e20 
00000f3e 2831752900 
00000f43 01             8201 	.byte	1
00000f44 19             8202 	.byte	25
00000f45 4d454d4d4150   8203 	.strz	"MEMMAP_SW_MINOR_VERSION (11u)"
00000f4b 5f53575f4d49 
00000f51 4e4f525f5645 
00000f57 5253494f4e20 
00000f5d 283131752900 
00000f63 01             8204 	.byte	1
00000f64 1a             8205 	.byte	26
00000f65 4d454d4d4150   8206 	.strz	"MEMMAP_SW_PATCH_VERSION (0u)"
00000f6b 5f53575f5041 
00000f71 5443485f5645 
00000f77 5253494f4e20 
00000f7d 2830752900 
00000f82 01             8207 	.byte	1
00000f83 20             8208 	.byte	32
00000f84 4d454d5f5357   8209 	.strz	"MEM_SW_MAJOR_VERSION MEMMAP_SW_MAJOR_VERSION"
00000f8a 5f4d414a4f52 
00000f90 5f5645525349 
00000f96 4f4e204d454d 
00000f9c 4d41505f5357 
00000fa2 5f4d414a4f52 
00000fa8 5f5645525349 
00000fae 4f4e00 
00000fb1 01             8210 	.byte	1
00000fb2 21             8211 	.byte	33
00000fb3 4d454d5f5357   8212 	.strz	"MEM_SW_MINOR_VERSION MEMMAP_SW_MINOR_VERSION"
00000fb9 5f4d494e4f52 
00000fbf 5f5645525349 
00000fc5 4f4e204d454d 
00000fcb 4d41505f5357 
00000fd1 5f4d494e4f52 
00000fd7 5f5645525349 
00000fdd 4f4e00 

                                                                      Page 158
                                                              C:\Users\nhuliyap\AppData\Local\Temp\gh_0000da81.s
00000fe0 01             8213 	.byte	1
00000fe1 22             8214 	.byte	34
00000fe2 4d454d5f5357   8215 	.strz	"MEM_SW_PATCH_VERSION MEMMAP_SW_PATCH_VERSION"
00000fe8 5f5041544348 
00000fee 5f5645525349 
00000ff4 4f4e204d454d 
00000ffa 4d41505f5357 
00001000 5f5041544348 
00001006 5f5645525349 
0000100c 4f4e00 
0000100f 01             8216 	.byte	1
00001010 24             8217 	.byte	36
00001011 4d454d4d4150   8218 	.strz	"MEMMAP_ERROR "
00001017 5f4552524f52 
0000101d 2000 
0000101f 01             8219 	.byte	1
00001020 f501           8220 	.byte	245,1
00001022 53544f505f53   8221 	.strz	"STOP_SEC_CODE "
00001028 45435f434f44 
0000102e 452000 
00001031 03             8222 	.byte	3
00001032 f403           8223 	.byte	244,3
00001034 12             8224 	.byte	18
00001035 04             8225 	.byte	4
00001036 04             8226 	.byte	4
00001037 01             8227 	.byte	1
00001038 a801           8228 	.byte	168,1
0000103a 464c535f5354   8229 	.strz	"FLS_START_SEC_DBTOC_DATA_UNSPECIFIED "
00001040 4152545f5345 
00001046 435f4442544f 
0000104c 435f44415441 
00001052 5f554e535045 
00001058 434946494544 
0000105e 2000 
00001060 03             8230 	.byte	3
00001061 a901           8231 	.byte	169,1
00001063 11             8232 	.byte	17
00001064 01             8233 	.byte	1
00001065 02             8234 	.byte	2
00001066 4d454d4d4150   8235 	.strz	"MEMMAP_VENDOR_ID (30u)"
0000106c 5f56454e444f 
00001072 525f49442028 
00001078 3330752900 
0000107d 01             8236 	.byte	1
0000107e 08             8237 	.byte	8
0000107f 4d454d4d4150   8238 	.strz	"MEMMAP_AR_RELEASE_MAJOR_VERSION (4u)"
00001085 5f41525f5245 
0000108b 4c454153455f 
00001091 4d414a4f525f 
00001097 56455253494f 
0000109d 4e2028347529 
000010a3 00 
000010a4 01             8239 	.byte	1
000010a5 09             8240 	.byte	9
000010a6 4d454d4d4150   8241 	.strz	"MEMMAP_AR_RELEASE_MINOR_VERSION (0u)"
000010ac 5f41525f5245 
000010b2 4c454153455f 
000010b8 4d494e4f525f 
000010be 56455253494f 
000010c4 4e2028307529 
000010ca 00 

                                                                      Page 159
                                                              C:\Users\nhuliyap\AppData\Local\Temp\gh_0000da81.s
000010cb 01             8242 	.byte	1
000010cc 0a             8243 	.byte	10
000010cd 4d454d4d4150   8244 	.strz	"MEMMAP_AR_RELEASE_REVISION_VERSION (3u)"
000010d3 5f41525f5245 
000010d9 4c454153455f 
000010df 524556495349 
000010e5 4f4e5f564552 
000010eb 53494f4e2028 
000010f1 33752900 
000010f5 01             8245 	.byte	1
000010f6 10             8246 	.byte	16
000010f7 4d454d5f4152   8247 	.strz	"MEM_AR_RELEASE_MAJOR_VERSION MEMMAP_AR_RELEASE_MAJOR_VERSION"
000010fd 5f52454c4541 
00001103 53455f4d414a 
00001109 4f525f564552 
0000110f 53494f4e204d 
00001115 454d4d41505f 
0000111b 41525f52454c 
00001121 454153455f4d 
00001127 414a4f525f56 
0000112d 455253494f4e 
00001133 00 
00001134 01             8248 	.byte	1
00001135 11             8249 	.byte	17
00001136 4d454d5f4152   8250 	.strz	"MEM_AR_RELEASE_MINOR_VERSION MEMMAP_AR_RELEASE_MINOR_VERSION"
0000113c 5f52454c4541 
00001142 53455f4d494e 
00001148 4f525f564552 
0000114e 53494f4e204d 
00001154 454d4d41505f 
0000115a 41525f52454c 
00001160 454153455f4d 
00001166 494e4f525f56 
0000116c 455253494f4e 
00001172 00 
00001173 01             8251 	.byte	1
00001174 12             8252 	.byte	18
00001175 4d454d5f4152   8253 	.strz	"MEM_AR_RELEASE_PATCH_VERSION MEMMAP_AR_RELEASE_REVISION_VERSION"
0000117b 5f52454c4541 
00001181 53455f504154 
00001187 43485f564552 
0000118d 53494f4e204d 
00001193 454d4d41505f 
00001199 41525f52454c 
0000119f 454153455f52 
000011a5 45564953494f 
000011ab 4e5f56455253 
000011b1 494f4e00 
000011b5 01             8254 	.byte	1
000011b6 18             8255 	.byte	24
000011b7 4d454d4d4150   8256 	.strz	"MEMMAP_SW_MAJOR_VERSION (1u)"
000011bd 5f53575f4d41 
000011c3 4a4f525f5645 
000011c9 5253494f4e20 
000011cf 2831752900 
000011d4 01             8257 	.byte	1
000011d5 19             8258 	.byte	25
000011d6 4d454d4d4150   8259 	.strz	"MEMMAP_SW_MINOR_VERSION (11u)"
000011dc 5f53575f4d49 
000011e2 4e4f525f5645 
000011e8 5253494f4e20 

                                                                      Page 160
                                                              C:\Users\nhuliyap\AppData\Local\Temp\gh_0000da81.s
000011ee 283131752900 
000011f4 01             8260 	.byte	1
000011f5 1a             8261 	.byte	26
000011f6 4d454d4d4150   8262 	.strz	"MEMMAP_SW_PATCH_VERSION (0u)"
000011fc 5f53575f5041 
00001202 5443485f5645 
00001208 5253494f4e20 
0000120e 2830752900 
00001213 01             8263 	.byte	1
00001214 20             8264 	.byte	32
00001215 4d454d5f5357   8265 	.strz	"MEM_SW_MAJOR_VERSION MEMMAP_SW_MAJOR_VERSION"
0000121b 5f4d414a4f52 
00001221 5f5645525349 
00001227 4f4e204d454d 
0000122d 4d41505f5357 
00001233 5f4d414a4f52 
00001239 5f5645525349 
0000123f 4f4e00 
00001242 01             8266 	.byte	1
00001243 21             8267 	.byte	33
00001244 4d454d5f5357   8268 	.strz	"MEM_SW_MINOR_VERSION MEMMAP_SW_MINOR_VERSION"
0000124a 5f4d494e4f52 
00001250 5f5645525349 
00001256 4f4e204d454d 
0000125c 4d41505f5357 
00001262 5f4d494e4f52 
00001268 5f5645525349 
0000126e 4f4e00 
00001271 01             8269 	.byte	1
00001272 22             8270 	.byte	34
00001273 4d454d5f5357   8271 	.strz	"MEM_SW_PATCH_VERSION MEMMAP_SW_PATCH_VERSION"
00001279 5f5041544348 
0000127f 5f5645525349 
00001285 4f4e204d454d 
0000128b 4d41505f5357 
00001291 5f5041544348 
00001297 5f5645525349 
0000129d 4f4e00 
000012a0 01             8272 	.byte	1
000012a1 24             8273 	.byte	36
000012a2 4d454d4d4150   8274 	.strz	"MEMMAP_ERROR "
000012a8 5f4552524f52 
000012ae 2000 
000012b0 01             8275 	.byte	1
000012b1 dd02           8276 	.byte	221,2
000012b3 53544152545f   8277 	.strz	"START_SEC_CONST_UNSPECIFIED "
000012b9 5345435f434f 
000012bf 4e53545f554e 
000012c5 535045434946 
000012cb 4945442000 
000012d0 03             8278 	.byte	3
000012d1 f403           8279 	.byte	244,3
000012d3 12             8280 	.byte	18
000012d4 01             8281 	.byte	1
000012d5 b408           8282 	.byte	180,8
000012d7 434f4e53545f   8283 	.strz	"CONST_SEC_OPEN "
000012dd 5345435f4f50 
000012e3 454e2000 
000012e7 04             8284 	.byte	4
000012e8 04             8285 	.byte	4
000012e9 01             8286 	.byte	1

                                                                      Page 161
                                                              C:\Users\nhuliyap\AppData\Local\Temp\gh_0000da81.s
000012ea ab01           8287 	.byte	171,1
000012ec 464c535f5354   8288 	.strz	"FLS_STOP_SEC_DBTOC_DATA_UNSPECIFIED "
000012f2 4f505f534543 
000012f8 5f4442544f43 
000012fe 5f444154415f 
00001304 554e53504543 
0000130a 494649454420 
00001310 00 
00001311 03             8289 	.byte	3
00001312 ac01           8290 	.byte	172,1
00001314 11             8291 	.byte	17
00001315 01             8292 	.byte	1
00001316 02             8293 	.byte	2
00001317 4d454d4d4150   8294 	.strz	"MEMMAP_VENDOR_ID (30u)"
0000131d 5f56454e444f 
00001323 525f49442028 
00001329 3330752900 
0000132e 01             8295 	.byte	1
0000132f 08             8296 	.byte	8
00001330 4d454d4d4150   8297 	.strz	"MEMMAP_AR_RELEASE_MAJOR_VERSION (4u)"
00001336 5f41525f5245 
0000133c 4c454153455f 
00001342 4d414a4f525f 
00001348 56455253494f 
0000134e 4e2028347529 
00001354 00 
00001355 01             8298 	.byte	1
00001356 09             8299 	.byte	9
00001357 4d454d4d4150   8300 	.strz	"MEMMAP_AR_RELEASE_MINOR_VERSION (0u)"
0000135d 5f41525f5245 
00001363 4c454153455f 
00001369 4d494e4f525f 
0000136f 56455253494f 
00001375 4e2028307529 
0000137b 00 
0000137c 01             8301 	.byte	1
0000137d 0a             8302 	.byte	10
0000137e 4d454d4d4150   8303 	.strz	"MEMMAP_AR_RELEASE_REVISION_VERSION (3u)"
00001384 5f41525f5245 
0000138a 4c454153455f 
00001390 524556495349 
00001396 4f4e5f564552 
0000139c 53494f4e2028 
000013a2 33752900 
000013a6 01             8304 	.byte	1
000013a7 10             8305 	.byte	16
000013a8 4d454d5f4152   8306 	.strz	"MEM_AR_RELEASE_MAJOR_VERSION MEMMAP_AR_RELEASE_MAJOR_VERSION"
000013ae 5f52454c4541 
000013b4 53455f4d414a 
000013ba 4f525f564552 
000013c0 53494f4e204d 
000013c6 454d4d41505f 
000013cc 41525f52454c 
000013d2 454153455f4d 
000013d8 414a4f525f56 
000013de 455253494f4e 
000013e4 00 
000013e5 01             8307 	.byte	1
000013e6 11             8308 	.byte	17
000013e7 4d454d5f4152   8309 	.strz	"MEM_AR_RELEASE_MINOR_VERSION MEMMAP_AR_RELEASE_MINOR_VERSION"
000013ed 5f52454c4541 

                                                                      Page 162
                                                              C:\Users\nhuliyap\AppData\Local\Temp\gh_0000da81.s
000013f3 53455f4d494e 
000013f9 4f525f564552 
000013ff 53494f4e204d 
00001405 454d4d41505f 
0000140b 41525f52454c 
00001411 454153455f4d 
00001417 494e4f525f56 
0000141d 455253494f4e 
00001423 00 
00001424 01             8310 	.byte	1
00001425 12             8311 	.byte	18
00001426 4d454d5f4152   8312 	.strz	"MEM_AR_RELEASE_PATCH_VERSION MEMMAP_AR_RELEASE_REVISION_VERSION"
0000142c 5f52454c4541 
00001432 53455f504154 
00001438 43485f564552 
0000143e 53494f4e204d 
00001444 454d4d41505f 
0000144a 41525f52454c 
00001450 454153455f52 
00001456 45564953494f 
0000145c 4e5f56455253 
00001462 494f4e00 
00001466 01             8313 	.byte	1
00001467 18             8314 	.byte	24
00001468 4d454d4d4150   8315 	.strz	"MEMMAP_SW_MAJOR_VERSION (1u)"
0000146e 5f53575f4d41 
00001474 4a4f525f5645 
0000147a 5253494f4e20 
00001480 2831752900 
00001485 01             8316 	.byte	1
00001486 19             8317 	.byte	25
00001487 4d454d4d4150   8318 	.strz	"MEMMAP_SW_MINOR_VERSION (11u)"
0000148d 5f53575f4d49 
00001493 4e4f525f5645 
00001499 5253494f4e20 
0000149f 283131752900 
000014a5 01             8319 	.byte	1
000014a6 1a             8320 	.byte	26
000014a7 4d454d4d4150   8321 	.strz	"MEMMAP_SW_PATCH_VERSION (0u)"
000014ad 5f53575f5041 
000014b3 5443485f5645 
000014b9 5253494f4e20 
000014bf 2830752900 
000014c4 01             8322 	.byte	1
000014c5 20             8323 	.byte	32
000014c6 4d454d5f5357   8324 	.strz	"MEM_SW_MAJOR_VERSION MEMMAP_SW_MAJOR_VERSION"
000014cc 5f4d414a4f52 
000014d2 5f5645525349 
000014d8 4f4e204d454d 
000014de 4d41505f5357 
000014e4 5f4d414a4f52 
000014ea 5f5645525349 
000014f0 4f4e00 
000014f3 01             8325 	.byte	1
000014f4 21             8326 	.byte	33
000014f5 4d454d5f5357   8327 	.strz	"MEM_SW_MINOR_VERSION MEMMAP_SW_MINOR_VERSION"
000014fb 5f4d494e4f52 
00001501 5f5645525349 
00001507 4f4e204d454d 
0000150d 4d41505f5357 
00001513 5f4d494e4f52 

                                                                      Page 163
                                                              C:\Users\nhuliyap\AppData\Local\Temp\gh_0000da81.s
00001519 5f5645525349 
0000151f 4f4e00 
00001522 01             8328 	.byte	1
00001523 22             8329 	.byte	34
00001524 4d454d5f5357   8330 	.strz	"MEM_SW_PATCH_VERSION MEMMAP_SW_PATCH_VERSION"
0000152a 5f5041544348 
00001530 5f5645525349 
00001536 4f4e204d454d 
0000153c 4d41505f5357 
00001542 5f5041544348 
00001548 5f5645525349 
0000154e 4f4e00 
00001551 01             8331 	.byte	1
00001552 24             8332 	.byte	36
00001553 4d454d4d4150   8333 	.strz	"MEMMAP_ERROR "
00001559 5f4552524f52 
0000155f 2000 
00001561 01             8334 	.byte	1
00001562 e102           8335 	.byte	225,2
00001564 53544f505f53   8336 	.strz	"STOP_SEC_CONST "
0000156a 45435f434f4e 
00001570 53542000 
00001574 03             8337 	.byte	3
00001575 f403           8338 	.byte	244,3
00001577 12             8339 	.byte	18
00001578 04             8340 	.byte	4
00001579 04             8341 	.byte	4
0000157a 04             8342 	.byte	4
0000157b 03             8343 	.byte	3
0000157c 24             8344 	.byte	36
0000157d 15             8345 	.byte	21
0000157e 03             8346 	.byte	3
0000157f 06             8347 	.byte	6
00001580 16             8348 	.byte	22
00001581 03             8349 	.byte	3
00001582 15             8350 	.byte	21
00001583 17             8351 	.byte	23
00001584 04             8352 	.byte	4
00001585 01             8353 	.byte	1
00001586 e401           8354 	.byte	228,1
00001588 4f535f535441   8355 	.strz	"OS_START_SEC_CODE_LIB "
0000158e 52545f534543 
00001594 5f434f44455f 
0000159a 4c49422000 
0000159f 03             8356 	.byte	3
000015a0 e501           8357 	.byte	229,1
000015a2 18             8358 	.byte	24
000015a3 04             8359 	.byte	4
000015a4 01             8360 	.byte	1
000015a5 ea01           8361 	.byte	234,1
000015a7 4f535f53544f   8362 	.strz	"OS_STOP_SEC_CODE_LIB "
000015ad 505f5345435f 
000015b3 434f44455f4c 
000015b9 49422000 
000015bd 03             8363 	.byte	3
000015be eb01           8364 	.byte	235,1
000015c0 18             8365 	.byte	24
000015c1 04             8366 	.byte	4
000015c2 01             8367 	.byte	1
000015c3 ee01           8368 	.byte	238,1
000015c5 4f535f564f4c   8369 	.strz	"OS_VOLATILE volatile"

                                                                      Page 164
                                                              C:\Users\nhuliyap\AppData\Local\Temp\gh_0000da81.s
000015cb 4154494c4520 
000015d1 766f6c617469 
000015d7 6c6500 
000015da 01             8370 	.byte	1
000015db a003           8371 	.byte	160,3
000015dd 4465636c6172   8372 	.strz	"DeclareISR(x) "
000015e3 654953522878 
000015e9 292000 
000015ec 01             8373 	.byte	1
000015ed c803           8374 	.byte	200,3
000015ef 4465636c6172   8375 	.strz	"DeclareTask(x) "
000015f5 655461736b28 
000015fb 78292000 
000015ff 01             8376 	.byte	1
00001600 ee03           8377 	.byte	238,3
00001602 4465636c6172   8378 	.strz	"DeclareAlarm(x) "
00001608 65416c61726d 
0000160e 2878292000 
00001613 01             8379 	.byte	1
00001614 9104           8380 	.byte	145,4
00001616 4465636c6172   8381 	.strz	"DeclareCounter(x) "
0000161c 65436f756e74 
00001622 657228782920 
00001628 00 
00001629 01             8382 	.byte	1
0000162a a206           8383 	.byte	162,6
0000162c 4f535f535441   8384 	.strz	"OS_START_SEC_OS_CBK_TRACECOMMDATAREADY_CODE "
00001632 52545f534543 
00001638 5f4f535f4342 
0000163e 4b5f54524143 
00001644 45434f4d4d44 
0000164a 415441524541 
00001650 44595f434f44 
00001656 452000 
00001659 03             8385 	.byte	3
0000165a a306           8386 	.byte	163,6
0000165c 18             8387 	.byte	24
0000165d 04             8388 	.byte	4
0000165e 01             8389 	.byte	1
0000165f a506           8390 	.byte	165,6
00001661 4f535f53544f   8391 	.strz	"OS_STOP_SEC_OS_CBK_TRACECOMMDATAREADY_CODE "
00001667 505f5345435f 
0000166d 4f535f43424b 
00001673 5f5452414345 
00001679 434f4d4d4441 
0000167f 544152454144 
00001685 595f434f4445 
0000168b 2000 
0000168d 03             8392 	.byte	3
0000168e a606           8393 	.byte	166,6
00001690 18             8394 	.byte	24
00001691 04             8395 	.byte	4
00001692 01             8396 	.byte	1
00001693 a806           8397 	.byte	168,6
00001695 4f535f535441   8398 	.strz	"OS_START_SEC_OS_CBK_TRACECOMMINITTARGET_CODE "
0000169b 52545f534543 
000016a1 5f4f535f4342 
000016a7 4b5f54524143 
000016ad 45434f4d4d49 
000016b3 4e4954544152 
000016b9 4745545f434f 

                                                                      Page 165
                                                              C:\Users\nhuliyap\AppData\Local\Temp\gh_0000da81.s
000016bf 44452000 
000016c3 03             8399 	.byte	3
000016c4 a906           8400 	.byte	169,6
000016c6 18             8401 	.byte	24
000016c7 04             8402 	.byte	4
000016c8 01             8403 	.byte	1
000016c9 ab06           8404 	.byte	171,6
000016cb 4f535f53544f   8405 	.strz	"OS_STOP_SEC_OS_CBK_TRACECOMMINITTARGET_CODE "
000016d1 505f5345435f 
000016d7 4f535f43424b 
000016dd 5f5452414345 
000016e3 434f4d4d494e 
000016e9 495454415247 
000016ef 45545f434f44 
000016f5 452000 
000016f8 03             8406 	.byte	3
000016f9 ac06           8407 	.byte	172,6
000016fb 18             8408 	.byte	24
000016fc 04             8409 	.byte	4
000016fd 01             8410 	.byte	1
000016fe ae06           8411 	.byte	174,6
00001700 4f535f535441   8412 	.strz	"OS_START_SEC_OS_CBK_TRACECOMMTXBYTE_CODE "
00001706 52545f534543 
0000170c 5f4f535f4342 
00001712 4b5f54524143 
00001718 45434f4d4d54 
0000171e 58425954455f 
00001724 434f44452000 
0000172a 03             8413 	.byte	3
0000172b af06           8414 	.byte	175,6
0000172d 18             8415 	.byte	24
0000172e 04             8416 	.byte	4
0000172f 01             8417 	.byte	1
00001730 b106           8418 	.byte	177,6
00001732 4f535f53544f   8419 	.strz	"OS_STOP_SEC_OS_CBK_TRACECOMMTXBYTE_CODE "
00001738 505f5345435f 
0000173e 4f535f43424b 
00001744 5f5452414345 
0000174a 434f4d4d5458 
00001750 425954455f43 
00001756 4f44452000 
0000175b 03             8420 	.byte	3
0000175c b206           8421 	.byte	178,6
0000175e 18             8422 	.byte	24
0000175f 04             8423 	.byte	4
00001760 01             8424 	.byte	1
00001761 b406           8425 	.byte	180,6
00001763 4f535f535441   8426 	.strz	"OS_START_SEC_OS_CBK_TRACECOMMTXEND_CODE "
00001769 52545f534543 
0000176f 5f4f535f4342 
00001775 4b5f54524143 
0000177b 45434f4d4d54 
00001781 58454e445f43 
00001787 4f44452000 
0000178c 03             8427 	.byte	3
0000178d b506           8428 	.byte	181,6
0000178f 18             8429 	.byte	24
00001790 04             8430 	.byte	4
00001791 01             8431 	.byte	1
00001792 b706           8432 	.byte	183,6
00001794 4f535f53544f   8433 	.strz	"OS_STOP_SEC_OS_CBK_TRACECOMMTXEND_CODE "

                                                                      Page 166
                                                              C:\Users\nhuliyap\AppData\Local\Temp\gh_0000da81.s
0000179a 505f5345435f 
000017a0 4f535f43424b 
000017a6 5f5452414345 
000017ac 434f4d4d5458 
000017b2 454e445f434f 
000017b8 44452000 
000017bc 03             8434 	.byte	3
000017bd b806           8435 	.byte	184,6
000017bf 18             8436 	.byte	24
000017c0 04             8437 	.byte	4
000017c1 01             8438 	.byte	1
000017c2 ba06           8439 	.byte	186,6
000017c4 4f535f535441   8440 	.strz	"OS_START_SEC_OS_CBK_TRACECOMMTXREADY_CODE "
000017ca 52545f534543 
000017d0 5f4f535f4342 
000017d6 4b5f54524143 
000017dc 45434f4d4d54 
000017e2 585245414459 
000017e8 5f434f444520 
000017ee 00 
000017ef 03             8441 	.byte	3
000017f0 bb06           8442 	.byte	187,6
000017f2 18             8443 	.byte	24
000017f3 04             8444 	.byte	4
000017f4 01             8445 	.byte	1
000017f5 bd06           8446 	.byte	189,6
000017f7 4f535f53544f   8447 	.strz	"OS_STOP_SEC_OS_CBK_TRACECOMMTXREADY_CODE "
000017fd 505f5345435f 
00001803 4f535f43424b 
00001809 5f5452414345 
0000180f 434f4d4d5458 
00001815 52454144595f 
0000181b 434f44452000 
00001821 03             8448 	.byte	3
00001822 be06           8449 	.byte	190,6
00001824 18             8450 	.byte	24
00001825 04             8451 	.byte	4
00001826 01             8452 	.byte	1
00001827 c006           8453 	.byte	192,6
00001829 4f535f535441   8454 	.strz	"OS_START_SEC_OS_CBK_TRACECOMMTXSTART_CODE "
0000182f 52545f534543 
00001835 5f4f535f4342 
0000183b 4b5f54524143 
00001841 45434f4d4d54 
00001847 585354415254 
0000184d 5f434f444520 
00001853 00 
00001854 03             8455 	.byte	3
00001855 c106           8456 	.byte	193,6
00001857 18             8457 	.byte	24
00001858 04             8458 	.byte	4
00001859 01             8459 	.byte	1
0000185a c306           8460 	.byte	195,6
0000185c 4f535f53544f   8461 	.strz	"OS_STOP_SEC_OS_CBK_TRACECOMMTXSTART_CODE "
00001862 505f5345435f 
00001868 4f535f43424b 
0000186e 5f5452414345 
00001874 434f4d4d5458 
0000187a 53544152545f 
00001880 434f44452000 
00001886 03             8462 	.byte	3

                                                                      Page 167
                                                              C:\Users\nhuliyap\AppData\Local\Temp\gh_0000da81.s
00001887 c406           8463 	.byte	196,6
00001889 18             8464 	.byte	24
0000188a 04             8465 	.byte	4
0000188b 01             8466 	.byte	1
0000188c c606           8467 	.byte	198,6
0000188e 4f535f535441   8468 	.strz	"OS_START_SEC_CODE_LIB "
00001894 52545f534543 
0000189a 5f434f44455f 
000018a0 4c49422000 
000018a5 03             8469 	.byte	3
000018a6 c706           8470 	.byte	199,6
000018a8 18             8471 	.byte	24
000018a9 04             8472 	.byte	4
000018aa 01             8473 	.byte	1
000018ab 9307           8474 	.byte	147,7
000018ad 4f535f53544f   8475 	.strz	"OS_STOP_SEC_CODE_LIB "
000018b3 505f5345435f 
000018b9 434f44455f4c 
000018bf 49422000 
000018c3 03             8476 	.byte	3
000018c4 9407           8477 	.byte	148,7
000018c6 18             8478 	.byte	24
000018c7 04             8479 	.byte	4
000018c8 01             8480 	.byte	1
000018c9 9607           8481 	.byte	150,7
000018cb 4f535f535441   8482 	.strz	"OS_START_SEC_CONST_FAST_UNSPECIFIED "
000018d1 52545f534543 
000018d7 5f434f4e5354 
000018dd 5f464153545f 
000018e3 554e53504543 
000018e9 494649454420 
000018ef 00 
000018f0 03             8483 	.byte	3
000018f1 9707           8484 	.byte	151,7
000018f3 18             8485 	.byte	24
000018f4 04             8486 	.byte	4
000018f5 01             8487 	.byte	1
000018f6 9f07           8488 	.byte	159,7
000018f8 4f535f53544f   8489 	.strz	"OS_STOP_SEC_CONST_FAST_UNSPECIFIED "
000018fe 505f5345435f 
00001904 434f4e53545f 
0000190a 464153545f55 
00001910 4e5350454349 
00001916 464945442000 
0000191c 03             8490 	.byte	3
0000191d a007           8491 	.byte	160,7
0000191f 18             8492 	.byte	24
00001920 04             8493 	.byte	4
00001921 01             8494 	.byte	1
00001922 a207           8495 	.byte	162,7
00001924 4f535f535441   8496 	.strz	"OS_START_SEC_CONST_UNSPECIFIED "
0000192a 52545f534543 
00001930 5f434f4e5354 
00001936 5f554e535045 
0000193c 434946494544 
00001942 2000 
00001944 03             8497 	.byte	3
00001945 a307           8498 	.byte	163,7
00001947 18             8499 	.byte	24
00001948 04             8500 	.byte	4
00001949 01             8501 	.byte	1

                                                                      Page 168
                                                              C:\Users\nhuliyap\AppData\Local\Temp\gh_0000da81.s
0000194a a507           8502 	.byte	165,7
0000194c 4f535f53544f   8503 	.strz	"OS_STOP_SEC_CONST_UNSPECIFIED "
00001952 505f5345435f 
00001958 434f4e53545f 
0000195e 554e53504543 
00001964 494649454420 
0000196a 00 
0000196b 03             8504 	.byte	3
0000196c a607           8505 	.byte	166,7
0000196e 18             8506 	.byte	24
0000196f 04             8507 	.byte	4
00001970 01             8508 	.byte	1
00001971 a807           8509 	.byte	168,7
00001973 4f535f535441   8510 	.strz	"OS_START_SEC_ERRORHOOK_CODE "
00001979 52545f534543 
0000197f 5f4552524f52 
00001985 484f4f4b5f43 
0000198b 4f44452000 
00001990 03             8511 	.byte	3
00001991 a907           8512 	.byte	169,7
00001993 18             8513 	.byte	24
00001994 04             8514 	.byte	4
00001995 01             8515 	.byte	1
00001996 ab07           8516 	.byte	171,7
00001998 4f535f53544f   8517 	.strz	"OS_STOP_SEC_ERRORHOOK_CODE "
0000199e 505f5345435f 
000019a4 4552524f5248 
000019aa 4f4f4b5f434f 
000019b0 44452000 
000019b4 03             8518 	.byte	3
000019b5 ac07           8519 	.byte	172,7
000019b7 18             8520 	.byte	24
000019b8 04             8521 	.byte	4
000019b9 01             8522 	.byte	1
000019ba ae07           8523 	.byte	174,7
000019bc 4f535f535441   8524 	.strz	"OS_START_SEC_OS_CBK_CHECKMEMORYACCESS_CODE "
000019c2 52545f534543 
000019c8 5f4f535f4342 
000019ce 4b5f43484543 
000019d4 4b4d454d4f52 
000019da 594143434553 
000019e0 535f434f4445 
000019e6 2000 
000019e8 03             8525 	.byte	3
000019e9 af07           8526 	.byte	175,7
000019eb 18             8527 	.byte	24
000019ec 04             8528 	.byte	4
000019ed 01             8529 	.byte	1
000019ee b107           8530 	.byte	177,7
000019f0 4f535f53544f   8531 	.strz	"OS_STOP_SEC_OS_CBK_CHECKMEMORYACCESS_CODE "
000019f6 505f5345435f 
000019fc 4f535f43424b 
00001a02 5f434845434b 
00001a08 4d454d4f5259 
00001a0e 414343455353 
00001a14 5f434f444520 
00001a1a 00 
00001a1b 03             8532 	.byte	3
00001a1c b207           8533 	.byte	178,7
00001a1e 18             8534 	.byte	24
00001a1f 04             8535 	.byte	4

                                                                      Page 169
                                                              C:\Users\nhuliyap\AppData\Local\Temp\gh_0000da81.s
00001a20 01             8536 	.byte	1
00001a21 b407           8537 	.byte	180,7
00001a23 4f535f535441   8538 	.strz	"OS_START_SEC_OS_CBK_CHECKSTACKDEPTH_CODE "
00001a29 52545f534543 
00001a2f 5f4f535f4342 
00001a35 4b5f43484543 
00001a3b 4b535441434b 
00001a41 44455054485f 
00001a47 434f44452000 
00001a4d 03             8539 	.byte	3
00001a4e b507           8540 	.byte	181,7
00001a50 18             8541 	.byte	24
00001a51 04             8542 	.byte	4
00001a52 01             8543 	.byte	1
00001a53 b707           8544 	.byte	183,7
00001a55 4f535f53544f   8545 	.strz	"OS_STOP_SEC_OS_CBK_CHECKSTACKDEPTH_CODE "
00001a5b 505f5345435f 
00001a61 4f535f43424b 
00001a67 5f434845434b 
00001a6d 535441434b44 
00001a73 455054485f43 
00001a79 4f44452000 
00001a7e 03             8546 	.byte	3
00001a7f b807           8547 	.byte	184,7
00001a81 18             8548 	.byte	24
00001a82 04             8549 	.byte	4
00001a83 01             8550 	.byte	1
00001a84 ba07           8551 	.byte	186,7
00001a86 4f535f535441   8552 	.strz	"OS_START_SEC_OS_CBK_GETSTOPWATCH_CODE "
00001a8c 52545f534543 
00001a92 5f4f535f4342 
00001a98 4b5f47455453 
00001a9e 544f50574154 
00001aa4 43485f434f44 
00001aaa 452000 
00001aad 03             8553 	.byte	3
00001aae bb07           8554 	.byte	187,7
00001ab0 18             8555 	.byte	24
00001ab1 04             8556 	.byte	4
00001ab2 01             8557 	.byte	1
00001ab3 bf07           8558 	.byte	191,7
00001ab5 4f535f53544f   8559 	.strz	"OS_STOP_SEC_OS_CBK_GETSTOPWATCH_CODE "
00001abb 505f5345435f 
00001ac1 4f535f43424b 
00001ac7 5f4745545354 
00001acd 4f5057415443 
00001ad3 485f434f4445 
00001ad9 2000 
00001adb 03             8560 	.byte	3
00001adc c007           8561 	.byte	192,7
00001ade 18             8562 	.byte	24
00001adf 04             8563 	.byte	4
00001ae0 01             8564 	.byte	1
00001ae1 c207           8565 	.byte	194,7
00001ae3 4f535f535441   8566 	.strz	"OS_START_SEC_OS_CBK_IDLE_CODE "
00001ae9 52545f534543 
00001aef 5f4f535f4342 
00001af5 4b5f49444c45 
00001afb 5f434f444520 
00001b01 00 
00001b02 03             8567 	.byte	3

                                                                      Page 170
                                                              C:\Users\nhuliyap\AppData\Local\Temp\gh_0000da81.s
00001b03 c307           8568 	.byte	195,7
00001b05 18             8569 	.byte	24
00001b06 04             8570 	.byte	4
00001b07 01             8571 	.byte	1
00001b08 c507           8572 	.byte	197,7
00001b0a 4f535f53544f   8573 	.strz	"OS_STOP_SEC_OS_CBK_IDLE_CODE "
00001b10 505f5345435f 
00001b16 4f535f43424b 
00001b1c 5f49444c455f 
00001b22 434f44452000 
00001b28 03             8574 	.byte	3
00001b29 c607           8575 	.byte	198,7
00001b2b 18             8576 	.byte	24
00001b2c 04             8577 	.byte	4
00001b2d 01             8578 	.byte	1
00001b2e c807           8579 	.byte	200,7
00001b30 4f535f535441   8580 	.strz	"OS_START_SEC_OS_CBK_INSHUTDOWN_CODE "
00001b36 52545f534543 
00001b3c 5f4f535f4342 
00001b42 4b5f494e5348 
00001b48 5554444f574e 
00001b4e 5f434f444520 
00001b54 00 
00001b55 03             8581 	.byte	3
00001b56 c907           8582 	.byte	201,7
00001b58 18             8583 	.byte	24
00001b59 04             8584 	.byte	4
00001b5a 01             8585 	.byte	1
00001b5b cb07           8586 	.byte	203,7
00001b5d 4f535f53544f   8587 	.strz	"OS_STOP_SEC_OS_CBK_INSHUTDOWN_CODE "
00001b63 505f5345435f 
00001b69 4f535f43424b 
00001b6f 5f494e534855 
00001b75 54444f574e5f 
00001b7b 434f44452000 
00001b81 03             8588 	.byte	3
00001b82 cc07           8589 	.byte	204,7
00001b84 18             8590 	.byte	24
00001b85 04             8591 	.byte	4
00001b86 01             8592 	.byte	1
00001b87 ce07           8593 	.byte	206,7
00001b89 4f535f535441   8594 	.strz	"OS_START_SEC_OS_CBK_STACKOVERRUNHOOK_CODE "
00001b8f 52545f534543 
00001b95 5f4f535f4342 
00001b9b 4b5f53544143 
00001ba1 4b4f56455252 
00001ba7 554e484f4f4b 
00001bad 5f434f444520 
00001bb3 00 
00001bb4 03             8595 	.byte	3
00001bb5 cf07           8596 	.byte	207,7
00001bb7 18             8597 	.byte	24
00001bb8 04             8598 	.byte	4
00001bb9 01             8599 	.byte	1
00001bba d107           8600 	.byte	209,7
00001bbc 4f535f53544f   8601 	.strz	"OS_STOP_SEC_OS_CBK_STACKOVERRUNHOOK_CODE "
00001bc2 505f5345435f 
00001bc8 4f535f43424b 
00001bce 5f535441434b 
00001bd4 4f5645525255 
00001bda 4e484f4f4b5f 

                                                                      Page 171
                                                              C:\Users\nhuliyap\AppData\Local\Temp\gh_0000da81.s
00001be0 434f44452000 
00001be6 03             8602 	.byte	3
00001be7 d207           8603 	.byte	210,7
00001be9 18             8604 	.byte	24
00001bea 04             8605 	.byte	4
00001beb 01             8606 	.byte	1
00001bec d407           8607 	.byte	212,7
00001bee 4f535f535441   8608 	.strz	"OS_START_SEC_OS_CBK_TIMEOVERRUNHOOK_CODE "
00001bf4 52545f534543 
00001bfa 5f4f535f4342 
00001c00 4b5f54494d45 
00001c06 4f5645525255 
00001c0c 4e484f4f4b5f 
00001c12 434f44452000 
00001c18 03             8609 	.byte	3
00001c19 d507           8610 	.byte	213,7
00001c1b 18             8611 	.byte	24
00001c1c 04             8612 	.byte	4
00001c1d 01             8613 	.byte	1
00001c1e d707           8614 	.byte	215,7
00001c20 4f535f53544f   8615 	.strz	"OS_STOP_SEC_OS_CBK_TIMEOVERRUNHOOK_CODE "
00001c26 505f5345435f 
00001c2c 4f535f43424b 
00001c32 5f54494d454f 
00001c38 56455252554e 
00001c3e 484f4f4b5f43 
00001c44 4f44452000 
00001c49 03             8616 	.byte	3
00001c4a d807           8617 	.byte	216,7
00001c4c 18             8618 	.byte	24
00001c4d 04             8619 	.byte	4
00001c4e 01             8620 	.byte	1
00001c4f da07           8621 	.byte	218,7
00001c51 4f535f535441   8622 	.strz	"OS_START_SEC_POSTTASKHOOK_CODE "
00001c57 52545f534543 
00001c5d 5f504f535454 
00001c63 41534b484f4f 
00001c69 4b5f434f4445 
00001c6f 2000 
00001c71 03             8623 	.byte	3
00001c72 db07           8624 	.byte	219,7
00001c74 18             8625 	.byte	24
00001c75 04             8626 	.byte	4
00001c76 01             8627 	.byte	1
00001c77 dd07           8628 	.byte	221,7
00001c79 4f535f53544f   8629 	.strz	"OS_STOP_SEC_POSTTASKHOOK_CODE "
00001c7f 505f5345435f 
00001c85 504f53545441 
00001c8b 534b484f4f4b 
00001c91 5f434f444520 
00001c97 00 
00001c98 03             8630 	.byte	3
00001c99 de07           8631 	.byte	222,7
00001c9b 18             8632 	.byte	24
00001c9c 04             8633 	.byte	4
00001c9d 01             8634 	.byte	1
00001c9e e007           8635 	.byte	224,7
00001ca0 4f535f535441   8636 	.strz	"OS_START_SEC_PRETASKHOOK_CODE "
00001ca6 52545f534543 
00001cac 5f5052455441 
00001cb2 534b484f4f4b 

                                                                      Page 172
                                                              C:\Users\nhuliyap\AppData\Local\Temp\gh_0000da81.s
00001cb8 5f434f444520 
00001cbe 00 
00001cbf 03             8637 	.byte	3
00001cc0 e107           8638 	.byte	225,7
00001cc2 18             8639 	.byte	24
00001cc3 04             8640 	.byte	4
00001cc4 01             8641 	.byte	1
00001cc5 e307           8642 	.byte	227,7
00001cc7 4f535f53544f   8643 	.strz	"OS_STOP_SEC_PRETASKHOOK_CODE "
00001ccd 505f5345435f 
00001cd3 505245544153 
00001cd9 4b484f4f4b5f 
00001cdf 434f44452000 
00001ce5 03             8644 	.byte	3
00001ce6 e407           8645 	.byte	228,7
00001ce8 18             8646 	.byte	24
00001ce9 04             8647 	.byte	4
00001cea 01             8648 	.byte	1
00001ceb e607           8649 	.byte	230,7
00001ced 4f535f535441   8650 	.strz	"OS_START_SEC_PROTECTIONHOOK_CODE "
00001cf3 52545f534543 
00001cf9 5f50524f5445 
00001cff 4354494f4e48 
00001d05 4f4f4b5f434f 
00001d0b 44452000 
00001d0f 03             8651 	.byte	3
00001d10 e707           8652 	.byte	231,7
00001d12 18             8653 	.byte	24
00001d13 04             8654 	.byte	4
00001d14 01             8655 	.byte	1
00001d15 e907           8656 	.byte	233,7
00001d17 4f535f53544f   8657 	.strz	"OS_STOP_SEC_PROTECTIONHOOK_CODE "
00001d1d 505f5345435f 
00001d23 50524f544543 
00001d29 54494f4e484f 
00001d2f 4f4b5f434f44 
00001d35 452000 
00001d38 03             8658 	.byte	3
00001d39 ea07           8659 	.byte	234,7
00001d3b 18             8660 	.byte	24
00001d3c 04             8661 	.byte	4
00001d3d 01             8662 	.byte	1
00001d3e ec07           8663 	.byte	236,7
00001d40 4f535f535441   8664 	.strz	"OS_START_SEC_SHUTDOWNHOOK_CODE "
00001d46 52545f534543 
00001d4c 5f5348555444 
00001d52 4f574e484f4f 
00001d58 4b5f434f4445 
00001d5e 2000 
00001d60 03             8665 	.byte	3
00001d61 ed07           8666 	.byte	237,7
00001d63 18             8667 	.byte	24
00001d64 04             8668 	.byte	4
00001d65 01             8669 	.byte	1
00001d66 ef07           8670 	.byte	239,7
00001d68 4f535f53544f   8671 	.strz	"OS_STOP_SEC_SHUTDOWNHOOK_CODE "
00001d6e 505f5345435f 
00001d74 53485554444f 
00001d7a 574e484f4f4b 
00001d80 5f434f444520 
00001d86 00 

                                                                      Page 173
                                                              C:\Users\nhuliyap\AppData\Local\Temp\gh_0000da81.s
00001d87 03             8672 	.byte	3
00001d88 f007           8673 	.byte	240,7
00001d8a 18             8674 	.byte	24
00001d8b 04             8675 	.byte	4
00001d8c 01             8676 	.byte	1
00001d8d f207           8677 	.byte	242,7
00001d8f 4f535f535441   8678 	.strz	"OS_START_SEC_STARTUPHOOK_CODE "
00001d95 52545f534543 
00001d9b 5f5354415254 
00001da1 5550484f4f4b 
00001da7 5f434f444520 
00001dad 00 
00001dae 03             8679 	.byte	3
00001daf f307           8680 	.byte	243,7
00001db1 18             8681 	.byte	24
00001db2 04             8682 	.byte	4
00001db3 01             8683 	.byte	1
00001db4 f507           8684 	.byte	245,7
00001db6 4f535f53544f   8685 	.strz	"OS_STOP_SEC_STARTUPHOOK_CODE "
00001dbc 505f5345435f 
00001dc2 535441525455 
00001dc8 50484f4f4b5f 
00001dce 434f44452000 
00001dd4 03             8686 	.byte	3
00001dd5 f607           8687 	.byte	246,7
00001dd7 18             8688 	.byte	24
00001dd8 04             8689 	.byte	4
00001dd9 01             8690 	.byte	1
00001dda f807           8691 	.byte	248,7
00001ddc 4f535f535441   8692 	.strz	"OS_START_SEC_VAR_CLEARED_UNSPECIFIED "
00001de2 52545f534543 
00001de8 5f5641525f43 
00001dee 4c4541524544 
00001df4 5f554e535045 
00001dfa 434946494544 
00001e00 2000 
00001e02 03             8693 	.byte	3
00001e03 f907           8694 	.byte	249,7
00001e05 18             8695 	.byte	24
00001e06 04             8696 	.byte	4
00001e07 01             8697 	.byte	1
00001e08 ff07           8698 	.byte	255,7
00001e0a 4f535f53544f   8699 	.strz	"OS_STOP_SEC_VAR_CLEARED_UNSPECIFIED "
00001e10 505f5345435f 
00001e16 5641525f434c 
00001e1c 45415245445f 
00001e22 554e53504543 
00001e28 494649454420 
00001e2e 00 
00001e2f 03             8700 	.byte	3
00001e30 8008           8701 	.byte	128,8
00001e32 18             8702 	.byte	24
00001e33 04             8703 	.byte	4
00001e34 01             8704 	.byte	1
00001e35 8208           8705 	.byte	130,8
00001e37 4f535f535441   8706 	.strz	"OS_START_SEC_VAR_NO_INIT_UNSPECIFIED "
00001e3d 52545f534543 
00001e43 5f5641525f4e 
00001e49 4f5f494e4954 
00001e4f 5f554e535045 
00001e55 434946494544 

                                                                      Page 174
                                                              C:\Users\nhuliyap\AppData\Local\Temp\gh_0000da81.s
00001e5b 2000 
00001e5d 03             8707 	.byte	3
00001e5e 8308           8708 	.byte	131,8
00001e60 18             8709 	.byte	24
00001e61 04             8710 	.byte	4
00001e62 01             8711 	.byte	1
00001e63 9308           8712 	.byte	147,8
00001e65 4f535f53544f   8713 	.strz	"OS_STOP_SEC_VAR_NO_INIT_UNSPECIFIED "
00001e6b 505f5345435f 
00001e71 5641525f4e4f 
00001e77 5f494e49545f 
00001e7d 554e53504543 
00001e83 494649454420 
00001e89 00 
00001e8a 03             8714 	.byte	3
00001e8b 9408           8715 	.byte	148,8
00001e8d 18             8716 	.byte	24
00001e8e 04             8717 	.byte	4
00001e8f 03             8718 	.byte	3
00001e90 9608           8719 	.byte	150,8
00001e92 19             8720 	.byte	25
00001e93 01             8721 	.byte	1
00001e94 2e             8722 	.byte	46
00001e95 4f535f535441   8723 	.strz	"OS_START_SEC_CODE_LIB "
00001e9b 52545f534543 
00001ea1 5f434f44455f 
00001ea7 4c49422000 
00001eac 03             8724 	.byte	3
00001ead 2f             8725 	.byte	47
00001eae 18             8726 	.byte	24
00001eaf 04             8727 	.byte	4
00001eb0 01             8728 	.byte	1
00001eb1 47             8729 	.byte	71
00001eb2 4f535f53544f   8730 	.strz	"OS_STOP_SEC_CODE_LIB "
00001eb8 505f5345435f 
00001ebe 434f44455f4c 
00001ec4 49422000 
00001ec8 03             8731 	.byte	3
00001ec9 48             8732 	.byte	72
00001eca 18             8733 	.byte	24
00001ecb 04             8734 	.byte	4
00001ecc 01             8735 	.byte	1
00001ecd 4a             8736 	.byte	74
00001ece 4f535f535441   8737 	.strz	"OS_START_SEC_ERRORHOOK_HUFTPMS_CODE "
00001ed4 52545f534543 
00001eda 5f4552524f52 
00001ee0 484f4f4b5f48 
00001ee6 554654504d53 
00001eec 5f434f444520 
00001ef2 00 
00001ef3 03             8738 	.byte	3
00001ef4 4b             8739 	.byte	75
00001ef5 18             8740 	.byte	24
00001ef6 04             8741 	.byte	4
00001ef7 01             8742 	.byte	1
00001ef8 4f             8743 	.byte	79
00001ef9 4f535f53544f   8744 	.strz	"OS_STOP_SEC_ERRORHOOK_HUFTPMS_CODE "
00001eff 505f5345435f 
00001f05 4552524f5248 
00001f0b 4f4f4b5f4855 
00001f11 4654504d535f 

                                                                      Page 175
                                                              C:\Users\nhuliyap\AppData\Local\Temp\gh_0000da81.s
00001f17 434f44452000 
00001f1d 03             8745 	.byte	3
00001f1e 50             8746 	.byte	80
00001f1f 18             8747 	.byte	24
00001f20 04             8748 	.byte	4
00001f21 01             8749 	.byte	1
00001f22 52             8750 	.byte	82
00001f23 4f535f535441   8751 	.strz	"OS_START_SEC_OS_CBK_ALARM_CB_ALARM10MS_CODE "
00001f29 52545f534543 
00001f2f 5f4f535f4342 
00001f35 4b5f414c4152 
00001f3b 4d5f43425f41 
00001f41 4c41524d3130 
00001f47 4d535f434f44 
00001f4d 452000 
00001f50 03             8752 	.byte	3
00001f51 53             8753 	.byte	83
00001f52 18             8754 	.byte	24
00001f53 04             8755 	.byte	4
00001f54 01             8756 	.byte	1
00001f55 57             8757 	.byte	87
00001f56 4f535f53544f   8758 	.strz	"OS_STOP_SEC_OS_CBK_ALARM_CB_ALARM10MS_CODE "
00001f5c 505f5345435f 
00001f62 4f535f43424b 
00001f68 5f414c41524d 
00001f6e 5f43425f414c 
00001f74 41524d31304d 
00001f7a 535f434f4445 
00001f80 2000 
00001f82 03             8759 	.byte	3
00001f83 58             8760 	.byte	88
00001f84 18             8761 	.byte	24
00001f85 04             8762 	.byte	4
00001f86 01             8763 	.byte	1
00001f87 5a             8764 	.byte	90
00001f88 4f535f535441   8765 	.strz	"OS_START_SEC_OS_CBK_ALARM_CB_ALARM200MS_CODE "
00001f8e 52545f534543 
00001f94 5f4f535f4342 
00001f9a 4b5f414c4152 
00001fa0 4d5f43425f41 
00001fa6 4c41524d3230 
00001fac 304d535f434f 
00001fb2 44452000 
00001fb6 03             8766 	.byte	3
00001fb7 5b             8767 	.byte	91
00001fb8 18             8768 	.byte	24
00001fb9 04             8769 	.byte	4
00001fba 01             8770 	.byte	1
00001fbb 5f             8771 	.byte	95
00001fbc 4f535f53544f   8772 	.strz	"OS_STOP_SEC_OS_CBK_ALARM_CB_ALARM200MS_CODE "
00001fc2 505f5345435f 
00001fc8 4f535f43424b 
00001fce 5f414c41524d 
00001fd4 5f43425f414c 
00001fda 41524d323030 
00001fe0 4d535f434f44 
00001fe6 452000 
00001fe9 03             8773 	.byte	3
00001fea 60             8774 	.byte	96
00001feb 18             8775 	.byte	24
00001fec 04             8776 	.byte	4

                                                                      Page 176
                                                              C:\Users\nhuliyap\AppData\Local\Temp\gh_0000da81.s
00001fed 01             8777 	.byte	1
00001fee 62             8778 	.byte	98
00001fef 4f535f535441   8779 	.strz	"OS_START_SEC_OS_CBK_ALARM_CB_ALARM50MS_CODE "
00001ff5 52545f534543 
00001ffb 5f4f535f4342 
00002001 4b5f414c4152 
00002007 4d5f43425f41 
0000200d 4c41524d3530 
00002013 4d535f434f44 
00002019 452000 
0000201c 03             8780 	.byte	3
0000201d 63             8781 	.byte	99
0000201e 18             8782 	.byte	24
0000201f 04             8783 	.byte	4
00002020 01             8784 	.byte	1
00002021 67             8785 	.byte	103
00002022 4f535f53544f   8786 	.strz	"OS_STOP_SEC_OS_CBK_ALARM_CB_ALARM50MS_CODE "
00002028 505f5345435f 
0000202e 4f535f43424b 
00002034 5f414c41524d 
0000203a 5f43425f414c 
00002040 41524d35304d 
00002046 535f434f4445 
0000204c 2000 
0000204e 03             8787 	.byte	3
0000204f 68             8788 	.byte	104
00002050 18             8789 	.byte	24
00002051 04             8790 	.byte	4
00002052 01             8791 	.byte	1
00002053 6a             8792 	.byte	106
00002054 4f535f535441   8793 	.strz	"OS_START_SEC_OS_CBK_ALARM_CB_ALARMONESECOND_CODE "
0000205a 52545f534543 
00002060 5f4f535f4342 
00002066 4b5f414c4152 
0000206c 4d5f43425f41 
00002072 4c41524d4f4e 
00002078 455345434f4e 
0000207e 445f434f4445 
00002084 2000 
00002086 03             8794 	.byte	3
00002087 6b             8795 	.byte	107
00002088 18             8796 	.byte	24
00002089 04             8797 	.byte	4
0000208a 01             8798 	.byte	1
0000208b 6f             8799 	.byte	111
0000208c 4f535f53544f   8800 	.strz	"OS_STOP_SEC_OS_CBK_ALARM_CB_ALARMONESECOND_CODE "
00002092 505f5345435f 
00002098 4f535f43424b 
0000209e 5f414c41524d 
000020a4 5f43425f414c 
000020aa 41524d4f4e45 
000020b0 5345434f4e44 
000020b6 5f434f444520 
000020bc 00 
000020bd 03             8801 	.byte	3
000020be 70             8802 	.byte	112
000020bf 18             8803 	.byte	24
000020c0 04             8804 	.byte	4
000020c1 01             8805 	.byte	1
000020c2 72             8806 	.byte	114
000020c3 4f535f535441   8807 	.strz	"OS_START_SEC_SHUTDOWNHOOK_HUFTPMS_CODE "

                                                                      Page 177
                                                              C:\Users\nhuliyap\AppData\Local\Temp\gh_0000da81.s
000020c9 52545f534543 
000020cf 5f5348555444 
000020d5 4f574e484f4f 
000020db 4b5f48554654 
000020e1 504d535f434f 
000020e7 44452000 
000020eb 03             8808 	.byte	3
000020ec 73             8809 	.byte	115
000020ed 18             8810 	.byte	24
000020ee 04             8811 	.byte	4
000020ef 01             8812 	.byte	1
000020f0 77             8813 	.byte	119
000020f1 4f535f53544f   8814 	.strz	"OS_STOP_SEC_SHUTDOWNHOOK_HUFTPMS_CODE "
000020f7 505f5345435f 
000020fd 53485554444f 
00002103 574e484f4f4b 
00002109 5f4855465450 
0000210f 4d535f434f44 
00002115 452000 
00002118 03             8815 	.byte	3
00002119 78             8816 	.byte	120
0000211a 18             8817 	.byte	24
0000211b 04             8818 	.byte	4
0000211c 01             8819 	.byte	1
0000211d 7a             8820 	.byte	122
0000211e 4f535f535441   8821 	.strz	"OS_START_SEC_STARTUPHOOK_HUFTPMS_CODE "
00002124 52545f534543 
0000212a 5f5354415254 
00002130 5550484f4f4b 
00002136 5f4855465450 
0000213c 4d535f434f44 
00002142 452000 
00002145 03             8822 	.byte	3
00002146 7b             8823 	.byte	123
00002147 18             8824 	.byte	24
00002148 04             8825 	.byte	4
00002149 01             8826 	.byte	1
0000214a 7f             8827 	.byte	127
0000214b 4f535f53544f   8828 	.strz	"OS_STOP_SEC_STARTUPHOOK_HUFTPMS_CODE "
00002151 505f5345435f 
00002157 535441525455 
0000215d 50484f4f4b5f 
00002163 48554654504d 
00002169 535f434f4445 
0000216f 2000 
00002171 03             8829 	.byte	3
00002172 8001           8830 	.byte	128,1
00002174 18             8831 	.byte	24
00002175 04             8832 	.byte	4
00002176 04             8833 	.byte	4
00002177 04             8834 	.byte	4
00002178 04             8835 	.byte	4
00002179 01             8836 	.byte	1
0000217a 39             8837 	.byte	57
0000217b 525f46444c5f   8838 	.strz	"R_FDL_F1L_PATCH_DF_OVERSIZE "
00002181 46314c5f5041 
00002187 5443485f4446 
0000218d 5f4f56455253 
00002193 495a452000 
00002198 04             8839 	.byte	4
00002199 03             8840 	.byte	3

                                                                      Page 178
                                                              C:\Users\nhuliyap\AppData\Local\Temp\gh_0000da81.s
0000219a 1b             8841 	.byte	27
0000219b 13             8842 	.byte	19
0000219c 04             8843 	.byte	4
0000219d 01             8844 	.byte	1
0000219e 1e             8845 	.byte	30
0000219f 525f46444c5f   8846 	.strz	"R_FDL_EXTERN "
000021a5 45585445524e 
000021ab 2000 
000021ad 04             8847 	.byte	4
000021ae 03             8848 	.byte	3
000021af 06             8849 	.byte	6
000021b0 1a             8850 	.byte	26
000021b1 01             8851 	.byte	1
000021b2 32             8852 	.byte	50
000021b3 525f4643555f   8853 	.strz	"R_FCU_REGBIT_FENTRY_FENTRYD (0x0080u)"
000021b9 524547424954 
000021bf 5f46454e5452 
000021c5 595f46454e54 
000021cb 525944202830 
000021d1 783030383075 
000021d7 2900 
000021d9 01             8854 	.byte	1
000021da 35             8855 	.byte	53
000021db 525f4643555f   8856 	.strz	"R_FCU_REGBIT_FENTRY_OFF (0x0000u)"
000021e1 524547424954 
000021e7 5f46454e5452 
000021ed 595f4f464620 
000021f3 283078303030 
000021f9 30752900 
000021fd 01             8857 	.byte	1
000021fe 37             8858 	.byte	55
000021ff 525f4643555f   8859 	.strz	"R_FCU_MODE_PE (R_FCU_REGBIT_FENTRY_FENTRYD)"
00002205 4d4f44455f50 
0000220b 452028525f46 
00002211 43555f524547 
00002217 4249545f4645 
0000221d 4e5452595f46 
00002223 454e54525944 
00002229 2900 
0000222b 01             8860 	.byte	1
0000222c 39             8861 	.byte	57
0000222d 525f4643555f   8862 	.strz	"R_FCU_MODE_USER (R_FCU_REGBIT_FENTRY_OFF)"
00002233 4d4f44455f55 
00002239 534552202852 
0000223f 5f4643555f52 
00002245 45474249545f 
0000224b 46454e545259 
00002251 5f4f46462900 
00002257 01             8863 	.byte	1
00002258 71             8864 	.byte	113
00002259 525f4643555f   8865 	.strz	"R_FCU_CMD_ERASE (0x20u)"
0000225f 434d445f4552 
00002265 415345202830 
0000226b 783230752900 
00002271 01             8866 	.byte	1
00002272 73             8867 	.byte	115
00002273 525f4643555f   8868 	.strz	"R_FCU_CMD_BLANKCHECK (0x71u)"
00002279 434d445f424c 
0000227f 414e4b434845 
00002285 434b20283078 
0000228b 3731752900 

                                                                      Page 179
                                                              C:\Users\nhuliyap\AppData\Local\Temp\gh_0000da81.s
00002290 01             8869 	.byte	1
00002291 76             8870 	.byte	118
00002292 525f4643555f   8871 	.strz	"R_FCU_CMD_WRITE (0xE8u)"
00002298 434d445f5752 
0000229e 495445202830 
000022a4 784538752900 
000022aa 01             8872 	.byte	1
000022ab 7e             8873 	.byte	126
000022ac 525f46444c5f   8874 	.strz	"R_FDL_BLOCK_SIZE (0x0040u)"
000022b2 424c4f434b5f 
000022b8 53495a452028 
000022be 307830303430 
000022c4 752900 
000022c7 01             8875 	.byte	1
000022c8 7f             8876 	.byte	127
000022c9 525f46444c5f   8877 	.strz	"R_FDL_BLOCK_SIZE_2N (0x0006u)"
000022cf 424c4f434b5f 
000022d5 53495a455f32 
000022db 4e2028307830 
000022e1 303036752900 
000022e7 01             8878 	.byte	1
000022e8 8001           8879 	.byte	128,1
000022ea 525f46444c5f   8880 	.strz	"R_FDL_WRITE_SIZE (0x00000004uL)"
000022f0 57524954455f 
000022f6 53495a452028 
000022fc 307830303030 
00002302 30303034754c 
00002308 2900 
0000230a 01             8881 	.byte	1
0000230b 8401           8882 	.byte	132,1
0000230d 525f46444c5f   8883 	.strz	"R_FDL_U32_ALIGNED (0x03u)"
00002313 5533325f414c 
00002319 49474e454420 
0000231f 283078303375 
00002325 2900 
00002327 04             8884 	.byte	4
00002328 01             8885 	.byte	1
00002329 08             8886 	.byte	8
0000232a 525f46444c5f   8887 	.strz	"R_FDL_VERSION_STRING \"DH850T01xxxxxxV200\""
00002330 56455253494f 
00002336 4e5f53545249 
0000233c 4e4720224448 
00002342 383530543031 
00002348 787878787878 
0000234e 563230302200 
00002354 01             8888 	.byte	1
00002355 0a             8889 	.byte	10
00002356 525f46444c5f   8890 	.strz	"R_FDL_REQUEST_POINTER_UNDEFINED (r_fdl_request_t *)(0x00000000uL)"
0000235c 524551554553 
00002362 545f504f494e 
00002368 5445525f554e 
0000236e 444546494e45 
00002374 442028725f66 
0000237a 646c5f726571 
00002380 756573745f74 
00002386 202a29283078 
0000238c 303030303030 
00002392 3030754c2900 
00002398 01             8891 	.byte	1
00002399 0b             8892 	.byte	11
0000239a 525f46444c5f   8893 	.strz	"R_FDL_DESCRIPTOR_POINTER_UNDEFINED (r_fdl_descriptor_t *)(0x00000000uL)"

                                                                      Page 180
                                                              C:\Users\nhuliyap\AppData\Local\Temp\gh_0000da81.s
000023a0 444553435249 
000023a6 50544f525f50 
000023ac 4f494e544552 
000023b2 5f554e444546 
000023b8 494e45442028 
000023be 725f66646c5f 
000023c4 646573637269 
000023ca 70746f725f74 
000023d0 202a29283078 
000023d6 303030303030 
000023dc 3030754c2900 
000023e2 01             8894 	.byte	1
000023e3 0c             8895 	.byte	12
000023e4 525f46444c5f   8896 	.strz	"R_FDL_NULL (0x00000000uL)"
000023ea 4e554c4c2028 
000023f0 307830303030 
000023f6 30303030754c 
000023fc 2900 
000023fe 01             8897 	.byte	1
000023ff 0d             8898 	.byte	13
00002400 4155544f5341   8899 	.strz	"AUTOSAR_IMPLEMENTATION "
00002406 525f494d504c 
0000240c 454d454e5441 
00002412 54494f4e2000 
00002418 01             8900 	.byte	1
00002419 50             8901 	.byte	80
0000241a 525f46444c5f   8902 	.strz	"R_FDL_STATIC static"
00002420 535441544943 
00002426 207374617469 
0000242c 6300 
0000242e 01             8903 	.byte	1
0000242f 77             8904 	.byte	119
00002430 525f46444c5f   8905 	.strz	"R_FDL_START_SEC_VAR "
00002436 53544152545f 
0000243c 5345435f5641 
00002442 522000 
00002445 03             8906 	.byte	3
00002446 78             8907 	.byte	120
00002447 1b             8908 	.byte	27
00002448 01             8909 	.byte	1
00002449 18             8910 	.byte	24
0000244a 46444c5f5354   8911 	.strz	"FDL_START_SEC_VAR_UNSPECIFIED "
00002450 4152545f5345 
00002456 435f5641525f 
0000245c 554e53504543 
00002462 494649454420 
00002468 00 
00002469 03             8912 	.byte	3
0000246a 20             8913 	.byte	32
0000246b 11             8914 	.byte	17
0000246c 01             8915 	.byte	1
0000246d 02             8916 	.byte	2
0000246e 4d454d4d4150   8917 	.strz	"MEMMAP_VENDOR_ID (30u)"
00002474 5f56454e444f 
0000247a 525f49442028 
00002480 3330752900 
00002485 01             8918 	.byte	1
00002486 08             8919 	.byte	8
00002487 4d454d4d4150   8920 	.strz	"MEMMAP_AR_RELEASE_MAJOR_VERSION (4u)"
0000248d 5f41525f5245 
00002493 4c454153455f 

                                                                      Page 181
                                                              C:\Users\nhuliyap\AppData\Local\Temp\gh_0000da81.s
00002499 4d414a4f525f 
0000249f 56455253494f 
000024a5 4e2028347529 
000024ab 00 
000024ac 01             8921 	.byte	1
000024ad 09             8922 	.byte	9
000024ae 4d454d4d4150   8923 	.strz	"MEMMAP_AR_RELEASE_MINOR_VERSION (0u)"
000024b4 5f41525f5245 
000024ba 4c454153455f 
000024c0 4d494e4f525f 
000024c6 56455253494f 
000024cc 4e2028307529 
000024d2 00 
000024d3 01             8924 	.byte	1
000024d4 0a             8925 	.byte	10
000024d5 4d454d4d4150   8926 	.strz	"MEMMAP_AR_RELEASE_REVISION_VERSION (3u)"
000024db 5f41525f5245 
000024e1 4c454153455f 
000024e7 524556495349 
000024ed 4f4e5f564552 
000024f3 53494f4e2028 
000024f9 33752900 
000024fd 01             8927 	.byte	1
000024fe 10             8928 	.byte	16
000024ff 4d454d5f4152   8929 	.strz	"MEM_AR_RELEASE_MAJOR_VERSION MEMMAP_AR_RELEASE_MAJOR_VERSION"
00002505 5f52454c4541 
0000250b 53455f4d414a 
00002511 4f525f564552 
00002517 53494f4e204d 
0000251d 454d4d41505f 
00002523 41525f52454c 
00002529 454153455f4d 
0000252f 414a4f525f56 
00002535 455253494f4e 
0000253b 00 
0000253c 01             8930 	.byte	1
0000253d 11             8931 	.byte	17
0000253e 4d454d5f4152   8932 	.strz	"MEM_AR_RELEASE_MINOR_VERSION MEMMAP_AR_RELEASE_MINOR_VERSION"
00002544 5f52454c4541 
0000254a 53455f4d494e 
00002550 4f525f564552 
00002556 53494f4e204d 
0000255c 454d4d41505f 
00002562 41525f52454c 
00002568 454153455f4d 
0000256e 494e4f525f56 
00002574 455253494f4e 
0000257a 00 
0000257b 01             8933 	.byte	1
0000257c 12             8934 	.byte	18
0000257d 4d454d5f4152   8935 	.strz	"MEM_AR_RELEASE_PATCH_VERSION MEMMAP_AR_RELEASE_REVISION_VERSION"
00002583 5f52454c4541 
00002589 53455f504154 
0000258f 43485f564552 
00002595 53494f4e204d 
0000259b 454d4d41505f 
000025a1 41525f52454c 
000025a7 454153455f52 
000025ad 45564953494f 
000025b3 4e5f56455253 
000025b9 494f4e00 

                                                                      Page 182
                                                              C:\Users\nhuliyap\AppData\Local\Temp\gh_0000da81.s
000025bd 01             8936 	.byte	1
000025be 18             8937 	.byte	24
000025bf 4d454d4d4150   8938 	.strz	"MEMMAP_SW_MAJOR_VERSION (1u)"
000025c5 5f53575f4d41 
000025cb 4a4f525f5645 
000025d1 5253494f4e20 
000025d7 2831752900 
000025dc 01             8939 	.byte	1
000025dd 19             8940 	.byte	25
000025de 4d454d4d4150   8941 	.strz	"MEMMAP_SW_MINOR_VERSION (11u)"
000025e4 5f53575f4d49 
000025ea 4e4f525f5645 
000025f0 5253494f4e20 
000025f6 283131752900 
000025fc 01             8942 	.byte	1
000025fd 1a             8943 	.byte	26
000025fe 4d454d4d4150   8944 	.strz	"MEMMAP_SW_PATCH_VERSION (0u)"
00002604 5f53575f5041 
0000260a 5443485f5645 
00002610 5253494f4e20 
00002616 2830752900 
0000261b 01             8945 	.byte	1
0000261c 20             8946 	.byte	32
0000261d 4d454d5f5357   8947 	.strz	"MEM_SW_MAJOR_VERSION MEMMAP_SW_MAJOR_VERSION"
00002623 5f4d414a4f52 
00002629 5f5645525349 
0000262f 4f4e204d454d 
00002635 4d41505f5357 
0000263b 5f4d414a4f52 
00002641 5f5645525349 
00002647 4f4e00 
0000264a 01             8948 	.byte	1
0000264b 21             8949 	.byte	33
0000264c 4d454d5f5357   8950 	.strz	"MEM_SW_MINOR_VERSION MEMMAP_SW_MINOR_VERSION"
00002652 5f4d494e4f52 
00002658 5f5645525349 
0000265e 4f4e204d454d 
00002664 4d41505f5357 
0000266a 5f4d494e4f52 
00002670 5f5645525349 
00002676 4f4e00 
00002679 01             8951 	.byte	1
0000267a 22             8952 	.byte	34
0000267b 4d454d5f5357   8953 	.strz	"MEM_SW_PATCH_VERSION MEMMAP_SW_PATCH_VERSION"
00002681 5f5041544348 
00002687 5f5645525349 
0000268d 4f4e204d454d 
00002693 4d41505f5357 
00002699 5f5041544348 
0000269f 5f5645525349 
000026a5 4f4e00 
000026a8 01             8954 	.byte	1
000026a9 24             8955 	.byte	36
000026aa 4d454d4d4150   8956 	.strz	"MEMMAP_ERROR "
000026b0 5f4552524f52 
000026b6 2000 
000026b8 01             8957 	.byte	1
000026b9 f802           8958 	.byte	248,2
000026bb 53544152545f   8959 	.strz	"START_SEC_VAR_INIT_UNSPECIFIED "
000026c1 5345435f5641 
000026c7 525f494e4954 

                                                                      Page 183
                                                              C:\Users\nhuliyap\AppData\Local\Temp\gh_0000da81.s
000026cd 5f554e535045 
000026d3 434946494544 
000026d9 2000 
000026db 03             8960 	.byte	3
000026dc f403           8961 	.byte	244,3
000026de 12             8962 	.byte	18
000026df 01             8963 	.byte	1
000026e0 a109           8964 	.byte	161,9
000026e2 5641525f5345   8965 	.strz	"VAR_SEC_OPEN "
000026e8 435f4f50454e 
000026ee 2000 
000026f0 04             8966 	.byte	4
000026f1 04             8967 	.byte	4
000026f2 04             8968 	.byte	4
000026f3 01             8969 	.byte	1
000026f4 7b             8970 	.byte	123
000026f5 525f46444c5f   8971 	.strz	"R_FDL_NOINIT "
000026fb 4e4f494e4954 
00002701 2000 
00002703 01             8972 	.byte	1
00002704 8401           8973 	.byte	132,1
00002706 525f46444c5f   8974 	.strz	"R_FDL_STOP_SEC_VAR "
0000270c 53544f505f53 
00002712 45435f564152 
00002718 2000 
0000271a 03             8975 	.byte	3
0000271b 8501           8976 	.byte	133,1
0000271d 1b             8977 	.byte	27
0000271e 01             8978 	.byte	1
0000271f 1b             8979 	.byte	27
00002720 46444c5f5354   8980 	.strz	"FDL_STOP_SEC_VAR_UNSPECIFIED "
00002726 4f505f534543 
0000272c 5f5641525f55 
00002732 4e5350454349 
00002738 464945442000 
0000273e 03             8981 	.byte	3
0000273f 20             8982 	.byte	32
00002740 11             8983 	.byte	17
00002741 01             8984 	.byte	1
00002742 02             8985 	.byte	2
00002743 4d454d4d4150   8986 	.strz	"MEMMAP_VENDOR_ID (30u)"
00002749 5f56454e444f 
0000274f 525f49442028 
00002755 3330752900 
0000275a 01             8987 	.byte	1
0000275b 08             8988 	.byte	8
0000275c 4d454d4d4150   8989 	.strz	"MEMMAP_AR_RELEASE_MAJOR_VERSION (4u)"
00002762 5f41525f5245 
00002768 4c454153455f 
0000276e 4d414a4f525f 
00002774 56455253494f 
0000277a 4e2028347529 
00002780 00 
00002781 01             8990 	.byte	1
00002782 09             8991 	.byte	9
00002783 4d454d4d4150   8992 	.strz	"MEMMAP_AR_RELEASE_MINOR_VERSION (0u)"
00002789 5f41525f5245 
0000278f 4c454153455f 
00002795 4d494e4f525f 
0000279b 56455253494f 
000027a1 4e2028307529 

                                                                      Page 184
                                                              C:\Users\nhuliyap\AppData\Local\Temp\gh_0000da81.s
000027a7 00 
000027a8 01             8993 	.byte	1
000027a9 0a             8994 	.byte	10
000027aa 4d454d4d4150   8995 	.strz	"MEMMAP_AR_RELEASE_REVISION_VERSION (3u)"
000027b0 5f41525f5245 
000027b6 4c454153455f 
000027bc 524556495349 
000027c2 4f4e5f564552 
000027c8 53494f4e2028 
000027ce 33752900 
000027d2 01             8996 	.byte	1
000027d3 10             8997 	.byte	16
000027d4 4d454d5f4152   8998 	.strz	"MEM_AR_RELEASE_MAJOR_VERSION MEMMAP_AR_RELEASE_MAJOR_VERSION"
000027da 5f52454c4541 
000027e0 53455f4d414a 
000027e6 4f525f564552 
000027ec 53494f4e204d 
000027f2 454d4d41505f 
000027f8 41525f52454c 
000027fe 454153455f4d 
00002804 414a4f525f56 
0000280a 455253494f4e 
00002810 00 
00002811 01             8999 	.byte	1
00002812 11             9000 	.byte	17
00002813 4d454d5f4152   9001 	.strz	"MEM_AR_RELEASE_MINOR_VERSION MEMMAP_AR_RELEASE_MINOR_VERSION"
00002819 5f52454c4541 
0000281f 53455f4d494e 
00002825 4f525f564552 
0000282b 53494f4e204d 
00002831 454d4d41505f 
00002837 41525f52454c 
0000283d 454153455f4d 
00002843 494e4f525f56 
00002849 455253494f4e 
0000284f 00 
00002850 01             9002 	.byte	1
00002851 12             9003 	.byte	18
00002852 4d454d5f4152   9004 	.strz	"MEM_AR_RELEASE_PATCH_VERSION MEMMAP_AR_RELEASE_REVISION_VERSION"
00002858 5f52454c4541 
0000285e 53455f504154 
00002864 43485f564552 
0000286a 53494f4e204d 
00002870 454d4d41505f 
00002876 41525f52454c 
0000287c 454153455f52 
00002882 45564953494f 
00002888 4e5f56455253 
0000288e 494f4e00 
00002892 01             9005 	.byte	1
00002893 18             9006 	.byte	24
00002894 4d454d4d4150   9007 	.strz	"MEMMAP_SW_MAJOR_VERSION (1u)"
0000289a 5f53575f4d41 
000028a0 4a4f525f5645 
000028a6 5253494f4e20 
000028ac 2831752900 
000028b1 01             9008 	.byte	1
000028b2 19             9009 	.byte	25
000028b3 4d454d4d4150   9010 	.strz	"MEMMAP_SW_MINOR_VERSION (11u)"
000028b9 5f53575f4d49 
000028bf 4e4f525f5645 

                                                                      Page 185
                                                              C:\Users\nhuliyap\AppData\Local\Temp\gh_0000da81.s
000028c5 5253494f4e20 
000028cb 283131752900 
000028d1 01             9011 	.byte	1
000028d2 1a             9012 	.byte	26
000028d3 4d454d4d4150   9013 	.strz	"MEMMAP_SW_PATCH_VERSION (0u)"
000028d9 5f53575f5041 
000028df 5443485f5645 
000028e5 5253494f4e20 
000028eb 2830752900 
000028f0 01             9014 	.byte	1
000028f1 20             9015 	.byte	32
000028f2 4d454d5f5357   9016 	.strz	"MEM_SW_MAJOR_VERSION MEMMAP_SW_MAJOR_VERSION"
000028f8 5f4d414a4f52 
000028fe 5f5645525349 
00002904 4f4e204d454d 
0000290a 4d41505f5357 
00002910 5f4d414a4f52 
00002916 5f5645525349 
0000291c 4f4e00 
0000291f 01             9017 	.byte	1
00002920 21             9018 	.byte	33
00002921 4d454d5f5357   9019 	.strz	"MEM_SW_MINOR_VERSION MEMMAP_SW_MINOR_VERSION"
00002927 5f4d494e4f52 
0000292d 5f5645525349 
00002933 4f4e204d454d 
00002939 4d41505f5357 
0000293f 5f4d494e4f52 
00002945 5f5645525349 
0000294b 4f4e00 
0000294e 01             9020 	.byte	1
0000294f 22             9021 	.byte	34
00002950 4d454d5f5357   9022 	.strz	"MEM_SW_PATCH_VERSION MEMMAP_SW_PATCH_VERSION"
00002956 5f5041544348 
0000295c 5f5645525349 
00002962 4f4e204d454d 
00002968 4d41505f5357 
0000296e 5f5041544348 
00002974 5f5645525349 
0000297a 4f4e00 
0000297d 01             9023 	.byte	1
0000297e 24             9024 	.byte	36
0000297f 4d454d4d4150   9025 	.strz	"MEMMAP_ERROR "
00002985 5f4552524f52 
0000298b 2000 
0000298d 01             9026 	.byte	1
0000298e fc02           9027 	.byte	252,2
00002990 53544f505f53   9028 	.strz	"STOP_SEC_VAR "
00002996 45435f564152 
0000299c 2000 
0000299e 03             9029 	.byte	3
0000299f f403           9030 	.byte	244,3
000029a1 12             9031 	.byte	18
000029a2 04             9032 	.byte	4
000029a3 04             9033 	.byte	4
000029a4 04             9034 	.byte	4
000029a5 04             9035 	.byte	4
000029a6 01             9036 	.byte	1
000029a7 1d             9037 	.byte	29
000029a8 525f46444c5f   9038 	.strz	"R_FDL_START_SEC_VAR "
000029ae 53544152545f 
000029b4 5345435f5641 

                                                                      Page 186
                                                              C:\Users\nhuliyap\AppData\Local\Temp\gh_0000da81.s
000029ba 522000 
000029bd 03             9039 	.byte	3
000029be 1e             9040 	.byte	30
000029bf 1b             9041 	.byte	27
000029c0 01             9042 	.byte	1
000029c1 18             9043 	.byte	24
000029c2 46444c5f5354   9044 	.strz	"FDL_START_SEC_VAR_UNSPECIFIED "
000029c8 4152545f5345 
000029ce 435f5641525f 
000029d4 554e53504543 
000029da 494649454420 
000029e0 00 
000029e1 03             9045 	.byte	3
000029e2 20             9046 	.byte	32
000029e3 11             9047 	.byte	17
000029e4 01             9048 	.byte	1
000029e5 02             9049 	.byte	2
000029e6 4d454d4d4150   9050 	.strz	"MEMMAP_VENDOR_ID (30u)"
000029ec 5f56454e444f 
000029f2 525f49442028 
000029f8 3330752900 
000029fd 01             9051 	.byte	1
000029fe 08             9052 	.byte	8
000029ff 4d454d4d4150   9053 	.strz	"MEMMAP_AR_RELEASE_MAJOR_VERSION (4u)"
00002a05 5f41525f5245 
00002a0b 4c454153455f 
00002a11 4d414a4f525f 
00002a17 56455253494f 
00002a1d 4e2028347529 
00002a23 00 
00002a24 01             9054 	.byte	1
00002a25 09             9055 	.byte	9
00002a26 4d454d4d4150   9056 	.strz	"MEMMAP_AR_RELEASE_MINOR_VERSION (0u)"
00002a2c 5f41525f5245 
00002a32 4c454153455f 
00002a38 4d494e4f525f 
00002a3e 56455253494f 
00002a44 4e2028307529 
00002a4a 00 
00002a4b 01             9057 	.byte	1
00002a4c 0a             9058 	.byte	10
00002a4d 4d454d4d4150   9059 	.strz	"MEMMAP_AR_RELEASE_REVISION_VERSION (3u)"
00002a53 5f41525f5245 
00002a59 4c454153455f 
00002a5f 524556495349 
00002a65 4f4e5f564552 
00002a6b 53494f4e2028 
00002a71 33752900 
00002a75 01             9060 	.byte	1
00002a76 10             9061 	.byte	16
00002a77 4d454d5f4152   9062 	.strz	"MEM_AR_RELEASE_MAJOR_VERSION MEMMAP_AR_RELEASE_MAJOR_VERSION"
00002a7d 5f52454c4541 
00002a83 53455f4d414a 
00002a89 4f525f564552 
00002a8f 53494f4e204d 
00002a95 454d4d41505f 
00002a9b 41525f52454c 
00002aa1 454153455f4d 
00002aa7 414a4f525f56 
00002aad 455253494f4e 
00002ab3 00 

                                                                      Page 187
                                                              C:\Users\nhuliyap\AppData\Local\Temp\gh_0000da81.s
00002ab4 01             9063 	.byte	1
00002ab5 11             9064 	.byte	17
00002ab6 4d454d5f4152   9065 	.strz	"MEM_AR_RELEASE_MINOR_VERSION MEMMAP_AR_RELEASE_MINOR_VERSION"
00002abc 5f52454c4541 
00002ac2 53455f4d494e 
00002ac8 4f525f564552 
00002ace 53494f4e204d 
00002ad4 454d4d41505f 
00002ada 41525f52454c 
00002ae0 454153455f4d 
00002ae6 494e4f525f56 
00002aec 455253494f4e 
00002af2 00 
00002af3 01             9066 	.byte	1
00002af4 12             9067 	.byte	18
00002af5 4d454d5f4152   9068 	.strz	"MEM_AR_RELEASE_PATCH_VERSION MEMMAP_AR_RELEASE_REVISION_VERSION"
00002afb 5f52454c4541 
00002b01 53455f504154 
00002b07 43485f564552 
00002b0d 53494f4e204d 
00002b13 454d4d41505f 
00002b19 41525f52454c 
00002b1f 454153455f52 
00002b25 45564953494f 
00002b2b 4e5f56455253 
00002b31 494f4e00 
00002b35 01             9069 	.byte	1
00002b36 18             9070 	.byte	24
00002b37 4d454d4d4150   9071 	.strz	"MEMMAP_SW_MAJOR_VERSION (1u)"
00002b3d 5f53575f4d41 
00002b43 4a4f525f5645 
00002b49 5253494f4e20 
00002b4f 2831752900 
00002b54 01             9072 	.byte	1
00002b55 19             9073 	.byte	25
00002b56 4d454d4d4150   9074 	.strz	"MEMMAP_SW_MINOR_VERSION (11u)"
00002b5c 5f53575f4d49 
00002b62 4e4f525f5645 
00002b68 5253494f4e20 
00002b6e 283131752900 
00002b74 01             9075 	.byte	1
00002b75 1a             9076 	.byte	26
00002b76 4d454d4d4150   9077 	.strz	"MEMMAP_SW_PATCH_VERSION (0u)"
00002b7c 5f53575f5041 
00002b82 5443485f5645 
00002b88 5253494f4e20 
00002b8e 2830752900 
00002b93 01             9078 	.byte	1
00002b94 20             9079 	.byte	32
00002b95 4d454d5f5357   9080 	.strz	"MEM_SW_MAJOR_VERSION MEMMAP_SW_MAJOR_VERSION"
00002b9b 5f4d414a4f52 
00002ba1 5f5645525349 
00002ba7 4f4e204d454d 
00002bad 4d41505f5357 
00002bb3 5f4d414a4f52 
00002bb9 5f5645525349 
00002bbf 4f4e00 
00002bc2 01             9081 	.byte	1
00002bc3 21             9082 	.byte	33
00002bc4 4d454d5f5357   9083 	.strz	"MEM_SW_MINOR_VERSION MEMMAP_SW_MINOR_VERSION"
00002bca 5f4d494e4f52 

                                                                      Page 188
                                                              C:\Users\nhuliyap\AppData\Local\Temp\gh_0000da81.s
00002bd0 5f5645525349 
00002bd6 4f4e204d454d 
00002bdc 4d41505f5357 
00002be2 5f4d494e4f52 
00002be8 5f5645525349 
00002bee 4f4e00 
00002bf1 01             9084 	.byte	1
00002bf2 22             9085 	.byte	34
00002bf3 4d454d5f5357   9086 	.strz	"MEM_SW_PATCH_VERSION MEMMAP_SW_PATCH_VERSION"
00002bf9 5f5041544348 
00002bff 5f5645525349 
00002c05 4f4e204d454d 
00002c0b 4d41505f5357 
00002c11 5f5041544348 
00002c17 5f5645525349 
00002c1d 4f4e00 
00002c20 01             9087 	.byte	1
00002c21 24             9088 	.byte	36
00002c22 4d454d4d4150   9089 	.strz	"MEMMAP_ERROR "
00002c28 5f4552524f52 
00002c2e 2000 
00002c30 01             9090 	.byte	1
00002c31 f802           9091 	.byte	248,2
00002c33 53544152545f   9092 	.strz	"START_SEC_VAR_INIT_UNSPECIFIED "
00002c39 5345435f5641 
00002c3f 525f494e4954 
00002c45 5f554e535045 
00002c4b 434946494544 
00002c51 2000 
00002c53 03             9093 	.byte	3
00002c54 f403           9094 	.byte	244,3
00002c56 12             9095 	.byte	18
00002c57 01             9096 	.byte	1
00002c58 a109           9097 	.byte	161,9
00002c5a 5641525f5345   9098 	.strz	"VAR_SEC_OPEN "
00002c60 435f4f50454e 
00002c66 2000 
00002c68 04             9099 	.byte	4
00002c69 04             9100 	.byte	4
00002c6a 04             9101 	.byte	4
00002c6b 01             9102 	.byte	1
00002c6c 24             9103 	.byte	36
00002c6d 525f46444c5f   9104 	.strz	"R_FDL_STOP_SEC_VAR "
00002c73 53544f505f53 
00002c79 45435f564152 
00002c7f 2000 
00002c81 03             9105 	.byte	3
00002c82 25             9106 	.byte	37
00002c83 1b             9107 	.byte	27
00002c84 01             9108 	.byte	1
00002c85 1b             9109 	.byte	27
00002c86 46444c5f5354   9110 	.strz	"FDL_STOP_SEC_VAR_UNSPECIFIED "
00002c8c 4f505f534543 
00002c92 5f5641525f55 
00002c98 4e5350454349 
00002c9e 464945442000 
00002ca4 03             9111 	.byte	3
00002ca5 20             9112 	.byte	32
00002ca6 11             9113 	.byte	17
00002ca7 01             9114 	.byte	1
00002ca8 02             9115 	.byte	2

                                                                      Page 189
                                                              C:\Users\nhuliyap\AppData\Local\Temp\gh_0000da81.s
00002ca9 4d454d4d4150   9116 	.strz	"MEMMAP_VENDOR_ID (30u)"
00002caf 5f56454e444f 
00002cb5 525f49442028 
00002cbb 3330752900 
00002cc0 01             9117 	.byte	1
00002cc1 08             9118 	.byte	8
00002cc2 4d454d4d4150   9119 	.strz	"MEMMAP_AR_RELEASE_MAJOR_VERSION (4u)"
00002cc8 5f41525f5245 
00002cce 4c454153455f 
00002cd4 4d414a4f525f 
00002cda 56455253494f 
00002ce0 4e2028347529 
00002ce6 00 
00002ce7 01             9120 	.byte	1
00002ce8 09             9121 	.byte	9
00002ce9 4d454d4d4150   9122 	.strz	"MEMMAP_AR_RELEASE_MINOR_VERSION (0u)"
00002cef 5f41525f5245 
00002cf5 4c454153455f 
00002cfb 4d494e4f525f 
00002d01 56455253494f 
00002d07 4e2028307529 
00002d0d 00 
00002d0e 01             9123 	.byte	1
00002d0f 0a             9124 	.byte	10
00002d10 4d454d4d4150   9125 	.strz	"MEMMAP_AR_RELEASE_REVISION_VERSION (3u)"
00002d16 5f41525f5245 
00002d1c 4c454153455f 
00002d22 524556495349 
00002d28 4f4e5f564552 
00002d2e 53494f4e2028 
00002d34 33752900 
00002d38 01             9126 	.byte	1
00002d39 10             9127 	.byte	16
00002d3a 4d454d5f4152   9128 	.strz	"MEM_AR_RELEASE_MAJOR_VERSION MEMMAP_AR_RELEASE_MAJOR_VERSION"
00002d40 5f52454c4541 
00002d46 53455f4d414a 
00002d4c 4f525f564552 
00002d52 53494f4e204d 
00002d58 454d4d41505f 
00002d5e 41525f52454c 
00002d64 454153455f4d 
00002d6a 414a4f525f56 
00002d70 455253494f4e 
00002d76 00 
00002d77 01             9129 	.byte	1
00002d78 11             9130 	.byte	17
00002d79 4d454d5f4152   9131 	.strz	"MEM_AR_RELEASE_MINOR_VERSION MEMMAP_AR_RELEASE_MINOR_VERSION"
00002d7f 5f52454c4541 
00002d85 53455f4d494e 
00002d8b 4f525f564552 
00002d91 53494f4e204d 
00002d97 454d4d41505f 
00002d9d 41525f52454c 
00002da3 454153455f4d 
00002da9 494e4f525f56 
00002daf 455253494f4e 
00002db5 00 
00002db6 01             9132 	.byte	1
00002db7 12             9133 	.byte	18
00002db8 4d454d5f4152   9134 	.strz	"MEM_AR_RELEASE_PATCH_VERSION MEMMAP_AR_RELEASE_REVISION_VERSION"
00002dbe 5f52454c4541 

                                                                      Page 190
                                                              C:\Users\nhuliyap\AppData\Local\Temp\gh_0000da81.s
00002dc4 53455f504154 
00002dca 43485f564552 
00002dd0 53494f4e204d 
00002dd6 454d4d41505f 
00002ddc 41525f52454c 
00002de2 454153455f52 
00002de8 45564953494f 
00002dee 4e5f56455253 
00002df4 494f4e00 
00002df8 01             9135 	.byte	1
00002df9 18             9136 	.byte	24
00002dfa 4d454d4d4150   9137 	.strz	"MEMMAP_SW_MAJOR_VERSION (1u)"
00002e00 5f53575f4d41 
00002e06 4a4f525f5645 
00002e0c 5253494f4e20 
00002e12 2831752900 
00002e17 01             9138 	.byte	1
00002e18 19             9139 	.byte	25
00002e19 4d454d4d4150   9140 	.strz	"MEMMAP_SW_MINOR_VERSION (11u)"
00002e1f 5f53575f4d49 
00002e25 4e4f525f5645 
00002e2b 5253494f4e20 
00002e31 283131752900 
00002e37 01             9141 	.byte	1
00002e38 1a             9142 	.byte	26
00002e39 4d454d4d4150   9143 	.strz	"MEMMAP_SW_PATCH_VERSION (0u)"
00002e3f 5f53575f5041 
00002e45 5443485f5645 
00002e4b 5253494f4e20 
00002e51 2830752900 
00002e56 01             9144 	.byte	1
00002e57 20             9145 	.byte	32
00002e58 4d454d5f5357   9146 	.strz	"MEM_SW_MAJOR_VERSION MEMMAP_SW_MAJOR_VERSION"
00002e5e 5f4d414a4f52 
00002e64 5f5645525349 
00002e6a 4f4e204d454d 
00002e70 4d41505f5357 
00002e76 5f4d414a4f52 
00002e7c 5f5645525349 
00002e82 4f4e00 
00002e85 01             9147 	.byte	1
00002e86 21             9148 	.byte	33
00002e87 4d454d5f5357   9149 	.strz	"MEM_SW_MINOR_VERSION MEMMAP_SW_MINOR_VERSION"
00002e8d 5f4d494e4f52 
00002e93 5f5645525349 
00002e99 4f4e204d454d 
00002e9f 4d41505f5357 
00002ea5 5f4d494e4f52 
00002eab 5f5645525349 
00002eb1 4f4e00 
00002eb4 01             9150 	.byte	1
00002eb5 22             9151 	.byte	34
00002eb6 4d454d5f5357   9152 	.strz	"MEM_SW_PATCH_VERSION MEMMAP_SW_PATCH_VERSION"
00002ebc 5f5041544348 
00002ec2 5f5645525349 
00002ec8 4f4e204d454d 
00002ece 4d41505f5357 
00002ed4 5f5041544348 
00002eda 5f5645525349 
00002ee0 4f4e00 
00002ee3 01             9153 	.byte	1

                                                                      Page 191
                                                              C:\Users\nhuliyap\AppData\Local\Temp\gh_0000da81.s
00002ee4 24             9154 	.byte	36
00002ee5 4d454d4d4150   9155 	.strz	"MEMMAP_ERROR "
00002eeb 5f4552524f52 
00002ef1 2000 
00002ef3 01             9156 	.byte	1
00002ef4 fc02           9157 	.byte	252,2
00002ef6 53544f505f53   9158 	.strz	"STOP_SEC_VAR "
00002efc 45435f564152 
00002f02 2000 
00002f04 03             9159 	.byte	3
00002f05 f403           9160 	.byte	244,3
00002f07 12             9161 	.byte	18
00002f08 04             9162 	.byte	4
00002f09 04             9163 	.byte	4
00002f0a 04             9164 	.byte	4
00002f0b 01             9165 	.byte	1
00002f0c 28             9166 	.byte	40
00002f0d 525f46444c5f   9167 	.strz	"R_FDL_START_SEC_PUBLIC_CODE "
00002f13 53544152545f 
00002f19 5345435f5055 
00002f1f 424c49435f43 
00002f25 4f44452000 
00002f2a 03             9168 	.byte	3
00002f2b 29             9169 	.byte	41
00002f2c 1b             9170 	.byte	27
00002f2d 01             9171 	.byte	1
00002f2e 0c             9172 	.byte	12
00002f2f 46444c5f5354   9173 	.strz	"FDL_START_SEC_PUBLIC_CODE "
00002f35 4152545f5345 
00002f3b 435f5055424c 
00002f41 49435f434f44 
00002f47 452000 
00002f4a 03             9174 	.byte	3
00002f4b 20             9175 	.byte	32
00002f4c 11             9176 	.byte	17
00002f4d 01             9177 	.byte	1
00002f4e 02             9178 	.byte	2
00002f4f 4d454d4d4150   9179 	.strz	"MEMMAP_VENDOR_ID (30u)"
00002f55 5f56454e444f 
00002f5b 525f49442028 
00002f61 3330752900 
00002f66 01             9180 	.byte	1
00002f67 08             9181 	.byte	8
00002f68 4d454d4d4150   9182 	.strz	"MEMMAP_AR_RELEASE_MAJOR_VERSION (4u)"
00002f6e 5f41525f5245 
00002f74 4c454153455f 
00002f7a 4d414a4f525f 
00002f80 56455253494f 
00002f86 4e2028347529 
00002f8c 00 
00002f8d 01             9183 	.byte	1
00002f8e 09             9184 	.byte	9
00002f8f 4d454d4d4150   9185 	.strz	"MEMMAP_AR_RELEASE_MINOR_VERSION (0u)"
00002f95 5f41525f5245 
00002f9b 4c454153455f 
00002fa1 4d494e4f525f 
00002fa7 56455253494f 
00002fad 4e2028307529 
00002fb3 00 
00002fb4 01             9186 	.byte	1
00002fb5 0a             9187 	.byte	10

                                                                      Page 192
                                                              C:\Users\nhuliyap\AppData\Local\Temp\gh_0000da81.s
00002fb6 4d454d4d4150   9188 	.strz	"MEMMAP_AR_RELEASE_REVISION_VERSION (3u)"
00002fbc 5f41525f5245 
00002fc2 4c454153455f 
00002fc8 524556495349 
00002fce 4f4e5f564552 
00002fd4 53494f4e2028 
00002fda 33752900 
00002fde 01             9189 	.byte	1
00002fdf 10             9190 	.byte	16
00002fe0 4d454d5f4152   9191 	.strz	"MEM_AR_RELEASE_MAJOR_VERSION MEMMAP_AR_RELEASE_MAJOR_VERSION"
00002fe6 5f52454c4541 
00002fec 53455f4d414a 
00002ff2 4f525f564552 
00002ff8 53494f4e204d 
00002ffe 454d4d41505f 
00003004 41525f52454c 
0000300a 454153455f4d 
00003010 414a4f525f56 
00003016 455253494f4e 
0000301c 00 
0000301d 01             9192 	.byte	1
0000301e 11             9193 	.byte	17
0000301f 4d454d5f4152   9194 	.strz	"MEM_AR_RELEASE_MINOR_VERSION MEMMAP_AR_RELEASE_MINOR_VERSION"
00003025 5f52454c4541 
0000302b 53455f4d494e 
00003031 4f525f564552 
00003037 53494f4e204d 
0000303d 454d4d41505f 
00003043 41525f52454c 
00003049 454153455f4d 
0000304f 494e4f525f56 
00003055 455253494f4e 
0000305b 00 
0000305c 01             9195 	.byte	1
0000305d 12             9196 	.byte	18
0000305e 4d454d5f4152   9197 	.strz	"MEM_AR_RELEASE_PATCH_VERSION MEMMAP_AR_RELEASE_REVISION_VERSION"
00003064 5f52454c4541 
0000306a 53455f504154 
00003070 43485f564552 
00003076 53494f4e204d 
0000307c 454d4d41505f 
00003082 41525f52454c 
00003088 454153455f52 
0000308e 45564953494f 
00003094 4e5f56455253 
0000309a 494f4e00 
0000309e 01             9198 	.byte	1
0000309f 18             9199 	.byte	24
000030a0 4d454d4d4150   9200 	.strz	"MEMMAP_SW_MAJOR_VERSION (1u)"
000030a6 5f53575f4d41 
000030ac 4a4f525f5645 
000030b2 5253494f4e20 
000030b8 2831752900 
000030bd 01             9201 	.byte	1
000030be 19             9202 	.byte	25
000030bf 4d454d4d4150   9203 	.strz	"MEMMAP_SW_MINOR_VERSION (11u)"
000030c5 5f53575f4d49 
000030cb 4e4f525f5645 
000030d1 5253494f4e20 
000030d7 283131752900 
000030dd 01             9204 	.byte	1

                                                                      Page 193
                                                              C:\Users\nhuliyap\AppData\Local\Temp\gh_0000da81.s
000030de 1a             9205 	.byte	26
000030df 4d454d4d4150   9206 	.strz	"MEMMAP_SW_PATCH_VERSION (0u)"
000030e5 5f53575f5041 
000030eb 5443485f5645 
000030f1 5253494f4e20 
000030f7 2830752900 
000030fc 01             9207 	.byte	1
000030fd 20             9208 	.byte	32
000030fe 4d454d5f5357   9209 	.strz	"MEM_SW_MAJOR_VERSION MEMMAP_SW_MAJOR_VERSION"
00003104 5f4d414a4f52 
0000310a 5f5645525349 
00003110 4f4e204d454d 
00003116 4d41505f5357 
0000311c 5f4d414a4f52 
00003122 5f5645525349 
00003128 4f4e00 
0000312b 01             9210 	.byte	1
0000312c 21             9211 	.byte	33
0000312d 4d454d5f5357   9212 	.strz	"MEM_SW_MINOR_VERSION MEMMAP_SW_MINOR_VERSION"
00003133 5f4d494e4f52 
00003139 5f5645525349 
0000313f 4f4e204d454d 
00003145 4d41505f5357 
0000314b 5f4d494e4f52 
00003151 5f5645525349 
00003157 4f4e00 
0000315a 01             9213 	.byte	1
0000315b 22             9214 	.byte	34
0000315c 4d454d5f5357   9215 	.strz	"MEM_SW_PATCH_VERSION MEMMAP_SW_PATCH_VERSION"
00003162 5f5041544348 
00003168 5f5645525349 
0000316e 4f4e204d454d 
00003174 4d41505f5357 
0000317a 5f5041544348 
00003180 5f5645525349 
00003186 4f4e00 
00003189 01             9216 	.byte	1
0000318a 24             9217 	.byte	36
0000318b 4d454d4d4150   9218 	.strz	"MEMMAP_ERROR "
00003191 5f4552524f52 
00003197 2000 
00003199 01             9219 	.byte	1
0000319a e602           9220 	.byte	230,2
0000319c 53544152545f   9221 	.strz	"START_SEC_CODE "
000031a2 5345435f434f 
000031a8 44452000 
000031ac 03             9222 	.byte	3
000031ad f403           9223 	.byte	244,3
000031af 12             9224 	.byte	18
000031b0 01             9225 	.byte	1
000031b1 f307           9226 	.byte	243,7
000031b3 434f44455f53   9227 	.strz	"CODE_SEC_OPEN "
000031b9 45435f4f5045 
000031bf 4e2000 
000031c2 04             9228 	.byte	4
000031c3 04             9229 	.byte	4
000031c4 04             9230 	.byte	4
000031c5 01             9231 	.byte	1
000031c6 62             9232 	.byte	98
000031c7 525f46444c5f   9233 	.strz	"R_FDL_STOP_SEC_PUBLIC_CODE "
000031cd 53544f505f53 

                                                                      Page 194
                                                              C:\Users\nhuliyap\AppData\Local\Temp\gh_0000da81.s
000031d3 45435f505542 
000031d9 4c49435f434f 
000031df 44452000 
000031e3 03             9234 	.byte	3
000031e4 63             9235 	.byte	99
000031e5 1b             9236 	.byte	27
000031e6 01             9237 	.byte	1
000031e7 0f             9238 	.byte	15
000031e8 46444c5f5354   9239 	.strz	"FDL_STOP_SEC_PUBLIC_CODE "
000031ee 4f505f534543 
000031f4 5f5055424c49 
000031fa 435f434f4445 
00003200 2000 
00003202 03             9240 	.byte	3
00003203 20             9241 	.byte	32
00003204 11             9242 	.byte	17
00003205 01             9243 	.byte	1
00003206 02             9244 	.byte	2
00003207 4d454d4d4150   9245 	.strz	"MEMMAP_VENDOR_ID (30u)"
0000320d 5f56454e444f 
00003213 525f49442028 
00003219 3330752900 
0000321e 01             9246 	.byte	1
0000321f 08             9247 	.byte	8
00003220 4d454d4d4150   9248 	.strz	"MEMMAP_AR_RELEASE_MAJOR_VERSION (4u)"
00003226 5f41525f5245 
0000322c 4c454153455f 
00003232 4d414a4f525f 
00003238 56455253494f 
0000323e 4e2028347529 
00003244 00 
00003245 01             9249 	.byte	1
00003246 09             9250 	.byte	9
00003247 4d454d4d4150   9251 	.strz	"MEMMAP_AR_RELEASE_MINOR_VERSION (0u)"
0000324d 5f41525f5245 
00003253 4c454153455f 
00003259 4d494e4f525f 
0000325f 56455253494f 
00003265 4e2028307529 
0000326b 00 
0000326c 01             9252 	.byte	1
0000326d 0a             9253 	.byte	10
0000326e 4d454d4d4150   9254 	.strz	"MEMMAP_AR_RELEASE_REVISION_VERSION (3u)"
00003274 5f41525f5245 
0000327a 4c454153455f 
00003280 524556495349 
00003286 4f4e5f564552 
0000328c 53494f4e2028 
00003292 33752900 
00003296 01             9255 	.byte	1
00003297 10             9256 	.byte	16
00003298 4d454d5f4152   9257 	.strz	"MEM_AR_RELEASE_MAJOR_VERSION MEMMAP_AR_RELEASE_MAJOR_VERSION"
0000329e 5f52454c4541 
000032a4 53455f4d414a 
000032aa 4f525f564552 
000032b0 53494f4e204d 
000032b6 454d4d41505f 
000032bc 41525f52454c 
000032c2 454153455f4d 
000032c8 414a4f525f56 
000032ce 455253494f4e 

                                                                      Page 195
                                                              C:\Users\nhuliyap\AppData\Local\Temp\gh_0000da81.s
000032d4 00 
000032d5 01             9258 	.byte	1
000032d6 11             9259 	.byte	17
000032d7 4d454d5f4152   9260 	.strz	"MEM_AR_RELEASE_MINOR_VERSION MEMMAP_AR_RELEASE_MINOR_VERSION"
000032dd 5f52454c4541 
000032e3 53455f4d494e 
000032e9 4f525f564552 
000032ef 53494f4e204d 
000032f5 454d4d41505f 
000032fb 41525f52454c 
00003301 454153455f4d 
00003307 494e4f525f56 
0000330d 455253494f4e 
00003313 00 
00003314 01             9261 	.byte	1
00003315 12             9262 	.byte	18
00003316 4d454d5f4152   9263 	.strz	"MEM_AR_RELEASE_PATCH_VERSION MEMMAP_AR_RELEASE_REVISION_VERSION"
0000331c 5f52454c4541 
00003322 53455f504154 
00003328 43485f564552 
0000332e 53494f4e204d 
00003334 454d4d41505f 
0000333a 41525f52454c 
00003340 454153455f52 
00003346 45564953494f 
0000334c 4e5f56455253 
00003352 494f4e00 
00003356 01             9264 	.byte	1
00003357 18             9265 	.byte	24
00003358 4d454d4d4150   9266 	.strz	"MEMMAP_SW_MAJOR_VERSION (1u)"
0000335e 5f53575f4d41 
00003364 4a4f525f5645 
0000336a 5253494f4e20 
00003370 2831752900 
00003375 01             9267 	.byte	1
00003376 19             9268 	.byte	25
00003377 4d454d4d4150   9269 	.strz	"MEMMAP_SW_MINOR_VERSION (11u)"
0000337d 5f53575f4d49 
00003383 4e4f525f5645 
00003389 5253494f4e20 
0000338f 283131752900 
00003395 01             9270 	.byte	1
00003396 1a             9271 	.byte	26
00003397 4d454d4d4150   9272 	.strz	"MEMMAP_SW_PATCH_VERSION (0u)"
0000339d 5f53575f5041 
000033a3 5443485f5645 
000033a9 5253494f4e20 
000033af 2830752900 
000033b4 01             9273 	.byte	1
000033b5 20             9274 	.byte	32
000033b6 4d454d5f5357   9275 	.strz	"MEM_SW_MAJOR_VERSION MEMMAP_SW_MAJOR_VERSION"
000033bc 5f4d414a4f52 
000033c2 5f5645525349 
000033c8 4f4e204d454d 
000033ce 4d41505f5357 
000033d4 5f4d414a4f52 
000033da 5f5645525349 
000033e0 4f4e00 
000033e3 01             9276 	.byte	1
000033e4 21             9277 	.byte	33
000033e5 4d454d5f5357   9278 	.strz	"MEM_SW_MINOR_VERSION MEMMAP_SW_MINOR_VERSION"

                                                                      Page 196
                                                              C:\Users\nhuliyap\AppData\Local\Temp\gh_0000da81.s
000033eb 5f4d494e4f52 
000033f1 5f5645525349 
000033f7 4f4e204d454d 
000033fd 4d41505f5357 
00003403 5f4d494e4f52 
00003409 5f5645525349 
0000340f 4f4e00 
00003412 01             9279 	.byte	1
00003413 22             9280 	.byte	34
00003414 4d454d5f5357   9281 	.strz	"MEM_SW_PATCH_VERSION MEMMAP_SW_PATCH_VERSION"
0000341a 5f5041544348 
00003420 5f5645525349 
00003426 4f4e204d454d 
0000342c 4d41505f5357 
00003432 5f5041544348 
00003438 5f5645525349 
0000343e 4f4e00 
00003441 01             9282 	.byte	1
00003442 24             9283 	.byte	36
00003443 4d454d4d4150   9284 	.strz	"MEMMAP_ERROR "
00003449 5f4552524f52 
0000344f 2000 
00003451 01             9285 	.byte	1
00003452 ea02           9286 	.byte	234,2
00003454 53544f505f53   9287 	.strz	"STOP_SEC_CODE "
0000345a 45435f434f44 
00003460 452000 
00003463 03             9288 	.byte	3
00003464 f403           9289 	.byte	244,3
00003466 12             9290 	.byte	18
00003467 04             9291 	.byte	4
00003468 04             9292 	.byte	4
00003469 04             9293 	.byte	4
0000346a 01             9294 	.byte	1
0000346b 65             9295 	.byte	101
0000346c 525f46444c5f   9296 	.strz	"R_FDL_START_SEC_PUBLIC_CODE "
00003472 53544152545f 
00003478 5345435f5055 
0000347e 424c49435f43 
00003484 4f44452000 
00003489 03             9297 	.byte	3
0000348a 66             9298 	.byte	102
0000348b 1b             9299 	.byte	27
0000348c 01             9300 	.byte	1
0000348d 0c             9301 	.byte	12
0000348e 46444c5f5354   9302 	.strz	"FDL_START_SEC_PUBLIC_CODE "
00003494 4152545f5345 
0000349a 435f5055424c 
000034a0 49435f434f44 
000034a6 452000 
000034a9 03             9303 	.byte	3
000034aa 20             9304 	.byte	32
000034ab 11             9305 	.byte	17
000034ac 01             9306 	.byte	1
000034ad 02             9307 	.byte	2
000034ae 4d454d4d4150   9308 	.strz	"MEMMAP_VENDOR_ID (30u)"
000034b4 5f56454e444f 
000034ba 525f49442028 
000034c0 3330752900 
000034c5 01             9309 	.byte	1
000034c6 08             9310 	.byte	8

                                                                      Page 197
                                                              C:\Users\nhuliyap\AppData\Local\Temp\gh_0000da81.s
000034c7 4d454d4d4150   9311 	.strz	"MEMMAP_AR_RELEASE_MAJOR_VERSION (4u)"
000034cd 5f41525f5245 
000034d3 4c454153455f 
000034d9 4d414a4f525f 
000034df 56455253494f 
000034e5 4e2028347529 
000034eb 00 
000034ec 01             9312 	.byte	1
000034ed 09             9313 	.byte	9
000034ee 4d454d4d4150   9314 	.strz	"MEMMAP_AR_RELEASE_MINOR_VERSION (0u)"
000034f4 5f41525f5245 
000034fa 4c454153455f 
00003500 4d494e4f525f 
00003506 56455253494f 
0000350c 4e2028307529 
00003512 00 
00003513 01             9315 	.byte	1
00003514 0a             9316 	.byte	10
00003515 4d454d4d4150   9317 	.strz	"MEMMAP_AR_RELEASE_REVISION_VERSION (3u)"
0000351b 5f41525f5245 
00003521 4c454153455f 
00003527 524556495349 
0000352d 4f4e5f564552 
00003533 53494f4e2028 
00003539 33752900 
0000353d 01             9318 	.byte	1
0000353e 10             9319 	.byte	16
0000353f 4d454d5f4152   9320 	.strz	"MEM_AR_RELEASE_MAJOR_VERSION MEMMAP_AR_RELEASE_MAJOR_VERSION"
00003545 5f52454c4541 
0000354b 53455f4d414a 
00003551 4f525f564552 
00003557 53494f4e204d 
0000355d 454d4d41505f 
00003563 41525f52454c 
00003569 454153455f4d 
0000356f 414a4f525f56 
00003575 455253494f4e 
0000357b 00 
0000357c 01             9321 	.byte	1
0000357d 11             9322 	.byte	17
0000357e 4d454d5f4152   9323 	.strz	"MEM_AR_RELEASE_MINOR_VERSION MEMMAP_AR_RELEASE_MINOR_VERSION"
00003584 5f52454c4541 
0000358a 53455f4d494e 
00003590 4f525f564552 
00003596 53494f4e204d 
0000359c 454d4d41505f 
000035a2 41525f52454c 
000035a8 454153455f4d 
000035ae 494e4f525f56 
000035b4 455253494f4e 
000035ba 00 
000035bb 01             9324 	.byte	1
000035bc 12             9325 	.byte	18
000035bd 4d454d5f4152   9326 	.strz	"MEM_AR_RELEASE_PATCH_VERSION MEMMAP_AR_RELEASE_REVISION_VERSION"
000035c3 5f52454c4541 
000035c9 53455f504154 
000035cf 43485f564552 
000035d5 53494f4e204d 
000035db 454d4d41505f 
000035e1 41525f52454c 
000035e7 454153455f52 

                                                                      Page 198
                                                              C:\Users\nhuliyap\AppData\Local\Temp\gh_0000da81.s
000035ed 45564953494f 
000035f3 4e5f56455253 
000035f9 494f4e00 
000035fd 01             9327 	.byte	1
000035fe 18             9328 	.byte	24
000035ff 4d454d4d4150   9329 	.strz	"MEMMAP_SW_MAJOR_VERSION (1u)"
00003605 5f53575f4d41 
0000360b 4a4f525f5645 
00003611 5253494f4e20 
00003617 2831752900 
0000361c 01             9330 	.byte	1
0000361d 19             9331 	.byte	25
0000361e 4d454d4d4150   9332 	.strz	"MEMMAP_SW_MINOR_VERSION (11u)"
00003624 5f53575f4d49 
0000362a 4e4f525f5645 
00003630 5253494f4e20 
00003636 283131752900 
0000363c 01             9333 	.byte	1
0000363d 1a             9334 	.byte	26
0000363e 4d454d4d4150   9335 	.strz	"MEMMAP_SW_PATCH_VERSION (0u)"
00003644 5f53575f5041 
0000364a 5443485f5645 
00003650 5253494f4e20 
00003656 2830752900 
0000365b 01             9336 	.byte	1
0000365c 20             9337 	.byte	32
0000365d 4d454d5f5357   9338 	.strz	"MEM_SW_MAJOR_VERSION MEMMAP_SW_MAJOR_VERSION"
00003663 5f4d414a4f52 
00003669 5f5645525349 
0000366f 4f4e204d454d 
00003675 4d41505f5357 
0000367b 5f4d414a4f52 
00003681 5f5645525349 
00003687 4f4e00 
0000368a 01             9339 	.byte	1
0000368b 21             9340 	.byte	33
0000368c 4d454d5f5357   9341 	.strz	"MEM_SW_MINOR_VERSION MEMMAP_SW_MINOR_VERSION"
00003692 5f4d494e4f52 
00003698 5f5645525349 
0000369e 4f4e204d454d 
000036a4 4d41505f5357 
000036aa 5f4d494e4f52 
000036b0 5f5645525349 
000036b6 4f4e00 
000036b9 01             9342 	.byte	1
000036ba 22             9343 	.byte	34
000036bb 4d454d5f5357   9344 	.strz	"MEM_SW_PATCH_VERSION MEMMAP_SW_PATCH_VERSION"
000036c1 5f5041544348 
000036c7 5f5645525349 
000036cd 4f4e204d454d 
000036d3 4d41505f5357 
000036d9 5f5041544348 
000036df 5f5645525349 
000036e5 4f4e00 
000036e8 01             9345 	.byte	1
000036e9 24             9346 	.byte	36
000036ea 4d454d4d4150   9347 	.strz	"MEMMAP_ERROR "
000036f0 5f4552524f52 
000036f6 2000 
000036f8 01             9348 	.byte	1
000036f9 e602           9349 	.byte	230,2

                                                                      Page 199
                                                              C:\Users\nhuliyap\AppData\Local\Temp\gh_0000da81.s
000036fb 53544152545f   9350 	.strz	"START_SEC_CODE "
00003701 5345435f434f 
00003707 44452000 
0000370b 03             9351 	.byte	3
0000370c f403           9352 	.byte	244,3
0000370e 12             9353 	.byte	18
0000370f 01             9354 	.byte	1
00003710 f307           9355 	.byte	243,7
00003712 434f44455f53   9356 	.strz	"CODE_SEC_OPEN "
00003718 45435f4f5045 
0000371e 4e2000 
00003721 04             9357 	.byte	4
00003722 04             9358 	.byte	4
00003723 04             9359 	.byte	4
00003724 01             9360 	.byte	1
00003725 c101           9361 	.byte	193,1
00003727 525f46444c5f   9362 	.strz	"R_FDL_STOP_SEC_PUBLIC_CODE "
0000372d 53544f505f53 
00003733 45435f505542 
00003739 4c49435f434f 
0000373f 44452000 
00003743 03             9363 	.byte	3
00003744 c201           9364 	.byte	194,1
00003746 1b             9365 	.byte	27
00003747 01             9366 	.byte	1
00003748 0f             9367 	.byte	15
00003749 46444c5f5354   9368 	.strz	"FDL_STOP_SEC_PUBLIC_CODE "
0000374f 4f505f534543 
00003755 5f5055424c49 
0000375b 435f434f4445 
00003761 2000 
00003763 03             9369 	.byte	3
00003764 20             9370 	.byte	32
00003765 11             9371 	.byte	17
00003766 01             9372 	.byte	1
00003767 02             9373 	.byte	2
00003768 4d454d4d4150   9374 	.strz	"MEMMAP_VENDOR_ID (30u)"
0000376e 5f56454e444f 
00003774 525f49442028 
0000377a 3330752900 
0000377f 01             9375 	.byte	1
00003780 08             9376 	.byte	8
00003781 4d454d4d4150   9377 	.strz	"MEMMAP_AR_RELEASE_MAJOR_VERSION (4u)"
00003787 5f41525f5245 
0000378d 4c454153455f 
00003793 4d414a4f525f 
00003799 56455253494f 
0000379f 4e2028347529 
000037a5 00 
000037a6 01             9378 	.byte	1
000037a7 09             9379 	.byte	9
000037a8 4d454d4d4150   9380 	.strz	"MEMMAP_AR_RELEASE_MINOR_VERSION (0u)"
000037ae 5f41525f5245 
000037b4 4c454153455f 
000037ba 4d494e4f525f 
000037c0 56455253494f 
000037c6 4e2028307529 
000037cc 00 
000037cd 01             9381 	.byte	1
000037ce 0a             9382 	.byte	10
000037cf 4d454d4d4150   9383 	.strz	"MEMMAP_AR_RELEASE_REVISION_VERSION (3u)"

                                                                      Page 200
                                                              C:\Users\nhuliyap\AppData\Local\Temp\gh_0000da81.s
000037d5 5f41525f5245 
000037db 4c454153455f 
000037e1 524556495349 
000037e7 4f4e5f564552 
000037ed 53494f4e2028 
000037f3 33752900 
000037f7 01             9384 	.byte	1
000037f8 10             9385 	.byte	16
000037f9 4d454d5f4152   9386 	.strz	"MEM_AR_RELEASE_MAJOR_VERSION MEMMAP_AR_RELEASE_MAJOR_VERSION"
000037ff 5f52454c4541 
00003805 53455f4d414a 
0000380b 4f525f564552 
00003811 53494f4e204d 
00003817 454d4d41505f 
0000381d 41525f52454c 
00003823 454153455f4d 
00003829 414a4f525f56 
0000382f 455253494f4e 
00003835 00 
00003836 01             9387 	.byte	1
00003837 11             9388 	.byte	17
00003838 4d454d5f4152   9389 	.strz	"MEM_AR_RELEASE_MINOR_VERSION MEMMAP_AR_RELEASE_MINOR_VERSION"
0000383e 5f52454c4541 
00003844 53455f4d494e 
0000384a 4f525f564552 
00003850 53494f4e204d 
00003856 454d4d41505f 
0000385c 41525f52454c 
00003862 454153455f4d 
00003868 494e4f525f56 
0000386e 455253494f4e 
00003874 00 
00003875 01             9390 	.byte	1
00003876 12             9391 	.byte	18
00003877 4d454d5f4152   9392 	.strz	"MEM_AR_RELEASE_PATCH_VERSION MEMMAP_AR_RELEASE_REVISION_VERSION"
0000387d 5f52454c4541 
00003883 53455f504154 
00003889 43485f564552 
0000388f 53494f4e204d 
00003895 454d4d41505f 
0000389b 41525f52454c 
000038a1 454153455f52 
000038a7 45564953494f 
000038ad 4e5f56455253 
000038b3 494f4e00 
000038b7 01             9393 	.byte	1
000038b8 18             9394 	.byte	24
000038b9 4d454d4d4150   9395 	.strz	"MEMMAP_SW_MAJOR_VERSION (1u)"
000038bf 5f53575f4d41 
000038c5 4a4f525f5645 
000038cb 5253494f4e20 
000038d1 2831752900 
000038d6 01             9396 	.byte	1
000038d7 19             9397 	.byte	25
000038d8 4d454d4d4150   9398 	.strz	"MEMMAP_SW_MINOR_VERSION (11u)"
000038de 5f53575f4d49 
000038e4 4e4f525f5645 
000038ea 5253494f4e20 
000038f0 283131752900 
000038f6 01             9399 	.byte	1
000038f7 1a             9400 	.byte	26

                                                                      Page 201
                                                              C:\Users\nhuliyap\AppData\Local\Temp\gh_0000da81.s
000038f8 4d454d4d4150   9401 	.strz	"MEMMAP_SW_PATCH_VERSION (0u)"
000038fe 5f53575f5041 
00003904 5443485f5645 
0000390a 5253494f4e20 
00003910 2830752900 
00003915 01             9402 	.byte	1
00003916 20             9403 	.byte	32
00003917 4d454d5f5357   9404 	.strz	"MEM_SW_MAJOR_VERSION MEMMAP_SW_MAJOR_VERSION"
0000391d 5f4d414a4f52 
00003923 5f5645525349 
00003929 4f4e204d454d 
0000392f 4d41505f5357 
00003935 5f4d414a4f52 
0000393b 5f5645525349 
00003941 4f4e00 
00003944 01             9405 	.byte	1
00003945 21             9406 	.byte	33
00003946 4d454d5f5357   9407 	.strz	"MEM_SW_MINOR_VERSION MEMMAP_SW_MINOR_VERSION"
0000394c 5f4d494e4f52 
00003952 5f5645525349 
00003958 4f4e204d454d 
0000395e 4d41505f5357 
00003964 5f4d494e4f52 
0000396a 5f5645525349 
00003970 4f4e00 
00003973 01             9408 	.byte	1
00003974 22             9409 	.byte	34
00003975 4d454d5f5357   9410 	.strz	"MEM_SW_PATCH_VERSION MEMMAP_SW_PATCH_VERSION"
0000397b 5f5041544348 
00003981 5f5645525349 
00003987 4f4e204d454d 
0000398d 4d41505f5357 
00003993 5f5041544348 
00003999 5f5645525349 
0000399f 4f4e00 
000039a2 01             9411 	.byte	1
000039a3 24             9412 	.byte	36
000039a4 4d454d4d4150   9413 	.strz	"MEMMAP_ERROR "
000039aa 5f4552524f52 
000039b0 2000 
000039b2 01             9414 	.byte	1
000039b3 ea02           9415 	.byte	234,2
000039b5 53544f505f53   9416 	.strz	"STOP_SEC_CODE "
000039bb 45435f434f44 
000039c1 452000 
000039c4 03             9417 	.byte	3
000039c5 f403           9418 	.byte	244,3
000039c7 12             9419 	.byte	18
000039c8 04             9420 	.byte	4
000039c9 04             9421 	.byte	4
000039ca 04             9422 	.byte	4
000039cb 01             9423 	.byte	1
000039cc c401           9424 	.byte	196,1
000039ce 525f46444c5f   9425 	.strz	"R_FDL_START_SEC_PUBLIC_CODE "
000039d4 53544152545f 
000039da 5345435f5055 
000039e0 424c49435f43 
000039e6 4f44452000 
000039eb 03             9426 	.byte	3
000039ec c501           9427 	.byte	197,1
000039ee 1b             9428 	.byte	27

                                                                      Page 202
                                                              C:\Users\nhuliyap\AppData\Local\Temp\gh_0000da81.s
000039ef 01             9429 	.byte	1
000039f0 0c             9430 	.byte	12
000039f1 46444c5f5354   9431 	.strz	"FDL_START_SEC_PUBLIC_CODE "
000039f7 4152545f5345 
000039fd 435f5055424c 
00003a03 49435f434f44 
00003a09 452000 
00003a0c 03             9432 	.byte	3
00003a0d 20             9433 	.byte	32
00003a0e 11             9434 	.byte	17
00003a0f 01             9435 	.byte	1
00003a10 02             9436 	.byte	2
00003a11 4d454d4d4150   9437 	.strz	"MEMMAP_VENDOR_ID (30u)"
00003a17 5f56454e444f 
00003a1d 525f49442028 
00003a23 3330752900 
00003a28 01             9438 	.byte	1
00003a29 08             9439 	.byte	8
00003a2a 4d454d4d4150   9440 	.strz	"MEMMAP_AR_RELEASE_MAJOR_VERSION (4u)"
00003a30 5f41525f5245 
00003a36 4c454153455f 
00003a3c 4d414a4f525f 
00003a42 56455253494f 
00003a48 4e2028347529 
00003a4e 00 
00003a4f 01             9441 	.byte	1
00003a50 09             9442 	.byte	9
00003a51 4d454d4d4150   9443 	.strz	"MEMMAP_AR_RELEASE_MINOR_VERSION (0u)"
00003a57 5f41525f5245 
00003a5d 4c454153455f 
00003a63 4d494e4f525f 
00003a69 56455253494f 
00003a6f 4e2028307529 
00003a75 00 
00003a76 01             9444 	.byte	1
00003a77 0a             9445 	.byte	10
00003a78 4d454d4d4150   9446 	.strz	"MEMMAP_AR_RELEASE_REVISION_VERSION (3u)"
00003a7e 5f41525f5245 
00003a84 4c454153455f 
00003a8a 524556495349 
00003a90 4f4e5f564552 
00003a96 53494f4e2028 
00003a9c 33752900 
00003aa0 01             9447 	.byte	1
00003aa1 10             9448 	.byte	16
00003aa2 4d454d5f4152   9449 	.strz	"MEM_AR_RELEASE_MAJOR_VERSION MEMMAP_AR_RELEASE_MAJOR_VERSION"
00003aa8 5f52454c4541 
00003aae 53455f4d414a 
00003ab4 4f525f564552 
00003aba 53494f4e204d 
00003ac0 454d4d41505f 
00003ac6 41525f52454c 
00003acc 454153455f4d 
00003ad2 414a4f525f56 
00003ad8 455253494f4e 
00003ade 00 
00003adf 01             9450 	.byte	1
00003ae0 11             9451 	.byte	17
00003ae1 4d454d5f4152   9452 	.strz	"MEM_AR_RELEASE_MINOR_VERSION MEMMAP_AR_RELEASE_MINOR_VERSION"
00003ae7 5f52454c4541 
00003aed 53455f4d494e 

                                                                      Page 203
                                                              C:\Users\nhuliyap\AppData\Local\Temp\gh_0000da81.s
00003af3 4f525f564552 
00003af9 53494f4e204d 
00003aff 454d4d41505f 
00003b05 41525f52454c 
00003b0b 454153455f4d 
00003b11 494e4f525f56 
00003b17 455253494f4e 
00003b1d 00 
00003b1e 01             9453 	.byte	1
00003b1f 12             9454 	.byte	18
00003b20 4d454d5f4152   9455 	.strz	"MEM_AR_RELEASE_PATCH_VERSION MEMMAP_AR_RELEASE_REVISION_VERSION"
00003b26 5f52454c4541 
00003b2c 53455f504154 
00003b32 43485f564552 
00003b38 53494f4e204d 
00003b3e 454d4d41505f 
00003b44 41525f52454c 
00003b4a 454153455f52 
00003b50 45564953494f 
00003b56 4e5f56455253 
00003b5c 494f4e00 
00003b60 01             9456 	.byte	1
00003b61 18             9457 	.byte	24
00003b62 4d454d4d4150   9458 	.strz	"MEMMAP_SW_MAJOR_VERSION (1u)"
00003b68 5f53575f4d41 
00003b6e 4a4f525f5645 
00003b74 5253494f4e20 
00003b7a 2831752900 
00003b7f 01             9459 	.byte	1
00003b80 19             9460 	.byte	25
00003b81 4d454d4d4150   9461 	.strz	"MEMMAP_SW_MINOR_VERSION (11u)"
00003b87 5f53575f4d49 
00003b8d 4e4f525f5645 
00003b93 5253494f4e20 
00003b99 283131752900 
00003b9f 01             9462 	.byte	1
00003ba0 1a             9463 	.byte	26
00003ba1 4d454d4d4150   9464 	.strz	"MEMMAP_SW_PATCH_VERSION (0u)"
00003ba7 5f53575f5041 
00003bad 5443485f5645 
00003bb3 5253494f4e20 
00003bb9 2830752900 
00003bbe 01             9465 	.byte	1
00003bbf 20             9466 	.byte	32
00003bc0 4d454d5f5357   9467 	.strz	"MEM_SW_MAJOR_VERSION MEMMAP_SW_MAJOR_VERSION"
00003bc6 5f4d414a4f52 
00003bcc 5f5645525349 
00003bd2 4f4e204d454d 
00003bd8 4d41505f5357 
00003bde 5f4d414a4f52 
00003be4 5f5645525349 
00003bea 4f4e00 
00003bed 01             9468 	.byte	1
00003bee 21             9469 	.byte	33
00003bef 4d454d5f5357   9470 	.strz	"MEM_SW_MINOR_VERSION MEMMAP_SW_MINOR_VERSION"
00003bf5 5f4d494e4f52 
00003bfb 5f5645525349 
00003c01 4f4e204d454d 
00003c07 4d41505f5357 
00003c0d 5f4d494e4f52 
00003c13 5f5645525349 

                                                                      Page 204
                                                              C:\Users\nhuliyap\AppData\Local\Temp\gh_0000da81.s
00003c19 4f4e00 
00003c1c 01             9471 	.byte	1
00003c1d 22             9472 	.byte	34
00003c1e 4d454d5f5357   9473 	.strz	"MEM_SW_PATCH_VERSION MEMMAP_SW_PATCH_VERSION"
00003c24 5f5041544348 
00003c2a 5f5645525349 
00003c30 4f4e204d454d 
00003c36 4d41505f5357 
00003c3c 5f5041544348 
00003c42 5f5645525349 
00003c48 4f4e00 
00003c4b 01             9474 	.byte	1
00003c4c 24             9475 	.byte	36
00003c4d 4d454d4d4150   9476 	.strz	"MEMMAP_ERROR "
00003c53 5f4552524f52 
00003c59 2000 
00003c5b 01             9477 	.byte	1
00003c5c e602           9478 	.byte	230,2
00003c5e 53544152545f   9479 	.strz	"START_SEC_CODE "
00003c64 5345435f434f 
00003c6a 44452000 
00003c6e 03             9480 	.byte	3
00003c6f f403           9481 	.byte	244,3
00003c71 12             9482 	.byte	18
00003c72 01             9483 	.byte	1
00003c73 f307           9484 	.byte	243,7
00003c75 434f44455f53   9485 	.strz	"CODE_SEC_OPEN "
00003c7b 45435f4f5045 
00003c81 4e2000 
00003c84 04             9486 	.byte	4
00003c85 04             9487 	.byte	4
00003c86 04             9488 	.byte	4
00003c87 01             9489 	.byte	1
00003c88 ef01           9490 	.byte	239,1
00003c8a 525f46444c5f   9491 	.strz	"R_FDL_STOP_SEC_PUBLIC_CODE "
00003c90 53544f505f53 
00003c96 45435f505542 
00003c9c 4c49435f434f 
00003ca2 44452000 
00003ca6 03             9492 	.byte	3
00003ca7 f001           9493 	.byte	240,1
00003ca9 1b             9494 	.byte	27
00003caa 01             9495 	.byte	1
00003cab 0f             9496 	.byte	15
00003cac 46444c5f5354   9497 	.strz	"FDL_STOP_SEC_PUBLIC_CODE "
00003cb2 4f505f534543 
00003cb8 5f5055424c49 
00003cbe 435f434f4445 
00003cc4 2000 
00003cc6 03             9498 	.byte	3
00003cc7 20             9499 	.byte	32
00003cc8 11             9500 	.byte	17
00003cc9 01             9501 	.byte	1
00003cca 02             9502 	.byte	2
00003ccb 4d454d4d4150   9503 	.strz	"MEMMAP_VENDOR_ID (30u)"
00003cd1 5f56454e444f 
00003cd7 525f49442028 
00003cdd 3330752900 
00003ce2 01             9504 	.byte	1
00003ce3 08             9505 	.byte	8
00003ce4 4d454d4d4150   9506 	.strz	"MEMMAP_AR_RELEASE_MAJOR_VERSION (4u)"

                                                                      Page 205
                                                              C:\Users\nhuliyap\AppData\Local\Temp\gh_0000da81.s
00003cea 5f41525f5245 
00003cf0 4c454153455f 
00003cf6 4d414a4f525f 
00003cfc 56455253494f 
00003d02 4e2028347529 
00003d08 00 
00003d09 01             9507 	.byte	1
00003d0a 09             9508 	.byte	9
00003d0b 4d454d4d4150   9509 	.strz	"MEMMAP_AR_RELEASE_MINOR_VERSION (0u)"
00003d11 5f41525f5245 
00003d17 4c454153455f 
00003d1d 4d494e4f525f 
00003d23 56455253494f 
00003d29 4e2028307529 
00003d2f 00 
00003d30 01             9510 	.byte	1
00003d31 0a             9511 	.byte	10
00003d32 4d454d4d4150   9512 	.strz	"MEMMAP_AR_RELEASE_REVISION_VERSION (3u)"
00003d38 5f41525f5245 
00003d3e 4c454153455f 
00003d44 524556495349 
00003d4a 4f4e5f564552 
00003d50 53494f4e2028 
00003d56 33752900 
00003d5a 01             9513 	.byte	1
00003d5b 10             9514 	.byte	16
00003d5c 4d454d5f4152   9515 	.strz	"MEM_AR_RELEASE_MAJOR_VERSION MEMMAP_AR_RELEASE_MAJOR_VERSION"
00003d62 5f52454c4541 
00003d68 53455f4d414a 
00003d6e 4f525f564552 
00003d74 53494f4e204d 
00003d7a 454d4d41505f 
00003d80 41525f52454c 
00003d86 454153455f4d 
00003d8c 414a4f525f56 
00003d92 455253494f4e 
00003d98 00 
00003d99 01             9516 	.byte	1
00003d9a 11             9517 	.byte	17
00003d9b 4d454d5f4152   9518 	.strz	"MEM_AR_RELEASE_MINOR_VERSION MEMMAP_AR_RELEASE_MINOR_VERSION"
00003da1 5f52454c4541 
00003da7 53455f4d494e 
00003dad 4f525f564552 
00003db3 53494f4e204d 
00003db9 454d4d41505f 
00003dbf 41525f52454c 
00003dc5 454153455f4d 
00003dcb 494e4f525f56 
00003dd1 455253494f4e 
00003dd7 00 
00003dd8 01             9519 	.byte	1
00003dd9 12             9520 	.byte	18
00003dda 4d454d5f4152   9521 	.strz	"MEM_AR_RELEASE_PATCH_VERSION MEMMAP_AR_RELEASE_REVISION_VERSION"
00003de0 5f52454c4541 
00003de6 53455f504154 
00003dec 43485f564552 
00003df2 53494f4e204d 
00003df8 454d4d41505f 
00003dfe 41525f52454c 
00003e04 454153455f52 
00003e0a 45564953494f 

                                                                      Page 206
                                                              C:\Users\nhuliyap\AppData\Local\Temp\gh_0000da81.s
00003e10 4e5f56455253 
00003e16 494f4e00 
00003e1a 01             9522 	.byte	1
00003e1b 18             9523 	.byte	24
00003e1c 4d454d4d4150   9524 	.strz	"MEMMAP_SW_MAJOR_VERSION (1u)"
00003e22 5f53575f4d41 
00003e28 4a4f525f5645 
00003e2e 5253494f4e20 
00003e34 2831752900 
00003e39 01             9525 	.byte	1
00003e3a 19             9526 	.byte	25
00003e3b 4d454d4d4150   9527 	.strz	"MEMMAP_SW_MINOR_VERSION (11u)"
00003e41 5f53575f4d49 
00003e47 4e4f525f5645 
00003e4d 5253494f4e20 
00003e53 283131752900 
00003e59 01             9528 	.byte	1
00003e5a 1a             9529 	.byte	26
00003e5b 4d454d4d4150   9530 	.strz	"MEMMAP_SW_PATCH_VERSION (0u)"
00003e61 5f53575f5041 
00003e67 5443485f5645 
00003e6d 5253494f4e20 
00003e73 2830752900 
00003e78 01             9531 	.byte	1
00003e79 20             9532 	.byte	32
00003e7a 4d454d5f5357   9533 	.strz	"MEM_SW_MAJOR_VERSION MEMMAP_SW_MAJOR_VERSION"
00003e80 5f4d414a4f52 
00003e86 5f5645525349 
00003e8c 4f4e204d454d 
00003e92 4d41505f5357 
00003e98 5f4d414a4f52 
00003e9e 5f5645525349 
00003ea4 4f4e00 
00003ea7 01             9534 	.byte	1
00003ea8 21             9535 	.byte	33
00003ea9 4d454d5f5357   9536 	.strz	"MEM_SW_MINOR_VERSION MEMMAP_SW_MINOR_VERSION"
00003eaf 5f4d494e4f52 
00003eb5 5f5645525349 
00003ebb 4f4e204d454d 
00003ec1 4d41505f5357 
00003ec7 5f4d494e4f52 
00003ecd 5f5645525349 
00003ed3 4f4e00 
00003ed6 01             9537 	.byte	1
00003ed7 22             9538 	.byte	34
00003ed8 4d454d5f5357   9539 	.strz	"MEM_SW_PATCH_VERSION MEMMAP_SW_PATCH_VERSION"
00003ede 5f5041544348 
00003ee4 5f5645525349 
00003eea 4f4e204d454d 
00003ef0 4d41505f5357 
00003ef6 5f5041544348 
00003efc 5f5645525349 
00003f02 4f4e00 
00003f05 01             9540 	.byte	1
00003f06 24             9541 	.byte	36
00003f07 4d454d4d4150   9542 	.strz	"MEMMAP_ERROR "
00003f0d 5f4552524f52 
00003f13 2000 
00003f15 01             9543 	.byte	1
00003f16 ea02           9544 	.byte	234,2
00003f18 53544f505f53   9545 	.strz	"STOP_SEC_CODE "

                                                                      Page 207
                                                              C:\Users\nhuliyap\AppData\Local\Temp\gh_0000da81.s
00003f1e 45435f434f44 
00003f24 452000 
00003f27 03             9546 	.byte	3
00003f28 f403           9547 	.byte	244,3
00003f2a 12             9548 	.byte	18
00003f2b 04             9549 	.byte	4
00003f2c 04             9550 	.byte	4
00003f2d 04             9551 	.byte	4
00003f2e 01             9552 	.byte	1
00003f2f f201           9553 	.byte	242,1
00003f31 525f46444c5f   9554 	.strz	"R_FDL_START_SEC_PUBLIC_CODE "
00003f37 53544152545f 
00003f3d 5345435f5055 
00003f43 424c49435f43 
00003f49 4f44452000 
00003f4e 03             9555 	.byte	3
00003f4f f301           9556 	.byte	243,1
00003f51 1b             9557 	.byte	27
00003f52 01             9558 	.byte	1
00003f53 0c             9559 	.byte	12
00003f54 46444c5f5354   9560 	.strz	"FDL_START_SEC_PUBLIC_CODE "
00003f5a 4152545f5345 
00003f60 435f5055424c 
00003f66 49435f434f44 
00003f6c 452000 
00003f6f 03             9561 	.byte	3
00003f70 20             9562 	.byte	32
00003f71 11             9563 	.byte	17
00003f72 01             9564 	.byte	1
00003f73 02             9565 	.byte	2
00003f74 4d454d4d4150   9566 	.strz	"MEMMAP_VENDOR_ID (30u)"
00003f7a 5f56454e444f 
00003f80 525f49442028 
00003f86 3330752900 
00003f8b 01             9567 	.byte	1
00003f8c 08             9568 	.byte	8
00003f8d 4d454d4d4150   9569 	.strz	"MEMMAP_AR_RELEASE_MAJOR_VERSION (4u)"
00003f93 5f41525f5245 
00003f99 4c454153455f 
00003f9f 4d414a4f525f 
00003fa5 56455253494f 
00003fab 4e2028347529 
00003fb1 00 
00003fb2 01             9570 	.byte	1
00003fb3 09             9571 	.byte	9
00003fb4 4d454d4d4150   9572 	.strz	"MEMMAP_AR_RELEASE_MINOR_VERSION (0u)"
00003fba 5f41525f5245 
00003fc0 4c454153455f 
00003fc6 4d494e4f525f 
00003fcc 56455253494f 
00003fd2 4e2028307529 
00003fd8 00 
00003fd9 01             9573 	.byte	1
00003fda 0a             9574 	.byte	10
00003fdb 4d454d4d4150   9575 	.strz	"MEMMAP_AR_RELEASE_REVISION_VERSION (3u)"
00003fe1 5f41525f5245 
00003fe7 4c454153455f 
00003fed 524556495349 
00003ff3 4f4e5f564552 
00003ff9 53494f4e2028 
00003fff 33752900 

                                                                      Page 208
                                                              C:\Users\nhuliyap\AppData\Local\Temp\gh_0000da81.s
00004003 01             9576 	.byte	1
00004004 10             9577 	.byte	16
00004005 4d454d5f4152   9578 	.strz	"MEM_AR_RELEASE_MAJOR_VERSION MEMMAP_AR_RELEASE_MAJOR_VERSION"
0000400b 5f52454c4541 
00004011 53455f4d414a 
00004017 4f525f564552 
0000401d 53494f4e204d 
00004023 454d4d41505f 
00004029 41525f52454c 
0000402f 454153455f4d 
00004035 414a4f525f56 
0000403b 455253494f4e 
00004041 00 
00004042 01             9579 	.byte	1
00004043 11             9580 	.byte	17
00004044 4d454d5f4152   9581 	.strz	"MEM_AR_RELEASE_MINOR_VERSION MEMMAP_AR_RELEASE_MINOR_VERSION"
0000404a 5f52454c4541 
00004050 53455f4d494e 
00004056 4f525f564552 
0000405c 53494f4e204d 
00004062 454d4d41505f 
00004068 41525f52454c 
0000406e 454153455f4d 
00004074 494e4f525f56 
0000407a 455253494f4e 
00004080 00 
00004081 01             9582 	.byte	1
00004082 12             9583 	.byte	18
00004083 4d454d5f4152   9584 	.strz	"MEM_AR_RELEASE_PATCH_VERSION MEMMAP_AR_RELEASE_REVISION_VERSION"
00004089 5f52454c4541 
0000408f 53455f504154 
00004095 43485f564552 
0000409b 53494f4e204d 
000040a1 454d4d41505f 
000040a7 41525f52454c 
000040ad 454153455f52 
000040b3 45564953494f 
000040b9 4e5f56455253 
000040bf 494f4e00 
000040c3 01             9585 	.byte	1
000040c4 18             9586 	.byte	24
000040c5 4d454d4d4150   9587 	.strz	"MEMMAP_SW_MAJOR_VERSION (1u)"
000040cb 5f53575f4d41 
000040d1 4a4f525f5645 
000040d7 5253494f4e20 
000040dd 2831752900 
000040e2 01             9588 	.byte	1
000040e3 19             9589 	.byte	25
000040e4 4d454d4d4150   9590 	.strz	"MEMMAP_SW_MINOR_VERSION (11u)"
000040ea 5f53575f4d49 
000040f0 4e4f525f5645 
000040f6 5253494f4e20 
000040fc 283131752900 
00004102 01             9591 	.byte	1
00004103 1a             9592 	.byte	26
00004104 4d454d4d4150   9593 	.strz	"MEMMAP_SW_PATCH_VERSION (0u)"
0000410a 5f53575f5041 
00004110 5443485f5645 
00004116 5253494f4e20 
0000411c 2830752900 
00004121 01             9594 	.byte	1

                                                                      Page 209
                                                              C:\Users\nhuliyap\AppData\Local\Temp\gh_0000da81.s
00004122 20             9595 	.byte	32
00004123 4d454d5f5357   9596 	.strz	"MEM_SW_MAJOR_VERSION MEMMAP_SW_MAJOR_VERSION"
00004129 5f4d414a4f52 
0000412f 5f5645525349 
00004135 4f4e204d454d 
0000413b 4d41505f5357 
00004141 5f4d414a4f52 
00004147 5f5645525349 
0000414d 4f4e00 
00004150 01             9597 	.byte	1
00004151 21             9598 	.byte	33
00004152 4d454d5f5357   9599 	.strz	"MEM_SW_MINOR_VERSION MEMMAP_SW_MINOR_VERSION"
00004158 5f4d494e4f52 
0000415e 5f5645525349 
00004164 4f4e204d454d 
0000416a 4d41505f5357 
00004170 5f4d494e4f52 
00004176 5f5645525349 
0000417c 4f4e00 
0000417f 01             9600 	.byte	1
00004180 22             9601 	.byte	34
00004181 4d454d5f5357   9602 	.strz	"MEM_SW_PATCH_VERSION MEMMAP_SW_PATCH_VERSION"
00004187 5f5041544348 
0000418d 5f5645525349 
00004193 4f4e204d454d 
00004199 4d41505f5357 
0000419f 5f5041544348 
000041a5 5f5645525349 
000041ab 4f4e00 
000041ae 01             9603 	.byte	1
000041af 24             9604 	.byte	36
000041b0 4d454d4d4150   9605 	.strz	"MEMMAP_ERROR "
000041b6 5f4552524f52 
000041bc 2000 
000041be 01             9606 	.byte	1
000041bf e602           9607 	.byte	230,2
000041c1 53544152545f   9608 	.strz	"START_SEC_CODE "
000041c7 5345435f434f 
000041cd 44452000 
000041d1 03             9609 	.byte	3
000041d2 f403           9610 	.byte	244,3
000041d4 12             9611 	.byte	18
000041d5 01             9612 	.byte	1
000041d6 f307           9613 	.byte	243,7
000041d8 434f44455f53   9614 	.strz	"CODE_SEC_OPEN "
000041de 45435f4f5045 
000041e4 4e2000 
000041e7 04             9615 	.byte	4
000041e8 04             9616 	.byte	4
000041e9 04             9617 	.byte	4
000041ea 01             9618 	.byte	1
000041eb 8802           9619 	.byte	136,2
000041ed 525f46444c5f   9620 	.strz	"R_FDL_STOP_SEC_PUBLIC_CODE "
000041f3 53544f505f53 
000041f9 45435f505542 
000041ff 4c49435f434f 
00004205 44452000 
00004209 03             9621 	.byte	3
0000420a 8902           9622 	.byte	137,2
0000420c 1b             9623 	.byte	27
0000420d 01             9624 	.byte	1

                                                                      Page 210
                                                              C:\Users\nhuliyap\AppData\Local\Temp\gh_0000da81.s
0000420e 0f             9625 	.byte	15
0000420f 46444c5f5354   9626 	.strz	"FDL_STOP_SEC_PUBLIC_CODE "
00004215 4f505f534543 
0000421b 5f5055424c49 
00004221 435f434f4445 
00004227 2000 
00004229 03             9627 	.byte	3
0000422a 20             9628 	.byte	32
0000422b 11             9629 	.byte	17
0000422c 01             9630 	.byte	1
0000422d 02             9631 	.byte	2
0000422e 4d454d4d4150   9632 	.strz	"MEMMAP_VENDOR_ID (30u)"
00004234 5f56454e444f 
0000423a 525f49442028 
00004240 3330752900 
00004245 01             9633 	.byte	1
00004246 08             9634 	.byte	8
00004247 4d454d4d4150   9635 	.strz	"MEMMAP_AR_RELEASE_MAJOR_VERSION (4u)"
0000424d 5f41525f5245 
00004253 4c454153455f 
00004259 4d414a4f525f 
0000425f 56455253494f 
00004265 4e2028347529 
0000426b 00 
0000426c 01             9636 	.byte	1
0000426d 09             9637 	.byte	9
0000426e 4d454d4d4150   9638 	.strz	"MEMMAP_AR_RELEASE_MINOR_VERSION (0u)"
00004274 5f41525f5245 
0000427a 4c454153455f 
00004280 4d494e4f525f 
00004286 56455253494f 
0000428c 4e2028307529 
00004292 00 
00004293 01             9639 	.byte	1
00004294 0a             9640 	.byte	10
00004295 4d454d4d4150   9641 	.strz	"MEMMAP_AR_RELEASE_REVISION_VERSION (3u)"
0000429b 5f41525f5245 
000042a1 4c454153455f 
000042a7 524556495349 
000042ad 4f4e5f564552 
000042b3 53494f4e2028 
000042b9 33752900 
000042bd 01             9642 	.byte	1
000042be 10             9643 	.byte	16
000042bf 4d454d5f4152   9644 	.strz	"MEM_AR_RELEASE_MAJOR_VERSION MEMMAP_AR_RELEASE_MAJOR_VERSION"
000042c5 5f52454c4541 
000042cb 53455f4d414a 
000042d1 4f525f564552 
000042d7 53494f4e204d 
000042dd 454d4d41505f 
000042e3 41525f52454c 
000042e9 454153455f4d 
000042ef 414a4f525f56 
000042f5 455253494f4e 
000042fb 00 
000042fc 01             9645 	.byte	1
000042fd 11             9646 	.byte	17
000042fe 4d454d5f4152   9647 	.strz	"MEM_AR_RELEASE_MINOR_VERSION MEMMAP_AR_RELEASE_MINOR_VERSION"
00004304 5f52454c4541 
0000430a 53455f4d494e 
00004310 4f525f564552 

                                                                      Page 211
                                                              C:\Users\nhuliyap\AppData\Local\Temp\gh_0000da81.s
00004316 53494f4e204d 
0000431c 454d4d41505f 
00004322 41525f52454c 
00004328 454153455f4d 
0000432e 494e4f525f56 
00004334 455253494f4e 
0000433a 00 
0000433b 01             9648 	.byte	1
0000433c 12             9649 	.byte	18
0000433d 4d454d5f4152   9650 	.strz	"MEM_AR_RELEASE_PATCH_VERSION MEMMAP_AR_RELEASE_REVISION_VERSION"
00004343 5f52454c4541 
00004349 53455f504154 
0000434f 43485f564552 
00004355 53494f4e204d 
0000435b 454d4d41505f 
00004361 41525f52454c 
00004367 454153455f52 
0000436d 45564953494f 
00004373 4e5f56455253 
00004379 494f4e00 
0000437d 01             9651 	.byte	1
0000437e 18             9652 	.byte	24
0000437f 4d454d4d4150   9653 	.strz	"MEMMAP_SW_MAJOR_VERSION (1u)"
00004385 5f53575f4d41 
0000438b 4a4f525f5645 
00004391 5253494f4e20 
00004397 2831752900 
0000439c 01             9654 	.byte	1
0000439d 19             9655 	.byte	25
0000439e 4d454d4d4150   9656 	.strz	"MEMMAP_SW_MINOR_VERSION (11u)"
000043a4 5f53575f4d49 
000043aa 4e4f525f5645 
000043b0 5253494f4e20 
000043b6 283131752900 
000043bc 01             9657 	.byte	1
000043bd 1a             9658 	.byte	26
000043be 4d454d4d4150   9659 	.strz	"MEMMAP_SW_PATCH_VERSION (0u)"
000043c4 5f53575f5041 
000043ca 5443485f5645 
000043d0 5253494f4e20 
000043d6 2830752900 
000043db 01             9660 	.byte	1
000043dc 20             9661 	.byte	32
000043dd 4d454d5f5357   9662 	.strz	"MEM_SW_MAJOR_VERSION MEMMAP_SW_MAJOR_VERSION"
000043e3 5f4d414a4f52 
000043e9 5f5645525349 
000043ef 4f4e204d454d 
000043f5 4d41505f5357 
000043fb 5f4d414a4f52 
00004401 5f5645525349 
00004407 4f4e00 
0000440a 01             9663 	.byte	1
0000440b 21             9664 	.byte	33
0000440c 4d454d5f5357   9665 	.strz	"MEM_SW_MINOR_VERSION MEMMAP_SW_MINOR_VERSION"
00004412 5f4d494e4f52 
00004418 5f5645525349 
0000441e 4f4e204d454d 
00004424 4d41505f5357 
0000442a 5f4d494e4f52 
00004430 5f5645525349 
00004436 4f4e00 

                                                                      Page 212
                                                              C:\Users\nhuliyap\AppData\Local\Temp\gh_0000da81.s
00004439 01             9666 	.byte	1
0000443a 22             9667 	.byte	34
0000443b 4d454d5f5357   9668 	.strz	"MEM_SW_PATCH_VERSION MEMMAP_SW_PATCH_VERSION"
00004441 5f5041544348 
00004447 5f5645525349 
0000444d 4f4e204d454d 
00004453 4d41505f5357 
00004459 5f5041544348 
0000445f 5f5645525349 
00004465 4f4e00 
00004468 01             9669 	.byte	1
00004469 24             9670 	.byte	36
0000446a 4d454d4d4150   9671 	.strz	"MEMMAP_ERROR "
00004470 5f4552524f52 
00004476 2000 
00004478 01             9672 	.byte	1
00004479 ea02           9673 	.byte	234,2
0000447b 53544f505f53   9674 	.strz	"STOP_SEC_CODE "
00004481 45435f434f44 
00004487 452000 
0000448a 03             9675 	.byte	3
0000448b f403           9676 	.byte	244,3
0000448d 12             9677 	.byte	18
0000448e 04             9678 	.byte	4
0000448f 04             9679 	.byte	4
00004490 04             9680 	.byte	4
00004491 01             9681 	.byte	1
00004492 8b02           9682 	.byte	139,2
00004494 525f46444c5f   9683 	.strz	"R_FDL_START_SEC_PUBLIC_CODE "
0000449a 53544152545f 
000044a0 5345435f5055 
000044a6 424c49435f43 
000044ac 4f44452000 
000044b1 03             9684 	.byte	3
000044b2 8c02           9685 	.byte	140,2
000044b4 1b             9686 	.byte	27
000044b5 01             9687 	.byte	1
000044b6 0c             9688 	.byte	12
000044b7 46444c5f5354   9689 	.strz	"FDL_START_SEC_PUBLIC_CODE "
000044bd 4152545f5345 
000044c3 435f5055424c 
000044c9 49435f434f44 
000044cf 452000 
000044d2 03             9690 	.byte	3
000044d3 20             9691 	.byte	32
000044d4 11             9692 	.byte	17
000044d5 01             9693 	.byte	1
000044d6 02             9694 	.byte	2
000044d7 4d454d4d4150   9695 	.strz	"MEMMAP_VENDOR_ID (30u)"
000044dd 5f56454e444f 
000044e3 525f49442028 
000044e9 3330752900 
000044ee 01             9696 	.byte	1
000044ef 08             9697 	.byte	8
000044f0 4d454d4d4150   9698 	.strz	"MEMMAP_AR_RELEASE_MAJOR_VERSION (4u)"
000044f6 5f41525f5245 
000044fc 4c454153455f 
00004502 4d414a4f525f 
00004508 56455253494f 
0000450e 4e2028347529 
00004514 00 

                                                                      Page 213
                                                              C:\Users\nhuliyap\AppData\Local\Temp\gh_0000da81.s
00004515 01             9699 	.byte	1
00004516 09             9700 	.byte	9
00004517 4d454d4d4150   9701 	.strz	"MEMMAP_AR_RELEASE_MINOR_VERSION (0u)"
0000451d 5f41525f5245 
00004523 4c454153455f 
00004529 4d494e4f525f 
0000452f 56455253494f 
00004535 4e2028307529 
0000453b 00 
0000453c 01             9702 	.byte	1
0000453d 0a             9703 	.byte	10
0000453e 4d454d4d4150   9704 	.strz	"MEMMAP_AR_RELEASE_REVISION_VERSION (3u)"
00004544 5f41525f5245 
0000454a 4c454153455f 
00004550 524556495349 
00004556 4f4e5f564552 
0000455c 53494f4e2028 
00004562 33752900 
00004566 01             9705 	.byte	1
00004567 10             9706 	.byte	16
00004568 4d454d5f4152   9707 	.strz	"MEM_AR_RELEASE_MAJOR_VERSION MEMMAP_AR_RELEASE_MAJOR_VERSION"
0000456e 5f52454c4541 
00004574 53455f4d414a 
0000457a 4f525f564552 
00004580 53494f4e204d 
00004586 454d4d41505f 
0000458c 41525f52454c 
00004592 454153455f4d 
00004598 414a4f525f56 
0000459e 455253494f4e 
000045a4 00 
000045a5 01             9708 	.byte	1
000045a6 11             9709 	.byte	17
000045a7 4d454d5f4152   9710 	.strz	"MEM_AR_RELEASE_MINOR_VERSION MEMMAP_AR_RELEASE_MINOR_VERSION"
000045ad 5f52454c4541 
000045b3 53455f4d494e 
000045b9 4f525f564552 
000045bf 53494f4e204d 
000045c5 454d4d41505f 
000045cb 41525f52454c 
000045d1 454153455f4d 
000045d7 494e4f525f56 
000045dd 455253494f4e 
000045e3 00 
000045e4 01             9711 	.byte	1
000045e5 12             9712 	.byte	18
000045e6 4d454d5f4152   9713 	.strz	"MEM_AR_RELEASE_PATCH_VERSION MEMMAP_AR_RELEASE_REVISION_VERSION"
000045ec 5f52454c4541 
000045f2 53455f504154 
000045f8 43485f564552 
000045fe 53494f4e204d 
00004604 454d4d41505f 
0000460a 41525f52454c 
00004610 454153455f52 
00004616 45564953494f 
0000461c 4e5f56455253 
00004622 494f4e00 
00004626 01             9714 	.byte	1
00004627 18             9715 	.byte	24
00004628 4d454d4d4150   9716 	.strz	"MEMMAP_SW_MAJOR_VERSION (1u)"
0000462e 5f53575f4d41 

                                                                      Page 214
                                                              C:\Users\nhuliyap\AppData\Local\Temp\gh_0000da81.s
00004634 4a4f525f5645 
0000463a 5253494f4e20 
00004640 2831752900 
00004645 01             9717 	.byte	1
00004646 19             9718 	.byte	25
00004647 4d454d4d4150   9719 	.strz	"MEMMAP_SW_MINOR_VERSION (11u)"
0000464d 5f53575f4d49 
00004653 4e4f525f5645 
00004659 5253494f4e20 
0000465f 283131752900 
00004665 01             9720 	.byte	1
00004666 1a             9721 	.byte	26
00004667 4d454d4d4150   9722 	.strz	"MEMMAP_SW_PATCH_VERSION (0u)"
0000466d 5f53575f5041 
00004673 5443485f5645 
00004679 5253494f4e20 
0000467f 2830752900 
00004684 01             9723 	.byte	1
00004685 20             9724 	.byte	32
00004686 4d454d5f5357   9725 	.strz	"MEM_SW_MAJOR_VERSION MEMMAP_SW_MAJOR_VERSION"
0000468c 5f4d414a4f52 
00004692 5f5645525349 
00004698 4f4e204d454d 
0000469e 4d41505f5357 
000046a4 5f4d414a4f52 
000046aa 5f5645525349 
000046b0 4f4e00 
000046b3 01             9726 	.byte	1
000046b4 21             9727 	.byte	33
000046b5 4d454d5f5357   9728 	.strz	"MEM_SW_MINOR_VERSION MEMMAP_SW_MINOR_VERSION"
000046bb 5f4d494e4f52 
000046c1 5f5645525349 
000046c7 4f4e204d454d 
000046cd 4d41505f5357 
000046d3 5f4d494e4f52 
000046d9 5f5645525349 
000046df 4f4e00 
000046e2 01             9729 	.byte	1
000046e3 22             9730 	.byte	34
000046e4 4d454d5f5357   9731 	.strz	"MEM_SW_PATCH_VERSION MEMMAP_SW_PATCH_VERSION"
000046ea 5f5041544348 
000046f0 5f5645525349 
000046f6 4f4e204d454d 
000046fc 4d41505f5357 
00004702 5f5041544348 
00004708 5f5645525349 
0000470e 4f4e00 
00004711 01             9732 	.byte	1
00004712 24             9733 	.byte	36
00004713 4d454d4d4150   9734 	.strz	"MEMMAP_ERROR "
00004719 5f4552524f52 
0000471f 2000 
00004721 01             9735 	.byte	1
00004722 e602           9736 	.byte	230,2
00004724 53544152545f   9737 	.strz	"START_SEC_CODE "
0000472a 5345435f434f 
00004730 44452000 
00004734 03             9738 	.byte	3
00004735 f403           9739 	.byte	244,3
00004737 12             9740 	.byte	18
00004738 01             9741 	.byte	1

                                                                      Page 215
                                                              C:\Users\nhuliyap\AppData\Local\Temp\gh_0000da81.s
00004739 f307           9742 	.byte	243,7
0000473b 434f44455f53   9743 	.strz	"CODE_SEC_OPEN "
00004741 45435f4f5045 
00004747 4e2000 
0000474a 04             9744 	.byte	4
0000474b 04             9745 	.byte	4
0000474c 04             9746 	.byte	4
0000474d 01             9747 	.byte	1
0000474e d302           9748 	.byte	211,2
00004750 525f46444c5f   9749 	.strz	"R_FDL_STOP_SEC_PUBLIC_CODE "
00004756 53544f505f53 
0000475c 45435f505542 
00004762 4c49435f434f 
00004768 44452000 
0000476c 03             9750 	.byte	3
0000476d d402           9751 	.byte	212,2
0000476f 1b             9752 	.byte	27
00004770 01             9753 	.byte	1
00004771 0f             9754 	.byte	15
00004772 46444c5f5354   9755 	.strz	"FDL_STOP_SEC_PUBLIC_CODE "
00004778 4f505f534543 
0000477e 5f5055424c49 
00004784 435f434f4445 
0000478a 2000 
0000478c 03             9756 	.byte	3
0000478d 20             9757 	.byte	32
0000478e 11             9758 	.byte	17
0000478f 01             9759 	.byte	1
00004790 02             9760 	.byte	2
00004791 4d454d4d4150   9761 	.strz	"MEMMAP_VENDOR_ID (30u)"
00004797 5f56454e444f 
0000479d 525f49442028 
000047a3 3330752900 
000047a8 01             9762 	.byte	1
000047a9 08             9763 	.byte	8
000047aa 4d454d4d4150   9764 	.strz	"MEMMAP_AR_RELEASE_MAJOR_VERSION (4u)"
000047b0 5f41525f5245 
000047b6 4c454153455f 
000047bc 4d414a4f525f 
000047c2 56455253494f 
000047c8 4e2028347529 
000047ce 00 
000047cf 01             9765 	.byte	1
000047d0 09             9766 	.byte	9
000047d1 4d454d4d4150   9767 	.strz	"MEMMAP_AR_RELEASE_MINOR_VERSION (0u)"
000047d7 5f41525f5245 
000047dd 4c454153455f 
000047e3 4d494e4f525f 
000047e9 56455253494f 
000047ef 4e2028307529 
000047f5 00 
000047f6 01             9768 	.byte	1
000047f7 0a             9769 	.byte	10
000047f8 4d454d4d4150   9770 	.strz	"MEMMAP_AR_RELEASE_REVISION_VERSION (3u)"
000047fe 5f41525f5245 
00004804 4c454153455f 
0000480a 524556495349 
00004810 4f4e5f564552 
00004816 53494f4e2028 
0000481c 33752900 
00004820 01             9771 	.byte	1

                                                                      Page 216
                                                              C:\Users\nhuliyap\AppData\Local\Temp\gh_0000da81.s
00004821 10             9772 	.byte	16
00004822 4d454d5f4152   9773 	.strz	"MEM_AR_RELEASE_MAJOR_VERSION MEMMAP_AR_RELEASE_MAJOR_VERSION"
00004828 5f52454c4541 
0000482e 53455f4d414a 
00004834 4f525f564552 
0000483a 53494f4e204d 
00004840 454d4d41505f 
00004846 41525f52454c 
0000484c 454153455f4d 
00004852 414a4f525f56 
00004858 455253494f4e 
0000485e 00 
0000485f 01             9774 	.byte	1
00004860 11             9775 	.byte	17
00004861 4d454d5f4152   9776 	.strz	"MEM_AR_RELEASE_MINOR_VERSION MEMMAP_AR_RELEASE_MINOR_VERSION"
00004867 5f52454c4541 
0000486d 53455f4d494e 
00004873 4f525f564552 
00004879 53494f4e204d 
0000487f 454d4d41505f 
00004885 41525f52454c 
0000488b 454153455f4d 
00004891 494e4f525f56 
00004897 455253494f4e 
0000489d 00 
0000489e 01             9777 	.byte	1
0000489f 12             9778 	.byte	18
000048a0 4d454d5f4152   9779 	.strz	"MEM_AR_RELEASE_PATCH_VERSION MEMMAP_AR_RELEASE_REVISION_VERSION"
000048a6 5f52454c4541 
000048ac 53455f504154 
000048b2 43485f564552 
000048b8 53494f4e204d 
000048be 454d4d41505f 
000048c4 41525f52454c 
000048ca 454153455f52 
000048d0 45564953494f 
000048d6 4e5f56455253 
000048dc 494f4e00 
000048e0 01             9780 	.byte	1
000048e1 18             9781 	.byte	24
000048e2 4d454d4d4150   9782 	.strz	"MEMMAP_SW_MAJOR_VERSION (1u)"
000048e8 5f53575f4d41 
000048ee 4a4f525f5645 
000048f4 5253494f4e20 
000048fa 2831752900 
000048ff 01             9783 	.byte	1
00004900 19             9784 	.byte	25
00004901 4d454d4d4150   9785 	.strz	"MEMMAP_SW_MINOR_VERSION (11u)"
00004907 5f53575f4d49 
0000490d 4e4f525f5645 
00004913 5253494f4e20 
00004919 283131752900 
0000491f 01             9786 	.byte	1
00004920 1a             9787 	.byte	26
00004921 4d454d4d4150   9788 	.strz	"MEMMAP_SW_PATCH_VERSION (0u)"
00004927 5f53575f5041 
0000492d 5443485f5645 
00004933 5253494f4e20 
00004939 2830752900 
0000493e 01             9789 	.byte	1
0000493f 20             9790 	.byte	32

                                                                      Page 217
                                                              C:\Users\nhuliyap\AppData\Local\Temp\gh_0000da81.s
00004940 4d454d5f5357   9791 	.strz	"MEM_SW_MAJOR_VERSION MEMMAP_SW_MAJOR_VERSION"
00004946 5f4d414a4f52 
0000494c 5f5645525349 
00004952 4f4e204d454d 
00004958 4d41505f5357 
0000495e 5f4d414a4f52 
00004964 5f5645525349 
0000496a 4f4e00 
0000496d 01             9792 	.byte	1
0000496e 21             9793 	.byte	33
0000496f 4d454d5f5357   9794 	.strz	"MEM_SW_MINOR_VERSION MEMMAP_SW_MINOR_VERSION"
00004975 5f4d494e4f52 
0000497b 5f5645525349 
00004981 4f4e204d454d 
00004987 4d41505f5357 
0000498d 5f4d494e4f52 
00004993 5f5645525349 
00004999 4f4e00 
0000499c 01             9795 	.byte	1
0000499d 22             9796 	.byte	34
0000499e 4d454d5f5357   9797 	.strz	"MEM_SW_PATCH_VERSION MEMMAP_SW_PATCH_VERSION"
000049a4 5f5041544348 
000049aa 5f5645525349 
000049b0 4f4e204d454d 
000049b6 4d41505f5357 
000049bc 5f5041544348 
000049c2 5f5645525349 
000049c8 4f4e00 
000049cb 01             9798 	.byte	1
000049cc 24             9799 	.byte	36
000049cd 4d454d4d4150   9800 	.strz	"MEMMAP_ERROR "
000049d3 5f4552524f52 
000049d9 2000 
000049db 01             9801 	.byte	1
000049dc ea02           9802 	.byte	234,2
000049de 53544f505f53   9803 	.strz	"STOP_SEC_CODE "
000049e4 45435f434f44 
000049ea 452000 
000049ed 03             9804 	.byte	3
000049ee f403           9805 	.byte	244,3
000049f0 12             9806 	.byte	18
000049f1 04             9807 	.byte	4
000049f2 04             9808 	.byte	4
000049f3 04             9809 	.byte	4
000049f4 01             9810 	.byte	1
000049f5 d602           9811 	.byte	214,2
000049f7 525f46444c5f   9812 	.strz	"R_FDL_START_SEC_PUBLIC_CODE "
000049fd 53544152545f 
00004a03 5345435f5055 
00004a09 424c49435f43 
00004a0f 4f44452000 
00004a14 03             9813 	.byte	3
00004a15 d702           9814 	.byte	215,2
00004a17 1b             9815 	.byte	27
00004a18 01             9816 	.byte	1
00004a19 0c             9817 	.byte	12
00004a1a 46444c5f5354   9818 	.strz	"FDL_START_SEC_PUBLIC_CODE "
00004a20 4152545f5345 
00004a26 435f5055424c 
00004a2c 49435f434f44 
00004a32 452000 

                                                                      Page 218
                                                              C:\Users\nhuliyap\AppData\Local\Temp\gh_0000da81.s
00004a35 03             9819 	.byte	3
00004a36 20             9820 	.byte	32
00004a37 11             9821 	.byte	17
00004a38 01             9822 	.byte	1
00004a39 02             9823 	.byte	2
00004a3a 4d454d4d4150   9824 	.strz	"MEMMAP_VENDOR_ID (30u)"
00004a40 5f56454e444f 
00004a46 525f49442028 
00004a4c 3330752900 
00004a51 01             9825 	.byte	1
00004a52 08             9826 	.byte	8
00004a53 4d454d4d4150   9827 	.strz	"MEMMAP_AR_RELEASE_MAJOR_VERSION (4u)"
00004a59 5f41525f5245 
00004a5f 4c454153455f 
00004a65 4d414a4f525f 
00004a6b 56455253494f 
00004a71 4e2028347529 
00004a77 00 
00004a78 01             9828 	.byte	1
00004a79 09             9829 	.byte	9
00004a7a 4d454d4d4150   9830 	.strz	"MEMMAP_AR_RELEASE_MINOR_VERSION (0u)"
00004a80 5f41525f5245 
00004a86 4c454153455f 
00004a8c 4d494e4f525f 
00004a92 56455253494f 
00004a98 4e2028307529 
00004a9e 00 
00004a9f 01             9831 	.byte	1
00004aa0 0a             9832 	.byte	10
00004aa1 4d454d4d4150   9833 	.strz	"MEMMAP_AR_RELEASE_REVISION_VERSION (3u)"
00004aa7 5f41525f5245 
00004aad 4c454153455f 
00004ab3 524556495349 
00004ab9 4f4e5f564552 
00004abf 53494f4e2028 
00004ac5 33752900 
00004ac9 01             9834 	.byte	1
00004aca 10             9835 	.byte	16
00004acb 4d454d5f4152   9836 	.strz	"MEM_AR_RELEASE_MAJOR_VERSION MEMMAP_AR_RELEASE_MAJOR_VERSION"
00004ad1 5f52454c4541 
00004ad7 53455f4d414a 
00004add 4f525f564552 
00004ae3 53494f4e204d 
00004ae9 454d4d41505f 
00004aef 41525f52454c 
00004af5 454153455f4d 
00004afb 414a4f525f56 
00004b01 455253494f4e 
00004b07 00 
00004b08 01             9837 	.byte	1
00004b09 11             9838 	.byte	17
00004b0a 4d454d5f4152   9839 	.strz	"MEM_AR_RELEASE_MINOR_VERSION MEMMAP_AR_RELEASE_MINOR_VERSION"
00004b10 5f52454c4541 
00004b16 53455f4d494e 
00004b1c 4f525f564552 
00004b22 53494f4e204d 
00004b28 454d4d41505f 
00004b2e 41525f52454c 
00004b34 454153455f4d 
00004b3a 494e4f525f56 
00004b40 455253494f4e 

                                                                      Page 219
                                                              C:\Users\nhuliyap\AppData\Local\Temp\gh_0000da81.s
00004b46 00 
00004b47 01             9840 	.byte	1
00004b48 12             9841 	.byte	18
00004b49 4d454d5f4152   9842 	.strz	"MEM_AR_RELEASE_PATCH_VERSION MEMMAP_AR_RELEASE_REVISION_VERSION"
00004b4f 5f52454c4541 
00004b55 53455f504154 
00004b5b 43485f564552 
00004b61 53494f4e204d 
00004b67 454d4d41505f 
00004b6d 41525f52454c 
00004b73 454153455f52 
00004b79 45564953494f 
00004b7f 4e5f56455253 
00004b85 494f4e00 
00004b89 01             9843 	.byte	1
00004b8a 18             9844 	.byte	24
00004b8b 4d454d4d4150   9845 	.strz	"MEMMAP_SW_MAJOR_VERSION (1u)"
00004b91 5f53575f4d41 
00004b97 4a4f525f5645 
00004b9d 5253494f4e20 
00004ba3 2831752900 
00004ba8 01             9846 	.byte	1
00004ba9 19             9847 	.byte	25
00004baa 4d454d4d4150   9848 	.strz	"MEMMAP_SW_MINOR_VERSION (11u)"
00004bb0 5f53575f4d49 
00004bb6 4e4f525f5645 
00004bbc 5253494f4e20 
00004bc2 283131752900 
00004bc8 01             9849 	.byte	1
00004bc9 1a             9850 	.byte	26
00004bca 4d454d4d4150   9851 	.strz	"MEMMAP_SW_PATCH_VERSION (0u)"
00004bd0 5f53575f5041 
00004bd6 5443485f5645 
00004bdc 5253494f4e20 
00004be2 2830752900 
00004be7 01             9852 	.byte	1
00004be8 20             9853 	.byte	32
00004be9 4d454d5f5357   9854 	.strz	"MEM_SW_MAJOR_VERSION MEMMAP_SW_MAJOR_VERSION"
00004bef 5f4d414a4f52 
00004bf5 5f5645525349 
00004bfb 4f4e204d454d 
00004c01 4d41505f5357 
00004c07 5f4d414a4f52 
00004c0d 5f5645525349 
00004c13 4f4e00 
00004c16 01             9855 	.byte	1
00004c17 21             9856 	.byte	33
00004c18 4d454d5f5357   9857 	.strz	"MEM_SW_MINOR_VERSION MEMMAP_SW_MINOR_VERSION"
00004c1e 5f4d494e4f52 
00004c24 5f5645525349 
00004c2a 4f4e204d454d 
00004c30 4d41505f5357 
00004c36 5f4d494e4f52 
00004c3c 5f5645525349 
00004c42 4f4e00 
00004c45 01             9858 	.byte	1
00004c46 22             9859 	.byte	34
00004c47 4d454d5f5357   9860 	.strz	"MEM_SW_PATCH_VERSION MEMMAP_SW_PATCH_VERSION"
00004c4d 5f5041544348 
00004c53 5f5645525349 
00004c59 4f4e204d454d 

                                                                      Page 220
                                                              C:\Users\nhuliyap\AppData\Local\Temp\gh_0000da81.s
00004c5f 4d41505f5357 
00004c65 5f5041544348 
00004c6b 5f5645525349 
00004c71 4f4e00 
00004c74 01             9861 	.byte	1
00004c75 24             9862 	.byte	36
00004c76 4d454d4d4150   9863 	.strz	"MEMMAP_ERROR "
00004c7c 5f4552524f52 
00004c82 2000 
00004c84 01             9864 	.byte	1
00004c85 e602           9865 	.byte	230,2
00004c87 53544152545f   9866 	.strz	"START_SEC_CODE "
00004c8d 5345435f434f 
00004c93 44452000 
00004c97 03             9867 	.byte	3
00004c98 f403           9868 	.byte	244,3
00004c9a 12             9869 	.byte	18
00004c9b 01             9870 	.byte	1
00004c9c f307           9871 	.byte	243,7
00004c9e 434f44455f53   9872 	.strz	"CODE_SEC_OPEN "
00004ca4 45435f4f5045 
00004caa 4e2000 
00004cad 04             9873 	.byte	4
00004cae 04             9874 	.byte	4
00004caf 04             9875 	.byte	4
00004cb0 01             9876 	.byte	1
00004cb1 f602           9877 	.byte	246,2
00004cb3 525f46444c5f   9878 	.strz	"R_FDL_STOP_SEC_PUBLIC_CODE "
00004cb9 53544f505f53 
00004cbf 45435f505542 
00004cc5 4c49435f434f 
00004ccb 44452000 
00004ccf 03             9879 	.byte	3
00004cd0 f702           9880 	.byte	247,2
00004cd2 1b             9881 	.byte	27
00004cd3 01             9882 	.byte	1
00004cd4 0f             9883 	.byte	15
00004cd5 46444c5f5354   9884 	.strz	"FDL_STOP_SEC_PUBLIC_CODE "
00004cdb 4f505f534543 
00004ce1 5f5055424c49 
00004ce7 435f434f4445 
00004ced 2000 
00004cef 03             9885 	.byte	3
00004cf0 20             9886 	.byte	32
00004cf1 11             9887 	.byte	17
00004cf2 01             9888 	.byte	1
00004cf3 02             9889 	.byte	2
00004cf4 4d454d4d4150   9890 	.strz	"MEMMAP_VENDOR_ID (30u)"
00004cfa 5f56454e444f 
00004d00 525f49442028 
00004d06 3330752900 
00004d0b 01             9891 	.byte	1
00004d0c 08             9892 	.byte	8
00004d0d 4d454d4d4150   9893 	.strz	"MEMMAP_AR_RELEASE_MAJOR_VERSION (4u)"
00004d13 5f41525f5245 
00004d19 4c454153455f 
00004d1f 4d414a4f525f 
00004d25 56455253494f 
00004d2b 4e2028347529 
00004d31 00 
00004d32 01             9894 	.byte	1

                                                                      Page 221
                                                              C:\Users\nhuliyap\AppData\Local\Temp\gh_0000da81.s
00004d33 09             9895 	.byte	9
00004d34 4d454d4d4150   9896 	.strz	"MEMMAP_AR_RELEASE_MINOR_VERSION (0u)"
00004d3a 5f41525f5245 
00004d40 4c454153455f 
00004d46 4d494e4f525f 
00004d4c 56455253494f 
00004d52 4e2028307529 
00004d58 00 
00004d59 01             9897 	.byte	1
00004d5a 0a             9898 	.byte	10
00004d5b 4d454d4d4150   9899 	.strz	"MEMMAP_AR_RELEASE_REVISION_VERSION (3u)"
00004d61 5f41525f5245 
00004d67 4c454153455f 
00004d6d 524556495349 
00004d73 4f4e5f564552 
00004d79 53494f4e2028 
00004d7f 33752900 
00004d83 01             9900 	.byte	1
00004d84 10             9901 	.byte	16
00004d85 4d454d5f4152   9902 	.strz	"MEM_AR_RELEASE_MAJOR_VERSION MEMMAP_AR_RELEASE_MAJOR_VERSION"
00004d8b 5f52454c4541 
00004d91 53455f4d414a 
00004d97 4f525f564552 
00004d9d 53494f4e204d 
00004da3 454d4d41505f 
00004da9 41525f52454c 
00004daf 454153455f4d 
00004db5 414a4f525f56 
00004dbb 455253494f4e 
00004dc1 00 
00004dc2 01             9903 	.byte	1
00004dc3 11             9904 	.byte	17
00004dc4 4d454d5f4152   9905 	.strz	"MEM_AR_RELEASE_MINOR_VERSION MEMMAP_AR_RELEASE_MINOR_VERSION"
00004dca 5f52454c4541 
00004dd0 53455f4d494e 
00004dd6 4f525f564552 
00004ddc 53494f4e204d 
00004de2 454d4d41505f 
00004de8 41525f52454c 
00004dee 454153455f4d 
00004df4 494e4f525f56 
00004dfa 455253494f4e 
00004e00 00 
00004e01 01             9906 	.byte	1
00004e02 12             9907 	.byte	18
00004e03 4d454d5f4152   9908 	.strz	"MEM_AR_RELEASE_PATCH_VERSION MEMMAP_AR_RELEASE_REVISION_VERSION"
00004e09 5f52454c4541 
00004e0f 53455f504154 
00004e15 43485f564552 
00004e1b 53494f4e204d 
00004e21 454d4d41505f 
00004e27 41525f52454c 
00004e2d 454153455f52 
00004e33 45564953494f 
00004e39 4e5f56455253 
00004e3f 494f4e00 
00004e43 01             9909 	.byte	1
00004e44 18             9910 	.byte	24
00004e45 4d454d4d4150   9911 	.strz	"MEMMAP_SW_MAJOR_VERSION (1u)"
00004e4b 5f53575f4d41 
00004e51 4a4f525f5645 

                                                                      Page 222
                                                              C:\Users\nhuliyap\AppData\Local\Temp\gh_0000da81.s
00004e57 5253494f4e20 
00004e5d 2831752900 
00004e62 01             9912 	.byte	1
00004e63 19             9913 	.byte	25
00004e64 4d454d4d4150   9914 	.strz	"MEMMAP_SW_MINOR_VERSION (11u)"
00004e6a 5f53575f4d49 
00004e70 4e4f525f5645 
00004e76 5253494f4e20 
00004e7c 283131752900 
00004e82 01             9915 	.byte	1
00004e83 1a             9916 	.byte	26
00004e84 4d454d4d4150   9917 	.strz	"MEMMAP_SW_PATCH_VERSION (0u)"
00004e8a 5f53575f5041 
00004e90 5443485f5645 
00004e96 5253494f4e20 
00004e9c 2830752900 
00004ea1 01             9918 	.byte	1
00004ea2 20             9919 	.byte	32
00004ea3 4d454d5f5357   9920 	.strz	"MEM_SW_MAJOR_VERSION MEMMAP_SW_MAJOR_VERSION"
00004ea9 5f4d414a4f52 
00004eaf 5f5645525349 
00004eb5 4f4e204d454d 
00004ebb 4d41505f5357 
00004ec1 5f4d414a4f52 
00004ec7 5f5645525349 
00004ecd 4f4e00 
00004ed0 01             9921 	.byte	1
00004ed1 21             9922 	.byte	33
00004ed2 4d454d5f5357   9923 	.strz	"MEM_SW_MINOR_VERSION MEMMAP_SW_MINOR_VERSION"
00004ed8 5f4d494e4f52 
00004ede 5f5645525349 
00004ee4 4f4e204d454d 
00004eea 4d41505f5357 
00004ef0 5f4d494e4f52 
00004ef6 5f5645525349 
00004efc 4f4e00 
00004eff 01             9924 	.byte	1
00004f00 22             9925 	.byte	34
00004f01 4d454d5f5357   9926 	.strz	"MEM_SW_PATCH_VERSION MEMMAP_SW_PATCH_VERSION"
00004f07 5f5041544348 
00004f0d 5f5645525349 
00004f13 4f4e204d454d 
00004f19 4d41505f5357 
00004f1f 5f5041544348 
00004f25 5f5645525349 
00004f2b 4f4e00 
00004f2e 01             9927 	.byte	1
00004f2f 24             9928 	.byte	36
00004f30 4d454d4d4150   9929 	.strz	"MEMMAP_ERROR "
00004f36 5f4552524f52 
00004f3c 2000 
00004f3e 01             9930 	.byte	1
00004f3f ea02           9931 	.byte	234,2
00004f41 53544f505f53   9932 	.strz	"STOP_SEC_CODE "
00004f47 45435f434f44 
00004f4d 452000 
00004f50 03             9933 	.byte	3
00004f51 f403           9934 	.byte	244,3
00004f53 12             9935 	.byte	18
00004f54 04             9936 	.byte	4
00004f55 04             9937 	.byte	4

                                                                      Page 223
                                                              C:\Users\nhuliyap\AppData\Local\Temp\gh_0000da81.s
00004f56 04             9938 	.byte	4
00004f57 01             9939 	.byte	1
00004f58 f902           9940 	.byte	249,2
00004f5a 525f46444c5f   9941 	.strz	"R_FDL_START_SEC_PUBLIC_CODE "
00004f60 53544152545f 
00004f66 5345435f5055 
00004f6c 424c49435f43 
00004f72 4f44452000 
00004f77 03             9942 	.byte	3
00004f78 fa02           9943 	.byte	250,2
00004f7a 1b             9944 	.byte	27
00004f7b 01             9945 	.byte	1
00004f7c 0c             9946 	.byte	12
00004f7d 46444c5f5354   9947 	.strz	"FDL_START_SEC_PUBLIC_CODE "
00004f83 4152545f5345 
00004f89 435f5055424c 
00004f8f 49435f434f44 
00004f95 452000 
00004f98 03             9948 	.byte	3
00004f99 20             9949 	.byte	32
00004f9a 11             9950 	.byte	17
00004f9b 01             9951 	.byte	1
00004f9c 02             9952 	.byte	2
00004f9d 4d454d4d4150   9953 	.strz	"MEMMAP_VENDOR_ID (30u)"
00004fa3 5f56454e444f 
00004fa9 525f49442028 
00004faf 3330752900 
00004fb4 01             9954 	.byte	1
00004fb5 08             9955 	.byte	8
00004fb6 4d454d4d4150   9956 	.strz	"MEMMAP_AR_RELEASE_MAJOR_VERSION (4u)"
00004fbc 5f41525f5245 
00004fc2 4c454153455f 
00004fc8 4d414a4f525f 
00004fce 56455253494f 
00004fd4 4e2028347529 
00004fda 00 
00004fdb 01             9957 	.byte	1
00004fdc 09             9958 	.byte	9
00004fdd 4d454d4d4150   9959 	.strz	"MEMMAP_AR_RELEASE_MINOR_VERSION (0u)"
00004fe3 5f41525f5245 
00004fe9 4c454153455f 
00004fef 4d494e4f525f 
00004ff5 56455253494f 
00004ffb 4e2028307529 
00005001 00 
00005002 01             9960 	.byte	1
00005003 0a             9961 	.byte	10
00005004 4d454d4d4150   9962 	.strz	"MEMMAP_AR_RELEASE_REVISION_VERSION (3u)"
0000500a 5f41525f5245 
00005010 4c454153455f 
00005016 524556495349 
0000501c 4f4e5f564552 
00005022 53494f4e2028 
00005028 33752900 
0000502c 01             9963 	.byte	1
0000502d 10             9964 	.byte	16
0000502e 4d454d5f4152   9965 	.strz	"MEM_AR_RELEASE_MAJOR_VERSION MEMMAP_AR_RELEASE_MAJOR_VERSION"
00005034 5f52454c4541 
0000503a 53455f4d414a 
00005040 4f525f564552 
00005046 53494f4e204d 

                                                                      Page 224
                                                              C:\Users\nhuliyap\AppData\Local\Temp\gh_0000da81.s
0000504c 454d4d41505f 
00005052 41525f52454c 
00005058 454153455f4d 
0000505e 414a4f525f56 
00005064 455253494f4e 
0000506a 00 
0000506b 01             9966 	.byte	1
0000506c 11             9967 	.byte	17
0000506d 4d454d5f4152   9968 	.strz	"MEM_AR_RELEASE_MINOR_VERSION MEMMAP_AR_RELEASE_MINOR_VERSION"
00005073 5f52454c4541 
00005079 53455f4d494e 
0000507f 4f525f564552 
00005085 53494f4e204d 
0000508b 454d4d41505f 
00005091 41525f52454c 
00005097 454153455f4d 
0000509d 494e4f525f56 
000050a3 455253494f4e 
000050a9 00 
000050aa 01             9969 	.byte	1
000050ab 12             9970 	.byte	18
000050ac 4d454d5f4152   9971 	.strz	"MEM_AR_RELEASE_PATCH_VERSION MEMMAP_AR_RELEASE_REVISION_VERSION"
000050b2 5f52454c4541 
000050b8 53455f504154 
000050be 43485f564552 
000050c4 53494f4e204d 
000050ca 454d4d41505f 
000050d0 41525f52454c 
000050d6 454153455f52 
000050dc 45564953494f 
000050e2 4e5f56455253 
000050e8 494f4e00 
000050ec 01             9972 	.byte	1
000050ed 18             9973 	.byte	24
000050ee 4d454d4d4150   9974 	.strz	"MEMMAP_SW_MAJOR_VERSION (1u)"
000050f4 5f53575f4d41 
000050fa 4a4f525f5645 
00005100 5253494f4e20 
00005106 2831752900 
0000510b 01             9975 	.byte	1
0000510c 19             9976 	.byte	25
0000510d 4d454d4d4150   9977 	.strz	"MEMMAP_SW_MINOR_VERSION (11u)"
00005113 5f53575f4d49 
00005119 4e4f525f5645 
0000511f 5253494f4e20 
00005125 283131752900 
0000512b 01             9978 	.byte	1
0000512c 1a             9979 	.byte	26
0000512d 4d454d4d4150   9980 	.strz	"MEMMAP_SW_PATCH_VERSION (0u)"
00005133 5f53575f5041 
00005139 5443485f5645 
0000513f 5253494f4e20 
00005145 2830752900 
0000514a 01             9981 	.byte	1
0000514b 20             9982 	.byte	32
0000514c 4d454d5f5357   9983 	.strz	"MEM_SW_MAJOR_VERSION MEMMAP_SW_MAJOR_VERSION"
00005152 5f4d414a4f52 
00005158 5f5645525349 
0000515e 4f4e204d454d 
00005164 4d41505f5357 
0000516a 5f4d414a4f52 

                                                                      Page 225
                                                              C:\Users\nhuliyap\AppData\Local\Temp\gh_0000da81.s
00005170 5f5645525349 
00005176 4f4e00 
00005179 01             9984 	.byte	1
0000517a 21             9985 	.byte	33
0000517b 4d454d5f5357   9986 	.strz	"MEM_SW_MINOR_VERSION MEMMAP_SW_MINOR_VERSION"
00005181 5f4d494e4f52 
00005187 5f5645525349 
0000518d 4f4e204d454d 
00005193 4d41505f5357 
00005199 5f4d494e4f52 
0000519f 5f5645525349 
000051a5 4f4e00 
000051a8 01             9987 	.byte	1
000051a9 22             9988 	.byte	34
000051aa 4d454d5f5357   9989 	.strz	"MEM_SW_PATCH_VERSION MEMMAP_SW_PATCH_VERSION"
000051b0 5f5041544348 
000051b6 5f5645525349 
000051bc 4f4e204d454d 
000051c2 4d41505f5357 
000051c8 5f5041544348 
000051ce 5f5645525349 
000051d4 4f4e00 
000051d7 01             9990 	.byte	1
000051d8 24             9991 	.byte	36
000051d9 4d454d4d4150   9992 	.strz	"MEMMAP_ERROR "
000051df 5f4552524f52 
000051e5 2000 
000051e7 01             9993 	.byte	1
000051e8 e602           9994 	.byte	230,2
000051ea 53544152545f   9995 	.strz	"START_SEC_CODE "
000051f0 5345435f434f 
000051f6 44452000 
000051fa 03             9996 	.byte	3
000051fb f403           9997 	.byte	244,3
000051fd 12             9998 	.byte	18
000051fe 01             9999 	.byte	1
000051ff f307          10000 	.byte	243,7
00005201 434f44455f53  10001 	.strz	"CODE_SEC_OPEN "
00005207 45435f4f5045 
0000520d 4e2000 
00005210 04            10002 	.byte	4
00005211 04            10003 	.byte	4
00005212 04            10004 	.byte	4
00005213 01            10005 	.byte	1
00005214 a903          10006 	.byte	169,3
00005216 525f46444c5f  10007 	.strz	"R_FDL_STOP_SEC_PUBLIC_CODE "
0000521c 53544f505f53 
00005222 45435f505542 
00005228 4c49435f434f 
0000522e 44452000 
00005232 03            10008 	.byte	3
00005233 aa03          10009 	.byte	170,3
00005235 1b            10010 	.byte	27
00005236 01            10011 	.byte	1
00005237 0f            10012 	.byte	15
00005238 46444c5f5354  10013 	.strz	"FDL_STOP_SEC_PUBLIC_CODE "
0000523e 4f505f534543 
00005244 5f5055424c49 
0000524a 435f434f4445 
00005250 2000 
00005252 03            10014 	.byte	3

                                                                      Page 226
                                                              C:\Users\nhuliyap\AppData\Local\Temp\gh_0000da81.s
00005253 20            10015 	.byte	32
00005254 11            10016 	.byte	17
00005255 01            10017 	.byte	1
00005256 02            10018 	.byte	2
00005257 4d454d4d4150  10019 	.strz	"MEMMAP_VENDOR_ID (30u)"
0000525d 5f56454e444f 
00005263 525f49442028 
00005269 3330752900 
0000526e 01            10020 	.byte	1
0000526f 08            10021 	.byte	8
00005270 4d454d4d4150  10022 	.strz	"MEMMAP_AR_RELEASE_MAJOR_VERSION (4u)"
00005276 5f41525f5245 
0000527c 4c454153455f 
00005282 4d414a4f525f 
00005288 56455253494f 
0000528e 4e2028347529 
00005294 00 
00005295 01            10023 	.byte	1
00005296 09            10024 	.byte	9
00005297 4d454d4d4150  10025 	.strz	"MEMMAP_AR_RELEASE_MINOR_VERSION (0u)"
0000529d 5f41525f5245 
000052a3 4c454153455f 
000052a9 4d494e4f525f 
000052af 56455253494f 
000052b5 4e2028307529 
000052bb 00 
000052bc 01            10026 	.byte	1
000052bd 0a            10027 	.byte	10
000052be 4d454d4d4150  10028 	.strz	"MEMMAP_AR_RELEASE_REVISION_VERSION (3u)"
000052c4 5f41525f5245 
000052ca 4c454153455f 
000052d0 524556495349 
000052d6 4f4e5f564552 
000052dc 53494f4e2028 
000052e2 33752900 
000052e6 01            10029 	.byte	1
000052e7 10            10030 	.byte	16
000052e8 4d454d5f4152  10031 	.strz	"MEM_AR_RELEASE_MAJOR_VERSION MEMMAP_AR_RELEASE_MAJOR_VERSION"
000052ee 5f52454c4541 
000052f4 53455f4d414a 
000052fa 4f525f564552 
00005300 53494f4e204d 
00005306 454d4d41505f 
0000530c 41525f52454c 
00005312 454153455f4d 
00005318 414a4f525f56 
0000531e 455253494f4e 
00005324 00 
00005325 01            10032 	.byte	1
00005326 11            10033 	.byte	17
00005327 4d454d5f4152  10034 	.strz	"MEM_AR_RELEASE_MINOR_VERSION MEMMAP_AR_RELEASE_MINOR_VERSION"
0000532d 5f52454c4541 
00005333 53455f4d494e 
00005339 4f525f564552 
0000533f 53494f4e204d 
00005345 454d4d41505f 
0000534b 41525f52454c 
00005351 454153455f4d 
00005357 494e4f525f56 
0000535d 455253494f4e 
00005363 00 

                                                                      Page 227
                                                              C:\Users\nhuliyap\AppData\Local\Temp\gh_0000da81.s
00005364 01            10035 	.byte	1
00005365 12            10036 	.byte	18
00005366 4d454d5f4152  10037 	.strz	"MEM_AR_RELEASE_PATCH_VERSION MEMMAP_AR_RELEASE_REVISION_VERSION"
0000536c 5f52454c4541 
00005372 53455f504154 
00005378 43485f564552 
0000537e 53494f4e204d 
00005384 454d4d41505f 
0000538a 41525f52454c 
00005390 454153455f52 
00005396 45564953494f 
0000539c 4e5f56455253 
000053a2 494f4e00 
000053a6 01            10038 	.byte	1
000053a7 18            10039 	.byte	24
000053a8 4d454d4d4150  10040 	.strz	"MEMMAP_SW_MAJOR_VERSION (1u)"
000053ae 5f53575f4d41 
000053b4 4a4f525f5645 
000053ba 5253494f4e20 
000053c0 2831752900 
000053c5 01            10041 	.byte	1
000053c6 19            10042 	.byte	25
000053c7 4d454d4d4150  10043 	.strz	"MEMMAP_SW_MINOR_VERSION (11u)"
000053cd 5f53575f4d49 
000053d3 4e4f525f5645 
000053d9 5253494f4e20 
000053df 283131752900 
000053e5 01            10044 	.byte	1
000053e6 1a            10045 	.byte	26
000053e7 4d454d4d4150  10046 	.strz	"MEMMAP_SW_PATCH_VERSION (0u)"
000053ed 5f53575f5041 
000053f3 5443485f5645 
000053f9 5253494f4e20 
000053ff 2830752900 
00005404 01            10047 	.byte	1
00005405 20            10048 	.byte	32
00005406 4d454d5f5357  10049 	.strz	"MEM_SW_MAJOR_VERSION MEMMAP_SW_MAJOR_VERSION"
0000540c 5f4d414a4f52 
00005412 5f5645525349 
00005418 4f4e204d454d 
0000541e 4d41505f5357 
00005424 5f4d414a4f52 
0000542a 5f5645525349 
00005430 4f4e00 
00005433 01            10050 	.byte	1
00005434 21            10051 	.byte	33
00005435 4d454d5f5357  10052 	.strz	"MEM_SW_MINOR_VERSION MEMMAP_SW_MINOR_VERSION"
0000543b 5f4d494e4f52 
00005441 5f5645525349 
00005447 4f4e204d454d 
0000544d 4d41505f5357 
00005453 5f4d494e4f52 
00005459 5f5645525349 
0000545f 4f4e00 
00005462 01            10053 	.byte	1
00005463 22            10054 	.byte	34
00005464 4d454d5f5357  10055 	.strz	"MEM_SW_PATCH_VERSION MEMMAP_SW_PATCH_VERSION"
0000546a 5f5041544348 
00005470 5f5645525349 
00005476 4f4e204d454d 
0000547c 4d41505f5357 

                                                                      Page 228
                                                              C:\Users\nhuliyap\AppData\Local\Temp\gh_0000da81.s
00005482 5f5041544348 
00005488 5f5645525349 
0000548e 4f4e00 
00005491 01            10056 	.byte	1
00005492 24            10057 	.byte	36
00005493 4d454d4d4150  10058 	.strz	"MEMMAP_ERROR "
00005499 5f4552524f52 
0000549f 2000 
000054a1 01            10059 	.byte	1
000054a2 ea02          10060 	.byte	234,2
000054a4 53544f505f53  10061 	.strz	"STOP_SEC_CODE "
000054aa 45435f434f44 
000054b0 452000 
000054b3 03            10062 	.byte	3
000054b4 f403          10063 	.byte	244,3
000054b6 12            10064 	.byte	18
000054b7 04            10065 	.byte	4
000054b8 04            10066 	.byte	4
000054b9 04            10067 	.byte	4
000054ba 01            10068 	.byte	1
000054bb ac03          10069 	.byte	172,3
000054bd 525f46444c5f  10070 	.strz	"R_FDL_START_SEC_PUBLIC_CODE "
000054c3 53544152545f 
000054c9 5345435f5055 
000054cf 424c49435f43 
000054d5 4f44452000 
000054da 03            10071 	.byte	3
000054db ad03          10072 	.byte	173,3
000054dd 1b            10073 	.byte	27
000054de 01            10074 	.byte	1
000054df 0c            10075 	.byte	12
000054e0 46444c5f5354  10076 	.strz	"FDL_START_SEC_PUBLIC_CODE "
000054e6 4152545f5345 
000054ec 435f5055424c 
000054f2 49435f434f44 
000054f8 452000 
000054fb 03            10077 	.byte	3
000054fc 20            10078 	.byte	32
000054fd 11            10079 	.byte	17
000054fe 01            10080 	.byte	1
000054ff 02            10081 	.byte	2
00005500 4d454d4d4150  10082 	.strz	"MEMMAP_VENDOR_ID (30u)"
00005506 5f56454e444f 
0000550c 525f49442028 
00005512 3330752900 
00005517 01            10083 	.byte	1
00005518 08            10084 	.byte	8
00005519 4d454d4d4150  10085 	.strz	"MEMMAP_AR_RELEASE_MAJOR_VERSION (4u)"
0000551f 5f41525f5245 
00005525 4c454153455f 
0000552b 4d414a4f525f 
00005531 56455253494f 
00005537 4e2028347529 
0000553d 00 
0000553e 01            10086 	.byte	1
0000553f 09            10087 	.byte	9
00005540 4d454d4d4150  10088 	.strz	"MEMMAP_AR_RELEASE_MINOR_VERSION (0u)"
00005546 5f41525f5245 
0000554c 4c454153455f 
00005552 4d494e4f525f 
00005558 56455253494f 

                                                                      Page 229
                                                              C:\Users\nhuliyap\AppData\Local\Temp\gh_0000da81.s
0000555e 4e2028307529 
00005564 00 
00005565 01            10089 	.byte	1
00005566 0a            10090 	.byte	10
00005567 4d454d4d4150  10091 	.strz	"MEMMAP_AR_RELEASE_REVISION_VERSION (3u)"
0000556d 5f41525f5245 
00005573 4c454153455f 
00005579 524556495349 
0000557f 4f4e5f564552 
00005585 53494f4e2028 
0000558b 33752900 
0000558f 01            10092 	.byte	1
00005590 10            10093 	.byte	16
00005591 4d454d5f4152  10094 	.strz	"MEM_AR_RELEASE_MAJOR_VERSION MEMMAP_AR_RELEASE_MAJOR_VERSION"
00005597 5f52454c4541 
0000559d 53455f4d414a 
000055a3 4f525f564552 
000055a9 53494f4e204d 
000055af 454d4d41505f 
000055b5 41525f52454c 
000055bb 454153455f4d 
000055c1 414a4f525f56 
000055c7 455253494f4e 
000055cd 00 
000055ce 01            10095 	.byte	1
000055cf 11            10096 	.byte	17
000055d0 4d454d5f4152  10097 	.strz	"MEM_AR_RELEASE_MINOR_VERSION MEMMAP_AR_RELEASE_MINOR_VERSION"
000055d6 5f52454c4541 
000055dc 53455f4d494e 
000055e2 4f525f564552 
000055e8 53494f4e204d 
000055ee 454d4d41505f 
000055f4 41525f52454c 
000055fa 454153455f4d 
00005600 494e4f525f56 
00005606 455253494f4e 
0000560c 00 
0000560d 01            10098 	.byte	1
0000560e 12            10099 	.byte	18
0000560f 4d454d5f4152  10100 	.strz	"MEM_AR_RELEASE_PATCH_VERSION MEMMAP_AR_RELEASE_REVISION_VERSION"
00005615 5f52454c4541 
0000561b 53455f504154 
00005621 43485f564552 
00005627 53494f4e204d 
0000562d 454d4d41505f 
00005633 41525f52454c 
00005639 454153455f52 
0000563f 45564953494f 
00005645 4e5f56455253 
0000564b 494f4e00 
0000564f 01            10101 	.byte	1
00005650 18            10102 	.byte	24
00005651 4d454d4d4150  10103 	.strz	"MEMMAP_SW_MAJOR_VERSION (1u)"
00005657 5f53575f4d41 
0000565d 4a4f525f5645 
00005663 5253494f4e20 
00005669 2831752900 
0000566e 01            10104 	.byte	1
0000566f 19            10105 	.byte	25
00005670 4d454d4d4150  10106 	.strz	"MEMMAP_SW_MINOR_VERSION (11u)"
00005676 5f53575f4d49 

                                                                      Page 230
                                                              C:\Users\nhuliyap\AppData\Local\Temp\gh_0000da81.s
0000567c 4e4f525f5645 
00005682 5253494f4e20 
00005688 283131752900 
0000568e 01            10107 	.byte	1
0000568f 1a            10108 	.byte	26
00005690 4d454d4d4150  10109 	.strz	"MEMMAP_SW_PATCH_VERSION (0u)"
00005696 5f53575f5041 
0000569c 5443485f5645 
000056a2 5253494f4e20 
000056a8 2830752900 
000056ad 01            10110 	.byte	1
000056ae 20            10111 	.byte	32
000056af 4d454d5f5357  10112 	.strz	"MEM_SW_MAJOR_VERSION MEMMAP_SW_MAJOR_VERSION"
000056b5 5f4d414a4f52 
000056bb 5f5645525349 
000056c1 4f4e204d454d 
000056c7 4d41505f5357 
000056cd 5f4d414a4f52 
000056d3 5f5645525349 
000056d9 4f4e00 
000056dc 01            10113 	.byte	1
000056dd 21            10114 	.byte	33
000056de 4d454d5f5357  10115 	.strz	"MEM_SW_MINOR_VERSION MEMMAP_SW_MINOR_VERSION"
000056e4 5f4d494e4f52 
000056ea 5f5645525349 
000056f0 4f4e204d454d 
000056f6 4d41505f5357 
000056fc 5f4d494e4f52 
00005702 5f5645525349 
00005708 4f4e00 
0000570b 01            10116 	.byte	1
0000570c 22            10117 	.byte	34
0000570d 4d454d5f5357  10118 	.strz	"MEM_SW_PATCH_VERSION MEMMAP_SW_PATCH_VERSION"
00005713 5f5041544348 
00005719 5f5645525349 
0000571f 4f4e204d454d 
00005725 4d41505f5357 
0000572b 5f5041544348 
00005731 5f5645525349 
00005737 4f4e00 
0000573a 01            10119 	.byte	1
0000573b 24            10120 	.byte	36
0000573c 4d454d4d4150  10121 	.strz	"MEMMAP_ERROR "
00005742 5f4552524f52 
00005748 2000 
0000574a 01            10122 	.byte	1
0000574b e602          10123 	.byte	230,2
0000574d 53544152545f  10124 	.strz	"START_SEC_CODE "
00005753 5345435f434f 
00005759 44452000 
0000575d 03            10125 	.byte	3
0000575e f403          10126 	.byte	244,3
00005760 12            10127 	.byte	18
00005761 01            10128 	.byte	1
00005762 f307          10129 	.byte	243,7
00005764 434f44455f53  10130 	.strz	"CODE_SEC_OPEN "
0000576a 45435f4f5045 
00005770 4e2000 
00005773 04            10131 	.byte	4
00005774 04            10132 	.byte	4
00005775 04            10133 	.byte	4

                                                                      Page 231
                                                              C:\Users\nhuliyap\AppData\Local\Temp\gh_0000da81.s
00005776 01            10134 	.byte	1
00005777 fb03          10135 	.byte	251,3
00005779 525f46444c5f  10136 	.strz	"R_FDL_STOP_SEC_PUBLIC_CODE "
0000577f 53544f505f53 
00005785 45435f505542 
0000578b 4c49435f434f 
00005791 44452000 
00005795 03            10137 	.byte	3
00005796 fc03          10138 	.byte	252,3
00005798 1b            10139 	.byte	27
00005799 01            10140 	.byte	1
0000579a 0f            10141 	.byte	15
0000579b 46444c5f5354  10142 	.strz	"FDL_STOP_SEC_PUBLIC_CODE "
000057a1 4f505f534543 
000057a7 5f5055424c49 
000057ad 435f434f4445 
000057b3 2000 
000057b5 03            10143 	.byte	3
000057b6 20            10144 	.byte	32
000057b7 11            10145 	.byte	17
000057b8 01            10146 	.byte	1
000057b9 02            10147 	.byte	2
000057ba 4d454d4d4150  10148 	.strz	"MEMMAP_VENDOR_ID (30u)"
000057c0 5f56454e444f 
000057c6 525f49442028 
000057cc 3330752900 
000057d1 01            10149 	.byte	1
000057d2 08            10150 	.byte	8
000057d3 4d454d4d4150  10151 	.strz	"MEMMAP_AR_RELEASE_MAJOR_VERSION (4u)"
000057d9 5f41525f5245 
000057df 4c454153455f 
000057e5 4d414a4f525f 
000057eb 56455253494f 
000057f1 4e2028347529 
000057f7 00 
000057f8 01            10152 	.byte	1
000057f9 09            10153 	.byte	9
000057fa 4d454d4d4150  10154 	.strz	"MEMMAP_AR_RELEASE_MINOR_VERSION (0u)"
00005800 5f41525f5245 
00005806 4c454153455f 
0000580c 4d494e4f525f 
00005812 56455253494f 
00005818 4e2028307529 
0000581e 00 
0000581f 01            10155 	.byte	1
00005820 0a            10156 	.byte	10
00005821 4d454d4d4150  10157 	.strz	"MEMMAP_AR_RELEASE_REVISION_VERSION (3u)"
00005827 5f41525f5245 
0000582d 4c454153455f 
00005833 524556495349 
00005839 4f4e5f564552 
0000583f 53494f4e2028 
00005845 33752900 
00005849 01            10158 	.byte	1
0000584a 10            10159 	.byte	16
0000584b 4d454d5f4152  10160 	.strz	"MEM_AR_RELEASE_MAJOR_VERSION MEMMAP_AR_RELEASE_MAJOR_VERSION"
00005851 5f52454c4541 
00005857 53455f4d414a 
0000585d 4f525f564552 
00005863 53494f4e204d 
00005869 454d4d41505f 

                                                                      Page 232
                                                              C:\Users\nhuliyap\AppData\Local\Temp\gh_0000da81.s
0000586f 41525f52454c 
00005875 454153455f4d 
0000587b 414a4f525f56 
00005881 455253494f4e 
00005887 00 
00005888 01            10161 	.byte	1
00005889 11            10162 	.byte	17
0000588a 4d454d5f4152  10163 	.strz	"MEM_AR_RELEASE_MINOR_VERSION MEMMAP_AR_RELEASE_MINOR_VERSION"
00005890 5f52454c4541 
00005896 53455f4d494e 
0000589c 4f525f564552 
000058a2 53494f4e204d 
000058a8 454d4d41505f 
000058ae 41525f52454c 
000058b4 454153455f4d 
000058ba 494e4f525f56 
000058c0 455253494f4e 
000058c6 00 
000058c7 01            10164 	.byte	1
000058c8 12            10165 	.byte	18
000058c9 4d454d5f4152  10166 	.strz	"MEM_AR_RELEASE_PATCH_VERSION MEMMAP_AR_RELEASE_REVISION_VERSION"
000058cf 5f52454c4541 
000058d5 53455f504154 
000058db 43485f564552 
000058e1 53494f4e204d 
000058e7 454d4d41505f 
000058ed 41525f52454c 
000058f3 454153455f52 
000058f9 45564953494f 
000058ff 4e5f56455253 
00005905 494f4e00 
00005909 01            10167 	.byte	1
0000590a 18            10168 	.byte	24
0000590b 4d454d4d4150  10169 	.strz	"MEMMAP_SW_MAJOR_VERSION (1u)"
00005911 5f53575f4d41 
00005917 4a4f525f5645 
0000591d 5253494f4e20 
00005923 2831752900 
00005928 01            10170 	.byte	1
00005929 19            10171 	.byte	25
0000592a 4d454d4d4150  10172 	.strz	"MEMMAP_SW_MINOR_VERSION (11u)"
00005930 5f53575f4d49 
00005936 4e4f525f5645 
0000593c 5253494f4e20 
00005942 283131752900 
00005948 01            10173 	.byte	1
00005949 1a            10174 	.byte	26
0000594a 4d454d4d4150  10175 	.strz	"MEMMAP_SW_PATCH_VERSION (0u)"
00005950 5f53575f5041 
00005956 5443485f5645 
0000595c 5253494f4e20 
00005962 2830752900 
00005967 01            10176 	.byte	1
00005968 20            10177 	.byte	32
00005969 4d454d5f5357  10178 	.strz	"MEM_SW_MAJOR_VERSION MEMMAP_SW_MAJOR_VERSION"
0000596f 5f4d414a4f52 
00005975 5f5645525349 
0000597b 4f4e204d454d 
00005981 4d41505f5357 
00005987 5f4d414a4f52 
0000598d 5f5645525349 

                                                                      Page 233
                                                              C:\Users\nhuliyap\AppData\Local\Temp\gh_0000da81.s
00005993 4f4e00 
00005996 01            10179 	.byte	1
00005997 21            10180 	.byte	33
00005998 4d454d5f5357  10181 	.strz	"MEM_SW_MINOR_VERSION MEMMAP_SW_MINOR_VERSION"
0000599e 5f4d494e4f52 
000059a4 5f5645525349 
000059aa 4f4e204d454d 
000059b0 4d41505f5357 
000059b6 5f4d494e4f52 
000059bc 5f5645525349 
000059c2 4f4e00 
000059c5 01            10182 	.byte	1
000059c6 22            10183 	.byte	34
000059c7 4d454d5f5357  10184 	.strz	"MEM_SW_PATCH_VERSION MEMMAP_SW_PATCH_VERSION"
000059cd 5f5041544348 
000059d3 5f5645525349 
000059d9 4f4e204d454d 
000059df 4d41505f5357 
000059e5 5f5041544348 
000059eb 5f5645525349 
000059f1 4f4e00 
000059f4 01            10185 	.byte	1
000059f5 24            10186 	.byte	36
000059f6 4d454d4d4150  10187 	.strz	"MEMMAP_ERROR "
000059fc 5f4552524f52 
00005a02 2000 
00005a04 01            10188 	.byte	1
00005a05 ea02          10189 	.byte	234,2
00005a07 53544f505f53  10190 	.strz	"STOP_SEC_CODE "
00005a0d 45435f434f44 
00005a13 452000 
00005a16 03            10191 	.byte	3
00005a17 f403          10192 	.byte	244,3
00005a19 12            10193 	.byte	18
00005a1a 04            10194 	.byte	4
00005a1b 04            10195 	.byte	4
00005a1c 04            10196 	.byte	4
00005a1d 01            10197 	.byte	1
00005a1e fe03          10198 	.byte	254,3
00005a20 525f46444c5f  10199 	.strz	"R_FDL_START_SEC_PUBLIC_CODE "
00005a26 53544152545f 
00005a2c 5345435f5055 
00005a32 424c49435f43 
00005a38 4f44452000 
00005a3d 03            10200 	.byte	3
00005a3e ff03          10201 	.byte	255,3
00005a40 1b            10202 	.byte	27
00005a41 01            10203 	.byte	1
00005a42 0c            10204 	.byte	12
00005a43 46444c5f5354  10205 	.strz	"FDL_START_SEC_PUBLIC_CODE "
00005a49 4152545f5345 
00005a4f 435f5055424c 
00005a55 49435f434f44 
00005a5b 452000 
00005a5e 03            10206 	.byte	3
00005a5f 20            10207 	.byte	32
00005a60 11            10208 	.byte	17
00005a61 01            10209 	.byte	1
00005a62 02            10210 	.byte	2
00005a63 4d454d4d4150  10211 	.strz	"MEMMAP_VENDOR_ID (30u)"
00005a69 5f56454e444f 

                                                                      Page 234
                                                              C:\Users\nhuliyap\AppData\Local\Temp\gh_0000da81.s
00005a6f 525f49442028 
00005a75 3330752900 
00005a7a 01            10212 	.byte	1
00005a7b 08            10213 	.byte	8
00005a7c 4d454d4d4150  10214 	.strz	"MEMMAP_AR_RELEASE_MAJOR_VERSION (4u)"
00005a82 5f41525f5245 
00005a88 4c454153455f 
00005a8e 4d414a4f525f 
00005a94 56455253494f 
00005a9a 4e2028347529 
00005aa0 00 
00005aa1 01            10215 	.byte	1
00005aa2 09            10216 	.byte	9
00005aa3 4d454d4d4150  10217 	.strz	"MEMMAP_AR_RELEASE_MINOR_VERSION (0u)"
00005aa9 5f41525f5245 
00005aaf 4c454153455f 
00005ab5 4d494e4f525f 
00005abb 56455253494f 
00005ac1 4e2028307529 
00005ac7 00 
00005ac8 01            10218 	.byte	1
00005ac9 0a            10219 	.byte	10
00005aca 4d454d4d4150  10220 	.strz	"MEMMAP_AR_RELEASE_REVISION_VERSION (3u)"
00005ad0 5f41525f5245 
00005ad6 4c454153455f 
00005adc 524556495349 
00005ae2 4f4e5f564552 
00005ae8 53494f4e2028 
00005aee 33752900 
00005af2 01            10221 	.byte	1
00005af3 10            10222 	.byte	16
00005af4 4d454d5f4152  10223 	.strz	"MEM_AR_RELEASE_MAJOR_VERSION MEMMAP_AR_RELEASE_MAJOR_VERSION"
00005afa 5f52454c4541 
00005b00 53455f4d414a 
00005b06 4f525f564552 
00005b0c 53494f4e204d 
00005b12 454d4d41505f 
00005b18 41525f52454c 
00005b1e 454153455f4d 
00005b24 414a4f525f56 
00005b2a 455253494f4e 
00005b30 00 
00005b31 01            10224 	.byte	1
00005b32 11            10225 	.byte	17
00005b33 4d454d5f4152  10226 	.strz	"MEM_AR_RELEASE_MINOR_VERSION MEMMAP_AR_RELEASE_MINOR_VERSION"
00005b39 5f52454c4541 
00005b3f 53455f4d494e 
00005b45 4f525f564552 
00005b4b 53494f4e204d 
00005b51 454d4d41505f 
00005b57 41525f52454c 
00005b5d 454153455f4d 
00005b63 494e4f525f56 
00005b69 455253494f4e 
00005b6f 00 
00005b70 01            10227 	.byte	1
00005b71 12            10228 	.byte	18
00005b72 4d454d5f4152  10229 	.strz	"MEM_AR_RELEASE_PATCH_VERSION MEMMAP_AR_RELEASE_REVISION_VERSION"
00005b78 5f52454c4541 
00005b7e 53455f504154 
00005b84 43485f564552 

                                                                      Page 235
                                                              C:\Users\nhuliyap\AppData\Local\Temp\gh_0000da81.s
00005b8a 53494f4e204d 
00005b90 454d4d41505f 
00005b96 41525f52454c 
00005b9c 454153455f52 
00005ba2 45564953494f 
00005ba8 4e5f56455253 
00005bae 494f4e00 
00005bb2 01            10230 	.byte	1
00005bb3 18            10231 	.byte	24
00005bb4 4d454d4d4150  10232 	.strz	"MEMMAP_SW_MAJOR_VERSION (1u)"
00005bba 5f53575f4d41 
00005bc0 4a4f525f5645 
00005bc6 5253494f4e20 
00005bcc 2831752900 
00005bd1 01            10233 	.byte	1
00005bd2 19            10234 	.byte	25
00005bd3 4d454d4d4150  10235 	.strz	"MEMMAP_SW_MINOR_VERSION (11u)"
00005bd9 5f53575f4d49 
00005bdf 4e4f525f5645 
00005be5 5253494f4e20 
00005beb 283131752900 
00005bf1 01            10236 	.byte	1
00005bf2 1a            10237 	.byte	26
00005bf3 4d454d4d4150  10238 	.strz	"MEMMAP_SW_PATCH_VERSION (0u)"
00005bf9 5f53575f5041 
00005bff 5443485f5645 
00005c05 5253494f4e20 
00005c0b 2830752900 
00005c10 01            10239 	.byte	1
00005c11 20            10240 	.byte	32
00005c12 4d454d5f5357  10241 	.strz	"MEM_SW_MAJOR_VERSION MEMMAP_SW_MAJOR_VERSION"
00005c18 5f4d414a4f52 
00005c1e 5f5645525349 
00005c24 4f4e204d454d 
00005c2a 4d41505f5357 
00005c30 5f4d414a4f52 
00005c36 5f5645525349 
00005c3c 4f4e00 
00005c3f 01            10242 	.byte	1
00005c40 21            10243 	.byte	33
00005c41 4d454d5f5357  10244 	.strz	"MEM_SW_MINOR_VERSION MEMMAP_SW_MINOR_VERSION"
00005c47 5f4d494e4f52 
00005c4d 5f5645525349 
00005c53 4f4e204d454d 
00005c59 4d41505f5357 
00005c5f 5f4d494e4f52 
00005c65 5f5645525349 
00005c6b 4f4e00 
00005c6e 01            10245 	.byte	1
00005c6f 22            10246 	.byte	34
00005c70 4d454d5f5357  10247 	.strz	"MEM_SW_PATCH_VERSION MEMMAP_SW_PATCH_VERSION"
00005c76 5f5041544348 
00005c7c 5f5645525349 
00005c82 4f4e204d454d 
00005c88 4d41505f5357 
00005c8e 5f5041544348 
00005c94 5f5645525349 
00005c9a 4f4e00 
00005c9d 01            10248 	.byte	1
00005c9e 24            10249 	.byte	36
00005c9f 4d454d4d4150  10250 	.strz	"MEMMAP_ERROR "

                                                                      Page 236
                                                              C:\Users\nhuliyap\AppData\Local\Temp\gh_0000da81.s
00005ca5 5f4552524f52 
00005cab 2000 
00005cad 01            10251 	.byte	1
00005cae e602          10252 	.byte	230,2
00005cb0 53544152545f  10253 	.strz	"START_SEC_CODE "
00005cb6 5345435f434f 
00005cbc 44452000 
00005cc0 03            10254 	.byte	3
00005cc1 f403          10255 	.byte	244,3
00005cc3 12            10256 	.byte	18
00005cc4 01            10257 	.byte	1
00005cc5 f307          10258 	.byte	243,7
00005cc7 434f44455f53  10259 	.strz	"CODE_SEC_OPEN "
00005ccd 45435f4f5045 
00005cd3 4e2000 
00005cd6 04            10260 	.byte	4
00005cd7 04            10261 	.byte	4
00005cd8 04            10262 	.byte	4
00005cd9 01            10263 	.byte	1
00005cda 8b05          10264 	.byte	139,5
00005cdc 525f46444c5f  10265 	.strz	"R_FDL_STOP_SEC_PUBLIC_CODE "
00005ce2 53544f505f53 
00005ce8 45435f505542 
00005cee 4c49435f434f 
00005cf4 44452000 
00005cf8 03            10266 	.byte	3
00005cf9 8c05          10267 	.byte	140,5
00005cfb 1b            10268 	.byte	27
00005cfc 01            10269 	.byte	1
00005cfd 0f            10270 	.byte	15
00005cfe 46444c5f5354  10271 	.strz	"FDL_STOP_SEC_PUBLIC_CODE "
00005d04 4f505f534543 
00005d0a 5f5055424c49 
00005d10 435f434f4445 
00005d16 2000 
00005d18 03            10272 	.byte	3
00005d19 20            10273 	.byte	32
00005d1a 11            10274 	.byte	17
00005d1b 01            10275 	.byte	1
00005d1c 02            10276 	.byte	2
00005d1d 4d454d4d4150  10277 	.strz	"MEMMAP_VENDOR_ID (30u)"
00005d23 5f56454e444f 
00005d29 525f49442028 
00005d2f 3330752900 
00005d34 01            10278 	.byte	1
00005d35 08            10279 	.byte	8
00005d36 4d454d4d4150  10280 	.strz	"MEMMAP_AR_RELEASE_MAJOR_VERSION (4u)"
00005d3c 5f41525f5245 
00005d42 4c454153455f 
00005d48 4d414a4f525f 
00005d4e 56455253494f 
00005d54 4e2028347529 
00005d5a 00 
00005d5b 01            10281 	.byte	1
00005d5c 09            10282 	.byte	9
00005d5d 4d454d4d4150  10283 	.strz	"MEMMAP_AR_RELEASE_MINOR_VERSION (0u)"
00005d63 5f41525f5245 
00005d69 4c454153455f 
00005d6f 4d494e4f525f 
00005d75 56455253494f 
00005d7b 4e2028307529 

                                                                      Page 237
                                                              C:\Users\nhuliyap\AppData\Local\Temp\gh_0000da81.s
00005d81 00 
00005d82 01            10284 	.byte	1
00005d83 0a            10285 	.byte	10
00005d84 4d454d4d4150  10286 	.strz	"MEMMAP_AR_RELEASE_REVISION_VERSION (3u)"
00005d8a 5f41525f5245 
00005d90 4c454153455f 
00005d96 524556495349 
00005d9c 4f4e5f564552 
00005da2 53494f4e2028 
00005da8 33752900 
00005dac 01            10287 	.byte	1
00005dad 10            10288 	.byte	16
00005dae 4d454d5f4152  10289 	.strz	"MEM_AR_RELEASE_MAJOR_VERSION MEMMAP_AR_RELEASE_MAJOR_VERSION"
00005db4 5f52454c4541 
00005dba 53455f4d414a 
00005dc0 4f525f564552 
00005dc6 53494f4e204d 
00005dcc 454d4d41505f 
00005dd2 41525f52454c 
00005dd8 454153455f4d 
00005dde 414a4f525f56 
00005de4 455253494f4e 
00005dea 00 
00005deb 01            10290 	.byte	1
00005dec 11            10291 	.byte	17
00005ded 4d454d5f4152  10292 	.strz	"MEM_AR_RELEASE_MINOR_VERSION MEMMAP_AR_RELEASE_MINOR_VERSION"
00005df3 5f52454c4541 
00005df9 53455f4d494e 
00005dff 4f525f564552 
00005e05 53494f4e204d 
00005e0b 454d4d41505f 
00005e11 41525f52454c 
00005e17 454153455f4d 
00005e1d 494e4f525f56 
00005e23 455253494f4e 
00005e29 00 
00005e2a 01            10293 	.byte	1
00005e2b 12            10294 	.byte	18
00005e2c 4d454d5f4152  10295 	.strz	"MEM_AR_RELEASE_PATCH_VERSION MEMMAP_AR_RELEASE_REVISION_VERSION"
00005e32 5f52454c4541 
00005e38 53455f504154 
00005e3e 43485f564552 
00005e44 53494f4e204d 
00005e4a 454d4d41505f 
00005e50 41525f52454c 
00005e56 454153455f52 
00005e5c 45564953494f 
00005e62 4e5f56455253 
00005e68 494f4e00 
00005e6c 01            10296 	.byte	1
00005e6d 18            10297 	.byte	24
00005e6e 4d454d4d4150  10298 	.strz	"MEMMAP_SW_MAJOR_VERSION (1u)"
00005e74 5f53575f4d41 
00005e7a 4a4f525f5645 
00005e80 5253494f4e20 
00005e86 2831752900 
00005e8b 01            10299 	.byte	1
00005e8c 19            10300 	.byte	25
00005e8d 4d454d4d4150  10301 	.strz	"MEMMAP_SW_MINOR_VERSION (11u)"
00005e93 5f53575f4d49 
00005e99 4e4f525f5645 

                                                                      Page 238
                                                              C:\Users\nhuliyap\AppData\Local\Temp\gh_0000da81.s
00005e9f 5253494f4e20 
00005ea5 283131752900 
00005eab 01            10302 	.byte	1
00005eac 1a            10303 	.byte	26
00005ead 4d454d4d4150  10304 	.strz	"MEMMAP_SW_PATCH_VERSION (0u)"
00005eb3 5f53575f5041 
00005eb9 5443485f5645 
00005ebf 5253494f4e20 
00005ec5 2830752900 
00005eca 01            10305 	.byte	1
00005ecb 20            10306 	.byte	32
00005ecc 4d454d5f5357  10307 	.strz	"MEM_SW_MAJOR_VERSION MEMMAP_SW_MAJOR_VERSION"
00005ed2 5f4d414a4f52 
00005ed8 5f5645525349 
00005ede 4f4e204d454d 
00005ee4 4d41505f5357 
00005eea 5f4d414a4f52 
00005ef0 5f5645525349 
00005ef6 4f4e00 
00005ef9 01            10308 	.byte	1
00005efa 21            10309 	.byte	33
00005efb 4d454d5f5357  10310 	.strz	"MEM_SW_MINOR_VERSION MEMMAP_SW_MINOR_VERSION"
00005f01 5f4d494e4f52 
00005f07 5f5645525349 
00005f0d 4f4e204d454d 
00005f13 4d41505f5357 
00005f19 5f4d494e4f52 
00005f1f 5f5645525349 
00005f25 4f4e00 
00005f28 01            10311 	.byte	1
00005f29 22            10312 	.byte	34
00005f2a 4d454d5f5357  10313 	.strz	"MEM_SW_PATCH_VERSION MEMMAP_SW_PATCH_VERSION"
00005f30 5f5041544348 
00005f36 5f5645525349 
00005f3c 4f4e204d454d 
00005f42 4d41505f5357 
00005f48 5f5041544348 
00005f4e 5f5645525349 
00005f54 4f4e00 
00005f57 01            10314 	.byte	1
00005f58 24            10315 	.byte	36
00005f59 4d454d4d4150  10316 	.strz	"MEMMAP_ERROR "
00005f5f 5f4552524f52 
00005f65 2000 
00005f67 01            10317 	.byte	1
00005f68 ea02          10318 	.byte	234,2
00005f6a 53544f505f53  10319 	.strz	"STOP_SEC_CODE "
00005f70 45435f434f44 
00005f76 452000 
00005f79 03            10320 	.byte	3
00005f7a f403          10321 	.byte	244,3
00005f7c 12            10322 	.byte	18
00005f7d 04            10323 	.byte	4
00005f7e 04            10324 	.byte	4
00005f7f 04            10325 	.byte	4
00005f80 01            10326 	.byte	1
00005f81 8e05          10327 	.byte	142,5
00005f83 525f46444c5f  10328 	.strz	"R_FDL_START_SEC_PUBLIC_CODE "
00005f89 53544152545f 
00005f8f 5345435f5055 
00005f95 424c49435f43 

                                                                      Page 239
                                                              C:\Users\nhuliyap\AppData\Local\Temp\gh_0000da81.s
00005f9b 4f44452000 
00005fa0 03            10329 	.byte	3
00005fa1 8f05          10330 	.byte	143,5
00005fa3 1b            10331 	.byte	27
00005fa4 01            10332 	.byte	1
00005fa5 0c            10333 	.byte	12
00005fa6 46444c5f5354  10334 	.strz	"FDL_START_SEC_PUBLIC_CODE "
00005fac 4152545f5345 
00005fb2 435f5055424c 
00005fb8 49435f434f44 
00005fbe 452000 
00005fc1 03            10335 	.byte	3
00005fc2 20            10336 	.byte	32
00005fc3 11            10337 	.byte	17
00005fc4 01            10338 	.byte	1
00005fc5 02            10339 	.byte	2
00005fc6 4d454d4d4150  10340 	.strz	"MEMMAP_VENDOR_ID (30u)"
00005fcc 5f56454e444f 
00005fd2 525f49442028 
00005fd8 3330752900 
00005fdd 01            10341 	.byte	1
00005fde 08            10342 	.byte	8
00005fdf 4d454d4d4150  10343 	.strz	"MEMMAP_AR_RELEASE_MAJOR_VERSION (4u)"
00005fe5 5f41525f5245 
00005feb 4c454153455f 
00005ff1 4d414a4f525f 
00005ff7 56455253494f 
00005ffd 4e2028347529 
00006003 00 
00006004 01            10344 	.byte	1
00006005 09            10345 	.byte	9
00006006 4d454d4d4150  10346 	.strz	"MEMMAP_AR_RELEASE_MINOR_VERSION (0u)"
0000600c 5f41525f5245 
00006012 4c454153455f 
00006018 4d494e4f525f 
0000601e 56455253494f 
00006024 4e2028307529 
0000602a 00 
0000602b 01            10347 	.byte	1
0000602c 0a            10348 	.byte	10
0000602d 4d454d4d4150  10349 	.strz	"MEMMAP_AR_RELEASE_REVISION_VERSION (3u)"
00006033 5f41525f5245 
00006039 4c454153455f 
0000603f 524556495349 
00006045 4f4e5f564552 
0000604b 53494f4e2028 
00006051 33752900 
00006055 01            10350 	.byte	1
00006056 10            10351 	.byte	16
00006057 4d454d5f4152  10352 	.strz	"MEM_AR_RELEASE_MAJOR_VERSION MEMMAP_AR_RELEASE_MAJOR_VERSION"
0000605d 5f52454c4541 
00006063 53455f4d414a 
00006069 4f525f564552 
0000606f 53494f4e204d 
00006075 454d4d41505f 
0000607b 41525f52454c 
00006081 454153455f4d 
00006087 414a4f525f56 
0000608d 455253494f4e 
00006093 00 
00006094 01            10353 	.byte	1

                                                                      Page 240
                                                              C:\Users\nhuliyap\AppData\Local\Temp\gh_0000da81.s
00006095 11            10354 	.byte	17
00006096 4d454d5f4152  10355 	.strz	"MEM_AR_RELEASE_MINOR_VERSION MEMMAP_AR_RELEASE_MINOR_VERSION"
0000609c 5f52454c4541 
000060a2 53455f4d494e 
000060a8 4f525f564552 
000060ae 53494f4e204d 
000060b4 454d4d41505f 
000060ba 41525f52454c 
000060c0 454153455f4d 
000060c6 494e4f525f56 
000060cc 455253494f4e 
000060d2 00 
000060d3 01            10356 	.byte	1
000060d4 12            10357 	.byte	18
000060d5 4d454d5f4152  10358 	.strz	"MEM_AR_RELEASE_PATCH_VERSION MEMMAP_AR_RELEASE_REVISION_VERSION"
000060db 5f52454c4541 
000060e1 53455f504154 
000060e7 43485f564552 
000060ed 53494f4e204d 
000060f3 454d4d41505f 
000060f9 41525f52454c 
000060ff 454153455f52 
00006105 45564953494f 
0000610b 4e5f56455253 
00006111 494f4e00 
00006115 01            10359 	.byte	1
00006116 18            10360 	.byte	24
00006117 4d454d4d4150  10361 	.strz	"MEMMAP_SW_MAJOR_VERSION (1u)"
0000611d 5f53575f4d41 
00006123 4a4f525f5645 
00006129 5253494f4e20 
0000612f 2831752900 
00006134 01            10362 	.byte	1
00006135 19            10363 	.byte	25
00006136 4d454d4d4150  10364 	.strz	"MEMMAP_SW_MINOR_VERSION (11u)"
0000613c 5f53575f4d49 
00006142 4e4f525f5645 
00006148 5253494f4e20 
0000614e 283131752900 
00006154 01            10365 	.byte	1
00006155 1a            10366 	.byte	26
00006156 4d454d4d4150  10367 	.strz	"MEMMAP_SW_PATCH_VERSION (0u)"
0000615c 5f53575f5041 
00006162 5443485f5645 
00006168 5253494f4e20 
0000616e 2830752900 
00006173 01            10368 	.byte	1
00006174 20            10369 	.byte	32
00006175 4d454d5f5357  10370 	.strz	"MEM_SW_MAJOR_VERSION MEMMAP_SW_MAJOR_VERSION"
0000617b 5f4d414a4f52 
00006181 5f5645525349 
00006187 4f4e204d454d 
0000618d 4d41505f5357 
00006193 5f4d414a4f52 
00006199 5f5645525349 
0000619f 4f4e00 
000061a2 01            10371 	.byte	1
000061a3 21            10372 	.byte	33
000061a4 4d454d5f5357  10373 	.strz	"MEM_SW_MINOR_VERSION MEMMAP_SW_MINOR_VERSION"
000061aa 5f4d494e4f52 
000061b0 5f5645525349 

                                                                      Page 241
                                                              C:\Users\nhuliyap\AppData\Local\Temp\gh_0000da81.s
000061b6 4f4e204d454d 
000061bc 4d41505f5357 
000061c2 5f4d494e4f52 
000061c8 5f5645525349 
000061ce 4f4e00 
000061d1 01            10374 	.byte	1
000061d2 22            10375 	.byte	34
000061d3 4d454d5f5357  10376 	.strz	"MEM_SW_PATCH_VERSION MEMMAP_SW_PATCH_VERSION"
000061d9 5f5041544348 
000061df 5f5645525349 
000061e5 4f4e204d454d 
000061eb 4d41505f5357 
000061f1 5f5041544348 
000061f7 5f5645525349 
000061fd 4f4e00 
00006200 01            10377 	.byte	1
00006201 24            10378 	.byte	36
00006202 4d454d4d4150  10379 	.strz	"MEMMAP_ERROR "
00006208 5f4552524f52 
0000620e 2000 
00006210 01            10380 	.byte	1
00006211 e602          10381 	.byte	230,2
00006213 53544152545f  10382 	.strz	"START_SEC_CODE "
00006219 5345435f434f 
0000621f 44452000 
00006223 03            10383 	.byte	3
00006224 f403          10384 	.byte	244,3
00006226 12            10385 	.byte	18
00006227 01            10386 	.byte	1
00006228 f307          10387 	.byte	243,7
0000622a 434f44455f53  10388 	.strz	"CODE_SEC_OPEN "
00006230 45435f4f5045 
00006236 4e2000 
00006239 04            10389 	.byte	4
0000623a 04            10390 	.byte	4
0000623b 04            10391 	.byte	4
0000623c 01            10392 	.byte	1
0000623d da05          10393 	.byte	218,5
0000623f 525f46444c5f  10394 	.strz	"R_FDL_STOP_SEC_PUBLIC_CODE "
00006245 53544f505f53 
0000624b 45435f505542 
00006251 4c49435f434f 
00006257 44452000 
0000625b 03            10395 	.byte	3
0000625c db05          10396 	.byte	219,5
0000625e 1b            10397 	.byte	27
0000625f 01            10398 	.byte	1
00006260 0f            10399 	.byte	15
00006261 46444c5f5354  10400 	.strz	"FDL_STOP_SEC_PUBLIC_CODE "
00006267 4f505f534543 
0000626d 5f5055424c49 
00006273 435f434f4445 
00006279 2000 
0000627b 03            10401 	.byte	3
0000627c 20            10402 	.byte	32
0000627d 11            10403 	.byte	17
0000627e 01            10404 	.byte	1
0000627f 02            10405 	.byte	2
00006280 4d454d4d4150  10406 	.strz	"MEMMAP_VENDOR_ID (30u)"
00006286 5f56454e444f 
0000628c 525f49442028 

                                                                      Page 242
                                                              C:\Users\nhuliyap\AppData\Local\Temp\gh_0000da81.s
00006292 3330752900 
00006297 01            10407 	.byte	1
00006298 08            10408 	.byte	8
00006299 4d454d4d4150  10409 	.strz	"MEMMAP_AR_RELEASE_MAJOR_VERSION (4u)"
0000629f 5f41525f5245 
000062a5 4c454153455f 
000062ab 4d414a4f525f 
000062b1 56455253494f 
000062b7 4e2028347529 
000062bd 00 
000062be 01            10410 	.byte	1
000062bf 09            10411 	.byte	9
000062c0 4d454d4d4150  10412 	.strz	"MEMMAP_AR_RELEASE_MINOR_VERSION (0u)"
000062c6 5f41525f5245 
000062cc 4c454153455f 
000062d2 4d494e4f525f 
000062d8 56455253494f 
000062de 4e2028307529 
000062e4 00 
000062e5 01            10413 	.byte	1
000062e6 0a            10414 	.byte	10
000062e7 4d454d4d4150  10415 	.strz	"MEMMAP_AR_RELEASE_REVISION_VERSION (3u)"
000062ed 5f41525f5245 
000062f3 4c454153455f 
000062f9 524556495349 
000062ff 4f4e5f564552 
00006305 53494f4e2028 
0000630b 33752900 
0000630f 01            10416 	.byte	1
00006310 10            10417 	.byte	16
00006311 4d454d5f4152  10418 	.strz	"MEM_AR_RELEASE_MAJOR_VERSION MEMMAP_AR_RELEASE_MAJOR_VERSION"
00006317 5f52454c4541 
0000631d 53455f4d414a 
00006323 4f525f564552 
00006329 53494f4e204d 
0000632f 454d4d41505f 
00006335 41525f52454c 
0000633b 454153455f4d 
00006341 414a4f525f56 
00006347 455253494f4e 
0000634d 00 
0000634e 01            10419 	.byte	1
0000634f 11            10420 	.byte	17
00006350 4d454d5f4152  10421 	.strz	"MEM_AR_RELEASE_MINOR_VERSION MEMMAP_AR_RELEASE_MINOR_VERSION"
00006356 5f52454c4541 
0000635c 53455f4d494e 
00006362 4f525f564552 
00006368 53494f4e204d 
0000636e 454d4d41505f 
00006374 41525f52454c 
0000637a 454153455f4d 
00006380 494e4f525f56 
00006386 455253494f4e 
0000638c 00 
0000638d 01            10422 	.byte	1
0000638e 12            10423 	.byte	18
0000638f 4d454d5f4152  10424 	.strz	"MEM_AR_RELEASE_PATCH_VERSION MEMMAP_AR_RELEASE_REVISION_VERSION"
00006395 5f52454c4541 
0000639b 53455f504154 
000063a1 43485f564552 
000063a7 53494f4e204d 

                                                                      Page 243
                                                              C:\Users\nhuliyap\AppData\Local\Temp\gh_0000da81.s
000063ad 454d4d41505f 
000063b3 41525f52454c 
000063b9 454153455f52 
000063bf 45564953494f 
000063c5 4e5f56455253 
000063cb 494f4e00 
000063cf 01            10425 	.byte	1
000063d0 18            10426 	.byte	24
000063d1 4d454d4d4150  10427 	.strz	"MEMMAP_SW_MAJOR_VERSION (1u)"
000063d7 5f53575f4d41 
000063dd 4a4f525f5645 
000063e3 5253494f4e20 
000063e9 2831752900 
000063ee 01            10428 	.byte	1
000063ef 19            10429 	.byte	25
000063f0 4d454d4d4150  10430 	.strz	"MEMMAP_SW_MINOR_VERSION (11u)"
000063f6 5f53575f4d49 
000063fc 4e4f525f5645 
00006402 5253494f4e20 
00006408 283131752900 
0000640e 01            10431 	.byte	1
0000640f 1a            10432 	.byte	26
00006410 4d454d4d4150  10433 	.strz	"MEMMAP_SW_PATCH_VERSION (0u)"
00006416 5f53575f5041 
0000641c 5443485f5645 
00006422 5253494f4e20 
00006428 2830752900 
0000642d 01            10434 	.byte	1
0000642e 20            10435 	.byte	32
0000642f 4d454d5f5357  10436 	.strz	"MEM_SW_MAJOR_VERSION MEMMAP_SW_MAJOR_VERSION"
00006435 5f4d414a4f52 
0000643b 5f5645525349 
00006441 4f4e204d454d 
00006447 4d41505f5357 
0000644d 5f4d414a4f52 
00006453 5f5645525349 
00006459 4f4e00 
0000645c 01            10437 	.byte	1
0000645d 21            10438 	.byte	33
0000645e 4d454d5f5357  10439 	.strz	"MEM_SW_MINOR_VERSION MEMMAP_SW_MINOR_VERSION"
00006464 5f4d494e4f52 
0000646a 5f5645525349 
00006470 4f4e204d454d 
00006476 4d41505f5357 
0000647c 5f4d494e4f52 
00006482 5f5645525349 
00006488 4f4e00 
0000648b 01            10440 	.byte	1
0000648c 22            10441 	.byte	34
0000648d 4d454d5f5357  10442 	.strz	"MEM_SW_PATCH_VERSION MEMMAP_SW_PATCH_VERSION"
00006493 5f5041544348 
00006499 5f5645525349 
0000649f 4f4e204d454d 
000064a5 4d41505f5357 
000064ab 5f5041544348 
000064b1 5f5645525349 
000064b7 4f4e00 
000064ba 01            10443 	.byte	1
000064bb 24            10444 	.byte	36
000064bc 4d454d4d4150  10445 	.strz	"MEMMAP_ERROR "
000064c2 5f4552524f52 

                                                                      Page 244
                                                              C:\Users\nhuliyap\AppData\Local\Temp\gh_0000da81.s
000064c8 2000 
000064ca 01            10446 	.byte	1
000064cb ea02          10447 	.byte	234,2
000064cd 53544f505f53  10448 	.strz	"STOP_SEC_CODE "
000064d3 45435f434f44 
000064d9 452000 
000064dc 03            10449 	.byte	3
000064dd f403          10450 	.byte	244,3
000064df 12            10451 	.byte	18
000064e0 04            10452 	.byte	4
000064e1 04            10453 	.byte	4
000064e2 04            10454 	.byte	4
000064e3 01            10455 	.byte	1
000064e4 df05          10456 	.byte	223,5
000064e6 525f46444c5f  10457 	.strz	"R_FDL_START_SEC_PUBLIC_CODE "
000064ec 53544152545f 
000064f2 5345435f5055 
000064f8 424c49435f43 
000064fe 4f44452000 
00006503 03            10458 	.byte	3
00006504 e005          10459 	.byte	224,5
00006506 1b            10460 	.byte	27
00006507 01            10461 	.byte	1
00006508 0c            10462 	.byte	12
00006509 46444c5f5354  10463 	.strz	"FDL_START_SEC_PUBLIC_CODE "
0000650f 4152545f5345 
00006515 435f5055424c 
0000651b 49435f434f44 
00006521 452000 
00006524 03            10464 	.byte	3
00006525 20            10465 	.byte	32
00006526 11            10466 	.byte	17
00006527 01            10467 	.byte	1
00006528 02            10468 	.byte	2
00006529 4d454d4d4150  10469 	.strz	"MEMMAP_VENDOR_ID (30u)"
0000652f 5f56454e444f 
00006535 525f49442028 
0000653b 3330752900 
00006540 01            10470 	.byte	1
00006541 08            10471 	.byte	8
00006542 4d454d4d4150  10472 	.strz	"MEMMAP_AR_RELEASE_MAJOR_VERSION (4u)"
00006548 5f41525f5245 
0000654e 4c454153455f 
00006554 4d414a4f525f 
0000655a 56455253494f 
00006560 4e2028347529 
00006566 00 
00006567 01            10473 	.byte	1
00006568 09            10474 	.byte	9
00006569 4d454d4d4150  10475 	.strz	"MEMMAP_AR_RELEASE_MINOR_VERSION (0u)"
0000656f 5f41525f5245 
00006575 4c454153455f 
0000657b 4d494e4f525f 
00006581 56455253494f 
00006587 4e2028307529 
0000658d 00 
0000658e 01            10476 	.byte	1
0000658f 0a            10477 	.byte	10
00006590 4d454d4d4150  10478 	.strz	"MEMMAP_AR_RELEASE_REVISION_VERSION (3u)"
00006596 5f41525f5245 
0000659c 4c454153455f 

                                                                      Page 245
                                                              C:\Users\nhuliyap\AppData\Local\Temp\gh_0000da81.s
000065a2 524556495349 
000065a8 4f4e5f564552 
000065ae 53494f4e2028 
000065b4 33752900 
000065b8 01            10479 	.byte	1
000065b9 10            10480 	.byte	16
000065ba 4d454d5f4152  10481 	.strz	"MEM_AR_RELEASE_MAJOR_VERSION MEMMAP_AR_RELEASE_MAJOR_VERSION"
000065c0 5f52454c4541 
000065c6 53455f4d414a 
000065cc 4f525f564552 
000065d2 53494f4e204d 
000065d8 454d4d41505f 
000065de 41525f52454c 
000065e4 454153455f4d 
000065ea 414a4f525f56 
000065f0 455253494f4e 
000065f6 00 
000065f7 01            10482 	.byte	1
000065f8 11            10483 	.byte	17
000065f9 4d454d5f4152  10484 	.strz	"MEM_AR_RELEASE_MINOR_VERSION MEMMAP_AR_RELEASE_MINOR_VERSION"
000065ff 5f52454c4541 
00006605 53455f4d494e 
0000660b 4f525f564552 
00006611 53494f4e204d 
00006617 454d4d41505f 
0000661d 41525f52454c 
00006623 454153455f4d 
00006629 494e4f525f56 
0000662f 455253494f4e 
00006635 00 
00006636 01            10485 	.byte	1
00006637 12            10486 	.byte	18
00006638 4d454d5f4152  10487 	.strz	"MEM_AR_RELEASE_PATCH_VERSION MEMMAP_AR_RELEASE_REVISION_VERSION"
0000663e 5f52454c4541 
00006644 53455f504154 
0000664a 43485f564552 
00006650 53494f4e204d 
00006656 454d4d41505f 
0000665c 41525f52454c 
00006662 454153455f52 
00006668 45564953494f 
0000666e 4e5f56455253 
00006674 494f4e00 
00006678 01            10488 	.byte	1
00006679 18            10489 	.byte	24
0000667a 4d454d4d4150  10490 	.strz	"MEMMAP_SW_MAJOR_VERSION (1u)"
00006680 5f53575f4d41 
00006686 4a4f525f5645 
0000668c 5253494f4e20 
00006692 2831752900 
00006697 01            10491 	.byte	1
00006698 19            10492 	.byte	25
00006699 4d454d4d4150  10493 	.strz	"MEMMAP_SW_MINOR_VERSION (11u)"
0000669f 5f53575f4d49 
000066a5 4e4f525f5645 
000066ab 5253494f4e20 
000066b1 283131752900 
000066b7 01            10494 	.byte	1
000066b8 1a            10495 	.byte	26
000066b9 4d454d4d4150  10496 	.strz	"MEMMAP_SW_PATCH_VERSION (0u)"
000066bf 5f53575f5041 

                                                                      Page 246
                                                              C:\Users\nhuliyap\AppData\Local\Temp\gh_0000da81.s
000066c5 5443485f5645 
000066cb 5253494f4e20 
000066d1 2830752900 
000066d6 01            10497 	.byte	1
000066d7 20            10498 	.byte	32
000066d8 4d454d5f5357  10499 	.strz	"MEM_SW_MAJOR_VERSION MEMMAP_SW_MAJOR_VERSION"
000066de 5f4d414a4f52 
000066e4 5f5645525349 
000066ea 4f4e204d454d 
000066f0 4d41505f5357 
000066f6 5f4d414a4f52 
000066fc 5f5645525349 
00006702 4f4e00 
00006705 01            10500 	.byte	1
00006706 21            10501 	.byte	33
00006707 4d454d5f5357  10502 	.strz	"MEM_SW_MINOR_VERSION MEMMAP_SW_MINOR_VERSION"
0000670d 5f4d494e4f52 
00006713 5f5645525349 
00006719 4f4e204d454d 
0000671f 4d41505f5357 
00006725 5f4d494e4f52 
0000672b 5f5645525349 
00006731 4f4e00 
00006734 01            10503 	.byte	1
00006735 22            10504 	.byte	34
00006736 4d454d5f5357  10505 	.strz	"MEM_SW_PATCH_VERSION MEMMAP_SW_PATCH_VERSION"
0000673c 5f5041544348 
00006742 5f5645525349 
00006748 4f4e204d454d 
0000674e 4d41505f5357 
00006754 5f5041544348 
0000675a 5f5645525349 
00006760 4f4e00 
00006763 01            10506 	.byte	1
00006764 24            10507 	.byte	36
00006765 4d454d4d4150  10508 	.strz	"MEMMAP_ERROR "
0000676b 5f4552524f52 
00006771 2000 
00006773 01            10509 	.byte	1
00006774 e602          10510 	.byte	230,2
00006776 53544152545f  10511 	.strz	"START_SEC_CODE "
0000677c 5345435f434f 
00006782 44452000 
00006786 03            10512 	.byte	3
00006787 f403          10513 	.byte	244,3
00006789 12            10514 	.byte	18
0000678a 01            10515 	.byte	1
0000678b f307          10516 	.byte	243,7
0000678d 434f44455f53  10517 	.strz	"CODE_SEC_OPEN "
00006793 45435f4f5045 
00006799 4e2000 
0000679c 04            10518 	.byte	4
0000679d 04            10519 	.byte	4
0000679e 04            10520 	.byte	4
0000679f 01            10521 	.byte	1
000067a0 e605          10522 	.byte	230,5
000067a2 525f46444c5f  10523 	.strz	"R_FDL_STOP_SEC_PUBLIC_CODE "
000067a8 53544f505f53 
000067ae 45435f505542 
000067b4 4c49435f434f 
000067ba 44452000 

                                                                      Page 247
                                                              C:\Users\nhuliyap\AppData\Local\Temp\gh_0000da81.s
000067be 03            10524 	.byte	3
000067bf e705          10525 	.byte	231,5
000067c1 1b            10526 	.byte	27
000067c2 01            10527 	.byte	1
000067c3 0f            10528 	.byte	15
000067c4 46444c5f5354  10529 	.strz	"FDL_STOP_SEC_PUBLIC_CODE "
000067ca 4f505f534543 
000067d0 5f5055424c49 
000067d6 435f434f4445 
000067dc 2000 
000067de 03            10530 	.byte	3
000067df 20            10531 	.byte	32
000067e0 11            10532 	.byte	17
000067e1 01            10533 	.byte	1
000067e2 02            10534 	.byte	2
000067e3 4d454d4d4150  10535 	.strz	"MEMMAP_VENDOR_ID (30u)"
000067e9 5f56454e444f 
000067ef 525f49442028 
000067f5 3330752900 
000067fa 01            10536 	.byte	1
000067fb 08            10537 	.byte	8
000067fc 4d454d4d4150  10538 	.strz	"MEMMAP_AR_RELEASE_MAJOR_VERSION (4u)"
00006802 5f41525f5245 
00006808 4c454153455f 
0000680e 4d414a4f525f 
00006814 56455253494f 
0000681a 4e2028347529 
00006820 00 
00006821 01            10539 	.byte	1
00006822 09            10540 	.byte	9
00006823 4d454d4d4150  10541 	.strz	"MEMMAP_AR_RELEASE_MINOR_VERSION (0u)"
00006829 5f41525f5245 
0000682f 4c454153455f 
00006835 4d494e4f525f 
0000683b 56455253494f 
00006841 4e2028307529 
00006847 00 
00006848 01            10542 	.byte	1
00006849 0a            10543 	.byte	10
0000684a 4d454d4d4150  10544 	.strz	"MEMMAP_AR_RELEASE_REVISION_VERSION (3u)"
00006850 5f41525f5245 
00006856 4c454153455f 
0000685c 524556495349 
00006862 4f4e5f564552 
00006868 53494f4e2028 
0000686e 33752900 
00006872 01            10545 	.byte	1
00006873 10            10546 	.byte	16
00006874 4d454d5f4152  10547 	.strz	"MEM_AR_RELEASE_MAJOR_VERSION MEMMAP_AR_RELEASE_MAJOR_VERSION"
0000687a 5f52454c4541 
00006880 53455f4d414a 
00006886 4f525f564552 
0000688c 53494f4e204d 
00006892 454d4d41505f 
00006898 41525f52454c 
0000689e 454153455f4d 
000068a4 414a4f525f56 
000068aa 455253494f4e 
000068b0 00 
000068b1 01            10548 	.byte	1
000068b2 11            10549 	.byte	17

                                                                      Page 248
                                                              C:\Users\nhuliyap\AppData\Local\Temp\gh_0000da81.s
000068b3 4d454d5f4152  10550 	.strz	"MEM_AR_RELEASE_MINOR_VERSION MEMMAP_AR_RELEASE_MINOR_VERSION"
000068b9 5f52454c4541 
000068bf 53455f4d494e 
000068c5 4f525f564552 
000068cb 53494f4e204d 
000068d1 454d4d41505f 
000068d7 41525f52454c 
000068dd 454153455f4d 
000068e3 494e4f525f56 
000068e9 455253494f4e 
000068ef 00 
000068f0 01            10551 	.byte	1
000068f1 12            10552 	.byte	18
000068f2 4d454d5f4152  10553 	.strz	"MEM_AR_RELEASE_PATCH_VERSION MEMMAP_AR_RELEASE_REVISION_VERSION"
000068f8 5f52454c4541 
000068fe 53455f504154 
00006904 43485f564552 
0000690a 53494f4e204d 
00006910 454d4d41505f 
00006916 41525f52454c 
0000691c 454153455f52 
00006922 45564953494f 
00006928 4e5f56455253 
0000692e 494f4e00 
00006932 01            10554 	.byte	1
00006933 18            10555 	.byte	24
00006934 4d454d4d4150  10556 	.strz	"MEMMAP_SW_MAJOR_VERSION (1u)"
0000693a 5f53575f4d41 
00006940 4a4f525f5645 
00006946 5253494f4e20 
0000694c 2831752900 
00006951 01            10557 	.byte	1
00006952 19            10558 	.byte	25
00006953 4d454d4d4150  10559 	.strz	"MEMMAP_SW_MINOR_VERSION (11u)"
00006959 5f53575f4d49 
0000695f 4e4f525f5645 
00006965 5253494f4e20 
0000696b 283131752900 
00006971 01            10560 	.byte	1
00006972 1a            10561 	.byte	26
00006973 4d454d4d4150  10562 	.strz	"MEMMAP_SW_PATCH_VERSION (0u)"
00006979 5f53575f5041 
0000697f 5443485f5645 
00006985 5253494f4e20 
0000698b 2830752900 
00006990 01            10563 	.byte	1
00006991 20            10564 	.byte	32
00006992 4d454d5f5357  10565 	.strz	"MEM_SW_MAJOR_VERSION MEMMAP_SW_MAJOR_VERSION"
00006998 5f4d414a4f52 
0000699e 5f5645525349 
000069a4 4f4e204d454d 
000069aa 4d41505f5357 
000069b0 5f4d414a4f52 
000069b6 5f5645525349 
000069bc 4f4e00 
000069bf 01            10566 	.byte	1
000069c0 21            10567 	.byte	33
000069c1 4d454d5f5357  10568 	.strz	"MEM_SW_MINOR_VERSION MEMMAP_SW_MINOR_VERSION"
000069c7 5f4d494e4f52 
000069cd 5f5645525349 
000069d3 4f4e204d454d 

                                                                      Page 249
                                                              C:\Users\nhuliyap\AppData\Local\Temp\gh_0000da81.s
000069d9 4d41505f5357 
000069df 5f4d494e4f52 
000069e5 5f5645525349 
000069eb 4f4e00 
000069ee 01            10569 	.byte	1
000069ef 22            10570 	.byte	34
000069f0 4d454d5f5357  10571 	.strz	"MEM_SW_PATCH_VERSION MEMMAP_SW_PATCH_VERSION"
000069f6 5f5041544348 
000069fc 5f5645525349 
00006a02 4f4e204d454d 
00006a08 4d41505f5357 
00006a0e 5f5041544348 
00006a14 5f5645525349 
00006a1a 4f4e00 
00006a1d 01            10572 	.byte	1
00006a1e 24            10573 	.byte	36
00006a1f 4d454d4d4150  10574 	.strz	"MEMMAP_ERROR "
00006a25 5f4552524f52 
00006a2b 2000 
00006a2d 01            10575 	.byte	1
00006a2e ea02          10576 	.byte	234,2
00006a30 53544f505f53  10577 	.strz	"STOP_SEC_CODE "
00006a36 45435f434f44 
00006a3c 452000 
00006a3f 03            10578 	.byte	3
00006a40 f403          10579 	.byte	244,3
00006a42 12            10580 	.byte	18
00006a43 04            10581 	.byte	4
00006a44 04            10582 	.byte	4
00006a45 04            10583 	.byte	4
00006a46 01            10584 	.byte	1
00006a47 eb05          10585 	.byte	235,5
00006a49 525f46444c5f  10586 	.strz	"R_FDL_START_SEC_PUBLIC_CODE "
00006a4f 53544152545f 
00006a55 5345435f5055 
00006a5b 424c49435f43 
00006a61 4f44452000 
00006a66 03            10587 	.byte	3
00006a67 ec05          10588 	.byte	236,5
00006a69 1b            10589 	.byte	27
00006a6a 01            10590 	.byte	1
00006a6b 0c            10591 	.byte	12
00006a6c 46444c5f5354  10592 	.strz	"FDL_START_SEC_PUBLIC_CODE "
00006a72 4152545f5345 
00006a78 435f5055424c 
00006a7e 49435f434f44 
00006a84 452000 
00006a87 03            10593 	.byte	3
00006a88 20            10594 	.byte	32
00006a89 11            10595 	.byte	17
00006a8a 01            10596 	.byte	1
00006a8b 02            10597 	.byte	2
00006a8c 4d454d4d4150  10598 	.strz	"MEMMAP_VENDOR_ID (30u)"
00006a92 5f56454e444f 
00006a98 525f49442028 
00006a9e 3330752900 
00006aa3 01            10599 	.byte	1
00006aa4 08            10600 	.byte	8
00006aa5 4d454d4d4150  10601 	.strz	"MEMMAP_AR_RELEASE_MAJOR_VERSION (4u)"
00006aab 5f41525f5245 
00006ab1 4c454153455f 

                                                                      Page 250
                                                              C:\Users\nhuliyap\AppData\Local\Temp\gh_0000da81.s
00006ab7 4d414a4f525f 
00006abd 56455253494f 
00006ac3 4e2028347529 
00006ac9 00 
00006aca 01            10602 	.byte	1
00006acb 09            10603 	.byte	9
00006acc 4d454d4d4150  10604 	.strz	"MEMMAP_AR_RELEASE_MINOR_VERSION (0u)"
00006ad2 5f41525f5245 
00006ad8 4c454153455f 
00006ade 4d494e4f525f 
00006ae4 56455253494f 
00006aea 4e2028307529 
00006af0 00 
00006af1 01            10605 	.byte	1
00006af2 0a            10606 	.byte	10
00006af3 4d454d4d4150  10607 	.strz	"MEMMAP_AR_RELEASE_REVISION_VERSION (3u)"
00006af9 5f41525f5245 
00006aff 4c454153455f 
00006b05 524556495349 
00006b0b 4f4e5f564552 
00006b11 53494f4e2028 
00006b17 33752900 
00006b1b 01            10608 	.byte	1
00006b1c 10            10609 	.byte	16
00006b1d 4d454d5f4152  10610 	.strz	"MEM_AR_RELEASE_MAJOR_VERSION MEMMAP_AR_RELEASE_MAJOR_VERSION"
00006b23 5f52454c4541 
00006b29 53455f4d414a 
00006b2f 4f525f564552 
00006b35 53494f4e204d 
00006b3b 454d4d41505f 
00006b41 41525f52454c 
00006b47 454153455f4d 
00006b4d 414a4f525f56 
00006b53 455253494f4e 
00006b59 00 
00006b5a 01            10611 	.byte	1
00006b5b 11            10612 	.byte	17
00006b5c 4d454d5f4152  10613 	.strz	"MEM_AR_RELEASE_MINOR_VERSION MEMMAP_AR_RELEASE_MINOR_VERSION"
00006b62 5f52454c4541 
00006b68 53455f4d494e 
00006b6e 4f525f564552 
00006b74 53494f4e204d 
00006b7a 454d4d41505f 
00006b80 41525f52454c 
00006b86 454153455f4d 
00006b8c 494e4f525f56 
00006b92 455253494f4e 
00006b98 00 
00006b99 01            10614 	.byte	1
00006b9a 12            10615 	.byte	18
00006b9b 4d454d5f4152  10616 	.strz	"MEM_AR_RELEASE_PATCH_VERSION MEMMAP_AR_RELEASE_REVISION_VERSION"
00006ba1 5f52454c4541 
00006ba7 53455f504154 
00006bad 43485f564552 
00006bb3 53494f4e204d 
00006bb9 454d4d41505f 
00006bbf 41525f52454c 
00006bc5 454153455f52 
00006bcb 45564953494f 
00006bd1 4e5f56455253 
00006bd7 494f4e00 

                                                                      Page 251
                                                              C:\Users\nhuliyap\AppData\Local\Temp\gh_0000da81.s
00006bdb 01            10617 	.byte	1
00006bdc 18            10618 	.byte	24
00006bdd 4d454d4d4150  10619 	.strz	"MEMMAP_SW_MAJOR_VERSION (1u)"
00006be3 5f53575f4d41 
00006be9 4a4f525f5645 
00006bef 5253494f4e20 
00006bf5 2831752900 
00006bfa 01            10620 	.byte	1
00006bfb 19            10621 	.byte	25
00006bfc 4d454d4d4150  10622 	.strz	"MEMMAP_SW_MINOR_VERSION (11u)"
00006c02 5f53575f4d49 
00006c08 4e4f525f5645 
00006c0e 5253494f4e20 
00006c14 283131752900 
00006c1a 01            10623 	.byte	1
00006c1b 1a            10624 	.byte	26
00006c1c 4d454d4d4150  10625 	.strz	"MEMMAP_SW_PATCH_VERSION (0u)"
00006c22 5f53575f5041 
00006c28 5443485f5645 
00006c2e 5253494f4e20 
00006c34 2830752900 
00006c39 01            10626 	.byte	1
00006c3a 20            10627 	.byte	32
00006c3b 4d454d5f5357  10628 	.strz	"MEM_SW_MAJOR_VERSION MEMMAP_SW_MAJOR_VERSION"
00006c41 5f4d414a4f52 
00006c47 5f5645525349 
00006c4d 4f4e204d454d 
00006c53 4d41505f5357 
00006c59 5f4d414a4f52 
00006c5f 5f5645525349 
00006c65 4f4e00 
00006c68 01            10629 	.byte	1
00006c69 21            10630 	.byte	33
00006c6a 4d454d5f5357  10631 	.strz	"MEM_SW_MINOR_VERSION MEMMAP_SW_MINOR_VERSION"
00006c70 5f4d494e4f52 
00006c76 5f5645525349 
00006c7c 4f4e204d454d 
00006c82 4d41505f5357 
00006c88 5f4d494e4f52 
00006c8e 5f5645525349 
00006c94 4f4e00 
00006c97 01            10632 	.byte	1
00006c98 22            10633 	.byte	34
00006c99 4d454d5f5357  10634 	.strz	"MEM_SW_PATCH_VERSION MEMMAP_SW_PATCH_VERSION"
00006c9f 5f5041544348 
00006ca5 5f5645525349 
00006cab 4f4e204d454d 
00006cb1 4d41505f5357 
00006cb7 5f5041544348 
00006cbd 5f5645525349 
00006cc3 4f4e00 
00006cc6 01            10635 	.byte	1
00006cc7 24            10636 	.byte	36
00006cc8 4d454d4d4150  10637 	.strz	"MEMMAP_ERROR "
00006cce 5f4552524f52 
00006cd4 2000 
00006cd6 01            10638 	.byte	1
00006cd7 e602          10639 	.byte	230,2
00006cd9 53544152545f  10640 	.strz	"START_SEC_CODE "
00006cdf 5345435f434f 
00006ce5 44452000 

                                                                      Page 252
                                                              C:\Users\nhuliyap\AppData\Local\Temp\gh_0000da81.s
00006ce9 03            10641 	.byte	3
00006cea f403          10642 	.byte	244,3
00006cec 12            10643 	.byte	18
00006ced 01            10644 	.byte	1
00006cee f307          10645 	.byte	243,7
00006cf0 434f44455f53  10646 	.strz	"CODE_SEC_OPEN "
00006cf6 45435f4f5045 
00006cfc 4e2000 
00006cff 04            10647 	.byte	4
00006d00 04            10648 	.byte	4
00006d01 04            10649 	.byte	4
00006d02 01            10650 	.byte	1
00006d03 8106          10651 	.byte	129,6
00006d05 525f46444c5f  10652 	.strz	"R_FDL_STOP_SEC_PUBLIC_CODE "
00006d0b 53544f505f53 
00006d11 45435f505542 
00006d17 4c49435f434f 
00006d1d 44452000 
00006d21 03            10653 	.byte	3
00006d22 8206          10654 	.byte	130,6
00006d24 1b            10655 	.byte	27
00006d25 01            10656 	.byte	1
00006d26 0f            10657 	.byte	15
00006d27 46444c5f5354  10658 	.strz	"FDL_STOP_SEC_PUBLIC_CODE "
00006d2d 4f505f534543 
00006d33 5f5055424c49 
00006d39 435f434f4445 
00006d3f 2000 
00006d41 03            10659 	.byte	3
00006d42 20            10660 	.byte	32
00006d43 11            10661 	.byte	17
00006d44 01            10662 	.byte	1
00006d45 02            10663 	.byte	2
00006d46 4d454d4d4150  10664 	.strz	"MEMMAP_VENDOR_ID (30u)"
00006d4c 5f56454e444f 
00006d52 525f49442028 
00006d58 3330752900 
00006d5d 01            10665 	.byte	1
00006d5e 08            10666 	.byte	8
00006d5f 4d454d4d4150  10667 	.strz	"MEMMAP_AR_RELEASE_MAJOR_VERSION (4u)"
00006d65 5f41525f5245 
00006d6b 4c454153455f 
00006d71 4d414a4f525f 
00006d77 56455253494f 
00006d7d 4e2028347529 
00006d83 00 
00006d84 01            10668 	.byte	1
00006d85 09            10669 	.byte	9
00006d86 4d454d4d4150  10670 	.strz	"MEMMAP_AR_RELEASE_MINOR_VERSION (0u)"
00006d8c 5f41525f5245 
00006d92 4c454153455f 
00006d98 4d494e4f525f 
00006d9e 56455253494f 
00006da4 4e2028307529 
00006daa 00 
00006dab 01            10671 	.byte	1
00006dac 0a            10672 	.byte	10
00006dad 4d454d4d4150  10673 	.strz	"MEMMAP_AR_RELEASE_REVISION_VERSION (3u)"
00006db3 5f41525f5245 
00006db9 4c454153455f 
00006dbf 524556495349 

                                                                      Page 253
                                                              C:\Users\nhuliyap\AppData\Local\Temp\gh_0000da81.s
00006dc5 4f4e5f564552 
00006dcb 53494f4e2028 
00006dd1 33752900 
00006dd5 01            10674 	.byte	1
00006dd6 10            10675 	.byte	16
00006dd7 4d454d5f4152  10676 	.strz	"MEM_AR_RELEASE_MAJOR_VERSION MEMMAP_AR_RELEASE_MAJOR_VERSION"
00006ddd 5f52454c4541 
00006de3 53455f4d414a 
00006de9 4f525f564552 
00006def 53494f4e204d 
00006df5 454d4d41505f 
00006dfb 41525f52454c 
00006e01 454153455f4d 
00006e07 414a4f525f56 
00006e0d 455253494f4e 
00006e13 00 
00006e14 01            10677 	.byte	1
00006e15 11            10678 	.byte	17
00006e16 4d454d5f4152  10679 	.strz	"MEM_AR_RELEASE_MINOR_VERSION MEMMAP_AR_RELEASE_MINOR_VERSION"
00006e1c 5f52454c4541 
00006e22 53455f4d494e 
00006e28 4f525f564552 
00006e2e 53494f4e204d 
00006e34 454d4d41505f 
00006e3a 41525f52454c 
00006e40 454153455f4d 
00006e46 494e4f525f56 
00006e4c 455253494f4e 
00006e52 00 
00006e53 01            10680 	.byte	1
00006e54 12            10681 	.byte	18
00006e55 4d454d5f4152  10682 	.strz	"MEM_AR_RELEASE_PATCH_VERSION MEMMAP_AR_RELEASE_REVISION_VERSION"
00006e5b 5f52454c4541 
00006e61 53455f504154 
00006e67 43485f564552 
00006e6d 53494f4e204d 
00006e73 454d4d41505f 
00006e79 41525f52454c 
00006e7f 454153455f52 
00006e85 45564953494f 
00006e8b 4e5f56455253 
00006e91 494f4e00 
00006e95 01            10683 	.byte	1
00006e96 18            10684 	.byte	24
00006e97 4d454d4d4150  10685 	.strz	"MEMMAP_SW_MAJOR_VERSION (1u)"
00006e9d 5f53575f4d41 
00006ea3 4a4f525f5645 
00006ea9 5253494f4e20 
00006eaf 2831752900 
00006eb4 01            10686 	.byte	1
00006eb5 19            10687 	.byte	25
00006eb6 4d454d4d4150  10688 	.strz	"MEMMAP_SW_MINOR_VERSION (11u)"
00006ebc 5f53575f4d49 
00006ec2 4e4f525f5645 
00006ec8 5253494f4e20 
00006ece 283131752900 
00006ed4 01            10689 	.byte	1
00006ed5 1a            10690 	.byte	26
00006ed6 4d454d4d4150  10691 	.strz	"MEMMAP_SW_PATCH_VERSION (0u)"
00006edc 5f53575f5041 
00006ee2 5443485f5645 

                                                                      Page 254
                                                              C:\Users\nhuliyap\AppData\Local\Temp\gh_0000da81.s
00006ee8 5253494f4e20 
00006eee 2830752900 
00006ef3 01            10692 	.byte	1
00006ef4 20            10693 	.byte	32
00006ef5 4d454d5f5357  10694 	.strz	"MEM_SW_MAJOR_VERSION MEMMAP_SW_MAJOR_VERSION"
00006efb 5f4d414a4f52 
00006f01 5f5645525349 
00006f07 4f4e204d454d 
00006f0d 4d41505f5357 
00006f13 5f4d414a4f52 
00006f19 5f5645525349 
00006f1f 4f4e00 
00006f22 01            10695 	.byte	1
00006f23 21            10696 	.byte	33
00006f24 4d454d5f5357  10697 	.strz	"MEM_SW_MINOR_VERSION MEMMAP_SW_MINOR_VERSION"
00006f2a 5f4d494e4f52 
00006f30 5f5645525349 
00006f36 4f4e204d454d 
00006f3c 4d41505f5357 
00006f42 5f4d494e4f52 
00006f48 5f5645525349 
00006f4e 4f4e00 
00006f51 01            10698 	.byte	1
00006f52 22            10699 	.byte	34
00006f53 4d454d5f5357  10700 	.strz	"MEM_SW_PATCH_VERSION MEMMAP_SW_PATCH_VERSION"
00006f59 5f5041544348 
00006f5f 5f5645525349 
00006f65 4f4e204d454d 
00006f6b 4d41505f5357 
00006f71 5f5041544348 
00006f77 5f5645525349 
00006f7d 4f4e00 
00006f80 01            10701 	.byte	1
00006f81 24            10702 	.byte	36
00006f82 4d454d4d4150  10703 	.strz	"MEMMAP_ERROR "
00006f88 5f4552524f52 
00006f8e 2000 
00006f90 01            10704 	.byte	1
00006f91 ea02          10705 	.byte	234,2
00006f93 53544f505f53  10706 	.strz	"STOP_SEC_CODE "
00006f99 45435f434f44 
00006f9f 452000 
00006fa2 03            10707 	.byte	3
00006fa3 f403          10708 	.byte	244,3
00006fa5 12            10709 	.byte	18
00006fa6 04            10710 	.byte	4
00006fa7 04            10711 	.byte	4
00006fa8 04            10712 	.byte	4
00006fa9 01            10713 	.byte	1
00006faa 8406          10714 	.byte	132,6
00006fac 525f46444c5f  10715 	.strz	"R_FDL_START_SEC_PUBLIC_CODE "
00006fb2 53544152545f 
00006fb8 5345435f5055 
00006fbe 424c49435f43 
00006fc4 4f44452000 
00006fc9 03            10716 	.byte	3
00006fca 8506          10717 	.byte	133,6
00006fcc 1b            10718 	.byte	27
00006fcd 01            10719 	.byte	1
00006fce 0c            10720 	.byte	12
00006fcf 46444c5f5354  10721 	.strz	"FDL_START_SEC_PUBLIC_CODE "

                                                                      Page 255
                                                              C:\Users\nhuliyap\AppData\Local\Temp\gh_0000da81.s
00006fd5 4152545f5345 
00006fdb 435f5055424c 
00006fe1 49435f434f44 
00006fe7 452000 
00006fea 03            10722 	.byte	3
00006feb 20            10723 	.byte	32
00006fec 11            10724 	.byte	17
00006fed 01            10725 	.byte	1
00006fee 02            10726 	.byte	2
00006fef 4d454d4d4150  10727 	.strz	"MEMMAP_VENDOR_ID (30u)"
00006ff5 5f56454e444f 
00006ffb 525f49442028 
00007001 3330752900 
00007006 01            10728 	.byte	1
00007007 08            10729 	.byte	8
00007008 4d454d4d4150  10730 	.strz	"MEMMAP_AR_RELEASE_MAJOR_VERSION (4u)"
0000700e 5f41525f5245 
00007014 4c454153455f 
0000701a 4d414a4f525f 
00007020 56455253494f 
00007026 4e2028347529 
0000702c 00 
0000702d 01            10731 	.byte	1
0000702e 09            10732 	.byte	9
0000702f 4d454d4d4150  10733 	.strz	"MEMMAP_AR_RELEASE_MINOR_VERSION (0u)"
00007035 5f41525f5245 
0000703b 4c454153455f 
00007041 4d494e4f525f 
00007047 56455253494f 
0000704d 4e2028307529 
00007053 00 
00007054 01            10734 	.byte	1
00007055 0a            10735 	.byte	10
00007056 4d454d4d4150  10736 	.strz	"MEMMAP_AR_RELEASE_REVISION_VERSION (3u)"
0000705c 5f41525f5245 
00007062 4c454153455f 
00007068 524556495349 
0000706e 4f4e5f564552 
00007074 53494f4e2028 
0000707a 33752900 
0000707e 01            10737 	.byte	1
0000707f 10            10738 	.byte	16
00007080 4d454d5f4152  10739 	.strz	"MEM_AR_RELEASE_MAJOR_VERSION MEMMAP_AR_RELEASE_MAJOR_VERSION"
00007086 5f52454c4541 
0000708c 53455f4d414a 
00007092 4f525f564552 
00007098 53494f4e204d 
0000709e 454d4d41505f 
000070a4 41525f52454c 
000070aa 454153455f4d 
000070b0 414a4f525f56 
000070b6 455253494f4e 
000070bc 00 
000070bd 01            10740 	.byte	1
000070be 11            10741 	.byte	17
000070bf 4d454d5f4152  10742 	.strz	"MEM_AR_RELEASE_MINOR_VERSION MEMMAP_AR_RELEASE_MINOR_VERSION"
000070c5 5f52454c4541 
000070cb 53455f4d494e 
000070d1 4f525f564552 
000070d7 53494f4e204d 
000070dd 454d4d41505f 

                                                                      Page 256
                                                              C:\Users\nhuliyap\AppData\Local\Temp\gh_0000da81.s
000070e3 41525f52454c 
000070e9 454153455f4d 
000070ef 494e4f525f56 
000070f5 455253494f4e 
000070fb 00 
000070fc 01            10743 	.byte	1
000070fd 12            10744 	.byte	18
000070fe 4d454d5f4152  10745 	.strz	"MEM_AR_RELEASE_PATCH_VERSION MEMMAP_AR_RELEASE_REVISION_VERSION"
00007104 5f52454c4541 
0000710a 53455f504154 
00007110 43485f564552 
00007116 53494f4e204d 
0000711c 454d4d41505f 
00007122 41525f52454c 
00007128 454153455f52 
0000712e 45564953494f 
00007134 4e5f56455253 
0000713a 494f4e00 
0000713e 01            10746 	.byte	1
0000713f 18            10747 	.byte	24
00007140 4d454d4d4150  10748 	.strz	"MEMMAP_SW_MAJOR_VERSION (1u)"
00007146 5f53575f4d41 
0000714c 4a4f525f5645 
00007152 5253494f4e20 
00007158 2831752900 
0000715d 01            10749 	.byte	1
0000715e 19            10750 	.byte	25
0000715f 4d454d4d4150  10751 	.strz	"MEMMAP_SW_MINOR_VERSION (11u)"
00007165 5f53575f4d49 
0000716b 4e4f525f5645 
00007171 5253494f4e20 
00007177 283131752900 
0000717d 01            10752 	.byte	1
0000717e 1a            10753 	.byte	26
0000717f 4d454d4d4150  10754 	.strz	"MEMMAP_SW_PATCH_VERSION (0u)"
00007185 5f53575f5041 
0000718b 5443485f5645 
00007191 5253494f4e20 
00007197 2830752900 
0000719c 01            10755 	.byte	1
0000719d 20            10756 	.byte	32
0000719e 4d454d5f5357  10757 	.strz	"MEM_SW_MAJOR_VERSION MEMMAP_SW_MAJOR_VERSION"
000071a4 5f4d414a4f52 
000071aa 5f5645525349 
000071b0 4f4e204d454d 
000071b6 4d41505f5357 
000071bc 5f4d414a4f52 
000071c2 5f5645525349 
000071c8 4f4e00 
000071cb 01            10758 	.byte	1
000071cc 21            10759 	.byte	33
000071cd 4d454d5f5357  10760 	.strz	"MEM_SW_MINOR_VERSION MEMMAP_SW_MINOR_VERSION"
000071d3 5f4d494e4f52 
000071d9 5f5645525349 
000071df 4f4e204d454d 
000071e5 4d41505f5357 
000071eb 5f4d494e4f52 
000071f1 5f5645525349 
000071f7 4f4e00 
000071fa 01            10761 	.byte	1
000071fb 22            10762 	.byte	34

                                                                      Page 257
                                                              C:\Users\nhuliyap\AppData\Local\Temp\gh_0000da81.s
000071fc 4d454d5f5357  10763 	.strz	"MEM_SW_PATCH_VERSION MEMMAP_SW_PATCH_VERSION"
00007202 5f5041544348 
00007208 5f5645525349 
0000720e 4f4e204d454d 
00007214 4d41505f5357 
0000721a 5f5041544348 
00007220 5f5645525349 
00007226 4f4e00 
00007229 01            10764 	.byte	1
0000722a 24            10765 	.byte	36
0000722b 4d454d4d4150  10766 	.strz	"MEMMAP_ERROR "
00007231 5f4552524f52 
00007237 2000 
00007239 01            10767 	.byte	1
0000723a e602          10768 	.byte	230,2
0000723c 53544152545f  10769 	.strz	"START_SEC_CODE "
00007242 5345435f434f 
00007248 44452000 
0000724c 03            10770 	.byte	3
0000724d f403          10771 	.byte	244,3
0000724f 12            10772 	.byte	18
00007250 01            10773 	.byte	1
00007251 f307          10774 	.byte	243,7
00007253 434f44455f53  10775 	.strz	"CODE_SEC_OPEN "
00007259 45435f4f5045 
0000725f 4e2000 
00007262 04            10776 	.byte	4
00007263 04            10777 	.byte	4
00007264 04            10778 	.byte	4
00007265 01            10779 	.byte	1
00007266 9d06          10780 	.byte	157,6
00007268 525f46444c5f  10781 	.strz	"R_FDL_STOP_SEC_PUBLIC_CODE "
0000726e 53544f505f53 
00007274 45435f505542 
0000727a 4c49435f434f 
00007280 44452000 
00007284 03            10782 	.byte	3
00007285 9e06          10783 	.byte	158,6
00007287 1b            10784 	.byte	27
00007288 01            10785 	.byte	1
00007289 0f            10786 	.byte	15
0000728a 46444c5f5354  10787 	.strz	"FDL_STOP_SEC_PUBLIC_CODE "
00007290 4f505f534543 
00007296 5f5055424c49 
0000729c 435f434f4445 
000072a2 2000 
000072a4 03            10788 	.byte	3
000072a5 20            10789 	.byte	32
000072a6 11            10790 	.byte	17
000072a7 01            10791 	.byte	1
000072a8 02            10792 	.byte	2
000072a9 4d454d4d4150  10793 	.strz	"MEMMAP_VENDOR_ID (30u)"
000072af 5f56454e444f 
000072b5 525f49442028 
000072bb 3330752900 
000072c0 01            10794 	.byte	1
000072c1 08            10795 	.byte	8
000072c2 4d454d4d4150  10796 	.strz	"MEMMAP_AR_RELEASE_MAJOR_VERSION (4u)"
000072c8 5f41525f5245 
000072ce 4c454153455f 
000072d4 4d414a4f525f 

                                                                      Page 258
                                                              C:\Users\nhuliyap\AppData\Local\Temp\gh_0000da81.s
000072da 56455253494f 
000072e0 4e2028347529 
000072e6 00 
000072e7 01            10797 	.byte	1
000072e8 09            10798 	.byte	9
000072e9 4d454d4d4150  10799 	.strz	"MEMMAP_AR_RELEASE_MINOR_VERSION (0u)"
000072ef 5f41525f5245 
000072f5 4c454153455f 
000072fb 4d494e4f525f 
00007301 56455253494f 
00007307 4e2028307529 
0000730d 00 
0000730e 01            10800 	.byte	1
0000730f 0a            10801 	.byte	10
00007310 4d454d4d4150  10802 	.strz	"MEMMAP_AR_RELEASE_REVISION_VERSION (3u)"
00007316 5f41525f5245 
0000731c 4c454153455f 
00007322 524556495349 
00007328 4f4e5f564552 
0000732e 53494f4e2028 
00007334 33752900 
00007338 01            10803 	.byte	1
00007339 10            10804 	.byte	16
0000733a 4d454d5f4152  10805 	.strz	"MEM_AR_RELEASE_MAJOR_VERSION MEMMAP_AR_RELEASE_MAJOR_VERSION"
00007340 5f52454c4541 
00007346 53455f4d414a 
0000734c 4f525f564552 
00007352 53494f4e204d 
00007358 454d4d41505f 
0000735e 41525f52454c 
00007364 454153455f4d 
0000736a 414a4f525f56 
00007370 455253494f4e 
00007376 00 
00007377 01            10806 	.byte	1
00007378 11            10807 	.byte	17
00007379 4d454d5f4152  10808 	.strz	"MEM_AR_RELEASE_MINOR_VERSION MEMMAP_AR_RELEASE_MINOR_VERSION"
0000737f 5f52454c4541 
00007385 53455f4d494e 
0000738b 4f525f564552 
00007391 53494f4e204d 
00007397 454d4d41505f 
0000739d 41525f52454c 
000073a3 454153455f4d 
000073a9 494e4f525f56 
000073af 455253494f4e 
000073b5 00 
000073b6 01            10809 	.byte	1
000073b7 12            10810 	.byte	18
000073b8 4d454d5f4152  10811 	.strz	"MEM_AR_RELEASE_PATCH_VERSION MEMMAP_AR_RELEASE_REVISION_VERSION"
000073be 5f52454c4541 
000073c4 53455f504154 
000073ca 43485f564552 
000073d0 53494f4e204d 
000073d6 454d4d41505f 
000073dc 41525f52454c 
000073e2 454153455f52 
000073e8 45564953494f 
000073ee 4e5f56455253 
000073f4 494f4e00 
000073f8 01            10812 	.byte	1

                                                                      Page 259
                                                              C:\Users\nhuliyap\AppData\Local\Temp\gh_0000da81.s
000073f9 18            10813 	.byte	24
000073fa 4d454d4d4150  10814 	.strz	"MEMMAP_SW_MAJOR_VERSION (1u)"
00007400 5f53575f4d41 
00007406 4a4f525f5645 
0000740c 5253494f4e20 
00007412 2831752900 
00007417 01            10815 	.byte	1
00007418 19            10816 	.byte	25
00007419 4d454d4d4150  10817 	.strz	"MEMMAP_SW_MINOR_VERSION (11u)"
0000741f 5f53575f4d49 
00007425 4e4f525f5645 
0000742b 5253494f4e20 
00007431 283131752900 
00007437 01            10818 	.byte	1
00007438 1a            10819 	.byte	26
00007439 4d454d4d4150  10820 	.strz	"MEMMAP_SW_PATCH_VERSION (0u)"
0000743f 5f53575f5041 
00007445 5443485f5645 
0000744b 5253494f4e20 
00007451 2830752900 
00007456 01            10821 	.byte	1
00007457 20            10822 	.byte	32
00007458 4d454d5f5357  10823 	.strz	"MEM_SW_MAJOR_VERSION MEMMAP_SW_MAJOR_VERSION"
0000745e 5f4d414a4f52 
00007464 5f5645525349 
0000746a 4f4e204d454d 
00007470 4d41505f5357 
00007476 5f4d414a4f52 
0000747c 5f5645525349 
00007482 4f4e00 
00007485 01            10824 	.byte	1
00007486 21            10825 	.byte	33
00007487 4d454d5f5357  10826 	.strz	"MEM_SW_MINOR_VERSION MEMMAP_SW_MINOR_VERSION"
0000748d 5f4d494e4f52 
00007493 5f5645525349 
00007499 4f4e204d454d 
0000749f 4d41505f5357 
000074a5 5f4d494e4f52 
000074ab 5f5645525349 
000074b1 4f4e00 
000074b4 01            10827 	.byte	1
000074b5 22            10828 	.byte	34
000074b6 4d454d5f5357  10829 	.strz	"MEM_SW_PATCH_VERSION MEMMAP_SW_PATCH_VERSION"
000074bc 5f5041544348 
000074c2 5f5645525349 
000074c8 4f4e204d454d 
000074ce 4d41505f5357 
000074d4 5f5041544348 
000074da 5f5645525349 
000074e0 4f4e00 
000074e3 01            10830 	.byte	1
000074e4 24            10831 	.byte	36
000074e5 4d454d4d4150  10832 	.strz	"MEMMAP_ERROR "
000074eb 5f4552524f52 
000074f1 2000 
000074f3 01            10833 	.byte	1
000074f4 ea02          10834 	.byte	234,2
000074f6 53544f505f53  10835 	.strz	"STOP_SEC_CODE "
000074fc 45435f434f44 
00007502 452000 
00007505 03            10836 	.byte	3

                                                                      Page 260
                                                              C:\Users\nhuliyap\AppData\Local\Temp\gh_0000da81.s
00007506 f403          10837 	.byte	244,3
00007508 12            10838 	.byte	18
00007509 04            10839 	.byte	4
0000750a 04            10840 	.byte	4
0000750b 04            10841 	.byte	4
0000750c 01            10842 	.byte	1
0000750d a006          10843 	.byte	160,6
0000750f 525f46444c5f  10844 	.strz	"R_FDL_START_SEC_PUBLIC_CODE "
00007515 53544152545f 
0000751b 5345435f5055 
00007521 424c49435f43 
00007527 4f44452000 
0000752c 03            10845 	.byte	3
0000752d a106          10846 	.byte	161,6
0000752f 1b            10847 	.byte	27
00007530 01            10848 	.byte	1
00007531 0c            10849 	.byte	12
00007532 46444c5f5354  10850 	.strz	"FDL_START_SEC_PUBLIC_CODE "
00007538 4152545f5345 
0000753e 435f5055424c 
00007544 49435f434f44 
0000754a 452000 
0000754d 03            10851 	.byte	3
0000754e 20            10852 	.byte	32
0000754f 11            10853 	.byte	17
00007550 01            10854 	.byte	1
00007551 02            10855 	.byte	2
00007552 4d454d4d4150  10856 	.strz	"MEMMAP_VENDOR_ID (30u)"
00007558 5f56454e444f 
0000755e 525f49442028 
00007564 3330752900 
00007569 01            10857 	.byte	1
0000756a 08            10858 	.byte	8
0000756b 4d454d4d4150  10859 	.strz	"MEMMAP_AR_RELEASE_MAJOR_VERSION (4u)"
00007571 5f41525f5245 
00007577 4c454153455f 
0000757d 4d414a4f525f 
00007583 56455253494f 
00007589 4e2028347529 
0000758f 00 
00007590 01            10860 	.byte	1
00007591 09            10861 	.byte	9
00007592 4d454d4d4150  10862 	.strz	"MEMMAP_AR_RELEASE_MINOR_VERSION (0u)"
00007598 5f41525f5245 
0000759e 4c454153455f 
000075a4 4d494e4f525f 
000075aa 56455253494f 
000075b0 4e2028307529 
000075b6 00 
000075b7 01            10863 	.byte	1
000075b8 0a            10864 	.byte	10
000075b9 4d454d4d4150  10865 	.strz	"MEMMAP_AR_RELEASE_REVISION_VERSION (3u)"
000075bf 5f41525f5245 
000075c5 4c454153455f 
000075cb 524556495349 
000075d1 4f4e5f564552 
000075d7 53494f4e2028 
000075dd 33752900 
000075e1 01            10866 	.byte	1
000075e2 10            10867 	.byte	16
000075e3 4d454d5f4152  10868 	.strz	"MEM_AR_RELEASE_MAJOR_VERSION MEMMAP_AR_RELEASE_MAJOR_VERSION"

                                                                      Page 261
                                                              C:\Users\nhuliyap\AppData\Local\Temp\gh_0000da81.s
000075e9 5f52454c4541 
000075ef 53455f4d414a 
000075f5 4f525f564552 
000075fb 53494f4e204d 
00007601 454d4d41505f 
00007607 41525f52454c 
0000760d 454153455f4d 
00007613 414a4f525f56 
00007619 455253494f4e 
0000761f 00 
00007620 01            10869 	.byte	1
00007621 11            10870 	.byte	17
00007622 4d454d5f4152  10871 	.strz	"MEM_AR_RELEASE_MINOR_VERSION MEMMAP_AR_RELEASE_MINOR_VERSION"
00007628 5f52454c4541 
0000762e 53455f4d494e 
00007634 4f525f564552 
0000763a 53494f4e204d 
00007640 454d4d41505f 
00007646 41525f52454c 
0000764c 454153455f4d 
00007652 494e4f525f56 
00007658 455253494f4e 
0000765e 00 
0000765f 01            10872 	.byte	1
00007660 12            10873 	.byte	18
00007661 4d454d5f4152  10874 	.strz	"MEM_AR_RELEASE_PATCH_VERSION MEMMAP_AR_RELEASE_REVISION_VERSION"
00007667 5f52454c4541 
0000766d 53455f504154 
00007673 43485f564552 
00007679 53494f4e204d 
0000767f 454d4d41505f 
00007685 41525f52454c 
0000768b 454153455f52 
00007691 45564953494f 
00007697 4e5f56455253 
0000769d 494f4e00 
000076a1 01            10875 	.byte	1
000076a2 18            10876 	.byte	24
000076a3 4d454d4d4150  10877 	.strz	"MEMMAP_SW_MAJOR_VERSION (1u)"
000076a9 5f53575f4d41 
000076af 4a4f525f5645 
000076b5 5253494f4e20 
000076bb 2831752900 
000076c0 01            10878 	.byte	1
000076c1 19            10879 	.byte	25
000076c2 4d454d4d4150  10880 	.strz	"MEMMAP_SW_MINOR_VERSION (11u)"
000076c8 5f53575f4d49 
000076ce 4e4f525f5645 
000076d4 5253494f4e20 
000076da 283131752900 
000076e0 01            10881 	.byte	1
000076e1 1a            10882 	.byte	26
000076e2 4d454d4d4150  10883 	.strz	"MEMMAP_SW_PATCH_VERSION (0u)"
000076e8 5f53575f5041 
000076ee 5443485f5645 
000076f4 5253494f4e20 
000076fa 2830752900 
000076ff 01            10884 	.byte	1
00007700 20            10885 	.byte	32
00007701 4d454d5f5357  10886 	.strz	"MEM_SW_MAJOR_VERSION MEMMAP_SW_MAJOR_VERSION"
00007707 5f4d414a4f52 

                                                                      Page 262
                                                              C:\Users\nhuliyap\AppData\Local\Temp\gh_0000da81.s
0000770d 5f5645525349 
00007713 4f4e204d454d 
00007719 4d41505f5357 
0000771f 5f4d414a4f52 
00007725 5f5645525349 
0000772b 4f4e00 
0000772e 01            10887 	.byte	1
0000772f 21            10888 	.byte	33
00007730 4d454d5f5357  10889 	.strz	"MEM_SW_MINOR_VERSION MEMMAP_SW_MINOR_VERSION"
00007736 5f4d494e4f52 
0000773c 5f5645525349 
00007742 4f4e204d454d 
00007748 4d41505f5357 
0000774e 5f4d494e4f52 
00007754 5f5645525349 
0000775a 4f4e00 
0000775d 01            10890 	.byte	1
0000775e 22            10891 	.byte	34
0000775f 4d454d5f5357  10892 	.strz	"MEM_SW_PATCH_VERSION MEMMAP_SW_PATCH_VERSION"
00007765 5f5041544348 
0000776b 5f5645525349 
00007771 4f4e204d454d 
00007777 4d41505f5357 
0000777d 5f5041544348 
00007783 5f5645525349 
00007789 4f4e00 
0000778c 01            10893 	.byte	1
0000778d 24            10894 	.byte	36
0000778e 4d454d4d4150  10895 	.strz	"MEMMAP_ERROR "
00007794 5f4552524f52 
0000779a 2000 
0000779c 01            10896 	.byte	1
0000779d e602          10897 	.byte	230,2
0000779f 53544152545f  10898 	.strz	"START_SEC_CODE "
000077a5 5345435f434f 
000077ab 44452000 
000077af 03            10899 	.byte	3
000077b0 f403          10900 	.byte	244,3
000077b2 12            10901 	.byte	18
000077b3 01            10902 	.byte	1
000077b4 f307          10903 	.byte	243,7
000077b6 434f44455f53  10904 	.strz	"CODE_SEC_OPEN "
000077bc 45435f4f5045 
000077c2 4e2000 
000077c5 04            10905 	.byte	4
000077c6 04            10906 	.byte	4
000077c7 04            10907 	.byte	4
000077c8 01            10908 	.byte	1
000077c9 c806          10909 	.byte	200,6
000077cb 525f46444c5f  10910 	.strz	"R_FDL_STOP_SEC_PUBLIC_CODE "
000077d1 53544f505f53 
000077d7 45435f505542 
000077dd 4c49435f434f 
000077e3 44452000 
000077e7 03            10911 	.byte	3
000077e8 c906          10912 	.byte	201,6
000077ea 1b            10913 	.byte	27
000077eb 01            10914 	.byte	1
000077ec 0f            10915 	.byte	15
000077ed 46444c5f5354  10916 	.strz	"FDL_STOP_SEC_PUBLIC_CODE "
000077f3 4f505f534543 

                                                                      Page 263
                                                              C:\Users\nhuliyap\AppData\Local\Temp\gh_0000da81.s
000077f9 5f5055424c49 
000077ff 435f434f4445 
00007805 2000 
00007807 03            10917 	.byte	3
00007808 20            10918 	.byte	32
00007809 11            10919 	.byte	17
0000780a 01            10920 	.byte	1
0000780b 02            10921 	.byte	2
0000780c 4d454d4d4150  10922 	.strz	"MEMMAP_VENDOR_ID (30u)"
00007812 5f56454e444f 
00007818 525f49442028 
0000781e 3330752900 
00007823 01            10923 	.byte	1
00007824 08            10924 	.byte	8
00007825 4d454d4d4150  10925 	.strz	"MEMMAP_AR_RELEASE_MAJOR_VERSION (4u)"
0000782b 5f41525f5245 
00007831 4c454153455f 
00007837 4d414a4f525f 
0000783d 56455253494f 
00007843 4e2028347529 
00007849 00 
0000784a 01            10926 	.byte	1
0000784b 09            10927 	.byte	9
0000784c 4d454d4d4150  10928 	.strz	"MEMMAP_AR_RELEASE_MINOR_VERSION (0u)"
00007852 5f41525f5245 
00007858 4c454153455f 
0000785e 4d494e4f525f 
00007864 56455253494f 
0000786a 4e2028307529 
00007870 00 
00007871 01            10929 	.byte	1
00007872 0a            10930 	.byte	10
00007873 4d454d4d4150  10931 	.strz	"MEMMAP_AR_RELEASE_REVISION_VERSION (3u)"
00007879 5f41525f5245 
0000787f 4c454153455f 
00007885 524556495349 
0000788b 4f4e5f564552 
00007891 53494f4e2028 
00007897 33752900 
0000789b 01            10932 	.byte	1
0000789c 10            10933 	.byte	16
0000789d 4d454d5f4152  10934 	.strz	"MEM_AR_RELEASE_MAJOR_VERSION MEMMAP_AR_RELEASE_MAJOR_VERSION"
000078a3 5f52454c4541 
000078a9 53455f4d414a 
000078af 4f525f564552 
000078b5 53494f4e204d 
000078bb 454d4d41505f 
000078c1 41525f52454c 
000078c7 454153455f4d 
000078cd 414a4f525f56 
000078d3 455253494f4e 
000078d9 00 
000078da 01            10935 	.byte	1
000078db 11            10936 	.byte	17
000078dc 4d454d5f4152  10937 	.strz	"MEM_AR_RELEASE_MINOR_VERSION MEMMAP_AR_RELEASE_MINOR_VERSION"
000078e2 5f52454c4541 
000078e8 53455f4d494e 
000078ee 4f525f564552 
000078f4 53494f4e204d 
000078fa 454d4d41505f 
00007900 41525f52454c 

                                                                      Page 264
                                                              C:\Users\nhuliyap\AppData\Local\Temp\gh_0000da81.s
00007906 454153455f4d 
0000790c 494e4f525f56 
00007912 455253494f4e 
00007918 00 
00007919 01            10938 	.byte	1
0000791a 12            10939 	.byte	18
0000791b 4d454d5f4152  10940 	.strz	"MEM_AR_RELEASE_PATCH_VERSION MEMMAP_AR_RELEASE_REVISION_VERSION"
00007921 5f52454c4541 
00007927 53455f504154 
0000792d 43485f564552 
00007933 53494f4e204d 
00007939 454d4d41505f 
0000793f 41525f52454c 
00007945 454153455f52 
0000794b 45564953494f 
00007951 4e5f56455253 
00007957 494f4e00 
0000795b 01            10941 	.byte	1
0000795c 18            10942 	.byte	24
0000795d 4d454d4d4150  10943 	.strz	"MEMMAP_SW_MAJOR_VERSION (1u)"
00007963 5f53575f4d41 
00007969 4a4f525f5645 
0000796f 5253494f4e20 
00007975 2831752900 
0000797a 01            10944 	.byte	1
0000797b 19            10945 	.byte	25
0000797c 4d454d4d4150  10946 	.strz	"MEMMAP_SW_MINOR_VERSION (11u)"
00007982 5f53575f4d49 
00007988 4e4f525f5645 
0000798e 5253494f4e20 
00007994 283131752900 
0000799a 01            10947 	.byte	1
0000799b 1a            10948 	.byte	26
0000799c 4d454d4d4150  10949 	.strz	"MEMMAP_SW_PATCH_VERSION (0u)"
000079a2 5f53575f5041 
000079a8 5443485f5645 
000079ae 5253494f4e20 
000079b4 2830752900 
000079b9 01            10950 	.byte	1
000079ba 20            10951 	.byte	32
000079bb 4d454d5f5357  10952 	.strz	"MEM_SW_MAJOR_VERSION MEMMAP_SW_MAJOR_VERSION"
000079c1 5f4d414a4f52 
000079c7 5f5645525349 
000079cd 4f4e204d454d 
000079d3 4d41505f5357 
000079d9 5f4d414a4f52 
000079df 5f5645525349 
000079e5 4f4e00 
000079e8 01            10953 	.byte	1
000079e9 21            10954 	.byte	33
000079ea 4d454d5f5357  10955 	.strz	"MEM_SW_MINOR_VERSION MEMMAP_SW_MINOR_VERSION"
000079f0 5f4d494e4f52 
000079f6 5f5645525349 
000079fc 4f4e204d454d 
00007a02 4d41505f5357 
00007a08 5f4d494e4f52 
00007a0e 5f5645525349 
00007a14 4f4e00 
00007a17 01            10956 	.byte	1
00007a18 22            10957 	.byte	34
00007a19 4d454d5f5357  10958 	.strz	"MEM_SW_PATCH_VERSION MEMMAP_SW_PATCH_VERSION"

                                                                      Page 265
                                                              C:\Users\nhuliyap\AppData\Local\Temp\gh_0000da81.s
00007a1f 5f5041544348 
00007a25 5f5645525349 
00007a2b 4f4e204d454d 
00007a31 4d41505f5357 
00007a37 5f5041544348 
00007a3d 5f5645525349 
00007a43 4f4e00 
00007a46 01            10959 	.byte	1
00007a47 24            10960 	.byte	36
00007a48 4d454d4d4150  10961 	.strz	"MEMMAP_ERROR "
00007a4e 5f4552524f52 
00007a54 2000 
00007a56 01            10962 	.byte	1
00007a57 ea02          10963 	.byte	234,2
00007a59 53544f505f53  10964 	.strz	"STOP_SEC_CODE "
00007a5f 45435f434f44 
00007a65 452000 
00007a68 03            10965 	.byte	3
00007a69 f403          10966 	.byte	244,3
00007a6b 12            10967 	.byte	18
00007a6c 04            10968 	.byte	4
00007a6d 04            10969 	.byte	4
00007a6e 04            10970 	.byte	4
00007a6f 01            10971 	.byte	1
00007a70 cb06          10972 	.byte	203,6
00007a72 525f46444c5f  10973 	.strz	"R_FDL_START_SEC_PUBLIC_CODE "
00007a78 53544152545f 
00007a7e 5345435f5055 
00007a84 424c49435f43 
00007a8a 4f44452000 
00007a8f 03            10974 	.byte	3
00007a90 cc06          10975 	.byte	204,6
00007a92 1b            10976 	.byte	27
00007a93 01            10977 	.byte	1
00007a94 0c            10978 	.byte	12
00007a95 46444c5f5354  10979 	.strz	"FDL_START_SEC_PUBLIC_CODE "
00007a9b 4152545f5345 
00007aa1 435f5055424c 
00007aa7 49435f434f44 
00007aad 452000 
00007ab0 03            10980 	.byte	3
00007ab1 20            10981 	.byte	32
00007ab2 11            10982 	.byte	17
00007ab3 01            10983 	.byte	1
00007ab4 02            10984 	.byte	2
00007ab5 4d454d4d4150  10985 	.strz	"MEMMAP_VENDOR_ID (30u)"
00007abb 5f56454e444f 
00007ac1 525f49442028 
00007ac7 3330752900 
00007acc 01            10986 	.byte	1
00007acd 08            10987 	.byte	8
00007ace 4d454d4d4150  10988 	.strz	"MEMMAP_AR_RELEASE_MAJOR_VERSION (4u)"
00007ad4 5f41525f5245 
00007ada 4c454153455f 
00007ae0 4d414a4f525f 
00007ae6 56455253494f 
00007aec 4e2028347529 
00007af2 00 
00007af3 01            10989 	.byte	1
00007af4 09            10990 	.byte	9
00007af5 4d454d4d4150  10991 	.strz	"MEMMAP_AR_RELEASE_MINOR_VERSION (0u)"

                                                                      Page 266
                                                              C:\Users\nhuliyap\AppData\Local\Temp\gh_0000da81.s
00007afb 5f41525f5245 
00007b01 4c454153455f 
00007b07 4d494e4f525f 
00007b0d 56455253494f 
00007b13 4e2028307529 
00007b19 00 
00007b1a 01            10992 	.byte	1
00007b1b 0a            10993 	.byte	10
00007b1c 4d454d4d4150  10994 	.strz	"MEMMAP_AR_RELEASE_REVISION_VERSION (3u)"
00007b22 5f41525f5245 
00007b28 4c454153455f 
00007b2e 524556495349 
00007b34 4f4e5f564552 
00007b3a 53494f4e2028 
00007b40 33752900 
00007b44 01            10995 	.byte	1
00007b45 10            10996 	.byte	16
00007b46 4d454d5f4152  10997 	.strz	"MEM_AR_RELEASE_MAJOR_VERSION MEMMAP_AR_RELEASE_MAJOR_VERSION"
00007b4c 5f52454c4541 
00007b52 53455f4d414a 
00007b58 4f525f564552 
00007b5e 53494f4e204d 
00007b64 454d4d41505f 
00007b6a 41525f52454c 
00007b70 454153455f4d 
00007b76 414a4f525f56 
00007b7c 455253494f4e 
00007b82 00 
00007b83 01            10998 	.byte	1
00007b84 11            10999 	.byte	17
00007b85 4d454d5f4152  11000 	.strz	"MEM_AR_RELEASE_MINOR_VERSION MEMMAP_AR_RELEASE_MINOR_VERSION"
00007b8b 5f52454c4541 
00007b91 53455f4d494e 
00007b97 4f525f564552 
00007b9d 53494f4e204d 
00007ba3 454d4d41505f 
00007ba9 41525f52454c 
00007baf 454153455f4d 
00007bb5 494e4f525f56 
00007bbb 455253494f4e 
00007bc1 00 
00007bc2 01            11001 	.byte	1
00007bc3 12            11002 	.byte	18
00007bc4 4d454d5f4152  11003 	.strz	"MEM_AR_RELEASE_PATCH_VERSION MEMMAP_AR_RELEASE_REVISION_VERSION"
00007bca 5f52454c4541 
00007bd0 53455f504154 
00007bd6 43485f564552 
00007bdc 53494f4e204d 
00007be2 454d4d41505f 
00007be8 41525f52454c 
00007bee 454153455f52 
00007bf4 45564953494f 
00007bfa 4e5f56455253 
00007c00 494f4e00 
00007c04 01            11004 	.byte	1
00007c05 18            11005 	.byte	24
00007c06 4d454d4d4150  11006 	.strz	"MEMMAP_SW_MAJOR_VERSION (1u)"
00007c0c 5f53575f4d41 
00007c12 4a4f525f5645 
00007c18 5253494f4e20 
00007c1e 2831752900 

                                                                      Page 267
                                                              C:\Users\nhuliyap\AppData\Local\Temp\gh_0000da81.s
00007c23 01            11007 	.byte	1
00007c24 19            11008 	.byte	25
00007c25 4d454d4d4150  11009 	.strz	"MEMMAP_SW_MINOR_VERSION (11u)"
00007c2b 5f53575f4d49 
00007c31 4e4f525f5645 
00007c37 5253494f4e20 
00007c3d 283131752900 
00007c43 01            11010 	.byte	1
00007c44 1a            11011 	.byte	26
00007c45 4d454d4d4150  11012 	.strz	"MEMMAP_SW_PATCH_VERSION (0u)"
00007c4b 5f53575f5041 
00007c51 5443485f5645 
00007c57 5253494f4e20 
00007c5d 2830752900 
00007c62 01            11013 	.byte	1
00007c63 20            11014 	.byte	32
00007c64 4d454d5f5357  11015 	.strz	"MEM_SW_MAJOR_VERSION MEMMAP_SW_MAJOR_VERSION"
00007c6a 5f4d414a4f52 
00007c70 5f5645525349 
00007c76 4f4e204d454d 
00007c7c 4d41505f5357 
00007c82 5f4d414a4f52 
00007c88 5f5645525349 
00007c8e 4f4e00 
00007c91 01            11016 	.byte	1
00007c92 21            11017 	.byte	33
00007c93 4d454d5f5357  11018 	.strz	"MEM_SW_MINOR_VERSION MEMMAP_SW_MINOR_VERSION"
00007c99 5f4d494e4f52 
00007c9f 5f5645525349 
00007ca5 4f4e204d454d 
00007cab 4d41505f5357 
00007cb1 5f4d494e4f52 
00007cb7 5f5645525349 
00007cbd 4f4e00 
00007cc0 01            11019 	.byte	1
00007cc1 22            11020 	.byte	34
00007cc2 4d454d5f5357  11021 	.strz	"MEM_SW_PATCH_VERSION MEMMAP_SW_PATCH_VERSION"
00007cc8 5f5041544348 
00007cce 5f5645525349 
00007cd4 4f4e204d454d 
00007cda 4d41505f5357 
00007ce0 5f5041544348 
00007ce6 5f5645525349 
00007cec 4f4e00 
00007cef 01            11022 	.byte	1
00007cf0 24            11023 	.byte	36
00007cf1 4d454d4d4150  11024 	.strz	"MEMMAP_ERROR "
00007cf7 5f4552524f52 
00007cfd 2000 
00007cff 01            11025 	.byte	1
00007d00 e602          11026 	.byte	230,2
00007d02 53544152545f  11027 	.strz	"START_SEC_CODE "
00007d08 5345435f434f 
00007d0e 44452000 
00007d12 03            11028 	.byte	3
00007d13 f403          11029 	.byte	244,3
00007d15 12            11030 	.byte	18
00007d16 01            11031 	.byte	1
00007d17 f307          11032 	.byte	243,7
00007d19 434f44455f53  11033 	.strz	"CODE_SEC_OPEN "
00007d1f 45435f4f5045 

                                                                      Page 268
                                                              C:\Users\nhuliyap\AppData\Local\Temp\gh_0000da81.s
00007d25 4e2000 
00007d28 04            11034 	.byte	4
00007d29 04            11035 	.byte	4
00007d2a 04            11036 	.byte	4
00007d2b 01            11037 	.byte	1
00007d2c e106          11038 	.byte	225,6
00007d2e 525f46444c5f  11039 	.strz	"R_FDL_STOP_SEC_PUBLIC_CODE "
00007d34 53544f505f53 
00007d3a 45435f505542 
00007d40 4c49435f434f 
00007d46 44452000 
00007d4a 03            11040 	.byte	3
00007d4b e206          11041 	.byte	226,6
00007d4d 1b            11042 	.byte	27
00007d4e 01            11043 	.byte	1
00007d4f 0f            11044 	.byte	15
00007d50 46444c5f5354  11045 	.strz	"FDL_STOP_SEC_PUBLIC_CODE "
00007d56 4f505f534543 
00007d5c 5f5055424c49 
00007d62 435f434f4445 
00007d68 2000 
00007d6a 03            11046 	.byte	3
00007d6b 20            11047 	.byte	32
00007d6c 11            11048 	.byte	17
00007d6d 01            11049 	.byte	1
00007d6e 02            11050 	.byte	2
00007d6f 4d454d4d4150  11051 	.strz	"MEMMAP_VENDOR_ID (30u)"
00007d75 5f56454e444f 
00007d7b 525f49442028 
00007d81 3330752900 
00007d86 01            11052 	.byte	1
00007d87 08            11053 	.byte	8
00007d88 4d454d4d4150  11054 	.strz	"MEMMAP_AR_RELEASE_MAJOR_VERSION (4u)"
00007d8e 5f41525f5245 
00007d94 4c454153455f 
00007d9a 4d414a4f525f 
00007da0 56455253494f 
00007da6 4e2028347529 
00007dac 00 
00007dad 01            11055 	.byte	1
00007dae 09            11056 	.byte	9
00007daf 4d454d4d4150  11057 	.strz	"MEMMAP_AR_RELEASE_MINOR_VERSION (0u)"
00007db5 5f41525f5245 
00007dbb 4c454153455f 
00007dc1 4d494e4f525f 
00007dc7 56455253494f 
00007dcd 4e2028307529 
00007dd3 00 
00007dd4 01            11058 	.byte	1
00007dd5 0a            11059 	.byte	10
00007dd6 4d454d4d4150  11060 	.strz	"MEMMAP_AR_RELEASE_REVISION_VERSION (3u)"
00007ddc 5f41525f5245 
00007de2 4c454153455f 
00007de8 524556495349 
00007dee 4f4e5f564552 
00007df4 53494f4e2028 
00007dfa 33752900 
00007dfe 01            11061 	.byte	1
00007dff 10            11062 	.byte	16
00007e00 4d454d5f4152  11063 	.strz	"MEM_AR_RELEASE_MAJOR_VERSION MEMMAP_AR_RELEASE_MAJOR_VERSION"
00007e06 5f52454c4541 

                                                                      Page 269
                                                              C:\Users\nhuliyap\AppData\Local\Temp\gh_0000da81.s
00007e0c 53455f4d414a 
00007e12 4f525f564552 
00007e18 53494f4e204d 
00007e1e 454d4d41505f 
00007e24 41525f52454c 
00007e2a 454153455f4d 
00007e30 414a4f525f56 
00007e36 455253494f4e 
00007e3c 00 
00007e3d 01            11064 	.byte	1
00007e3e 11            11065 	.byte	17
00007e3f 4d454d5f4152  11066 	.strz	"MEM_AR_RELEASE_MINOR_VERSION MEMMAP_AR_RELEASE_MINOR_VERSION"
00007e45 5f52454c4541 
00007e4b 53455f4d494e 
00007e51 4f525f564552 
00007e57 53494f4e204d 
00007e5d 454d4d41505f 
00007e63 41525f52454c 
00007e69 454153455f4d 
00007e6f 494e4f525f56 
00007e75 455253494f4e 
00007e7b 00 
00007e7c 01            11067 	.byte	1
00007e7d 12            11068 	.byte	18
00007e7e 4d454d5f4152  11069 	.strz	"MEM_AR_RELEASE_PATCH_VERSION MEMMAP_AR_RELEASE_REVISION_VERSION"
00007e84 5f52454c4541 
00007e8a 53455f504154 
00007e90 43485f564552 
00007e96 53494f4e204d 
00007e9c 454d4d41505f 
00007ea2 41525f52454c 
00007ea8 454153455f52 
00007eae 45564953494f 
00007eb4 4e5f56455253 
00007eba 494f4e00 
00007ebe 01            11070 	.byte	1
00007ebf 18            11071 	.byte	24
00007ec0 4d454d4d4150  11072 	.strz	"MEMMAP_SW_MAJOR_VERSION (1u)"
00007ec6 5f53575f4d41 
00007ecc 4a4f525f5645 
00007ed2 5253494f4e20 
00007ed8 2831752900 
00007edd 01            11073 	.byte	1
00007ede 19            11074 	.byte	25
00007edf 4d454d4d4150  11075 	.strz	"MEMMAP_SW_MINOR_VERSION (11u)"
00007ee5 5f53575f4d49 
00007eeb 4e4f525f5645 
00007ef1 5253494f4e20 
00007ef7 283131752900 
00007efd 01            11076 	.byte	1
00007efe 1a            11077 	.byte	26
00007eff 4d454d4d4150  11078 	.strz	"MEMMAP_SW_PATCH_VERSION (0u)"
00007f05 5f53575f5041 
00007f0b 5443485f5645 
00007f11 5253494f4e20 
00007f17 2830752900 
00007f1c 01            11079 	.byte	1
00007f1d 20            11080 	.byte	32
00007f1e 4d454d5f5357  11081 	.strz	"MEM_SW_MAJOR_VERSION MEMMAP_SW_MAJOR_VERSION"
00007f24 5f4d414a4f52 
00007f2a 5f5645525349 

                                                                      Page 270
                                                              C:\Users\nhuliyap\AppData\Local\Temp\gh_0000da81.s
00007f30 4f4e204d454d 
00007f36 4d41505f5357 
00007f3c 5f4d414a4f52 
00007f42 5f5645525349 
00007f48 4f4e00 
00007f4b 01            11082 	.byte	1
00007f4c 21            11083 	.byte	33
00007f4d 4d454d5f5357  11084 	.strz	"MEM_SW_MINOR_VERSION MEMMAP_SW_MINOR_VERSION"
00007f53 5f4d494e4f52 
00007f59 5f5645525349 
00007f5f 4f4e204d454d 
00007f65 4d41505f5357 
00007f6b 5f4d494e4f52 
00007f71 5f5645525349 
00007f77 4f4e00 
00007f7a 01            11085 	.byte	1
00007f7b 22            11086 	.byte	34
00007f7c 4d454d5f5357  11087 	.strz	"MEM_SW_PATCH_VERSION MEMMAP_SW_PATCH_VERSION"
00007f82 5f5041544348 
00007f88 5f5645525349 
00007f8e 4f4e204d454d 
00007f94 4d41505f5357 
00007f9a 5f5041544348 
00007fa0 5f5645525349 
00007fa6 4f4e00 
00007fa9 01            11088 	.byte	1
00007faa 24            11089 	.byte	36
00007fab 4d454d4d4150  11090 	.strz	"MEMMAP_ERROR "
00007fb1 5f4552524f52 
00007fb7 2000 
00007fb9 01            11091 	.byte	1
00007fba ea02          11092 	.byte	234,2
00007fbc 53544f505f53  11093 	.strz	"STOP_SEC_CODE "
00007fc2 45435f434f44 
00007fc8 452000 
00007fcb 03            11094 	.byte	3
00007fcc f403          11095 	.byte	244,3
00007fce 12            11096 	.byte	18
00007fcf 04            11097 	.byte	4
00007fd0 04            11098 	.byte	4
00007fd1 04            11099 	.byte	4
00007fd2 01            11100 	.byte	1
00007fd3 e406          11101 	.byte	228,6
00007fd5 525f46444c5f  11102 	.strz	"R_FDL_START_SEC_PUBLIC_CODE "
00007fdb 53544152545f 
00007fe1 5345435f5055 
00007fe7 424c49435f43 
00007fed 4f44452000 
00007ff2 03            11103 	.byte	3
00007ff3 e506          11104 	.byte	229,6
00007ff5 1b            11105 	.byte	27
00007ff6 01            11106 	.byte	1
00007ff7 0c            11107 	.byte	12
00007ff8 46444c5f5354  11108 	.strz	"FDL_START_SEC_PUBLIC_CODE "
00007ffe 4152545f5345 
00008004 435f5055424c 
0000800a 49435f434f44 
00008010 452000 
00008013 03            11109 	.byte	3
00008014 20            11110 	.byte	32
00008015 11            11111 	.byte	17

                                                                      Page 271
                                                              C:\Users\nhuliyap\AppData\Local\Temp\gh_0000da81.s
00008016 01            11112 	.byte	1
00008017 02            11113 	.byte	2
00008018 4d454d4d4150  11114 	.strz	"MEMMAP_VENDOR_ID (30u)"
0000801e 5f56454e444f 
00008024 525f49442028 
0000802a 3330752900 
0000802f 01            11115 	.byte	1
00008030 08            11116 	.byte	8
00008031 4d454d4d4150  11117 	.strz	"MEMMAP_AR_RELEASE_MAJOR_VERSION (4u)"
00008037 5f41525f5245 
0000803d 4c454153455f 
00008043 4d414a4f525f 
00008049 56455253494f 
0000804f 4e2028347529 
00008055 00 
00008056 01            11118 	.byte	1
00008057 09            11119 	.byte	9
00008058 4d454d4d4150  11120 	.strz	"MEMMAP_AR_RELEASE_MINOR_VERSION (0u)"
0000805e 5f41525f5245 
00008064 4c454153455f 
0000806a 4d494e4f525f 
00008070 56455253494f 
00008076 4e2028307529 
0000807c 00 
0000807d 01            11121 	.byte	1
0000807e 0a            11122 	.byte	10
0000807f 4d454d4d4150  11123 	.strz	"MEMMAP_AR_RELEASE_REVISION_VERSION (3u)"
00008085 5f41525f5245 
0000808b 4c454153455f 
00008091 524556495349 
00008097 4f4e5f564552 
0000809d 53494f4e2028 
000080a3 33752900 
000080a7 01            11124 	.byte	1
000080a8 10            11125 	.byte	16
000080a9 4d454d5f4152  11126 	.strz	"MEM_AR_RELEASE_MAJOR_VERSION MEMMAP_AR_RELEASE_MAJOR_VERSION"
000080af 5f52454c4541 
000080b5 53455f4d414a 
000080bb 4f525f564552 
000080c1 53494f4e204d 
000080c7 454d4d41505f 
000080cd 41525f52454c 
000080d3 454153455f4d 
000080d9 414a4f525f56 
000080df 455253494f4e 
000080e5 00 
000080e6 01            11127 	.byte	1
000080e7 11            11128 	.byte	17
000080e8 4d454d5f4152  11129 	.strz	"MEM_AR_RELEASE_MINOR_VERSION MEMMAP_AR_RELEASE_MINOR_VERSION"
000080ee 5f52454c4541 
000080f4 53455f4d494e 
000080fa 4f525f564552 
00008100 53494f4e204d 
00008106 454d4d41505f 
0000810c 41525f52454c 
00008112 454153455f4d 
00008118 494e4f525f56 
0000811e 455253494f4e 
00008124 00 
00008125 01            11130 	.byte	1
00008126 12            11131 	.byte	18

                                                                      Page 272
                                                              C:\Users\nhuliyap\AppData\Local\Temp\gh_0000da81.s
00008127 4d454d5f4152  11132 	.strz	"MEM_AR_RELEASE_PATCH_VERSION MEMMAP_AR_RELEASE_REVISION_VERSION"
0000812d 5f52454c4541 
00008133 53455f504154 
00008139 43485f564552 
0000813f 53494f4e204d 
00008145 454d4d41505f 
0000814b 41525f52454c 
00008151 454153455f52 
00008157 45564953494f 
0000815d 4e5f56455253 
00008163 494f4e00 
00008167 01            11133 	.byte	1
00008168 18            11134 	.byte	24
00008169 4d454d4d4150  11135 	.strz	"MEMMAP_SW_MAJOR_VERSION (1u)"
0000816f 5f53575f4d41 
00008175 4a4f525f5645 
0000817b 5253494f4e20 
00008181 2831752900 
00008186 01            11136 	.byte	1
00008187 19            11137 	.byte	25
00008188 4d454d4d4150  11138 	.strz	"MEMMAP_SW_MINOR_VERSION (11u)"
0000818e 5f53575f4d49 
00008194 4e4f525f5645 
0000819a 5253494f4e20 
000081a0 283131752900 
000081a6 01            11139 	.byte	1
000081a7 1a            11140 	.byte	26
000081a8 4d454d4d4150  11141 	.strz	"MEMMAP_SW_PATCH_VERSION (0u)"
000081ae 5f53575f5041 
000081b4 5443485f5645 
000081ba 5253494f4e20 
000081c0 2830752900 
000081c5 01            11142 	.byte	1
000081c6 20            11143 	.byte	32
000081c7 4d454d5f5357  11144 	.strz	"MEM_SW_MAJOR_VERSION MEMMAP_SW_MAJOR_VERSION"
000081cd 5f4d414a4f52 
000081d3 5f5645525349 
000081d9 4f4e204d454d 
000081df 4d41505f5357 
000081e5 5f4d414a4f52 
000081eb 5f5645525349 
000081f1 4f4e00 
000081f4 01            11145 	.byte	1
000081f5 21            11146 	.byte	33
000081f6 4d454d5f5357  11147 	.strz	"MEM_SW_MINOR_VERSION MEMMAP_SW_MINOR_VERSION"
000081fc 5f4d494e4f52 
00008202 5f5645525349 
00008208 4f4e204d454d 
0000820e 4d41505f5357 
00008214 5f4d494e4f52 
0000821a 5f5645525349 
00008220 4f4e00 
00008223 01            11148 	.byte	1
00008224 22            11149 	.byte	34
00008225 4d454d5f5357  11150 	.strz	"MEM_SW_PATCH_VERSION MEMMAP_SW_PATCH_VERSION"
0000822b 5f5041544348 
00008231 5f5645525349 
00008237 4f4e204d454d 
0000823d 4d41505f5357 
00008243 5f5041544348 
00008249 5f5645525349 

                                                                      Page 273
                                                              C:\Users\nhuliyap\AppData\Local\Temp\gh_0000da81.s
0000824f 4f4e00 
00008252 01            11151 	.byte	1
00008253 24            11152 	.byte	36
00008254 4d454d4d4150  11153 	.strz	"MEMMAP_ERROR "
0000825a 5f4552524f52 
00008260 2000 
00008262 01            11154 	.byte	1
00008263 e602          11155 	.byte	230,2
00008265 53544152545f  11156 	.strz	"START_SEC_CODE "
0000826b 5345435f434f 
00008271 44452000 
00008275 03            11157 	.byte	3
00008276 f403          11158 	.byte	244,3
00008278 12            11159 	.byte	18
00008279 01            11160 	.byte	1
0000827a f307          11161 	.byte	243,7
0000827c 434f44455f53  11162 	.strz	"CODE_SEC_OPEN "
00008282 45435f4f5045 
00008288 4e2000 
0000828b 04            11163 	.byte	4
0000828c 04            11164 	.byte	4
0000828d 04            11165 	.byte	4
0000828e 01            11166 	.byte	1
0000828f 8907          11167 	.byte	137,7
00008291 525f46444c5f  11168 	.strz	"R_FDL_STOP_SEC_PUBLIC_CODE "
00008297 53544f505f53 
0000829d 45435f505542 
000082a3 4c49435f434f 
000082a9 44452000 
000082ad 03            11169 	.byte	3
000082ae 8a07          11170 	.byte	138,7
000082b0 1b            11171 	.byte	27
000082b1 01            11172 	.byte	1
000082b2 0f            11173 	.byte	15
000082b3 46444c5f5354  11174 	.strz	"FDL_STOP_SEC_PUBLIC_CODE "
000082b9 4f505f534543 
000082bf 5f5055424c49 
000082c5 435f434f4445 
000082cb 2000 
000082cd 03            11175 	.byte	3
000082ce 20            11176 	.byte	32
000082cf 11            11177 	.byte	17
000082d0 01            11178 	.byte	1
000082d1 02            11179 	.byte	2
000082d2 4d454d4d4150  11180 	.strz	"MEMMAP_VENDOR_ID (30u)"
000082d8 5f56454e444f 
000082de 525f49442028 
000082e4 3330752900 
000082e9 01            11181 	.byte	1
000082ea 08            11182 	.byte	8
000082eb 4d454d4d4150  11183 	.strz	"MEMMAP_AR_RELEASE_MAJOR_VERSION (4u)"
000082f1 5f41525f5245 
000082f7 4c454153455f 
000082fd 4d414a4f525f 
00008303 56455253494f 
00008309 4e2028347529 
0000830f 00 
00008310 01            11184 	.byte	1
00008311 09            11185 	.byte	9
00008312 4d454d4d4150  11186 	.strz	"MEMMAP_AR_RELEASE_MINOR_VERSION (0u)"
00008318 5f41525f5245 

                                                                      Page 274
                                                              C:\Users\nhuliyap\AppData\Local\Temp\gh_0000da81.s
0000831e 4c454153455f 
00008324 4d494e4f525f 
0000832a 56455253494f 
00008330 4e2028307529 
00008336 00 
00008337 01            11187 	.byte	1
00008338 0a            11188 	.byte	10
00008339 4d454d4d4150  11189 	.strz	"MEMMAP_AR_RELEASE_REVISION_VERSION (3u)"
0000833f 5f41525f5245 
00008345 4c454153455f 
0000834b 524556495349 
00008351 4f4e5f564552 
00008357 53494f4e2028 
0000835d 33752900 
00008361 01            11190 	.byte	1
00008362 10            11191 	.byte	16
00008363 4d454d5f4152  11192 	.strz	"MEM_AR_RELEASE_MAJOR_VERSION MEMMAP_AR_RELEASE_MAJOR_VERSION"
00008369 5f52454c4541 
0000836f 53455f4d414a 
00008375 4f525f564552 
0000837b 53494f4e204d 
00008381 454d4d41505f 
00008387 41525f52454c 
0000838d 454153455f4d 
00008393 414a4f525f56 
00008399 455253494f4e 
0000839f 00 
000083a0 01            11193 	.byte	1
000083a1 11            11194 	.byte	17
000083a2 4d454d5f4152  11195 	.strz	"MEM_AR_RELEASE_MINOR_VERSION MEMMAP_AR_RELEASE_MINOR_VERSION"
000083a8 5f52454c4541 
000083ae 53455f4d494e 
000083b4 4f525f564552 
000083ba 53494f4e204d 
000083c0 454d4d41505f 
000083c6 41525f52454c 
000083cc 454153455f4d 
000083d2 494e4f525f56 
000083d8 455253494f4e 
000083de 00 
000083df 01            11196 	.byte	1
000083e0 12            11197 	.byte	18
000083e1 4d454d5f4152  11198 	.strz	"MEM_AR_RELEASE_PATCH_VERSION MEMMAP_AR_RELEASE_REVISION_VERSION"
000083e7 5f52454c4541 
000083ed 53455f504154 
000083f3 43485f564552 
000083f9 53494f4e204d 
000083ff 454d4d41505f 
00008405 41525f52454c 
0000840b 454153455f52 
00008411 45564953494f 
00008417 4e5f56455253 
0000841d 494f4e00 
00008421 01            11199 	.byte	1
00008422 18            11200 	.byte	24
00008423 4d454d4d4150  11201 	.strz	"MEMMAP_SW_MAJOR_VERSION (1u)"
00008429 5f53575f4d41 
0000842f 4a4f525f5645 
00008435 5253494f4e20 
0000843b 2831752900 
00008440 01            11202 	.byte	1

                                                                      Page 275
                                                              C:\Users\nhuliyap\AppData\Local\Temp\gh_0000da81.s
00008441 19            11203 	.byte	25
00008442 4d454d4d4150  11204 	.strz	"MEMMAP_SW_MINOR_VERSION (11u)"
00008448 5f53575f4d49 
0000844e 4e4f525f5645 
00008454 5253494f4e20 
0000845a 283131752900 
00008460 01            11205 	.byte	1
00008461 1a            11206 	.byte	26
00008462 4d454d4d4150  11207 	.strz	"MEMMAP_SW_PATCH_VERSION (0u)"
00008468 5f53575f5041 
0000846e 5443485f5645 
00008474 5253494f4e20 
0000847a 2830752900 
0000847f 01            11208 	.byte	1
00008480 20            11209 	.byte	32
00008481 4d454d5f5357  11210 	.strz	"MEM_SW_MAJOR_VERSION MEMMAP_SW_MAJOR_VERSION"
00008487 5f4d414a4f52 
0000848d 5f5645525349 
00008493 4f4e204d454d 
00008499 4d41505f5357 
0000849f 5f4d414a4f52 
000084a5 5f5645525349 
000084ab 4f4e00 
000084ae 01            11211 	.byte	1
000084af 21            11212 	.byte	33
000084b0 4d454d5f5357  11213 	.strz	"MEM_SW_MINOR_VERSION MEMMAP_SW_MINOR_VERSION"
000084b6 5f4d494e4f52 
000084bc 5f5645525349 
000084c2 4f4e204d454d 
000084c8 4d41505f5357 
000084ce 5f4d494e4f52 
000084d4 5f5645525349 
000084da 4f4e00 
000084dd 01            11214 	.byte	1
000084de 22            11215 	.byte	34
000084df 4d454d5f5357  11216 	.strz	"MEM_SW_PATCH_VERSION MEMMAP_SW_PATCH_VERSION"
000084e5 5f5041544348 
000084eb 5f5645525349 
000084f1 4f4e204d454d 
000084f7 4d41505f5357 
000084fd 5f5041544348 
00008503 5f5645525349 
00008509 4f4e00 
0000850c 01            11217 	.byte	1
0000850d 24            11218 	.byte	36
0000850e 4d454d4d4150  11219 	.strz	"MEMMAP_ERROR "
00008514 5f4552524f52 
0000851a 2000 
0000851c 01            11220 	.byte	1
0000851d ea02          11221 	.byte	234,2
0000851f 53544f505f53  11222 	.strz	"STOP_SEC_CODE "
00008525 45435f434f44 
0000852b 452000 
0000852e 03            11223 	.byte	3
0000852f f403          11224 	.byte	244,3
00008531 12            11225 	.byte	18
00008532 04            11226 	.byte	4
00008533 04            11227 	.byte	4
00008534 04            11228 	.byte	4
00008535 01            11229 	.byte	1
00008536 8c07          11230 	.byte	140,7

                                                                      Page 276
                                                              C:\Users\nhuliyap\AppData\Local\Temp\gh_0000da81.s
00008538 525f46444c5f  11231 	.strz	"R_FDL_START_SEC_PUBLIC_CODE "
0000853e 53544152545f 
00008544 5345435f5055 
0000854a 424c49435f43 
00008550 4f44452000 
00008555 03            11232 	.byte	3
00008556 8d07          11233 	.byte	141,7
00008558 1b            11234 	.byte	27
00008559 01            11235 	.byte	1
0000855a 0c            11236 	.byte	12
0000855b 46444c5f5354  11237 	.strz	"FDL_START_SEC_PUBLIC_CODE "
00008561 4152545f5345 
00008567 435f5055424c 
0000856d 49435f434f44 
00008573 452000 
00008576 03            11238 	.byte	3
00008577 20            11239 	.byte	32
00008578 11            11240 	.byte	17
00008579 01            11241 	.byte	1
0000857a 02            11242 	.byte	2
0000857b 4d454d4d4150  11243 	.strz	"MEMMAP_VENDOR_ID (30u)"
00008581 5f56454e444f 
00008587 525f49442028 
0000858d 3330752900 
00008592 01            11244 	.byte	1
00008593 08            11245 	.byte	8
00008594 4d454d4d4150  11246 	.strz	"MEMMAP_AR_RELEASE_MAJOR_VERSION (4u)"
0000859a 5f41525f5245 
000085a0 4c454153455f 
000085a6 4d414a4f525f 
000085ac 56455253494f 
000085b2 4e2028347529 
000085b8 00 
000085b9 01            11247 	.byte	1
000085ba 09            11248 	.byte	9
000085bb 4d454d4d4150  11249 	.strz	"MEMMAP_AR_RELEASE_MINOR_VERSION (0u)"
000085c1 5f41525f5245 
000085c7 4c454153455f 
000085cd 4d494e4f525f 
000085d3 56455253494f 
000085d9 4e2028307529 
000085df 00 
000085e0 01            11250 	.byte	1
000085e1 0a            11251 	.byte	10
000085e2 4d454d4d4150  11252 	.strz	"MEMMAP_AR_RELEASE_REVISION_VERSION (3u)"
000085e8 5f41525f5245 
000085ee 4c454153455f 
000085f4 524556495349 
000085fa 4f4e5f564552 
00008600 53494f4e2028 
00008606 33752900 
0000860a 01            11253 	.byte	1
0000860b 10            11254 	.byte	16
0000860c 4d454d5f4152  11255 	.strz	"MEM_AR_RELEASE_MAJOR_VERSION MEMMAP_AR_RELEASE_MAJOR_VERSION"
00008612 5f52454c4541 
00008618 53455f4d414a 
0000861e 4f525f564552 
00008624 53494f4e204d 
0000862a 454d4d41505f 
00008630 41525f52454c 
00008636 454153455f4d 

                                                                      Page 277
                                                              C:\Users\nhuliyap\AppData\Local\Temp\gh_0000da81.s
0000863c 414a4f525f56 
00008642 455253494f4e 
00008648 00 
00008649 01            11256 	.byte	1
0000864a 11            11257 	.byte	17
0000864b 4d454d5f4152  11258 	.strz	"MEM_AR_RELEASE_MINOR_VERSION MEMMAP_AR_RELEASE_MINOR_VERSION"
00008651 5f52454c4541 
00008657 53455f4d494e 
0000865d 4f525f564552 
00008663 53494f4e204d 
00008669 454d4d41505f 
0000866f 41525f52454c 
00008675 454153455f4d 
0000867b 494e4f525f56 
00008681 455253494f4e 
00008687 00 
00008688 01            11259 	.byte	1
00008689 12            11260 	.byte	18
0000868a 4d454d5f4152  11261 	.strz	"MEM_AR_RELEASE_PATCH_VERSION MEMMAP_AR_RELEASE_REVISION_VERSION"
00008690 5f52454c4541 
00008696 53455f504154 
0000869c 43485f564552 
000086a2 53494f4e204d 
000086a8 454d4d41505f 
000086ae 41525f52454c 
000086b4 454153455f52 
000086ba 45564953494f 
000086c0 4e5f56455253 
000086c6 494f4e00 
000086ca 01            11262 	.byte	1
000086cb 18            11263 	.byte	24
000086cc 4d454d4d4150  11264 	.strz	"MEMMAP_SW_MAJOR_VERSION (1u)"
000086d2 5f53575f4d41 
000086d8 4a4f525f5645 
000086de 5253494f4e20 
000086e4 2831752900 
000086e9 01            11265 	.byte	1
000086ea 19            11266 	.byte	25
000086eb 4d454d4d4150  11267 	.strz	"MEMMAP_SW_MINOR_VERSION (11u)"
000086f1 5f53575f4d49 
000086f7 4e4f525f5645 
000086fd 5253494f4e20 
00008703 283131752900 
00008709 01            11268 	.byte	1
0000870a 1a            11269 	.byte	26
0000870b 4d454d4d4150  11270 	.strz	"MEMMAP_SW_PATCH_VERSION (0u)"
00008711 5f53575f5041 
00008717 5443485f5645 
0000871d 5253494f4e20 
00008723 2830752900 
00008728 01            11271 	.byte	1
00008729 20            11272 	.byte	32
0000872a 4d454d5f5357  11273 	.strz	"MEM_SW_MAJOR_VERSION MEMMAP_SW_MAJOR_VERSION"
00008730 5f4d414a4f52 
00008736 5f5645525349 
0000873c 4f4e204d454d 
00008742 4d41505f5357 
00008748 5f4d414a4f52 
0000874e 5f5645525349 
00008754 4f4e00 
00008757 01            11274 	.byte	1

                                                                      Page 278
                                                              C:\Users\nhuliyap\AppData\Local\Temp\gh_0000da81.s
00008758 21            11275 	.byte	33
00008759 4d454d5f5357  11276 	.strz	"MEM_SW_MINOR_VERSION MEMMAP_SW_MINOR_VERSION"
0000875f 5f4d494e4f52 
00008765 5f5645525349 
0000876b 4f4e204d454d 
00008771 4d41505f5357 
00008777 5f4d494e4f52 
0000877d 5f5645525349 
00008783 4f4e00 
00008786 01            11277 	.byte	1
00008787 22            11278 	.byte	34
00008788 4d454d5f5357  11279 	.strz	"MEM_SW_PATCH_VERSION MEMMAP_SW_PATCH_VERSION"
0000878e 5f5041544348 
00008794 5f5645525349 
0000879a 4f4e204d454d 
000087a0 4d41505f5357 
000087a6 5f5041544348 
000087ac 5f5645525349 
000087b2 4f4e00 
000087b5 01            11280 	.byte	1
000087b6 24            11281 	.byte	36
000087b7 4d454d4d4150  11282 	.strz	"MEMMAP_ERROR "
000087bd 5f4552524f52 
000087c3 2000 
000087c5 01            11283 	.byte	1
000087c6 e602          11284 	.byte	230,2
000087c8 53544152545f  11285 	.strz	"START_SEC_CODE "
000087ce 5345435f434f 
000087d4 44452000 
000087d8 03            11286 	.byte	3
000087d9 f403          11287 	.byte	244,3
000087db 12            11288 	.byte	18
000087dc 01            11289 	.byte	1
000087dd f307          11290 	.byte	243,7
000087df 434f44455f53  11291 	.strz	"CODE_SEC_OPEN "
000087e5 45435f4f5045 
000087eb 4e2000 
000087ee 04            11292 	.byte	4
000087ef 04            11293 	.byte	4
000087f0 04            11294 	.byte	4
000087f1 01            11295 	.byte	1
000087f2 b008          11296 	.byte	176,8
000087f4 525f46444c5f  11297 	.strz	"R_FDL_STOP_SEC_PUBLIC_CODE "
000087fa 53544f505f53 
00008800 45435f505542 
00008806 4c49435f434f 
0000880c 44452000 
00008810 03            11298 	.byte	3
00008811 b108          11299 	.byte	177,8
00008813 1b            11300 	.byte	27
00008814 01            11301 	.byte	1
00008815 0f            11302 	.byte	15
00008816 46444c5f5354  11303 	.strz	"FDL_STOP_SEC_PUBLIC_CODE "
0000881c 4f505f534543 
00008822 5f5055424c49 
00008828 435f434f4445 
0000882e 2000 
00008830 03            11304 	.byte	3
00008831 20            11305 	.byte	32
00008832 11            11306 	.byte	17
00008833 01            11307 	.byte	1

                                                                      Page 279
                                                              C:\Users\nhuliyap\AppData\Local\Temp\gh_0000da81.s
00008834 02            11308 	.byte	2
00008835 4d454d4d4150  11309 	.strz	"MEMMAP_VENDOR_ID (30u)"
0000883b 5f56454e444f 
00008841 525f49442028 
00008847 3330752900 
0000884c 01            11310 	.byte	1
0000884d 08            11311 	.byte	8
0000884e 4d454d4d4150  11312 	.strz	"MEMMAP_AR_RELEASE_MAJOR_VERSION (4u)"
00008854 5f41525f5245 
0000885a 4c454153455f 
00008860 4d414a4f525f 
00008866 56455253494f 
0000886c 4e2028347529 
00008872 00 
00008873 01            11313 	.byte	1
00008874 09            11314 	.byte	9
00008875 4d454d4d4150  11315 	.strz	"MEMMAP_AR_RELEASE_MINOR_VERSION (0u)"
0000887b 5f41525f5245 
00008881 4c454153455f 
00008887 4d494e4f525f 
0000888d 56455253494f 
00008893 4e2028307529 
00008899 00 
0000889a 01            11316 	.byte	1
0000889b 0a            11317 	.byte	10
0000889c 4d454d4d4150  11318 	.strz	"MEMMAP_AR_RELEASE_REVISION_VERSION (3u)"
000088a2 5f41525f5245 
000088a8 4c454153455f 
000088ae 524556495349 
000088b4 4f4e5f564552 
000088ba 53494f4e2028 
000088c0 33752900 
000088c4 01            11319 	.byte	1
000088c5 10            11320 	.byte	16
000088c6 4d454d5f4152  11321 	.strz	"MEM_AR_RELEASE_MAJOR_VERSION MEMMAP_AR_RELEASE_MAJOR_VERSION"
000088cc 5f52454c4541 
000088d2 53455f4d414a 
000088d8 4f525f564552 
000088de 53494f4e204d 
000088e4 454d4d41505f 
000088ea 41525f52454c 
000088f0 454153455f4d 
000088f6 414a4f525f56 
000088fc 455253494f4e 
00008902 00 
00008903 01            11322 	.byte	1
00008904 11            11323 	.byte	17
00008905 4d454d5f4152  11324 	.strz	"MEM_AR_RELEASE_MINOR_VERSION MEMMAP_AR_RELEASE_MINOR_VERSION"
0000890b 5f52454c4541 
00008911 53455f4d494e 
00008917 4f525f564552 
0000891d 53494f4e204d 
00008923 454d4d41505f 
00008929 41525f52454c 
0000892f 454153455f4d 
00008935 494e4f525f56 
0000893b 455253494f4e 
00008941 00 
00008942 01            11325 	.byte	1
00008943 12            11326 	.byte	18
00008944 4d454d5f4152  11327 	.strz	"MEM_AR_RELEASE_PATCH_VERSION MEMMAP_AR_RELEASE_REVISION_VERSION"

                                                                      Page 280
                                                              C:\Users\nhuliyap\AppData\Local\Temp\gh_0000da81.s
0000894a 5f52454c4541 
00008950 53455f504154 
00008956 43485f564552 
0000895c 53494f4e204d 
00008962 454d4d41505f 
00008968 41525f52454c 
0000896e 454153455f52 
00008974 45564953494f 
0000897a 4e5f56455253 
00008980 494f4e00 
00008984 01            11328 	.byte	1
00008985 18            11329 	.byte	24
00008986 4d454d4d4150  11330 	.strz	"MEMMAP_SW_MAJOR_VERSION (1u)"
0000898c 5f53575f4d41 
00008992 4a4f525f5645 
00008998 5253494f4e20 
0000899e 2831752900 
000089a3 01            11331 	.byte	1
000089a4 19            11332 	.byte	25
000089a5 4d454d4d4150  11333 	.strz	"MEMMAP_SW_MINOR_VERSION (11u)"
000089ab 5f53575f4d49 
000089b1 4e4f525f5645 
000089b7 5253494f4e20 
000089bd 283131752900 
000089c3 01            11334 	.byte	1
000089c4 1a            11335 	.byte	26
000089c5 4d454d4d4150  11336 	.strz	"MEMMAP_SW_PATCH_VERSION (0u)"
000089cb 5f53575f5041 
000089d1 5443485f5645 
000089d7 5253494f4e20 
000089dd 2830752900 
000089e2 01            11337 	.byte	1
000089e3 20            11338 	.byte	32
000089e4 4d454d5f5357  11339 	.strz	"MEM_SW_MAJOR_VERSION MEMMAP_SW_MAJOR_VERSION"
000089ea 5f4d414a4f52 
000089f0 5f5645525349 
000089f6 4f4e204d454d 
000089fc 4d41505f5357 
00008a02 5f4d414a4f52 
00008a08 5f5645525349 
00008a0e 4f4e00 
00008a11 01            11340 	.byte	1
00008a12 21            11341 	.byte	33
00008a13 4d454d5f5357  11342 	.strz	"MEM_SW_MINOR_VERSION MEMMAP_SW_MINOR_VERSION"
00008a19 5f4d494e4f52 
00008a1f 5f5645525349 
00008a25 4f4e204d454d 
00008a2b 4d41505f5357 
00008a31 5f4d494e4f52 
00008a37 5f5645525349 
00008a3d 4f4e00 
00008a40 01            11343 	.byte	1
00008a41 22            11344 	.byte	34
00008a42 4d454d5f5357  11345 	.strz	"MEM_SW_PATCH_VERSION MEMMAP_SW_PATCH_VERSION"
00008a48 5f5041544348 
00008a4e 5f5645525349 
00008a54 4f4e204d454d 
00008a5a 4d41505f5357 
00008a60 5f5041544348 
00008a66 5f5645525349 
00008a6c 4f4e00 

                                                                      Page 281
                                                              C:\Users\nhuliyap\AppData\Local\Temp\gh_0000da81.s
00008a6f 01            11346 	.byte	1
00008a70 24            11347 	.byte	36
00008a71 4d454d4d4150  11348 	.strz	"MEMMAP_ERROR "
00008a77 5f4552524f52 
00008a7d 2000 
00008a7f 01            11349 	.byte	1
00008a80 ea02          11350 	.byte	234,2
00008a82 53544f505f53  11351 	.strz	"STOP_SEC_CODE "
00008a88 45435f434f44 
00008a8e 452000 
00008a91 03            11352 	.byte	3
00008a92 f403          11353 	.byte	244,3
00008a94 12            11354 	.byte	18
00008a95 04            11355 	.byte	4
00008a96 04            11356 	.byte	4
00008a97 04            11357 	.byte	4
00008a98 01            11358 	.byte	1
00008a99 b308          11359 	.byte	179,8
00008a9b 525f46444c5f  11360 	.strz	"R_FDL_START_SEC_PUBLIC_CODE "
00008aa1 53544152545f 
00008aa7 5345435f5055 
00008aad 424c49435f43 
00008ab3 4f44452000 
00008ab8 03            11361 	.byte	3
00008ab9 b408          11362 	.byte	180,8
00008abb 1b            11363 	.byte	27
00008abc 01            11364 	.byte	1
00008abd 0c            11365 	.byte	12
00008abe 46444c5f5354  11366 	.strz	"FDL_START_SEC_PUBLIC_CODE "
00008ac4 4152545f5345 
00008aca 435f5055424c 
00008ad0 49435f434f44 
00008ad6 452000 
00008ad9 03            11367 	.byte	3
00008ada 20            11368 	.byte	32
00008adb 11            11369 	.byte	17
00008adc 01            11370 	.byte	1
00008add 02            11371 	.byte	2
00008ade 4d454d4d4150  11372 	.strz	"MEMMAP_VENDOR_ID (30u)"
00008ae4 5f56454e444f 
00008aea 525f49442028 
00008af0 3330752900 
00008af5 01            11373 	.byte	1
00008af6 08            11374 	.byte	8
00008af7 4d454d4d4150  11375 	.strz	"MEMMAP_AR_RELEASE_MAJOR_VERSION (4u)"
00008afd 5f41525f5245 
00008b03 4c454153455f 
00008b09 4d414a4f525f 
00008b0f 56455253494f 
00008b15 4e2028347529 
00008b1b 00 
00008b1c 01            11376 	.byte	1
00008b1d 09            11377 	.byte	9
00008b1e 4d454d4d4150  11378 	.strz	"MEMMAP_AR_RELEASE_MINOR_VERSION (0u)"
00008b24 5f41525f5245 
00008b2a 4c454153455f 
00008b30 4d494e4f525f 
00008b36 56455253494f 
00008b3c 4e2028307529 
00008b42 00 
00008b43 01            11379 	.byte	1

                                                                      Page 282
                                                              C:\Users\nhuliyap\AppData\Local\Temp\gh_0000da81.s
00008b44 0a            11380 	.byte	10
00008b45 4d454d4d4150  11381 	.strz	"MEMMAP_AR_RELEASE_REVISION_VERSION (3u)"
00008b4b 5f41525f5245 
00008b51 4c454153455f 
00008b57 524556495349 
00008b5d 4f4e5f564552 
00008b63 53494f4e2028 
00008b69 33752900 
00008b6d 01            11382 	.byte	1
00008b6e 10            11383 	.byte	16
00008b6f 4d454d5f4152  11384 	.strz	"MEM_AR_RELEASE_MAJOR_VERSION MEMMAP_AR_RELEASE_MAJOR_VERSION"
00008b75 5f52454c4541 
00008b7b 53455f4d414a 
00008b81 4f525f564552 
00008b87 53494f4e204d 
00008b8d 454d4d41505f 
00008b93 41525f52454c 
00008b99 454153455f4d 
00008b9f 414a4f525f56 
00008ba5 455253494f4e 
00008bab 00 
00008bac 01            11385 	.byte	1
00008bad 11            11386 	.byte	17
00008bae 4d454d5f4152  11387 	.strz	"MEM_AR_RELEASE_MINOR_VERSION MEMMAP_AR_RELEASE_MINOR_VERSION"
00008bb4 5f52454c4541 
00008bba 53455f4d494e 
00008bc0 4f525f564552 
00008bc6 53494f4e204d 
00008bcc 454d4d41505f 
00008bd2 41525f52454c 
00008bd8 454153455f4d 
00008bde 494e4f525f56 
00008be4 455253494f4e 
00008bea 00 
00008beb 01            11388 	.byte	1
00008bec 12            11389 	.byte	18
00008bed 4d454d5f4152  11390 	.strz	"MEM_AR_RELEASE_PATCH_VERSION MEMMAP_AR_RELEASE_REVISION_VERSION"
00008bf3 5f52454c4541 
00008bf9 53455f504154 
00008bff 43485f564552 
00008c05 53494f4e204d 
00008c0b 454d4d41505f 
00008c11 41525f52454c 
00008c17 454153455f52 
00008c1d 45564953494f 
00008c23 4e5f56455253 
00008c29 494f4e00 
00008c2d 01            11391 	.byte	1
00008c2e 18            11392 	.byte	24
00008c2f 4d454d4d4150  11393 	.strz	"MEMMAP_SW_MAJOR_VERSION (1u)"
00008c35 5f53575f4d41 
00008c3b 4a4f525f5645 
00008c41 5253494f4e20 
00008c47 2831752900 
00008c4c 01            11394 	.byte	1
00008c4d 19            11395 	.byte	25
00008c4e 4d454d4d4150  11396 	.strz	"MEMMAP_SW_MINOR_VERSION (11u)"
00008c54 5f53575f4d49 
00008c5a 4e4f525f5645 
00008c60 5253494f4e20 
00008c66 283131752900 

                                                                      Page 283
                                                              C:\Users\nhuliyap\AppData\Local\Temp\gh_0000da81.s
00008c6c 01            11397 	.byte	1
00008c6d 1a            11398 	.byte	26
00008c6e 4d454d4d4150  11399 	.strz	"MEMMAP_SW_PATCH_VERSION (0u)"
00008c74 5f53575f5041 
00008c7a 5443485f5645 
00008c80 5253494f4e20 
00008c86 2830752900 
00008c8b 01            11400 	.byte	1
00008c8c 20            11401 	.byte	32
00008c8d 4d454d5f5357  11402 	.strz	"MEM_SW_MAJOR_VERSION MEMMAP_SW_MAJOR_VERSION"
00008c93 5f4d414a4f52 
00008c99 5f5645525349 
00008c9f 4f4e204d454d 
00008ca5 4d41505f5357 
00008cab 5f4d414a4f52 
00008cb1 5f5645525349 
00008cb7 4f4e00 
00008cba 01            11403 	.byte	1
00008cbb 21            11404 	.byte	33
00008cbc 4d454d5f5357  11405 	.strz	"MEM_SW_MINOR_VERSION MEMMAP_SW_MINOR_VERSION"
00008cc2 5f4d494e4f52 
00008cc8 5f5645525349 
00008cce 4f4e204d454d 
00008cd4 4d41505f5357 
00008cda 5f4d494e4f52 
00008ce0 5f5645525349 
00008ce6 4f4e00 
00008ce9 01            11406 	.byte	1
00008cea 22            11407 	.byte	34
00008ceb 4d454d5f5357  11408 	.strz	"MEM_SW_PATCH_VERSION MEMMAP_SW_PATCH_VERSION"
00008cf1 5f5041544348 
00008cf7 5f5645525349 
00008cfd 4f4e204d454d 
00008d03 4d41505f5357 
00008d09 5f5041544348 
00008d0f 5f5645525349 
00008d15 4f4e00 
00008d18 01            11409 	.byte	1
00008d19 24            11410 	.byte	36
00008d1a 4d454d4d4150  11411 	.strz	"MEMMAP_ERROR "
00008d20 5f4552524f52 
00008d26 2000 
00008d28 01            11412 	.byte	1
00008d29 e602          11413 	.byte	230,2
00008d2b 53544152545f  11414 	.strz	"START_SEC_CODE "
00008d31 5345435f434f 
00008d37 44452000 
00008d3b 03            11415 	.byte	3
00008d3c f403          11416 	.byte	244,3
00008d3e 12            11417 	.byte	18
00008d3f 01            11418 	.byte	1
00008d40 f307          11419 	.byte	243,7
00008d42 434f44455f53  11420 	.strz	"CODE_SEC_OPEN "
00008d48 45435f4f5045 
00008d4e 4e2000 
00008d51 04            11421 	.byte	4
00008d52 04            11422 	.byte	4
00008d53 04            11423 	.byte	4
00008d54 01            11424 	.byte	1
00008d55 c008          11425 	.byte	192,8
00008d57 525f46444c5f  11426 	.strz	"R_FDL_STOP_SEC_PUBLIC_CODE "

                                                                      Page 284
                                                              C:\Users\nhuliyap\AppData\Local\Temp\gh_0000da81.s
00008d5d 53544f505f53 
00008d63 45435f505542 
00008d69 4c49435f434f 
00008d6f 44452000 
00008d73 03            11427 	.byte	3
00008d74 c108          11428 	.byte	193,8
00008d76 1b            11429 	.byte	27
00008d77 01            11430 	.byte	1
00008d78 0f            11431 	.byte	15
00008d79 46444c5f5354  11432 	.strz	"FDL_STOP_SEC_PUBLIC_CODE "
00008d7f 4f505f534543 
00008d85 5f5055424c49 
00008d8b 435f434f4445 
00008d91 2000 
00008d93 03            11433 	.byte	3
00008d94 20            11434 	.byte	32
00008d95 11            11435 	.byte	17
00008d96 01            11436 	.byte	1
00008d97 02            11437 	.byte	2
00008d98 4d454d4d4150  11438 	.strz	"MEMMAP_VENDOR_ID (30u)"
00008d9e 5f56454e444f 
00008da4 525f49442028 
00008daa 3330752900 
00008daf 01            11439 	.byte	1
00008db0 08            11440 	.byte	8
00008db1 4d454d4d4150  11441 	.strz	"MEMMAP_AR_RELEASE_MAJOR_VERSION (4u)"
00008db7 5f41525f5245 
00008dbd 4c454153455f 
00008dc3 4d414a4f525f 
00008dc9 56455253494f 
00008dcf 4e2028347529 
00008dd5 00 
00008dd6 01            11442 	.byte	1
00008dd7 09            11443 	.byte	9
00008dd8 4d454d4d4150  11444 	.strz	"MEMMAP_AR_RELEASE_MINOR_VERSION (0u)"
00008dde 5f41525f5245 
00008de4 4c454153455f 
00008dea 4d494e4f525f 
00008df0 56455253494f 
00008df6 4e2028307529 
00008dfc 00 
00008dfd 01            11445 	.byte	1
00008dfe 0a            11446 	.byte	10
00008dff 4d454d4d4150  11447 	.strz	"MEMMAP_AR_RELEASE_REVISION_VERSION (3u)"
00008e05 5f41525f5245 
00008e0b 4c454153455f 
00008e11 524556495349 
00008e17 4f4e5f564552 
00008e1d 53494f4e2028 
00008e23 33752900 
00008e27 01            11448 	.byte	1
00008e28 10            11449 	.byte	16
00008e29 4d454d5f4152  11450 	.strz	"MEM_AR_RELEASE_MAJOR_VERSION MEMMAP_AR_RELEASE_MAJOR_VERSION"
00008e2f 5f52454c4541 
00008e35 53455f4d414a 
00008e3b 4f525f564552 
00008e41 53494f4e204d 
00008e47 454d4d41505f 
00008e4d 41525f52454c 
00008e53 454153455f4d 
00008e59 414a4f525f56 

                                                                      Page 285
                                                              C:\Users\nhuliyap\AppData\Local\Temp\gh_0000da81.s
00008e5f 455253494f4e 
00008e65 00 
00008e66 01            11451 	.byte	1
00008e67 11            11452 	.byte	17
00008e68 4d454d5f4152  11453 	.strz	"MEM_AR_RELEASE_MINOR_VERSION MEMMAP_AR_RELEASE_MINOR_VERSION"
00008e6e 5f52454c4541 
00008e74 53455f4d494e 
00008e7a 4f525f564552 
00008e80 53494f4e204d 
00008e86 454d4d41505f 
00008e8c 41525f52454c 
00008e92 454153455f4d 
00008e98 494e4f525f56 
00008e9e 455253494f4e 
00008ea4 00 
00008ea5 01            11454 	.byte	1
00008ea6 12            11455 	.byte	18
00008ea7 4d454d5f4152  11456 	.strz	"MEM_AR_RELEASE_PATCH_VERSION MEMMAP_AR_RELEASE_REVISION_VERSION"
00008ead 5f52454c4541 
00008eb3 53455f504154 
00008eb9 43485f564552 
00008ebf 53494f4e204d 
00008ec5 454d4d41505f 
00008ecb 41525f52454c 
00008ed1 454153455f52 
00008ed7 45564953494f 
00008edd 4e5f56455253 
00008ee3 494f4e00 
00008ee7 01            11457 	.byte	1
00008ee8 18            11458 	.byte	24
00008ee9 4d454d4d4150  11459 	.strz	"MEMMAP_SW_MAJOR_VERSION (1u)"
00008eef 5f53575f4d41 
00008ef5 4a4f525f5645 
00008efb 5253494f4e20 
00008f01 2831752900 
00008f06 01            11460 	.byte	1
00008f07 19            11461 	.byte	25
00008f08 4d454d4d4150  11462 	.strz	"MEMMAP_SW_MINOR_VERSION (11u)"
00008f0e 5f53575f4d49 
00008f14 4e4f525f5645 
00008f1a 5253494f4e20 
00008f20 283131752900 
00008f26 01            11463 	.byte	1
00008f27 1a            11464 	.byte	26
00008f28 4d454d4d4150  11465 	.strz	"MEMMAP_SW_PATCH_VERSION (0u)"
00008f2e 5f53575f5041 
00008f34 5443485f5645 
00008f3a 5253494f4e20 
00008f40 2830752900 
00008f45 01            11466 	.byte	1
00008f46 20            11467 	.byte	32
00008f47 4d454d5f5357  11468 	.strz	"MEM_SW_MAJOR_VERSION MEMMAP_SW_MAJOR_VERSION"
00008f4d 5f4d414a4f52 
00008f53 5f5645525349 
00008f59 4f4e204d454d 
00008f5f 4d41505f5357 
00008f65 5f4d414a4f52 
00008f6b 5f5645525349 
00008f71 4f4e00 
00008f74 01            11469 	.byte	1
00008f75 21            11470 	.byte	33

                                                                      Page 286
                                                              C:\Users\nhuliyap\AppData\Local\Temp\gh_0000da81.s
00008f76 4d454d5f5357  11471 	.strz	"MEM_SW_MINOR_VERSION MEMMAP_SW_MINOR_VERSION"
00008f7c 5f4d494e4f52 
00008f82 5f5645525349 
00008f88 4f4e204d454d 
00008f8e 4d41505f5357 
00008f94 5f4d494e4f52 
00008f9a 5f5645525349 
00008fa0 4f4e00 
00008fa3 01            11472 	.byte	1
00008fa4 22            11473 	.byte	34
00008fa5 4d454d5f5357  11474 	.strz	"MEM_SW_PATCH_VERSION MEMMAP_SW_PATCH_VERSION"
00008fab 5f5041544348 
00008fb1 5f5645525349 
00008fb7 4f4e204d454d 
00008fbd 4d41505f5357 
00008fc3 5f5041544348 
00008fc9 5f5645525349 
00008fcf 4f4e00 
00008fd2 01            11475 	.byte	1
00008fd3 24            11476 	.byte	36
00008fd4 4d454d4d4150  11477 	.strz	"MEMMAP_ERROR "
00008fda 5f4552524f52 
00008fe0 2000 
00008fe2 01            11478 	.byte	1
00008fe3 ea02          11479 	.byte	234,2
00008fe5 53544f505f53  11480 	.strz	"STOP_SEC_CODE "
00008feb 45435f434f44 
00008ff1 452000 
00008ff4 03            11481 	.byte	3
00008ff5 f403          11482 	.byte	244,3
00008ff7 12            11483 	.byte	18
00008ff8 04            11484 	.byte	4
00008ff9 04            11485 	.byte	4
00008ffa 04            11486 	.byte	4
00008ffb 01            11487 	.byte	1
00008ffc c308          11488 	.byte	195,8
00008ffe 525f46444c5f  11489 	.strz	"R_FDL_START_SEC_PUBLIC_CODE "
00009004 53544152545f 
0000900a 5345435f5055 
00009010 424c49435f43 
00009016 4f44452000 
0000901b 03            11490 	.byte	3
0000901c c408          11491 	.byte	196,8
0000901e 1b            11492 	.byte	27
0000901f 01            11493 	.byte	1
00009020 0c            11494 	.byte	12
00009021 46444c5f5354  11495 	.strz	"FDL_START_SEC_PUBLIC_CODE "
00009027 4152545f5345 
0000902d 435f5055424c 
00009033 49435f434f44 
00009039 452000 
0000903c 03            11496 	.byte	3
0000903d 20            11497 	.byte	32
0000903e 11            11498 	.byte	17
0000903f 01            11499 	.byte	1
00009040 02            11500 	.byte	2
00009041 4d454d4d4150  11501 	.strz	"MEMMAP_VENDOR_ID (30u)"
00009047 5f56454e444f 
0000904d 525f49442028 
00009053 3330752900 
00009058 01            11502 	.byte	1

                                                                      Page 287
                                                              C:\Users\nhuliyap\AppData\Local\Temp\gh_0000da81.s
00009059 08            11503 	.byte	8
0000905a 4d454d4d4150  11504 	.strz	"MEMMAP_AR_RELEASE_MAJOR_VERSION (4u)"
00009060 5f41525f5245 
00009066 4c454153455f 
0000906c 4d414a4f525f 
00009072 56455253494f 
00009078 4e2028347529 
0000907e 00 
0000907f 01            11505 	.byte	1
00009080 09            11506 	.byte	9
00009081 4d454d4d4150  11507 	.strz	"MEMMAP_AR_RELEASE_MINOR_VERSION (0u)"
00009087 5f41525f5245 
0000908d 4c454153455f 
00009093 4d494e4f525f 
00009099 56455253494f 
0000909f 4e2028307529 
000090a5 00 
000090a6 01            11508 	.byte	1
000090a7 0a            11509 	.byte	10
000090a8 4d454d4d4150  11510 	.strz	"MEMMAP_AR_RELEASE_REVISION_VERSION (3u)"
000090ae 5f41525f5245 
000090b4 4c454153455f 
000090ba 524556495349 
000090c0 4f4e5f564552 
000090c6 53494f4e2028 
000090cc 33752900 
000090d0 01            11511 	.byte	1
000090d1 10            11512 	.byte	16
000090d2 4d454d5f4152  11513 	.strz	"MEM_AR_RELEASE_MAJOR_VERSION MEMMAP_AR_RELEASE_MAJOR_VERSION"
000090d8 5f52454c4541 
000090de 53455f4d414a 
000090e4 4f525f564552 
000090ea 53494f4e204d 
000090f0 454d4d41505f 
000090f6 41525f52454c 
000090fc 454153455f4d 
00009102 414a4f525f56 
00009108 455253494f4e 
0000910e 00 
0000910f 01            11514 	.byte	1
00009110 11            11515 	.byte	17
00009111 4d454d5f4152  11516 	.strz	"MEM_AR_RELEASE_MINOR_VERSION MEMMAP_AR_RELEASE_MINOR_VERSION"
00009117 5f52454c4541 
0000911d 53455f4d494e 
00009123 4f525f564552 
00009129 53494f4e204d 
0000912f 454d4d41505f 
00009135 41525f52454c 
0000913b 454153455f4d 
00009141 494e4f525f56 
00009147 455253494f4e 
0000914d 00 
0000914e 01            11517 	.byte	1
0000914f 12            11518 	.byte	18
00009150 4d454d5f4152  11519 	.strz	"MEM_AR_RELEASE_PATCH_VERSION MEMMAP_AR_RELEASE_REVISION_VERSION"
00009156 5f52454c4541 
0000915c 53455f504154 
00009162 43485f564552 
00009168 53494f4e204d 
0000916e 454d4d41505f 
00009174 41525f52454c 

                                                                      Page 288
                                                              C:\Users\nhuliyap\AppData\Local\Temp\gh_0000da81.s
0000917a 454153455f52 
00009180 45564953494f 
00009186 4e5f56455253 
0000918c 494f4e00 
00009190 01            11520 	.byte	1
00009191 18            11521 	.byte	24
00009192 4d454d4d4150  11522 	.strz	"MEMMAP_SW_MAJOR_VERSION (1u)"
00009198 5f53575f4d41 
0000919e 4a4f525f5645 
000091a4 5253494f4e20 
000091aa 2831752900 
000091af 01            11523 	.byte	1
000091b0 19            11524 	.byte	25
000091b1 4d454d4d4150  11525 	.strz	"MEMMAP_SW_MINOR_VERSION (11u)"
000091b7 5f53575f4d49 
000091bd 4e4f525f5645 
000091c3 5253494f4e20 
000091c9 283131752900 
000091cf 01            11526 	.byte	1
000091d0 1a            11527 	.byte	26
000091d1 4d454d4d4150  11528 	.strz	"MEMMAP_SW_PATCH_VERSION (0u)"
000091d7 5f53575f5041 
000091dd 5443485f5645 
000091e3 5253494f4e20 
000091e9 2830752900 
000091ee 01            11529 	.byte	1
000091ef 20            11530 	.byte	32
000091f0 4d454d5f5357  11531 	.strz	"MEM_SW_MAJOR_VERSION MEMMAP_SW_MAJOR_VERSION"
000091f6 5f4d414a4f52 
000091fc 5f5645525349 
00009202 4f4e204d454d 
00009208 4d41505f5357 
0000920e 5f4d414a4f52 
00009214 5f5645525349 
0000921a 4f4e00 
0000921d 01            11532 	.byte	1
0000921e 21            11533 	.byte	33
0000921f 4d454d5f5357  11534 	.strz	"MEM_SW_MINOR_VERSION MEMMAP_SW_MINOR_VERSION"
00009225 5f4d494e4f52 
0000922b 5f5645525349 
00009231 4f4e204d454d 
00009237 4d41505f5357 
0000923d 5f4d494e4f52 
00009243 5f5645525349 
00009249 4f4e00 
0000924c 01            11535 	.byte	1
0000924d 22            11536 	.byte	34
0000924e 4d454d5f5357  11537 	.strz	"MEM_SW_PATCH_VERSION MEMMAP_SW_PATCH_VERSION"
00009254 5f5041544348 
0000925a 5f5645525349 
00009260 4f4e204d454d 
00009266 4d41505f5357 
0000926c 5f5041544348 
00009272 5f5645525349 
00009278 4f4e00 
0000927b 01            11538 	.byte	1
0000927c 24            11539 	.byte	36
0000927d 4d454d4d4150  11540 	.strz	"MEMMAP_ERROR "
00009283 5f4552524f52 
00009289 2000 
0000928b 01            11541 	.byte	1

                                                                      Page 289
                                                              C:\Users\nhuliyap\AppData\Local\Temp\gh_0000da81.s
0000928c e602          11542 	.byte	230,2
0000928e 53544152545f  11543 	.strz	"START_SEC_CODE "
00009294 5345435f434f 
0000929a 44452000 
0000929e 03            11544 	.byte	3
0000929f f403          11545 	.byte	244,3
000092a1 12            11546 	.byte	18
000092a2 01            11547 	.byte	1
000092a3 f307          11548 	.byte	243,7
000092a5 434f44455f53  11549 	.strz	"CODE_SEC_OPEN "
000092ab 45435f4f5045 
000092b1 4e2000 
000092b4 04            11550 	.byte	4
000092b5 04            11551 	.byte	4
000092b6 04            11552 	.byte	4
000092b7 01            11553 	.byte	1
000092b8 d608          11554 	.byte	214,8
000092ba 525f46444c5f  11555 	.strz	"R_FDL_STOP_SEC_PUBLIC_CODE "
000092c0 53544f505f53 
000092c6 45435f505542 
000092cc 4c49435f434f 
000092d2 44452000 
000092d6 03            11556 	.byte	3
000092d7 d708          11557 	.byte	215,8
000092d9 1b            11558 	.byte	27
000092da 01            11559 	.byte	1
000092db 0f            11560 	.byte	15
000092dc 46444c5f5354  11561 	.strz	"FDL_STOP_SEC_PUBLIC_CODE "
000092e2 4f505f534543 
000092e8 5f5055424c49 
000092ee 435f434f4445 
000092f4 2000 
000092f6 03            11562 	.byte	3
000092f7 20            11563 	.byte	32
000092f8 11            11564 	.byte	17
000092f9 01            11565 	.byte	1
000092fa 24            11566 	.byte	36
000092fb 4d454d4d4150  11567 	.strz	"MEMMAP_ERROR "
00009301 5f4552524f52 
00009307 2000 
00009309 01            11568 	.byte	1
0000930a ea02          11569 	.byte	234,2
0000930c 53544f505f53  11570 	.strz	"STOP_SEC_CODE "
00009312 45435f434f44 
00009318 452000 
0000931b 03            11571 	.byte	3
0000931c f403          11572 	.byte	244,3
0000931e 12            11573 	.byte	18
0000931f 04            11574 	.byte	4
00009320 04            11575 	.byte	4
00009321 04            11576 	.byte	4
00009322 04            11577 	.byte	4
00009323 00            11578 	.byte	0
                       11579 	.section	.debug_abbrev
00000191 00            11580 	.byte	0
                       11581 	.section	.debug_info
                       11582 .Ldw_end:
                       11583 .rh850_flags REGMODE32,DATA_ALIGN8,GP_FIX,EP_NONFIX,TP_FIX,REG2_RESERVE,G3K,GHS_MISALIGN,SDA_EXTRA_REGS_0
