                                                                      Page 1
                                                              C:\Users\nhuliyap\AppData\Local\Temp\gh_0000d8g1.s
Command Line: C:\ghs\comp_201517\ease850.exe -w -elf -b0 -I../source/common -I../source/ProjectCompiler -I../source/ProjectCfg -I../source/SwcApplTpms -I../source/SwcApplEcuM -I../source/SwcServiceBswM -I../source/SwcServiceEcuM -I../source/SwcServiceNvM -I../source/SwcServiceOs -I../source/SwcServiceStartUp -I../source/McalAdc -I../source/McalDio -I../source/McalGpt -I../source/McalMcu -I../source/McalWdg -I../source/wrappers -I../source/wrappers/McalAta -I../source/McalLin -I../source/McalCan -I../source/wrappers/OS -I../source/McalFls -I../source/EcuabFee -I../source/EcuabMemIf -I../source/wrappers/VStdLib -I../source/wrappers/Crc -I../source/wrappers/FBL_APPL -I../source/wrappers/NVM_MANAGER -I../source/wrappers/DEM_MANAGER -I../source/wrappers/RDC_MANAGER -I../source/wrappers/ENV_MANAGER -I../source/wrappers/SYS_MANAGER -I../source/wrappers/EcuabCanIf -I../source/EcuabCanTrcv -I../source/wrappers/SwcServiceCanSM -I../source/wrappers/SwcServiceCanTp -I../source/wrappers/SwcServiceCanTp_PreCompile -I../source/wrappers/SwcServiceCom -I../source/wrappers/SwcServiceComM -I../source/wrappers/SwcServiceDcm -I../source/wrappers/SwcServicePduR -I../source/wrappers/SwcServiceEcuM -I../source/wrappers/Bfx -I../source/wrappers/SwcServiceDem -I../source/SwcServiceCom -I../source/SwcServiceDet -I../source/SwcServiceFiM -I../source/SwcServicePduR -I../source/SwcServiceSchM -I../source/wrappers/LibAutosarDiag -I../source/wrappers/rba_BswSrv -IC:\ghs\comp_201517\lib\rh850 -cg_underscore -cpu=rh850g3k -no_v850_simd -rh850_fpsimd=none -nomacro -patch_dbo=C:\_ECU2\ECU_Rivian_A1\Target\repo_projects\pRealEcu\cR_LATEST\make\output\objects\Rte_NvM_Type.dbo -source=Rte_NvM_Type.c -o output\objects\gh_0000d8g1.o -list=output\list\Rte_NvM_Type.lst C:\Users\nhuliyap\AppData\Local\Temp\gh_0000d8g1.s 
Original File: C:\Users\nhuliyap\AppData\Local\Temp\gh_0000d8g1.s
Source File: Rte_NvM_Type.c
Directory: C:\_ECU2\ECU_Rivian_A1\Target\repo_projects\pRealEcu\cR_LATEST\make
Host OS: Windows
EASE: Copyright (C) 1983-2015 Green Hills Software.  All Rights Reserved.
Release: Compiler v2015.1.7
Build Directory: [Directory] BTOWORKER6:c:/build_2015_1_bto/2015-10-21.2100-2015_1_bto/win32-comp-ecom
Revision: [VCInfo] http://toolsvc/branches/release-branch-70-bto/src@544153 (built by build)
Revision Date: Thu Oct 22 07:50:13 2015

Release Date: Thu Oct 22 09:32:32 2015

                           1 --Driver Command: ccv850 ../source/wrappers/Rte_NvM_Type.c -cpu=rh850 -fhard
                           2 --		-ignore_callt_state_in_interrupts -large_sda -misalign_pack
                           3 --		-nofarcalls -nofloatio -no_callt -Ogeneral -Onounroll
                           4 --		-prepare_dispose -registermode=32 -reserve_r2 -sda=0
                           5 --		-shorten_loads -Wshadow --brief_diagnostics --no_commons
                           6 --		--no_wrap_diagnostics --prototype_errors --short_enum -list -G
                           7 --		-dual_debug -dwarf -X5523 -lnk=-no_xda_modifications -D
                           8 --		NOT_READY_FOR_TESTING_OR_DEPLOYMENT -D IBTCM_SW_ANPASSUNGEN -D
                           9 --		BUILD_RIVIAN -c -inline_prologue -I../source/common
                          10 --		-I../source/ProjectCompiler -I../source/ProjectCfg
                          11 --		-I../source/SwcApplTpms -I../source/SwcApplEcuM
                          12 --		-I../source/SwcServiceBswM -I../source/SwcServiceEcuM
                          13 --		-I../source/SwcServiceNvM -I../source/SwcServiceOs
                          14 --		-I../source/SwcServiceStartUp -I../source/McalAdc
                          15 --		-I../source/McalDio -I../source/McalGpt -I../source/McalMcu
                          16 --		-I../source/McalWdg -I../source/wrappers
                          17 --		-I../source/wrappers/McalAta -I../source/McalLin
                          18 --		-I../source/McalCan -I../source/wrappers/OS -I../source/McalFls
                          19 --		-I../source/EcuabFee -I../source/EcuabMemIf
                          20 --		-I../source/wrappers/VStdLib -I../source/wrappers
                          21 --		-I../source/wrappers/Crc -I../source/wrappers/FBL_APPL
                          22 --		-I../source/wrappers/NVM_MANAGER -I../source/wrappers/DEM_MANAGER
                          23 --		-I../source/wrappers/RDC_MANAGER -I../source/wrappers/ENV_MANAGER
                          24 --		-I../source/wrappers/SYS_MANAGER -I../source/wrappers/EcuabCanIf
                          25 --		-I../source/EcuabCanTrcv -I../source/wrappers/SwcServiceCanSM
                          26 --		-I../source/wrappers/SwcServiceCanTp
                          27 --		-I../source/wrappers/SwcServiceCanTp_PreCompile
                          28 --		-I../source/wrappers/SwcServiceCom
                          29 --		-I../source/wrappers/SwcServiceComM
                          30 --		-I../source/wrappers/SwcServiceDcm
                          31 --		-I../source/wrappers/SwcServicePduR
                          32 --		-I../source/wrappers/SwcServiceEcuM -I../source/wrappers/Bfx
                          33 --		-I../source/wrappers/SwcServiceDem -I../source/SwcServiceCom
                          34 --		-I../source/SwcServiceDet -I../source/SwcServiceFiM
                          35 --		-I../source/SwcServicePduR -I../source/SwcServiceSchM
                          36 --		-I../source/wrappers/LibAutosarDiag
                          37 --		-I../source/wrappers/rba_BswSrv -object_dir=output/objects
                          38 --		-list_dir=output/list
                          39 --Source File:   ../source/wrappers/Rte_NvM_Type.c
                          40 --Directory:     
                          41 --		C:\_ECU2\ECU_Rivian_A1\Target\repo_projects\pRealEcu\cR_LATEST\make
                          42 --Compile Date:  Fri Sep 15 14:15:47 2023
                          43 --Host OS:       Win32
                          44 --Version:       C-RH850 2015.1.7 RELEASE VERSION
                          45 --Release:       Compiler v2015.1.7
                          46 --Revision Date: Thu Oct 22 08:06:12 2015
                          47 --Release Date:  Thu Oct 22 09:34:32 2015
                          48 -- ecom  -g -w -OM
                          49 	.text
                          50 ..bof.C.3A.5C_ECU2.5CECU_Rivian_A1.5CTarget.5Crepo_projects.5CpRealEcu.5CcR_LATEST.5Cmake.5Coutput.5Cobjects.5CRte_NvM_Type...43.3A.5C_ECU2.5CECU_Rivian_A1.5CTarget.5Crepo_projects.5CpRealEcu.5CcR_LATEST.5Cmake..65044AF3..0::

                                                                      Page 2
                                                              C:\Users\nhuliyap\AppData\Local\Temp\gh_0000d8g1.s
                          51 	.align	2
                          52 ..gh.f.f.1.e.0:
                          53 	.type	..gh.f.f.1.e.0,@object
                          54 	.size	..gh.f.f.1.e.0,0
                          55 	.global	_Memstack_GetNvmCatFromHufBlockNumber
                          56 _Memstack_GetNvmCatFromHufBlockNumber:
00000000 c600             57 	zxh	r6
                          58 --	    .bf
                          59 .LDW01:
00000002 0052             60 	mov	0,r10
00000004 b505*            61 	br	.L4
                          62 .L6:
                          63 --line128
                          64 ..lin.C.3A.5C_ECU2.5CECU_Rivian_A1.5CTarget.5Crepo_projects.5CpRealEcu.5CcR_LATEST.5Cmake.5Coutput.5Cobjects.5CRte_NvM_Type.1::
                          65 .LDWlin1:
00000006 4152             66 	add	1,r10
00000008 8a00             67 	zxb	r10
                          68 .L4:
0000000a 3e0600000000*    69 	mov	.L54+29,ep
00000010 caf1             70 	add	r10,ep
00000012 6088             71 	sld.bu	0[ep],r17
00000014 f131             72 	cmp	r17,r6
00000016 89fd*            73 	bnl	.L6
                          74 --	    .ef
                          75 .LDW11:
                          76 --line131
                          77 ..lin.C.3A.5C_ECU2.5CECU_Rivian_A1.5CTarget.5Crepo_projects.5CpRealEcu.5CcR_LATEST.5Cmake.5Coutput.5Cobjects.5CRte_NvM_Type.2::
                          78 .LDWlin2:
00000018 7f00             79 	jmp	[lp]
                          80 	.global	___ghs_eofn_Memstack_GetNvmCatFromHufBlockNumber
                          81 ___ghs_eofn_Memstack_GetNvmCatFromHufBlockNumber:
                          82 	.type	_Memstack_GetNvmCatFromHufBlockNumber,@function
                          83 	.size	_Memstack_GetNvmCatFromHufBlockNumber,.-_Memstack_GetNvmCatFromHufBlockNumber
                          84 	.align	2
                          85 --_i	r10	local
                          86 
                          87 --_ushBlockNr	r6	param
                          88 
                          89 	.data
                          90 	.align	4
                          91 .L54:
                          92 	.type	.L54,@object
                          93 	.size	.L54,0
                          94 	.global	_ulCurrentNvmConsistence..C.3A.5C_ECU2.5CECU_Rivian_A1.5CTarget.5Crepo_projects.5CpRealEcu.5CcR_LATEST.5Cmake.5Coutput.5Cobjects.5CRte_NvM_Type.
                          95 _ulCurrentNvmConsistence..C.3A.5C_ECU2.5CECU_Rivian_A1.5CTarget.5Crepo_projects.5CpRealEcu.5CcR_LATEST.5Cmake.5Coutput.5Cobjects.5CRte_NvM_Type.:
00000000 00000000         96 _ulCurrentNvmConsistence:	.byte	0,0,0,0
                          97 	.type	_ulCurrentNvmConsistence..C.3A.5C_ECU2.5CECU_Rivian_A1.5CTarget.5Crepo_projects.5CpRealEcu.5CcR_LATEST.5Cmake.5Coutput.5Cobjects.5CRte_NvM_Type.,@object
                          98 	.size	_ulCurrentNvmConsistence..C.3A.5C_ECU2.5CECU_Rivian_A1.5CTarget.5Crepo_projects.5CpRealEcu.5CcR_LATEST.5Cmake.5Coutput.5Cobjects.5CRte_NvM_Type.,4
                          99 	.type	_ulCurrentNvmConsistence,@object
                         100 	.size	_ulCurrentNvmConsistence,4
                         101 	.global	_ucCatSaveOnEvent..C.3A.5C_ECU2.5CECU_Rivian_A1.5CTarget.5Crepo_projects.5CpRealEcu.5CcR_LATEST.5Cmake.5Coutput.5Cobjects.5CRte_NvM_Type.
                         102 _ucCatSaveOnEvent..C.3A.5C_ECU2.5CECU_Rivian_A1.5CTarget.5Crepo_projects.5CpRealEcu.5CcR_LATEST.5Cmake.5Coutput.5Cobjects.5CRte_NvM_Type.:
00000004 01              103 _ucCatSaveOnEvent:	.byte	1
00000005 00              104 	.space	1
00000006 01              105 	.byte	1
00000007 00              106 	.space	1
00000008 01              107 	.byte	1
00000009 00              108 	.space	1
0000000a 00              109 	.space	1
0000000b 00              110 	.space	1
0000000c 00              111 	.space	1

                                                                      Page 3
                                                              C:\Users\nhuliyap\AppData\Local\Temp\gh_0000d8g1.s
0000000d 01              112 	.byte	1
0000000e 0000            113 	.space	2
                         114 	.type	_ucCatSaveOnEvent..C.3A.5C_ECU2.5CECU_Rivian_A1.5CTarget.5Crepo_projects.5CpRealEcu.5CcR_LATEST.5Cmake.5Coutput.5Cobjects.5CRte_NvM_Type.,@object
                         115 	.size	_ucCatSaveOnEvent..C.3A.5C_ECU2.5CECU_Rivian_A1.5CTarget.5Crepo_projects.5CpRealEcu.5CcR_LATEST.5Cmake.5Coutput.5Cobjects.5CRte_NvM_Type.,12
                         116 	.type	_ucCatSaveOnEvent,@object
                         117 	.size	_ucCatSaveOnEvent,12
                         118 	.global	_ucCatRamBlockStatus..C.3A.5C_ECU2.5CECU_Rivian_A1.5CTarget.5Crepo_projects.5CpRealEcu.5CcR_LATEST.5Cmake.5Coutput.5Cobjects.5CRte_NvM_Type.
                         119 _ucCatRamBlockStatus..C.3A.5C_ECU2.5CECU_Rivian_A1.5CTarget.5Crepo_projects.5CpRealEcu.5CcR_LATEST.5Cmake.5Coutput.5Cobjects.5CRte_NvM_Type.:
00000010 00              120 _ucCatRamBlockStatus:	.space	1
00000011 00              121 	.space	1
00000012 00              122 	.space	1
00000013 00              123 	.space	1
00000014 00              124 	.space	1
00000015 00              125 	.space	1
00000016 00              126 	.space	1
00000017 00              127 	.space	1
00000018 00              128 	.space	1
00000019 00              129 	.space	1
0000001a 0000            130 	.space	2
                         131 	.type	_ucCatRamBlockStatus..C.3A.5C_ECU2.5CECU_Rivian_A1.5CTarget.5Crepo_projects.5CpRealEcu.5CcR_LATEST.5Cmake.5Coutput.5Cobjects.5CRte_NvM_Type.,@object
                         132 	.size	_ucCatRamBlockStatus..C.3A.5C_ECU2.5CECU_Rivian_A1.5CTarget.5Crepo_projects.5CpRealEcu.5CcR_LATEST.5Cmake.5Coutput.5Cobjects.5CRte_NvM_Type.,12
                         133 	.type	_ucCatRamBlockStatus,@object
                         134 	.size	_ucCatRamBlockStatus,12
                         135 	.global	_ucNvMCatSizeCum..C.3A.5C_ECU2.5CECU_Rivian_A1.5CTarget.5Crepo_projects.5CpRealEcu.5CcR_LATEST.5Cmake.5Coutput.5Cobjects.5CRte_NvM_Type.
                         136 _ucNvMCatSizeCum..C.3A.5C_ECU2.5CECU_Rivian_A1.5CTarget.5Crepo_projects.5CpRealEcu.5CcR_LATEST.5Cmake.5Coutput.5Cobjects.5CRte_NvM_Type.:
0000001c 00              137 _ucNvMCatSizeCum:	.space	1
0000001d 0d1a3237        138 	.byte	13,26,50,55
00000021 434f555b        139 	.byte	67,79,85,91
00000025 6364            140 	.byte	99,100
00000027 00              141 	.space	1
                         142 	.type	_ucNvMCatSizeCum..C.3A.5C_ECU2.5CECU_Rivian_A1.5CTarget.5Crepo_projects.5CpRealEcu.5CcR_LATEST.5Cmake.5Coutput.5Cobjects.5CRte_NvM_Type.,@object
                         143 	.size	_ucNvMCatSizeCum..C.3A.5C_ECU2.5CECU_Rivian_A1.5CTarget.5Crepo_projects.5CpRealEcu.5CcR_LATEST.5Cmake.5Coutput.5Cobjects.5CRte_NvM_Type.,12
                         144 	.type	_ucNvMCatSizeCum,@object
                         145 	.size	_ucNvMCatSizeCum,12
                         146 	.text
                         147 	.align	2
                         148 	.align	2
                         149 ..gh.f.f.1.e.1:
                         150 	.type	..gh.f.f.1.e.1,@object
                         151 	.size	..gh.f.f.1.e.1,0
                         152 	.global	_Memstack_GetNvMRamAdress
                         153 _Memstack_GetNvMRamAdress:
0000001a c600            154 	zxh	r6
0000001c 3e0600000000*   155 	mov	_ucNvMCatSizeCum,ep
                         156 --	    .bf
                         157 .LDW21:
                         158 --line140
                         159 ..lin.C.3A.5C_ECU2.5CECU_Rivian_A1.5CTarget.5Crepo_projects.5CpRealEcu.5CcR_LATEST.5Cmake.5Coutput.5Cobjects.5CRte_NvM_Type.3::
                         160 .LDWlin3:
00000022 6190            161 	sld.bu	1[ep],r18
00000024 f231            162 	cmp	r18,r6
00000026 b90d*           163 	bnl	.L102
                         164 --line142
                         165 ..lin.C.3A.5C_ECU2.5CECU_Rivian_A1.5CTarget.5Crepo_projects.5CpRealEcu.5CcR_LATEST.5Cmake.5Coutput.5Cobjects.5CRte_NvM_Type.4::
                         166 .LDWlin4:
00000028 6098            167 	sld.bu	0[ep],r19
0000002a 0650            168 	mov	r6,r10
0000002c c252            169 	shl	2,r10
0000002e 310600000000*   170 	mov	_Ram_NvMBlock_CAT01,r17
00000034 d151            171 	add	r17,r10
00000036 c29a            172 	shl	2,r19

                                                                      Page 4
                                                              C:\Users\nhuliyap\AppData\Local\Temp\gh_0000d8g1.s
00000038 b351            173 	sub	r19,r10
0000003a 7f00            174 	jmp	[lp]
                         175 .L102:
                         176 --line144
                         177 ..lin.C.3A.5C_ECU2.5CECU_Rivian_A1.5CTarget.5Crepo_projects.5CpRealEcu.5CcR_LATEST.5Cmake.5Coutput.5Cobjects.5CRte_NvM_Type.5::
                         178 .LDWlin5:
0000003c 6288            179 	sld.bu	2[ep],r17
0000003e 0052            180 	mov	0,r10
00000040 f131            181 	cmp	r17,r6
00000042 a90d*           182 	bnl	.L105
                         183 --line146
                         184 ..lin.C.3A.5C_ECU2.5CECU_Rivian_A1.5CTarget.5Crepo_projects.5CpRealEcu.5CcR_LATEST.5Cmake.5Coutput.5Cobjects.5CRte_NvM_Type.6::
                         185 .LDWlin6:
00000044 0650            186 	mov	r6,r10
00000046 c252            187 	shl	2,r10
00000048 300600000000*   188 	mov	_Ram_NvMBlock_CAT02,r16
0000004e d051            189 	add	r16,r10
00000050 c292            190 	shl	2,r18
00000052 b251            191 	sub	r18,r10
00000054 7f00            192 	jmp	[lp]
                         193 .L105:
                         194 --line148
                         195 ..lin.C.3A.5C_ECU2.5CECU_Rivian_A1.5CTarget.5Crepo_projects.5CpRealEcu.5CcR_LATEST.5Cmake.5Coutput.5Cobjects.5CRte_NvM_Type.7::
                         196 .LDWlin7:
00000056 6380            197 	sld.bu	3[ep],r16
00000058 f031            198 	cmp	r16,r6
0000005a a90d*           199 	bnl	.L108
                         200 --line150
                         201 ..lin.C.3A.5C_ECU2.5CECU_Rivian_A1.5CTarget.5Crepo_projects.5CpRealEcu.5CcR_LATEST.5Cmake.5Coutput.5Cobjects.5CRte_NvM_Type.8::
                         202 .LDWlin8:
0000005c 0650            203 	mov	r6,r10
0000005e c252            204 	shl	2,r10
00000060 2f0600000000*   205 	mov	_Ram_NvMBlock_CAT03,r15
00000066 cf51            206 	add	r15,r10
00000068 c28a            207 	shl	2,r17
0000006a b151            208 	sub	r17,r10
0000006c 7f00            209 	jmp	[lp]
                         210 .L108:
                         211 --line153
                         212 ..lin.C.3A.5C_ECU2.5CECU_Rivian_A1.5CTarget.5Crepo_projects.5CpRealEcu.5CcR_LATEST.5Cmake.5Coutput.5Cobjects.5CRte_NvM_Type.9::
                         213 .LDWlin9:
0000006e 6478            214 	sld.bu	4[ep],r15
00000070 ef31            215 	cmp	r15,r6
00000072 a90d*           216 	bnl	.L111
                         217 --line155
                         218 ..lin.C.3A.5C_ECU2.5CECU_Rivian_A1.5CTarget.5Crepo_projects.5CpRealEcu.5CcR_LATEST.5Cmake.5Coutput.5Cobjects.5CRte_NvM_Type.10::
                         219 .LDWlin10:
00000074 0650            220 	mov	r6,r10
00000076 c252            221 	shl	2,r10
00000078 2e0600000000*   222 	mov	_Ram_NvMBlock_CAT04,r14
0000007e ce51            223 	add	r14,r10
00000080 c282            224 	shl	2,r16
00000082 b051            225 	sub	r16,r10
00000084 7f00            226 	jmp	[lp]
                         227 .L111:
                         228 --line158
                         229 ..lin.C.3A.5C_ECU2.5CECU_Rivian_A1.5CTarget.5Crepo_projects.5CpRealEcu.5CcR_LATEST.5Cmake.5Coutput.5Cobjects.5CRte_NvM_Type.11::
                         230 .LDWlin11:
00000086 6570            231 	sld.bu	5[ep],r14
00000088 ee31            232 	cmp	r14,r6
0000008a a90d*           233 	bnl	.L114

                                                                      Page 5
                                                              C:\Users\nhuliyap\AppData\Local\Temp\gh_0000d8g1.s
                         234 --line160
                         235 ..lin.C.3A.5C_ECU2.5CECU_Rivian_A1.5CTarget.5Crepo_projects.5CpRealEcu.5CcR_LATEST.5Cmake.5Coutput.5Cobjects.5CRte_NvM_Type.12::
                         236 .LDWlin12:
0000008c 0650            237 	mov	r6,r10
0000008e c252            238 	shl	2,r10
00000090 2d0600000000*   239 	mov	_Ram_NvMBlock_CAT05,r13
00000096 cd51            240 	add	r13,r10
00000098 c27a            241 	shl	2,r15
0000009a af51            242 	sub	r15,r10
0000009c 7f00            243 	jmp	[lp]
                         244 .L114:
                         245 --line162
                         246 ..lin.C.3A.5C_ECU2.5CECU_Rivian_A1.5CTarget.5Crepo_projects.5CpRealEcu.5CcR_LATEST.5Cmake.5Coutput.5Cobjects.5CRte_NvM_Type.13::
                         247 .LDWlin13:
0000009e 6668            248 	sld.bu	6[ep],r13
000000a0 ed31            249 	cmp	r13,r6
000000a2 a90d*           250 	bnl	.L117
                         251 --line164
                         252 ..lin.C.3A.5C_ECU2.5CECU_Rivian_A1.5CTarget.5Crepo_projects.5CpRealEcu.5CcR_LATEST.5Cmake.5Coutput.5Cobjects.5CRte_NvM_Type.14::
                         253 .LDWlin14:
000000a4 0650            254 	mov	r6,r10
000000a6 c252            255 	shl	2,r10
000000a8 2c0600000000*   256 	mov	_Ram_NvMBlock_CAT06,r12
000000ae cc51            257 	add	r12,r10
000000b0 c272            258 	shl	2,r14
000000b2 ae51            259 	sub	r14,r10
000000b4 7f00            260 	jmp	[lp]
                         261 .L117:
                         262 --line166
                         263 ..lin.C.3A.5C_ECU2.5CECU_Rivian_A1.5CTarget.5Crepo_projects.5CpRealEcu.5CcR_LATEST.5Cmake.5Coutput.5Cobjects.5CRte_NvM_Type.15::
                         264 .LDWlin15:
000000b6 6760            265 	sld.bu	7[ep],r12
000000b8 ec31            266 	cmp	r12,r6
000000ba a90d*           267 	bnl	.L120
                         268 --line168
                         269 ..lin.C.3A.5C_ECU2.5CECU_Rivian_A1.5CTarget.5Crepo_projects.5CpRealEcu.5CcR_LATEST.5Cmake.5Coutput.5Cobjects.5CRte_NvM_Type.16::
                         270 .LDWlin16:
000000bc 0650            271 	mov	r6,r10
000000be c252            272 	shl	2,r10
000000c0 2b0600000000*   273 	mov	_Ram_NvMBlock_CAT07,r11
000000c6 cb51            274 	add	r11,r10
000000c8 c26a            275 	shl	2,r13
000000ca ad51            276 	sub	r13,r10
000000cc 7f00            277 	jmp	[lp]
                         278 .L120:
                         279 --line170
                         280 ..lin.C.3A.5C_ECU2.5CECU_Rivian_A1.5CTarget.5Crepo_projects.5CpRealEcu.5CcR_LATEST.5Cmake.5Coutput.5Cobjects.5CRte_NvM_Type.17::
                         281 .LDWlin17:
000000ce 6858            282 	sld.bu	8[ep],r11
000000d0 eb31            283 	cmp	r11,r6
000000d2 a90d*           284 	bnl	.L123
                         285 --line172
                         286 ..lin.C.3A.5C_ECU2.5CECU_Rivian_A1.5CTarget.5Crepo_projects.5CpRealEcu.5CcR_LATEST.5Cmake.5Coutput.5Cobjects.5CRte_NvM_Type.18::
                         287 .LDWlin18:
000000d4 0650            288 	mov	r6,r10
000000d6 c252            289 	shl	2,r10
000000d8 290600000000*   290 	mov	_Ram_NvMBlock_CAT08,r9
000000de c951            291 	add	r9,r10
000000e0 c262            292 	shl	2,r12
000000e2 ac51            293 	sub	r12,r10
000000e4 7f00            294 	jmp	[lp]

                                                                      Page 6
                                                              C:\Users\nhuliyap\AppData\Local\Temp\gh_0000d8g1.s
                         295 .L123:
                         296 --line174
                         297 ..lin.C.3A.5C_ECU2.5CECU_Rivian_A1.5CTarget.5Crepo_projects.5CpRealEcu.5CcR_LATEST.5Cmake.5Coutput.5Cobjects.5CRte_NvM_Type.19::
                         298 .LDWlin19:
000000e6 6948            299 	sld.bu	9[ep],r9
000000e8 e931            300 	cmp	r9,r6
000000ea a90d*           301 	bnl	.L126
                         302 --line176
                         303 ..lin.C.3A.5C_ECU2.5CECU_Rivian_A1.5CTarget.5Crepo_projects.5CpRealEcu.5CcR_LATEST.5Cmake.5Coutput.5Cobjects.5CRte_NvM_Type.20::
                         304 .LDWlin20:
000000ec 0650            305 	mov	r6,r10
000000ee c252            306 	shl	2,r10
000000f0 280600000000*   307 	mov	_Ram_NvMBlock_CAT09,r8
000000f6 c851            308 	add	r8,r10
000000f8 c25a            309 	shl	2,r11
000000fa ab51            310 	sub	r11,r10
000000fc 7f00            311 	jmp	[lp]
                         312 .L126:
                         313 --line178
                         314 ..lin.C.3A.5C_ECU2.5CECU_Rivian_A1.5CTarget.5Crepo_projects.5CpRealEcu.5CcR_LATEST.5Cmake.5Coutput.5Cobjects.5CRte_NvM_Type.21::
                         315 .LDWlin21:
000000fe 6a38            316 	sld.bu	10[ep],r7
00000100 e731            317 	cmp	r7,r6
00000102 a90d*           318 	bnl	.L100
                         319 --line180
                         320 ..lin.C.3A.5C_ECU2.5CECU_Rivian_A1.5CTarget.5Crepo_projects.5CpRealEcu.5CcR_LATEST.5Cmake.5Coutput.5Cobjects.5CRte_NvM_Type.22::
                         321 .LDWlin22:
00000104 0650            322 	mov	r6,r10
00000106 c252            323 	shl	2,r10
00000108 260600000000*   324 	mov	_Ram_NvMBlock_CAT10,r6
0000010e c651            325 	add	r6,r10
00000110 c24a            326 	shl	2,r9
00000112 a951            327 	sub	r9,r10
00000114 7f00            328 	jmp	[lp]
                         329 .L100:
                         330 --	    .ef
                         331 .LDW31:
                         332 --line186
                         333 ..lin.C.3A.5C_ECU2.5CECU_Rivian_A1.5CTarget.5Crepo_projects.5CpRealEcu.5CcR_LATEST.5Cmake.5Coutput.5Cobjects.5CRte_NvM_Type.23::
                         334 .LDWlin23:
00000116 7f00            335 	jmp	[lp]
                         336 	.global	___ghs_eofn_Memstack_GetNvMRamAdress
                         337 ___ghs_eofn_Memstack_GetNvMRamAdress:
                         338 	.type	_Memstack_GetNvMRamAdress,@function
                         339 	.size	_Memstack_GetNvMRamAdress,.-_Memstack_GetNvMRamAdress
                         340 	.align	2
                         341 --_p2BlockAdress	r10	local
                         342 --_ulTemp	r19	local
                         343 
                         344 --_ushBlockNr	r6	param
                         345 
                         346 	.data
                         347 	.text
                         348 	.align	2
                         349 	.align	2
                         350 ..gh.f.f.1.e.2:
                         351 	.type	..gh.f.f.1.e.2,@object
                         352 	.size	..gh.f.f.1.e.2,0
                         353 	.global	_Memstack_SetEcuNvMRamBlockStatus
                         354 _Memstack_SetEcuNvMRamBlockStatus:
00000118 80076100        355 	prepare	{r29,r31},0

                                                                      Page 7
                                                              C:\Users\nhuliyap\AppData\Local\Temp\gh_0000d8g1.s
0000011c c600            356 	zxh	r6
0000011e 3d0600000000*   357 	mov	_ucCatRamBlockStatus,r29
                         358 --	    .bf
                         359 .LDW41:
                         360 --line192
                         361 ..lin.C.3A.5C_ECU2.5CECU_Rivian_A1.5CTarget.5Crepo_projects.5CpRealEcu.5CcR_LATEST.5Cmake.5Coutput.5Cobjects.5CRte_NvM_Type.24::
                         362 .LDWlin24:
00000124 3df60c00        363 	movea	12,r29,ep
00000128 6190            364 	sld.bu	1[ep],r18
0000012a f231            365 	cmp	r18,r6
0000012c a90d*           366 	bnl	.L465
                         367 --line194
                         368 ..lin.C.3A.5C_ECU2.5CECU_Rivian_A1.5CTarget.5Crepo_projects.5CpRealEcu.5CcR_LATEST.5Cmake.5Coutput.5Cobjects.5CRte_NvM_Type.25::
                         369 .LDWlin25:
0000012e 0232            370 	mov	2,r6
00000130 013a            371 	mov	1,r7
                         372 	jarl	_NvM_SetRamBlockStatus,lp
                         372 <EXPANSION BEGIN>
                         372 jarl22 _NvM_SetRamBlockStatus , lp 
00000132 80ff0000*       372 <EXPANSION END>
                         373 --line195
                         374 ..lin.C.3A.5C_ECU2.5CECU_Rivian_A1.5CTarget.5Crepo_projects.5CpRealEcu.5CcR_LATEST.5Cmake.5Coutput.5Cobjects.5CRte_NvM_Type.26::
                         375 .LDWlin26:
00000136 018a            376 	mov	1,r17
00000138 5d8f0000        377 	st.b	r17,0[r29]
0000013c 40067f00        378 	dispose	0,{r29,r31},[lp]
                         379 .L465:
                         380 --line197
                         381 ..lin.C.3A.5C_ECU2.5CECU_Rivian_A1.5CTarget.5Crepo_projects.5CpRealEcu.5CcR_LATEST.5Cmake.5Coutput.5Cobjects.5CRte_NvM_Type.27::
                         382 .LDWlin27:
00000140 6280            383 	sld.bu	2[ep],r16
00000142 f031            384 	cmp	r16,r6
00000144 a90d*           385 	bnl	.L468
                         386 --line199
                         387 ..lin.C.3A.5C_ECU2.5CECU_Rivian_A1.5CTarget.5Crepo_projects.5CpRealEcu.5CcR_LATEST.5Cmake.5Coutput.5Cobjects.5CRte_NvM_Type.28::
                         388 .LDWlin28:
00000146 0332            389 	mov	3,r6
00000148 013a            390 	mov	1,r7
                         391 	jarl	_NvM_SetRamBlockStatus,lp
                         391 <EXPANSION BEGIN>
                         391 jarl22 _NvM_SetRamBlockStatus , lp 
0000014a 80ff0000*       391 <EXPANSION END>
                         392 --line200
                         393 ..lin.C.3A.5C_ECU2.5CECU_Rivian_A1.5CTarget.5Crepo_projects.5CpRealEcu.5CcR_LATEST.5Cmake.5Coutput.5Cobjects.5CRte_NvM_Type.29::
                         394 .LDWlin29:
0000014e 017a            395 	mov	1,r15
00000150 5d7f0100        396 	st.b	r15,1[r29]
00000154 40067f00        397 	dispose	0,{r29,r31},[lp]
                         398 .L468:
                         399 --line202
                         400 ..lin.C.3A.5C_ECU2.5CECU_Rivian_A1.5CTarget.5Crepo_projects.5CpRealEcu.5CcR_LATEST.5Cmake.5Coutput.5Cobjects.5CRte_NvM_Type.30::
                         401 .LDWlin30:
00000158 6370            402 	sld.bu	3[ep],r14
0000015a ee31            403 	cmp	r14,r6
0000015c a90d*           404 	bnl	.L471
                         405 --line204
                         406 ..lin.C.3A.5C_ECU2.5CECU_Rivian_A1.5CTarget.5Crepo_projects.5CpRealEcu.5CcR_LATEST.5Cmake.5Coutput.5Cobjects.5CRte_NvM_Type.31::
                         407 .LDWlin31:
0000015e 0432            408 	mov	4,r6
00000160 013a            409 	mov	1,r7
                         410 	jarl	_NvM_SetRamBlockStatus,lp

                                                                      Page 8
                                                              C:\Users\nhuliyap\AppData\Local\Temp\gh_0000d8g1.s
                         410 <EXPANSION BEGIN>
                         410 jarl22 _NvM_SetRamBlockStatus , lp 
00000162 80ff0000*       410 <EXPANSION END>
                         411 --line205
                         412 ..lin.C.3A.5C_ECU2.5CECU_Rivian_A1.5CTarget.5Crepo_projects.5CpRealEcu.5CcR_LATEST.5Cmake.5Coutput.5Cobjects.5CRte_NvM_Type.32::
                         413 .LDWlin32:
00000166 016a            414 	mov	1,r13
00000168 5d6f0200        415 	st.b	r13,2[r29]
0000016c 40067f00        416 	dispose	0,{r29,r31},[lp]
                         417 .L471:
                         418 --line207
                         419 ..lin.C.3A.5C_ECU2.5CECU_Rivian_A1.5CTarget.5Crepo_projects.5CpRealEcu.5CcR_LATEST.5Cmake.5Coutput.5Cobjects.5CRte_NvM_Type.33::
                         420 .LDWlin33:
00000170 6460            421 	sld.bu	4[ep],r12
00000172 ec31            422 	cmp	r12,r6
00000174 a90d*           423 	bnl	.L474
                         424 --line209
                         425 ..lin.C.3A.5C_ECU2.5CECU_Rivian_A1.5CTarget.5Crepo_projects.5CpRealEcu.5CcR_LATEST.5Cmake.5Coutput.5Cobjects.5CRte_NvM_Type.34::
                         426 .LDWlin34:
00000176 0532            427 	mov	5,r6
00000178 013a            428 	mov	1,r7
                         429 	jarl	_NvM_SetRamBlockStatus,lp
                         429 <EXPANSION BEGIN>
                         429 jarl22 _NvM_SetRamBlockStatus , lp 
0000017a 80ff0000*       429 <EXPANSION END>
                         430 --line210
                         431 ..lin.C.3A.5C_ECU2.5CECU_Rivian_A1.5CTarget.5Crepo_projects.5CpRealEcu.5CcR_LATEST.5Cmake.5Coutput.5Cobjects.5CRte_NvM_Type.35::
                         432 .LDWlin35:
0000017e 015a            433 	mov	1,r11
00000180 5d5f0300        434 	st.b	r11,3[r29]
00000184 40067f00        435 	dispose	0,{r29,r31},[lp]
                         436 .L474:
                         437 --line212
                         438 ..lin.C.3A.5C_ECU2.5CECU_Rivian_A1.5CTarget.5Crepo_projects.5CpRealEcu.5CcR_LATEST.5Cmake.5Coutput.5Cobjects.5CRte_NvM_Type.36::
                         439 .LDWlin36:
00000188 6550            440 	sld.bu	5[ep],r10
0000018a ea31            441 	cmp	r10,r6
0000018c a90d*           442 	bnl	.L477
                         443 --line214
                         444 ..lin.C.3A.5C_ECU2.5CECU_Rivian_A1.5CTarget.5Crepo_projects.5CpRealEcu.5CcR_LATEST.5Cmake.5Coutput.5Cobjects.5CRte_NvM_Type.37::
                         445 .LDWlin37:
0000018e 0632            446 	mov	6,r6
00000190 013a            447 	mov	1,r7
                         448 	jarl	_NvM_SetRamBlockStatus,lp
                         448 <EXPANSION BEGIN>
                         448 jarl22 _NvM_SetRamBlockStatus , lp 
00000192 80ff0000*       448 <EXPANSION END>
                         449 --line215
                         450 ..lin.C.3A.5C_ECU2.5CECU_Rivian_A1.5CTarget.5Crepo_projects.5CpRealEcu.5CcR_LATEST.5Cmake.5Coutput.5Cobjects.5CRte_NvM_Type.38::
                         451 .LDWlin38:
00000196 014a            452 	mov	1,r9
00000198 5d4f0400        453 	st.b	r9,4[r29]
0000019c 40067f00        454 	dispose	0,{r29,r31},[lp]
                         455 .L477:
                         456 --line217
                         457 ..lin.C.3A.5C_ECU2.5CECU_Rivian_A1.5CTarget.5Crepo_projects.5CpRealEcu.5CcR_LATEST.5Cmake.5Coutput.5Cobjects.5CRte_NvM_Type.39::
                         458 .LDWlin39:
000001a0 6640            459 	sld.bu	6[ep],r8
000001a2 e831            460 	cmp	r8,r6
000001a4 a90d*           461 	bnl	.L480
                         462 --line219

                                                                      Page 9
                                                              C:\Users\nhuliyap\AppData\Local\Temp\gh_0000d8g1.s
                         463 ..lin.C.3A.5C_ECU2.5CECU_Rivian_A1.5CTarget.5Crepo_projects.5CpRealEcu.5CcR_LATEST.5Cmake.5Coutput.5Cobjects.5CRte_NvM_Type.40::
                         464 .LDWlin40:
000001a6 0732            465 	mov	7,r6
000001a8 013a            466 	mov	1,r7
                         467 	jarl	_NvM_SetRamBlockStatus,lp
                         467 <EXPANSION BEGIN>
                         467 jarl22 _NvM_SetRamBlockStatus , lp 
000001aa 80ff0000*       467 <EXPANSION END>
                         468 --line220
                         469 ..lin.C.3A.5C_ECU2.5CECU_Rivian_A1.5CTarget.5Crepo_projects.5CpRealEcu.5CcR_LATEST.5Cmake.5Coutput.5Cobjects.5CRte_NvM_Type.41::
                         470 .LDWlin41:
000001ae 013a            471 	mov	1,r7
000001b0 5d3f0500        472 	st.b	r7,5[r29]
000001b4 40067f00        473 	dispose	0,{r29,r31},[lp]
                         474 .L480:
                         475 --line222
                         476 ..lin.C.3A.5C_ECU2.5CECU_Rivian_A1.5CTarget.5Crepo_projects.5CpRealEcu.5CcR_LATEST.5Cmake.5Coutput.5Cobjects.5CRte_NvM_Type.42::
                         477 .LDWlin42:
000001b8 6798            478 	sld.bu	7[ep],r19
000001ba f331            479 	cmp	r19,r6
000001bc a90d*           480 	bnl	.L483
                         481 --line224
                         482 ..lin.C.3A.5C_ECU2.5CECU_Rivian_A1.5CTarget.5Crepo_projects.5CpRealEcu.5CcR_LATEST.5Cmake.5Coutput.5Cobjects.5CRte_NvM_Type.43::
                         483 .LDWlin43:
000001be 0832            484 	mov	8,r6
000001c0 013a            485 	mov	1,r7
                         486 	jarl	_NvM_SetRamBlockStatus,lp
                         486 <EXPANSION BEGIN>
                         486 jarl22 _NvM_SetRamBlockStatus , lp 
000001c2 80ff0000*       486 <EXPANSION END>
                         487 --line225
                         488 ..lin.C.3A.5C_ECU2.5CECU_Rivian_A1.5CTarget.5Crepo_projects.5CpRealEcu.5CcR_LATEST.5Cmake.5Coutput.5Cobjects.5CRte_NvM_Type.44::
                         489 .LDWlin44:
000001c6 0192            490 	mov	1,r18
000001c8 5d970600        491 	st.b	r18,6[r29]
000001cc 40067f00        492 	dispose	0,{r29,r31},[lp]
                         493 .L483:
                         494 --line227
                         495 ..lin.C.3A.5C_ECU2.5CECU_Rivian_A1.5CTarget.5Crepo_projects.5CpRealEcu.5CcR_LATEST.5Cmake.5Coutput.5Cobjects.5CRte_NvM_Type.45::
                         496 .LDWlin45:
000001d0 6888            497 	sld.bu	8[ep],r17
000001d2 f131            498 	cmp	r17,r6
000001d4 a90d*           499 	bnl	.L486
                         500 --line229
                         501 ..lin.C.3A.5C_ECU2.5CECU_Rivian_A1.5CTarget.5Crepo_projects.5CpRealEcu.5CcR_LATEST.5Cmake.5Coutput.5Cobjects.5CRte_NvM_Type.46::
                         502 .LDWlin46:
000001d6 0932            503 	mov	9,r6
000001d8 013a            504 	mov	1,r7
                         505 	jarl	_NvM_SetRamBlockStatus,lp
                         505 <EXPANSION BEGIN>
                         505 jarl22 _NvM_SetRamBlockStatus , lp 
000001da 80ff0000*       505 <EXPANSION END>
                         506 --line230
                         507 ..lin.C.3A.5C_ECU2.5CECU_Rivian_A1.5CTarget.5Crepo_projects.5CpRealEcu.5CcR_LATEST.5Cmake.5Coutput.5Cobjects.5CRte_NvM_Type.47::
                         508 .LDWlin47:
000001de 0182            509 	mov	1,r16
000001e0 5d870700        510 	st.b	r16,7[r29]
000001e4 40067f00        511 	dispose	0,{r29,r31},[lp]
                         512 .L486:
                         513 --line232
                         514 ..lin.C.3A.5C_ECU2.5CECU_Rivian_A1.5CTarget.5Crepo_projects.5CpRealEcu.5CcR_LATEST.5Cmake.5Coutput.5Cobjects.5CRte_NvM_Type.48::

                                                                      Page 10
                                                              C:\Users\nhuliyap\AppData\Local\Temp\gh_0000d8g1.s
                         515 .LDWlin48:
000001e8 6978            516 	sld.bu	9[ep],r15
000001ea ef31            517 	cmp	r15,r6
000001ec a90d*           518 	bnl	.L489
                         519 --line234
                         520 ..lin.C.3A.5C_ECU2.5CECU_Rivian_A1.5CTarget.5Crepo_projects.5CpRealEcu.5CcR_LATEST.5Cmake.5Coutput.5Cobjects.5CRte_NvM_Type.49::
                         521 .LDWlin49:
000001ee 0a32            522 	mov	10,r6
000001f0 013a            523 	mov	1,r7
                         524 	jarl	_NvM_SetRamBlockStatus,lp
                         524 <EXPANSION BEGIN>
                         524 jarl22 _NvM_SetRamBlockStatus , lp 
000001f2 80ff0000*       524 <EXPANSION END>
                         525 --line235
                         526 ..lin.C.3A.5C_ECU2.5CECU_Rivian_A1.5CTarget.5Crepo_projects.5CpRealEcu.5CcR_LATEST.5Cmake.5Coutput.5Cobjects.5CRte_NvM_Type.50::
                         527 .LDWlin50:
000001f6 0172            528 	mov	1,r14
000001f8 5d770800        529 	st.b	r14,8[r29]
000001fc 40067f00        530 	dispose	0,{r29,r31},[lp]
                         531 .L489:
                         532 --line237
                         533 ..lin.C.3A.5C_ECU2.5CECU_Rivian_A1.5CTarget.5Crepo_projects.5CpRealEcu.5CcR_LATEST.5Cmake.5Coutput.5Cobjects.5CRte_NvM_Type.51::
                         534 .LDWlin51:
00000200 6a68            535 	sld.bu	10[ep],r13
00000202 ed31            536 	cmp	r13,r6
00000204 890d*           537 	bnl	.L463
                         538 --line239
                         539 ..lin.C.3A.5C_ECU2.5CECU_Rivian_A1.5CTarget.5Crepo_projects.5CpRealEcu.5CcR_LATEST.5Cmake.5Coutput.5Cobjects.5CRte_NvM_Type.52::
                         540 .LDWlin52:
00000206 0b32            541 	mov	11,r6
00000208 013a            542 	mov	1,r7
                         543 	jarl	_NvM_SetRamBlockStatus,lp
                         543 <EXPANSION BEGIN>
                         543 jarl22 _NvM_SetRamBlockStatus , lp 
0000020a 80ff0000*       543 <EXPANSION END>
                         544 --line240
                         545 ..lin.C.3A.5C_ECU2.5CECU_Rivian_A1.5CTarget.5Crepo_projects.5CpRealEcu.5CcR_LATEST.5Cmake.5Coutput.5Cobjects.5CRte_NvM_Type.53::
                         546 .LDWlin53:
0000020e 0162            547 	mov	1,r12
00000210 5d670900        548 	st.b	r12,9[r29]
                         549 .L463:
                         550 --	    .ef
                         551 .LDW51:
00000214 40067f00        552 	dispose	0,{r29,r31},[lp]
                         553 	.global	___ghs_eofn_Memstack_SetEcuNvMRamBlockStatus
                         554 ___ghs_eofn_Memstack_SetEcuNvMRamBlockStatus:
                         555 	.type	_Memstack_SetEcuNvMRamBlockStatus,@function
                         556 	.size	_Memstack_SetEcuNvMRamBlockStatus,.-_Memstack_SetEcuNvMRamBlockStatus
                         557 	.align	2
                         558 
                         559 --_ushBlockNr	r6	param
                         560 
                         561 	.data
                         562 	.text
                         563 	.align	2
                         564 	.align	2
                         565 ..gh.f.f.1.e.3:
                         566 	.type	..gh.f.f.1.e.3,@object
                         567 	.size	..gh.f.f.1.e.3,0
                         568 	.global	_infSwcServiceNvMSwcApplEcuM_InitFunction
                         569 _infSwcServiceNvMSwcApplEcuM_InitFunction:

                                                                      Page 11
                                                              C:\Users\nhuliyap\AppData\Local\Temp\gh_0000d8g1.s
00000218 82072100        570 	prepare	{r31},1
                         571 --	    .bf
                         572 .LDW61:
0000021c 260600000000*   573 	mov	_Fls_GstConfiguration,r6
                         574 	jarl	_Fls_Init,lp
                         574 <EXPANSION BEGIN>
                         574 jarl22 _Fls_Init , lp 
00000222 80ff0000*       574 <EXPANSION END>
                         575 --line249
                         576 ..lin.C.3A.5C_ECU2.5CECU_Rivian_A1.5CTarget.5Crepo_projects.5CpRealEcu.5CcR_LATEST.5Cmake.5Coutput.5Cobjects.5CRte_NvM_Type.54::
                         577 .LDWlin54:
                         578 	jarl	_Fee_30_SmallSector_Init,lp
                         578 <EXPANSION BEGIN>
                         578 jarl22 _Fee_30_SmallSector_Init , lp 
00000226 80ff0000*       578 <EXPANSION END>
                         579 --line250
                         580 ..lin.C.3A.5C_ECU2.5CECU_Rivian_A1.5CTarget.5Crepo_projects.5CpRealEcu.5CcR_LATEST.5Cmake.5Coutput.5Cobjects.5CRte_NvM_Type.55::
                         581 .LDWlin55:
                         582 	jarl	_NvM_Init,lp
                         582 <EXPANSION BEGIN>
                         582 jarl22 _NvM_Init , lp 
0000022a 80ff0000*       582 <EXPANSION END>
                         583 --line251
                         584 ..lin.C.3A.5C_ECU2.5CECU_Rivian_A1.5CTarget.5Crepo_projects.5CpRealEcu.5CcR_LATEST.5Cmake.5Coutput.5Cobjects.5CRte_NvM_Type.56::
                         585 .LDWlin56:
                         586 	jarl	_NvM_ReadAll,lp
                         586 <EXPANSION BEGIN>
                         586 jarl22 _NvM_ReadAll , lp 
0000022e 80ff0000*       586 <EXPANSION END>
                         587 .L806:
                         588 --line253
                         589 ..lin.C.3A.5C_ECU2.5CECU_Rivian_A1.5CTarget.5Crepo_projects.5CpRealEcu.5CcR_LATEST.5Cmake.5Coutput.5Cobjects.5CRte_NvM_Type.57::
                         590 .LDWlin57:
                         591 	jarl	_NvM_MainFunction,lp
                         591 <EXPANSION BEGIN>
                         591 jarl22 _NvM_MainFunction , lp 
00000232 80ff0000*       591 <EXPANSION END>
                         592 --line254
                         593 ..lin.C.3A.5C_ECU2.5CECU_Rivian_A1.5CTarget.5Crepo_projects.5CpRealEcu.5CcR_LATEST.5Cmake.5Coutput.5Cobjects.5CRte_NvM_Type.58::
                         594 .LDWlin58:
                         595 	jarl	_Fee_30_SmallSector_MainFunction,lp
                         595 <EXPANSION BEGIN>
                         595 jarl22 _Fee_30_SmallSector_MainFunction , lp 
00000236 80ff0000*       595 <EXPANSION END>
                         596 --line255
                         597 ..lin.C.3A.5C_ECU2.5CECU_Rivian_A1.5CTarget.5Crepo_projects.5CpRealEcu.5CcR_LATEST.5Cmake.5Coutput.5Cobjects.5CRte_NvM_Type.59::
                         598 .LDWlin59:
                         599 	jarl	_Fls_MainFunction,lp
                         599 <EXPANSION BEGIN>
                         599 jarl22 _Fls_MainFunction , lp 
0000023a 80ff0000*       599 <EXPANSION END>
                         600 --line256
                         601 ..lin.C.3A.5C_ECU2.5CECU_Rivian_A1.5CTarget.5Crepo_projects.5CpRealEcu.5CcR_LATEST.5Cmake.5Coutput.5Cobjects.5CRte_NvM_Type.60::
                         602 .LDWlin60:
0000023e 0032            603 	mov	0,r6
00000240 233e0300        604 	movea	3,sp,r7
                         605 	jarl	_NvM_GetErrorStatus,lp
                         605 <EXPANSION BEGIN>
                         605 jarl22 _NvM_GetErrorStatus , lp 
00000244 80ff0000*       605 <EXPANSION END>
                         606 --line257

                                                                      Page 12
                                                              C:\Users\nhuliyap\AppData\Local\Temp\gh_0000d8g1.s
                         607 ..lin.C.3A.5C_ECU2.5CECU_Rivian_A1.5CTarget.5Crepo_projects.5CpRealEcu.5CcR_LATEST.5Cmake.5Coutput.5Cobjects.5CRte_NvM_Type.61::
                         608 .LDWlin61:
00000248 a3970300        609 	ld.bu	3[sp],r18
0000024c 6292            610 	cmp	2,r18
0000024e a2f5*           611 	be	.L806
                         612 --line259
                         613 ..lin.C.3A.5C_ECU2.5CECU_Rivian_A1.5CTarget.5Crepo_projects.5CpRealEcu.5CcR_LATEST.5Cmake.5Coutput.5Cobjects.5CRte_NvM_Type.62::
                         614 .LDWlin62:
00000250 270600000000*   615 	mov	_Ram_NvMBlock_BSW_Data,r7
00000256 0c32            616 	mov	12,r6
                         617 	jarl	_NvM_WriteBlock,lp
                         617 <EXPANSION BEGIN>
                         617 jarl22 _NvM_WriteBlock , lp 
00000258 80ff0000*       617 <EXPANSION END>
                         618 --	    .ef
                         619 .LDW71:
                         620 --line263
                         621 ..lin.C.3A.5C_ECU2.5CECU_Rivian_A1.5CTarget.5Crepo_projects.5CpRealEcu.5CcR_LATEST.5Cmake.5Coutput.5Cobjects.5CRte_NvM_Type.63::
                         622 .LDWlin63:
0000025c 42063f00        623 	dispose	1,{r31},[lp]
                         624 	.global	___ghs_eofn_infSwcServiceNvMSwcApplEcuM_InitFunction
                         625 ___ghs_eofn_infSwcServiceNvMSwcApplEcuM_InitFunction:
                         626 	.type	_infSwcServiceNvMSwcApplEcuM_InitFunction,@function
                         627 	.size	_infSwcServiceNvMSwcApplEcuM_InitFunction,.-_infSwcServiceNvMSwcApplEcuM_InitFunction
                         628 	.align	2
                         629 --_Int_NvMultiBlockStatus	3[sp]	local
                         630 
                         631 	.section ".bss","awb"
                         632 .L843:
                         633 	.type	.L843,@object
                         634 	.size	.L843,0
                         635 	.data
                         636 	.text
                         637 	.align	2
                         638 	.align	2
                         639 ..gh.f.f.1.e.4:
                         640 	.type	..gh.f.f.1.e.4,@object
                         641 	.size	..gh.f.f.1.e.4,0
                         642 	.global	_Memstack_Main
                         643 _Memstack_Main:
00000260 80072100        644 	prepare	{r31},0
                         645 --	    .bf
                         646 .LDW81:
                         647 	jarl	_NvM_MainFunction,lp
                         647 <EXPANSION BEGIN>
                         647 jarl22 _NvM_MainFunction , lp 
00000264 80ff0000*       647 <EXPANSION END>
                         648 --line267
                         649 ..lin.C.3A.5C_ECU2.5CECU_Rivian_A1.5CTarget.5Crepo_projects.5CpRealEcu.5CcR_LATEST.5Cmake.5Coutput.5Cobjects.5CRte_NvM_Type.64::
                         650 .LDWlin64:
                         651 	jarl	_Fee_30_SmallSector_MainFunction,lp
                         651 <EXPANSION BEGIN>
                         651 jarl22 _Fee_30_SmallSector_MainFunction , lp 
00000268 80ff0000*       651 <EXPANSION END>
                         652 --line268
                         653 ..lin.C.3A.5C_ECU2.5CECU_Rivian_A1.5CTarget.5Crepo_projects.5CpRealEcu.5CcR_LATEST.5Cmake.5Coutput.5Cobjects.5CRte_NvM_Type.65::
                         654 .LDWlin65:
                         655 	jarl	_Fls_MainFunction,lp
                         655 <EXPANSION BEGIN>
                         655 jarl22 _Fls_MainFunction , lp 
0000026c 80ff0000*       655 <EXPANSION END>

                                                                      Page 13
                                                              C:\Users\nhuliyap\AppData\Local\Temp\gh_0000d8g1.s
                         656 --	    .ef
                         657 .LDW91:
                         658 --line269
                         659 ..lin.C.3A.5C_ECU2.5CECU_Rivian_A1.5CTarget.5Crepo_projects.5CpRealEcu.5CcR_LATEST.5Cmake.5Coutput.5Cobjects.5CRte_NvM_Type.66::
                         660 .LDWlin66:
00000270 40063f00        661 	dispose	0,{r31},[lp]
                         662 	.global	___ghs_eofn_Memstack_Main
                         663 ___ghs_eofn_Memstack_Main:
                         664 	.type	_Memstack_Main,@function
                         665 	.size	_Memstack_Main,.-_Memstack_Main
                         666 	.align	2
                         667 
                         668 	.section ".bss","awb"
                         669 .L897:
                         670 	.type	.L897,@object
                         671 	.size	.L897,0
                         672 	.data
                         673 	.text
                         674 	.align	2
                         675 	.align	2
                         676 ..gh.f.f.1.e.5:
                         677 	.type	..gh.f.f.1.e.5,@object
                         678 	.size	..gh.f.f.1.e.5,0
                         679 	.global	_Memstack_WriteAllBlocks
                         680 _Memstack_WriteAllBlocks:
00000274 82072100        681 	prepare	{r31},1
                         682 --	    .bf
                         683 .LDW02:
                         684 	jarl	_NvM_WriteAll,lp
                         684 <EXPANSION BEGIN>
                         684 jarl22 _NvM_WriteAll , lp 
00000278 80ff0000*       684 <EXPANSION END>
                         685 .L919:
                         686 --line275
                         687 ..lin.C.3A.5C_ECU2.5CECU_Rivian_A1.5CTarget.5Crepo_projects.5CpRealEcu.5CcR_LATEST.5Cmake.5Coutput.5Cobjects.5CRte_NvM_Type.67::
                         688 .LDWlin67:
                         689 	jarl	_NvM_MainFunction,lp
                         689 <EXPANSION BEGIN>
                         689 jarl22 _NvM_MainFunction , lp 
0000027c 80ff0000*       689 <EXPANSION END>
                         690 --line276
                         691 ..lin.C.3A.5C_ECU2.5CECU_Rivian_A1.5CTarget.5Crepo_projects.5CpRealEcu.5CcR_LATEST.5Cmake.5Coutput.5Cobjects.5CRte_NvM_Type.68::
                         692 .LDWlin68:
                         693 	jarl	_Fee_30_SmallSector_MainFunction,lp
                         693 <EXPANSION BEGIN>
                         693 jarl22 _Fee_30_SmallSector_MainFunction , lp 
00000280 80ff0000*       693 <EXPANSION END>
                         694 --line277
                         695 ..lin.C.3A.5C_ECU2.5CECU_Rivian_A1.5CTarget.5Crepo_projects.5CpRealEcu.5CcR_LATEST.5Cmake.5Coutput.5Cobjects.5CRte_NvM_Type.69::
                         696 .LDWlin69:
                         697 	jarl	_Fls_MainFunction,lp
                         697 <EXPANSION BEGIN>
                         697 jarl22 _Fls_MainFunction , lp 
00000284 80ff0000*       697 <EXPANSION END>
                         698 --line278
                         699 ..lin.C.3A.5C_ECU2.5CECU_Rivian_A1.5CTarget.5Crepo_projects.5CpRealEcu.5CcR_LATEST.5Cmake.5Coutput.5Cobjects.5CRte_NvM_Type.70::
                         700 .LDWlin70:
00000288 0032            701 	mov	0,r6
0000028a 233e0300        702 	movea	3,sp,r7
                         703 	jarl	_NvM_GetErrorStatus,lp
                         703 <EXPANSION BEGIN>

                                                                      Page 14
                                                              C:\Users\nhuliyap\AppData\Local\Temp\gh_0000d8g1.s
                         703 jarl22 _NvM_GetErrorStatus , lp 
0000028e 80ff0000*       703 <EXPANSION END>
                         704 --line280
                         705 ..lin.C.3A.5C_ECU2.5CECU_Rivian_A1.5CTarget.5Crepo_projects.5CpRealEcu.5CcR_LATEST.5Cmake.5Coutput.5Cobjects.5CRte_NvM_Type.71::
                         706 .LDWlin71:
00000292 a3970300        707 	ld.bu	3[sp],r18
00000296 6292            708 	cmp	2,r18
00000298 a2f5*           709 	be	.L919
                         710 --	    .ef
                         711 .LDW12:
                         712 --line281
                         713 ..lin.C.3A.5C_ECU2.5CECU_Rivian_A1.5CTarget.5Crepo_projects.5CpRealEcu.5CcR_LATEST.5Cmake.5Coutput.5Cobjects.5CRte_NvM_Type.72::
                         714 .LDWlin72:
0000029a 42063f00        715 	dispose	1,{r31},[lp]
                         716 	.global	___ghs_eofn_Memstack_WriteAllBlocks
                         717 ___ghs_eofn_Memstack_WriteAllBlocks:
                         718 	.type	_Memstack_WriteAllBlocks,@function
                         719 	.size	_Memstack_WriteAllBlocks,.-_Memstack_WriteAllBlocks
                         720 	.align	2
                         721 --_Int_NvMultiBlockStatus	3[sp]	local
                         722 
                         723 	.section ".bss","awb"
                         724 .L950:
                         725 	.type	.L950,@object
                         726 	.size	.L950,0
                         727 	.data
                         728 	.text
                         729 	.align	2
                         730 	.align	2
                         731 ..gh.f.f.1.e.6:
                         732 	.type	..gh.f.f.1.e.6,@object
                         733 	.size	..gh.f.f.1.e.6,0
                         734 	.global	_Memstack_WriteCategoryOnEvent
                         735 _Memstack_WriteCategoryOnEvent:
0000029e 80076100        736 	prepare	{r29,r31},0
000002a2 320600000000*   737 	mov	_ucCatSaveOnEvent,r18
                         738 --	    .bf
                         739 .LDW22:
                         740 --line285
                         741 ..lin.C.3A.5C_ECU2.5CECU_Rivian_A1.5CTarget.5Crepo_projects.5CpRealEcu.5CcR_LATEST.5Cmake.5Coutput.5Cobjects.5CRte_NvM_Type.73::
                         742 .LDWlin73:
000002a8 008a            743 	mov	0,r17
                         744 .L987:
000002aa 11f0            745 	mov	r17,ep
000002ac d2f1            746 	add	r18,ep
000002ae 6078            747 	sld.bu	0[ep],r15
000002b0 617a            748 	cmp	1,r15
000002b2 ea15*           749 	bne	.L988
                         750 --line287
                         751 ..lin.C.3A.5C_ECU2.5CECU_Rivian_A1.5CTarget.5Crepo_projects.5CpRealEcu.5CcR_LATEST.5Cmake.5Coutput.5Cobjects.5CRte_NvM_Type.74::
                         752 .LDWlin74:
000002b4 6c68            753 	sld.bu	12[ep],r13
000002b6 1eee0c00        754 	addi	12,ep,r29
000002ba 616a            755 	cmp	1,r13
000002bc 9a15*           756 	bne	.L988
                         757 --line288
                         758 ..lin.C.3A.5C_ECU2.5CECU_Rivian_A1.5CTarget.5Crepo_projects.5CpRealEcu.5CcR_LATEST.5Cmake.5Coutput.5Cobjects.5CRte_NvM_Type.75::
                         759 .LDWlin75:
000002be 11f0            760 	mov	r17,ep
000002c0 c2f2            761 	shl	2,ep
000002c2 330600000000*   762 	mov	_pCategoryRamBlock,r19

                                                                      Page 15
                                                              C:\Users\nhuliyap\AppData\Local\Temp\gh_0000d8g1.s
000002c8 d3f1            763 	add	r19,ep
000002ca 003d            764 	sld.w	0[ep],r7
000002cc 11360200        765 	addi	2,r17,r6
000002d0 c600            766 	zxh	r6
                         767 	jarl	_NvM_WriteBlock,lp
                         767 <EXPANSION BEGIN>
                         767 jarl22 _NvM_WriteBlock , lp 
000002d2 80ff0000*       767 <EXPANSION END>
                         768 --line289
                         769 ..lin.C.3A.5C_ECU2.5CECU_Rivian_A1.5CTarget.5Crepo_projects.5CpRealEcu.5CcR_LATEST.5Cmake.5Coutput.5Cobjects.5CRte_NvM_Type.76::
                         770 .LDWlin76:
000002d6 5d070000        771 	st.b	zero,0[r29]
000002da 40067f00        772 	dispose	0,{r29,r31},[lp]
                         773 .L988:
                         774 --line285
                         775 ..lin.C.3A.5C_ECU2.5CECU_Rivian_A1.5CTarget.5Crepo_projects.5CpRealEcu.5CcR_LATEST.5Cmake.5Coutput.5Cobjects.5CRte_NvM_Type.77::
                         776 .LDWlin77:
000002de 418a            777 	add	1,r17
000002e0 6a8a            778 	cmp	10,r17
000002e2 c1e5*           779 	bl	.L987
                         780 --	    .ef
                         781 .LDW32:
                         782 --line294
                         783 ..lin.C.3A.5C_ECU2.5CECU_Rivian_A1.5CTarget.5Crepo_projects.5CpRealEcu.5CcR_LATEST.5Cmake.5Coutput.5Cobjects.5CRte_NvM_Type.78::
                         784 .LDWlin78:
000002e4 40067f00        785 	dispose	0,{r29,r31},[lp]
                         786 	.global	___ghs_eofn_Memstack_WriteCategoryOnEvent
                         787 ___ghs_eofn_Memstack_WriteCategoryOnEvent:
                         788 	.type	_Memstack_WriteCategoryOnEvent,@function
                         789 	.size	_Memstack_WriteCategoryOnEvent,.-_Memstack_WriteCategoryOnEvent
                         790 	.align	2
                         791 --_i	r17	local
                         792 
                         793 	.data
                         794 	.text
                         795 	.align	2
                         796 	.align	2
                         797 ..gh.f.f.1.e.7:
                         798 	.type	..gh.f.f.1.e.7,@object
                         799 	.size	..gh.f.f.1.e.7,0
                         800 	.global	_Memstack_Appl_JobEndCallback_CAT01
                         801 _Memstack_Appl_JobEndCallback_CAT01:
000002e8 82076100        802 	prepare	{r29,r31},1
000002ec 3d0600000000*   803 	mov	_ulCurrentNvmConsistence,r29
                         804 --	    .bf
                         805 .LDW42:
                         806 --line298
                         807 ..lin.C.3A.5C_ECU2.5CECU_Rivian_A1.5CTarget.5Crepo_projects.5CpRealEcu.5CcR_LATEST.5Cmake.5Coutput.5Cobjects.5CRte_NvM_Type.79::
                         808 .LDWlin79:
000002f2 0232            809 	mov	2,r6
000002f4 233e0300        810 	movea	3,sp,r7
                         811 	jarl	_NvM_GetErrorStatus,lp
                         811 <EXPANSION BEGIN>
                         811 jarl22 _NvM_GetErrorStatus , lp 
000002f8 80ff0000*       811 <EXPANSION END>
                         812 --line299
                         813 ..lin.C.3A.5C_ECU2.5CECU_Rivian_A1.5CTarget.5Crepo_projects.5CpRealEcu.5CcR_LATEST.5Cmake.5Coutput.5Cobjects.5CRte_NvM_Type.80::
                         814 .LDWlin80:
000002fc a3970300        815 	ld.bu	3[sp],r18
00000300 6392            816 	cmp	3,r18
00000302 b205*           817 	be	.L1104

                                                                      Page 16
                                                              C:\Users\nhuliyap\AppData\Local\Temp\gh_0000d8g1.s
                         818 --line300
                         819 ..lin.C.3A.5C_ECU2.5CECU_Rivian_A1.5CTarget.5Crepo_projects.5CpRealEcu.5CcR_LATEST.5Cmake.5Coutput.5Cobjects.5CRte_NvM_Type.81::
                         820 .LDWlin81:
00000304 dd070000        821 	set1	0,0[r29]
                         822 .L1104:
                         823 --	    .ef
                         824 .LDW52:
00000308 42067f00        825 	dispose	1,{r29,r31},[lp]
                         826 	.global	___ghs_eofn_Memstack_Appl_JobEndCallback_CAT01
                         827 ___ghs_eofn_Memstack_Appl_JobEndCallback_CAT01:
                         828 	.type	_Memstack_Appl_JobEndCallback_CAT01,@function
                         829 	.size	_Memstack_Appl_JobEndCallback_CAT01,.-_Memstack_Appl_JobEndCallback_CAT01
                         830 	.align	2
                         831 --_ucRequestResult	3[sp]	local
                         832 
                         833 	.data
                         834 	.text
                         835 	.align	2
                         836 	.align	2
                         837 ..gh.f.f.1.e.8:
                         838 	.type	..gh.f.f.1.e.8,@object
                         839 	.size	..gh.f.f.1.e.8,0
                         840 	.global	_Memstack_Appl_JobEndCallback_CAT02
                         841 _Memstack_Appl_JobEndCallback_CAT02:
0000030c 82076100        842 	prepare	{r29,r31},1
00000310 3d0600000000*   843 	mov	_ulCurrentNvmConsistence,r29
                         844 --	    .bf
                         845 .LDW62:
                         846 --line306
                         847 ..lin.C.3A.5C_ECU2.5CECU_Rivian_A1.5CTarget.5Crepo_projects.5CpRealEcu.5CcR_LATEST.5Cmake.5Coutput.5Cobjects.5CRte_NvM_Type.82::
                         848 .LDWlin82:
00000316 0332            849 	mov	3,r6
00000318 233e0300        850 	movea	3,sp,r7
                         851 	jarl	_NvM_GetErrorStatus,lp
                         851 <EXPANSION BEGIN>
                         851 jarl22 _NvM_GetErrorStatus , lp 
0000031c 80ff0000*       851 <EXPANSION END>
                         852 --line307
                         853 ..lin.C.3A.5C_ECU2.5CECU_Rivian_A1.5CTarget.5Crepo_projects.5CpRealEcu.5CcR_LATEST.5Cmake.5Coutput.5Cobjects.5CRte_NvM_Type.83::
                         854 .LDWlin83:
00000320 a3970300        855 	ld.bu	3[sp],r18
00000324 6392            856 	cmp	3,r18
00000326 b205*           857 	be	.L1174
                         858 --line308
                         859 ..lin.C.3A.5C_ECU2.5CECU_Rivian_A1.5CTarget.5Crepo_projects.5CpRealEcu.5CcR_LATEST.5Cmake.5Coutput.5Cobjects.5CRte_NvM_Type.84::
                         860 .LDWlin84:
00000328 dd0f0000        861 	set1	1,0[r29]
                         862 .L1174:
                         863 --	    .ef
                         864 .LDW72:
0000032c 42067f00        865 	dispose	1,{r29,r31},[lp]
                         866 	.global	___ghs_eofn_Memstack_Appl_JobEndCallback_CAT02
                         867 ___ghs_eofn_Memstack_Appl_JobEndCallback_CAT02:
                         868 	.type	_Memstack_Appl_JobEndCallback_CAT02,@function
                         869 	.size	_Memstack_Appl_JobEndCallback_CAT02,.-_Memstack_Appl_JobEndCallback_CAT02
                         870 	.align	2
                         871 --_ucRequestResult	3[sp]	local
                         872 
                         873 	.data
                         874 	.text
                         875 	.align	2

                                                                      Page 17
                                                              C:\Users\nhuliyap\AppData\Local\Temp\gh_0000d8g1.s
                         876 	.align	2
                         877 ..gh.f.f.1.e.9:
                         878 	.type	..gh.f.f.1.e.9,@object
                         879 	.size	..gh.f.f.1.e.9,0
                         880 	.global	_Memstack_Appl_JobEndCallback_CAT03
                         881 _Memstack_Appl_JobEndCallback_CAT03:
00000330 82076100        882 	prepare	{r29,r31},1
00000334 3d0600000000*   883 	mov	_ulCurrentNvmConsistence,r29
                         884 --	    .bf
                         885 .LDW82:
                         886 --line314
                         887 ..lin.C.3A.5C_ECU2.5CECU_Rivian_A1.5CTarget.5Crepo_projects.5CpRealEcu.5CcR_LATEST.5Cmake.5Coutput.5Cobjects.5CRte_NvM_Type.85::
                         888 .LDWlin85:
0000033a 0432            889 	mov	4,r6
0000033c 233e0300        890 	movea	3,sp,r7
                         891 	jarl	_NvM_GetErrorStatus,lp
                         891 <EXPANSION BEGIN>
                         891 jarl22 _NvM_GetErrorStatus , lp 
00000340 80ff0000*       891 <EXPANSION END>
                         892 --line315
                         893 ..lin.C.3A.5C_ECU2.5CECU_Rivian_A1.5CTarget.5Crepo_projects.5CpRealEcu.5CcR_LATEST.5Cmake.5Coutput.5Cobjects.5CRte_NvM_Type.86::
                         894 .LDWlin86:
00000344 a3970300        895 	ld.bu	3[sp],r18
00000348 6392            896 	cmp	3,r18
0000034a b205*           897 	be	.L1238
                         898 --line316
                         899 ..lin.C.3A.5C_ECU2.5CECU_Rivian_A1.5CTarget.5Crepo_projects.5CpRealEcu.5CcR_LATEST.5Cmake.5Coutput.5Cobjects.5CRte_NvM_Type.87::
                         900 .LDWlin87:
0000034c dd170000        901 	set1	2,0[r29]
                         902 .L1238:
                         903 --	    .ef
                         904 .LDW92:
00000350 42067f00        905 	dispose	1,{r29,r31},[lp]
                         906 	.global	___ghs_eofn_Memstack_Appl_JobEndCallback_CAT03
                         907 ___ghs_eofn_Memstack_Appl_JobEndCallback_CAT03:
                         908 	.type	_Memstack_Appl_JobEndCallback_CAT03,@function
                         909 	.size	_Memstack_Appl_JobEndCallback_CAT03,.-_Memstack_Appl_JobEndCallback_CAT03
                         910 	.align	2
                         911 --_ucRequestResult	3[sp]	local
                         912 
                         913 	.data
                         914 	.text
                         915 	.align	2
                         916 	.align	2
                         917 ..gh.f.f.1.e.10:
                         918 	.type	..gh.f.f.1.e.10,@object
                         919 	.size	..gh.f.f.1.e.10,0
                         920 	.global	_Memstack_Appl_JobEndCallback_CAT04
                         921 _Memstack_Appl_JobEndCallback_CAT04:
00000354 82076100        922 	prepare	{r29,r31},1
00000358 3d0600000000*   923 	mov	_ulCurrentNvmConsistence,r29
                         924 --	    .bf
                         925 .LDW03:
                         926 --line322
                         927 ..lin.C.3A.5C_ECU2.5CECU_Rivian_A1.5CTarget.5Crepo_projects.5CpRealEcu.5CcR_LATEST.5Cmake.5Coutput.5Cobjects.5CRte_NvM_Type.88::
                         928 .LDWlin88:
0000035e 0532            929 	mov	5,r6
00000360 233e0300        930 	movea	3,sp,r7
                         931 	jarl	_NvM_GetErrorStatus,lp
                         931 <EXPANSION BEGIN>
                         931 jarl22 _NvM_GetErrorStatus , lp 

                                                                      Page 18
                                                              C:\Users\nhuliyap\AppData\Local\Temp\gh_0000d8g1.s
00000364 80ff0000*       931 <EXPANSION END>
                         932 --line323
                         933 ..lin.C.3A.5C_ECU2.5CECU_Rivian_A1.5CTarget.5Crepo_projects.5CpRealEcu.5CcR_LATEST.5Cmake.5Coutput.5Cobjects.5CRte_NvM_Type.89::
                         934 .LDWlin89:
00000368 a3970300        935 	ld.bu	3[sp],r18
0000036c 6392            936 	cmp	3,r18
0000036e b205*           937 	be	.L1302
                         938 --line324
                         939 ..lin.C.3A.5C_ECU2.5CECU_Rivian_A1.5CTarget.5Crepo_projects.5CpRealEcu.5CcR_LATEST.5Cmake.5Coutput.5Cobjects.5CRte_NvM_Type.90::
                         940 .LDWlin90:
00000370 dd1f0000        941 	set1	3,0[r29]
                         942 .L1302:
                         943 --	    .ef
                         944 .LDW13:
00000374 42067f00        945 	dispose	1,{r29,r31},[lp]
                         946 	.global	___ghs_eofn_Memstack_Appl_JobEndCallback_CAT04
                         947 ___ghs_eofn_Memstack_Appl_JobEndCallback_CAT04:
                         948 	.type	_Memstack_Appl_JobEndCallback_CAT04,@function
                         949 	.size	_Memstack_Appl_JobEndCallback_CAT04,.-_Memstack_Appl_JobEndCallback_CAT04
                         950 	.align	2
                         951 --_ucRequestResult	3[sp]	local
                         952 
                         953 	.data
                         954 	.text
                         955 	.align	2
                         956 	.align	2
                         957 ..gh.f.f.1.e.11:
                         958 	.type	..gh.f.f.1.e.11,@object
                         959 	.size	..gh.f.f.1.e.11,0
                         960 	.global	_Memstack_Appl_JobEndCallback_CAT05
                         961 _Memstack_Appl_JobEndCallback_CAT05:
00000378 82076100        962 	prepare	{r29,r31},1
0000037c 3d0600000000*   963 	mov	_ulCurrentNvmConsistence,r29
                         964 --	    .bf
                         965 .LDW23:
                         966 --line330
                         967 ..lin.C.3A.5C_ECU2.5CECU_Rivian_A1.5CTarget.5Crepo_projects.5CpRealEcu.5CcR_LATEST.5Cmake.5Coutput.5Cobjects.5CRte_NvM_Type.91::
                         968 .LDWlin91:
00000382 0632            969 	mov	6,r6
00000384 233e0300        970 	movea	3,sp,r7
                         971 	jarl	_NvM_GetErrorStatus,lp
                         971 <EXPANSION BEGIN>
                         971 jarl22 _NvM_GetErrorStatus , lp 
00000388 80ff0000*       971 <EXPANSION END>
                         972 --line331
                         973 ..lin.C.3A.5C_ECU2.5CECU_Rivian_A1.5CTarget.5Crepo_projects.5CpRealEcu.5CcR_LATEST.5Cmake.5Coutput.5Cobjects.5CRte_NvM_Type.92::
                         974 .LDWlin92:
0000038c a3970300        975 	ld.bu	3[sp],r18
00000390 6392            976 	cmp	3,r18
00000392 b205*           977 	be	.L1366
                         978 --line332
                         979 ..lin.C.3A.5C_ECU2.5CECU_Rivian_A1.5CTarget.5Crepo_projects.5CpRealEcu.5CcR_LATEST.5Cmake.5Coutput.5Cobjects.5CRte_NvM_Type.93::
                         980 .LDWlin93:
00000394 dd270000        981 	set1	4,0[r29]
                         982 .L1366:
                         983 --	    .ef
                         984 .LDW33:
00000398 42067f00        985 	dispose	1,{r29,r31},[lp]
                         986 	.global	___ghs_eofn_Memstack_Appl_JobEndCallback_CAT05
                         987 ___ghs_eofn_Memstack_Appl_JobEndCallback_CAT05:
                         988 	.type	_Memstack_Appl_JobEndCallback_CAT05,@function

                                                                      Page 19
                                                              C:\Users\nhuliyap\AppData\Local\Temp\gh_0000d8g1.s
                         989 	.size	_Memstack_Appl_JobEndCallback_CAT05,.-_Memstack_Appl_JobEndCallback_CAT05
                         990 	.align	2
                         991 --_ucRequestResult	3[sp]	local
                         992 
                         993 	.data
                         994 	.text
                         995 	.align	2
                         996 	.align	2
                         997 ..gh.f.f.1.e.12:
                         998 	.type	..gh.f.f.1.e.12,@object
                         999 	.size	..gh.f.f.1.e.12,0
                        1000 	.global	_Memstack_Appl_JobEndCallback_CAT06
                        1001 _Memstack_Appl_JobEndCallback_CAT06:
0000039c 82076100       1002 	prepare	{r29,r31},1
000003a0 3d0600000000*  1003 	mov	_ulCurrentNvmConsistence,r29
                        1004 --	    .bf
                        1005 .LDW43:
                        1006 --line338
                        1007 ..lin.C.3A.5C_ECU2.5CECU_Rivian_A1.5CTarget.5Crepo_projects.5CpRealEcu.5CcR_LATEST.5Cmake.5Coutput.5Cobjects.5CRte_NvM_Type.94::
                        1008 .LDWlin94:
000003a6 0732           1009 	mov	7,r6
000003a8 233e0300       1010 	movea	3,sp,r7
                        1011 	jarl	_NvM_GetErrorStatus,lp
                        1011 <EXPANSION BEGIN>
                        1011 jarl22 _NvM_GetErrorStatus , lp 
000003ac 80ff0000*      1011 <EXPANSION END>
                        1012 --line339
                        1013 ..lin.C.3A.5C_ECU2.5CECU_Rivian_A1.5CTarget.5Crepo_projects.5CpRealEcu.5CcR_LATEST.5Cmake.5Coutput.5Cobjects.5CRte_NvM_Type.95::
                        1014 .LDWlin95:
000003b0 a3970300       1015 	ld.bu	3[sp],r18
000003b4 6392           1016 	cmp	3,r18
000003b6 b205*          1017 	be	.L1430
                        1018 --line341
                        1019 ..lin.C.3A.5C_ECU2.5CECU_Rivian_A1.5CTarget.5Crepo_projects.5CpRealEcu.5CcR_LATEST.5Cmake.5Coutput.5Cobjects.5CRte_NvM_Type.96::
                        1020 .LDWlin96:
000003b8 dd2f0000       1021 	set1	5,0[r29]
                        1022 .L1430:
                        1023 --	    .ef
                        1024 .LDW53:
000003bc 42067f00       1025 	dispose	1,{r29,r31},[lp]
                        1026 	.global	___ghs_eofn_Memstack_Appl_JobEndCallback_CAT06
                        1027 ___ghs_eofn_Memstack_Appl_JobEndCallback_CAT06:
                        1028 	.type	_Memstack_Appl_JobEndCallback_CAT06,@function
                        1029 	.size	_Memstack_Appl_JobEndCallback_CAT06,.-_Memstack_Appl_JobEndCallback_CAT06
                        1030 	.align	2
                        1031 --_ucRequestResult	3[sp]	local
                        1032 
                        1033 	.data
                        1034 	.text
                        1035 	.align	2
                        1036 	.align	2
                        1037 ..gh.f.f.1.e.13:
                        1038 	.type	..gh.f.f.1.e.13,@object
                        1039 	.size	..gh.f.f.1.e.13,0
                        1040 	.global	_Memstack_Appl_JobEndCallback_CAT07
                        1041 _Memstack_Appl_JobEndCallback_CAT07:
000003c0 82076100       1042 	prepare	{r29,r31},1
000003c4 3d0600000000*  1043 	mov	_ulCurrentNvmConsistence,r29
                        1044 --	    .bf
                        1045 .LDW63:
                        1046 --line347

                                                                      Page 20
                                                              C:\Users\nhuliyap\AppData\Local\Temp\gh_0000d8g1.s
                        1047 ..lin.C.3A.5C_ECU2.5CECU_Rivian_A1.5CTarget.5Crepo_projects.5CpRealEcu.5CcR_LATEST.5Cmake.5Coutput.5Cobjects.5CRte_NvM_Type.97::
                        1048 .LDWlin97:
000003ca 0832           1049 	mov	8,r6
000003cc 233e0300       1050 	movea	3,sp,r7
                        1051 	jarl	_NvM_GetErrorStatus,lp
                        1051 <EXPANSION BEGIN>
                        1051 jarl22 _NvM_GetErrorStatus , lp 
000003d0 80ff0000*      1051 <EXPANSION END>
                        1052 --line348
                        1053 ..lin.C.3A.5C_ECU2.5CECU_Rivian_A1.5CTarget.5Crepo_projects.5CpRealEcu.5CcR_LATEST.5Cmake.5Coutput.5Cobjects.5CRte_NvM_Type.98::
                        1054 .LDWlin98:
000003d4 a3970300       1055 	ld.bu	3[sp],r18
000003d8 6392           1056 	cmp	3,r18
000003da b205*          1057 	be	.L1494
                        1058 --line350
                        1059 ..lin.C.3A.5C_ECU2.5CECU_Rivian_A1.5CTarget.5Crepo_projects.5CpRealEcu.5CcR_LATEST.5Cmake.5Coutput.5Cobjects.5CRte_NvM_Type.99::
                        1060 .LDWlin99:
000003dc dd370000       1061 	set1	6,0[r29]
                        1062 .L1494:
                        1063 --	    .ef
                        1064 .LDW73:
000003e0 42067f00       1065 	dispose	1,{r29,r31},[lp]
                        1066 	.global	___ghs_eofn_Memstack_Appl_JobEndCallback_CAT07
                        1067 ___ghs_eofn_Memstack_Appl_JobEndCallback_CAT07:
                        1068 	.type	_Memstack_Appl_JobEndCallback_CAT07,@function
                        1069 	.size	_Memstack_Appl_JobEndCallback_CAT07,.-_Memstack_Appl_JobEndCallback_CAT07
                        1070 	.align	2
                        1071 --_ucRequestResult	3[sp]	local
                        1072 
                        1073 	.data
                        1074 	.text
                        1075 	.align	2
                        1076 	.align	2
                        1077 ..gh.f.f.1.e.14:
                        1078 	.type	..gh.f.f.1.e.14,@object
                        1079 	.size	..gh.f.f.1.e.14,0
                        1080 	.global	_Memstack_Appl_JobEndCallback_CAT08
                        1081 _Memstack_Appl_JobEndCallback_CAT08:
000003e4 82076100       1082 	prepare	{r29,r31},1
000003e8 3d0600000000*  1083 	mov	_ulCurrentNvmConsistence,r29
                        1084 --	    .bf
                        1085 .LDW83:
                        1086 --line356
                        1087 ..lin.C.3A.5C_ECU2.5CECU_Rivian_A1.5CTarget.5Crepo_projects.5CpRealEcu.5CcR_LATEST.5Cmake.5Coutput.5Cobjects.5CRte_NvM_Type.100::
                        1088 .LDWlin100:
000003ee 0932           1089 	mov	9,r6
000003f0 233e0300       1090 	movea	3,sp,r7
                        1091 	jarl	_NvM_GetErrorStatus,lp
                        1091 <EXPANSION BEGIN>
                        1091 jarl22 _NvM_GetErrorStatus , lp 
000003f4 80ff0000*      1091 <EXPANSION END>
                        1092 --line357
                        1093 ..lin.C.3A.5C_ECU2.5CECU_Rivian_A1.5CTarget.5Crepo_projects.5CpRealEcu.5CcR_LATEST.5Cmake.5Coutput.5Cobjects.5CRte_NvM_Type.101::
                        1094 .LDWlin101:
000003f8 a3970300       1095 	ld.bu	3[sp],r18
000003fc 6392           1096 	cmp	3,r18
000003fe b205*          1097 	be	.L1558
                        1098 --line359
                        1099 ..lin.C.3A.5C_ECU2.5CECU_Rivian_A1.5CTarget.5Crepo_projects.5CpRealEcu.5CcR_LATEST.5Cmake.5Coutput.5Cobjects.5CRte_NvM_Type.102::
                        1100 .LDWlin102:
00000400 dd3f0000       1101 	set1	7,0[r29]

                                                                      Page 21
                                                              C:\Users\nhuliyap\AppData\Local\Temp\gh_0000d8g1.s
                        1102 .L1558:
                        1103 --	    .ef
                        1104 .LDW93:
00000404 42067f00       1105 	dispose	1,{r29,r31},[lp]
                        1106 	.global	___ghs_eofn_Memstack_Appl_JobEndCallback_CAT08
                        1107 ___ghs_eofn_Memstack_Appl_JobEndCallback_CAT08:
                        1108 	.type	_Memstack_Appl_JobEndCallback_CAT08,@function
                        1109 	.size	_Memstack_Appl_JobEndCallback_CAT08,.-_Memstack_Appl_JobEndCallback_CAT08
                        1110 	.align	2
                        1111 --_ucRequestResult	3[sp]	local
                        1112 
                        1113 	.data
                        1114 	.text
                        1115 	.align	2
                        1116 	.align	2
                        1117 ..gh.f.f.1.e.15:
                        1118 	.type	..gh.f.f.1.e.15,@object
                        1119 	.size	..gh.f.f.1.e.15,0
                        1120 	.global	_Memstack_Appl_JobEndCallback_CAT09
                        1121 _Memstack_Appl_JobEndCallback_CAT09:
00000408 82076100       1122 	prepare	{r29,r31},1
0000040c 3d0600000000*  1123 	mov	_ulCurrentNvmConsistence,r29
                        1124 --	    .bf
                        1125 .LDW04:
                        1126 --line365
                        1127 ..lin.C.3A.5C_ECU2.5CECU_Rivian_A1.5CTarget.5Crepo_projects.5CpRealEcu.5CcR_LATEST.5Cmake.5Coutput.5Cobjects.5CRte_NvM_Type.103::
                        1128 .LDWlin103:
00000412 0a32           1129 	mov	10,r6
00000414 233e0300       1130 	movea	3,sp,r7
                        1131 	jarl	_NvM_GetErrorStatus,lp
                        1131 <EXPANSION BEGIN>
                        1131 jarl22 _NvM_GetErrorStatus , lp 
00000418 80ff0000*      1131 <EXPANSION END>
                        1132 --line366
                        1133 ..lin.C.3A.5C_ECU2.5CECU_Rivian_A1.5CTarget.5Crepo_projects.5CpRealEcu.5CcR_LATEST.5Cmake.5Coutput.5Cobjects.5CRte_NvM_Type.104::
                        1134 .LDWlin104:
0000041c a3970300       1135 	ld.bu	3[sp],r18
00000420 6392           1136 	cmp	3,r18
00000422 b205*          1137 	be	.L1622
                        1138 --line368
                        1139 ..lin.C.3A.5C_ECU2.5CECU_Rivian_A1.5CTarget.5Crepo_projects.5CpRealEcu.5CcR_LATEST.5Cmake.5Coutput.5Cobjects.5CRte_NvM_Type.105::
                        1140 .LDWlin105:
00000424 dd070100       1141 	set1	0,1[r29]
                        1142 .L1622:
                        1143 --	    .ef
                        1144 .LDW14:
00000428 42067f00       1145 	dispose	1,{r29,r31},[lp]
                        1146 	.global	___ghs_eofn_Memstack_Appl_JobEndCallback_CAT09
                        1147 ___ghs_eofn_Memstack_Appl_JobEndCallback_CAT09:
                        1148 	.type	_Memstack_Appl_JobEndCallback_CAT09,@function
                        1149 	.size	_Memstack_Appl_JobEndCallback_CAT09,.-_Memstack_Appl_JobEndCallback_CAT09
                        1150 	.align	2
                        1151 --_ucRequestResult	3[sp]	local
                        1152 
                        1153 	.data
                        1154 	.text
                        1155 	.align	2
                        1156 	.align	2
                        1157 ..gh.f.f.1.e.16:
                        1158 	.type	..gh.f.f.1.e.16,@object
                        1159 	.size	..gh.f.f.1.e.16,0

                                                                      Page 22
                                                              C:\Users\nhuliyap\AppData\Local\Temp\gh_0000d8g1.s
                        1160 	.global	_Memstack_Appl_JobEndCallback_CAT10
                        1161 _Memstack_Appl_JobEndCallback_CAT10:
0000042c 82076100       1162 	prepare	{r29,r31},1
00000430 3d0600000000*  1163 	mov	_ulCurrentNvmConsistence,r29
                        1164 --	    .bf
                        1165 .LDW24:
                        1166 --line374
                        1167 ..lin.C.3A.5C_ECU2.5CECU_Rivian_A1.5CTarget.5Crepo_projects.5CpRealEcu.5CcR_LATEST.5Cmake.5Coutput.5Cobjects.5CRte_NvM_Type.106::
                        1168 .LDWlin106:
00000436 0b32           1169 	mov	11,r6
00000438 233e0300       1170 	movea	3,sp,r7
                        1171 	jarl	_NvM_GetErrorStatus,lp
                        1171 <EXPANSION BEGIN>
                        1171 jarl22 _NvM_GetErrorStatus , lp 
0000043c 80ff0000*      1171 <EXPANSION END>
                        1172 --line375
                        1173 ..lin.C.3A.5C_ECU2.5CECU_Rivian_A1.5CTarget.5Crepo_projects.5CpRealEcu.5CcR_LATEST.5Cmake.5Coutput.5Cobjects.5CRte_NvM_Type.107::
                        1174 .LDWlin107:
00000440 a3970300       1175 	ld.bu	3[sp],r18
00000444 6392           1176 	cmp	3,r18
00000446 b205*          1177 	be	.L1686
                        1178 --line377
                        1179 ..lin.C.3A.5C_ECU2.5CECU_Rivian_A1.5CTarget.5Crepo_projects.5CpRealEcu.5CcR_LATEST.5Cmake.5Coutput.5Cobjects.5CRte_NvM_Type.108::
                        1180 .LDWlin108:
00000448 dd0f0100       1181 	set1	1,1[r29]
                        1182 .L1686:
                        1183 --	    .ef
                        1184 .LDW34:
0000044c 42067f00       1185 	dispose	1,{r29,r31},[lp]
                        1186 	.global	___ghs_eofn_Memstack_Appl_JobEndCallback_CAT10
                        1187 ___ghs_eofn_Memstack_Appl_JobEndCallback_CAT10:
                        1188 	.type	_Memstack_Appl_JobEndCallback_CAT10,@function
                        1189 	.size	_Memstack_Appl_JobEndCallback_CAT10,.-_Memstack_Appl_JobEndCallback_CAT10
                        1190 	.align	2
                        1191 --_ucRequestResult	3[sp]	local
                        1192 
                        1193 	.data
                        1194 	.text
                        1195 	.align	2
                        1196 	.align	2
                        1197 ..gh.f.f.1.e.17:
                        1198 	.type	..gh.f.f.1.e.17,@object
                        1199 	.size	..gh.f.f.1.e.17,0
                        1200 	.global	_Memstack_Appl_JobEndCallback_DemNvm_IdEvStatusByte
                        1201 _Memstack_Appl_JobEndCallback_DemNvm_IdEvStatusByte:
00000450 82076100       1202 	prepare	{r29,r31},1
00000454 3d0600000000*  1203 	mov	_ulCurrentNvmConsistence,r29
                        1204 --	    .bf
                        1205 .LDW44:
                        1206 --line383
                        1207 ..lin.C.3A.5C_ECU2.5CECU_Rivian_A1.5CTarget.5Crepo_projects.5CpRealEcu.5CcR_LATEST.5Cmake.5Coutput.5Cobjects.5CRte_NvM_Type.109::
                        1208 .LDWlin109:
0000045a 0e32           1209 	mov	14,r6
0000045c 233e0300       1210 	movea	3,sp,r7
                        1211 	jarl	_NvM_GetErrorStatus,lp
                        1211 <EXPANSION BEGIN>
                        1211 jarl22 _NvM_GetErrorStatus , lp 
00000460 80ff0000*      1211 <EXPANSION END>
                        1212 --line384
                        1213 ..lin.C.3A.5C_ECU2.5CECU_Rivian_A1.5CTarget.5Crepo_projects.5CpRealEcu.5CcR_LATEST.5Cmake.5Coutput.5Cobjects.5CRte_NvM_Type.110::
                        1214 .LDWlin110:

                                                                      Page 23
                                                              C:\Users\nhuliyap\AppData\Local\Temp\gh_0000d8g1.s
00000464 a3970300       1215 	ld.bu	3[sp],r18
00000468 6392           1216 	cmp	3,r18
0000046a b205*          1217 	be	.L1750
                        1218 --line386
                        1219 ..lin.C.3A.5C_ECU2.5CECU_Rivian_A1.5CTarget.5Crepo_projects.5CpRealEcu.5CcR_LATEST.5Cmake.5Coutput.5Cobjects.5CRte_NvM_Type.111::
                        1220 .LDWlin111:
0000046c dd170100       1221 	set1	2,1[r29]
                        1222 .L1750:
                        1223 --	    .ef
                        1224 .LDW54:
00000470 42067f00       1225 	dispose	1,{r29,r31},[lp]
                        1226 	.global	___ghs_eofn_Memstack_Appl_JobEndCallback_DemNvm_IdEvStatusByte
                        1227 ___ghs_eofn_Memstack_Appl_JobEndCallback_DemNvm_IdEvStatusByte:
                        1228 	.type	_Memstack_Appl_JobEndCallback_DemNvm_IdEvStatusByte,@function
                        1229 	.size	_Memstack_Appl_JobEndCallback_DemNvm_IdEvStatusByte,.-_Memstack_Appl_JobEndCallback_DemNvm_IdEvStatusByte
                        1230 	.align	2
                        1231 --_ucRequestResult	3[sp]	local
                        1232 
                        1233 	.data
                        1234 	.text
                        1235 	.align	2
                        1236 	.align	2
                        1237 ..gh.f.f.1.e.18:
                        1238 	.type	..gh.f.f.1.e.18,@object
                        1239 	.size	..gh.f.f.1.e.18,0
                        1240 	.global	_Memstack_Appl_JobEndCallback_DemNvm_IdEvMemLoc0
                        1241 _Memstack_Appl_JobEndCallback_DemNvm_IdEvMemLoc0:
00000474 82076100       1242 	prepare	{r29,r31},1
00000478 3d0600000000*  1243 	mov	_ulCurrentNvmConsistence,r29
                        1244 --	    .bf
                        1245 .LDW64:
                        1246 --line392
                        1247 ..lin.C.3A.5C_ECU2.5CECU_Rivian_A1.5CTarget.5Crepo_projects.5CpRealEcu.5CcR_LATEST.5Cmake.5Coutput.5Cobjects.5CRte_NvM_Type.112::
                        1248 .LDWlin112:
0000047e 0f32           1249 	mov	15,r6
00000480 233e0300       1250 	movea	3,sp,r7
                        1251 	jarl	_NvM_GetErrorStatus,lp
                        1251 <EXPANSION BEGIN>
                        1251 jarl22 _NvM_GetErrorStatus , lp 
00000484 80ff0000*      1251 <EXPANSION END>
                        1252 --line393
                        1253 ..lin.C.3A.5C_ECU2.5CECU_Rivian_A1.5CTarget.5Crepo_projects.5CpRealEcu.5CcR_LATEST.5Cmake.5Coutput.5Cobjects.5CRte_NvM_Type.113::
                        1254 .LDWlin113:
00000488 a3970300       1255 	ld.bu	3[sp],r18
0000048c 6392           1256 	cmp	3,r18
0000048e b205*          1257 	be	.L1814
                        1258 --line395
                        1259 ..lin.C.3A.5C_ECU2.5CECU_Rivian_A1.5CTarget.5Crepo_projects.5CpRealEcu.5CcR_LATEST.5Cmake.5Coutput.5Cobjects.5CRte_NvM_Type.114::
                        1260 .LDWlin114:
00000490 dd1f0100       1261 	set1	3,1[r29]
                        1262 .L1814:
                        1263 --	    .ef
                        1264 .LDW74:
00000494 42067f00       1265 	dispose	1,{r29,r31},[lp]
                        1266 	.global	___ghs_eofn_Memstack_Appl_JobEndCallback_DemNvm_IdEvMemLoc0
                        1267 ___ghs_eofn_Memstack_Appl_JobEndCallback_DemNvm_IdEvMemLoc0:
                        1268 	.type	_Memstack_Appl_JobEndCallback_DemNvm_IdEvMemLoc0,@function
                        1269 	.size	_Memstack_Appl_JobEndCallback_DemNvm_IdEvMemLoc0,.-_Memstack_Appl_JobEndCallback_DemNvm_IdEvMemLoc0
                        1270 	.align	2
                        1271 --_ucRequestResult	3[sp]	local
                        1272 

                                                                      Page 24
                                                              C:\Users\nhuliyap\AppData\Local\Temp\gh_0000d8g1.s
                        1273 	.data
                        1274 	.text
                        1275 	.align	2
                        1276 	.align	2
                        1277 ..gh.f.f.1.e.19:
                        1278 	.type	..gh.f.f.1.e.19,@object
                        1279 	.size	..gh.f.f.1.e.19,0
                        1280 	.global	_Memstack_Appl_JobEndCallback_DemNvm_IdEvMemLoc1
                        1281 _Memstack_Appl_JobEndCallback_DemNvm_IdEvMemLoc1:
00000498 82076100       1282 	prepare	{r29,r31},1
0000049c 3d0600000000*  1283 	mov	_ulCurrentNvmConsistence,r29
                        1284 --	    .bf
                        1285 .LDW84:
                        1286 --line401
                        1287 ..lin.C.3A.5C_ECU2.5CECU_Rivian_A1.5CTarget.5Crepo_projects.5CpRealEcu.5CcR_LATEST.5Cmake.5Coutput.5Cobjects.5CRte_NvM_Type.115::
                        1288 .LDWlin115:
000004a2 20361000       1289 	movea	16,zero,r6
000004a6 233e0300       1290 	movea	3,sp,r7
                        1291 	jarl	_NvM_GetErrorStatus,lp
                        1291 <EXPANSION BEGIN>
                        1291 jarl22 _NvM_GetErrorStatus , lp 
000004aa 80ff0000*      1291 <EXPANSION END>
                        1292 --line402
                        1293 ..lin.C.3A.5C_ECU2.5CECU_Rivian_A1.5CTarget.5Crepo_projects.5CpRealEcu.5CcR_LATEST.5Cmake.5Coutput.5Cobjects.5CRte_NvM_Type.116::
                        1294 .LDWlin116:
000004ae a3970300       1295 	ld.bu	3[sp],r18
000004b2 6392           1296 	cmp	3,r18
000004b4 b205*          1297 	be	.L1878
                        1298 --line404
                        1299 ..lin.C.3A.5C_ECU2.5CECU_Rivian_A1.5CTarget.5Crepo_projects.5CpRealEcu.5CcR_LATEST.5Cmake.5Coutput.5Cobjects.5CRte_NvM_Type.117::
                        1300 .LDWlin117:
000004b6 dd270100       1301 	set1	4,1[r29]
                        1302 .L1878:
                        1303 --	    .ef
                        1304 .LDW94:
000004ba 42067f00       1305 	dispose	1,{r29,r31},[lp]
                        1306 	.global	___ghs_eofn_Memstack_Appl_JobEndCallback_DemNvm_IdEvMemLoc1
                        1307 ___ghs_eofn_Memstack_Appl_JobEndCallback_DemNvm_IdEvMemLoc1:
                        1308 	.type	_Memstack_Appl_JobEndCallback_DemNvm_IdEvMemLoc1,@function
                        1309 	.size	_Memstack_Appl_JobEndCallback_DemNvm_IdEvMemLoc1,.-_Memstack_Appl_JobEndCallback_DemNvm_IdEvMemLoc1
                        1310 	.align	2
                        1311 --_ucRequestResult	3[sp]	local
                        1312 
                        1313 	.data
                        1314 	.text
                        1315 	.align	2
                        1316 	.align	2
                        1317 ..gh.f.f.1.e.20:
                        1318 	.type	..gh.f.f.1.e.20,@object
                        1319 	.size	..gh.f.f.1.e.20,0
                        1320 	.global	_Memstack_Appl_JobEndCallback_DemNvm_IdEvMemLoc2
                        1321 _Memstack_Appl_JobEndCallback_DemNvm_IdEvMemLoc2:
000004be 82076100       1322 	prepare	{r29,r31},1
000004c2 3d0600000000*  1323 	mov	_ulCurrentNvmConsistence,r29
                        1324 --	    .bf
                        1325 .LDW05:
                        1326 --line410
                        1327 ..lin.C.3A.5C_ECU2.5CECU_Rivian_A1.5CTarget.5Crepo_projects.5CpRealEcu.5CcR_LATEST.5Cmake.5Coutput.5Cobjects.5CRte_NvM_Type.118::
                        1328 .LDWlin118:
000004c8 20361100       1329 	movea	17,zero,r6
000004cc 233e0300       1330 	movea	3,sp,r7

                                                                      Page 25
                                                              C:\Users\nhuliyap\AppData\Local\Temp\gh_0000d8g1.s
                        1331 	jarl	_NvM_GetErrorStatus,lp
                        1331 <EXPANSION BEGIN>
                        1331 jarl22 _NvM_GetErrorStatus , lp 
000004d0 80ff0000*      1331 <EXPANSION END>
                        1332 --line411
                        1333 ..lin.C.3A.5C_ECU2.5CECU_Rivian_A1.5CTarget.5Crepo_projects.5CpRealEcu.5CcR_LATEST.5Cmake.5Coutput.5Cobjects.5CRte_NvM_Type.119::
                        1334 .LDWlin119:
000004d4 a3970300       1335 	ld.bu	3[sp],r18
000004d8 6392           1336 	cmp	3,r18
000004da b205*          1337 	be	.L1942
                        1338 --line413
                        1339 ..lin.C.3A.5C_ECU2.5CECU_Rivian_A1.5CTarget.5Crepo_projects.5CpRealEcu.5CcR_LATEST.5Cmake.5Coutput.5Cobjects.5CRte_NvM_Type.120::
                        1340 .LDWlin120:
000004dc dd2f0100       1341 	set1	5,1[r29]
                        1342 .L1942:
                        1343 --	    .ef
                        1344 .LDW15:
000004e0 42067f00       1345 	dispose	1,{r29,r31},[lp]
                        1346 	.global	___ghs_eofn_Memstack_Appl_JobEndCallback_DemNvm_IdEvMemLoc2
                        1347 ___ghs_eofn_Memstack_Appl_JobEndCallback_DemNvm_IdEvMemLoc2:
                        1348 	.type	_Memstack_Appl_JobEndCallback_DemNvm_IdEvMemLoc2,@function
                        1349 	.size	_Memstack_Appl_JobEndCallback_DemNvm_IdEvMemLoc2,.-_Memstack_Appl_JobEndCallback_DemNvm_IdEvMemLoc2
                        1350 	.align	2
                        1351 --_ucRequestResult	3[sp]	local
                        1352 
                        1353 	.data
                        1354 	.text
                        1355 	.align	2
                        1356 	.align	2
                        1357 ..gh.f.f.1.e.21:
                        1358 	.type	..gh.f.f.1.e.21,@object
                        1359 	.size	..gh.f.f.1.e.21,0
                        1360 	.global	_Memstack_Appl_JobEndCallback_DemNvm_IdEvMemLoc3
                        1361 _Memstack_Appl_JobEndCallback_DemNvm_IdEvMemLoc3:
000004e4 82076100       1362 	prepare	{r29,r31},1
000004e8 3d0600000000*  1363 	mov	_ulCurrentNvmConsistence,r29
                        1364 --	    .bf
                        1365 .LDW25:
                        1366 --line419
                        1367 ..lin.C.3A.5C_ECU2.5CECU_Rivian_A1.5CTarget.5Crepo_projects.5CpRealEcu.5CcR_LATEST.5Cmake.5Coutput.5Cobjects.5CRte_NvM_Type.121::
                        1368 .LDWlin121:
000004ee 20361200       1369 	movea	18,zero,r6
000004f2 233e0300       1370 	movea	3,sp,r7
                        1371 	jarl	_NvM_GetErrorStatus,lp
                        1371 <EXPANSION BEGIN>
                        1371 jarl22 _NvM_GetErrorStatus , lp 
000004f6 80ff0000*      1371 <EXPANSION END>
                        1372 --line420
                        1373 ..lin.C.3A.5C_ECU2.5CECU_Rivian_A1.5CTarget.5Crepo_projects.5CpRealEcu.5CcR_LATEST.5Cmake.5Coutput.5Cobjects.5CRte_NvM_Type.122::
                        1374 .LDWlin122:
000004fa a3970300       1375 	ld.bu	3[sp],r18
000004fe 6392           1376 	cmp	3,r18
00000500 b205*          1377 	be	.L2006
                        1378 --line422
                        1379 ..lin.C.3A.5C_ECU2.5CECU_Rivian_A1.5CTarget.5Crepo_projects.5CpRealEcu.5CcR_LATEST.5Cmake.5Coutput.5Cobjects.5CRte_NvM_Type.123::
                        1380 .LDWlin123:
00000502 dd370100       1381 	set1	6,1[r29]
                        1382 .L2006:
                        1383 --	    .ef
                        1384 .LDW35:
00000506 42067f00       1385 	dispose	1,{r29,r31},[lp]

                                                                      Page 26
                                                              C:\Users\nhuliyap\AppData\Local\Temp\gh_0000d8g1.s
                        1386 	.global	___ghs_eofn_Memstack_Appl_JobEndCallback_DemNvm_IdEvMemLoc3
                        1387 ___ghs_eofn_Memstack_Appl_JobEndCallback_DemNvm_IdEvMemLoc3:
                        1388 	.type	_Memstack_Appl_JobEndCallback_DemNvm_IdEvMemLoc3,@function
                        1389 	.size	_Memstack_Appl_JobEndCallback_DemNvm_IdEvMemLoc3,.-_Memstack_Appl_JobEndCallback_DemNvm_IdEvMemLoc3
                        1390 	.align	2
                        1391 --_ucRequestResult	3[sp]	local
                        1392 
                        1393 	.data
                        1394 	.text
                        1395 	.align	2
                        1396 	.align	2
                        1397 ..gh.f.f.1.e.22:
                        1398 	.type	..gh.f.f.1.e.22,@object
                        1399 	.size	..gh.f.f.1.e.22,0
                        1400 	.global	_Memstack_Appl_JobEndCallback_DemNvm_IdEvMemLoc4
                        1401 _Memstack_Appl_JobEndCallback_DemNvm_IdEvMemLoc4:
0000050a 82076100       1402 	prepare	{r29,r31},1
0000050e 3d0600000000*  1403 	mov	_ulCurrentNvmConsistence,r29
                        1404 --	    .bf
                        1405 .LDW45:
                        1406 --line428
                        1407 ..lin.C.3A.5C_ECU2.5CECU_Rivian_A1.5CTarget.5Crepo_projects.5CpRealEcu.5CcR_LATEST.5Cmake.5Coutput.5Cobjects.5CRte_NvM_Type.124::
                        1408 .LDWlin124:
00000514 20361300       1409 	movea	19,zero,r6
00000518 233e0300       1410 	movea	3,sp,r7
                        1411 	jarl	_NvM_GetErrorStatus,lp
                        1411 <EXPANSION BEGIN>
                        1411 jarl22 _NvM_GetErrorStatus , lp 
0000051c 80ff0000*      1411 <EXPANSION END>
                        1412 --line429
                        1413 ..lin.C.3A.5C_ECU2.5CECU_Rivian_A1.5CTarget.5Crepo_projects.5CpRealEcu.5CcR_LATEST.5Cmake.5Coutput.5Cobjects.5CRte_NvM_Type.125::
                        1414 .LDWlin125:
00000520 a3970300       1415 	ld.bu	3[sp],r18
00000524 6392           1416 	cmp	3,r18
00000526 b205*          1417 	be	.L2070
                        1418 --line431
                        1419 ..lin.C.3A.5C_ECU2.5CECU_Rivian_A1.5CTarget.5Crepo_projects.5CpRealEcu.5CcR_LATEST.5Cmake.5Coutput.5Cobjects.5CRte_NvM_Type.126::
                        1420 .LDWlin126:
00000528 dd3f0100       1421 	set1	7,1[r29]
                        1422 .L2070:
                        1423 --	    .ef
                        1424 .LDW55:
0000052c 42067f00       1425 	dispose	1,{r29,r31},[lp]
                        1426 	.global	___ghs_eofn_Memstack_Appl_JobEndCallback_DemNvm_IdEvMemLoc4
                        1427 ___ghs_eofn_Memstack_Appl_JobEndCallback_DemNvm_IdEvMemLoc4:
                        1428 	.type	_Memstack_Appl_JobEndCallback_DemNvm_IdEvMemLoc4,@function
                        1429 	.size	_Memstack_Appl_JobEndCallback_DemNvm_IdEvMemLoc4,.-_Memstack_Appl_JobEndCallback_DemNvm_IdEvMemLoc4
                        1430 	.align	2
                        1431 --_ucRequestResult	3[sp]	local
                        1432 
                        1433 	.data
                        1434 	.text
                        1435 	.align	2
                        1436 	.align	2
                        1437 ..gh.f.f.1.e.23:
                        1438 	.type	..gh.f.f.1.e.23,@object
                        1439 	.size	..gh.f.f.1.e.23,0
                        1440 	.global	_Memstack_Appl_JobEndCallback_DemNvm_IdEvMemLoc5
                        1441 _Memstack_Appl_JobEndCallback_DemNvm_IdEvMemLoc5:
00000530 82076100       1442 	prepare	{r29,r31},1
00000534 3d0600000000*  1443 	mov	_ulCurrentNvmConsistence,r29

                                                                      Page 27
                                                              C:\Users\nhuliyap\AppData\Local\Temp\gh_0000d8g1.s
                        1444 --	    .bf
                        1445 .LDW65:
                        1446 --line437
                        1447 ..lin.C.3A.5C_ECU2.5CECU_Rivian_A1.5CTarget.5Crepo_projects.5CpRealEcu.5CcR_LATEST.5Cmake.5Coutput.5Cobjects.5CRte_NvM_Type.127::
                        1448 .LDWlin127:
0000053a 20361400       1449 	movea	20,zero,r6
0000053e 233e0300       1450 	movea	3,sp,r7
                        1451 	jarl	_NvM_GetErrorStatus,lp
                        1451 <EXPANSION BEGIN>
                        1451 jarl22 _NvM_GetErrorStatus , lp 
00000542 80ff0000*      1451 <EXPANSION END>
                        1452 --line438
                        1453 ..lin.C.3A.5C_ECU2.5CECU_Rivian_A1.5CTarget.5Crepo_projects.5CpRealEcu.5CcR_LATEST.5Cmake.5Coutput.5Cobjects.5CRte_NvM_Type.128::
                        1454 .LDWlin128:
00000546 a3970300       1455 	ld.bu	3[sp],r18
0000054a 6392           1456 	cmp	3,r18
0000054c b205*          1457 	be	.L2134
                        1458 --line440
                        1459 ..lin.C.3A.5C_ECU2.5CECU_Rivian_A1.5CTarget.5Crepo_projects.5CpRealEcu.5CcR_LATEST.5Cmake.5Coutput.5Cobjects.5CRte_NvM_Type.129::
                        1460 .LDWlin129:
0000054e dd070200       1461 	set1	0,2[r29]
                        1462 .L2134:
                        1463 --	    .ef
                        1464 .LDW75:
00000552 42067f00       1465 	dispose	1,{r29,r31},[lp]
                        1466 	.global	___ghs_eofn_Memstack_Appl_JobEndCallback_DemNvm_IdEvMemLoc5
                        1467 ___ghs_eofn_Memstack_Appl_JobEndCallback_DemNvm_IdEvMemLoc5:
                        1468 	.type	_Memstack_Appl_JobEndCallback_DemNvm_IdEvMemLoc5,@function
                        1469 	.size	_Memstack_Appl_JobEndCallback_DemNvm_IdEvMemLoc5,.-_Memstack_Appl_JobEndCallback_DemNvm_IdEvMemLoc5
                        1470 	.align	2
                        1471 --_ucRequestResult	3[sp]	local
                        1472 
                        1473 	.data
                        1474 	.text
                        1475 	.align	2
                        1476 	.align	2
                        1477 ..gh.f.f.1.e.24:
                        1478 	.type	..gh.f.f.1.e.24,@object
                        1479 	.size	..gh.f.f.1.e.24,0
                        1480 	.global	_Memstack_Appl_JobEndCallback_DemNvm_IdEvMemLoc6
                        1481 _Memstack_Appl_JobEndCallback_DemNvm_IdEvMemLoc6:
00000556 82076100       1482 	prepare	{r29,r31},1
0000055a 3d0600000000*  1483 	mov	_ulCurrentNvmConsistence,r29
                        1484 --	    .bf
                        1485 .LDW85:
                        1486 --line446
                        1487 ..lin.C.3A.5C_ECU2.5CECU_Rivian_A1.5CTarget.5Crepo_projects.5CpRealEcu.5CcR_LATEST.5Cmake.5Coutput.5Cobjects.5CRte_NvM_Type.130::
                        1488 .LDWlin130:
00000560 20361500       1489 	movea	21,zero,r6
00000564 233e0300       1490 	movea	3,sp,r7
                        1491 	jarl	_NvM_GetErrorStatus,lp
                        1491 <EXPANSION BEGIN>
                        1491 jarl22 _NvM_GetErrorStatus , lp 
00000568 80ff0000*      1491 <EXPANSION END>
                        1492 --line447
                        1493 ..lin.C.3A.5C_ECU2.5CECU_Rivian_A1.5CTarget.5Crepo_projects.5CpRealEcu.5CcR_LATEST.5Cmake.5Coutput.5Cobjects.5CRte_NvM_Type.131::
                        1494 .LDWlin131:
0000056c a3970300       1495 	ld.bu	3[sp],r18
00000570 6392           1496 	cmp	3,r18
00000572 b205*          1497 	be	.L2198
                        1498 --line449

                                                                      Page 28
                                                              C:\Users\nhuliyap\AppData\Local\Temp\gh_0000d8g1.s
                        1499 ..lin.C.3A.5C_ECU2.5CECU_Rivian_A1.5CTarget.5Crepo_projects.5CpRealEcu.5CcR_LATEST.5Cmake.5Coutput.5Cobjects.5CRte_NvM_Type.132::
                        1500 .LDWlin132:
00000574 dd0f0200       1501 	set1	1,2[r29]
                        1502 .L2198:
                        1503 --	    .ef
                        1504 .LDW95:
00000578 42067f00       1505 	dispose	1,{r29,r31},[lp]
                        1506 	.global	___ghs_eofn_Memstack_Appl_JobEndCallback_DemNvm_IdEvMemLoc6
                        1507 ___ghs_eofn_Memstack_Appl_JobEndCallback_DemNvm_IdEvMemLoc6:
                        1508 	.type	_Memstack_Appl_JobEndCallback_DemNvm_IdEvMemLoc6,@function
                        1509 	.size	_Memstack_Appl_JobEndCallback_DemNvm_IdEvMemLoc6,.-_Memstack_Appl_JobEndCallback_DemNvm_IdEvMemLoc6
                        1510 	.align	2
                        1511 --_ucRequestResult	3[sp]	local
                        1512 
                        1513 	.data
                        1514 	.text
                        1515 	.align	2
                        1516 	.align	2
                        1517 ..gh.f.f.1.e.25:
                        1518 	.type	..gh.f.f.1.e.25,@object
                        1519 	.size	..gh.f.f.1.e.25,0
                        1520 	.global	_Memstack_Appl_JobEndCallback_DemNvm_IdEvMemLoc7
                        1521 _Memstack_Appl_JobEndCallback_DemNvm_IdEvMemLoc7:
0000057c 82076100       1522 	prepare	{r29,r31},1
00000580 3d0600000000*  1523 	mov	_ulCurrentNvmConsistence,r29
                        1524 --	    .bf
                        1525 .LDW06:
                        1526 --line455
                        1527 ..lin.C.3A.5C_ECU2.5CECU_Rivian_A1.5CTarget.5Crepo_projects.5CpRealEcu.5CcR_LATEST.5Cmake.5Coutput.5Cobjects.5CRte_NvM_Type.133::
                        1528 .LDWlin133:
00000586 20361600       1529 	movea	22,zero,r6
0000058a 233e0300       1530 	movea	3,sp,r7
                        1531 	jarl	_NvM_GetErrorStatus,lp
                        1531 <EXPANSION BEGIN>
                        1531 jarl22 _NvM_GetErrorStatus , lp 
0000058e 80ff0000*      1531 <EXPANSION END>
                        1532 --line456
                        1533 ..lin.C.3A.5C_ECU2.5CECU_Rivian_A1.5CTarget.5Crepo_projects.5CpRealEcu.5CcR_LATEST.5Cmake.5Coutput.5Cobjects.5CRte_NvM_Type.134::
                        1534 .LDWlin134:
00000592 a3970300       1535 	ld.bu	3[sp],r18
00000596 6392           1536 	cmp	3,r18
00000598 b205*          1537 	be	.L2262
                        1538 --line458
                        1539 ..lin.C.3A.5C_ECU2.5CECU_Rivian_A1.5CTarget.5Crepo_projects.5CpRealEcu.5CcR_LATEST.5Cmake.5Coutput.5Cobjects.5CRte_NvM_Type.135::
                        1540 .LDWlin135:
0000059a dd170200       1541 	set1	2,2[r29]
                        1542 .L2262:
                        1543 --	    .ef
                        1544 .LDW16:
0000059e 42067f00       1545 	dispose	1,{r29,r31},[lp]
                        1546 	.global	___ghs_eofn_Memstack_Appl_JobEndCallback_DemNvm_IdEvMemLoc7
                        1547 ___ghs_eofn_Memstack_Appl_JobEndCallback_DemNvm_IdEvMemLoc7:
                        1548 	.type	_Memstack_Appl_JobEndCallback_DemNvm_IdEvMemLoc7,@function
                        1549 	.size	_Memstack_Appl_JobEndCallback_DemNvm_IdEvMemLoc7,.-_Memstack_Appl_JobEndCallback_DemNvm_IdEvMemLoc7
                        1550 	.align	2
                        1551 --_ucRequestResult	3[sp]	local
                        1552 
                        1553 	.data
                        1554 	.text
                        1555 	.align	2
                        1556 	.align	2

                                                                      Page 29
                                                              C:\Users\nhuliyap\AppData\Local\Temp\gh_0000d8g1.s
                        1557 ..gh.f.f.1.e.26:
                        1558 	.type	..gh.f.f.1.e.26,@object
                        1559 	.size	..gh.f.f.1.e.26,0
                        1560 	.global	_Memstack_Appl_JobEndCallback_DemNvm_IdEvMemLoc8
                        1561 _Memstack_Appl_JobEndCallback_DemNvm_IdEvMemLoc8:
000005a2 82076100       1562 	prepare	{r29,r31},1
000005a6 3d0600000000*  1563 	mov	_ulCurrentNvmConsistence,r29
                        1564 --	    .bf
                        1565 .LDW26:
                        1566 --line464
                        1567 ..lin.C.3A.5C_ECU2.5CECU_Rivian_A1.5CTarget.5Crepo_projects.5CpRealEcu.5CcR_LATEST.5Cmake.5Coutput.5Cobjects.5CRte_NvM_Type.136::
                        1568 .LDWlin136:
000005ac 20361700       1569 	movea	23,zero,r6
000005b0 233e0300       1570 	movea	3,sp,r7
                        1571 	jarl	_NvM_GetErrorStatus,lp
                        1571 <EXPANSION BEGIN>
                        1571 jarl22 _NvM_GetErrorStatus , lp 
000005b4 80ff0000*      1571 <EXPANSION END>
                        1572 --line465
                        1573 ..lin.C.3A.5C_ECU2.5CECU_Rivian_A1.5CTarget.5Crepo_projects.5CpRealEcu.5CcR_LATEST.5Cmake.5Coutput.5Cobjects.5CRte_NvM_Type.137::
                        1574 .LDWlin137:
000005b8 a3970300       1575 	ld.bu	3[sp],r18
000005bc 6392           1576 	cmp	3,r18
000005be b205*          1577 	be	.L2326
                        1578 --line467
                        1579 ..lin.C.3A.5C_ECU2.5CECU_Rivian_A1.5CTarget.5Crepo_projects.5CpRealEcu.5CcR_LATEST.5Cmake.5Coutput.5Cobjects.5CRte_NvM_Type.138::
                        1580 .LDWlin138:
000005c0 dd1f0200       1581 	set1	3,2[r29]
                        1582 .L2326:
                        1583 --	    .ef
                        1584 .LDW36:
000005c4 42067f00       1585 	dispose	1,{r29,r31},[lp]
                        1586 	.global	___ghs_eofn_Memstack_Appl_JobEndCallback_DemNvm_IdEvMemLoc8
                        1587 ___ghs_eofn_Memstack_Appl_JobEndCallback_DemNvm_IdEvMemLoc8:
                        1588 	.type	_Memstack_Appl_JobEndCallback_DemNvm_IdEvMemLoc8,@function
                        1589 	.size	_Memstack_Appl_JobEndCallback_DemNvm_IdEvMemLoc8,.-_Memstack_Appl_JobEndCallback_DemNvm_IdEvMemLoc8
                        1590 	.align	2
                        1591 --_ucRequestResult	3[sp]	local
                        1592 
                        1593 	.data
                        1594 	.text
                        1595 	.align	2
                        1596 	.align	2
                        1597 ..gh.f.f.1.e.27:
                        1598 	.type	..gh.f.f.1.e.27,@object
                        1599 	.size	..gh.f.f.1.e.27,0
                        1600 	.global	_Memstack_Appl_JobEndCallback_DemNvm_IdEvMemLoc9
                        1601 _Memstack_Appl_JobEndCallback_DemNvm_IdEvMemLoc9:
000005c8 82076100       1602 	prepare	{r29,r31},1
000005cc 3d0600000000*  1603 	mov	_ulCurrentNvmConsistence,r29
                        1604 --	    .bf
                        1605 .LDW46:
                        1606 --line473
                        1607 ..lin.C.3A.5C_ECU2.5CECU_Rivian_A1.5CTarget.5Crepo_projects.5CpRealEcu.5CcR_LATEST.5Cmake.5Coutput.5Cobjects.5CRte_NvM_Type.139::
                        1608 .LDWlin139:
000005d2 20361800       1609 	movea	24,zero,r6
000005d6 233e0300       1610 	movea	3,sp,r7
                        1611 	jarl	_NvM_GetErrorStatus,lp
                        1611 <EXPANSION BEGIN>
                        1611 jarl22 _NvM_GetErrorStatus , lp 
000005da 80ff0000*      1611 <EXPANSION END>

                                                                      Page 30
                                                              C:\Users\nhuliyap\AppData\Local\Temp\gh_0000d8g1.s
                        1612 --line474
                        1613 ..lin.C.3A.5C_ECU2.5CECU_Rivian_A1.5CTarget.5Crepo_projects.5CpRealEcu.5CcR_LATEST.5Cmake.5Coutput.5Cobjects.5CRte_NvM_Type.140::
                        1614 .LDWlin140:
000005de a3970300       1615 	ld.bu	3[sp],r18
000005e2 6392           1616 	cmp	3,r18
000005e4 b205*          1617 	be	.L2390
                        1618 --line476
                        1619 ..lin.C.3A.5C_ECU2.5CECU_Rivian_A1.5CTarget.5Crepo_projects.5CpRealEcu.5CcR_LATEST.5Cmake.5Coutput.5Cobjects.5CRte_NvM_Type.141::
                        1620 .LDWlin141:
000005e6 dd270200       1621 	set1	4,2[r29]
                        1622 .L2390:
                        1623 --	    .ef
                        1624 .LDW56:
000005ea 42067f00       1625 	dispose	1,{r29,r31},[lp]
                        1626 	.global	___ghs_eofn_Memstack_Appl_JobEndCallback_DemNvm_IdEvMemLoc9
                        1627 ___ghs_eofn_Memstack_Appl_JobEndCallback_DemNvm_IdEvMemLoc9:
                        1628 	.type	_Memstack_Appl_JobEndCallback_DemNvm_IdEvMemLoc9,@function
                        1629 	.size	_Memstack_Appl_JobEndCallback_DemNvm_IdEvMemLoc9,.-_Memstack_Appl_JobEndCallback_DemNvm_IdEvMemLoc9
                        1630 	.align	2
                        1631 --_ucRequestResult	3[sp]	local
                        1632 
                        1633 	.data
                        1634 	.text
                        1635 	.align	2
                        1636 	.align	2
                        1637 ..gh.f.f.1.e.28:
                        1638 	.type	..gh.f.f.1.e.28,@object
                        1639 	.size	..gh.f.f.1.e.28,0
                        1640 	.global	_Memstack_Appl_JobEndCallback_DemNvm_IdDemGenericNvData
                        1641 _Memstack_Appl_JobEndCallback_DemNvm_IdDemGenericNvData:
000005ee 82076100       1642 	prepare	{r29,r31},1
000005f2 3d0600000000*  1643 	mov	_ulCurrentNvmConsistence,r29
                        1644 --	    .bf
                        1645 .LDW66:
                        1646 --line481
                        1647 ..lin.C.3A.5C_ECU2.5CECU_Rivian_A1.5CTarget.5Crepo_projects.5CpRealEcu.5CcR_LATEST.5Cmake.5Coutput.5Cobjects.5CRte_NvM_Type.142::
                        1648 .LDWlin142:
000005f8 20361900       1649 	movea	25,zero,r6
000005fc 233e0300       1650 	movea	3,sp,r7
                        1651 	jarl	_NvM_GetErrorStatus,lp
                        1651 <EXPANSION BEGIN>
                        1651 jarl22 _NvM_GetErrorStatus , lp 
00000600 80ff0000*      1651 <EXPANSION END>
                        1652 --line482
                        1653 ..lin.C.3A.5C_ECU2.5CECU_Rivian_A1.5CTarget.5Crepo_projects.5CpRealEcu.5CcR_LATEST.5Cmake.5Coutput.5Cobjects.5CRte_NvM_Type.143::
                        1654 .LDWlin143:
00000604 a3970300       1655 	ld.bu	3[sp],r18
00000608 6392           1656 	cmp	3,r18
0000060a b205*          1657 	be	.L2454
                        1658 --line484
                        1659 ..lin.C.3A.5C_ECU2.5CECU_Rivian_A1.5CTarget.5Crepo_projects.5CpRealEcu.5CcR_LATEST.5Cmake.5Coutput.5Cobjects.5CRte_NvM_Type.144::
                        1660 .LDWlin144:
0000060c dd2f0200       1661 	set1	5,2[r29]
                        1662 .L2454:
                        1663 --	    .ef
                        1664 .LDW76:
00000610 42067f00       1665 	dispose	1,{r29,r31},[lp]
                        1666 	.global	___ghs_eofn_Memstack_Appl_JobEndCallback_DemNvm_IdDemGenericNvData
                        1667 ___ghs_eofn_Memstack_Appl_JobEndCallback_DemNvm_IdDemGenericNvData:
                        1668 	.type	_Memstack_Appl_JobEndCallback_DemNvm_IdDemGenericNvData,@function
                        1669 	.size	_Memstack_Appl_JobEndCallback_DemNvm_IdDemGenericNvData,.-_Memstack_Appl_JobEndCallback_DemNvm_IdDemGenericNvData

                                                                      Page 31
                                                              C:\Users\nhuliyap\AppData\Local\Temp\gh_0000d8g1.s
                        1670 	.align	2
                        1671 --_ucRequestResult	3[sp]	local
                        1672 
                        1673 	.data
                        1674 	.text
                        1675 	.align	2
                        1676 	.align	2
                        1677 ..gh.f.f.1.e.29:
                        1678 	.type	..gh.f.f.1.e.29,@object
                        1679 	.size	..gh.f.f.1.e.29,0
                        1680 	.global	_Memstack_Appl_JobEndCallback_ECUM_CFG_NVM_BLOCK
                        1681 _Memstack_Appl_JobEndCallback_ECUM_CFG_NVM_BLOCK:
00000614 82076100       1682 	prepare	{r29,r31},1
00000618 3d0600000000*  1683 	mov	_ulCurrentNvmConsistence,r29
                        1684 --	    .bf
                        1685 .LDW86:
                        1686 --line490
                        1687 ..lin.C.3A.5C_ECU2.5CECU_Rivian_A1.5CTarget.5Crepo_projects.5CpRealEcu.5CcR_LATEST.5Cmake.5Coutput.5Cobjects.5CRte_NvM_Type.145::
                        1688 .LDWlin145:
0000061e 0d32           1689 	mov	13,r6
00000620 233e0300       1690 	movea	3,sp,r7
                        1691 	jarl	_NvM_GetErrorStatus,lp
                        1691 <EXPANSION BEGIN>
                        1691 jarl22 _NvM_GetErrorStatus , lp 
00000624 80ff0000*      1691 <EXPANSION END>
                        1692 --line491
                        1693 ..lin.C.3A.5C_ECU2.5CECU_Rivian_A1.5CTarget.5Crepo_projects.5CpRealEcu.5CcR_LATEST.5Cmake.5Coutput.5Cobjects.5CRte_NvM_Type.146::
                        1694 .LDWlin146:
00000628 a3970300       1695 	ld.bu	3[sp],r18
0000062c 6392           1696 	cmp	3,r18
0000062e b205*          1697 	be	.L2518
                        1698 --line493
                        1699 ..lin.C.3A.5C_ECU2.5CECU_Rivian_A1.5CTarget.5Crepo_projects.5CpRealEcu.5CcR_LATEST.5Cmake.5Coutput.5Cobjects.5CRte_NvM_Type.147::
                        1700 .LDWlin147:
00000630 dd370200       1701 	set1	6,2[r29]
                        1702 .L2518:
                        1703 --	    .ef
                        1704 .LDW96:
00000634 42067f00       1705 	dispose	1,{r29,r31},[lp]
                        1706 	.global	___ghs_eofn_Memstack_Appl_JobEndCallback_ECUM_CFG_NVM_BLOCK
                        1707 ___ghs_eofn_Memstack_Appl_JobEndCallback_ECUM_CFG_NVM_BLOCK:
                        1708 	.type	_Memstack_Appl_JobEndCallback_ECUM_CFG_NVM_BLOCK,@function
                        1709 	.size	_Memstack_Appl_JobEndCallback_ECUM_CFG_NVM_BLOCK,.-_Memstack_Appl_JobEndCallback_ECUM_CFG_NVM_BLOCK
                        1710 	.align	2
                        1711 --_ucRequestResult	3[sp]	local
                        1712 
                        1713 	.data
                        1714 	.text
                        1715 	.align	2
                        1716 	.align	2
                        1717 ..gh.f.f.1.e.30:
                        1718 	.type	..gh.f.f.1.e.30,@object
                        1719 	.size	..gh.f.f.1.e.30,0
                        1720 	.global	_Memstack_Appl_JobEndCallback_BSW_Data
                        1721 _Memstack_Appl_JobEndCallback_BSW_Data:
00000638 82076100       1722 	prepare	{r29,r31},1
0000063c 3d0600000000*  1723 	mov	_ulCurrentNvmConsistence,r29
                        1724 --	    .bf
                        1725 .LDW07:
                        1726 --line499
                        1727 ..lin.C.3A.5C_ECU2.5CECU_Rivian_A1.5CTarget.5Crepo_projects.5CpRealEcu.5CcR_LATEST.5Cmake.5Coutput.5Cobjects.5CRte_NvM_Type.148::

                                                                      Page 32
                                                              C:\Users\nhuliyap\AppData\Local\Temp\gh_0000d8g1.s
                        1728 .LDWlin148:
00000642 0c32           1729 	mov	12,r6
00000644 233e0300       1730 	movea	3,sp,r7
                        1731 	jarl	_NvM_GetErrorStatus,lp
                        1731 <EXPANSION BEGIN>
                        1731 jarl22 _NvM_GetErrorStatus , lp 
00000648 80ff0000*      1731 <EXPANSION END>
                        1732 --line500
                        1733 ..lin.C.3A.5C_ECU2.5CECU_Rivian_A1.5CTarget.5Crepo_projects.5CpRealEcu.5CcR_LATEST.5Cmake.5Coutput.5Cobjects.5CRte_NvM_Type.149::
                        1734 .LDWlin149:
0000064c a3970300       1735 	ld.bu	3[sp],r18
00000650 6392           1736 	cmp	3,r18
00000652 b205*          1737 	be	.L2582
                        1738 --line502
                        1739 ..lin.C.3A.5C_ECU2.5CECU_Rivian_A1.5CTarget.5Crepo_projects.5CpRealEcu.5CcR_LATEST.5Cmake.5Coutput.5Cobjects.5CRte_NvM_Type.150::
                        1740 .LDWlin150:
00000654 dd3f0200       1741 	set1	7,2[r29]
                        1742 .L2582:
                        1743 --	    .ef
                        1744 .LDW17:
00000658 42067f00       1745 	dispose	1,{r29,r31},[lp]
                        1746 	.global	___ghs_eofn_Memstack_Appl_JobEndCallback_BSW_Data
                        1747 ___ghs_eofn_Memstack_Appl_JobEndCallback_BSW_Data:
                        1748 	.type	_Memstack_Appl_JobEndCallback_BSW_Data,@function
                        1749 	.size	_Memstack_Appl_JobEndCallback_BSW_Data,.-_Memstack_Appl_JobEndCallback_BSW_Data
                        1750 	.align	2
                        1751 --_ucRequestResult	3[sp]	local
                        1752 
                        1753 	.data
                        1754 	.text
                        1755 	.align	2
                        1756 	.align	2
                        1757 ..gh.f.f.1.e.31:
                        1758 	.type	..gh.f.f.1.e.31,@object
                        1759 	.size	..gh.f.f.1.e.31,0
                        1760 	.global	_Memstack_GetCurrentNvMConsistence
                        1761 _Memstack_GetCurrentNvMConsistence:
0000065c 40560000*      1762 	movhi	hi(_ulCurrentNvmConsistence),zero,r10
                        1763 --	    .bf
                        1764 .LDW27:
                        1765 --line507
                        1766 ..lin.C.3A.5C_ECU2.5CECU_Rivian_A1.5CTarget.5Crepo_projects.5CpRealEcu.5CcR_LATEST.5Cmake.5Coutput.5Cobjects.5CRte_NvM_Type.151::
                        1767 .LDWlin151:
00000660 2a570100*      1768 	ld.w	lo(_ulCurrentNvmConsistence)[r10],r10
                        1769 --	    .ef
                        1770 .LDW37:
00000664 7f00           1771 	jmp	[lp]
                        1772 	.global	___ghs_eofn_Memstack_GetCurrentNvMConsistence
                        1773 ___ghs_eofn_Memstack_GetCurrentNvMConsistence:
                        1774 	.type	_Memstack_GetCurrentNvMConsistence,@function
                        1775 	.size	_Memstack_GetCurrentNvMConsistence,.-_Memstack_GetCurrentNvMConsistence
                        1776 	.align	2
                        1777 
                        1778 	.data
                        1779 	.text
                        1780 	.align	2
                        1781 	.align	2
                        1782 ..gh.f.f.1.e.32:
                        1783 	.type	..gh.f.f.1.e.32,@object
                        1784 	.size	..gh.f.f.1.e.32,0
                        1785 	.global	_Memstack_ClearCurrentNvMConsistence

                                                                      Page 33
                                                              C:\Users\nhuliyap\AppData\Local\Temp\gh_0000d8g1.s
                        1786 _Memstack_ClearCurrentNvMConsistence:
00000666 40960000*      1787 	movhi	hi(_ulCurrentNvmConsistence),zero,r18
                        1788 --	    .bf
                        1789 .LDW47:
                        1790 --line511
                        1791 ..lin.C.3A.5C_ECU2.5CECU_Rivian_A1.5CTarget.5Crepo_projects.5CpRealEcu.5CcR_LATEST.5Cmake.5Coutput.5Cobjects.5CRte_NvM_Type.152::
                        1792 .LDWlin152:
0000066a 72070100*      1793 	st.w	zero,lo(_ulCurrentNvmConsistence)[r18]
                        1794 --	    .ef
                        1795 .LDW57:
0000066e 7f00           1796 	jmp	[lp]
                        1797 	.global	___ghs_eofn_Memstack_ClearCurrentNvMConsistence
                        1798 ___ghs_eofn_Memstack_ClearCurrentNvMConsistence:
                        1799 	.type	_Memstack_ClearCurrentNvMConsistence,@function
                        1800 	.size	_Memstack_ClearCurrentNvMConsistence,.-_Memstack_ClearCurrentNvMConsistence
                        1801 	.align	2
                        1802 
                        1803 	.data
                        1804 	.text
                        1805 	.align	2
                        1806 --_Fls_GstConfiguration	_Fls_GstConfiguration	import
                        1807 --_ucCatSaveOnEvent	_ucCatSaveOnEvent	static
                        1808 --_ucCatRamBlockStatus	_ucCatRamBlockStatus	static
                        1809 --_ulCurrentNvmConsistence	_ulCurrentNvmConsistence	static
                        1810 --_ucNvMCatSizeCum	_ucNvMCatSizeCum	static
                        1811 
                        1812 	.data
                        1813 	.global	_Ram_NvMBlock_CAT10
00000028 00             1814 _Ram_NvMBlock_CAT10:	.space	1
00000029 000000         1815 	.space	3
                        1816 	.type	_Ram_NvMBlock_CAT10,@object
                        1817 	.size	_Ram_NvMBlock_CAT10,4
                        1818 	.global	_Rom_NvMBlock_CAT10
0000002c 00             1819 _Rom_NvMBlock_CAT10:	.space	1
0000002d 000000         1820 	.space	3
                        1821 	.type	_Rom_NvMBlock_CAT10,@object
                        1822 	.size	_Rom_NvMBlock_CAT10,4
                        1823 	.global	_Ram_NvMBlock_CAT05
00000030 00             1824 _Ram_NvMBlock_CAT05:	.space	1
00000031 000000000000   1825 	.space	47
00000037 000000000000 
0000003d 000000000000 
00000043 000000000000 
00000049 000000000000 
0000004f 000000000000 
00000055 000000000000 
0000005b 0000000000 
                        1826 	.type	_Ram_NvMBlock_CAT05,@object
                        1827 	.size	_Ram_NvMBlock_CAT05,48
                        1828 	.global	_Ram_NvMBlock_CAT06
00000060 00             1829 _Ram_NvMBlock_CAT06:	.space	1
00000061 000000000000   1830 	.space	47
00000067 000000000000 
0000006d 000000000000 
00000073 000000000000 
00000079 000000000000 
0000007f 000000000000 
00000085 000000000000 
0000008b 0000000000 
                        1831 	.type	_Ram_NvMBlock_CAT06,@object
                        1832 	.size	_Ram_NvMBlock_CAT06,48

                                                                      Page 34
                                                              C:\Users\nhuliyap\AppData\Local\Temp\gh_0000d8g1.s
                        1833 	.global	_Ram_NvMBlock_CAT07
00000090 00             1834 _Ram_NvMBlock_CAT07:	.space	1
00000091 000000000000   1835 	.space	23
00000097 000000000000 
0000009d 000000000000 
000000a3 0000000000 
                        1836 	.type	_Ram_NvMBlock_CAT07,@object
                        1837 	.size	_Ram_NvMBlock_CAT07,24
                        1838 	.global	_Ram_NvMBlock_CAT08
000000a8 00             1839 _Ram_NvMBlock_CAT08:	.space	1
000000a9 000000000000   1840 	.space	23
000000af 000000000000 
000000b5 000000000000 
000000bb 0000000000 
                        1841 	.type	_Ram_NvMBlock_CAT08,@object
                        1842 	.size	_Ram_NvMBlock_CAT08,24
                        1843 	.global	_Ram_NvMBlock_CAT09
000000c0 00             1844 _Ram_NvMBlock_CAT09:	.space	1
000000c1 000000000000   1845 	.space	31
000000c7 000000000000 
000000cd 000000000000 
000000d3 000000000000 
000000d9 000000000000 
000000df 00 
                        1846 	.type	_Ram_NvMBlock_CAT09,@object
                        1847 	.size	_Ram_NvMBlock_CAT09,32
                        1848 	.global	_Ram_NvMBlock_BSW_Data
000000e0 00             1849 _Ram_NvMBlock_BSW_Data:	.space	1
000000e1 000000000000   1850 	.space	63
000000e7 000000000000 
000000ed 000000000000 
000000f3 000000000000 
000000f9 000000000000 
000000ff 000000000000 
00000105 000000000000 
0000010b 000000000000 
00000111 000000000000 
00000117 000000000000 
0000011d 000000 
                        1851 	.type	_Ram_NvMBlock_BSW_Data,@object
                        1852 	.size	_Ram_NvMBlock_BSW_Data,64
                        1853 	.global	_pCategoryRamBlock
00000120 00000000*      1854 _pCategoryRamBlock:	.word	_Ram_NvMBlock_CAT01
00000124 00000000*      1855 	.word	_Ram_NvMBlock_CAT02
00000128 00000000*      1856 	.word	_Ram_NvMBlock_CAT03
0000012c 00000000*      1857 	.word	_Ram_NvMBlock_CAT04
00000130 00000000*      1858 	.word	_Ram_NvMBlock_CAT05
00000134 00000000*      1859 	.word	_Ram_NvMBlock_CAT06
00000138 00000000*      1860 	.word	_Ram_NvMBlock_CAT07
0000013c 00000000*      1861 	.word	_Ram_NvMBlock_CAT08
00000140 00000000*      1862 	.word	_Ram_NvMBlock_CAT09
00000144 00000000*      1863 	.word	_Ram_NvMBlock_CAT10
                        1864 	.type	_pCategoryRamBlock,@object
                        1865 	.size	_pCategoryRamBlock,40
                        1866 	.global	_Rom_NvMBlock_CAT05
00000148 00             1867 _Rom_NvMBlock_CAT05:	.space	1
00000149 000000000000   1868 	.space	47
0000014f 000000000000 
00000155 000000000000 
0000015b 000000000000 
00000161 000000000000 

                                                                      Page 35
                                                              C:\Users\nhuliyap\AppData\Local\Temp\gh_0000d8g1.s
00000167 000000000000 
0000016d 000000000000 
00000173 0000000000 
                        1869 	.type	_Rom_NvMBlock_CAT05,@object
                        1870 	.size	_Rom_NvMBlock_CAT05,48
                        1871 	.global	_Rom_NvMBlock_CAT06
00000178 00             1872 _Rom_NvMBlock_CAT06:	.space	1
00000179 000000000000   1873 	.space	47
0000017f 000000000000 
00000185 000000000000 
0000018b 000000000000 
00000191 000000000000 
00000197 000000000000 
0000019d 000000000000 
000001a3 0000000000 
                        1874 	.type	_Rom_NvMBlock_CAT06,@object
                        1875 	.size	_Rom_NvMBlock_CAT06,48
                        1876 	.global	_Rom_NvMBlock_CAT07
000001a8 00             1877 _Rom_NvMBlock_CAT07:	.space	1
000001a9 000000000000   1878 	.space	23
000001af 000000000000 
000001b5 000000000000 
000001bb 0000000000 
                        1879 	.type	_Rom_NvMBlock_CAT07,@object
                        1880 	.size	_Rom_NvMBlock_CAT07,24
                        1881 	.global	_Rom_NvMBlock_CAT08
000001c0 00             1882 _Rom_NvMBlock_CAT08:	.space	1
000001c1 000000000000   1883 	.space	23
000001c7 000000000000 
000001cd 000000000000 
000001d3 0000000000 
                        1884 	.type	_Rom_NvMBlock_CAT08,@object
                        1885 	.size	_Rom_NvMBlock_CAT08,24
                        1886 	.global	_Rom_NvMBlock_CAT09
000001d8 00             1887 _Rom_NvMBlock_CAT09:	.space	1
000001d9 000000000000   1888 	.space	31
000001df 000000000000 
000001e5 000000000000 
000001eb 000000000000 
000001f1 000000000000 
000001f7 00 
                        1889 	.type	_Rom_NvMBlock_CAT09,@object
                        1890 	.size	_Rom_NvMBlock_CAT09,32
                        1891 	.global	_Rom_NvMBlock_DemNvm_IdEvMemLoc0
000001f8 00             1892 _Rom_NvMBlock_DemNvm_IdEvMemLoc0:	.space	1
000001f9 000000000000   1893 	.space	47
000001ff 000000000000 
00000205 000000000000 
0000020b 000000000000 
00000211 000000000000 
00000217 000000000000 
0000021d 000000000000 
00000223 0000000000 
                        1894 	.type	_Rom_NvMBlock_DemNvm_IdEvMemLoc0,@object
                        1895 	.size	_Rom_NvMBlock_DemNvm_IdEvMemLoc0,48
                        1896 	.global	_Rom_NvMBlock_DemNvm_IdEvMemLoc1
00000228 00             1897 _Rom_NvMBlock_DemNvm_IdEvMemLoc1:	.space	1
00000229 000000000000   1898 	.space	47
0000022f 000000000000 
00000235 000000000000 
0000023b 000000000000 

                                                                      Page 36
                                                              C:\Users\nhuliyap\AppData\Local\Temp\gh_0000d8g1.s
00000241 000000000000 
00000247 000000000000 
0000024d 000000000000 
00000253 0000000000 
                        1899 	.type	_Rom_NvMBlock_DemNvm_IdEvMemLoc1,@object
                        1900 	.size	_Rom_NvMBlock_DemNvm_IdEvMemLoc1,48
                        1901 	.global	_Rom_NvMBlock_DemNvm_IdEvMemLoc2
00000258 00             1902 _Rom_NvMBlock_DemNvm_IdEvMemLoc2:	.space	1
00000259 000000000000   1903 	.space	47
0000025f 000000000000 
00000265 000000000000 
0000026b 000000000000 
00000271 000000000000 
00000277 000000000000 
0000027d 000000000000 
00000283 0000000000 
                        1904 	.type	_Rom_NvMBlock_DemNvm_IdEvMemLoc2,@object
                        1905 	.size	_Rom_NvMBlock_DemNvm_IdEvMemLoc2,48
                        1906 	.global	_Rom_NvMBlock_DemNvm_IdEvMemLoc3
00000288 00             1907 _Rom_NvMBlock_DemNvm_IdEvMemLoc3:	.space	1
00000289 000000000000   1908 	.space	47
0000028f 000000000000 
00000295 000000000000 
0000029b 000000000000 
000002a1 000000000000 
000002a7 000000000000 
000002ad 000000000000 
000002b3 0000000000 
                        1909 	.type	_Rom_NvMBlock_DemNvm_IdEvMemLoc3,@object
                        1910 	.size	_Rom_NvMBlock_DemNvm_IdEvMemLoc3,48
                        1911 	.global	_Rom_NvMBlock_DemNvm_IdEvMemLoc4
000002b8 00             1912 _Rom_NvMBlock_DemNvm_IdEvMemLoc4:	.space	1
000002b9 000000000000   1913 	.space	47
000002bf 000000000000 
000002c5 000000000000 
000002cb 000000000000 
000002d1 000000000000 
000002d7 000000000000 
000002dd 000000000000 
000002e3 0000000000 
                        1914 	.type	_Rom_NvMBlock_DemNvm_IdEvMemLoc4,@object
                        1915 	.size	_Rom_NvMBlock_DemNvm_IdEvMemLoc4,48
                        1916 	.global	_Rom_NvMBlock_DemNvm_IdEvMemLoc5
000002e8 00             1917 _Rom_NvMBlock_DemNvm_IdEvMemLoc5:	.space	1
000002e9 000000000000   1918 	.space	47
000002ef 000000000000 
000002f5 000000000000 
000002fb 000000000000 
00000301 000000000000 
00000307 000000000000 
0000030d 000000000000 
00000313 0000000000 
                        1919 	.type	_Rom_NvMBlock_DemNvm_IdEvMemLoc5,@object
                        1920 	.size	_Rom_NvMBlock_DemNvm_IdEvMemLoc5,48
                        1921 	.global	_Rom_NvMBlock_DemNvm_IdEvMemLoc6
00000318 00             1922 _Rom_NvMBlock_DemNvm_IdEvMemLoc6:	.space	1
00000319 000000000000   1923 	.space	47
0000031f 000000000000 
00000325 000000000000 
0000032b 000000000000 
00000331 000000000000 

                                                                      Page 37
                                                              C:\Users\nhuliyap\AppData\Local\Temp\gh_0000d8g1.s
00000337 000000000000 
0000033d 000000000000 
00000343 0000000000 
                        1924 	.type	_Rom_NvMBlock_DemNvm_IdEvMemLoc6,@object
                        1925 	.size	_Rom_NvMBlock_DemNvm_IdEvMemLoc6,48
                        1926 	.global	_Rom_NvMBlock_DemNvm_IdEvMemLoc7
00000348 00             1927 _Rom_NvMBlock_DemNvm_IdEvMemLoc7:	.space	1
00000349 000000000000   1928 	.space	47
0000034f 000000000000 
00000355 000000000000 
0000035b 000000000000 
00000361 000000000000 
00000367 000000000000 
0000036d 000000000000 
00000373 0000000000 
                        1929 	.type	_Rom_NvMBlock_DemNvm_IdEvMemLoc7,@object
                        1930 	.size	_Rom_NvMBlock_DemNvm_IdEvMemLoc7,48
                        1931 	.global	_Rom_NvMBlock_DemNvm_IdEvMemLoc8
00000378 00             1932 _Rom_NvMBlock_DemNvm_IdEvMemLoc8:	.space	1
00000379 000000000000   1933 	.space	47
0000037f 000000000000 
00000385 000000000000 
0000038b 000000000000 
00000391 000000000000 
00000397 000000000000 
0000039d 000000000000 
000003a3 0000000000 
                        1934 	.type	_Rom_NvMBlock_DemNvm_IdEvMemLoc8,@object
                        1935 	.size	_Rom_NvMBlock_DemNvm_IdEvMemLoc8,48
                        1936 	.global	_Rom_NvMBlock_DemNvm_IdEvMemLoc9
000003a8 00             1937 _Rom_NvMBlock_DemNvm_IdEvMemLoc9:	.space	1
000003a9 000000000000   1938 	.space	47
000003af 000000000000 
000003b5 000000000000 
000003bb 000000000000 
000003c1 000000000000 
000003c7 000000000000 
000003cd 000000000000 
000003d3 0000000000 
                        1939 	.type	_Rom_NvMBlock_DemNvm_IdEvMemLoc9,@object
                        1940 	.size	_Rom_NvMBlock_DemNvm_IdEvMemLoc9,48
                        1941 	.global	_Rom_NvMBlock_BSW_Data
000003d8 00             1942 _Rom_NvMBlock_BSW_Data:	.space	1
000003d9 000000000000   1943 	.space	63
000003df 000000000000 
000003e5 000000000000 
000003eb 000000000000 
000003f1 000000000000 
000003f7 000000000000 
000003fd 000000000000 
00000403 000000000000 
00000409 000000000000 
0000040f 000000000000 
00000415 000000 
                        1944 	.type	_Rom_NvMBlock_BSW_Data,@object
                        1945 	.size	_Rom_NvMBlock_BSW_Data,64
                        1946 	.global	_Ram_NvMBlock_CAT01
00000418 00             1947 _Ram_NvMBlock_CAT01:	.space	1
00000419 000000000000   1948 	.space	51
0000041f 000000000000 
00000425 000000000000 

                                                                      Page 38
                                                              C:\Users\nhuliyap\AppData\Local\Temp\gh_0000d8g1.s
0000042b 000000000000 
00000431 000000000000 
00000437 000000000000 
0000043d 000000000000 
00000443 000000000000 
00000449 000000 
                        1949 	.type	_Ram_NvMBlock_CAT01,@object
                        1950 	.size	_Ram_NvMBlock_CAT01,52
                        1951 	.global	_Ram_NvMBlock_CAT02
0000044c 00             1952 _Ram_NvMBlock_CAT02:	.space	1
0000044d 000000000000   1953 	.space	51
00000453 000000000000 
00000459 000000000000 
0000045f 000000000000 
00000465 000000000000 
0000046b 000000000000 
00000471 000000000000 
00000477 000000000000 
0000047d 000000 
                        1954 	.type	_Ram_NvMBlock_CAT02,@object
                        1955 	.size	_Ram_NvMBlock_CAT02,52
                        1956 	.global	_Ram_NvMBlock_CAT04
00000480 00             1957 _Ram_NvMBlock_CAT04:	.space	1
00000481 000000000000   1958 	.space	19
00000487 000000000000 
0000048d 000000000000 
00000493 00 
                        1959 	.type	_Ram_NvMBlock_CAT04,@object
                        1960 	.size	_Ram_NvMBlock_CAT04,20
                        1961 	.global	_Ram_ECUM_CFG_NVM_BLOCK
00000494 00             1962 _Ram_ECUM_CFG_NVM_BLOCK:	.space	1
00000495 000000000000   1963 	.space	19
0000049b 000000000000 
000004a1 000000000000 
000004a7 00 
                        1964 	.type	_Ram_ECUM_CFG_NVM_BLOCK,@object
                        1965 	.size	_Ram_ECUM_CFG_NVM_BLOCK,20
                        1966 	.global	_Rom_NvMBlock_CAT01
000004a8 00             1967 _Rom_NvMBlock_CAT01:	.space	1
000004a9 000000000000   1968 	.space	51
000004af 000000000000 
000004b5 000000000000 
000004bb 000000000000 
000004c1 000000000000 
000004c7 000000000000 
000004cd 000000000000 
000004d3 000000000000 
000004d9 000000 
                        1969 	.type	_Rom_NvMBlock_CAT01,@object
                        1970 	.size	_Rom_NvMBlock_CAT01,52
                        1971 	.global	_Rom_NvMBlock_CAT02
000004dc 00             1972 _Rom_NvMBlock_CAT02:	.space	1
000004dd 000000000000   1973 	.space	51
000004e3 000000000000 
000004e9 000000000000 
000004ef 000000000000 
000004f5 000000000000 
000004fb 000000000000 
00000501 000000000000 
00000507 000000000000 
0000050d 000000 

                                                                      Page 39
                                                              C:\Users\nhuliyap\AppData\Local\Temp\gh_0000d8g1.s
                        1974 	.type	_Rom_NvMBlock_CAT02,@object
                        1975 	.size	_Rom_NvMBlock_CAT02,52
                        1976 	.global	_Rom_NvMBlock_CAT04
00000510 00             1977 _Rom_NvMBlock_CAT04:	.space	1
00000511 000000000000   1978 	.space	19
00000517 000000000000 
0000051d 000000000000 
00000523 00 
                        1979 	.type	_Rom_NvMBlock_CAT04,@object
                        1980 	.size	_Rom_NvMBlock_CAT04,20
                        1981 	.global	_Rom_ECUM_CFG_NVM_BLOCK
00000524 00             1982 _Rom_ECUM_CFG_NVM_BLOCK:	.space	1
00000525 000000000000   1983 	.space	19
0000052b 000000000000 
00000531 000000000000 
00000537 00 
                        1984 	.type	_Rom_ECUM_CFG_NVM_BLOCK,@object
                        1985 	.size	_Rom_ECUM_CFG_NVM_BLOCK,20
                        1986 	.global	_Rom_NvMBlock_DemNvm_IdEvStatusByte
00000538 00             1987 _Rom_NvMBlock_DemNvm_IdEvStatusByte:	.space	1
00000539 000000000000   1988 	.space	41
0000053f 000000000000 
00000545 000000000000 
0000054b 000000000000 
00000551 000000000000 
00000557 000000000000 
0000055d 0000000000 
00000562 0000           1989 	.space	2
                        1990 	.type	_Rom_NvMBlock_DemNvm_IdEvStatusByte,@object
                        1991 	.size	_Rom_NvMBlock_DemNvm_IdEvStatusByte,44
                        1992 	.global	_Rom_NvMBlock_DemNvm_IdDemGenericNvData
00000564 00             1993 _Rom_NvMBlock_DemNvm_IdDemGenericNvData:	.space	1
00000565 000000000000   1994 	.space	17
0000056b 000000000000 
00000571 0000000000 
00000576 0000           1995 	.space	2
                        1996 	.type	_Rom_NvMBlock_DemNvm_IdDemGenericNvData,@object
                        1997 	.size	_Rom_NvMBlock_DemNvm_IdDemGenericNvData,20
                        1998 	.global	_Ram_NvMBlock_CAT03
00000578 00             1999 _Ram_NvMBlock_CAT03:	.space	1
00000579 000000000000   2000 	.space	95
0000057f 000000000000 
00000585 000000000000 
0000058b 000000000000 
00000591 000000000000 
00000597 000000000000 
0000059d 000000000000 
000005a3 000000000000 
000005a9 000000000000 
000005af 000000000000 
000005b5 000000000000 
000005bb 000000000000 
000005c1 000000000000 
000005c7 000000000000 
000005cd 000000000000 
000005d3 0000000000 
                        2001 	.type	_Ram_NvMBlock_CAT03,@object
                        2002 	.size	_Ram_NvMBlock_CAT03,96
                        2003 	.global	_Rom_NvMBlock_CAT03
000005d8 00             2004 _Rom_NvMBlock_CAT03:	.space	1
000005d9 000000000000   2005 	.space	95

                                                                      Page 40
                                                              C:\Users\nhuliyap\AppData\Local\Temp\gh_0000d8g1.s
000005df 000000000000 
000005e5 000000000000 
000005eb 000000000000 
000005f1 000000000000 
000005f7 000000000000 
000005fd 000000000000 
00000603 000000000000 
00000609 000000000000 
0000060f 000000000000 
00000615 000000000000 
0000061b 000000000000 
00000621 000000000000 
00000627 000000000000 
0000062d 000000000000 
00000633 0000000000 
                        2006 	.type	_Rom_NvMBlock_CAT03,@object
                        2007 	.size	_Rom_NvMBlock_CAT03,96
                        2008 	.ghsnote version,17
                        2009 	.ghsnote tools,3
                        2010 	.ghsnote options,144
                        2011 	.text
                        2012 	.align	2
                        2013 ..eof.C.3A.5C_ECU2.5CECU_Rivian_A1.5CTarget.5Crepo_projects.5CpRealEcu.5CcR_LATEST.5Cmake.5Coutput.5Cobjects.5CRte_NvM_Type...43.3A.5C_ECU2.5CECU_Rivian_A1.5CTarget.5Crepo_projects.5CpRealEcu.5CcR_LATEST.5Cmake..65044AF3..0::
                        2014 	.section	.debug_info
                        2015 .Ldw_begin:
00000000 041d0000       2016 	.word	.Ldw_end-.Ldw_begin-4
00000004 0200           2017 	.byte	2,0
00000006 00000000*      2018 	.word	.Ldw_abbr_begin
0000000a 04             2019 	.byte	4
                        2020 	.section	.debug_abbrev
                        2021 .Ldw_abbr_begin:
                        2022 	.section	.debug_info
0000000b 01             2023 	.byte	1
0000000c 00000000*      2024 	.word	..bof.C.3A.5C_ECU2.5CECU_Rivian_A1.5CTarget.5Crepo_projects.5CpRealEcu.5CcR_LATEST.5Cmake.5Coutput.5Cobjects.5CRte_NvM_Type...43.3A.5C_ECU2.5CECU_Rivian_A1.5CTarget.5Crepo_projects.5CpRealEcu.5CcR_LATEST.5Cmake..65044AF3..0
00000010 00000000*      2025 	.word	..eof.C.3A.5C_ECU2.5CECU_Rivian_A1.5CTarget.5Crepo_projects.5CpRealEcu.5CcR_LATEST.5Cmake.5Coutput.5Cobjects.5CRte_NvM_Type...43.3A.5C_ECU2.5CECU_Rivian_A1.5CTarget.5Crepo_projects.5CpRealEcu.5CcR_LATEST.5Cmake..65044AF3..0
00000014 2e2e2f736f75   2026 	.strz	"../source/wrappers/Rte_NvM_Type.c"
0000001a 7263652f7772 
00000020 617070657273 
00000026 2f5274655f4e 
0000002c 764d5f547970 
00000032 652e6300 
00000036 433a5c5f4543   2027 	.strz	"C:\\_ECU2\\ECU_Rivian_A1\\Target\\repo_projects\\pRealEcu\\cR_LATEST\\make"
0000003c 55325c454355 
00000042 5f5269766961 
00000048 6e5f41315c54 
0000004e 61726765745c 
00000054 7265706f5f70 
0000005a 726f6a656374 
00000060 735c70526561 
00000066 6c4563755c63 
0000006c 525f4c415445 
00000072 53545c6d616b 
00000078 6500 
0000007a 474853204320   2028 	.strz	"GHS C 2015.1.7 [dual]"
00000080 323031352e31 
00000086 2e37205b6475 
0000008c 616c5d00 
00000090 0100           2029 	.byte	1,0
00000092 00000000*      2030 	.word	.Ldw_line_begin
00000096 00000000*      2031 	.word	.Ldw_macinfo_begin
0000009a 00             2032 	.byte	0

                                                                      Page 41
                                                              C:\Users\nhuliyap\AppData\Local\Temp\gh_0000d8g1.s
                        2033 
                        2034 	.section	.debug_abbrev
00000000 01             2035 	.byte	1
00000001 11             2036 	.byte	17
00000002 01             2037 	.byte	1
00000003 1101           2038 	.byte	17,1
00000005 1201           2039 	.byte	18,1
00000007 0308           2040 	.byte	3,8
00000009 1b08           2041 	.byte	27,8
0000000b 2508           2042 	.byte	37,8
0000000d 1305           2043 	.byte	19,5
0000000f 1006           2044 	.byte	16,6
00000011 4306           2045 	.byte	67,6
00000013 420b           2046 	.byte	66,11
00000015 0000           2047 	.byte	0,0
                        2048 
                        2049 	.section	.debug_line
                        2050 .Ldw_line_begin:
00000000 ab1c0000       2051 	.word	.Ldw_line_end-.Ldw_line_begin-4
00000004 0200           2052 	.byte	2,0
00000006 00000000*      2053 	.word	.Ldw_lpro_end-.Ldw_lpro_begin
                        2054 .Ldw_lpro_begin:
0000000a 01             2055 	.byte	1
0000000b 00             2056 	.byte	0
0000000c 00             2057 	.byte	0
0000000d 04             2058 	.byte	4
0000000e 0a             2059 	.byte	10
0000000f 000101         2060 	.byte	0,1,1
00000012 010100         2061 	.byte	1,1,0
00000015 000001         2062 	.byte	0,0,1
00000018 00             2063 	.byte	0
00000019 2e2e2f736f75   2064 	.strz	"../source/wrappers/Rte_NvM_Type.c"
0000001f 7263652f7772 
00000025 617070657273 
0000002b 2f5274655f4e 
00000031 764d5f547970 
00000037 652e6300 
0000003b 000000         2065 	.byte	0,0,0
0000003e 2e2e2f736f75   2066 	.strz	"../source/common/Std_Types.hpp"
00000044 7263652f636f 
0000004a 6d6d6f6e2f53 
00000050 74645f547970 
00000056 65732e687070 
0000005c 00 
0000005d 000000         2067 	.byte	0,0,0
00000060 2e2e2f736f75   2068 	.strz	"../source/common/Platform_Types.hpp"
00000066 7263652f636f 
0000006c 6d6d6f6e2f50 
00000072 6c6174666f72 
00000078 6d5f54797065 
0000007e 732e68707000 
00000084 000000         2069 	.byte	0,0,0
00000087 2e2e2f736f75   2070 	.strz	"../source/common/Compiler.hpp"
0000008d 7263652f636f 
00000093 6d6d6f6e2f43 
00000099 6f6d70696c65 
0000009f 722e68707000 
000000a5 000000         2071 	.byte	0,0,0
000000a8 2e2e2f736f75   2072 	.strz	"../source/ProjectCompiler/Compiler_Cfg.hpp"
000000ae 7263652f5072 
000000b4 6f6a65637443 

                                                                      Page 42
                                                              C:\Users\nhuliyap\AppData\Local\Temp\gh_0000d8g1.s
000000ba 6f6d70696c65 
000000c0 722f436f6d70 
000000c6 696c65725f43 
000000cc 66672e687070 
000000d2 00 
000000d3 000000         2073 	.byte	0,0,0
000000d6 2e2e2f736f75   2074 	.strz	"../source/ProjectCompiler/CompilerCfg_SwcServiceOs.hpp"
000000dc 7263652f5072 
000000e2 6f6a65637443 
000000e8 6f6d70696c65 
000000ee 722f436f6d70 
000000f4 696c65724366 
000000fa 675f53776353 
00000100 657276696365 
00000106 4f732e687070 
0000010c 00 
0000010d 000000         2075 	.byte	0,0,0
00000110 2e2e2f736f75   2076 	.strz	"../source/wrappers/Rte_NvM_Type.hpp"
00000116 7263652f7772 
0000011c 617070657273 
00000122 2f5274655f4e 
00000128 764d5f547970 
0000012e 652e68707000 
00000134 000000         2077 	.byte	0,0,0
00000137 2e2e2f736f75   2078 	.strz	"../source/McalMcu/Types.hpp"
0000013d 7263652f4d63 
00000143 616c4d63752f 
00000149 54797065732e 
0000014f 68707000 
00000153 000000         2079 	.byte	0,0,0
00000156 2e2e2f736f75   2080 	.strz	"../source/wrappers/SwcServiceDem/Dem_NvmCallbacks.hpp"
0000015c 7263652f7772 
00000162 617070657273 
00000168 2f5377635365 
0000016e 727669636544 
00000174 656d2f44656d 
0000017a 5f4e766d4361 
00000180 6c6c6261636b 
00000186 732e68707000 
0000018c 000000         2081 	.byte	0,0,0
0000018f 2e2e2f736f75   2082 	.strz	"../source/ProjectCfg/Dem_Cfg_NvmCallbacks.hpp"
00000195 7263652f5072 
0000019b 6f6a65637443 
000001a1 66672f44656d 
000001a7 5f4366675f4e 
000001ad 766d43616c6c 
000001b3 6261636b732e 
000001b9 68707000 
000001bd 000000         2083 	.byte	0,0,0
000001c0 2e2e2f736f75   2084 	.strz	"../source/wrappers/SwcServiceDem/Dem_Types.hpp"
000001c6 7263652f7772 
000001cc 617070657273 
000001d2 2f5377635365 
000001d8 727669636544 
000001de 656d2f44656d 
000001e4 5f5479706573 
000001ea 2e68707000 
000001ef 000000         2085 	.byte	0,0,0
000001f2 2e2e2f736f75   2086 	.strz	"../source/ProjectCfg/Dem_Cfg.hpp"
000001f8 7263652f5072 
000001fe 6f6a65637443 

                                                                      Page 43
                                                              C:\Users\nhuliyap\AppData\Local\Temp\gh_0000d8g1.s
00000204 66672f44656d 
0000020a 5f4366672e68 
00000210 707000 
00000213 000000         2087 	.byte	0,0,0
00000216 2e2e2f736f75   2088 	.strz	"../source/ProjectCfg/Dem_Cfg_Client.hpp"
0000021c 7263652f5072 
00000222 6f6a65637443 
00000228 66672f44656d 
0000022e 5f4366675f43 
00000234 6c69656e742e 
0000023a 68707000 
0000023e 000000         2089 	.byte	0,0,0
00000241 2e2e2f736f75   2090 	.strz	"../source/wrappers/SwcServiceDem/Dem_ClientHandlingTypes.hpp"
00000247 7263652f7772 
0000024d 617070657273 
00000253 2f5377635365 
00000259 727669636544 
0000025f 656d2f44656d 
00000265 5f436c69656e 
0000026b 7448616e646c 
00000271 696e67547970 
00000277 65732e687070 
0000027d 00 
0000027e 000000         2091 	.byte	0,0,0
00000281 2e2e2f736f75   2092 	.strz	"../source/ProjectCfg/Dem_Cfg_NodeId.hpp"
00000287 7263652f5072 
0000028d 6f6a65637443 
00000293 66672f44656d 
00000299 5f4366675f4e 
0000029f 6f646549642e 
000002a5 68707000 
000002a9 000000         2093 	.byte	0,0,0
000002ac 2e2e2f736f75   2094 	.strz	"../source/ProjectCfg/Dem_Cfg_Version.hpp"
000002b2 7263652f5072 
000002b8 6f6a65637443 
000002be 66672f44656d 
000002c4 5f4366675f56 
000002ca 657273696f6e 
000002d0 2e68707000 
000002d5 000000         2095 	.byte	0,0,0
000002d8 2e2e2f736f75   2096 	.strz	"../source/wrappers/Rte_Dem_Type.hpp"
000002de 7263652f7772 
000002e4 617070657273 
000002ea 2f5274655f44 
000002f0 656d5f547970 
000002f6 652e68707000 
000002fc 000000         2097 	.byte	0,0,0
000002ff 2e2e2f736f75   2098 	.strz	"../source/ProjectCompiler/Dem_Cfg_MemMap.hpp"
00000305 7263652f5072 
0000030b 6f6a65637443 
00000311 6f6d70696c65 
00000317 722f44656d5f 
0000031d 4366675f4d65 
00000323 6d4d61702e68 
00000329 707000 
0000032c 000000         2099 	.byte	0,0,0
0000032f 2e2e2f736f75   2100 	.strz	"../source/ProjectCompiler/Bsw_MemMap.hpp"
00000335 7263652f5072 
0000033b 6f6a65637443 
00000341 6f6d70696c65 
00000347 722f4273775f 

                                                                      Page 44
                                                              C:\Users\nhuliyap\AppData\Local\Temp\gh_0000d8g1.s
0000034d 4d656d4d6170 
00000353 2e68707000 
00000358 000000         2101 	.byte	0,0,0
0000035b 2e2e2f736f75   2102 	.strz	"../source/ProjectCompiler/MemMap_Common.hpp"
00000361 7263652f5072 
00000367 6f6a65637443 
0000036d 6f6d70696c65 
00000373 722f4d656d4d 
00000379 61705f436f6d 
0000037f 6d6f6e2e6870 
00000385 7000 
00000387 000000         2103 	.byte	0,0,0
0000038a 2e2e2f736f75   2104 	.strz	"../source/SwcApplTpms/SwcApplTpms_NvM.hpp"
00000390 7263652f5377 
00000396 634170706c54 
0000039c 706d732f5377 
000003a2 634170706c54 
000003a8 706d735f4e76 
000003ae 4d2e68707000 
000003b4 000000         2105 	.byte	0,0,0
000003b7 2e2e2f736f75   2106 	.strz	"../source/SwcApplTpms/iTpms_Interface.hpp"
000003bd 7263652f5377 
000003c3 634170706c54 
000003c9 706d732f6954 
000003cf 706d735f496e 
000003d5 746572666163 
000003db 652e68707000 
000003e1 000000         2107 	.byte	0,0,0
000003e4 2e2e2f736f75   2108 	.strz	"../source/SwcApplTpms/Tpms_Rte_Data_Type.hpp"
000003ea 7263652f5377 
000003f0 634170706c54 
000003f6 706d732f5470 
000003fc 6d735f527465 
00000402 5f446174615f 
00000408 547970652e68 
0000040e 707000 
00000411 000000         2109 	.byte	0,0,0
00000414 2e2e2f736f75   2110 	.strz	"../source/EcuabFee/Fee_30_SmallSector.hpp"
0000041a 7263652f4563 
00000420 756162466565 
00000426 2f4665655f33 
0000042c 305f536d616c 
00000432 6c536563746f 
00000438 722e68707000 
0000043e 000000         2111 	.byte	0,0,0
00000441 2e2e2f736f75   2112 	.strz	"../source/EcuabMemIf/MemIf_Types.hpp"
00000447 7263652f4563 
0000044d 7561624d656d 
00000453 49662f4d656d 
00000459 49665f547970 
0000045f 65732e687070 
00000465 00 
00000466 000000         2113 	.byte	0,0,0
00000469 2e2e2f736f75   2114 	.strz	"../source/ProjectCfg/Fee_30_SmallSector_Cfg.hpp"
0000046f 7263652f5072 
00000475 6f6a65637443 
0000047b 66672f466565 
00000481 5f33305f536d 
00000487 616c6c536563 
0000048d 746f725f4366 
00000493 672e68707000 

                                                                      Page 45
                                                              C:\Users\nhuliyap\AppData\Local\Temp\gh_0000d8g1.s
00000499 000000         2115 	.byte	0,0,0
0000049c 2e2e2f736f75   2116 	.strz	"../source/ProjectCompiler/MemMap.hpp"
000004a2 7263652f5072 
000004a8 6f6a65637443 
000004ae 6f6d70696c65 
000004b4 722f4d656d4d 
000004ba 61702e687070 
000004c0 00 
000004c1 000000         2117 	.byte	0,0,0
000004c4 2e2e2f736f75   2118 	.strz	"../source/McalFls/Fls.hpp"
000004ca 7263652f4d63 
000004d0 616c466c732f 
000004d6 466c732e6870 
000004dc 7000 
000004de 000000         2119 	.byte	0,0,0
000004e1 2e2e2f736f75   2120 	.strz	"../source/ProjectCfg/Fls_Cfg.hpp"
000004e7 7263652f5072 
000004ed 6f6a65637443 
000004f3 66672f466c73 
000004f9 5f4366672e68 
000004ff 707000 
00000502 000000         2121 	.byte	0,0,0
00000505 2e2e2f736f75   2122 	.strz	"../source/McalFls/Fls_Types.hpp"
0000050b 7263652f4d63 
00000511 616c466c732f 
00000517 466c735f5479 
0000051d 7065732e6870 
00000523 7000 
00000525 000000         2123 	.byte	0,0,0
00000528 2e2e2f736f75   2124 	.strz	"../source/McalFls/Fls_PBTypes.hpp"
0000052e 7263652f4d63 
00000534 616c466c732f 
0000053a 466c735f5042 
00000540 54797065732e 
00000546 68707000 
0000054a 000000         2125 	.byte	0,0,0
0000054d 2e2e2f736f75   2126 	.strz	"../source/McalFls/r_typedefs.hpp"
00000553 7263652f4d63 
00000559 616c466c732f 
0000055f 725f74797065 
00000565 646566732e68 
0000056b 707000 
0000056e 000000         2127 	.byte	0,0,0
00000571 2e2e2f736f75   2128 	.strz	"../source/McalFls/r_fdl_types.hpp"
00000577 7263652f4d63 
0000057d 616c466c732f 
00000583 725f66646c5f 
00000589 74797065732e 
0000058f 68707000 
00000593 000000         2129 	.byte	0,0,0
00000596 2e2e2f736f75   2130 	.strz	"../source/McalFls/fdl_descriptor.hpp"
0000059c 7263652f4d63 
000005a2 616c466c732f 
000005a8 66646c5f6465 
000005ae 736372697074 
000005b4 6f722e687070 
000005ba 00 
000005bb 000000         2131 	.byte	0,0,0
000005be 2e2e2f736f75   2132 	.strz	"../source/SwcServiceNvM/NvM.hpp"
000005c4 7263652f5377 
000005ca 635365727669 

                                                                      Page 46
                                                              C:\Users\nhuliyap\AppData\Local\Temp\gh_0000d8g1.s
000005d0 63654e764d2f 
000005d6 4e764d2e6870 
000005dc 7000 
000005de 000000         2133 	.byte	0,0,0
000005e1 2e2e2f736f75   2134 	.strz	"../source/ProjectCfg/NvM_Cfg.hpp"
000005e7 7263652f5072 
000005ed 6f6a65637443 
000005f3 66672f4e764d 
000005f9 5f4366672e68 
000005ff 707000 
00000602 000000         2135 	.byte	0,0,0
00000605 2e2e2f736f75   2136 	.strz	"../source/SwcServiceNvM/NvM_Types.hpp"
0000060b 7263652f5377 
00000611 635365727669 
00000617 63654e764d2f 
0000061d 4e764d5f5479 
00000623 7065732e6870 
00000629 7000 
0000062b 000000         2137 	.byte	0,0,0
0000062e 2e2e2f736f75   2138 	.strz	"../source/ProjectCfg/Dem_Cfg_AssertionChk.hpp"
00000634 7263652f5072 
0000063a 6f6a65637443 
00000640 66672f44656d 
00000646 5f4366675f41 
0000064c 737365727469 
00000652 6f6e43686b2e 
00000658 68707000 
0000065c 000000         2139 	.byte	0,0,0
0000065f 2e2e2f736f75   2140 	.strz	"../source/wrappers/SwcServiceDem/Dem_Lib.hpp"
00000665 7263652f7772 
0000066b 617070657273 
00000671 2f5377635365 
00000677 727669636544 
0000067d 656d2f44656d 
00000683 5f4c69622e68 
00000689 707000 
0000068c 000000         2141 	.byte	0,0,0
0000068f 2e2e2f736f75   2142 	.strz	"../source/wrappers/SwcServiceDem/Dem_Lok_Det.hpp"
00000695 7263652f7772 
0000069b 617070657273 
000006a1 2f5377635365 
000006a7 727669636544 
000006ad 656d2f44656d 
000006b3 5f4c6f6b5f44 
000006b9 65742e687070 
000006bf 00 
000006c0 000000         2143 	.byte	0,0,0
000006c3 2e2e2f736f75   2144 	.strz	"../source/ProjectCfg/Dem_Cfg_Main.hpp"
000006c9 7263652f5072 
000006cf 6f6a65637443 
000006d5 66672f44656d 
000006db 5f4366675f4d 
000006e1 61696e2e6870 
000006e7 7000 
000006e9 000000         2145 	.byte	0,0,0
000006ec 2e2e2f736f75   2146 	.strz	"../source/SwcServiceDet/Det.hpp"
000006f2 7263652f5377 
000006f8 635365727669 
000006fe 63654465742f 
00000704 4465742e6870 
0000070a 7000 

                                                                      Page 47
                                                              C:\Users\nhuliyap\AppData\Local\Temp\gh_0000d8g1.s
0000070c 000000         2147 	.byte	0,0,0
0000070f 2e2e2f736f75   2148 	.strz	"../source/SwcServiceDet/Types_SwcServiceDet.hpp"
00000715 7263652f5377 
0000071b 635365727669 
00000721 63654465742f 
00000727 54797065735f 
0000072d 537763536572 
00000733 766963654465 
00000739 742e68707000 
0000073f 000000         2149 	.byte	0,0,0
00000742 2e2e2f736f75   2150 	.strz	"../source/wrappers/Rte_Det_Type.hpp"
00000748 7263652f7772 
0000074e 617070657273 
00000754 2f5274655f44 
0000075a 65745f547970 
00000760 652e68707000 
00000766 000000         2151 	.byte	0,0,0
00000769 2e2e2f736f75   2152 	.strz	"../source/ProjectCompiler/Det_MemMap.hpp"
0000076f 7263652f5072 
00000775 6f6a65637443 
0000077b 6f6d70696c65 
00000781 722f4465745f 
00000787 4d656d4d6170 
0000078d 2e68707000 
00000792 000000         2153 	.byte	0,0,0
00000795 2e2e2f736f75   2154 	.strz	"../source/wrappers/LibAutosarDiag/rba_DiagLib_MemUtils.hpp"
0000079b 7263652f7772 
000007a1 617070657273 
000007a7 2f4c69624175 
000007ad 746f73617244 
000007b3 6961672f7262 
000007b9 615f44696167 
000007bf 4c69625f4d65 
000007c5 6d5574696c73 
000007cb 2e68707000 
000007d0 000000         2155 	.byte	0,0,0
000007d3 2e2e2f736f75   2156 	.strz	"../source/wrappers/rba_BswSrv/rba_BswSrv.hpp"
000007d9 7263652f7772 
000007df 617070657273 
000007e5 2f7262615f42 
000007eb 73775372762f 
000007f1 7262615f4273 
000007f7 775372762e68 
000007fd 707000 
00000800 000000         2157 	.byte	0,0,0
00000803 2e2e2f736f75   2158 	.strz	"../source/ProjectCompiler/rba_BswSrv_MemMap.hpp"
00000809 7263652f5072 
0000080f 6f6a65637443 
00000815 6f6d70696c65 
0000081b 722f7262615f 
00000821 427377537276 
00000827 5f4d656d4d61 
0000082d 702e68707000 
00000833 000000         2159 	.byte	0,0,0
00000836 2e2e2f736f75   2160 	.strz	"../source/wrappers/SwcServiceDem/Dem_EventStatus.hpp"
0000083c 7263652f7772 
00000842 617070657273 
00000848 2f5377635365 
0000084e 727669636544 
00000854 656d2f44656d 
0000085a 5f4576656e74 

                                                                      Page 48
                                                              C:\Users\nhuliyap\AppData\Local\Temp\gh_0000d8g1.s
00000860 537461747573 
00000866 2e68707000 
0000086b 000000         2161 	.byte	0,0,0
0000086e 2e2e2f736f75   2162 	.strz	"../source/wrappers/SwcServiceDem/Dem_ISO14229Byte.hpp"
00000874 7263652f7772 
0000087a 617070657273 
00000880 2f5377635365 
00000886 727669636544 
0000088c 656d2f44656d 
00000892 5f49534f3134 
00000898 323239427974 
0000089e 652e68707000 
000008a4 000000         2163 	.byte	0,0,0
000008a7 2e2e2f736f75   2164 	.strz	"../source/wrappers/LibAutosarDiag/rba_DiagLib_Bits8.hpp"
000008ad 7263652f7772 
000008b3 617070657273 
000008b9 2f4c69624175 
000008bf 746f73617244 
000008c5 6961672f7262 
000008cb 615f44696167 
000008d1 4c69625f4269 
000008d7 7473382e6870 
000008dd 7000 
000008df 000000         2165 	.byte	0,0,0
000008e2 2e2e2f736f75   2166 	.strz	"../source/wrappers/SwcServiceDem/Dem_Array.hpp"
000008e8 7263652f7772 
000008ee 617070657273 
000008f4 2f5377635365 
000008fa 727669636544 
00000900 656d2f44656d 
00000906 5f4172726179 
0000090c 2e68707000 
00000911 000000         2167 	.byte	0,0,0
00000914 2e2e2f736f75   2168 	.strz	"../source/ProjectCfg/Dem_Cfg_Events.hpp"
0000091a 7263652f5072 
00000920 6f6a65637443 
00000926 66672f44656d 
0000092c 5f4366675f45 
00000932 76656e74732e 
00000938 68707000 
0000093c 000000         2169 	.byte	0,0,0
0000093f 2e2e2f736f75   2170 	.strz	"../source/ProjectCfg/Dem_Cfg_EventId.hpp"
00000945 7263652f5072 
0000094b 6f6a65637443 
00000951 66672f44656d 
00000957 5f4366675f45 
0000095d 76656e744964 
00000963 2e68707000 
00000968 000000         2171 	.byte	0,0,0
0000096b 2e2e2f736f75   2172 	.strz	"../source/ProjectCfg/Dem_Cfg_OperationCycle.hpp"
00000971 7263652f5072 
00000977 6f6a65637443 
0000097d 66672f44656d 
00000983 5f4366675f4f 
00000989 706572617469 
0000098f 6f6e4379636c 
00000995 652e68707000 
0000099b 000000         2173 	.byte	0,0,0
0000099e 2e2e2f736f75   2174 	.strz	"../source/wrappers/LibAutosarDiag/rba_DiagLib_Bits16.hpp"
000009a4 7263652f7772 
000009aa 617070657273 

                                                                      Page 49
                                                              C:\Users\nhuliyap\AppData\Local\Temp\gh_0000d8g1.s
000009b0 2f4c69624175 
000009b6 746f73617244 
000009bc 6961672f7262 
000009c2 615f44696167 
000009c8 4c69625f4269 
000009ce 747331362e68 
000009d4 707000 
000009d7 000000         2175 	.byte	0,0,0
000009da 2e2e2f736f75   2176 	.strz	"../source/wrappers/LibAutosarDiag/rba_DiagLib_Bits32.hpp"
000009e0 7263652f7772 
000009e6 617070657273 
000009ec 2f4c69624175 
000009f2 746f73617244 
000009f8 6961672f7262 
000009fe 615f44696167 
00000a04 4c69625f4269 
00000a0a 747333322e68 
00000a10 707000 
00000a13 000000         2177 	.byte	0,0,0
00000a16 2e2e2f736f75   2178 	.strz	"../source/ProjectCfg/Dem_Cfg_EvMem.hpp"
00000a1c 7263652f5072 
00000a22 6f6a65637443 
00000a28 66672f44656d 
00000a2e 5f4366675f45 
00000a34 764d656d2e68 
00000a3a 707000 
00000a3d 000000         2179 	.byte	0,0,0
00000a40 2e2e2f736f75   2180 	.strz	"../source/ProjectCfg/Dem_Cfg_DtcId.hpp"
00000a46 7263652f5072 
00000a4c 6f6a65637443 
00000a52 66672f44656d 
00000a58 5f4366675f44 
00000a5e 746349642e68 
00000a64 707000 
00000a67 000000         2181 	.byte	0,0,0
00000a6a 2e2e2f736f75   2182 	.strz	"../source/ProjectCfg/Dem_Cfg_Clear.hpp"
00000a70 7263652f5072 
00000a76 6f6a65637443 
00000a7c 66672f44656d 
00000a82 5f4366675f43 
00000a88 6c6561722e68 
00000a8e 707000 
00000a91 000000         2183 	.byte	0,0,0
00000a94 2e2e2f736f75   2184 	.strz	"../source/wrappers/SwcServiceDem/Dem_Events.hpp"
00000a9a 7263652f7772 
00000aa0 617070657273 
00000aa6 2f5377635365 
00000aac 727669636544 
00000ab2 656d2f44656d 
00000ab8 5f4576656e74 
00000abe 732e68707000 
00000ac4 000000         2185 	.byte	0,0,0
00000ac7 2e2e2f736f75   2186 	.strz	"../source/wrappers/SwcServiceDem/Dem.hpp"
00000acd 7263652f7772 
00000ad3 617070657273 
00000ad9 2f5377635365 
00000adf 727669636544 
00000ae5 656d2f44656d 
00000aeb 2e68707000 
00000af0 000000         2187 	.byte	0,0,0
00000af3 2e2e2f736f75   2188 	.strz	"../source/ProjectCfg/Dem_Cfg_Deb.hpp"

                                                                      Page 50
                                                              C:\Users\nhuliyap\AppData\Local\Temp\gh_0000d8g1.s
00000af9 7263652f5072 
00000aff 6f6a65637443 
00000b05 66672f44656d 
00000b0b 5f4366675f44 
00000b11 65622e687070 
00000b17 00 
00000b18 000000         2189 	.byte	0,0,0
00000b1b 2e2e2f736f75   2190 	.strz	"../source/ProjectCfg/Dem_Cfg_EnableCondition.hpp"
00000b21 7263652f5072 
00000b27 6f6a65637443 
00000b2d 66672f44656d 
00000b33 5f4366675f45 
00000b39 6e61626c6543 
00000b3f 6f6e64697469 
00000b45 6f6e2e687070 
00000b4b 00 
00000b4c 000000         2191 	.byte	0,0,0
00000b4f 2e2e2f736f75   2192 	.strz	"../source/ProjectCfg/Dem_Cfg_EventCategory.hpp"
00000b55 7263652f5072 
00000b5b 6f6a65637443 
00000b61 66672f44656d 
00000b67 5f4366675f45 
00000b6d 76656e744361 
00000b73 7465676f7279 
00000b79 2e68707000 
00000b7e 000000         2193 	.byte	0,0,0
00000b81 2e2e2f736f75   2194 	.strz	"../source/ProjectCfg/Dem_Cfg_EventIndicators.hpp"
00000b87 7263652f5072 
00000b8d 6f6a65637443 
00000b93 66672f44656d 
00000b99 5f4366675f45 
00000b9f 76656e74496e 
00000ba5 64696361746f 
00000bab 72732e687070 
00000bb1 00 
00000bb2 000000         2195 	.byte	0,0,0
00000bb5 2e2e2f736f75   2196 	.strz	"../source/ProjectCfg/Dem_Cfg_StorageCondition.hpp"
00000bbb 7263652f5072 
00000bc1 6f6a65637443 
00000bc7 66672f44656d 
00000bcd 5f4366675f53 
00000bd3 746f72616765 
00000bd9 436f6e646974 
00000bdf 696f6e2e6870 
00000be5 7000 
00000be7 000000         2197 	.byte	0,0,0
00000bea 2e2e2f736f75   2198 	.strz	"../source/wrappers/SwcServiceDem/Dem_Dlt.hpp"
00000bf0 7263652f7772 
00000bf6 617070657273 
00000bfc 2f5377635365 
00000c02 727669636544 
00000c08 656d2f44656d 
00000c0e 5f446c742e68 
00000c14 707000 
00000c17 000000         2199 	.byte	0,0,0
00000c1a 2e2e2f736f75   2200 	.strz	"../source/wrappers/SwcServiceDem/Dem_Dcm.hpp"
00000c20 7263652f7772 
00000c26 617070657273 
00000c2c 2f5377635365 
00000c32 727669636544 
00000c38 656d2f44656d 

                                                                      Page 51
                                                              C:\Users\nhuliyap\AppData\Local\Temp\gh_0000d8g1.s
00000c3e 5f44636d2e68 
00000c44 707000 
00000c47 000000         2201 	.byte	0,0,0
00000c4a 2e2e2f736f75   2202 	.strz	"../source/wrappers/SwcServiceDcm/Dcm_Types.hpp"
00000c50 7263652f7772 
00000c56 617070657273 
00000c5c 2f5377635365 
00000c62 727669636544 
00000c68 636d2f44636d 
00000c6e 5f5479706573 
00000c74 2e68707000 
00000c79 000000         2203 	.byte	0,0,0
00000c7c 2e2e2f736f75   2204 	.strz	"../source/wrappers/Rte_Dcm_Type.hpp"
00000c82 7263652f7772 
00000c88 617070657273 
00000c8e 2f5274655f44 
00000c94 636d5f547970 
00000c9a 652e68707000 
00000ca0 000000         2205 	.byte	0,0,0
00000ca3 2e2e2f736f75   2206 	.strz	"../source/wrappers/SwcServiceDem/Dem_J1939Dcm.hpp"
00000ca9 7263652f7772 
00000caf 617070657273 
00000cb5 2f5377635365 
00000cbb 727669636544 
00000cc1 656d2f44656d 
00000cc7 5f4a31393339 
00000ccd 44636d2e6870 
00000cd3 7000 
00000cd5 000000         2207 	.byte	0,0,0
00000cd8 2e2e2f736f75   2208 	.strz	"../source/wrappers/SwcServiceDem/Dem_BitArray.hpp"
00000cde 7263652f7772 
00000ce4 617070657273 
00000cea 2f5377635365 
00000cf0 727669636544 
00000cf6 656d2f44656d 
00000cfc 5f4269744172 
00000d02 7261792e6870 
00000d08 7000 
00000d0a 000000         2209 	.byte	0,0,0
00000d0d 2e2e2f736f75   2210 	.strz	"../source/wrappers/SwcServiceDem/Dem_Lock.hpp"
00000d13 7263652f7772 
00000d19 617070657273 
00000d1f 2f5377635365 
00000d25 727669636544 
00000d2b 656d2f44656d 
00000d31 5f4c6f636b2e 
00000d37 68707000 
00000d3b 000000         2211 	.byte	0,0,0
00000d3e 2e2e2f736f75   2212 	.strz	"../source/wrappers/SwcServiceDem/Dem_Main.hpp"
00000d44 7263652f7772 
00000d4a 617070657273 
00000d50 2f5377635365 
00000d56 727669636544 
00000d5c 656d2f44656d 
00000d62 5f4d61696e2e 
00000d68 68707000 
00000d6c 000000         2213 	.byte	0,0,0
00000d6f 2e2e2f736f75   2214 	.strz	"../source/ProjectCfg/Dem_Cfg_SchM.hpp"
00000d75 7263652f5072 
00000d7b 6f6a65637443 
00000d81 66672f44656d 

                                                                      Page 52
                                                              C:\Users\nhuliyap\AppData\Local\Temp\gh_0000d8g1.s
00000d87 5f4366675f53 
00000d8d 63684d2e6870 
00000d93 7000 
00000d95 000000         2215 	.byte	0,0,0
00000d98 2e2e2f736f75   2216 	.strz	"../source/SwcServiceSchM/SchM_Default.hpp"
00000d9e 7263652f5377 
00000da4 635365727669 
00000daa 63655363684d 
00000db0 2f5363684d5f 
00000db6 44656661756c 
00000dbc 742e68707000 
00000dc2 000000         2217 	.byte	0,0,0
00000dc5 2e2e2f736f75   2218 	.strz	"../source/McalMcu/Device.hpp"
00000dcb 7263652f4d63 
00000dd1 616c4d63752f 
00000dd7 446576696365 
00000ddd 2e68707000 
00000de2 000000         2219 	.byte	0,0,0
00000de5 2e2e2f736f75   2220 	.strz	"../source/McalMcu/dr7f701013.dvf.hpp"
00000deb 7263652f4d63 
00000df1 616c4d63752f 
00000df7 647237663730 
00000dfd 313031332e64 
00000e03 76662e687070 
00000e09 00 
00000e0a 000000         2221 	.byte	0,0,0
00000e0d 2e2e2f736f75   2222 	.strz	"../source/McalMcu/cpu.hpp"
00000e13 7263652f4d63 
00000e19 616c4d63752f 
00000e1f 6370752e6870 
00000e25 7000 
00000e27 000000         2223 	.byte	0,0,0
00000e2a 2e2e2f736f75   2224 	.strz	"../source/McalMcu/v800_ghs.hpp"
00000e30 7263652f4d63 
00000e36 616c4d63752f 
00000e3c 763830305f67 
00000e42 68732e687070 
00000e48 00 
00000e49 000000         2225 	.byte	0,0,0
00000e4c 2e2e2f736f75   2226 	.strz	"../source/wrappers/SwcServiceDem/Dem_Clear.hpp"
00000e52 7263652f7772 
00000e58 617070657273 
00000e5e 2f5377635365 
00000e64 727669636544 
00000e6a 656d2f44656d 
00000e70 5f436c656172 
00000e76 2e68707000 
00000e7b 000000         2227 	.byte	0,0,0
00000e7e 2e2e2f736f75   2228 	.strz	"../source/wrappers/SwcServiceDem/Dem_Mapping.hpp"
00000e84 7263652f7772 
00000e8a 617070657273 
00000e90 2f5377635365 
00000e96 727669636544 
00000e9c 656d2f44656d 
00000ea2 5f4d61707069 
00000ea8 6e672e687070 
00000eae 00 
00000eaf 000000         2229 	.byte	0,0,0
00000eb2 2e2e2f736f75   2230 	.strz	"../source/ProjectCfg/Dem_Cfg_Nodes.hpp"
00000eb8 7263652f5072 
00000ebe 6f6a65637443 

                                                                      Page 53
                                                              C:\Users\nhuliyap\AppData\Local\Temp\gh_0000d8g1.s
00000ec4 66672f44656d 
00000eca 5f4366675f4e 
00000ed0 6f6465732e68 
00000ed6 707000 
00000ed9 000000         2231 	.byte	0,0,0
00000edc 2e2e2f736f75   2232 	.strz	"../source/ProjectCfg/Dem_Cfg_EvBuff.hpp"
00000ee2 7263652f5072 
00000ee8 6f6a65637443 
00000eee 66672f44656d 
00000ef4 5f4366675f45 
00000efa 76427566662e 
00000f00 68707000 
00000f04 000000         2233 	.byte	0,0,0
00000f07 2e2e2f736f75   2234 	.strz	"../source/wrappers/SwcServiceDem/Dem_EventCategory.hpp"
00000f0d 7263652f7772 
00000f13 617070657273 
00000f19 2f5377635365 
00000f1f 727669636544 
00000f25 656d2f44656d 
00000f2b 5f4576656e74 
00000f31 43617465676f 
00000f37 72792e687070 
00000f3d 00 
00000f3e 000000         2235 	.byte	0,0,0
00000f41 2e2e2f736f75   2236 	.strz	"../source/wrappers/SwcServiceDem/Dem_StorageCondition.hpp"
00000f47 7263652f7772 
00000f4d 617070657273 
00000f53 2f5377635365 
00000f59 727669636544 
00000f5f 656d2f44656d 
00000f65 5f53746f7261 
00000f6b 6765436f6e64 
00000f71 6974696f6e2e 
00000f77 68707000 
00000f7b 000000         2237 	.byte	0,0,0
00000f7e 2e2e2f736f75   2238 	.strz	"../source/wrappers/SwcServiceDem/Dem_Helpers.hpp"
00000f84 7263652f7772 
00000f8a 617070657273 
00000f90 2f5377635365 
00000f96 727669636544 
00000f9c 656d2f44656d 
00000fa2 5f48656c7065 
00000fa8 72732e687070 
00000fae 00 
00000faf 000000         2239 	.byte	0,0,0
00000fb2 2e2e2f736f75   2240 	.strz	"../source/wrappers/SwcServiceDem/Dem_EnableCondition.hpp"
00000fb8 7263652f7772 
00000fbe 617070657273 
00000fc4 2f5377635365 
00000fca 727669636544 
00000fd0 656d2f44656d 
00000fd6 5f456e61626c 
00000fdc 65436f6e6469 
00000fe2 74696f6e2e68 
00000fe8 707000 
00000feb 000000         2241 	.byte	0,0,0
00000fee 2e2e2f736f75   2242 	.strz	"../source/ProjectCfg/Dem_Cfg_DistMem.hpp"
00000ff4 7263652f5072 
00000ffa 6f6a65637443 
00001000 66672f44656d 
00001006 5f4366675f44 

                                                                      Page 54
                                                              C:\Users\nhuliyap\AppData\Local\Temp\gh_0000d8g1.s
0000100c 6973744d656d 
00001012 2e68707000 
00001017 000000         2243 	.byte	0,0,0
0000101a 2e2e2f736f75   2244 	.strz	"../source/wrappers/SwcServiceDem/Dem_Nvm.hpp"
00001020 7263652f7772 
00001026 617070657273 
0000102c 2f5377635365 
00001032 727669636544 
00001038 656d2f44656d 
0000103e 5f4e766d2e68 
00001044 707000 
00001047 000000         2245 	.byte	0,0,0
0000104a 2e2e2f736f75   2246 	.strz	"../source/wrappers/SwcServiceDem/Dem_Nvm_Types.hpp"
00001050 7263652f7772 
00001056 617070657273 
0000105c 2f5377635365 
00001062 727669636544 
00001068 656d2f44656d 
0000106e 5f4e766d5f54 
00001074 797065732e68 
0000107a 707000 
0000107d 000000         2247 	.byte	0,0,0
00001080 2e2e2f736f75   2248 	.strz	"../source/ProjectCfg/Dem_Cfg_Nvm.hpp"
00001086 7263652f5072 
0000108c 6f6a65637443 
00001092 66672f44656d 
00001098 5f4366675f4e 
0000109e 766d2e687070 
000010a4 00 
000010a5 000000         2249 	.byte	0,0,0
000010a8 2e2e2f736f75   2250 	.strz	"../source/wrappers/SwcServiceDem/Dem_EvMemTypes.hpp"
000010ae 7263652f7772 
000010b4 617070657273 
000010ba 2f5377635365 
000010c0 727669636544 
000010c6 656d2f44656d 
000010cc 5f45764d656d 
000010d2 54797065732e 
000010d8 68707000 
000010dc 000000         2251 	.byte	0,0,0
000010df 2e2e2f736f75   2252 	.strz	"../source/ProjectCfg/Dem_Cfg_EnvMain.hpp"
000010e5 7263652f5072 
000010eb 6f6a65637443 
000010f1 66672f44656d 
000010f7 5f4366675f45 
000010fd 6e764d61696e 
00001103 2e68707000 
00001108 000000         2253 	.byte	0,0,0
0000110b 2e2e2f736f75   2254 	.strz	"../source/ProjectCfg/Dem_Cfg_EnvDataElement.hpp"
00001111 7263652f5072 
00001117 6f6a65637443 
0000111d 66672f44656d 
00001123 5f4366675f45 
00001129 6e7644617461 
0000112f 456c656d656e 
00001135 742e68707000 
0000113b 000000         2255 	.byte	0,0,0
0000113e 2e2e2f736f75   2256 	.strz	"../source/ProjectCfg/Dem_Cfg_DTCs.hpp"
00001144 7263652f5072 
0000114a 6f6a65637443 
00001150 66672f44656d 

                                                                      Page 55
                                                              C:\Users\nhuliyap\AppData\Local\Temp\gh_0000d8g1.s
00001156 5f4366675f44 
0000115c 5443732e6870 
00001162 7000 
00001164 000000         2257 	.byte	0,0,0
00001167 2e2e2f736f75   2258 	.strz	"../source/ProjectCfg/Dem_Cfg_DTC_DataStructures.hpp"
0000116d 7263652f5072 
00001173 6f6a65637443 
00001179 66672f44656d 
0000117f 5f4366675f44 
00001185 54435f446174 
0000118b 615374727563 
00001191 74757265732e 
00001197 68707000 
0000119b 000000         2259 	.byte	0,0,0
0000119e 2e2e2f736f75   2260 	.strz	"../source/wrappers/SwcServiceDem/Dem_GenericNvData.hpp"
000011a4 7263652f7772 
000011aa 617070657273 
000011b0 2f5377635365 
000011b6 727669636544 
000011bc 656d2f44656d 
000011c2 5f47656e6572 
000011c8 69634e764461 
000011ce 74612e687070 
000011d4 00 
000011d5 000000         2261 	.byte	0,0,0
000011d8 2e2e2f736f75   2262 	.strz	"../source/wrappers/SwcServiceDem/Dem_OperationCycle.hpp"
000011de 7263652f7772 
000011e4 617070657273 
000011ea 2f5377635365 
000011f0 727669636544 
000011f6 656d2f44656d 
000011fc 5f4f70657261 
00001202 74696f6e4379 
00001208 636c652e6870 
0000120e 7000 
00001210 000000         2263 	.byte	0,0,0
00001213 2e2e2f736f75   2264 	.strz	"../source/ProjectCfg/Dem_Cfg_OperationCycle_DataStructures.hpp"
00001219 7263652f5072 
0000121f 6f6a65637443 
00001225 66672f44656d 
0000122b 5f4366675f4f 
00001231 706572617469 
00001237 6f6e4379636c 
0000123d 655f44617461 
00001243 537472756374 
00001249 757265732e68 
0000124f 707000 
00001252 000000         2265 	.byte	0,0,0
00001255 2e2e2f736f75   2266 	.strz	"../source/wrappers/SwcServiceDem/Dem_EvMemGenTypes.hpp"
0000125b 7263652f7772 
00001261 617070657273 
00001267 2f5377635365 
0000126d 727669636544 
00001273 656d2f44656d 
00001279 5f45764d656d 
0000127f 47656e547970 
00001285 65732e687070 
0000128b 00 
0000128c 000000         2267 	.byte	0,0,0
0000128f 2e2e2f736f75   2268 	.strz	"../source/wrappers/SwcServiceDem/Dem_IndicatorAttributes.hpp"
00001295 7263652f7772 

                                                                      Page 56
                                                              C:\Users\nhuliyap\AppData\Local\Temp\gh_0000d8g1.s
0000129b 617070657273 
000012a1 2f5377635365 
000012a7 727669636544 
000012ad 656d2f44656d 
000012b3 5f496e646963 
000012b9 61746f724174 
000012bf 747269627574 
000012c5 65732e687070 
000012cb 00 
000012cc 000000         2269 	.byte	0,0,0
000012cf 2e2e2f736f75   2270 	.strz	"../source/wrappers/SwcServiceDem/Dem_Indicator.hpp"
000012d5 7263652f7772 
000012db 617070657273 
000012e1 2f5377635365 
000012e7 727669636544 
000012ed 656d2f44656d 
000012f3 5f496e646963 
000012f9 61746f722e68 
000012ff 707000 
00001302 000000         2271 	.byte	0,0,0
00001305 2e2e2f736f75   2272 	.strz	"../source/ProjectCfg/Dem_Cfg_Events_DataStructures.hpp"
0000130b 7263652f5072 
00001311 6f6a65637443 
00001317 66672f44656d 
0000131d 5f4366675f45 
00001323 76656e74735f 
00001329 446174615374 
0000132f 727563747572 
00001335 65732e687070 
0000133b 00 
0000133c 000000         2273 	.byte	0,0,0
0000133f 2e2e2f736f75   2274 	.strz	"../source/wrappers/LibAutosarDiag/rba_DiagLib.hpp"
00001345 7263652f7772 
0000134b 617070657273 
00001351 2f4c69624175 
00001357 746f73617244 
0000135d 6961672f7262 
00001363 615f44696167 
00001369 4c69622e6870 
0000136f 7000 
00001371 000000         2275 	.byte	0,0,0
00001374 2e2e2f736f75   2276 	.strz	"../source/wrappers/LibAutosarDiag/rba_DiagLib_ByteOrderUtils.hpp"
0000137a 7263652f7772 
00001380 617070657273 
00001386 2f4c69624175 
0000138c 746f73617244 
00001392 6961672f7262 
00001398 615f44696167 
0000139e 4c69625f4279 
000013a4 74654f726465 
000013aa 725574696c73 
000013b0 2e68707000 
000013b5 000000         2277 	.byte	0,0,0
000013b8 2e2e2f736f75   2278 	.strz	"../source/ProjectCompiler/rba_DiagLib_MemMap.hpp"
000013be 7263652f5072 
000013c4 6f6a65637443 
000013ca 6f6d70696c65 
000013d0 722f7262615f 
000013d6 446961674c69 
000013dc 625f4d656d4d 
000013e2 61702e687070 

                                                                      Page 57
                                                              C:\Users\nhuliyap\AppData\Local\Temp\gh_0000d8g1.s
000013e8 00 
000013e9 000000         2279 	.byte	0,0,0
000013ec 2e2e2f736f75   2280 	.strz	"../source/wrappers/SwcServiceDem/Dem_DisturbanceMemory.hpp"
000013f2 7263652f7772 
000013f8 617070657273 
000013fe 2f5377635365 
00001404 727669636544 
0000140a 656d2f44656d 
00001410 5f4469737475 
00001416 7262616e6365 
0000141c 4d656d6f7279 
00001422 2e68707000 
00001427 000000         2281 	.byte	0,0,0
0000142a 00             2282 	.byte	0
                        2283 .Ldw_lpro_end:
                        2284 	.section	.debug_macinfo
                        2285 .Ldw_macinfo_begin:
                        2286 	.section	.debug_frame
                        2287 .LDW_54e7820:
00000000 00000000*      2288 	.word	.LDW_unq_2-.LDW_unq_1
                        2289 .LDW_unq_1:
00000004 ffffffff       2290 	.byte	255,255,255,255
00000008 01             2291 	.byte	1
00000009 00             2292 	.byte	0
0000000a 01             2293 	.byte	1
0000000b 01             2294 	.byte	1
0000000c 1f             2295 	.byte	31
0000000d 0c             2296 	.byte	12
0000000e 03             2297 	.byte	3
0000000f 00             2298 	.byte	0
00000010 07             2299 	.byte	7
00000011 00             2300 	.byte	0
00000012 07             2301 	.byte	7
00000013 01             2302 	.byte	1
00000014 07             2303 	.byte	7
00000015 02             2304 	.byte	2
00000016 07             2305 	.byte	7
00000017 03             2306 	.byte	3
00000018 07             2307 	.byte	7
00000019 04             2308 	.byte	4
0000001a 07             2309 	.byte	7
0000001b 05             2310 	.byte	5
0000001c 07             2311 	.byte	7
0000001d 06             2312 	.byte	6
0000001e 07             2313 	.byte	7
0000001f 07             2314 	.byte	7
00000020 07             2315 	.byte	7
00000021 08             2316 	.byte	8
00000022 07             2317 	.byte	7
00000023 09             2318 	.byte	9
00000024 07             2319 	.byte	7
00000025 0a             2320 	.byte	10
00000026 07             2321 	.byte	7
00000027 0b             2322 	.byte	11
00000028 07             2323 	.byte	7
00000029 0c             2324 	.byte	12
0000002a 07             2325 	.byte	7
0000002b 0d             2326 	.byte	13
0000002c 07             2327 	.byte	7
0000002d 0e             2328 	.byte	14
0000002e 07             2329 	.byte	7

                                                                      Page 58
                                                              C:\Users\nhuliyap\AppData\Local\Temp\gh_0000d8g1.s
0000002f 0f             2330 	.byte	15
00000030 07             2331 	.byte	7
00000031 10             2332 	.byte	16
00000032 07             2333 	.byte	7
00000033 11             2334 	.byte	17
00000034 07             2335 	.byte	7
00000035 12             2336 	.byte	18
00000036 07             2337 	.byte	7
00000037 13             2338 	.byte	19
00000038 08             2339 	.byte	8
00000039 14             2340 	.byte	20
0000003a 08             2341 	.byte	8
0000003b 15             2342 	.byte	21
0000003c 08             2343 	.byte	8
0000003d 16             2344 	.byte	22
0000003e 08             2345 	.byte	8
0000003f 17             2346 	.byte	23
00000040 08             2347 	.byte	8
00000041 18             2348 	.byte	24
00000042 08             2349 	.byte	8
00000043 19             2350 	.byte	25
00000044 08             2351 	.byte	8
00000045 1a             2352 	.byte	26
00000046 08             2353 	.byte	8
00000047 1b             2354 	.byte	27
00000048 08             2355 	.byte	8
00000049 1c             2356 	.byte	28
0000004a 08             2357 	.byte	8
0000004b 1d             2358 	.byte	29
0000004c 07             2359 	.byte	7
0000004d 1e             2360 	.byte	30
0000004e 08             2361 	.byte	8
0000004f 1f             2362 	.byte	31
00000050 07             2363 	.byte	7
00000051 20             2364 	.byte	32
00000052 07             2365 	.byte	7
00000053 21             2366 	.byte	33
00000054 07             2367 	.byte	7
00000055 22             2368 	.byte	34
00000056 07             2369 	.byte	7
00000057 23             2370 	.byte	35
00000058 07             2371 	.byte	7
00000059 24             2372 	.byte	36
0000005a 07             2373 	.byte	7
0000005b 25             2374 	.byte	37
0000005c 07             2375 	.byte	7
0000005d 26             2376 	.byte	38
0000005e 07             2377 	.byte	7
0000005f 27             2378 	.byte	39
00000060 07             2379 	.byte	7
00000061 28             2380 	.byte	40
00000062 07             2381 	.byte	7
00000063 29             2382 	.byte	41
00000064 07             2383 	.byte	7
00000065 2a             2384 	.byte	42
00000066 07             2385 	.byte	7
00000067 2b             2386 	.byte	43
00000068 07             2387 	.byte	7
00000069 2c             2388 	.byte	44
0000006a 07             2389 	.byte	7
0000006b 2d             2390 	.byte	45

                                                                      Page 59
                                                              C:\Users\nhuliyap\AppData\Local\Temp\gh_0000d8g1.s
0000006c 07             2391 	.byte	7
0000006d 2e             2392 	.byte	46
0000006e 07             2393 	.byte	7
0000006f 2f             2394 	.byte	47
00000070 07             2395 	.byte	7
00000071 30             2396 	.byte	48
00000072 07             2397 	.byte	7
00000073 31             2398 	.byte	49
00000074 07             2399 	.byte	7
00000075 32             2400 	.byte	50
00000076 07             2401 	.byte	7
00000077 33             2402 	.byte	51
00000078 07             2403 	.byte	7
00000079 34             2404 	.byte	52
0000007a 07             2405 	.byte	7
0000007b 35             2406 	.byte	53
0000007c 07             2407 	.byte	7
0000007d 36             2408 	.byte	54
0000007e 07             2409 	.byte	7
0000007f 37             2410 	.byte	55
00000080 07             2411 	.byte	7
00000081 38             2412 	.byte	56
00000082 07             2413 	.byte	7
00000083 39             2414 	.byte	57
00000084 07             2415 	.byte	7
00000085 3a             2416 	.byte	58
00000086 07             2417 	.byte	7
00000087 3b             2418 	.byte	59
00000088 07             2419 	.byte	7
00000089 3c             2420 	.byte	60
0000008a 07             2421 	.byte	7
0000008b 3d             2422 	.byte	61
0000008c 07             2423 	.byte	7
0000008d 3e             2424 	.byte	62
0000008e 07             2425 	.byte	7
0000008f 3f             2426 	.byte	63
                        2427 .LDW_unq_2:
                        2428 	.section	.debug_info
                        2429 .LDW_1856bd0:
0000009b 25             2430 	.byte	37
0000009c 756e7369676e   2431 	.strz	"unsigned long"
000000a2 6564206c6f6e 
000000a8 6700 
000000aa 07             2432 	.byte	7
000000ab 04             2433 	.byte	4
                        2434 
                        2435 	.section	.debug_abbrev
00000017 25             2436 	.byte	37
00000018 24             2437 	.byte	36
00000019 00             2438 	.byte	0
0000001a 0308           2439 	.byte	3,8
0000001c 3e0b           2440 	.byte	62,11
0000001e 0b0b           2441 	.byte	11,11
00000020 0000           2442 	.byte	0,0
                        2443 
                        2444 	.section	.debug_info
                        2445 .LDW_1856f18:
000000ac 25             2446 	.byte	37
000000ad 756e7369676e   2447 	.strz	"unsigned short"
000000b3 65642073686f 
000000b9 727400 

                                                                      Page 60
                                                              C:\Users\nhuliyap\AppData\Local\Temp\gh_0000d8g1.s
000000bc 07             2448 	.byte	7
000000bd 02             2449 	.byte	2
                        2450 
                        2451 .LDW_1857340:
000000be 2f             2452 	.byte	47
000000bf 00000000*      2453 	.word	.LDW_1899038
                        2454 
                        2455 	.section	.debug_abbrev
00000022 2f             2456 	.byte	47
00000023 0f             2457 	.byte	15
00000024 00             2458 	.byte	0
00000025 4910           2459 	.byte	73,16
00000027 0000           2460 	.byte	0,0
                        2461 
                        2462 	.section	.debug_info
                        2463 .LDW_4d234e8:
000000c3 25             2464 	.byte	37
000000c4 756e7369676e   2465 	.strz	"unsigned char"
000000ca 656420636861 
000000d0 7200 
000000d2 08             2466 	.byte	8
000000d3 01             2467 	.byte	1
                        2468 
                        2469 .LDW_4d23520:
000000d4 2f             2470 	.byte	47
000000d5 00000000*      2471 	.word	.LDW_4d22d60
                        2472 
                        2473 .LDW_517e760:
000000d9 25             2474 	.byte	37
000000da 756e7369676e   2475 	.strz	"unsigned int"
000000e0 656420696e74 
000000e6 00 
000000e7 07             2476 	.byte	7
000000e8 04             2477 	.byte	4
                        2478 
                        2479 .LDW_5573a80:
000000e9 44             2480 	.byte	68
000000ea 00000000*      2481 	.word	.LDW_4d22d60
000000ee 01             2482 	.byte	1
                        2483 
                        2484 	.section	.debug_abbrev
00000029 44             2485 	.byte	68
0000002a 15             2486 	.byte	21
0000002b 01             2487 	.byte	1
0000002c 4910           2488 	.byte	73,16
0000002e 270c           2489 	.byte	39,12
00000030 0000           2490 	.byte	0,0
                        2491 
                        2492 	.section	.debug_info
                        2493 .LDW_5525138:
000000ef 12             2494 	.byte	18
000000f0 00000000*      2495 	.word	.LDW_189dd10
000000f4 00             2496 	.byte	0
                        2497 
                        2498 	.section	.debug_abbrev
00000032 12             2499 	.byte	18
00000033 05             2500 	.byte	5
00000034 00             2501 	.byte	0
00000035 4910           2502 	.byte	73,16
00000037 4b0c           2503 	.byte	75,12
00000039 0000           2504 	.byte	0,0

                                                                      Page 61
                                                              C:\Users\nhuliyap\AppData\Local\Temp\gh_0000d8g1.s
                        2505 
                        2506 	.section	.debug_info
000000f5 00             2507 	.byte	0
                        2508 
                        2509 .LDW_5573c40:
000000f6 44             2510 	.byte	68
000000f7 00000000*      2511 	.word	.LDW_4d23520
000000fb 01             2512 	.byte	1
                        2513 
                        2514 .LDW_55251f8:
000000fc 12             2515 	.byte	18
000000fd 00000000*      2516 	.word	.LDW_189dd10
00000101 00             2517 	.byte	0
                        2518 
00000102 00             2519 	.byte	0
                        2520 
                        2521 .LDW_5538d58:
00000103 2b             2522 	.byte	43
00000104 00000000*      2523 	.word	.LDW_4d22d60
                        2524 
                        2525 	.section	.debug_abbrev
0000003b 2b             2526 	.byte	43
0000003c 35             2527 	.byte	53
0000003d 00             2528 	.byte	0
0000003e 4910           2529 	.byte	73,16
00000040 0000           2530 	.byte	0,0
                        2531 
                        2532 	.section	.debug_info
                        2533 .LDW_5573b28:
00000108 45             2534 	.byte	69
00000109 01             2535 	.byte	1
                        2536 
                        2537 	.section	.debug_abbrev
00000042 45             2538 	.byte	69
00000043 15             2539 	.byte	21
00000044 01             2540 	.byte	1
00000045 270c           2541 	.byte	39,12
00000047 0000           2542 	.byte	0,0
                        2543 
                        2544 	.section	.debug_info
                        2545 .LDW_5525258:
0000010a 12             2546 	.byte	18
0000010b 00000000*      2547 	.word	.LDW_189dd10
0000010f 00             2548 	.byte	0
                        2549 
00000110 00             2550 	.byte	0
                        2551 
                        2552 .LDW_5573b60:
00000111 45             2553 	.byte	69
00000112 01             2554 	.byte	1
                        2555 
00000113 00             2556 	.byte	0
                        2557 
                        2558 .LDW_5573ce8:
00000114 45             2559 	.byte	69
00000115 01             2560 	.byte	1
                        2561 
00000116 00             2562 	.byte	0
                        2563 
                        2564 .LDW_5573d90:
00000117 45             2565 	.byte	69

                                                                      Page 62
                                                              C:\Users\nhuliyap\AppData\Local\Temp\gh_0000d8g1.s
00000118 01             2566 	.byte	1
                        2567 
00000119 00             2568 	.byte	0
                        2569 
                        2570 .LDW_5573e00:
0000011a 45             2571 	.byte	69
0000011b 01             2572 	.byte	1
                        2573 
0000011c 00             2574 	.byte	0
                        2575 
                        2576 .LDW_55738c0:
0000011d 45             2577 	.byte	69
0000011e 01             2578 	.byte	1
                        2579 
0000011f 00             2580 	.byte	0
                        2581 
                        2582 .LDW_55738f8:
00000120 45             2583 	.byte	69
00000121 01             2584 	.byte	1
                        2585 
00000122 00             2586 	.byte	0
                        2587 
                        2588 .LDW_5573e38:
00000123 45             2589 	.byte	69
00000124 01             2590 	.byte	1
                        2591 
00000125 00             2592 	.byte	0
                        2593 
                        2594 .LDW_5573930:
00000126 45             2595 	.byte	69
00000127 01             2596 	.byte	1
                        2597 
00000128 00             2598 	.byte	0
                        2599 
                        2600 .LDW_5573ab8:
00000129 45             2601 	.byte	69
0000012a 01             2602 	.byte	1
                        2603 
0000012b 00             2604 	.byte	0
                        2605 
                        2606 .LDW_5573af0:
0000012c 45             2607 	.byte	69
0000012d 01             2608 	.byte	1
                        2609 
0000012e 00             2610 	.byte	0
                        2611 
                        2612 .LDW_5573b98:
0000012f 45             2613 	.byte	69
00000130 01             2614 	.byte	1
                        2615 
00000131 00             2616 	.byte	0
                        2617 
                        2618 .LDW_5573bd0:
00000132 45             2619 	.byte	69
00000133 01             2620 	.byte	1
                        2621 
00000134 00             2622 	.byte	0
                        2623 
                        2624 .LDW_5573f18:
00000135 45             2625 	.byte	69
00000136 01             2626 	.byte	1

                                                                      Page 63
                                                              C:\Users\nhuliyap\AppData\Local\Temp\gh_0000d8g1.s
                        2627 
00000137 00             2628 	.byte	0
                        2629 
                        2630 .LDW_5573ee0:
00000138 45             2631 	.byte	69
00000139 01             2632 	.byte	1
                        2633 
0000013a 00             2634 	.byte	0
                        2635 
                        2636 .LDW_5573fc0:
0000013b 45             2637 	.byte	69
0000013c 01             2638 	.byte	1
                        2639 
0000013d 00             2640 	.byte	0
                        2641 
                        2642 .LDW_5573ff8:
0000013e 45             2643 	.byte	69
0000013f 01             2644 	.byte	1
                        2645 
00000140 00             2646 	.byte	0
                        2647 
                        2648 .LDW_5574030:
00000141 45             2649 	.byte	69
00000142 01             2650 	.byte	1
                        2651 
00000143 00             2652 	.byte	0
                        2653 
                        2654 .LDW_5573f50:
00000144 45             2655 	.byte	69
00000145 01             2656 	.byte	1
                        2657 
00000146 00             2658 	.byte	0
                        2659 
                        2660 .LDW_5573f88:
00000147 45             2661 	.byte	69
00000148 01             2662 	.byte	1
                        2663 
00000149 00             2664 	.byte	0
                        2665 
                        2666 .LDW_5573ea8:
0000014a 45             2667 	.byte	69
0000014b 01             2668 	.byte	1
                        2669 
0000014c 00             2670 	.byte	0
                        2671 
                        2672 .LDW_5573508:
0000014d 45             2673 	.byte	69
0000014e 01             2674 	.byte	1
                        2675 
0000014f 00             2676 	.byte	0
                        2677 
                        2678 .LDW_5573268:
00000150 45             2679 	.byte	69
00000151 01             2680 	.byte	1
                        2681 
00000152 00             2682 	.byte	0
                        2683 
                        2684 .LDW_5573118:
00000153 45             2685 	.byte	69
00000154 01             2686 	.byte	1
                        2687 

                                                                      Page 64
                                                              C:\Users\nhuliyap\AppData\Local\Temp\gh_0000d8g1.s
00000155 00             2688 	.byte	0
                        2689 
                        2690 .LDW_5573700:
00000156 45             2691 	.byte	69
00000157 01             2692 	.byte	1
                        2693 
00000158 00             2694 	.byte	0
                        2695 
                        2696 .LDW_5573620:
00000159 45             2697 	.byte	69
0000015a 01             2698 	.byte	1
                        2699 
0000015b 00             2700 	.byte	0
                        2701 
                        2702 .LDW_5573738:
0000015c 45             2703 	.byte	69
0000015d 01             2704 	.byte	1
                        2705 
0000015e 00             2706 	.byte	0
                        2707 
                        2708 .LDW_5573658:
0000015f 45             2709 	.byte	69
00000160 01             2710 	.byte	1
                        2711 
00000161 00             2712 	.byte	0
                        2713 
                        2714 .LDW_55735e8:
00000162 45             2715 	.byte	69
00000163 01             2716 	.byte	1
                        2717 
00000164 00             2718 	.byte	0
                        2719 
                        2720 .LDW_5573348:
00000165 44             2721 	.byte	68
00000166 00000000*      2722 	.word	.LDW_1899038
0000016a 01             2723 	.byte	1
                        2724 
0000016b 00             2725 	.byte	0
                        2726 
                        2727 .LDW_5573428:
0000016c 45             2728 	.byte	69
0000016d 01             2729 	.byte	1
                        2730 
0000016e 00             2731 	.byte	0
                        2732 
                        2733 .LDW_5573690:
0000016f 25             2734 	.byte	37
00000170 696e7400       2735 	.strz	"int"
00000174 05             2736 	.byte	5
00000175 04             2737 	.byte	4
                        2738 
                        2739 .LDW_55736c8:
00000176 45             2740 	.byte	69
00000177 01             2741 	.byte	1
                        2742 
00000178 00             2743 	.byte	0
                        2744 
                        2745 .LDW_55733f0:
00000179 2f             2746 	.byte	47
0000017a 00000000*      2747 	.word	.LDW_55736c8
                        2748 

                                                                      Page 65
                                                              C:\Users\nhuliyap\AppData\Local\Temp\gh_0000d8g1.s
                        2749 .LDW_5573150:
0000017e 45             2750 	.byte	69
0000017f 01             2751 	.byte	1
                        2752 
00000180 00             2753 	.byte	0
                        2754 
                        2755 .LDW_55731f8:
00000181 2f             2756 	.byte	47
00000182 00000000*      2757 	.word	.LDW_5573150
                        2758 
                        2759 .LDW_55734d0:
00000186 45             2760 	.byte	69
00000187 01             2761 	.byte	1
                        2762 
                        2763 .LDW_55caca8:
00000188 12             2764 	.byte	18
00000189 00000000*      2765 	.word	.LDW_1899038
0000018d 00             2766 	.byte	0
                        2767 
0000018e 00             2768 	.byte	0
                        2769 
                        2770 .LDW_55730e0:
0000018f 2f             2771 	.byte	47
00000190 00000000*      2772 	.word	.LDW_55734d0
                        2773 
                        2774 .LDW_55730a8:
00000194 45             2775 	.byte	69
00000195 01             2776 	.byte	1
                        2777 
                        2778 .LDW_55cacd8:
00000196 12             2779 	.byte	18
00000197 00000000*      2780 	.word	.LDW_1899038
0000019b 00             2781 	.byte	0
                        2782 
0000019c 00             2783 	.byte	0
                        2784 
                        2785 .LDW_5573188:
0000019d 2f             2786 	.byte	47
0000019e 00000000*      2787 	.word	.LDW_55730a8
                        2788 
                        2789 .LDW_55e93a8:
000001a2 2a             2790 	.byte	42
                        2791 
                        2792 	.section	.debug_abbrev
00000049 2a             2793 	.byte	42
0000004a 26             2794 	.byte	38
0000004b 00             2795 	.byte	0
0000004c 0000           2796 	.byte	0,0
                        2797 
                        2798 	.section	.debug_info
                        2799 .LDW_5573578:
000001a3 2f             2800 	.byte	47
000001a4 00000000*      2801 	.word	.LDW_55e93a8
                        2802 
                        2803 .LDW_562ac88:
000001a8 29             2804 	.byte	41
000001a9 00000000*      2805 	.word	.LDW_55e28b0
                        2806 
                        2807 	.section	.debug_abbrev
0000004e 29             2808 	.byte	41
0000004f 26             2809 	.byte	38

                                                                      Page 66
                                                              C:\Users\nhuliyap\AppData\Local\Temp\gh_0000d8g1.s
00000050 00             2810 	.byte	0
00000051 4910           2811 	.byte	73,16
00000053 0000           2812 	.byte	0,0
                        2813 
                        2814 	.section	.debug_info
                        2815 .LDW_5626b38:
000001ad 3b             2816 	.byte	59
000001ae 00             2817 	.byte	0
000001af 00000000*      2818 	.word	.LDW_562ac88
                        2819 
                        2820 	.section	.debug_abbrev
00000055 3b             2821 	.byte	59
00000056 01             2822 	.byte	1
00000057 01             2823 	.byte	1
00000058 090b           2824 	.byte	9,11
0000005a 4910           2825 	.byte	73,16
0000005c 0000           2826 	.byte	0,0
                        2827 
                        2828 	.section	.debug_info
000001b3 32             2829 	.byte	50
000001b4 00000000*      2830 	.word	.LDW_5573690
000001b8 04             2831 	.byte	4
000001b9 00             2832 	.byte	0
000001ba 7f             2833 	.byte	127
                        2834 
                        2835 	.section	.debug_abbrev
0000005e 32             2836 	.byte	50
0000005f 21             2837 	.byte	33
00000060 00             2838 	.byte	0
00000061 4910           2839 	.byte	73,16
00000063 0b0f           2840 	.byte	11,15
00000065 220d           2841 	.byte	34,13
00000067 2f0d           2842 	.byte	47,13
00000069 0000           2843 	.byte	0,0
                        2844 
                        2845 	.section	.debug_info
000001bb 00             2846 	.byte	0
                        2847 
                        2848 .LDW_5627330:
000001bc 3a             2849 	.byte	58
000001bd 00             2850 	.byte	0
000001be 0a             2851 	.byte	10
000001bf 00000000*      2852 	.word	.LDW_4d22d60
                        2853 
                        2854 	.section	.debug_abbrev
0000006b 3a             2855 	.byte	58
0000006c 01             2856 	.byte	1
0000006d 01             2857 	.byte	1
0000006e 090b           2858 	.byte	9,11
00000070 0b0f           2859 	.byte	11,15
00000072 4910           2860 	.byte	73,16
00000074 0000           2861 	.byte	0,0
                        2862 
                        2863 	.section	.debug_info
000001c3 32             2864 	.byte	50
000001c4 00000000*      2865 	.word	.LDW_5573690
000001c8 04             2866 	.byte	4
000001c9 00             2867 	.byte	0
000001ca 09             2868 	.byte	9
                        2869 
000001cb 00             2870 	.byte	0

                                                                      Page 67
                                                              C:\Users\nhuliyap\AppData\Local\Temp\gh_0000d8g1.s
                        2871 
                        2872 .LDW_56273b8:
000001cc 3a             2873 	.byte	58
000001cd 00             2874 	.byte	0
000001ce 0a             2875 	.byte	10
000001cf 00000000*      2876 	.word	.LDW_4d22d60
                        2877 
000001d3 32             2878 	.byte	50
000001d4 00000000*      2879 	.word	.LDW_5573690
000001d8 04             2880 	.byte	4
000001d9 00             2881 	.byte	0
000001da 09             2882 	.byte	9
                        2883 
000001db 00             2884 	.byte	0
                        2885 
                        2886 .LDW_5627990:
000001dc 3a             2887 	.byte	58
000001dd 00             2888 	.byte	0
000001de 34             2889 	.byte	52
000001df 00000000*      2890 	.word	.LDW_4d22d60
                        2891 
000001e3 32             2892 	.byte	50
000001e4 00000000*      2893 	.word	.LDW_5573690
000001e8 04             2894 	.byte	4
000001e9 00             2895 	.byte	0
000001ea 33             2896 	.byte	51
                        2897 
000001eb 00             2898 	.byte	0
                        2899 
                        2900 .LDW_5627770:
000001ec 3a             2901 	.byte	58
000001ed 00             2902 	.byte	0
000001ee 34             2903 	.byte	52
000001ef 00000000*      2904 	.word	.LDW_4d22d60
                        2905 
000001f3 32             2906 	.byte	50
000001f4 00000000*      2907 	.word	.LDW_5573690
000001f8 04             2908 	.byte	4
000001f9 00             2909 	.byte	0
000001fa 33             2910 	.byte	51
                        2911 
000001fb 00             2912 	.byte	0
                        2913 
                        2914 .LDW_56274c8:
000001fc 3a             2915 	.byte	58
000001fd 00             2916 	.byte	0
000001fe 60             2917 	.byte	96
000001ff 00000000*      2918 	.word	.LDW_4d22d60
                        2919 
00000203 32             2920 	.byte	50
00000204 00000000*      2921 	.word	.LDW_5573690
00000208 04             2922 	.byte	4
00000209 00             2923 	.byte	0
0000020a df00           2924 	.byte	223,0
                        2925 
0000020c 00             2926 	.byte	0
                        2927 
                        2928 .LDW_5627220:
0000020d 3a             2929 	.byte	58
0000020e 00             2930 	.byte	0
0000020f 14             2931 	.byte	20

                                                                      Page 68
                                                              C:\Users\nhuliyap\AppData\Local\Temp\gh_0000d8g1.s
00000210 00000000*      2932 	.word	.LDW_4d22d60
                        2933 
00000214 32             2934 	.byte	50
00000215 00000000*      2935 	.word	.LDW_5573690
00000219 04             2936 	.byte	4
0000021a 00             2937 	.byte	0
0000021b 13             2938 	.byte	19
                        2939 
0000021c 00             2940 	.byte	0
                        2941 
                        2942 .LDW_5627b28:
0000021d 3a             2943 	.byte	58
0000021e 00             2944 	.byte	0
0000021f 30             2945 	.byte	48
00000220 00000000*      2946 	.word	.LDW_4d22d60
                        2947 
00000224 32             2948 	.byte	50
00000225 00000000*      2949 	.word	.LDW_5573690
00000229 04             2950 	.byte	4
0000022a 00             2951 	.byte	0
0000022b 2f             2952 	.byte	47
                        2953 
0000022c 00             2954 	.byte	0
                        2955 
                        2956 .LDW_5627ff0:
0000022d 3a             2957 	.byte	58
0000022e 00             2958 	.byte	0
0000022f 30             2959 	.byte	48
00000230 00000000*      2960 	.word	.LDW_4d22d60
                        2961 
00000234 32             2962 	.byte	50
00000235 00000000*      2963 	.word	.LDW_5573690
00000239 04             2964 	.byte	4
0000023a 00             2965 	.byte	0
0000023b 2f             2966 	.byte	47
                        2967 
0000023c 00             2968 	.byte	0
                        2969 
                        2970 .LDW_5627bb0:
0000023d 3a             2971 	.byte	58
0000023e 00             2972 	.byte	0
0000023f 18             2973 	.byte	24
00000240 00000000*      2974 	.word	.LDW_4d22d60
                        2975 
00000244 32             2976 	.byte	50
00000245 00000000*      2977 	.word	.LDW_5573690
00000249 04             2978 	.byte	4
0000024a 00             2979 	.byte	0
0000024b 17             2980 	.byte	23
                        2981 
0000024c 00             2982 	.byte	0
                        2983 
                        2984 .LDW_56275d8:
0000024d 3a             2985 	.byte	58
0000024e 00             2986 	.byte	0
0000024f 18             2987 	.byte	24
00000250 00000000*      2988 	.word	.LDW_4d22d60
                        2989 
00000254 32             2990 	.byte	50
00000255 00000000*      2991 	.word	.LDW_5573690
00000259 04             2992 	.byte	4

                                                                      Page 69
                                                              C:\Users\nhuliyap\AppData\Local\Temp\gh_0000d8g1.s
0000025a 00             2993 	.byte	0
0000025b 17             2994 	.byte	23
                        2995 
0000025c 00             2996 	.byte	0
                        2997 
                        2998 .LDW_5627c38:
0000025d 3a             2999 	.byte	58
0000025e 00             3000 	.byte	0
0000025f 20             3001 	.byte	32
00000260 00000000*      3002 	.word	.LDW_4d22d60
                        3003 
00000264 32             3004 	.byte	50
00000265 00000000*      3005 	.word	.LDW_5573690
00000269 04             3006 	.byte	4
0000026a 00             3007 	.byte	0
0000026b 1f             3008 	.byte	31
                        3009 
0000026c 00             3010 	.byte	0
                        3011 
                        3012 .LDW_5627440:
0000026d 3a             3013 	.byte	58
0000026e 00             3014 	.byte	0
0000026f 04             3015 	.byte	4
00000270 00000000*      3016 	.word	.LDW_4d22d60
                        3017 
00000274 32             3018 	.byte	50
00000275 00000000*      3019 	.word	.LDW_5573690
00000279 04             3020 	.byte	4
0000027a 00             3021 	.byte	0
0000027b 03             3022 	.byte	3
                        3023 
0000027c 00             3024 	.byte	0
                        3025 
                        3026 .LDW_5627550:
0000027d 3a             3027 	.byte	58
0000027e 00             3028 	.byte	0
0000027f 14             3029 	.byte	20
00000280 00000000*      3030 	.word	.LDW_4d22d60
                        3031 
00000284 32             3032 	.byte	50
00000285 00000000*      3033 	.word	.LDW_5573690
00000289 04             3034 	.byte	4
0000028a 00             3035 	.byte	0
0000028b 13             3036 	.byte	19
                        3037 
0000028c 00             3038 	.byte	0
                        3039 
                        3040 .LDW_5627880:
0000028d 3a             3041 	.byte	58
0000028e 00             3042 	.byte	0
0000028f 40             3043 	.byte	64
00000290 00000000*      3044 	.word	.LDW_4d22d60
                        3045 
00000294 32             3046 	.byte	50
00000295 00000000*      3047 	.word	.LDW_5573690
00000299 04             3048 	.byte	4
0000029a 00             3049 	.byte	0
0000029b 3f             3050 	.byte	63
                        3051 
0000029c 00             3052 	.byte	0
                        3053 

                                                                      Page 70
                                                              C:\Users\nhuliyap\AppData\Local\Temp\gh_0000d8g1.s
                        3054 .LDW_5627908:
0000029d 3a             3055 	.byte	58
0000029e 00             3056 	.byte	0
0000029f 28             3057 	.byte	40
000002a0 00000000*      3058 	.word	.LDW_4d23520
                        3059 
000002a4 32             3060 	.byte	50
000002a5 00000000*      3061 	.word	.LDW_5573690
000002a9 04             3062 	.byte	4
000002aa 00             3063 	.byte	0
000002ab 09             3064 	.byte	9
                        3065 
000002ac 00             3066 	.byte	0
                        3067 
                        3068 .LDW_5627a18:
000002ad 3a             3069 	.byte	58
000002ae 00             3070 	.byte	0
000002af 34             3071 	.byte	52
000002b0 00000000*      3072 	.word	.LDW_4d22d60
                        3073 
000002b4 32             3074 	.byte	50
000002b5 00000000*      3075 	.word	.LDW_5573690
000002b9 04             3076 	.byte	4
000002ba 00             3077 	.byte	0
000002bb 33             3078 	.byte	51
                        3079 
000002bc 00             3080 	.byte	0
                        3081 
                        3082 .LDW_5627dd0:
000002bd 3a             3083 	.byte	58
000002be 00             3084 	.byte	0
000002bf 34             3085 	.byte	52
000002c0 00000000*      3086 	.word	.LDW_4d22d60
                        3087 
000002c4 32             3088 	.byte	50
000002c5 00000000*      3089 	.word	.LDW_5573690
000002c9 04             3090 	.byte	4
000002ca 00             3091 	.byte	0
000002cb 33             3092 	.byte	51
                        3093 
000002cc 00             3094 	.byte	0
                        3095 
                        3096 .LDW_5627e58:
000002cd 3a             3097 	.byte	58
000002ce 00             3098 	.byte	0
000002cf 60             3099 	.byte	96
000002d0 00000000*      3100 	.word	.LDW_4d22d60
                        3101 
000002d4 32             3102 	.byte	50
000002d5 00000000*      3103 	.word	.LDW_5573690
000002d9 04             3104 	.byte	4
000002da 00             3105 	.byte	0
000002db df00           3106 	.byte	223,0
                        3107 
000002dd 00             3108 	.byte	0
                        3109 
                        3110 .LDW_5646d08:
000002de 3a             3111 	.byte	58
000002df 00             3112 	.byte	0
000002e0 14             3113 	.byte	20
000002e1 00000000*      3114 	.word	.LDW_4d22d60

                                                                      Page 71
                                                              C:\Users\nhuliyap\AppData\Local\Temp\gh_0000d8g1.s
                        3115 
000002e5 32             3116 	.byte	50
000002e6 00000000*      3117 	.word	.LDW_5573690
000002ea 04             3118 	.byte	4
000002eb 00             3119 	.byte	0
000002ec 13             3120 	.byte	19
                        3121 
000002ed 00             3122 	.byte	0
                        3123 
                        3124 .LDW_56461e0:
000002ee 3a             3125 	.byte	58
000002ef 00             3126 	.byte	0
000002f0 30             3127 	.byte	48
000002f1 00000000*      3128 	.word	.LDW_4d22d60
                        3129 
000002f5 32             3130 	.byte	50
000002f6 00000000*      3131 	.word	.LDW_5573690
000002fa 04             3132 	.byte	4
000002fb 00             3133 	.byte	0
000002fc 2f             3134 	.byte	47
                        3135 
000002fd 00             3136 	.byte	0
                        3137 
                        3138 .LDW_56468c8:
000002fe 3a             3139 	.byte	58
000002ff 00             3140 	.byte	0
00000300 30             3141 	.byte	48
00000301 00000000*      3142 	.word	.LDW_4d22d60
                        3143 
00000305 32             3144 	.byte	50
00000306 00000000*      3145 	.word	.LDW_5573690
0000030a 04             3146 	.byte	4
0000030b 00             3147 	.byte	0
0000030c 2f             3148 	.byte	47
                        3149 
0000030d 00             3150 	.byte	0
                        3151 
                        3152 .LDW_5646268:
0000030e 3a             3153 	.byte	58
0000030f 00             3154 	.byte	0
00000310 18             3155 	.byte	24
00000311 00000000*      3156 	.word	.LDW_4d22d60
                        3157 
00000315 32             3158 	.byte	50
00000316 00000000*      3159 	.word	.LDW_5573690
0000031a 04             3160 	.byte	4
0000031b 00             3161 	.byte	0
0000031c 17             3162 	.byte	23
                        3163 
0000031d 00             3164 	.byte	0
                        3165 
                        3166 .LDW_5646620:
0000031e 3a             3167 	.byte	58
0000031f 00             3168 	.byte	0
00000320 18             3169 	.byte	24
00000321 00000000*      3170 	.word	.LDW_4d22d60
                        3171 
00000325 32             3172 	.byte	50
00000326 00000000*      3173 	.word	.LDW_5573690
0000032a 04             3174 	.byte	4
0000032b 00             3175 	.byte	0

                                                                      Page 72
                                                              C:\Users\nhuliyap\AppData\Local\Temp\gh_0000d8g1.s
0000032c 17             3176 	.byte	23
                        3177 
0000032d 00             3178 	.byte	0
                        3179 
                        3180 .LDW_5646598:
0000032e 3a             3181 	.byte	58
0000032f 00             3182 	.byte	0
00000330 20             3183 	.byte	32
00000331 00000000*      3184 	.word	.LDW_4d22d60
                        3185 
00000335 32             3186 	.byte	50
00000336 00000000*      3187 	.word	.LDW_5573690
0000033a 04             3188 	.byte	4
0000033b 00             3189 	.byte	0
0000033c 1f             3190 	.byte	31
                        3191 
0000033d 00             3192 	.byte	0
                        3193 
                        3194 .LDW_56466a8:
0000033e 3a             3195 	.byte	58
0000033f 00             3196 	.byte	0
00000340 04             3197 	.byte	4
00000341 00000000*      3198 	.word	.LDW_4d22d60
                        3199 
00000345 32             3200 	.byte	50
00000346 00000000*      3201 	.word	.LDW_5573690
0000034a 04             3202 	.byte	4
0000034b 00             3203 	.byte	0
0000034c 03             3204 	.byte	3
                        3205 
0000034d 00             3206 	.byte	0
                        3207 
                        3208 .LDW_5646488:
0000034e 3a             3209 	.byte	58
0000034f 00             3210 	.byte	0
00000350 2a             3211 	.byte	42
00000351 00000000*      3212 	.word	.LDW_4d22d60
                        3213 
00000355 32             3214 	.byte	50
00000356 00000000*      3215 	.word	.LDW_5573690
0000035a 04             3216 	.byte	4
0000035b 00             3217 	.byte	0
0000035c 29             3218 	.byte	41
                        3219 
0000035d 00             3220 	.byte	0
                        3221 
                        3222 .LDW_5646b70:
0000035e 3a             3223 	.byte	58
0000035f 00             3224 	.byte	0
00000360 30             3225 	.byte	48
00000361 00000000*      3226 	.word	.LDW_4d22d60
                        3227 
00000365 32             3228 	.byte	50
00000366 00000000*      3229 	.word	.LDW_5573690
0000036a 04             3230 	.byte	4
0000036b 00             3231 	.byte	0
0000036c 2f             3232 	.byte	47
                        3233 
0000036d 00             3234 	.byte	0
                        3235 
                        3236 .LDW_5646950:

                                                                      Page 73
                                                              C:\Users\nhuliyap\AppData\Local\Temp\gh_0000d8g1.s
0000036e 3a             3237 	.byte	58
0000036f 00             3238 	.byte	0
00000370 30             3239 	.byte	48
00000371 00000000*      3240 	.word	.LDW_4d22d60
                        3241 
00000375 32             3242 	.byte	50
00000376 00000000*      3243 	.word	.LDW_5573690
0000037a 04             3244 	.byte	4
0000037b 00             3245 	.byte	0
0000037c 2f             3246 	.byte	47
                        3247 
0000037d 00             3248 	.byte	0
                        3249 
                        3250 .LDW_56462f0:
0000037e 3a             3251 	.byte	58
0000037f 00             3252 	.byte	0
00000380 30             3253 	.byte	48
00000381 00000000*      3254 	.word	.LDW_4d22d60
                        3255 
00000385 32             3256 	.byte	50
00000386 00000000*      3257 	.word	.LDW_5573690
0000038a 04             3258 	.byte	4
0000038b 00             3259 	.byte	0
0000038c 2f             3260 	.byte	47
                        3261 
0000038d 00             3262 	.byte	0
                        3263 
                        3264 .LDW_5646378:
0000038e 3a             3265 	.byte	58
0000038f 00             3266 	.byte	0
00000390 30             3267 	.byte	48
00000391 00000000*      3268 	.word	.LDW_4d22d60
                        3269 
00000395 32             3270 	.byte	50
00000396 00000000*      3271 	.word	.LDW_5573690
0000039a 04             3272 	.byte	4
0000039b 00             3273 	.byte	0
0000039c 2f             3274 	.byte	47
                        3275 
0000039d 00             3276 	.byte	0
                        3277 
                        3278 .LDW_5646d90:
0000039e 3a             3279 	.byte	58
0000039f 00             3280 	.byte	0
000003a0 30             3281 	.byte	48
000003a1 00000000*      3282 	.word	.LDW_4d22d60
                        3283 
000003a5 32             3284 	.byte	50
000003a6 00000000*      3285 	.word	.LDW_5573690
000003aa 04             3286 	.byte	4
000003ab 00             3287 	.byte	0
000003ac 2f             3288 	.byte	47
                        3289 
000003ad 00             3290 	.byte	0
                        3291 
                        3292 .LDW_56470c0:
000003ae 3a             3293 	.byte	58
000003af 00             3294 	.byte	0
000003b0 30             3295 	.byte	48
000003b1 00000000*      3296 	.word	.LDW_4d22d60
                        3297 

                                                                      Page 74
                                                              C:\Users\nhuliyap\AppData\Local\Temp\gh_0000d8g1.s
000003b5 32             3298 	.byte	50
000003b6 00000000*      3299 	.word	.LDW_5573690
000003ba 04             3300 	.byte	4
000003bb 00             3301 	.byte	0
000003bc 2f             3302 	.byte	47
                        3303 
000003bd 00             3304 	.byte	0
                        3305 
                        3306 .LDW_5646a60:
000003be 3a             3307 	.byte	58
000003bf 00             3308 	.byte	0
000003c0 30             3309 	.byte	48
000003c1 00000000*      3310 	.word	.LDW_4d22d60
                        3311 
000003c5 32             3312 	.byte	50
000003c6 00000000*      3313 	.word	.LDW_5573690
000003ca 04             3314 	.byte	4
000003cb 00             3315 	.byte	0
000003cc 2f             3316 	.byte	47
                        3317 
000003cd 00             3318 	.byte	0
                        3319 
                        3320 .LDW_5646ae8:
000003ce 3a             3321 	.byte	58
000003cf 00             3322 	.byte	0
000003d0 30             3323 	.byte	48
000003d1 00000000*      3324 	.word	.LDW_4d22d60
                        3325 
000003d5 32             3326 	.byte	50
000003d6 00000000*      3327 	.word	.LDW_5573690
000003da 04             3328 	.byte	4
000003db 00             3329 	.byte	0
000003dc 2f             3330 	.byte	47
                        3331 
000003dd 00             3332 	.byte	0
                        3333 
                        3334 .LDW_5646fb0:
000003de 3a             3335 	.byte	58
000003df 00             3336 	.byte	0
000003e0 30             3337 	.byte	48
000003e1 00000000*      3338 	.word	.LDW_4d22d60
                        3339 
000003e5 32             3340 	.byte	50
000003e6 00000000*      3341 	.word	.LDW_5573690
000003ea 04             3342 	.byte	4
000003eb 00             3343 	.byte	0
000003ec 2f             3344 	.byte	47
                        3345 
000003ed 00             3346 	.byte	0
                        3347 
                        3348 .LDW_5646bf8:
000003ee 3a             3349 	.byte	58
000003ef 00             3350 	.byte	0
000003f0 30             3351 	.byte	48
000003f1 00000000*      3352 	.word	.LDW_4d22d60
                        3353 
000003f5 32             3354 	.byte	50
000003f6 00000000*      3355 	.word	.LDW_5573690
000003fa 04             3356 	.byte	4
000003fb 00             3357 	.byte	0
000003fc 2f             3358 	.byte	47

                                                                      Page 75
                                                              C:\Users\nhuliyap\AppData\Local\Temp\gh_0000d8g1.s
                        3359 
000003fd 00             3360 	.byte	0
                        3361 
                        3362 .LDW_56469d8:
000003fe 3a             3363 	.byte	58
000003ff 00             3364 	.byte	0
00000400 12             3365 	.byte	18
00000401 00000000*      3366 	.word	.LDW_4d22d60
                        3367 
00000405 32             3368 	.byte	50
00000406 00000000*      3369 	.word	.LDW_5573690
0000040a 04             3370 	.byte	4
0000040b 00             3371 	.byte	0
0000040c 11             3372 	.byte	17
                        3373 
0000040d 00             3374 	.byte	0
                        3375 
                        3376 .LDW_5646e18:
0000040e 3a             3377 	.byte	58
0000040f 00             3378 	.byte	0
00000410 14             3379 	.byte	20
00000411 00000000*      3380 	.word	.LDW_4d22d60
                        3381 
00000415 32             3382 	.byte	50
00000416 00000000*      3383 	.word	.LDW_5573690
0000041a 04             3384 	.byte	4
0000041b 00             3385 	.byte	0
0000041c 13             3386 	.byte	19
                        3387 
0000041d 00             3388 	.byte	0
                        3389 
                        3390 .LDW_5647038:
0000041e 3a             3391 	.byte	58
0000041f 00             3392 	.byte	0
00000420 40             3393 	.byte	64
00000421 00000000*      3394 	.word	.LDW_4d22d60
                        3395 
00000425 32             3396 	.byte	50
00000426 00000000*      3397 	.word	.LDW_5573690
0000042a 04             3398 	.byte	4
0000042b 00             3399 	.byte	0
0000042c 3f             3400 	.byte	63
                        3401 
0000042d 00             3402 	.byte	0
                        3403 
                        3404 .LDW_5647148:
0000042e 3a             3405 	.byte	58
0000042f 00             3406 	.byte	0
00000430 0b             3407 	.byte	11
00000431 00000000*      3408 	.word	.LDW_4d22d60
                        3409 
00000435 32             3410 	.byte	50
00000436 00000000*      3411 	.word	.LDW_5573690
0000043a 04             3412 	.byte	4
0000043b 00             3413 	.byte	0
0000043c 0a             3414 	.byte	10
                        3415 
0000043d 00             3416 	.byte	0
                        3417 
                        3418 .LDW_5645d20:
0000043e 45             3419 	.byte	69

                                                                      Page 76
                                                              C:\Users\nhuliyap\AppData\Local\Temp\gh_0000d8g1.s
0000043f 01             3420 	.byte	1
                        3421 
00000440 00             3422 	.byte	0
                        3423 
                        3424 .LDW_5645a10:
00000441 45             3425 	.byte	69
00000442 01             3426 	.byte	1
                        3427 
00000443 00             3428 	.byte	0
                        3429 
                        3430 .LDW_5645770:
00000444 2f             3431 	.byte	47
00000445 00000000*      3432 	.word	.LDW_562ac88
                        3433 
                        3434 .LDW_5645968:
00000449 45             3435 	.byte	69
0000044a 01             3436 	.byte	1
                        3437 
                        3438 .LDW_55ca348:
0000044b 12             3439 	.byte	18
0000044c 00000000*      3440 	.word	.LDW_5645770
00000450 00             3441 	.byte	0
                        3442 
00000451 00             3443 	.byte	0
                        3444 
                        3445 .LDW_56458f8:
00000452 45             3446 	.byte	69
00000453 01             3447 	.byte	1
                        3448 
00000454 00             3449 	.byte	0
                        3450 
                        3451 .LDW_5645ea8:
00000455 45             3452 	.byte	69
00000456 01             3453 	.byte	1
                        3454 
00000457 00             3455 	.byte	0
                        3456 
                        3457 .LDW_5645ee0:
00000458 2f             3458 	.byte	47
00000459 00000000*      3459 	.word	.LDW_54d4358
                        3460 
                        3461 .LDW_5645f88:
0000045d 44             3462 	.byte	68
0000045e 00000000*      3463 	.word	.LDW_54d54e0
00000462 01             3464 	.byte	1
                        3465 
                        3466 .LDW_55ca4f8:
00000463 12             3467 	.byte	18
00000464 00000000*      3468 	.word	.LDW_54d4460
00000468 00             3469 	.byte	0
                        3470 
                        3471 .LDW_55ca678:
00000469 12             3472 	.byte	18
0000046a 00000000*      3473 	.word	.LDW_5645ee0
0000046e 00             3474 	.byte	0
                        3475 
0000046f 00             3476 	.byte	0
                        3477 
                        3478 .LDW_5645d58:
00000470 44             3479 	.byte	68
00000471 00000000*      3480 	.word	.LDW_54d54e0

                                                                      Page 77
                                                              C:\Users\nhuliyap\AppData\Local\Temp\gh_0000d8g1.s
00000475 01             3481 	.byte	1
                        3482 
                        3483 .LDW_55ca498:
00000476 12             3484 	.byte	18
00000477 00000000*      3485 	.word	.LDW_54d4460
0000047b 00             3486 	.byte	0
                        3487 
                        3488 .LDW_55ca9a8:
0000047c 12             3489 	.byte	18
0000047d 00000000*      3490 	.word	.LDW_4d24820
00000481 00             3491 	.byte	0
                        3492 
00000482 00             3493 	.byte	0
                        3494 
                        3495 .LDW_5645f18:
00000483 44             3496 	.byte	68
00000484 00000000*      3497 	.word	.LDW_54d54e0
00000488 01             3498 	.byte	1
                        3499 
                        3500 .LDW_55ca858:
00000489 12             3501 	.byte	18
0000048a 00000000*      3502 	.word	.LDW_54d4460
0000048e 00             3503 	.byte	0
                        3504 
                        3505 .LDW_55ca708:
0000048f 12             3506 	.byte	18
00000490 00000000*      3507 	.word	.LDW_5573578
00000494 00             3508 	.byte	0
                        3509 
00000495 00             3510 	.byte	0
                        3511 
                        3512 .LDW_5646068:
00000496 45             3513 	.byte	69
00000497 01             3514 	.byte	1
                        3515 
00000498 00             3516 	.byte	0
                        3517 
                        3518 .LDW_56460a0:
00000499 45             3519 	.byte	69
0000049a 01             3520 	.byte	1
                        3521 
0000049b 00             3522 	.byte	0
                        3523 
                        3524 .LDW_56442a8:
0000049c 45             3525 	.byte	69
0000049d 01             3526 	.byte	1
                        3527 
0000049e 00             3528 	.byte	0
                        3529 
                        3530 .LDW_4d24820:
0000049f 28             3531 	.byte	40
000004a0 626f6f6c6561   3532 	.strz	"boolean"
000004a6 6e00 
000004a8 4e             3533 	.byte	78
000004a9 49             3534 	.byte	73
000004aa 03             3535 	.byte	3
000004ab 00000000*      3536 	.word	.LDW_4d234e8
                        3537 
                        3538 	.section	.debug_abbrev
00000076 28             3539 	.byte	40
00000077 16             3540 	.byte	22

                                                                      Page 78
                                                              C:\Users\nhuliyap\AppData\Local\Temp\gh_0000d8g1.s
00000078 00             3541 	.byte	0
00000079 0308           3542 	.byte	3,8
0000007b 3b0f           3543 	.byte	59,15
0000007d 390f           3544 	.byte	57,15
0000007f 3a0f           3545 	.byte	58,15
00000081 4910           3546 	.byte	73,16
00000083 0000           3547 	.byte	0,0
                        3548 
                        3549 	.section	.debug_info
                        3550 .LDW_4d22d60:
000004af 28             3551 	.byte	40
000004b0 75696e743800   3552 	.strz	"uint8"
000004b6 50             3553 	.byte	80
000004b7 4b             3554 	.byte	75
000004b8 03             3555 	.byte	3
000004b9 00000000*      3556 	.word	.LDW_4d234e8
                        3557 
                        3558 .LDW_189dd10:
000004bd 28             3559 	.byte	40
000004be 75696e743136   3560 	.strz	"uint16"
000004c4 00 
000004c5 52             3561 	.byte	82
000004c6 4a             3562 	.byte	74
000004c7 03             3563 	.byte	3
000004c8 00000000*      3564 	.word	.LDW_1856f18
                        3565 
                        3566 .LDW_1899038:
000004cc 28             3567 	.byte	40
000004cd 75696e743332   3568 	.strz	"uint32"
000004d3 00 
000004d4 54             3569 	.byte	84
000004d5 4a             3570 	.byte	74
000004d6 03             3571 	.byte	3
000004d7 00000000*      3572 	.word	.LDW_1856bd0
                        3573 
                        3574 .LDW_54d54e0:
000004db 28             3575 	.byte	40
000004dc 5374645f5265   3576 	.strz	"Std_ReturnType"
000004e2 7475726e5479 
000004e8 706500 
000004eb 4e             3577 	.byte	78
000004ec 0f             3578 	.byte	15
000004ed 02             3579 	.byte	2
000004ee 00000000*      3580 	.word	.LDW_4d22d60
                        3581 
                        3582 .LDW_4c00dc8:
000004f2 2e             3583 	.byte	46
000004f3 00             3584 	.byte	0
000004f4 33             3585 	.byte	51
000004f5 0d             3586 	.byte	13
000004f6 11             3587 	.byte	17
000004f7 01             3588 	.byte	1
000004f8 01             3589 	.byte	1
                        3590 
                        3591 	.section	.debug_abbrev
00000085 2e             3592 	.byte	46
00000086 04             3593 	.byte	4
00000087 01             3594 	.byte	1
00000088 0308           3595 	.byte	3,8
0000008a 3b0f           3596 	.byte	59,15
0000008c 390f           3597 	.byte	57,15

                                                                      Page 79
                                                              C:\Users\nhuliyap\AppData\Local\Temp\gh_0000d8g1.s
0000008e 3a0f           3598 	.byte	58,15
00000090 0b0f           3599 	.byte	11,15
00000092 320b           3600 	.byte	50,11
00000094 0000           3601 	.byte	0,0
                        3602 
                        3603 	.section	.debug_info
                        3604 .LDW_4d7e6b0:
000004f9 2d             3605 	.byte	45
000004fa 44454d5f494e   3606 	.strz	"DEM_INIT_MONITOR_CLEAR"
00000500 49545f4d4f4e 
00000506 49544f525f43 
0000050c 4c45415200 
00000511 34             3607 	.byte	52
00000512 03             3608 	.byte	3
00000513 11             3609 	.byte	17
00000514 01             3610 	.byte	1
                        3611 
                        3612 	.section	.debug_abbrev
00000096 2d             3613 	.byte	45
00000097 28             3614 	.byte	40
00000098 00             3615 	.byte	0
00000099 0308           3616 	.byte	3,8
0000009b 3b0f           3617 	.byte	59,15
0000009d 390f           3618 	.byte	57,15
0000009f 3a0f           3619 	.byte	58,15
000000a1 1c0d           3620 	.byte	28,13
000000a3 0000           3621 	.byte	0,0
                        3622 
                        3623 	.section	.debug_info
                        3624 .LDW_4d7e730:
00000515 2d             3625 	.byte	45
00000516 44454d5f494e   3626 	.strz	"DEM_INIT_MONITOR_RESTART"
0000051c 49545f4d4f4e 
00000522 49544f525f52 
00000528 455354415254 
0000052e 00 
0000052f 35             3627 	.byte	53
00000530 03             3628 	.byte	3
00000531 11             3629 	.byte	17
00000532 02             3630 	.byte	2
                        3631 
                        3632 .LDW_4d7e770:
00000533 2d             3633 	.byte	45
00000534 44454d5f494e   3634 	.strz	"DEM_INIT_MONITOR_REENABLED"
0000053a 49545f4d4f4e 
00000540 49544f525f52 
00000546 45454e41424c 
0000054c 454400 
0000054f 36             3635 	.byte	54
00000550 03             3636 	.byte	3
00000551 11             3637 	.byte	17
00000552 03             3638 	.byte	3
                        3639 
                        3640 .LDW_4d7e830:
00000553 2d             3641 	.byte	45
00000554 44454d5f494e   3642 	.strz	"DEM_INIT_MONITOR_STORAGE_REENABLED"
0000055a 49545f4d4f4e 
00000560 49544f525f53 
00000566 544f52414745 
0000056c 5f5245454e41 
00000572 424c454400 

                                                                      Page 80
                                                              C:\Users\nhuliyap\AppData\Local\Temp\gh_0000d8g1.s
00000577 37             3643 	.byte	55
00000578 03             3644 	.byte	3
00000579 11             3645 	.byte	17
0000057a 04             3646 	.byte	4
                        3647 
0000057b 00             3648 	.byte	0
                        3649 
                        3650 .LDW_55377b0:
0000057c 28             3651 	.byte	40
0000057d 44656d5f496e   3652 	.strz	"Dem_InitMonitorReasonType"
00000583 69744d6f6e69 
00000589 746f72526561 
0000058f 736f6e547970 
00000595 6500 
00000597 38             3653 	.byte	56
00000598 02             3654 	.byte	2
00000599 11             3655 	.byte	17
0000059a 00000000*      3656 	.word	.LDW_4c00dc8
                        3657 
                        3658 .LDW_55e2490:
0000059e 40             3659 	.byte	64
0000059f 535461675f46   3660 	.strz	"STag_Fls_ConfigType"
000005a5 6c735f436f6e 
000005ab 666967547970 
000005b1 6500 
000005b3 19             3661 	.byte	25
000005b4 10             3662 	.byte	16
000005b5 1e             3663 	.byte	30
000005b6 24             3664 	.byte	36
000005b7 01             3665 	.byte	1
                        3666 
                        3667 	.section	.debug_abbrev
000000a5 40             3668 	.byte	64
000000a6 13             3669 	.byte	19
000000a7 01             3670 	.byte	1
000000a8 0308           3671 	.byte	3,8
000000aa 3b0f           3672 	.byte	59,15
000000ac 390f           3673 	.byte	57,15
000000ae 3a0f           3674 	.byte	58,15
000000b0 0b0f           3675 	.byte	11,15
000000b2 320b           3676 	.byte	50,11
000000b4 0000           3677 	.byte	0,0
                        3678 
                        3679 	.section	.debug_info
                        3680 .LDW_55dddd0:
000005b8 23             3681 	.byte	35
000005b9 756c53746172   3682 	.strz	"ulStartOfDbToc"
000005bf 744f66446254 
000005c5 6f6300 
000005c8 1a             3683 	.byte	26
000005c9 0b             3684 	.byte	11
000005ca 1e             3685 	.byte	30
000005cb 00000000*      3686 	.word	.LDW_1899038
000005cf 0223           3687 	.byte	2,35
000005d1 00             3688 	.byte	0
000005d2 01             3689 	.byte	1
                        3690 
                        3691 	.section	.debug_abbrev
000000b6 23             3692 	.byte	35
000000b7 0d             3693 	.byte	13
000000b8 00             3694 	.byte	0

                                                                      Page 81
                                                              C:\Users\nhuliyap\AppData\Local\Temp\gh_0000d8g1.s
000000b9 0308           3695 	.byte	3,8
000000bb 3b0f           3696 	.byte	59,15
000000bd 390f           3697 	.byte	57,15
000000bf 3a0f           3698 	.byte	58,15
000000c1 4910           3699 	.byte	73,16
000000c3 380a           3700 	.byte	56,10
000000c5 320b           3701 	.byte	50,11
000000c7 0000           3702 	.byte	0,0
                        3703 
                        3704 	.section	.debug_info
                        3705 .LDW_55ddb48:
000005d3 23             3706 	.byte	35
000005d4 704a6f62456e   3707 	.strz	"pJobEndNotificationPointer"
000005da 644e6f746966 
000005e0 69636174696f 
000005e6 6e506f696e74 
000005ec 657200 
000005ef 1b             3708 	.byte	27
000005f0 04             3709 	.byte	4
000005f1 1e             3710 	.byte	30
000005f2 00000000*      3711 	.word	.LDW_55733f0
000005f6 0223           3712 	.byte	2,35
000005f8 04             3713 	.byte	4
000005f9 01             3714 	.byte	1
                        3715 
                        3716 .LDW_55ddd88:
000005fa 23             3717 	.byte	35
000005fb 704a6f624572   3718 	.strz	"pJobErrorNotificationPointer"
00000601 726f724e6f74 
00000607 696669636174 
0000060d 696f6e506f69 
00000613 6e74657200 
00000618 1c             3719 	.byte	28
00000619 04             3720 	.byte	4
0000061a 1e             3721 	.byte	30
0000061b 00000000*      3722 	.word	.LDW_55731f8
0000061f 0223           3723 	.byte	2,35
00000621 08             3724 	.byte	8
00000622 01             3725 	.byte	1
                        3726 
                        3727 .LDW_55dd8c0:
00000623 23             3728 	.byte	35
00000624 704563635345   3729 	.strz	"pEccSEDNotificationPointer"
0000062a 444e6f746966 
00000630 69636174696f 
00000636 6e506f696e74 
0000063c 657200 
0000063f 1f             3730 	.byte	31
00000640 04             3731 	.byte	4
00000641 1e             3732 	.byte	30
00000642 00000000*      3733 	.word	.LDW_55730e0
00000646 0223           3734 	.byte	2,35
00000648 0c             3735 	.byte	12
00000649 01             3736 	.byte	1
                        3737 
                        3738 .LDW_55ddbd8:
0000064a 23             3739 	.byte	35
0000064b 704563634445   3740 	.strz	"pEccDEDNotificationPointer"
00000651 444e6f746966 
00000657 69636174696f 
0000065d 6e506f696e74 

                                                                      Page 82
                                                              C:\Users\nhuliyap\AppData\Local\Temp\gh_0000d8g1.s
00000663 657200 
00000666 20             3741 	.byte	32
00000667 04             3742 	.byte	4
00000668 1e             3743 	.byte	30
00000669 00000000*      3744 	.word	.LDW_5573188
0000066d 0223           3745 	.byte	2,35
0000066f 10             3746 	.byte	16
00000670 01             3747 	.byte	1
                        3748 
                        3749 .LDW_55de010:
00000671 23             3750 	.byte	35
00000672 756c466c7344   3751 	.strz	"ulFlsDFMaxReadBytes"
00000678 464d61785265 
0000067e 616442797465 
00000684 7300 
00000686 21             3752 	.byte	33
00000687 0b             3753 	.byte	11
00000688 1e             3754 	.byte	30
00000689 00000000*      3755 	.word	.LDW_1899038
0000068d 0223           3756 	.byte	2,35
0000068f 14             3757 	.byte	20
00000690 01             3758 	.byte	1
                        3759 
                        3760 .LDW_55ddc20:
00000691 23             3761 	.byte	35
00000692 756c466c7344   3762 	.strz	"ulFlsDFReadTimeoutValue"
00000698 465265616454 
0000069e 696d656f7574 
000006a4 56616c756500 
000006aa 22             3763 	.byte	34
000006ab 0b             3764 	.byte	11
000006ac 1e             3765 	.byte	30
000006ad 00000000*      3766 	.word	.LDW_1899038
000006b1 0223           3767 	.byte	2,35
000006b3 18             3768 	.byte	24
000006b4 01             3769 	.byte	1
                        3770 
                        3771 .LDW_55ddef0:
000006b5 23             3772 	.byte	35
000006b6 756c466c7344   3773 	.strz	"ulFlsDFBlankCheckReadTimeoutValue"
000006bc 46426c616e6b 
000006c2 436865636b52 
000006c8 65616454696d 
000006ce 656f75745661 
000006d4 6c756500 
000006d8 23             3774 	.byte	35
000006d9 0b             3775 	.byte	11
000006da 1e             3776 	.byte	30
000006db 00000000*      3777 	.word	.LDW_1899038
000006df 0223           3778 	.byte	2,35
000006e1 1c             3779 	.byte	28
000006e2 01             3780 	.byte	1
                        3781 
                        3782 .LDW_55ddf38:
000006e3 23             3783 	.byte	35
000006e4 756c466c7344   3784 	.strz	"ulFlsDFCancelTimeoutValue"
000006ea 4643616e6365 
000006f0 6c54696d656f 
000006f6 757456616c75 
000006fc 6500 
000006fe 2a             3785 	.byte	42

                                                                      Page 83
                                                              C:\Users\nhuliyap\AppData\Local\Temp\gh_0000d8g1.s
000006ff 0a             3786 	.byte	10
00000700 1e             3787 	.byte	30
00000701 00000000*      3788 	.word	.LDW_1899038
00000705 0223           3789 	.byte	2,35
00000707 20             3790 	.byte	32
00000708 01             3791 	.byte	1
                        3792 
00000709 00             3793 	.byte	0
                        3794 
                        3795 .LDW_55e28b0:
0000070a 28             3796 	.byte	40
0000070b 466c735f436f   3797 	.strz	"Fls_ConfigType"
00000711 6e6669675479 
00000717 706500 
0000071a 38             3798 	.byte	56
0000071b 02             3799 	.byte	2
0000071c 1e             3800 	.byte	30
0000071d 00000000*      3801 	.word	.LDW_55e2490
                        3802 
                        3803 .LDW_54d4358:
00000721 28             3804 	.byte	40
00000722 4e764d5f5265   3805 	.strz	"NvM_RequestResultType"
00000728 717565737452 
0000072e 6573756c7454 
00000734 79706500 
00000738 0b             3806 	.byte	11
00000739 0f             3807 	.byte	15
0000073a 25             3808 	.byte	37
0000073b 00000000*      3809 	.word	.LDW_4d22d60
                        3810 
                        3811 .LDW_54d4460:
0000073f 28             3812 	.byte	40
00000740 4e764d5f426c   3813 	.strz	"NvM_BlockIdType"
00000746 6f636b496454 
0000074c 79706500 
00000750 0f             3814 	.byte	15
00000751 10             3815 	.byte	16
00000752 25             3816 	.byte	37
00000753 00000000*      3817 	.word	.LDW_189dd10
                        3818 
                        3819 .LDW_562a6b0:
00000757 05             3820 	.byte	5
00000758 466c735f4773   3821 	.strz	"Fls_GstConfiguration"
0000075e 74436f6e6669 
00000764 677572617469 
0000076a 6f6e00 
0000076d aa01           3822 	.byte	170,1
0000076f 29             3823 	.byte	41
00000770 1c             3824 	.byte	28
00000771 00000000*      3825 	.word	.LDW_5626b38
00000775 01             3826 	.byte	1
00000776 01             3827 	.byte	1
                        3828 
                        3829 	.section	.debug_abbrev
000000c9 05             3830 	.byte	5
000000ca 34             3831 	.byte	52
000000cb 00             3832 	.byte	0
000000cc 0308           3833 	.byte	3,8
000000ce 3b0f           3834 	.byte	59,15
000000d0 390f           3835 	.byte	57,15
000000d2 3a0f           3836 	.byte	58,15

                                                                      Page 84
                                                              C:\Users\nhuliyap\AppData\Local\Temp\gh_0000d8g1.s
000000d4 4910           3837 	.byte	73,16
000000d6 3f0c           3838 	.byte	63,12
000000d8 3c0c           3839 	.byte	60,12
000000da 0000           3840 	.byte	0,0
                        3841 
                        3842 	.section	.debug_info
                        3843 .LDW_563eb60:
00000777 04             3844 	.byte	4
00000778 756343617453   3845 	.strz	"ucCatSaveOnEvent"
0000077e 6176654f6e45 
00000784 76656e7400 
00000789 29             3846 	.byte	41
0000078a 0e             3847 	.byte	14
0000078b 01             3848 	.byte	1
0000078c 00000000*      3849 	.word	.LDW_5627330
00000790 00             3850 	.byte	0
00000791 00             3851 	.byte	0
00000792 0503           3852 	.byte	5,3
00000794 00000000*      3853 	.word	_ucCatSaveOnEvent..C.3A.5C_ECU2.5CECU_Rivian_A1.5CTarget.5Crepo_projects.5CpRealEcu.5CcR_LATEST.5Cmake.5Coutput.5Cobjects.5CRte_NvM_Type.
                        3854 
                        3855 	.section	.debug_abbrev
000000dc 04             3856 	.byte	4
000000dd 34             3857 	.byte	52
000000de 00             3858 	.byte	0
000000df 0308           3859 	.byte	3,8
000000e1 3b0f           3860 	.byte	59,15
000000e3 390f           3861 	.byte	57,15
000000e5 3a0f           3862 	.byte	58,15
000000e7 4910           3863 	.byte	73,16
000000e9 3f0c           3864 	.byte	63,12
000000eb 3c0c           3865 	.byte	60,12
000000ed 020a           3866 	.byte	2,10
000000ef 0000           3867 	.byte	0,0
                        3868 
                        3869 	.section	.debug_info
                        3870 .LDW_563e378:
00000798 04             3871 	.byte	4
00000799 756343617452   3872 	.strz	"ucCatRamBlockStatus"
0000079f 616d426c6f63 
000007a5 6b5374617475 
000007ab 7300 
000007ad 2a             3873 	.byte	42
000007ae 0e             3874 	.byte	14
000007af 01             3875 	.byte	1
000007b0 00000000*      3876 	.word	.LDW_56273b8
000007b4 00             3877 	.byte	0
000007b5 00             3878 	.byte	0
000007b6 0503           3879 	.byte	5,3
000007b8 00000000*      3880 	.word	_ucCatRamBlockStatus..C.3A.5C_ECU2.5CECU_Rivian_A1.5CTarget.5Crepo_projects.5CpRealEcu.5CcR_LATEST.5Cmake.5Coutput.5Cobjects.5CRte_NvM_Type.
                        3881 
                        3882 .LDW_563e9a8:
000007bc 04             3883 	.byte	4
000007bd 52616d5f4e76   3884 	.strz	"Ram_NvMBlock_CAT01"
000007c3 4d426c6f636b 
000007c9 5f4341543031 
000007cf 00 
000007d0 2d             3885 	.byte	45
000007d1 0e             3886 	.byte	14
000007d2 01             3887 	.byte	1
000007d3 00000000*      3888 	.word	.LDW_5627990
000007d7 01             3889 	.byte	1

                                                                      Page 85
                                                              C:\Users\nhuliyap\AppData\Local\Temp\gh_0000d8g1.s
000007d8 00             3890 	.byte	0
000007d9 0503           3891 	.byte	5,3
000007db 00000000*      3892 	.word	_Ram_NvMBlock_CAT01
                        3893 
                        3894 .LDW_563ec10:
000007df 04             3895 	.byte	4
000007e0 52616d5f4e76   3896 	.strz	"Ram_NvMBlock_CAT02"
000007e6 4d426c6f636b 
000007ec 5f4341543032 
000007f2 00 
000007f3 2e             3897 	.byte	46
000007f4 0e             3898 	.byte	14
000007f5 01             3899 	.byte	1
000007f6 00000000*      3900 	.word	.LDW_5627770
000007fa 01             3901 	.byte	1
000007fb 00             3902 	.byte	0
000007fc 0503           3903 	.byte	5,3
000007fe 00000000*      3904 	.word	_Ram_NvMBlock_CAT02
                        3905 
                        3906 .LDW_563e2c8:
00000802 04             3907 	.byte	4
00000803 52616d5f4e76   3908 	.strz	"Ram_NvMBlock_CAT03"
00000809 4d426c6f636b 
0000080f 5f4341543033 
00000815 00 
00000816 2f             3909 	.byte	47
00000817 0e             3910 	.byte	14
00000818 01             3911 	.byte	1
00000819 00000000*      3912 	.word	.LDW_56274c8
0000081d 01             3913 	.byte	1
0000081e 00             3914 	.byte	0
0000081f 0503           3915 	.byte	5,3
00000821 00000000*      3916 	.word	_Ram_NvMBlock_CAT03
                        3917 
                        3918 .LDW_563e270:
00000825 04             3919 	.byte	4
00000826 52616d5f4e76   3920 	.strz	"Ram_NvMBlock_CAT04"
0000082c 4d426c6f636b 
00000832 5f4341543034 
00000838 00 
00000839 30             3921 	.byte	48
0000083a 0e             3922 	.byte	14
0000083b 01             3923 	.byte	1
0000083c 00000000*      3924 	.word	.LDW_5627220
00000840 01             3925 	.byte	1
00000841 00             3926 	.byte	0
00000842 0503           3927 	.byte	5,3
00000844 00000000*      3928 	.word	_Ram_NvMBlock_CAT04
                        3929 
                        3930 .LDW_563ec68:
00000848 04             3931 	.byte	4
00000849 52616d5f4e76   3932 	.strz	"Ram_NvMBlock_CAT05"
0000084f 4d426c6f636b 
00000855 5f4341543035 
0000085b 00 
0000085c 31             3933 	.byte	49
0000085d 0e             3934 	.byte	14
0000085e 01             3935 	.byte	1
0000085f 00000000*      3936 	.word	.LDW_5627b28
00000863 01             3937 	.byte	1
00000864 00             3938 	.byte	0

                                                                      Page 86
                                                              C:\Users\nhuliyap\AppData\Local\Temp\gh_0000d8g1.s
00000865 0503           3939 	.byte	5,3
00000867 00000000*      3940 	.word	_Ram_NvMBlock_CAT05
                        3941 
                        3942 .LDW_563ecc0:
0000086b 04             3943 	.byte	4
0000086c 52616d5f4e76   3944 	.strz	"Ram_NvMBlock_CAT06"
00000872 4d426c6f636b 
00000878 5f4341543036 
0000087e 00 
0000087f 32             3945 	.byte	50
00000880 0e             3946 	.byte	14
00000881 01             3947 	.byte	1
00000882 00000000*      3948 	.word	.LDW_5627ff0
00000886 01             3949 	.byte	1
00000887 00             3950 	.byte	0
00000888 0503           3951 	.byte	5,3
0000088a 00000000*      3952 	.word	_Ram_NvMBlock_CAT06
                        3953 
                        3954 .LDW_563ed18:
0000088e 04             3955 	.byte	4
0000088f 52616d5f4e76   3956 	.strz	"Ram_NvMBlock_CAT07"
00000895 4d426c6f636b 
0000089b 5f4341543037 
000008a1 00 
000008a2 33             3957 	.byte	51
000008a3 0e             3958 	.byte	14
000008a4 01             3959 	.byte	1
000008a5 00000000*      3960 	.word	.LDW_5627bb0
000008a9 01             3961 	.byte	1
000008aa 00             3962 	.byte	0
000008ab 0503           3963 	.byte	5,3
000008ad 00000000*      3964 	.word	_Ram_NvMBlock_CAT07
                        3965 
                        3966 .LDW_563e428:
000008b1 04             3967 	.byte	4
000008b2 52616d5f4e76   3968 	.strz	"Ram_NvMBlock_CAT08"
000008b8 4d426c6f636b 
000008be 5f4341543038 
000008c4 00 
000008c5 34             3969 	.byte	52
000008c6 0e             3970 	.byte	14
000008c7 01             3971 	.byte	1
000008c8 00000000*      3972 	.word	.LDW_56275d8
000008cc 01             3973 	.byte	1
000008cd 00             3974 	.byte	0
000008ce 0503           3975 	.byte	5,3
000008d0 00000000*      3976 	.word	_Ram_NvMBlock_CAT08
                        3977 
                        3978 .LDW_563f1e8:
000008d4 04             3979 	.byte	4
000008d5 52616d5f4e76   3980 	.strz	"Ram_NvMBlock_CAT09"
000008db 4d426c6f636b 
000008e1 5f4341543039 
000008e7 00 
000008e8 35             3981 	.byte	53
000008e9 0e             3982 	.byte	14
000008ea 01             3983 	.byte	1
000008eb 00000000*      3984 	.word	.LDW_5627c38
000008ef 01             3985 	.byte	1
000008f0 00             3986 	.byte	0
000008f1 0503           3987 	.byte	5,3

                                                                      Page 87
                                                              C:\Users\nhuliyap\AppData\Local\Temp\gh_0000d8g1.s
000008f3 00000000*      3988 	.word	_Ram_NvMBlock_CAT09
                        3989 
                        3990 .LDW_563f500:
000008f7 04             3991 	.byte	4
000008f8 52616d5f4e76   3992 	.strz	"Ram_NvMBlock_CAT10"
000008fe 4d426c6f636b 
00000904 5f4341543130 
0000090a 00 
0000090b 36             3993 	.byte	54
0000090c 0e             3994 	.byte	14
0000090d 01             3995 	.byte	1
0000090e 00000000*      3996 	.word	.LDW_5627440
00000912 01             3997 	.byte	1
00000913 00             3998 	.byte	0
00000914 0503           3999 	.byte	5,3
00000916 00000000*      4000 	.word	_Ram_NvMBlock_CAT10
                        4001 
                        4002 .LDW_563f660:
0000091a 04             4003 	.byte	4
0000091b 52616d5f4543   4004 	.strz	"Ram_ECUM_CFG_NVM_BLOCK"
00000921 554d5f434647 
00000927 5f4e564d5f42 
0000092d 4c4f434b00 
00000932 40             4005 	.byte	64
00000933 0e             4006 	.byte	14
00000934 01             4007 	.byte	1
00000935 00000000*      4008 	.word	.LDW_5627550
00000939 01             4009 	.byte	1
0000093a 00             4010 	.byte	0
0000093b 0503           4011 	.byte	5,3
0000093d 00000000*      4012 	.word	_Ram_ECUM_CFG_NVM_BLOCK
                        4013 
                        4014 .LDW_563f3a0:
00000941 04             4015 	.byte	4
00000942 52616d5f4e76   4016 	.strz	"Ram_NvMBlock_BSW_Data"
00000948 4d426c6f636b 
0000094e 5f4253575f44 
00000954 61746100 
00000958 41             4017 	.byte	65
00000959 0e             4018 	.byte	14
0000095a 01             4019 	.byte	1
0000095b 00000000*      4020 	.word	.LDW_5627880
0000095f 01             4021 	.byte	1
00000960 00             4022 	.byte	0
00000961 0503           4023 	.byte	5,3
00000963 00000000*      4024 	.word	_Ram_NvMBlock_BSW_Data
                        4025 
                        4026 .LDW_563f5b0:
00000967 04             4027 	.byte	4
00000968 704361746567   4028 	.strz	"pCategoryRamBlock"
0000096e 6f727952616d 
00000974 426c6f636b00 
0000097a 43             4029 	.byte	67
0000097b 08             4030 	.byte	8
0000097c 01             4031 	.byte	1
0000097d 00000000*      4032 	.word	.LDW_5627908
00000981 01             4033 	.byte	1
00000982 00             4034 	.byte	0
00000983 0503           4035 	.byte	5,3
00000985 00000000*      4036 	.word	_pCategoryRamBlock
                        4037 

                                                                      Page 88
                                                              C:\Users\nhuliyap\AppData\Local\Temp\gh_0000d8g1.s
                        4038 .LDW_563f6b8:
00000989 04             4039 	.byte	4
0000098a 526f6d5f4e76   4040 	.strz	"Rom_NvMBlock_CAT01"
00000990 4d426c6f636b 
00000996 5f4341543031 
0000099c 00 
0000099d 50             4041 	.byte	80
0000099e 0e             4042 	.byte	14
0000099f 01             4043 	.byte	1
000009a0 00000000*      4044 	.word	.LDW_5627a18
000009a4 01             4045 	.byte	1
000009a5 00             4046 	.byte	0
000009a6 0503           4047 	.byte	5,3
000009a8 00000000*      4048 	.word	_Rom_NvMBlock_CAT01
                        4049 
                        4050 .LDW_563f240:
000009ac 04             4051 	.byte	4
000009ad 526f6d5f4e76   4052 	.strz	"Rom_NvMBlock_CAT02"
000009b3 4d426c6f636b 
000009b9 5f4341543032 
000009bf 00 
000009c0 51             4053 	.byte	81
000009c1 0e             4054 	.byte	14
000009c2 01             4055 	.byte	1
000009c3 00000000*      4056 	.word	.LDW_5627dd0
000009c7 01             4057 	.byte	1
000009c8 00             4058 	.byte	0
000009c9 0503           4059 	.byte	5,3
000009cb 00000000*      4060 	.word	_Rom_NvMBlock_CAT02
                        4061 
                        4062 .LDW_563f138:
000009cf 04             4063 	.byte	4
000009d0 526f6d5f4e76   4064 	.strz	"Rom_NvMBlock_CAT03"
000009d6 4d426c6f636b 
000009dc 5f4341543033 
000009e2 00 
000009e3 52             4065 	.byte	82
000009e4 0e             4066 	.byte	14
000009e5 01             4067 	.byte	1
000009e6 00000000*      4068 	.word	.LDW_5627e58
000009ea 01             4069 	.byte	1
000009eb 00             4070 	.byte	0
000009ec 0503           4071 	.byte	5,3
000009ee 00000000*      4072 	.word	_Rom_NvMBlock_CAT03
                        4073 
                        4074 .LDW_563f818:
000009f2 04             4075 	.byte	4
000009f3 526f6d5f4e76   4076 	.strz	"Rom_NvMBlock_CAT04"
000009f9 4d426c6f636b 
000009ff 5f4341543034 
00000a05 00 
00000a06 53             4077 	.byte	83
00000a07 0e             4078 	.byte	14
00000a08 01             4079 	.byte	1
00000a09 00000000*      4080 	.word	.LDW_5646d08
00000a0d 01             4081 	.byte	1
00000a0e 00             4082 	.byte	0
00000a0f 0503           4083 	.byte	5,3
00000a11 00000000*      4084 	.word	_Rom_NvMBlock_CAT04
                        4085 
                        4086 .LDW_563f4a8:

                                                                      Page 89
                                                              C:\Users\nhuliyap\AppData\Local\Temp\gh_0000d8g1.s
00000a15 04             4087 	.byte	4
00000a16 526f6d5f4e76   4088 	.strz	"Rom_NvMBlock_CAT05"
00000a1c 4d426c6f636b 
00000a22 5f4341543035 
00000a28 00 
00000a29 54             4089 	.byte	84
00000a2a 0e             4090 	.byte	14
00000a2b 01             4091 	.byte	1
00000a2c 00000000*      4092 	.word	.LDW_56461e0
00000a30 01             4093 	.byte	1
00000a31 00             4094 	.byte	0
00000a32 0503           4095 	.byte	5,3
00000a34 00000000*      4096 	.word	_Rom_NvMBlock_CAT05
                        4097 
                        4098 .LDW_563f450:
00000a38 04             4099 	.byte	4
00000a39 526f6d5f4e76   4100 	.strz	"Rom_NvMBlock_CAT06"
00000a3f 4d426c6f636b 
00000a45 5f4341543036 
00000a4b 00 
00000a4c 55             4101 	.byte	85
00000a4d 0e             4102 	.byte	14
00000a4e 01             4103 	.byte	1
00000a4f 00000000*      4104 	.word	.LDW_56468c8
00000a53 01             4105 	.byte	1
00000a54 00             4106 	.byte	0
00000a55 0503           4107 	.byte	5,3
00000a57 00000000*      4108 	.word	_Rom_NvMBlock_CAT06
                        4109 
                        4110 .LDW_563f768:
00000a5b 04             4111 	.byte	4
00000a5c 526f6d5f4e76   4112 	.strz	"Rom_NvMBlock_CAT07"
00000a62 4d426c6f636b 
00000a68 5f4341543037 
00000a6e 00 
00000a6f 56             4113 	.byte	86
00000a70 0e             4114 	.byte	14
00000a71 01             4115 	.byte	1
00000a72 00000000*      4116 	.word	.LDW_5646268
00000a76 01             4117 	.byte	1
00000a77 00             4118 	.byte	0
00000a78 0503           4119 	.byte	5,3
00000a7a 00000000*      4120 	.word	_Rom_NvMBlock_CAT07
                        4121 
                        4122 .LDW_563ef28:
00000a7e 04             4123 	.byte	4
00000a7f 526f6d5f4e76   4124 	.strz	"Rom_NvMBlock_CAT08"
00000a85 4d426c6f636b 
00000a8b 5f4341543038 
00000a91 00 
00000a92 57             4125 	.byte	87
00000a93 0e             4126 	.byte	14
00000a94 01             4127 	.byte	1
00000a95 00000000*      4128 	.word	.LDW_5646620
00000a99 01             4129 	.byte	1
00000a9a 00             4130 	.byte	0
00000a9b 0503           4131 	.byte	5,3
00000a9d 00000000*      4132 	.word	_Rom_NvMBlock_CAT08
                        4133 
                        4134 .LDW_563f3f8:
00000aa1 04             4135 	.byte	4

                                                                      Page 90
                                                              C:\Users\nhuliyap\AppData\Local\Temp\gh_0000d8g1.s
00000aa2 526f6d5f4e76   4136 	.strz	"Rom_NvMBlock_CAT09"
00000aa8 4d426c6f636b 
00000aae 5f4341543039 
00000ab4 00 
00000ab5 58             4137 	.byte	88
00000ab6 0e             4138 	.byte	14
00000ab7 01             4139 	.byte	1
00000ab8 00000000*      4140 	.word	.LDW_5646598
00000abc 01             4141 	.byte	1
00000abd 00             4142 	.byte	0
00000abe 0503           4143 	.byte	5,3
00000ac0 00000000*      4144 	.word	_Rom_NvMBlock_CAT09
                        4145 
                        4146 .LDW_563eed0:
00000ac4 04             4147 	.byte	4
00000ac5 526f6d5f4e76   4148 	.strz	"Rom_NvMBlock_CAT10"
00000acb 4d426c6f636b 
00000ad1 5f4341543130 
00000ad7 00 
00000ad8 59             4149 	.byte	89
00000ad9 0e             4150 	.byte	14
00000ada 01             4151 	.byte	1
00000adb 00000000*      4152 	.word	.LDW_56466a8
00000adf 01             4153 	.byte	1
00000ae0 00             4154 	.byte	0
00000ae1 0503           4155 	.byte	5,3
00000ae3 00000000*      4156 	.word	_Rom_NvMBlock_CAT10
                        4157 
                        4158 .LDW_563edc8:
00000ae7 04             4159 	.byte	4
00000ae8 526f6d5f4e76   4160 	.strz	"Rom_NvMBlock_DemNvm_IdEvStatusByte"
00000aee 4d426c6f636b 
00000af4 5f44656d4e76 
00000afa 6d5f49644576 
00000b00 537461747573 
00000b06 4279746500 
00000b0b 5a             4161 	.byte	90
00000b0c 0e             4162 	.byte	14
00000b0d 01             4163 	.byte	1
00000b0e 00000000*      4164 	.word	.LDW_5646488
00000b12 01             4165 	.byte	1
00000b13 00             4166 	.byte	0
00000b14 0503           4167 	.byte	5,3
00000b16 00000000*      4168 	.word	_Rom_NvMBlock_DemNvm_IdEvStatusByte
                        4169 
                        4170 .LDW_563f190:
00000b1a 04             4171 	.byte	4
00000b1b 526f6d5f4e76   4172 	.strz	"Rom_NvMBlock_DemNvm_IdEvMemLoc0"
00000b21 4d426c6f636b 
00000b27 5f44656d4e76 
00000b2d 6d5f49644576 
00000b33 4d656d4c6f63 
00000b39 3000 
00000b3b 5b             4173 	.byte	91
00000b3c 0e             4174 	.byte	14
00000b3d 01             4175 	.byte	1
00000b3e 00000000*      4176 	.word	.LDW_5646b70
00000b42 01             4177 	.byte	1
00000b43 00             4178 	.byte	0
00000b44 0503           4179 	.byte	5,3
00000b46 00000000*      4180 	.word	_Rom_NvMBlock_DemNvm_IdEvMemLoc0

                                                                      Page 91
                                                              C:\Users\nhuliyap\AppData\Local\Temp\gh_0000d8g1.s
                        4181 
                        4182 .LDW_563ed70:
00000b4a 04             4183 	.byte	4
00000b4b 526f6d5f4e76   4184 	.strz	"Rom_NvMBlock_DemNvm_IdEvMemLoc1"
00000b51 4d426c6f636b 
00000b57 5f44656d4e76 
00000b5d 6d5f49644576 
00000b63 4d656d4c6f63 
00000b69 3100 
00000b6b 5c             4185 	.byte	92
00000b6c 0e             4186 	.byte	14
00000b6d 01             4187 	.byte	1
00000b6e 00000000*      4188 	.word	.LDW_5646950
00000b72 01             4189 	.byte	1
00000b73 00             4190 	.byte	0
00000b74 0503           4191 	.byte	5,3
00000b76 00000000*      4192 	.word	_Rom_NvMBlock_DemNvm_IdEvMemLoc1
                        4193 
                        4194 .LDW_563ee20:
00000b7a 04             4195 	.byte	4
00000b7b 526f6d5f4e76   4196 	.strz	"Rom_NvMBlock_DemNvm_IdEvMemLoc2"
00000b81 4d426c6f636b 
00000b87 5f44656d4e76 
00000b8d 6d5f49644576 
00000b93 4d656d4c6f63 
00000b99 3200 
00000b9b 5d             4197 	.byte	93
00000b9c 0e             4198 	.byte	14
00000b9d 01             4199 	.byte	1
00000b9e 00000000*      4200 	.word	.LDW_56462f0
00000ba2 01             4201 	.byte	1
00000ba3 00             4202 	.byte	0
00000ba4 0503           4203 	.byte	5,3
00000ba6 00000000*      4204 	.word	_Rom_NvMBlock_DemNvm_IdEvMemLoc2
                        4205 
                        4206 .LDW_563ef80:
00000baa 04             4207 	.byte	4
00000bab 526f6d5f4e76   4208 	.strz	"Rom_NvMBlock_DemNvm_IdEvMemLoc3"
00000bb1 4d426c6f636b 
00000bb7 5f44656d4e76 
00000bbd 6d5f49644576 
00000bc3 4d656d4c6f63 
00000bc9 3300 
00000bcb 5e             4209 	.byte	94
00000bcc 0e             4210 	.byte	14
00000bcd 01             4211 	.byte	1
00000bce 00000000*      4212 	.word	.LDW_5646378
00000bd2 01             4213 	.byte	1
00000bd3 00             4214 	.byte	0
00000bd4 0503           4215 	.byte	5,3
00000bd6 00000000*      4216 	.word	_Rom_NvMBlock_DemNvm_IdEvMemLoc3
                        4217 
                        4218 .LDW_563f710:
00000bda 04             4219 	.byte	4
00000bdb 526f6d5f4e76   4220 	.strz	"Rom_NvMBlock_DemNvm_IdEvMemLoc4"
00000be1 4d426c6f636b 
00000be7 5f44656d4e76 
00000bed 6d5f49644576 
00000bf3 4d656d4c6f63 
00000bf9 3400 
00000bfb 5f             4221 	.byte	95

                                                                      Page 92
                                                              C:\Users\nhuliyap\AppData\Local\Temp\gh_0000d8g1.s
00000bfc 0e             4222 	.byte	14
00000bfd 01             4223 	.byte	1
00000bfe 00000000*      4224 	.word	.LDW_5646d90
00000c02 01             4225 	.byte	1
00000c03 00             4226 	.byte	0
00000c04 0503           4227 	.byte	5,3
00000c06 00000000*      4228 	.word	_Rom_NvMBlock_DemNvm_IdEvMemLoc4
                        4229 
                        4230 .LDW_563f7c0:
00000c0a 04             4231 	.byte	4
00000c0b 526f6d5f4e76   4232 	.strz	"Rom_NvMBlock_DemNvm_IdEvMemLoc5"
00000c11 4d426c6f636b 
00000c17 5f44656d4e76 
00000c1d 6d5f49644576 
00000c23 4d656d4c6f63 
00000c29 3500 
00000c2b 60             4233 	.byte	96
00000c2c 0e             4234 	.byte	14
00000c2d 01             4235 	.byte	1
00000c2e 00000000*      4236 	.word	.LDW_56470c0
00000c32 01             4237 	.byte	1
00000c33 00             4238 	.byte	0
00000c34 0503           4239 	.byte	5,3
00000c36 00000000*      4240 	.word	_Rom_NvMBlock_DemNvm_IdEvMemLoc5
                        4241 
                        4242 .LDW_563ee78:
00000c3a 04             4243 	.byte	4
00000c3b 526f6d5f4e76   4244 	.strz	"Rom_NvMBlock_DemNvm_IdEvMemLoc6"
00000c41 4d426c6f636b 
00000c47 5f44656d4e76 
00000c4d 6d5f49644576 
00000c53 4d656d4c6f63 
00000c59 3600 
00000c5b 61             4245 	.byte	97
00000c5c 0e             4246 	.byte	14
00000c5d 01             4247 	.byte	1
00000c5e 00000000*      4248 	.word	.LDW_5646a60
00000c62 01             4249 	.byte	1
00000c63 00             4250 	.byte	0
00000c64 0503           4251 	.byte	5,3
00000c66 00000000*      4252 	.word	_Rom_NvMBlock_DemNvm_IdEvMemLoc6
                        4253 
                        4254 .LDW_563efd8:
00000c6a 04             4255 	.byte	4
00000c6b 526f6d5f4e76   4256 	.strz	"Rom_NvMBlock_DemNvm_IdEvMemLoc7"
00000c71 4d426c6f636b 
00000c77 5f44656d4e76 
00000c7d 6d5f49644576 
00000c83 4d656d4c6f63 
00000c89 3700 
00000c8b 62             4257 	.byte	98
00000c8c 0e             4258 	.byte	14
00000c8d 01             4259 	.byte	1
00000c8e 00000000*      4260 	.word	.LDW_5646ae8
00000c92 01             4261 	.byte	1
00000c93 00             4262 	.byte	0
00000c94 0503           4263 	.byte	5,3
00000c96 00000000*      4264 	.word	_Rom_NvMBlock_DemNvm_IdEvMemLoc7
                        4265 
                        4266 .LDW_563f608:
00000c9a 04             4267 	.byte	4

                                                                      Page 93
                                                              C:\Users\nhuliyap\AppData\Local\Temp\gh_0000d8g1.s
00000c9b 526f6d5f4e76   4268 	.strz	"Rom_NvMBlock_DemNvm_IdEvMemLoc8"
00000ca1 4d426c6f636b 
00000ca7 5f44656d4e76 
00000cad 6d5f49644576 
00000cb3 4d656d4c6f63 
00000cb9 3800 
00000cbb 63             4269 	.byte	99
00000cbc 0e             4270 	.byte	14
00000cbd 01             4271 	.byte	1
00000cbe 00000000*      4272 	.word	.LDW_5646fb0
00000cc2 01             4273 	.byte	1
00000cc3 00             4274 	.byte	0
00000cc4 0503           4275 	.byte	5,3
00000cc6 00000000*      4276 	.word	_Rom_NvMBlock_DemNvm_IdEvMemLoc8
                        4277 
                        4278 .LDW_563f298:
00000cca 04             4279 	.byte	4
00000ccb 526f6d5f4e76   4280 	.strz	"Rom_NvMBlock_DemNvm_IdEvMemLoc9"
00000cd1 4d426c6f636b 
00000cd7 5f44656d4e76 
00000cdd 6d5f49644576 
00000ce3 4d656d4c6f63 
00000ce9 3900 
00000ceb 64             4281 	.byte	100
00000cec 0e             4282 	.byte	14
00000ced 01             4283 	.byte	1
00000cee 00000000*      4284 	.word	.LDW_5646bf8
00000cf2 01             4285 	.byte	1
00000cf3 00             4286 	.byte	0
00000cf4 0503           4287 	.byte	5,3
00000cf6 00000000*      4288 	.word	_Rom_NvMBlock_DemNvm_IdEvMemLoc9
                        4289 
                        4290 .LDW_563f030:
00000cfa 04             4291 	.byte	4
00000cfb 526f6d5f4e76   4292 	.strz	"Rom_NvMBlock_DemNvm_IdDemGenericNvData"
00000d01 4d426c6f636b 
00000d07 5f44656d4e76 
00000d0d 6d5f49644465 
00000d13 6d47656e6572 
00000d19 69634e764461 
00000d1f 746100 
00000d22 65             4293 	.byte	101
00000d23 0e             4294 	.byte	14
00000d24 01             4295 	.byte	1
00000d25 00000000*      4296 	.word	.LDW_56469d8
00000d29 01             4297 	.byte	1
00000d2a 00             4298 	.byte	0
00000d2b 0503           4299 	.byte	5,3
00000d2d 00000000*      4300 	.word	_Rom_NvMBlock_DemNvm_IdDemGenericNvData
                        4301 
                        4302 .LDW_563f088:
00000d31 04             4303 	.byte	4
00000d32 526f6d5f4543   4304 	.strz	"Rom_ECUM_CFG_NVM_BLOCK"
00000d38 554d5f434647 
00000d3e 5f4e564d5f42 
00000d44 4c4f434b00 
00000d49 66             4305 	.byte	102
00000d4a 0e             4306 	.byte	14
00000d4b 01             4307 	.byte	1
00000d4c 00000000*      4308 	.word	.LDW_5646e18
00000d50 01             4309 	.byte	1

                                                                      Page 94
                                                              C:\Users\nhuliyap\AppData\Local\Temp\gh_0000d8g1.s
00000d51 00             4310 	.byte	0
00000d52 0503           4311 	.byte	5,3
00000d54 00000000*      4312 	.word	_Rom_ECUM_CFG_NVM_BLOCK
                        4313 
                        4314 .LDW_563f0e0:
00000d58 04             4315 	.byte	4
00000d59 526f6d5f4e76   4316 	.strz	"Rom_NvMBlock_BSW_Data"
00000d5f 4d426c6f636b 
00000d65 5f4253575f44 
00000d6b 61746100 
00000d6f 67             4317 	.byte	103
00000d70 0e             4318 	.byte	14
00000d71 01             4319 	.byte	1
00000d72 00000000*      4320 	.word	.LDW_5647038
00000d76 01             4321 	.byte	1
00000d77 00             4322 	.byte	0
00000d78 0503           4323 	.byte	5,3
00000d7a 00000000*      4324 	.word	_Rom_NvMBlock_BSW_Data
                        4325 
                        4326 .LDW_563f2f0:
00000d7e 04             4327 	.byte	4
00000d7f 756c43757272   4328 	.strz	"ulCurrentNvmConsistence"
00000d85 656e744e766d 
00000d8b 436f6e736973 
00000d91 74656e636500 
00000d97 69             4329 	.byte	105
00000d98 0f             4330 	.byte	15
00000d99 01             4331 	.byte	1
00000d9a 00000000*      4332 	.word	.LDW_1899038
00000d9e 00             4333 	.byte	0
00000d9f 00             4334 	.byte	0
00000da0 0503           4335 	.byte	5,3
00000da2 00000000*      4336 	.word	_ulCurrentNvmConsistence..C.3A.5C_ECU2.5CECU_Rivian_A1.5CTarget.5Crepo_projects.5CpRealEcu.5CcR_LATEST.5Cmake.5Coutput.5Cobjects.5CRte_NvM_Type.
                        4337 
                        4338 .LDW_563f348:
00000da6 04             4339 	.byte	4
00000da7 75634e764d43   4340 	.strz	"ucNvMCatSizeCum"
00000dad 617453697a65 
00000db3 43756d00 
00000db7 6e             4341 	.byte	110
00000db8 0e             4342 	.byte	14
00000db9 01             4343 	.byte	1
00000dba 00000000*      4344 	.word	.LDW_5647148
00000dbe 00             4345 	.byte	0
00000dbf 00             4346 	.byte	0
00000dc0 0503           4347 	.byte	5,3
00000dc2 00000000*      4348 	.word	_ucNvMCatSizeCum..C.3A.5C_ECU2.5CECU_Rivian_A1.5CTarget.5Crepo_projects.5CpRealEcu.5CcR_LATEST.5Cmake.5Coutput.5Cobjects.5CRte_NvM_Type.
                        4349 
                        4350 .LDW_5649338:
00000dc6 15             4351 	.byte	21
00000dc7 4665655f3330   4352 	.strz	"Fee_30_SmallSector_Init"
00000dcd 5f536d616c6c 
00000dd3 536563746f72 
00000dd9 5f496e697400 
00000ddf 46             4353 	.byte	70
00000de0 2c             4354 	.byte	44
00000de1 18             4355 	.byte	24
00000de2 01             4356 	.byte	1
00000de3 00             4357 	.byte	0
00000de4 01             4358 	.byte	1
00000de5 01             4359 	.byte	1

                                                                      Page 95
                                                              C:\Users\nhuliyap\AppData\Local\Temp\gh_0000d8g1.s
00000de6 00             4360 	.byte	0
00000de7 01             4361 	.byte	1
                        4362 
                        4363 	.section	.debug_abbrev
000000f1 15             4364 	.byte	21
000000f2 2e             4365 	.byte	46
000000f3 01             4366 	.byte	1
000000f4 0308           4367 	.byte	3,8
000000f6 3b0f           4368 	.byte	59,15
000000f8 390f           4369 	.byte	57,15
000000fa 3a0f           4370 	.byte	58,15
000000fc 3c0c           4371 	.byte	60,12
000000fe 200b           4372 	.byte	32,11
00000100 3f0c           4373 	.byte	63,12
00000102 320b           4374 	.byte	50,11
00000104 4c0b           4375 	.byte	76,11
00000106 270c           4376 	.byte	39,12
00000108 0000           4377 	.byte	0,0
                        4378 
                        4379 	.section	.debug_info
00000de8 00             4380 	.byte	0
                        4381 
                        4382 .LDW_564a0e0:
00000de9 15             4383 	.byte	21
00000dea 4665655f3330   4384 	.strz	"Fee_30_SmallSector_MainFunction"
00000df0 5f536d616c6c 
00000df6 536563746f72 
00000dfc 5f4d61696e46 
00000e02 756e6374696f 
00000e08 6e00 
00000e0a 54             4385 	.byte	84
00000e0b 2c             4386 	.byte	44
00000e0c 18             4387 	.byte	24
00000e0d 01             4388 	.byte	1
00000e0e 00             4389 	.byte	0
00000e0f 01             4390 	.byte	1
00000e10 01             4391 	.byte	1
00000e11 00             4392 	.byte	0
00000e12 01             4393 	.byte	1
                        4394 
00000e13 00             4395 	.byte	0
                        4396 
                        4397 .LDW_564a048:
00000e14 15             4398 	.byte	21
00000e15 466c735f496e   4399 	.strz	"Fls_Init"
00000e1b 697400 
00000e1e 4c             4400 	.byte	76
00000e1f 24             4401 	.byte	36
00000e20 1c             4402 	.byte	28
00000e21 01             4403 	.byte	1
00000e22 00             4404 	.byte	0
00000e23 01             4405 	.byte	1
00000e24 01             4406 	.byte	1
00000e25 00             4407 	.byte	0
00000e26 01             4408 	.byte	1
                        4409 
00000e27 00             4410 	.byte	0
                        4411 
                        4412 .LDW_564a210:
00000e28 15             4413 	.byte	21
00000e29 466c735f4d61   4414 	.strz	"Fls_MainFunction"

                                                                      Page 96
                                                              C:\Users\nhuliyap\AppData\Local\Temp\gh_0000d8g1.s
00000e2f 696e46756e63 
00000e35 74696f6e00 
00000e3a 62             4415 	.byte	98
00000e3b 24             4416 	.byte	36
00000e3c 1c             4417 	.byte	28
00000e3d 01             4418 	.byte	1
00000e3e 00             4419 	.byte	0
00000e3f 01             4420 	.byte	1
00000e40 01             4421 	.byte	1
00000e41 00             4422 	.byte	0
00000e42 01             4423 	.byte	1
                        4424 
00000e43 00             4425 	.byte	0
                        4426 
                        4427 .LDW_5649760:
00000e44 15             4428 	.byte	21
00000e45 4e764d5f496e   4429 	.strz	"NvM_Init"
00000e4b 697400 
00000e4e 24             4430 	.byte	36
00000e4f 24             4431 	.byte	36
00000e50 23             4432 	.byte	35
00000e51 01             4433 	.byte	1
00000e52 00             4434 	.byte	0
00000e53 01             4435 	.byte	1
00000e54 01             4436 	.byte	1
00000e55 00             4437 	.byte	0
00000e56 01             4438 	.byte	1
                        4439 
00000e57 00             4440 	.byte	0
                        4441 
                        4442 .LDW_5649e80:
00000e58 16             4443 	.byte	22
00000e59 4e764d5f4765   4444 	.strz	"NvM_GetErrorStatus"
00000e5f 744572726f72 
00000e65 537461747573 
00000e6b 00 
00000e6c 3b             4445 	.byte	59
00000e6d 2e             4446 	.byte	46
00000e6e 23             4447 	.byte	35
00000e6f 00000000*      4448 	.word	.LDW_54d54e0
00000e73 01             4449 	.byte	1
00000e74 00             4450 	.byte	0
00000e75 01             4451 	.byte	1
00000e76 01             4452 	.byte	1
00000e77 00             4453 	.byte	0
00000e78 01             4454 	.byte	1
                        4455 
                        4456 	.section	.debug_abbrev
0000010a 16             4457 	.byte	22
0000010b 2e             4458 	.byte	46
0000010c 01             4459 	.byte	1
0000010d 0308           4460 	.byte	3,8
0000010f 3b0f           4461 	.byte	59,15
00000111 390f           4462 	.byte	57,15
00000113 3a0f           4463 	.byte	58,15
00000115 4910           4464 	.byte	73,16
00000117 3c0c           4465 	.byte	60,12
00000119 200b           4466 	.byte	32,11
0000011b 3f0c           4467 	.byte	63,12
0000011d 320b           4468 	.byte	50,11
0000011f 4c0b           4469 	.byte	76,11

                                                                      Page 97
                                                              C:\Users\nhuliyap\AppData\Local\Temp\gh_0000d8g1.s
00000121 270c           4470 	.byte	39,12
00000123 0000           4471 	.byte	0,0
                        4472 
                        4473 	.section	.debug_info
00000e79 00             4474 	.byte	0
                        4475 
                        4476 .LDW_56497f8:
00000e7a 16             4477 	.byte	22
00000e7b 4e764d5f5365   4478 	.strz	"NvM_SetRamBlockStatus"
00000e81 7452616d426c 
00000e87 6f636b537461 
00000e8d 74757300 
00000e91 4b             4479 	.byte	75
00000e92 2e             4480 	.byte	46
00000e93 23             4481 	.byte	35
00000e94 00000000*      4482 	.word	.LDW_54d54e0
00000e98 01             4483 	.byte	1
00000e99 00             4484 	.byte	0
00000e9a 01             4485 	.byte	1
00000e9b 01             4486 	.byte	1
00000e9c 00             4487 	.byte	0
00000e9d 01             4488 	.byte	1
                        4489 
00000e9e 00             4490 	.byte	0
                        4491 
                        4492 .LDW_564a5a0:
00000e9f 16             4493 	.byte	22
00000ea0 4e764d5f5772   4494 	.strz	"NvM_WriteBlock"
00000ea6 697465426c6f 
00000eac 636b00 
00000eaf 5a             4495 	.byte	90
00000eb0 2e             4496 	.byte	46
00000eb1 23             4497 	.byte	35
00000eb2 00000000*      4498 	.word	.LDW_54d54e0
00000eb6 01             4499 	.byte	1
00000eb7 00             4500 	.byte	0
00000eb8 01             4501 	.byte	1
00000eb9 01             4502 	.byte	1
00000eba 00             4503 	.byte	0
00000ebb 01             4504 	.byte	1
                        4505 
00000ebc 00             4506 	.byte	0
                        4507 
                        4508 .LDW_564b8a0:
00000ebd 15             4509 	.byte	21
00000ebe 4e764d5f5265   4510 	.strz	"NvM_ReadAll"
00000ec4 6164416c6c00 
00000eca 7c             4511 	.byte	124
00000ecb 24             4512 	.byte	36
00000ecc 23             4513 	.byte	35
00000ecd 01             4514 	.byte	1
00000ece 00             4515 	.byte	0
00000ecf 01             4516 	.byte	1
00000ed0 01             4517 	.byte	1
00000ed1 00             4518 	.byte	0
00000ed2 01             4519 	.byte	1
                        4520 
00000ed3 00             4521 	.byte	0
                        4522 
                        4523 .LDW_564b180:
00000ed4 15             4524 	.byte	21

                                                                      Page 98
                                                              C:\Users\nhuliyap\AppData\Local\Temp\gh_0000d8g1.s
00000ed5 4e764d5f5772   4525 	.strz	"NvM_WriteAll"
00000edb 697465416c6c 
00000ee1 00 
00000ee2 7e             4526 	.byte	126
00000ee3 24             4527 	.byte	36
00000ee4 23             4528 	.byte	35
00000ee5 01             4529 	.byte	1
00000ee6 00             4530 	.byte	0
00000ee7 01             4531 	.byte	1
00000ee8 01             4532 	.byte	1
00000ee9 00             4533 	.byte	0
00000eea 01             4534 	.byte	1
                        4535 
00000eeb 00             4536 	.byte	0
                        4537 
                        4538 .LDW_564ae88:
00000eec 15             4539 	.byte	21
00000eed 4e764d5f4d61   4540 	.strz	"NvM_MainFunction"
00000ef3 696e46756e63 
00000ef9 74696f6e00 
00000efe 8c01           4541 	.byte	140,1
00000f00 24             4542 	.byte	36
00000f01 23             4543 	.byte	35
00000f02 01             4544 	.byte	1
00000f03 00             4545 	.byte	0
00000f04 01             4546 	.byte	1
00000f05 01             4547 	.byte	1
00000f06 00             4548 	.byte	0
00000f07 01             4549 	.byte	1
                        4550 
00000f08 00             4551 	.byte	0
                        4552 
                        4553 .LDW_5541970:
00000f09 14             4554 	.byte	20
00000f0a 4d656d737461   4555 	.strz	"Memstack_GetNvmCatFromHufBlockNumber"
00000f10 636b5f476574 
00000f16 4e766d436174 
00000f1c 46726f6d4875 
00000f22 66426c6f636b 
00000f28 4e756d626572 
00000f2e 00 
00000f2f 7a             4556 	.byte	122
00000f30 0e             4557 	.byte	14
00000f31 01             4558 	.byte	1
00000f32 00000000*      4559 	.word	.LDW_4d22d60
00000f36 00000000*      4560 	.word	_Memstack_GetNvmCatFromHufBlockNumber
00000f3a 00000000*      4561 	.word	___ghs_eofn_Memstack_GetNvmCatFromHufBlockNumber
00000f3e 0153           4562 	.byte	1,83
00000f40 02             4563 	.byte	2
00000f41 00             4564 	.byte	0
00000f42 02             4565 	.byte	2
00000f43 00             4566 	.byte	0
00000f44 00             4567 	.byte	0
00000f45 00             4568 	.byte	0
00000f46 00             4569 	.byte	0
00000f47 01             4570 	.byte	1
00000f48 01             4571 	.byte	1
00000f49 00             4572 	.byte	0
00000f4a 01             4573 	.byte	1
                        4574 
                        4575 	.section	.debug_abbrev

                                                                      Page 99
                                                              C:\Users\nhuliyap\AppData\Local\Temp\gh_0000d8g1.s
00000125 14             4576 	.byte	20
00000126 2e             4577 	.byte	46
00000127 01             4578 	.byte	1
00000128 0308           4579 	.byte	3,8
0000012a 3b0f           4580 	.byte	59,15
0000012c 390f           4581 	.byte	57,15
0000012e 3a0f           4582 	.byte	58,15
00000130 4910           4583 	.byte	73,16
00000132 1101           4584 	.byte	17,1
00000134 1201           4585 	.byte	18,1
00000136 400a           4586 	.byte	64,10
00000138 8341           4587 	.byte	131,65
0000013a 0f             4588 	.byte	15
0000013b 8741           4589 	.byte	135,65
0000013d 0d             4590 	.byte	13
0000013e 8541           4591 	.byte	133,65
00000140 0f             4592 	.byte	15
00000141 8641           4593 	.byte	134,65
00000143 0d             4594 	.byte	13
00000144 9241           4595 	.byte	146,65
00000146 0f             4596 	.byte	15
00000147 3c0c           4597 	.byte	60,12
00000149 200b           4598 	.byte	32,11
0000014b 3f0c           4599 	.byte	63,12
0000014d 320b           4600 	.byte	50,11
0000014f 4c0b           4601 	.byte	76,11
00000151 270c           4602 	.byte	39,12
00000153 0000           4603 	.byte	0,0
                        4604 
                        4605 	.section	.debug_frame
                        4606 .LDW_55e5018:
00000090 00000000*      4607 	.word	.LDW_unq_4-.LDW_unq_3
                        4608 .LDW_unq_3:
00000094 00000000*      4609 	.word	.LDW_54e7820
00000098 00000000*      4610 	.word	_Memstack_GetNvmCatFromHufBlockNumber
0000009c 00000000*      4611 	.word	___ghs_eofn_Memstack_GetNvmCatFromHufBlockNumber-_Memstack_GetNvmCatFromHufBlockNumber
000000a0 01             4612 	.byte	1
000000a1 00000000*      4613 	.word	.LDW11
000000a5 00             4614 	.byte	0
000000a6 00             4615 	.byte	0
000000a7 00             4616 	.byte	0
                        4617 .LDW_unq_4:
                        4618 	.section	.debug_line
0000142b 000502         4619 	.byte	0,5,2
0000142e 00000000*      4620 	.word	_Memstack_GetNvmCatFromHufBlockNumber
00001432 03             4621 	.byte	3
00001433 fa00           4622 	.byte	250,0
00001435 02             4623 	.byte	2
00001436 00             4624 	.byte	0
00001437 01             4625 	.byte	1
00001438 06             4626 	.byte	6
00001439 13             4627 	.byte	19
0000143a 14             4628 	.byte	20
0000143b 000502         4629 	.byte	0,5,2
0000143e 00000000*      4630 	.word	.LDWlin1
00001442 0c             4631 	.byte	12
00001443 03             4632 	.byte	3
00001444 7e             4633 	.byte	126
00001445 02             4634 	.byte	2
00001446 04             4635 	.byte	4
00001447 01             4636 	.byte	1

                                                                      Page 100
                                                              C:\Users\nhuliyap\AppData\Local\Temp\gh_0000d8g1.s
00001448 000502         4637 	.byte	0,5,2
0000144b 00000000*      4638 	.word	.LDWlin2
0000144f 0d             4639 	.byte	13
00001450 0c             4640 	.byte	12
00001451 02             4641 	.byte	2
00001452 02             4642 	.byte	2
00001453 000101         4643 	.byte	0,1,1
                        4644 	.section	.debug_info
                        4645 .LDW_5538a98:
00000f4b 0f             4646 	.byte	15
00000f4c 757368426c6f   4647 	.strz	"ushBlockNr"
00000f52 636b4e7200 
00000f57 7a             4648 	.byte	122
00000f58 3a             4649 	.byte	58
00000f59 01             4650 	.byte	1
00000f5a 00000000*      4651 	.word	.LDW_189dd10
00000f5e 00             4652 	.byte	0
00000f5f 0156           4653 	.byte	1,86
                        4654 
                        4655 	.section	.debug_abbrev
00000155 0f             4656 	.byte	15
00000156 05             4657 	.byte	5
00000157 00             4658 	.byte	0
00000158 0308           4659 	.byte	3,8
0000015a 3b0f           4660 	.byte	59,15
0000015c 390f           4661 	.byte	57,15
0000015e 3a0f           4662 	.byte	58,15
00000160 4910           4663 	.byte	73,16
00000162 4b0c           4664 	.byte	75,12
00000164 020a           4665 	.byte	2,10
00000166 0000           4666 	.byte	0,0
                        4667 
                        4668 	.section	.debug_info
                        4669 .LDW_5525168:
00000f61 1d             4670 	.byte	29
00000f62 00000000*      4671 	.word	.LDW01
00000f66 00000000*      4672 	.word	.LDW11
                        4673 
                        4674 	.section	.debug_abbrev
00000168 1d             4675 	.byte	29
00000169 0b             4676 	.byte	11
0000016a 01             4677 	.byte	1
0000016b 1101           4678 	.byte	17,1
0000016d 1201           4679 	.byte	18,1
0000016f 0000           4680 	.byte	0,0
                        4681 
                        4682 	.section	.debug_info
                        4683 .LDW_5538af0:
00000f6a 04             4684 	.byte	4
00000f6b 6900           4685 	.strz	"i"
00000f6d 7c             4686 	.byte	124
00000f6e 09             4687 	.byte	9
00000f6f 01             4688 	.byte	1
00000f70 00000000*      4689 	.word	.LDW_4d22d60
00000f74 00             4690 	.byte	0
00000f75 00             4691 	.byte	0
00000f76 015a           4692 	.byte	1,90
                        4693 
00000f78 00             4694 	.byte	0
                        4695 
00000f79 00             4696 	.byte	0

                                                                      Page 101
                                                              C:\Users\nhuliyap\AppData\Local\Temp\gh_0000d8g1.s
                        4697 
                        4698 .LDW_5541a08:
00000f7a 14             4699 	.byte	20
00000f7b 4d656d737461   4700 	.strz	"Memstack_GetNvMRamAdress"
00000f81 636b5f476574 
00000f87 4e764d52616d 
00000f8d 416472657373 
00000f93 00 
00000f94 8601           4701 	.byte	134,1
00000f96 0f             4702 	.byte	15
00000f97 01             4703 	.byte	1
00000f98 00000000*      4704 	.word	.LDW_4d23520
00000f9c 00000000*      4705 	.word	_Memstack_GetNvMRamAdress
00000fa0 00000000*      4706 	.word	___ghs_eofn_Memstack_GetNvMRamAdress
00000fa4 0153           4707 	.byte	1,83
00000fa6 02             4708 	.byte	2
00000fa7 00             4709 	.byte	0
00000fa8 02             4710 	.byte	2
00000fa9 00             4711 	.byte	0
00000faa 00             4712 	.byte	0
00000fab 00             4713 	.byte	0
00000fac 00             4714 	.byte	0
00000fad 01             4715 	.byte	1
00000fae 01             4716 	.byte	1
00000faf 00             4717 	.byte	0
00000fb0 01             4718 	.byte	1
                        4719 
                        4720 	.section	.debug_frame
                        4721 .LDW_55e46d8:
000000a8 00000000*      4722 	.word	.LDW_unq_6-.LDW_unq_5
                        4723 .LDW_unq_5:
000000ac 00000000*      4724 	.word	.LDW_54e7820
000000b0 00000000*      4725 	.word	_Memstack_GetNvMRamAdress
000000b4 00000000*      4726 	.word	___ghs_eofn_Memstack_GetNvMRamAdress-_Memstack_GetNvMRamAdress
000000b8 01             4727 	.byte	1
000000b9 00000000*      4728 	.word	.LDW31
000000bd 00             4729 	.byte	0
000000be 00             4730 	.byte	0
000000bf 00             4731 	.byte	0
                        4732 .LDW_unq_6:
                        4733 	.section	.debug_line
00001456 000502         4734 	.byte	0,5,2
00001459 00000000*      4735 	.word	_Memstack_GetNvMRamAdress
0000145d 03             4736 	.byte	3
0000145e 8601           4737 	.byte	134,1
00001460 02             4738 	.byte	2
00001461 00             4739 	.byte	0
00001462 01             4740 	.byte	1
00001463 06             4741 	.byte	6
00001464 000502         4742 	.byte	0,5,2
00001467 00000000*      4743 	.word	.LDWlin3
0000146b 03             4744 	.byte	3
0000146c 05             4745 	.byte	5
0000146d 02             4746 	.byte	2
0000146e 00             4747 	.byte	0
0000146f 01             4748 	.byte	1
00001470 000502         4749 	.byte	0,5,2
00001473 00000000*      4750 	.word	.LDWlin4
00001477 0b             4751 	.byte	11
00001478 0b             4752 	.byte	11
00001479 000502         4753 	.byte	0,5,2

                                                                      Page 102
                                                              C:\Users\nhuliyap\AppData\Local\Temp\gh_0000d8g1.s
0000147c 00000000*      4754 	.word	.LDWlin5
00001480 0b             4755 	.byte	11
00001481 0b             4756 	.byte	11
00001482 02             4757 	.byte	2
00001483 00             4758 	.byte	0
00001484 000502         4759 	.byte	0,5,2
00001487 00000000*      4760 	.word	.LDWlin6
0000148b 0b             4761 	.byte	11
0000148c 0b             4762 	.byte	11
0000148d 000502         4763 	.byte	0,5,2
00001490 00000000*      4764 	.word	.LDWlin7
00001494 0b             4765 	.byte	11
00001495 0b             4766 	.byte	11
00001496 02             4767 	.byte	2
00001497 00             4768 	.byte	0
00001498 000502         4769 	.byte	0,5,2
0000149b 00000000*      4770 	.word	.LDWlin8
0000149f 0b             4771 	.byte	11
000014a0 0b             4772 	.byte	11
000014a1 000502         4773 	.byte	0,5,2
000014a4 00000000*      4774 	.word	.LDWlin9
000014a8 0c             4775 	.byte	12
000014a9 0b             4776 	.byte	11
000014aa 02             4777 	.byte	2
000014ab 00             4778 	.byte	0
000014ac 000502         4779 	.byte	0,5,2
000014af 00000000*      4780 	.word	.LDWlin10
000014b3 0b             4781 	.byte	11
000014b4 0b             4782 	.byte	11
000014b5 000502         4783 	.byte	0,5,2
000014b8 00000000*      4784 	.word	.LDWlin11
000014bc 0c             4785 	.byte	12
000014bd 0b             4786 	.byte	11
000014be 02             4787 	.byte	2
000014bf 00             4788 	.byte	0
000014c0 000502         4789 	.byte	0,5,2
000014c3 00000000*      4790 	.word	.LDWlin12
000014c7 0b             4791 	.byte	11
000014c8 0b             4792 	.byte	11
000014c9 000502         4793 	.byte	0,5,2
000014cc 00000000*      4794 	.word	.LDWlin13
000014d0 0b             4795 	.byte	11
000014d1 0b             4796 	.byte	11
000014d2 02             4797 	.byte	2
000014d3 00             4798 	.byte	0
000014d4 000502         4799 	.byte	0,5,2
000014d7 00000000*      4800 	.word	.LDWlin14
000014db 0b             4801 	.byte	11
000014dc 0b             4802 	.byte	11
000014dd 000502         4803 	.byte	0,5,2
000014e0 00000000*      4804 	.word	.LDWlin15
000014e4 0b             4805 	.byte	11
000014e5 0b             4806 	.byte	11
000014e6 02             4807 	.byte	2
000014e7 00             4808 	.byte	0
000014e8 000502         4809 	.byte	0,5,2
000014eb 00000000*      4810 	.word	.LDWlin16
000014ef 0b             4811 	.byte	11
000014f0 0b             4812 	.byte	11
000014f1 000502         4813 	.byte	0,5,2
000014f4 00000000*      4814 	.word	.LDWlin17

                                                                      Page 103
                                                              C:\Users\nhuliyap\AppData\Local\Temp\gh_0000d8g1.s
000014f8 0b             4815 	.byte	11
000014f9 0b             4816 	.byte	11
000014fa 02             4817 	.byte	2
000014fb 00             4818 	.byte	0
000014fc 000502         4819 	.byte	0,5,2
000014ff 00000000*      4820 	.word	.LDWlin18
00001503 0b             4821 	.byte	11
00001504 0b             4822 	.byte	11
00001505 000502         4823 	.byte	0,5,2
00001508 00000000*      4824 	.word	.LDWlin19
0000150c 0b             4825 	.byte	11
0000150d 0b             4826 	.byte	11
0000150e 02             4827 	.byte	2
0000150f 00             4828 	.byte	0
00001510 000502         4829 	.byte	0,5,2
00001513 00000000*      4830 	.word	.LDWlin20
00001517 0b             4831 	.byte	11
00001518 0b             4832 	.byte	11
00001519 000502         4833 	.byte	0,5,2
0000151c 00000000*      4834 	.word	.LDWlin21
00001520 0b             4835 	.byte	11
00001521 0b             4836 	.byte	11
00001522 02             4837 	.byte	2
00001523 00             4838 	.byte	0
00001524 000502         4839 	.byte	0,5,2
00001527 00000000*      4840 	.word	.LDWlin22
0000152b 0b             4841 	.byte	11
0000152c 0b             4842 	.byte	11
0000152d 000502         4843 	.byte	0,5,2
00001530 00000000*      4844 	.word	.LDWlin23
00001534 0b             4845 	.byte	11
00001535 0b             4846 	.byte	11
00001536 0c             4847 	.byte	12
00001537 02             4848 	.byte	2
00001538 00             4849 	.byte	0
00001539 02             4850 	.byte	2
0000153a 00             4851 	.byte	0
0000153b 02             4852 	.byte	2
0000153c 00             4853 	.byte	0
0000153d 02             4854 	.byte	2
0000153e 00             4855 	.byte	0
0000153f 02             4856 	.byte	2
00001540 00             4857 	.byte	0
00001541 02             4858 	.byte	2
00001542 00             4859 	.byte	0
00001543 02             4860 	.byte	2
00001544 00             4861 	.byte	0
00001545 02             4862 	.byte	2
00001546 00             4863 	.byte	0
00001547 02             4864 	.byte	2
00001548 00             4865 	.byte	0
00001549 02             4866 	.byte	2
0000154a 00             4867 	.byte	0
0000154b 02             4868 	.byte	2
0000154c 00             4869 	.byte	0
0000154d 02             4870 	.byte	2
0000154e 00             4871 	.byte	0
0000154f 02             4872 	.byte	2
00001550 00             4873 	.byte	0
00001551 02             4874 	.byte	2
00001552 00             4875 	.byte	0

                                                                      Page 104
                                                              C:\Users\nhuliyap\AppData\Local\Temp\gh_0000d8g1.s
00001553 02             4876 	.byte	2
00001554 00             4877 	.byte	0
00001555 02             4878 	.byte	2
00001556 00             4879 	.byte	0
00001557 02             4880 	.byte	2
00001558 00             4881 	.byte	0
00001559 02             4882 	.byte	2
0000155a 00             4883 	.byte	0
0000155b 02             4884 	.byte	2
0000155c 00             4885 	.byte	0
0000155d 0c             4886 	.byte	12
0000155e 02             4887 	.byte	2
0000155f 02             4888 	.byte	2
00001560 000101         4889 	.byte	0,1,1
                        4890 	.section	.debug_info
                        4891 .LDW_55389e8:
00000fb1 0f             4892 	.byte	15
00000fb2 757368426c6f   4893 	.strz	"ushBlockNr"
00000fb8 636b4e7200 
00000fbd 8601           4894 	.byte	134,1
00000fbf 2f             4895 	.byte	47
00000fc0 01             4896 	.byte	1
00000fc1 00000000*      4897 	.word	.LDW_189dd10
00000fc5 00             4898 	.byte	0
00000fc6 0156           4899 	.byte	1,86
                        4900 
                        4901 .LDW_5525228:
00000fc8 1d             4902 	.byte	29
00000fc9 00000000*      4903 	.word	.LDW21
00000fcd 00000000*      4904 	.word	.LDW31
                        4905 
                        4906 .LDW_55387d8:
00000fd1 04             4907 	.byte	4
00000fd2 7032426c6f63   4908 	.strz	"p2BlockAdress"
00000fd8 6b4164726573 
00000fde 7300 
00000fe0 8801           4909 	.byte	136,1
00000fe2 13             4910 	.byte	19
00000fe3 01             4911 	.byte	1
00000fe4 00000000*      4912 	.word	.LDW_1857340
00000fe8 00             4913 	.byte	0
00000fe9 00             4914 	.byte	0
00000fea 015a           4915 	.byte	1,90
                        4916 
                        4917 .LDW_5538830:
00000fec 04             4918 	.byte	4
00000fed 756c54656d70   4919 	.strz	"ulTemp"
00000ff3 00 
00000ff4 8a01           4920 	.byte	138,1
00000ff6 12             4921 	.byte	18
00000ff7 01             4922 	.byte	1
00000ff8 00000000*      4923 	.word	.LDW_5538d58
00000ffc 00             4924 	.byte	0
00000ffd 00             4925 	.byte	0
00000ffe 0163           4926 	.byte	1,99
                        4927 
00001000 00             4928 	.byte	0
                        4929 
00001001 00             4930 	.byte	0
                        4931 
                        4932 .LDW_5541ff8:

                                                                      Page 105
                                                              C:\Users\nhuliyap\AppData\Local\Temp\gh_0000d8g1.s
00001002 13             4933 	.byte	19
00001003 4d656d737461   4934 	.strz	"Memstack_SetEcuNvMRamBlockStatus"
00001009 636b5f536574 
0000100f 4563754e764d 
00001015 52616d426c6f 
0000101b 636b53746174 
00001021 757300 
00001024 bd01           4935 	.byte	189,1
00001026 0e             4936 	.byte	14
00001027 01             4937 	.byte	1
00001028 00000000*      4938 	.word	_Memstack_SetEcuNvMRamBlockStatus
0000102c 00000000*      4939 	.word	___ghs_eofn_Memstack_SetEcuNvMRamBlockStatus
00001030 0153           4940 	.byte	1,83
00001032 828080800a     4941 	.byte	130,128,128,128,10
00001037 08             4942 	.byte	8
00001038 03             4943 	.byte	3
00001039 08             4944 	.byte	8
0000103a 00             4945 	.byte	0
0000103b 00             4946 	.byte	0
0000103c 00             4947 	.byte	0
0000103d 01             4948 	.byte	1
0000103e 01             4949 	.byte	1
0000103f 00             4950 	.byte	0
00001040 01             4951 	.byte	1
                        4952 
                        4953 	.section	.debug_abbrev
00000171 13             4954 	.byte	19
00000172 2e             4955 	.byte	46
00000173 01             4956 	.byte	1
00000174 0308           4957 	.byte	3,8
00000176 3b0f           4958 	.byte	59,15
00000178 390f           4959 	.byte	57,15
0000017a 3a0f           4960 	.byte	58,15
0000017c 1101           4961 	.byte	17,1
0000017e 1201           4962 	.byte	18,1
00000180 400a           4963 	.byte	64,10
00000182 8341           4964 	.byte	131,65
00000184 0f             4965 	.byte	15
00000185 8741           4966 	.byte	135,65
00000187 0d             4967 	.byte	13
00000188 8541           4968 	.byte	133,65
0000018a 0f             4969 	.byte	15
0000018b 8641           4970 	.byte	134,65
0000018d 0d             4971 	.byte	13
0000018e 9241           4972 	.byte	146,65
00000190 0f             4973 	.byte	15
00000191 3c0c           4974 	.byte	60,12
00000193 200b           4975 	.byte	32,11
00000195 3f0c           4976 	.byte	63,12
00000197 320b           4977 	.byte	50,11
00000199 4c0b           4978 	.byte	76,11
0000019b 270c           4979 	.byte	39,12
0000019d 0000           4980 	.byte	0,0
                        4981 
                        4982 	.section	.debug_frame
                        4983 .LDW_55e4498:
000000c0 00000000*      4984 	.word	.LDW_unq_8-.LDW_unq_7
                        4985 .LDW_unq_7:
000000c4 00000000*      4986 	.word	.LDW_54e7820
000000c8 00000000*      4987 	.word	_Memstack_SetEcuNvMRamBlockStatus
000000cc 00000000*      4988 	.word	___ghs_eofn_Memstack_SetEcuNvMRamBlockStatus-_Memstack_SetEcuNvMRamBlockStatus

                                                                      Page 106
                                                              C:\Users\nhuliyap\AppData\Local\Temp\gh_0000d8g1.s
000000d0 44             4989 	.byte	68
000000d1 9f             4990 	.byte	159
000000d2 00             4991 	.byte	0
000000d3 40             4992 	.byte	64
000000d4 9d             4993 	.byte	157
000000d5 04             4994 	.byte	4
000000d6 01             4995 	.byte	1
000000d7 00000000*      4996 	.word	.LDW51
000000db 00             4997 	.byte	0
                        4998 .LDW_unq_8:
                        4999 	.section	.debug_line
00001563 000502         5000 	.byte	0,5,2
00001566 00000000*      5001 	.word	_Memstack_SetEcuNvMRamBlockStatus
0000156a 03             5002 	.byte	3
0000156b bd01           5003 	.byte	189,1
0000156d 02             5004 	.byte	2
0000156e 00             5005 	.byte	0
0000156f 01             5006 	.byte	1
00001570 06             5007 	.byte	6
00001571 000502         5008 	.byte	0,5,2
00001574 00000000*      5009 	.word	.LDWlin24
00001578 0c             5010 	.byte	12
00001579 000502         5011 	.byte	0,5,2
0000157c 00000000*      5012 	.word	.LDWlin25
00001580 0b             5013 	.byte	11
00001581 0b             5014 	.byte	11
00001582 000502         5015 	.byte	0,5,2
00001585 00000000*      5016 	.word	.LDWlin26
00001589 0b             5017 	.byte	11
0000158a 000502         5018 	.byte	0,5,2
0000158d 00000000*      5019 	.word	.LDWlin27
00001591 0b             5020 	.byte	11
00001592 0b             5021 	.byte	11
00001593 02             5022 	.byte	2
00001594 00             5023 	.byte	0
00001595 000502         5024 	.byte	0,5,2
00001598 00000000*      5025 	.word	.LDWlin28
0000159c 0b             5026 	.byte	11
0000159d 0b             5027 	.byte	11
0000159e 000502         5028 	.byte	0,5,2
000015a1 00000000*      5029 	.word	.LDWlin29
000015a5 0b             5030 	.byte	11
000015a6 000502         5031 	.byte	0,5,2
000015a9 00000000*      5032 	.word	.LDWlin30
000015ad 0b             5033 	.byte	11
000015ae 0b             5034 	.byte	11
000015af 02             5035 	.byte	2
000015b0 00             5036 	.byte	0
000015b1 000502         5037 	.byte	0,5,2
000015b4 00000000*      5038 	.word	.LDWlin31
000015b8 0b             5039 	.byte	11
000015b9 0b             5040 	.byte	11
000015ba 000502         5041 	.byte	0,5,2
000015bd 00000000*      5042 	.word	.LDWlin32
000015c1 0b             5043 	.byte	11
000015c2 000502         5044 	.byte	0,5,2
000015c5 00000000*      5045 	.word	.LDWlin33
000015c9 0b             5046 	.byte	11
000015ca 0b             5047 	.byte	11
000015cb 02             5048 	.byte	2
000015cc 00             5049 	.byte	0

                                                                      Page 107
                                                              C:\Users\nhuliyap\AppData\Local\Temp\gh_0000d8g1.s
000015cd 000502         5050 	.byte	0,5,2
000015d0 00000000*      5051 	.word	.LDWlin34
000015d4 0b             5052 	.byte	11
000015d5 0b             5053 	.byte	11
000015d6 000502         5054 	.byte	0,5,2
000015d9 00000000*      5055 	.word	.LDWlin35
000015dd 0b             5056 	.byte	11
000015de 000502         5057 	.byte	0,5,2
000015e1 00000000*      5058 	.word	.LDWlin36
000015e5 0b             5059 	.byte	11
000015e6 0b             5060 	.byte	11
000015e7 02             5061 	.byte	2
000015e8 00             5062 	.byte	0
000015e9 000502         5063 	.byte	0,5,2
000015ec 00000000*      5064 	.word	.LDWlin37
000015f0 0b             5065 	.byte	11
000015f1 0b             5066 	.byte	11
000015f2 000502         5067 	.byte	0,5,2
000015f5 00000000*      5068 	.word	.LDWlin38
000015f9 0b             5069 	.byte	11
000015fa 000502         5070 	.byte	0,5,2
000015fd 00000000*      5071 	.word	.LDWlin39
00001601 0b             5072 	.byte	11
00001602 0b             5073 	.byte	11
00001603 02             5074 	.byte	2
00001604 00             5075 	.byte	0
00001605 000502         5076 	.byte	0,5,2
00001608 00000000*      5077 	.word	.LDWlin40
0000160c 0b             5078 	.byte	11
0000160d 0b             5079 	.byte	11
0000160e 000502         5080 	.byte	0,5,2
00001611 00000000*      5081 	.word	.LDWlin41
00001615 0b             5082 	.byte	11
00001616 000502         5083 	.byte	0,5,2
00001619 00000000*      5084 	.word	.LDWlin42
0000161d 0b             5085 	.byte	11
0000161e 0b             5086 	.byte	11
0000161f 02             5087 	.byte	2
00001620 00             5088 	.byte	0
00001621 000502         5089 	.byte	0,5,2
00001624 00000000*      5090 	.word	.LDWlin43
00001628 0b             5091 	.byte	11
00001629 0b             5092 	.byte	11
0000162a 000502         5093 	.byte	0,5,2
0000162d 00000000*      5094 	.word	.LDWlin44
00001631 0b             5095 	.byte	11
00001632 000502         5096 	.byte	0,5,2
00001635 00000000*      5097 	.word	.LDWlin45
00001639 0b             5098 	.byte	11
0000163a 0b             5099 	.byte	11
0000163b 02             5100 	.byte	2
0000163c 00             5101 	.byte	0
0000163d 000502         5102 	.byte	0,5,2
00001640 00000000*      5103 	.word	.LDWlin46
00001644 0b             5104 	.byte	11
00001645 0b             5105 	.byte	11
00001646 000502         5106 	.byte	0,5,2
00001649 00000000*      5107 	.word	.LDWlin47
0000164d 0b             5108 	.byte	11
0000164e 000502         5109 	.byte	0,5,2
00001651 00000000*      5110 	.word	.LDWlin48

                                                                      Page 108
                                                              C:\Users\nhuliyap\AppData\Local\Temp\gh_0000d8g1.s
00001655 0b             5111 	.byte	11
00001656 0b             5112 	.byte	11
00001657 02             5113 	.byte	2
00001658 00             5114 	.byte	0
00001659 000502         5115 	.byte	0,5,2
0000165c 00000000*      5116 	.word	.LDWlin49
00001660 0b             5117 	.byte	11
00001661 0b             5118 	.byte	11
00001662 000502         5119 	.byte	0,5,2
00001665 00000000*      5120 	.word	.LDWlin50
00001669 0b             5121 	.byte	11
0000166a 000502         5122 	.byte	0,5,2
0000166d 00000000*      5123 	.word	.LDWlin51
00001671 0b             5124 	.byte	11
00001672 0b             5125 	.byte	11
00001673 02             5126 	.byte	2
00001674 00             5127 	.byte	0
00001675 000502         5128 	.byte	0,5,2
00001678 00000000*      5129 	.word	.LDWlin52
0000167c 0b             5130 	.byte	11
0000167d 0b             5131 	.byte	11
0000167e 000502         5132 	.byte	0,5,2
00001681 00000000*      5133 	.word	.LDWlin53
00001685 0b             5134 	.byte	11
00001686 23             5135 	.byte	35
00001687 0b             5136 	.byte	11
00001688 0b             5137 	.byte	11
00001689 02             5138 	.byte	2
0000168a 00             5139 	.byte	0
0000168b 02             5140 	.byte	2
0000168c 00             5141 	.byte	0
0000168d 02             5142 	.byte	2
0000168e 00             5143 	.byte	0
0000168f 02             5144 	.byte	2
00001690 00             5145 	.byte	0
00001691 02             5146 	.byte	2
00001692 00             5147 	.byte	0
00001693 02             5148 	.byte	2
00001694 00             5149 	.byte	0
00001695 02             5150 	.byte	2
00001696 00             5151 	.byte	0
00001697 02             5152 	.byte	2
00001698 00             5153 	.byte	0
00001699 02             5154 	.byte	2
0000169a 00             5155 	.byte	0
0000169b 02             5156 	.byte	2
0000169c 00             5157 	.byte	0
0000169d 02             5158 	.byte	2
0000169e 00             5159 	.byte	0
0000169f 02             5160 	.byte	2
000016a0 00             5161 	.byte	0
000016a1 02             5162 	.byte	2
000016a2 00             5163 	.byte	0
000016a3 02             5164 	.byte	2
000016a4 00             5165 	.byte	0
000016a5 02             5166 	.byte	2
000016a6 00             5167 	.byte	0
000016a7 02             5168 	.byte	2
000016a8 00             5169 	.byte	0
000016a9 02             5170 	.byte	2
000016aa 00             5171 	.byte	0

                                                                      Page 109
                                                              C:\Users\nhuliyap\AppData\Local\Temp\gh_0000d8g1.s
000016ab 02             5172 	.byte	2
000016ac 00             5173 	.byte	0
000016ad 02             5174 	.byte	2
000016ae 00             5175 	.byte	0
000016af 0b             5176 	.byte	11
000016b0 02             5177 	.byte	2
000016b1 04             5178 	.byte	4
000016b2 000101         5179 	.byte	0,1,1
                        5180 	.section	.debug_info
                        5181 .LDW_5538ca8:
00001041 0f             5182 	.byte	15
00001042 757368426c6f   5183 	.strz	"ushBlockNr"
00001048 636b4e7200 
0000104d bd01           5184 	.byte	189,1
0000104f 36             5185 	.byte	54
00001050 01             5186 	.byte	1
00001051 00000000*      5187 	.word	.LDW_189dd10
00001055 00             5188 	.byte	0
00001056 0156           5189 	.byte	1,86
                        5190 
                        5191 .LDW_55255e8:
00001058 1d             5192 	.byte	29
00001059 00000000*      5193 	.word	.LDW41
0000105d 00000000*      5194 	.word	.LDW51
                        5195 
00001061 00             5196 	.byte	0
                        5197 
00001062 00             5198 	.byte	0
                        5199 
                        5200 .LDW_5541aa0:
00001063 13             5201 	.byte	19
00001064 696e66537763   5202 	.strz	"infSwcServiceNvMSwcApplEcuM_InitFunction"
0000106a 536572766963 
00001070 654e764d5377 
00001076 634170706c45 
0000107c 63754d5f496e 
00001082 697446756e63 
00001088 74696f6e00 
0000108d f601           5203 	.byte	246,1
0000108f 06             5204 	.byte	6
00001090 01             5205 	.byte	1
00001091 00000000*      5206 	.word	_infSwcServiceNvMSwcApplEcuM_InitFunction
00001095 00000000*      5207 	.word	___ghs_eofn_infSwcServiceNvMSwcApplEcuM_InitFunction
00001099 0153           5208 	.byte	1,83
0000109b 8280808008     5209 	.byte	130,128,128,128,8
000010a0 04             5210 	.byte	4
000010a1 03             5211 	.byte	3
000010a2 08             5212 	.byte	8
000010a3 00             5213 	.byte	0
000010a4 00             5214 	.byte	0
000010a5 00             5215 	.byte	0
000010a6 01             5216 	.byte	1
000010a7 01             5217 	.byte	1
000010a8 00             5218 	.byte	0
000010a9 01             5219 	.byte	1
                        5220 
                        5221 	.section	.debug_frame
                        5222 .LDW_55e4718:
000000dc 00000000*      5223 	.word	.LDW_unq_a-.LDW_unq_9
                        5224 .LDW_unq_9:
000000e0 00000000*      5225 	.word	.LDW_54e7820

                                                                      Page 110
                                                              C:\Users\nhuliyap\AppData\Local\Temp\gh_0000d8g1.s
000000e4 00000000*      5226 	.word	_infSwcServiceNvMSwcApplEcuM_InitFunction
000000e8 00000000*      5227 	.word	___ghs_eofn_infSwcServiceNvMSwcApplEcuM_InitFunction-_infSwcServiceNvMSwcApplEcuM_InitFunction
000000ec 44             5228 	.byte	68
000000ed 9f             5229 	.byte	159
000000ee 03             5230 	.byte	3
000000ef 01             5231 	.byte	1
000000f0 00000000*      5232 	.word	.LDW71
                        5233 .LDW_unq_a:
                        5234 	.section	.debug_line
000016b5 000502         5235 	.byte	0,5,2
000016b8 00000000*      5236 	.word	_infSwcServiceNvMSwcApplEcuM_InitFunction
000016bc 03             5237 	.byte	3
000016bd f501           5238 	.byte	245,1
000016bf 02             5239 	.byte	2
000016c0 00             5240 	.byte	0
000016c1 01             5241 	.byte	1
000016c2 06             5242 	.byte	6
000016c3 1c             5243 	.byte	28
000016c4 000502         5244 	.byte	0,5,2
000016c7 00000000*      5245 	.word	.LDWlin54
000016cb 0b             5246 	.byte	11
000016cc 000502         5247 	.byte	0,5,2
000016cf 00000000*      5248 	.word	.LDWlin55
000016d3 0b             5249 	.byte	11
000016d4 000502         5250 	.byte	0,5,2
000016d7 00000000*      5251 	.word	.LDWlin56
000016db 0b             5252 	.byte	11
000016dc 000502         5253 	.byte	0,5,2
000016df 00000000*      5254 	.word	.LDWlin57
000016e3 0b             5255 	.byte	11
000016e4 0b             5256 	.byte	11
000016e5 000502         5257 	.byte	0,5,2
000016e8 00000000*      5258 	.word	.LDWlin58
000016ec 0b             5259 	.byte	11
000016ed 000502         5260 	.byte	0,5,2
000016f0 00000000*      5261 	.word	.LDWlin59
000016f4 0b             5262 	.byte	11
000016f5 000502         5263 	.byte	0,5,2
000016f8 00000000*      5264 	.word	.LDWlin60
000016fc 0b             5265 	.byte	11
000016fd 000502         5266 	.byte	0,5,2
00001700 00000000*      5267 	.word	.LDWlin61
00001704 0b             5268 	.byte	11
00001705 000502         5269 	.byte	0,5,2
00001708 00000000*      5270 	.word	.LDWlin62
0000170c 02             5271 	.byte	2
0000170d 00             5272 	.byte	0
0000170e 0c             5273 	.byte	12
0000170f 000502         5274 	.byte	0,5,2
00001712 00000000*      5275 	.word	.LDWlin63
00001716 03             5276 	.byte	3
00001717 04             5277 	.byte	4
00001718 02             5278 	.byte	2
00001719 00             5279 	.byte	0
0000171a 01             5280 	.byte	1
0000171b 02             5281 	.byte	2
0000171c 04             5282 	.byte	4
0000171d 000101         5283 	.byte	0,1,1
                        5284 	.section	.debug_info
                        5285 .LDW_5525468:
000010aa 1d             5286 	.byte	29

                                                                      Page 111
                                                              C:\Users\nhuliyap\AppData\Local\Temp\gh_0000d8g1.s
000010ab 00000000*      5287 	.word	.LDW61
000010af 00000000*      5288 	.word	.LDW71
                        5289 
                        5290 .LDW_5538db0:
000010b3 04             5291 	.byte	4
000010b4 496e745f4e76   5292 	.strz	"Int_NvMultiBlockStatus"
000010ba 4d756c746942 
000010c0 6c6f636b5374 
000010c6 6174757300 
000010cb f701           5293 	.byte	247,1
000010cd 1a             5294 	.byte	26
000010ce 01             5295 	.byte	1
000010cf 00000000*      5296 	.word	.LDW_54d4358
000010d3 00             5297 	.byte	0
000010d4 00             5298 	.byte	0
000010d5 0273           5299 	.byte	2,115
000010d7 03             5300 	.byte	3
                        5301 
000010d8 00             5302 	.byte	0
                        5303 
000010d9 00             5304 	.byte	0
                        5305 
                        5306 .LDW_55422f0:
000010da 13             5307 	.byte	19
000010db 4d656d737461   5308 	.strz	"Memstack_Main"
000010e1 636b5f4d6169 
000010e7 6e00 
000010e9 8902           5309 	.byte	137,2
000010eb 0d             5310 	.byte	13
000010ec 01             5311 	.byte	1
000010ed 00000000*      5312 	.word	_Memstack_Main
000010f1 00000000*      5313 	.word	___ghs_eofn_Memstack_Main
000010f5 0153           5314 	.byte	1,83
000010f7 8280808008     5315 	.byte	130,128,128,128,8
000010fc 04             5316 	.byte	4
000010fd 03             5317 	.byte	3
000010fe 04             5318 	.byte	4
000010ff 00             5319 	.byte	0
00001100 00             5320 	.byte	0
00001101 00             5321 	.byte	0
00001102 01             5322 	.byte	1
00001103 01             5323 	.byte	1
00001104 00             5324 	.byte	0
00001105 01             5325 	.byte	1
                        5326 
                        5327 	.section	.debug_frame
                        5328 .LDW_55e4318:
000000f4 00000000*      5329 	.word	.LDW_unq_c-.LDW_unq_b
                        5330 .LDW_unq_b:
000000f8 00000000*      5331 	.word	.LDW_54e7820
000000fc 00000000*      5332 	.word	_Memstack_Main
00000100 00000000*      5333 	.word	___ghs_eofn_Memstack_Main-_Memstack_Main
00000104 44             5334 	.byte	68
00000105 9f             5335 	.byte	159
00000106 00             5336 	.byte	0
00000107 01             5337 	.byte	1
00000108 00000000*      5338 	.word	.LDW91
0000010c 44             5339 	.byte	68
0000010d df             5340 	.byte	223
0000010e 00             5341 	.byte	0
0000010f 00             5342 	.byte	0

                                                                      Page 112
                                                              C:\Users\nhuliyap\AppData\Local\Temp\gh_0000d8g1.s
                        5343 .LDW_unq_c:
                        5344 	.section	.debug_line
00001720 000502         5345 	.byte	0,5,2
00001723 00000000*      5346 	.word	_Memstack_Main
00001727 03             5347 	.byte	3
00001728 8802           5348 	.byte	136,2
0000172a 02             5349 	.byte	2
0000172b 00             5350 	.byte	0
0000172c 01             5351 	.byte	1
0000172d 06             5352 	.byte	6
0000172e 1b             5353 	.byte	27
0000172f 000502         5354 	.byte	0,5,2
00001732 00000000*      5355 	.word	.LDWlin64
00001736 0b             5356 	.byte	11
00001737 000502         5357 	.byte	0,5,2
0000173a 00000000*      5358 	.word	.LDWlin65
0000173e 0b             5359 	.byte	11
0000173f 000502         5360 	.byte	0,5,2
00001742 00000000*      5361 	.word	.LDWlin66
00001746 0b             5362 	.byte	11
00001747 02             5363 	.byte	2
00001748 04             5364 	.byte	4
00001749 000101         5365 	.byte	0,1,1
                        5366 	.section	.debug_info
                        5367 .LDW_5525648:
00001106 1d             5368 	.byte	29
00001107 00000000*      5369 	.word	.LDW81
0000110b 00000000*      5370 	.word	.LDW91
                        5371 
0000110f 00             5372 	.byte	0
                        5373 
00001110 00             5374 	.byte	0
                        5375 
                        5376 .LDW_5541380:
00001111 13             5377 	.byte	19
00001112 4d656d737461   5378 	.strz	"Memstack_WriteAllBlocks"
00001118 636b5f577269 
0000111e 7465416c6c42 
00001124 6c6f636b7300 
0000112a 8f02           5379 	.byte	143,2
0000112c 0d             5380 	.byte	13
0000112d 01             5381 	.byte	1
0000112e 00000000*      5382 	.word	_Memstack_WriteAllBlocks
00001132 00000000*      5383 	.word	___ghs_eofn_Memstack_WriteAllBlocks
00001136 0153           5384 	.byte	1,83
00001138 8280808008     5385 	.byte	130,128,128,128,8
0000113d 04             5386 	.byte	4
0000113e 03             5387 	.byte	3
0000113f 08             5388 	.byte	8
00001140 00             5389 	.byte	0
00001141 00             5390 	.byte	0
00001142 00             5391 	.byte	0
00001143 01             5392 	.byte	1
00001144 01             5393 	.byte	1
00001145 00             5394 	.byte	0
00001146 01             5395 	.byte	1
                        5396 
                        5397 	.section	.debug_frame
                        5398 .LDW_55e4798:
00000110 00000000*      5399 	.word	.LDW_unq_e-.LDW_unq_d
                        5400 .LDW_unq_d:

                                                                      Page 113
                                                              C:\Users\nhuliyap\AppData\Local\Temp\gh_0000d8g1.s
00000114 00000000*      5401 	.word	.LDW_54e7820
00000118 00000000*      5402 	.word	_Memstack_WriteAllBlocks
0000011c 00000000*      5403 	.word	___ghs_eofn_Memstack_WriteAllBlocks-_Memstack_WriteAllBlocks
00000120 44             5404 	.byte	68
00000121 9f             5405 	.byte	159
00000122 03             5406 	.byte	3
00000123 01             5407 	.byte	1
00000124 00000000*      5408 	.word	.LDW12
                        5409 .LDW_unq_e:
                        5410 	.section	.debug_line
0000174c 000502         5411 	.byte	0,5,2
0000174f 00000000*      5412 	.word	_Memstack_WriteAllBlocks
00001753 03             5413 	.byte	3
00001754 8e02           5414 	.byte	142,2
00001756 02             5415 	.byte	2
00001757 00             5416 	.byte	0
00001758 01             5417 	.byte	1
00001759 06             5418 	.byte	6
0000175a 1c             5419 	.byte	28
0000175b 000502         5420 	.byte	0,5,2
0000175e 00000000*      5421 	.word	.LDWlin67
00001762 0b             5422 	.byte	11
00001763 0b             5423 	.byte	11
00001764 000502         5424 	.byte	0,5,2
00001767 00000000*      5425 	.word	.LDWlin68
0000176b 0b             5426 	.byte	11
0000176c 000502         5427 	.byte	0,5,2
0000176f 00000000*      5428 	.word	.LDWlin69
00001773 0b             5429 	.byte	11
00001774 000502         5430 	.byte	0,5,2
00001777 00000000*      5431 	.word	.LDWlin70
0000177b 0b             5432 	.byte	11
0000177c 000502         5433 	.byte	0,5,2
0000177f 00000000*      5434 	.word	.LDWlin71
00001783 0c             5435 	.byte	12
00001784 000502         5436 	.byte	0,5,2
00001787 00000000*      5437 	.word	.LDWlin72
0000178b 03             5438 	.byte	3
0000178c 7f             5439 	.byte	127
0000178d 02             5440 	.byte	2
0000178e 00             5441 	.byte	0
0000178f 01             5442 	.byte	1
00001790 0c             5443 	.byte	12
00001791 02             5444 	.byte	2
00001792 04             5445 	.byte	4
00001793 000101         5446 	.byte	0,1,1
                        5447 	.section	.debug_info
                        5448 .LDW_55255b8:
00001147 1d             5449 	.byte	29
00001148 00000000*      5450 	.word	.LDW02
0000114c 00000000*      5451 	.word	.LDW12
                        5452 
                        5453 .LDW_5538888:
00001150 04             5454 	.byte	4
00001151 496e745f4e76   5455 	.strz	"Int_NvMultiBlockStatus"
00001157 4d756c746942 
0000115d 6c6f636b5374 
00001163 6174757300 
00001168 9002           5456 	.byte	144,2
0000116a 19             5457 	.byte	25
0000116b 01             5458 	.byte	1

                                                                      Page 114
                                                              C:\Users\nhuliyap\AppData\Local\Temp\gh_0000d8g1.s
0000116c 00000000*      5459 	.word	.LDW_54d4358
00001170 00             5460 	.byte	0
00001171 00             5461 	.byte	0
00001172 0273           5462 	.byte	2,115
00001174 03             5463 	.byte	3
                        5464 
00001175 00             5465 	.byte	0
                        5466 
00001176 00             5467 	.byte	0
                        5468 
                        5469 .LDW_5541b38:
00001177 13             5470 	.byte	19
00001178 4d656d737461   5471 	.strz	"Memstack_WriteCategoryOnEvent"
0000117e 636b5f577269 
00001184 746543617465 
0000118a 676f72794f6e 
00001190 4576656e7400 
00001196 9b02           5472 	.byte	155,2
00001198 0d             5473 	.byte	13
00001199 01             5474 	.byte	1
0000119a 00000000*      5475 	.word	_Memstack_WriteCategoryOnEvent
0000119e 00000000*      5476 	.word	___ghs_eofn_Memstack_WriteCategoryOnEvent
000011a2 0153           5477 	.byte	1,83
000011a4 828080800a     5478 	.byte	130,128,128,128,10
000011a9 08             5479 	.byte	8
000011aa 03             5480 	.byte	3
000011ab 08             5481 	.byte	8
000011ac 00             5482 	.byte	0
000011ad 00             5483 	.byte	0
000011ae 00             5484 	.byte	0
000011af 01             5485 	.byte	1
000011b0 01             5486 	.byte	1
000011b1 00             5487 	.byte	0
000011b2 01             5488 	.byte	1
                        5489 
                        5490 	.section	.debug_frame
                        5491 .LDW_55e4158:
00000128 00000000*      5492 	.word	.LDW_unq_10-.LDW_unq_f
                        5493 .LDW_unq_f:
0000012c 00000000*      5494 	.word	.LDW_54e7820
00000130 00000000*      5495 	.word	_Memstack_WriteCategoryOnEvent
00000134 00000000*      5496 	.word	___ghs_eofn_Memstack_WriteCategoryOnEvent-_Memstack_WriteCategoryOnEvent
00000138 44             5497 	.byte	68
00000139 9f             5498 	.byte	159
0000013a 00             5499 	.byte	0
0000013b 40             5500 	.byte	64
0000013c 9d             5501 	.byte	157
0000013d 04             5502 	.byte	4
0000013e 01             5503 	.byte	1
0000013f 00000000*      5504 	.word	.LDW32
00000143 00             5505 	.byte	0
                        5506 .LDW_unq_10:
                        5507 	.section	.debug_line
00001796 000502         5508 	.byte	0,5,2
00001799 00000000*      5509 	.word	_Memstack_WriteCategoryOnEvent
0000179d 03             5510 	.byte	3
0000179e 9a02           5511 	.byte	154,2
000017a0 02             5512 	.byte	2
000017a1 00             5513 	.byte	0
000017a2 01             5514 	.byte	1
000017a3 06             5515 	.byte	6

                                                                      Page 115
                                                              C:\Users\nhuliyap\AppData\Local\Temp\gh_0000d8g1.s
000017a4 000502         5516 	.byte	0,5,2
000017a7 00000000*      5517 	.word	.LDWlin73
000017ab 0c             5518 	.byte	12
000017ac 02             5519 	.byte	2
000017ad 02             5520 	.byte	2
000017ae 0b             5521 	.byte	11
000017af 000502         5522 	.byte	0,5,2
000017b2 00000000*      5523 	.word	.LDWlin74
000017b6 02             5524 	.byte	2
000017b7 00             5525 	.byte	0
000017b8 0b             5526 	.byte	11
000017b9 000502         5527 	.byte	0,5,2
000017bc 00000000*      5528 	.word	.LDWlin75
000017c0 02             5529 	.byte	2
000017c1 00             5530 	.byte	0
000017c2 0b             5531 	.byte	11
000017c3 000502         5532 	.byte	0,5,2
000017c6 00000000*      5533 	.word	.LDWlin76
000017ca 0b             5534 	.byte	11
000017cb 1b             5535 	.byte	27
000017cc 000502         5536 	.byte	0,5,2
000017cf 00000000*      5537 	.word	.LDWlin77
000017d3 0b             5538 	.byte	11
000017d4 02             5539 	.byte	2
000017d5 00             5540 	.byte	0
000017d6 0b             5541 	.byte	11
000017d7 02             5542 	.byte	2
000017d8 00             5543 	.byte	0
000017d9 03             5544 	.byte	3
000017da 79             5545 	.byte	121
000017db 02             5546 	.byte	2
000017dc 00             5547 	.byte	0
000017dd 01             5548 	.byte	1
000017de 000502         5549 	.byte	0,5,2
000017e1 00000000*      5550 	.word	.LDWlin78
000017e5 03             5551 	.byte	3
000017e6 08             5552 	.byte	8
000017e7 02             5553 	.byte	2
000017e8 00             5554 	.byte	0
000017e9 01             5555 	.byte	1
000017ea 0b             5556 	.byte	11
000017eb 02             5557 	.byte	2
000017ec 04             5558 	.byte	4
000017ed 000101         5559 	.byte	0,1,1
                        5560 	.section	.debug_info
                        5561 .LDW_5525348:
000011b3 1d             5562 	.byte	29
000011b4 00000000*      5563 	.word	.LDW22
000011b8 00000000*      5564 	.word	.LDW32
                        5565 
                        5566 .LDW_5538e08:
000011bc 04             5567 	.byte	4
000011bd 6900           5568 	.strz	"i"
000011bf 9c02           5569 	.byte	156,2
000011c1 09             5570 	.byte	9
000011c2 01             5571 	.byte	1
000011c3 00000000*      5572 	.word	.LDW_4d22d60
000011c7 00             5573 	.byte	0
000011c8 00             5574 	.byte	0
000011c9 0161           5575 	.byte	1,97
                        5576 

                                                                      Page 116
                                                              C:\Users\nhuliyap\AppData\Local\Temp\gh_0000d8g1.s
000011cb 00             5577 	.byte	0
                        5578 
000011cc 00             5579 	.byte	0
                        5580 
                        5581 .LDW_5541c68:
000011cd 13             5582 	.byte	19
000011ce 4d656d737461   5583 	.strz	"Memstack_Appl_JobEndCallback_CAT01"
000011d4 636b5f417070 
000011da 6c5f4a6f6245 
000011e0 6e6443616c6c 
000011e6 6261636b5f43 
000011ec 4154303100 
000011f1 a802           5584 	.byte	168,2
000011f3 0d             5585 	.byte	13
000011f4 01             5586 	.byte	1
000011f5 00000000*      5587 	.word	_Memstack_Appl_JobEndCallback_CAT01
000011f9 00000000*      5588 	.word	___ghs_eofn_Memstack_Appl_JobEndCallback_CAT01
000011fd 0153           5589 	.byte	1,83
000011ff 828080800a     5590 	.byte	130,128,128,128,10
00001204 08             5591 	.byte	8
00001205 03             5592 	.byte	3
00001206 0c             5593 	.byte	12
00001207 00             5594 	.byte	0
00001208 00             5595 	.byte	0
00001209 00             5596 	.byte	0
0000120a 01             5597 	.byte	1
0000120b 01             5598 	.byte	1
0000120c 00             5599 	.byte	0
0000120d 01             5600 	.byte	1
                        5601 
                        5602 	.section	.debug_frame
                        5603 .LDW_55e4698:
00000144 00000000*      5604 	.word	.LDW_unq_12-.LDW_unq_11
                        5605 .LDW_unq_11:
00000148 00000000*      5606 	.word	.LDW_54e7820
0000014c 00000000*      5607 	.word	_Memstack_Appl_JobEndCallback_CAT01
00000150 00000000*      5608 	.word	___ghs_eofn_Memstack_Appl_JobEndCallback_CAT01-_Memstack_Appl_JobEndCallback_CAT01
00000154 44             5609 	.byte	68
00000155 9f             5610 	.byte	159
00000156 03             5611 	.byte	3
00000157 40             5612 	.byte	64
00000158 9d             5613 	.byte	157
00000159 07             5614 	.byte	7
0000015a 01             5615 	.byte	1
0000015b 00000000*      5616 	.word	.LDW52
0000015f 00             5617 	.byte	0
                        5618 .LDW_unq_12:
                        5619 	.section	.debug_line
000017f0 000502         5620 	.byte	0,5,2
000017f3 00000000*      5621 	.word	_Memstack_Appl_JobEndCallback_CAT01
000017f7 03             5622 	.byte	3
000017f8 a702           5623 	.byte	167,2
000017fa 02             5624 	.byte	2
000017fb 00             5625 	.byte	0
000017fc 01             5626 	.byte	1
000017fd 06             5627 	.byte	6
000017fe 000502         5628 	.byte	0,5,2
00001801 00000000*      5629 	.word	.LDWlin79
00001805 0c             5630 	.byte	12
00001806 000502         5631 	.byte	0,5,2
00001809 00000000*      5632 	.word	.LDWlin80

                                                                      Page 117
                                                              C:\Users\nhuliyap\AppData\Local\Temp\gh_0000d8g1.s
0000180d 0b             5633 	.byte	11
0000180e 000502         5634 	.byte	0,5,2
00001811 00000000*      5635 	.word	.LDWlin81
00001815 02             5636 	.byte	2
00001816 00             5637 	.byte	0
00001817 0b             5638 	.byte	11
00001818 1b             5639 	.byte	27
00001819 02             5640 	.byte	2
0000181a 00             5641 	.byte	0
0000181b 0b             5642 	.byte	11
0000181c 02             5643 	.byte	2
0000181d 04             5644 	.byte	4
0000181e 000101         5645 	.byte	0,1,1
                        5646 	.section	.debug_info
                        5647 .LDW_5525288:
0000120e 1d             5648 	.byte	29
0000120f 00000000*      5649 	.word	.LDW42
00001213 00000000*      5650 	.word	.LDW52
                        5651 
                        5652 .LDW_55388e0:
00001217 04             5653 	.byte	4
00001218 756352657175   5654 	.strz	"ucRequestResult"
0000121e 657374526573 
00001224 756c7400 
00001228 a902           5655 	.byte	169,2
0000122a 19             5656 	.byte	25
0000122b 01             5657 	.byte	1
0000122c 00000000*      5658 	.word	.LDW_54d4358
00001230 00             5659 	.byte	0
00001231 00             5660 	.byte	0
00001232 0273           5661 	.byte	2,115
00001234 03             5662 	.byte	3
                        5663 
00001235 00             5664 	.byte	0
                        5665 
00001236 00             5666 	.byte	0
                        5667 
                        5668 .LDW_5542090:
00001237 13             5669 	.byte	19
00001238 4d656d737461   5670 	.strz	"Memstack_Appl_JobEndCallback_CAT02"
0000123e 636b5f417070 
00001244 6c5f4a6f6245 
0000124a 6e6443616c6c 
00001250 6261636b5f43 
00001256 4154303200 
0000125b b002           5671 	.byte	176,2
0000125d 0d             5672 	.byte	13
0000125e 01             5673 	.byte	1
0000125f 00000000*      5674 	.word	_Memstack_Appl_JobEndCallback_CAT02
00001263 00000000*      5675 	.word	___ghs_eofn_Memstack_Appl_JobEndCallback_CAT02
00001267 0153           5676 	.byte	1,83
00001269 828080800a     5677 	.byte	130,128,128,128,10
0000126e 08             5678 	.byte	8
0000126f 03             5679 	.byte	3
00001270 0c             5680 	.byte	12
00001271 00             5681 	.byte	0
00001272 00             5682 	.byte	0
00001273 00             5683 	.byte	0
00001274 01             5684 	.byte	1
00001275 01             5685 	.byte	1
00001276 00             5686 	.byte	0

                                                                      Page 118
                                                              C:\Users\nhuliyap\AppData\Local\Temp\gh_0000d8g1.s
00001277 01             5687 	.byte	1
                        5688 
                        5689 	.section	.debug_frame
                        5690 .LDW_55e4258:
00000160 00000000*      5691 	.word	.LDW_unq_14-.LDW_unq_13
                        5692 .LDW_unq_13:
00000164 00000000*      5693 	.word	.LDW_54e7820
00000168 00000000*      5694 	.word	_Memstack_Appl_JobEndCallback_CAT02
0000016c 00000000*      5695 	.word	___ghs_eofn_Memstack_Appl_JobEndCallback_CAT02-_Memstack_Appl_JobEndCallback_CAT02
00000170 44             5696 	.byte	68
00000171 9f             5697 	.byte	159
00000172 03             5698 	.byte	3
00000173 40             5699 	.byte	64
00000174 9d             5700 	.byte	157
00000175 07             5701 	.byte	7
00000176 01             5702 	.byte	1
00000177 00000000*      5703 	.word	.LDW72
0000017b 00             5704 	.byte	0
                        5705 .LDW_unq_14:
                        5706 	.section	.debug_line
00001821 000502         5707 	.byte	0,5,2
00001824 00000000*      5708 	.word	_Memstack_Appl_JobEndCallback_CAT02
00001828 03             5709 	.byte	3
00001829 af02           5710 	.byte	175,2
0000182b 02             5711 	.byte	2
0000182c 00             5712 	.byte	0
0000182d 01             5713 	.byte	1
0000182e 06             5714 	.byte	6
0000182f 000502         5715 	.byte	0,5,2
00001832 00000000*      5716 	.word	.LDWlin82
00001836 0c             5717 	.byte	12
00001837 000502         5718 	.byte	0,5,2
0000183a 00000000*      5719 	.word	.LDWlin83
0000183e 0b             5720 	.byte	11
0000183f 000502         5721 	.byte	0,5,2
00001842 00000000*      5722 	.word	.LDWlin84
00001846 02             5723 	.byte	2
00001847 00             5724 	.byte	0
00001848 0b             5725 	.byte	11
00001849 1b             5726 	.byte	27
0000184a 02             5727 	.byte	2
0000184b 00             5728 	.byte	0
0000184c 0b             5729 	.byte	11
0000184d 02             5730 	.byte	2
0000184e 04             5731 	.byte	4
0000184f 000101         5732 	.byte	0,1,1
                        5733 	.section	.debug_info
                        5734 .LDW_55252b8:
00001278 1d             5735 	.byte	29
00001279 00000000*      5736 	.word	.LDW62
0000127d 00000000*      5737 	.word	.LDW72
                        5738 
                        5739 .LDW_5538f10:
00001281 04             5740 	.byte	4
00001282 756352657175   5741 	.strz	"ucRequestResult"
00001288 657374526573 
0000128e 756c7400 
00001292 b102           5742 	.byte	177,2
00001294 19             5743 	.byte	25
00001295 01             5744 	.byte	1
00001296 00000000*      5745 	.word	.LDW_54d4358

                                                                      Page 119
                                                              C:\Users\nhuliyap\AppData\Local\Temp\gh_0000d8g1.s
0000129a 00             5746 	.byte	0
0000129b 00             5747 	.byte	0
0000129c 0273           5748 	.byte	2,115
0000129e 03             5749 	.byte	3
                        5750 
0000129f 00             5751 	.byte	0
                        5752 
000012a0 00             5753 	.byte	0
                        5754 
                        5755 .LDW_5541120:
000012a1 13             5756 	.byte	19
000012a2 4d656d737461   5757 	.strz	"Memstack_Appl_JobEndCallback_CAT03"
000012a8 636b5f417070 
000012ae 6c5f4a6f6245 
000012b4 6e6443616c6c 
000012ba 6261636b5f43 
000012c0 4154303300 
000012c5 b802           5758 	.byte	184,2
000012c7 0d             5759 	.byte	13
000012c8 01             5760 	.byte	1
000012c9 00000000*      5761 	.word	_Memstack_Appl_JobEndCallback_CAT03
000012cd 00000000*      5762 	.word	___ghs_eofn_Memstack_Appl_JobEndCallback_CAT03
000012d1 0153           5763 	.byte	1,83
000012d3 828080800a     5764 	.byte	130,128,128,128,10
000012d8 08             5765 	.byte	8
000012d9 03             5766 	.byte	3
000012da 0c             5767 	.byte	12
000012db 00             5768 	.byte	0
000012dc 00             5769 	.byte	0
000012dd 00             5770 	.byte	0
000012de 01             5771 	.byte	1
000012df 01             5772 	.byte	1
000012e0 00             5773 	.byte	0
000012e1 01             5774 	.byte	1
                        5775 
                        5776 	.section	.debug_frame
                        5777 .LDW_55e4098:
0000017c 00000000*      5778 	.word	.LDW_unq_16-.LDW_unq_15
                        5779 .LDW_unq_15:
00000180 00000000*      5780 	.word	.LDW_54e7820
00000184 00000000*      5781 	.word	_Memstack_Appl_JobEndCallback_CAT03
00000188 00000000*      5782 	.word	___ghs_eofn_Memstack_Appl_JobEndCallback_CAT03-_Memstack_Appl_JobEndCallback_CAT03
0000018c 44             5783 	.byte	68
0000018d 9f             5784 	.byte	159
0000018e 03             5785 	.byte	3
0000018f 40             5786 	.byte	64
00000190 9d             5787 	.byte	157
00000191 07             5788 	.byte	7
00000192 01             5789 	.byte	1
00000193 00000000*      5790 	.word	.LDW92
00000197 00             5791 	.byte	0
                        5792 .LDW_unq_16:
                        5793 	.section	.debug_line
00001852 000502         5794 	.byte	0,5,2
00001855 00000000*      5795 	.word	_Memstack_Appl_JobEndCallback_CAT03
00001859 03             5796 	.byte	3
0000185a b702           5797 	.byte	183,2
0000185c 02             5798 	.byte	2
0000185d 00             5799 	.byte	0
0000185e 01             5800 	.byte	1
0000185f 06             5801 	.byte	6

                                                                      Page 120
                                                              C:\Users\nhuliyap\AppData\Local\Temp\gh_0000d8g1.s
00001860 000502         5802 	.byte	0,5,2
00001863 00000000*      5803 	.word	.LDWlin85
00001867 0c             5804 	.byte	12
00001868 000502         5805 	.byte	0,5,2
0000186b 00000000*      5806 	.word	.LDWlin86
0000186f 0b             5807 	.byte	11
00001870 000502         5808 	.byte	0,5,2
00001873 00000000*      5809 	.word	.LDWlin87
00001877 02             5810 	.byte	2
00001878 00             5811 	.byte	0
00001879 0b             5812 	.byte	11
0000187a 1b             5813 	.byte	27
0000187b 02             5814 	.byte	2
0000187c 00             5815 	.byte	0
0000187d 0b             5816 	.byte	11
0000187e 02             5817 	.byte	2
0000187f 04             5818 	.byte	4
00001880 000101         5819 	.byte	0,1,1
                        5820 	.section	.debug_info
                        5821 .LDW_5525378:
000012e2 1d             5822 	.byte	29
000012e3 00000000*      5823 	.word	.LDW82
000012e7 00000000*      5824 	.word	.LDW92
                        5825 
                        5826 .LDW_5538a40:
000012eb 04             5827 	.byte	4
000012ec 756352657175   5828 	.strz	"ucRequestResult"
000012f2 657374526573 
000012f8 756c7400 
000012fc b902           5829 	.byte	185,2
000012fe 19             5830 	.byte	25
000012ff 01             5831 	.byte	1
00001300 00000000*      5832 	.word	.LDW_54d4358
00001304 00             5833 	.byte	0
00001305 00             5834 	.byte	0
00001306 0273           5835 	.byte	2,115
00001308 03             5836 	.byte	3
                        5837 
00001309 00             5838 	.byte	0
                        5839 
0000130a 00             5840 	.byte	0
                        5841 
                        5842 .LDW_5541d98:
0000130b 13             5843 	.byte	19
0000130c 4d656d737461   5844 	.strz	"Memstack_Appl_JobEndCallback_CAT04"
00001312 636b5f417070 
00001318 6c5f4a6f6245 
0000131e 6e6443616c6c 
00001324 6261636b5f43 
0000132a 4154303400 
0000132f c002           5845 	.byte	192,2
00001331 0d             5846 	.byte	13
00001332 01             5847 	.byte	1
00001333 00000000*      5848 	.word	_Memstack_Appl_JobEndCallback_CAT04
00001337 00000000*      5849 	.word	___ghs_eofn_Memstack_Appl_JobEndCallback_CAT04
0000133b 0153           5850 	.byte	1,83
0000133d 828080800a     5851 	.byte	130,128,128,128,10
00001342 08             5852 	.byte	8
00001343 03             5853 	.byte	3
00001344 0c             5854 	.byte	12
00001345 00             5855 	.byte	0

                                                                      Page 121
                                                              C:\Users\nhuliyap\AppData\Local\Temp\gh_0000d8g1.s
00001346 00             5856 	.byte	0
00001347 00             5857 	.byte	0
00001348 01             5858 	.byte	1
00001349 01             5859 	.byte	1
0000134a 00             5860 	.byte	0
0000134b 01             5861 	.byte	1
                        5862 
                        5863 	.section	.debug_frame
                        5864 .LDW_55e4198:
00000198 00000000*      5865 	.word	.LDW_unq_18-.LDW_unq_17
                        5866 .LDW_unq_17:
0000019c 00000000*      5867 	.word	.LDW_54e7820
000001a0 00000000*      5868 	.word	_Memstack_Appl_JobEndCallback_CAT04
000001a4 00000000*      5869 	.word	___ghs_eofn_Memstack_Appl_JobEndCallback_CAT04-_Memstack_Appl_JobEndCallback_CAT04
000001a8 44             5870 	.byte	68
000001a9 9f             5871 	.byte	159
000001aa 03             5872 	.byte	3
000001ab 40             5873 	.byte	64
000001ac 9d             5874 	.byte	157
000001ad 07             5875 	.byte	7
000001ae 01             5876 	.byte	1
000001af 00000000*      5877 	.word	.LDW13
000001b3 00             5878 	.byte	0
                        5879 .LDW_unq_18:
                        5880 	.section	.debug_line
00001883 000502         5881 	.byte	0,5,2
00001886 00000000*      5882 	.word	_Memstack_Appl_JobEndCallback_CAT04
0000188a 03             5883 	.byte	3
0000188b bf02           5884 	.byte	191,2
0000188d 02             5885 	.byte	2
0000188e 00             5886 	.byte	0
0000188f 01             5887 	.byte	1
00001890 06             5888 	.byte	6
00001891 000502         5889 	.byte	0,5,2
00001894 00000000*      5890 	.word	.LDWlin88
00001898 0c             5891 	.byte	12
00001899 000502         5892 	.byte	0,5,2
0000189c 00000000*      5893 	.word	.LDWlin89
000018a0 0b             5894 	.byte	11
000018a1 000502         5895 	.byte	0,5,2
000018a4 00000000*      5896 	.word	.LDWlin90
000018a8 02             5897 	.byte	2
000018a9 00             5898 	.byte	0
000018aa 0b             5899 	.byte	11
000018ab 1b             5900 	.byte	27
000018ac 02             5901 	.byte	2
000018ad 00             5902 	.byte	0
000018ae 0b             5903 	.byte	11
000018af 02             5904 	.byte	2
000018b0 04             5905 	.byte	4
000018b1 000101         5906 	.byte	0,1,1
                        5907 	.section	.debug_info
                        5908 .LDW_55253a8:
0000134c 1d             5909 	.byte	29
0000134d 00000000*      5910 	.word	.LDW03
00001351 00000000*      5911 	.word	.LDW13
                        5912 
                        5913 .LDW_5538f68:
00001355 04             5914 	.byte	4
00001356 756352657175   5915 	.strz	"ucRequestResult"
0000135c 657374526573 

                                                                      Page 122
                                                              C:\Users\nhuliyap\AppData\Local\Temp\gh_0000d8g1.s
00001362 756c7400 
00001366 c102           5916 	.byte	193,2
00001368 19             5917 	.byte	25
00001369 01             5918 	.byte	1
0000136a 00000000*      5919 	.word	.LDW_54d4358
0000136e 00             5920 	.byte	0
0000136f 00             5921 	.byte	0
00001370 0273           5922 	.byte	2,115
00001372 03             5923 	.byte	3
                        5924 
00001373 00             5925 	.byte	0
                        5926 
00001374 00             5927 	.byte	0
                        5928 
                        5929 .LDW_5541e30:
00001375 13             5930 	.byte	19
00001376 4d656d737461   5931 	.strz	"Memstack_Appl_JobEndCallback_CAT05"
0000137c 636b5f417070 
00001382 6c5f4a6f6245 
00001388 6e6443616c6c 
0000138e 6261636b5f43 
00001394 4154303500 
00001399 c802           5932 	.byte	200,2
0000139b 0d             5933 	.byte	13
0000139c 01             5934 	.byte	1
0000139d 00000000*      5935 	.word	_Memstack_Appl_JobEndCallback_CAT05
000013a1 00000000*      5936 	.word	___ghs_eofn_Memstack_Appl_JobEndCallback_CAT05
000013a5 0153           5937 	.byte	1,83
000013a7 828080800a     5938 	.byte	130,128,128,128,10
000013ac 08             5939 	.byte	8
000013ad 03             5940 	.byte	3
000013ae 0c             5941 	.byte	12
000013af 00             5942 	.byte	0
000013b0 00             5943 	.byte	0
000013b1 00             5944 	.byte	0
000013b2 01             5945 	.byte	1
000013b3 01             5946 	.byte	1
000013b4 00             5947 	.byte	0
000013b5 01             5948 	.byte	1
                        5949 
                        5950 	.section	.debug_frame
                        5951 .LDW_55e4298:
000001b4 00000000*      5952 	.word	.LDW_unq_1a-.LDW_unq_19
                        5953 .LDW_unq_19:
000001b8 00000000*      5954 	.word	.LDW_54e7820
000001bc 00000000*      5955 	.word	_Memstack_Appl_JobEndCallback_CAT05
000001c0 00000000*      5956 	.word	___ghs_eofn_Memstack_Appl_JobEndCallback_CAT05-_Memstack_Appl_JobEndCallback_CAT05
000001c4 44             5957 	.byte	68
000001c5 9f             5958 	.byte	159
000001c6 03             5959 	.byte	3
000001c7 40             5960 	.byte	64
000001c8 9d             5961 	.byte	157
000001c9 07             5962 	.byte	7
000001ca 01             5963 	.byte	1
000001cb 00000000*      5964 	.word	.LDW33
000001cf 00             5965 	.byte	0
                        5966 .LDW_unq_1a:
                        5967 	.section	.debug_line
000018b4 000502         5968 	.byte	0,5,2
000018b7 00000000*      5969 	.word	_Memstack_Appl_JobEndCallback_CAT05
000018bb 03             5970 	.byte	3

                                                                      Page 123
                                                              C:\Users\nhuliyap\AppData\Local\Temp\gh_0000d8g1.s
000018bc c702           5971 	.byte	199,2
000018be 02             5972 	.byte	2
000018bf 00             5973 	.byte	0
000018c0 01             5974 	.byte	1
000018c1 06             5975 	.byte	6
000018c2 000502         5976 	.byte	0,5,2
000018c5 00000000*      5977 	.word	.LDWlin91
000018c9 0c             5978 	.byte	12
000018ca 000502         5979 	.byte	0,5,2
000018cd 00000000*      5980 	.word	.LDWlin92
000018d1 0b             5981 	.byte	11
000018d2 000502         5982 	.byte	0,5,2
000018d5 00000000*      5983 	.word	.LDWlin93
000018d9 02             5984 	.byte	2
000018da 00             5985 	.byte	0
000018db 0b             5986 	.byte	11
000018dc 1b             5987 	.byte	27
000018dd 02             5988 	.byte	2
000018de 00             5989 	.byte	0
000018df 0b             5990 	.byte	11
000018e0 02             5991 	.byte	2
000018e1 04             5992 	.byte	4
000018e2 000101         5993 	.byte	0,1,1
                        5994 	.section	.debug_info
                        5995 .LDW_55254f8:
000013b6 1d             5996 	.byte	29
000013b7 00000000*      5997 	.word	.LDW23
000013bb 00000000*      5998 	.word	.LDW33
                        5999 
                        6000 .LDW_55c7e28:
000013bf 04             6001 	.byte	4
000013c0 756352657175   6002 	.strz	"ucRequestResult"
000013c6 657374526573 
000013cc 756c7400 
000013d0 c902           6003 	.byte	201,2
000013d2 19             6004 	.byte	25
000013d3 01             6005 	.byte	1
000013d4 00000000*      6006 	.word	.LDW_54d4358
000013d8 00             6007 	.byte	0
000013d9 00             6008 	.byte	0
000013da 0273           6009 	.byte	2,115
000013dc 03             6010 	.byte	3
                        6011 
000013dd 00             6012 	.byte	0
                        6013 
000013de 00             6014 	.byte	0
                        6015 
                        6016 .LDW_55411b8:
000013df 13             6017 	.byte	19
000013e0 4d656d737461   6018 	.strz	"Memstack_Appl_JobEndCallback_CAT06"
000013e6 636b5f417070 
000013ec 6c5f4a6f6245 
000013f2 6e6443616c6c 
000013f8 6261636b5f43 
000013fe 4154303600 
00001403 d002           6019 	.byte	208,2
00001405 0d             6020 	.byte	13
00001406 01             6021 	.byte	1
00001407 00000000*      6022 	.word	_Memstack_Appl_JobEndCallback_CAT06
0000140b 00000000*      6023 	.word	___ghs_eofn_Memstack_Appl_JobEndCallback_CAT06
0000140f 0153           6024 	.byte	1,83

                                                                      Page 124
                                                              C:\Users\nhuliyap\AppData\Local\Temp\gh_0000d8g1.s
00001411 828080800a     6025 	.byte	130,128,128,128,10
00001416 08             6026 	.byte	8
00001417 03             6027 	.byte	3
00001418 0c             6028 	.byte	12
00001419 00             6029 	.byte	0
0000141a 00             6030 	.byte	0
0000141b 00             6031 	.byte	0
0000141c 01             6032 	.byte	1
0000141d 01             6033 	.byte	1
0000141e 00             6034 	.byte	0
0000141f 01             6035 	.byte	1
                        6036 
                        6037 	.section	.debug_frame
                        6038 .LDW_55e43d8:
000001d0 00000000*      6039 	.word	.LDW_unq_1c-.LDW_unq_1b
                        6040 .LDW_unq_1b:
000001d4 00000000*      6041 	.word	.LDW_54e7820
000001d8 00000000*      6042 	.word	_Memstack_Appl_JobEndCallback_CAT06
000001dc 00000000*      6043 	.word	___ghs_eofn_Memstack_Appl_JobEndCallback_CAT06-_Memstack_Appl_JobEndCallback_CAT06
000001e0 44             6044 	.byte	68
000001e1 9f             6045 	.byte	159
000001e2 03             6046 	.byte	3
000001e3 40             6047 	.byte	64
000001e4 9d             6048 	.byte	157
000001e5 07             6049 	.byte	7
000001e6 01             6050 	.byte	1
000001e7 00000000*      6051 	.word	.LDW53
000001eb 00             6052 	.byte	0
                        6053 .LDW_unq_1c:
                        6054 	.section	.debug_line
000018e5 000502         6055 	.byte	0,5,2
000018e8 00000000*      6056 	.word	_Memstack_Appl_JobEndCallback_CAT06
000018ec 03             6057 	.byte	3
000018ed cf02           6058 	.byte	207,2
000018ef 02             6059 	.byte	2
000018f0 00             6060 	.byte	0
000018f1 01             6061 	.byte	1
000018f2 06             6062 	.byte	6
000018f3 000502         6063 	.byte	0,5,2
000018f6 00000000*      6064 	.word	.LDWlin94
000018fa 0c             6065 	.byte	12
000018fb 000502         6066 	.byte	0,5,2
000018fe 00000000*      6067 	.word	.LDWlin95
00001902 0b             6068 	.byte	11
00001903 000502         6069 	.byte	0,5,2
00001906 00000000*      6070 	.word	.LDWlin96
0000190a 0b             6071 	.byte	11
0000190b 0b             6072 	.byte	11
0000190c 1b             6073 	.byte	27
0000190d 02             6074 	.byte	2
0000190e 00             6075 	.byte	0
0000190f 0b             6076 	.byte	11
00001910 02             6077 	.byte	2
00001911 04             6078 	.byte	4
00001912 000101         6079 	.byte	0,1,1
                        6080 	.section	.debug_info
                        6081 .LDW_5525618:
00001420 1d             6082 	.byte	29
00001421 00000000*      6083 	.word	.LDW43
00001425 00000000*      6084 	.word	.LDW53
                        6085 

                                                                      Page 125
                                                              C:\Users\nhuliyap\AppData\Local\Temp\gh_0000d8g1.s
                        6086 .LDW_55c7fe0:
00001429 04             6087 	.byte	4
0000142a 756352657175   6088 	.strz	"ucRequestResult"
00001430 657374526573 
00001436 756c7400 
0000143a d102           6089 	.byte	209,2
0000143c 19             6090 	.byte	25
0000143d 01             6091 	.byte	1
0000143e 00000000*      6092 	.word	.LDW_54d4358
00001442 00             6093 	.byte	0
00001443 00             6094 	.byte	0
00001444 0273           6095 	.byte	2,115
00001446 03             6096 	.byte	3
                        6097 
00001447 00             6098 	.byte	0
                        6099 
00001448 00             6100 	.byte	0
                        6101 
                        6102 .LDW_5541250:
00001449 13             6103 	.byte	19
0000144a 4d656d737461   6104 	.strz	"Memstack_Appl_JobEndCallback_CAT07"
00001450 636b5f417070 
00001456 6c5f4a6f6245 
0000145c 6e6443616c6c 
00001462 6261636b5f43 
00001468 4154303700 
0000146d d902           6105 	.byte	217,2
0000146f 0d             6106 	.byte	13
00001470 01             6107 	.byte	1
00001471 00000000*      6108 	.word	_Memstack_Appl_JobEndCallback_CAT07
00001475 00000000*      6109 	.word	___ghs_eofn_Memstack_Appl_JobEndCallback_CAT07
00001479 0153           6110 	.byte	1,83
0000147b 828080800a     6111 	.byte	130,128,128,128,10
00001480 08             6112 	.byte	8
00001481 03             6113 	.byte	3
00001482 0c             6114 	.byte	12
00001483 00             6115 	.byte	0
00001484 00             6116 	.byte	0
00001485 00             6117 	.byte	0
00001486 01             6118 	.byte	1
00001487 01             6119 	.byte	1
00001488 00             6120 	.byte	0
00001489 01             6121 	.byte	1
                        6122 
                        6123 	.section	.debug_frame
                        6124 .LDW_51df1d0:
000001ec 00000000*      6125 	.word	.LDW_unq_1e-.LDW_unq_1d
                        6126 .LDW_unq_1d:
000001f0 00000000*      6127 	.word	.LDW_54e7820
000001f4 00000000*      6128 	.word	_Memstack_Appl_JobEndCallback_CAT07
000001f8 00000000*      6129 	.word	___ghs_eofn_Memstack_Appl_JobEndCallback_CAT07-_Memstack_Appl_JobEndCallback_CAT07
000001fc 44             6130 	.byte	68
000001fd 9f             6131 	.byte	159
000001fe 03             6132 	.byte	3
000001ff 40             6133 	.byte	64
00000200 9d             6134 	.byte	157
00000201 07             6135 	.byte	7
00000202 01             6136 	.byte	1
00000203 00000000*      6137 	.word	.LDW73
00000207 00             6138 	.byte	0
                        6139 .LDW_unq_1e:

                                                                      Page 126
                                                              C:\Users\nhuliyap\AppData\Local\Temp\gh_0000d8g1.s
                        6140 	.section	.debug_line
00001915 000502         6141 	.byte	0,5,2
00001918 00000000*      6142 	.word	_Memstack_Appl_JobEndCallback_CAT07
0000191c 03             6143 	.byte	3
0000191d d802           6144 	.byte	216,2
0000191f 02             6145 	.byte	2
00001920 00             6146 	.byte	0
00001921 01             6147 	.byte	1
00001922 06             6148 	.byte	6
00001923 000502         6149 	.byte	0,5,2
00001926 00000000*      6150 	.word	.LDWlin97
0000192a 0c             6151 	.byte	12
0000192b 000502         6152 	.byte	0,5,2
0000192e 00000000*      6153 	.word	.LDWlin98
00001932 0b             6154 	.byte	11
00001933 000502         6155 	.byte	0,5,2
00001936 00000000*      6156 	.word	.LDWlin99
0000193a 0b             6157 	.byte	11
0000193b 0b             6158 	.byte	11
0000193c 1b             6159 	.byte	27
0000193d 02             6160 	.byte	2
0000193e 00             6161 	.byte	0
0000193f 0b             6162 	.byte	11
00001940 02             6163 	.byte	2
00001941 04             6164 	.byte	4
00001942 000101         6165 	.byte	0,1,1
                        6166 	.section	.debug_info
                        6167 .LDW_55cae58:
0000148a 1d             6168 	.byte	29
0000148b 00000000*      6169 	.word	.LDW63
0000148f 00000000*      6170 	.word	.LDW73
                        6171 
                        6172 .LDW_55c7d20:
00001493 04             6173 	.byte	4
00001494 756352657175   6174 	.strz	"ucRequestResult"
0000149a 657374526573 
000014a0 756c7400 
000014a4 da02           6175 	.byte	218,2
000014a6 19             6176 	.byte	25
000014a7 01             6177 	.byte	1
000014a8 00000000*      6178 	.word	.LDW_54d4358
000014ac 00             6179 	.byte	0
000014ad 00             6180 	.byte	0
000014ae 0273           6181 	.byte	2,115
000014b0 03             6182 	.byte	3
                        6183 
000014b1 00             6184 	.byte	0
                        6185 
000014b2 00             6186 	.byte	0
                        6187 
                        6188 .LDW_55ccac8:
000014b3 13             6189 	.byte	19
000014b4 4d656d737461   6190 	.strz	"Memstack_Appl_JobEndCallback_CAT08"
000014ba 636b5f417070 
000014c0 6c5f4a6f6245 
000014c6 6e6443616c6c 
000014cc 6261636b5f43 
000014d2 4154303800 
000014d7 e202           6191 	.byte	226,2
000014d9 0d             6192 	.byte	13
000014da 01             6193 	.byte	1

                                                                      Page 127
                                                              C:\Users\nhuliyap\AppData\Local\Temp\gh_0000d8g1.s
000014db 00000000*      6194 	.word	_Memstack_Appl_JobEndCallback_CAT08
000014df 00000000*      6195 	.word	___ghs_eofn_Memstack_Appl_JobEndCallback_CAT08
000014e3 0153           6196 	.byte	1,83
000014e5 828080800a     6197 	.byte	130,128,128,128,10
000014ea 08             6198 	.byte	8
000014eb 03             6199 	.byte	3
000014ec 0c             6200 	.byte	12
000014ed 00             6201 	.byte	0
000014ee 00             6202 	.byte	0
000014ef 00             6203 	.byte	0
000014f0 01             6204 	.byte	1
000014f1 01             6205 	.byte	1
000014f2 00             6206 	.byte	0
000014f3 01             6207 	.byte	1
                        6208 
                        6209 	.section	.debug_frame
                        6210 .LDW_51df590:
00000208 00000000*      6211 	.word	.LDW_unq_20-.LDW_unq_1f
                        6212 .LDW_unq_1f:
0000020c 00000000*      6213 	.word	.LDW_54e7820
00000210 00000000*      6214 	.word	_Memstack_Appl_JobEndCallback_CAT08
00000214 00000000*      6215 	.word	___ghs_eofn_Memstack_Appl_JobEndCallback_CAT08-_Memstack_Appl_JobEndCallback_CAT08
00000218 44             6216 	.byte	68
00000219 9f             6217 	.byte	159
0000021a 03             6218 	.byte	3
0000021b 40             6219 	.byte	64
0000021c 9d             6220 	.byte	157
0000021d 07             6221 	.byte	7
0000021e 01             6222 	.byte	1
0000021f 00000000*      6223 	.word	.LDW93
00000223 00             6224 	.byte	0
                        6225 .LDW_unq_20:
                        6226 	.section	.debug_line
00001945 000502         6227 	.byte	0,5,2
00001948 00000000*      6228 	.word	_Memstack_Appl_JobEndCallback_CAT08
0000194c 03             6229 	.byte	3
0000194d e102           6230 	.byte	225,2
0000194f 02             6231 	.byte	2
00001950 00             6232 	.byte	0
00001951 01             6233 	.byte	1
00001952 06             6234 	.byte	6
00001953 000502         6235 	.byte	0,5,2
00001956 00000000*      6236 	.word	.LDWlin100
0000195a 0c             6237 	.byte	12
0000195b 000502         6238 	.byte	0,5,2
0000195e 00000000*      6239 	.word	.LDWlin101
00001962 0b             6240 	.byte	11
00001963 000502         6241 	.byte	0,5,2
00001966 00000000*      6242 	.word	.LDWlin102
0000196a 0b             6243 	.byte	11
0000196b 0b             6244 	.byte	11
0000196c 1b             6245 	.byte	27
0000196d 02             6246 	.byte	2
0000196e 00             6247 	.byte	0
0000196f 0b             6248 	.byte	11
00001970 02             6249 	.byte	2
00001971 04             6250 	.byte	4
00001972 000101         6251 	.byte	0,1,1
                        6252 	.section	.debug_info
                        6253 .LDW_55cac48:
000014f4 1d             6254 	.byte	29

                                                                      Page 128
                                                              C:\Users\nhuliyap\AppData\Local\Temp\gh_0000d8g1.s
000014f5 00000000*      6255 	.word	.LDW83
000014f9 00000000*      6256 	.word	.LDW93
                        6257 
                        6258 .LDW_55c7a60:
000014fd 04             6259 	.byte	4
000014fe 756352657175   6260 	.strz	"ucRequestResult"
00001504 657374526573 
0000150a 756c7400 
0000150e e302           6261 	.byte	227,2
00001510 19             6262 	.byte	25
00001511 01             6263 	.byte	1
00001512 00000000*      6264 	.word	.LDW_54d4358
00001516 00             6265 	.byte	0
00001517 00             6266 	.byte	0
00001518 0273           6267 	.byte	2,115
0000151a 03             6268 	.byte	3
                        6269 
0000151b 00             6270 	.byte	0
                        6271 
0000151c 00             6272 	.byte	0
                        6273 
                        6274 .LDW_55cbd20:
0000151d 13             6275 	.byte	19
0000151e 4d656d737461   6276 	.strz	"Memstack_Appl_JobEndCallback_CAT09"
00001524 636b5f417070 
0000152a 6c5f4a6f6245 
00001530 6e6443616c6c 
00001536 6261636b5f43 
0000153c 4154303900 
00001541 eb02           6277 	.byte	235,2
00001543 0d             6278 	.byte	13
00001544 01             6279 	.byte	1
00001545 00000000*      6280 	.word	_Memstack_Appl_JobEndCallback_CAT09
00001549 00000000*      6281 	.word	___ghs_eofn_Memstack_Appl_JobEndCallback_CAT09
0000154d 0153           6282 	.byte	1,83
0000154f 828080800a     6283 	.byte	130,128,128,128,10
00001554 08             6284 	.byte	8
00001555 03             6285 	.byte	3
00001556 0c             6286 	.byte	12
00001557 00             6287 	.byte	0
00001558 00             6288 	.byte	0
00001559 00             6289 	.byte	0
0000155a 01             6290 	.byte	1
0000155b 01             6291 	.byte	1
0000155c 00             6292 	.byte	0
0000155d 01             6293 	.byte	1
                        6294 
                        6295 	.section	.debug_frame
                        6296 .LDW_51df290:
00000224 00000000*      6297 	.word	.LDW_unq_22-.LDW_unq_21
                        6298 .LDW_unq_21:
00000228 00000000*      6299 	.word	.LDW_54e7820
0000022c 00000000*      6300 	.word	_Memstack_Appl_JobEndCallback_CAT09
00000230 00000000*      6301 	.word	___ghs_eofn_Memstack_Appl_JobEndCallback_CAT09-_Memstack_Appl_JobEndCallback_CAT09
00000234 44             6302 	.byte	68
00000235 9f             6303 	.byte	159
00000236 03             6304 	.byte	3
00000237 40             6305 	.byte	64
00000238 9d             6306 	.byte	157
00000239 07             6307 	.byte	7
0000023a 01             6308 	.byte	1

                                                                      Page 129
                                                              C:\Users\nhuliyap\AppData\Local\Temp\gh_0000d8g1.s
0000023b 00000000*      6309 	.word	.LDW14
0000023f 00             6310 	.byte	0
                        6311 .LDW_unq_22:
                        6312 	.section	.debug_line
00001975 000502         6313 	.byte	0,5,2
00001978 00000000*      6314 	.word	_Memstack_Appl_JobEndCallback_CAT09
0000197c 03             6315 	.byte	3
0000197d ea02           6316 	.byte	234,2
0000197f 02             6317 	.byte	2
00001980 00             6318 	.byte	0
00001981 01             6319 	.byte	1
00001982 06             6320 	.byte	6
00001983 000502         6321 	.byte	0,5,2
00001986 00000000*      6322 	.word	.LDWlin103
0000198a 0c             6323 	.byte	12
0000198b 000502         6324 	.byte	0,5,2
0000198e 00000000*      6325 	.word	.LDWlin104
00001992 0b             6326 	.byte	11
00001993 000502         6327 	.byte	0,5,2
00001996 00000000*      6328 	.word	.LDWlin105
0000199a 0b             6329 	.byte	11
0000199b 0b             6330 	.byte	11
0000199c 1b             6331 	.byte	27
0000199d 02             6332 	.byte	2
0000199e 00             6333 	.byte	0
0000199f 0b             6334 	.byte	11
000019a0 02             6335 	.byte	2
000019a1 04             6336 	.byte	4
000019a2 000101         6337 	.byte	0,1,1
                        6338 	.section	.debug_info
                        6339 .LDW_55caa98:
0000155e 1d             6340 	.byte	29
0000155f 00000000*      6341 	.word	.LDW04
00001563 00000000*      6342 	.word	.LDW14
                        6343 
                        6344 .LDW_55c7850:
00001567 04             6345 	.byte	4
00001568 756352657175   6346 	.strz	"ucRequestResult"
0000156e 657374526573 
00001574 756c7400 
00001578 ec02           6347 	.byte	236,2
0000157a 19             6348 	.byte	25
0000157b 01             6349 	.byte	1
0000157c 00000000*      6350 	.word	.LDW_54d4358
00001580 00             6351 	.byte	0
00001581 00             6352 	.byte	0
00001582 0273           6353 	.byte	2,115
00001584 03             6354 	.byte	3
                        6355 
00001585 00             6356 	.byte	0
                        6357 
00001586 00             6358 	.byte	0
                        6359 
                        6360 .LDW_55cc4d8:
00001587 13             6361 	.byte	19
00001588 4d656d737461   6362 	.strz	"Memstack_Appl_JobEndCallback_CAT10"
0000158e 636b5f417070 
00001594 6c5f4a6f6245 
0000159a 6e6443616c6c 
000015a0 6261636b5f43 
000015a6 4154313000 

                                                                      Page 130
                                                              C:\Users\nhuliyap\AppData\Local\Temp\gh_0000d8g1.s
000015ab f402           6363 	.byte	244,2
000015ad 0d             6364 	.byte	13
000015ae 01             6365 	.byte	1
000015af 00000000*      6366 	.word	_Memstack_Appl_JobEndCallback_CAT10
000015b3 00000000*      6367 	.word	___ghs_eofn_Memstack_Appl_JobEndCallback_CAT10
000015b7 0153           6368 	.byte	1,83
000015b9 828080800a     6369 	.byte	130,128,128,128,10
000015be 08             6370 	.byte	8
000015bf 03             6371 	.byte	3
000015c0 0c             6372 	.byte	12
000015c1 00             6373 	.byte	0
000015c2 00             6374 	.byte	0
000015c3 00             6375 	.byte	0
000015c4 01             6376 	.byte	1
000015c5 01             6377 	.byte	1
000015c6 00             6378 	.byte	0
000015c7 01             6379 	.byte	1
                        6380 
                        6381 	.section	.debug_frame
                        6382 .LDW_51df5d0:
00000240 00000000*      6383 	.word	.LDW_unq_24-.LDW_unq_23
                        6384 .LDW_unq_23:
00000244 00000000*      6385 	.word	.LDW_54e7820
00000248 00000000*      6386 	.word	_Memstack_Appl_JobEndCallback_CAT10
0000024c 00000000*      6387 	.word	___ghs_eofn_Memstack_Appl_JobEndCallback_CAT10-_Memstack_Appl_JobEndCallback_CAT10
00000250 44             6388 	.byte	68
00000251 9f             6389 	.byte	159
00000252 03             6390 	.byte	3
00000253 40             6391 	.byte	64
00000254 9d             6392 	.byte	157
00000255 07             6393 	.byte	7
00000256 01             6394 	.byte	1
00000257 00000000*      6395 	.word	.LDW34
0000025b 00             6396 	.byte	0
                        6397 .LDW_unq_24:
                        6398 	.section	.debug_line
000019a5 000502         6399 	.byte	0,5,2
000019a8 00000000*      6400 	.word	_Memstack_Appl_JobEndCallback_CAT10
000019ac 03             6401 	.byte	3
000019ad f302           6402 	.byte	243,2
000019af 02             6403 	.byte	2
000019b0 00             6404 	.byte	0
000019b1 01             6405 	.byte	1
000019b2 06             6406 	.byte	6
000019b3 000502         6407 	.byte	0,5,2
000019b6 00000000*      6408 	.word	.LDWlin106
000019ba 0c             6409 	.byte	12
000019bb 000502         6410 	.byte	0,5,2
000019be 00000000*      6411 	.word	.LDWlin107
000019c2 0b             6412 	.byte	11
000019c3 000502         6413 	.byte	0,5,2
000019c6 00000000*      6414 	.word	.LDWlin108
000019ca 0b             6415 	.byte	11
000019cb 0b             6416 	.byte	11
000019cc 1b             6417 	.byte	27
000019cd 02             6418 	.byte	2
000019ce 00             6419 	.byte	0
000019cf 0b             6420 	.byte	11
000019d0 02             6421 	.byte	2
000019d1 04             6422 	.byte	4
000019d2 000101         6423 	.byte	0,1,1

                                                                      Page 131
                                                              C:\Users\nhuliyap\AppData\Local\Temp\gh_0000d8g1.s
                        6424 	.section	.debug_info
                        6425 .LDW_55caac8:
000015c8 1d             6426 	.byte	29
000015c9 00000000*      6427 	.word	.LDW24
000015cd 00000000*      6428 	.word	.LDW34
                        6429 
                        6430 .LDW_55c7b10:
000015d1 04             6431 	.byte	4
000015d2 756352657175   6432 	.strz	"ucRequestResult"
000015d8 657374526573 
000015de 756c7400 
000015e2 f502           6433 	.byte	245,2
000015e4 19             6434 	.byte	25
000015e5 01             6435 	.byte	1
000015e6 00000000*      6436 	.word	.LDW_54d4358
000015ea 00             6437 	.byte	0
000015eb 00             6438 	.byte	0
000015ec 0273           6439 	.byte	2,115
000015ee 03             6440 	.byte	3
                        6441 
000015ef 00             6442 	.byte	0
                        6443 
000015f0 00             6444 	.byte	0
                        6445 
                        6446 .LDW_55cbbf0:
000015f1 13             6447 	.byte	19
000015f2 4d656d737461   6448 	.strz	"Memstack_Appl_JobEndCallback_DemNvm_IdEvStatusByte"
000015f8 636b5f417070 
000015fe 6c5f4a6f6245 
00001604 6e6443616c6c 
0000160a 6261636b5f44 
00001610 656d4e766d5f 
00001616 496445765374 
0000161c 617475734279 
00001622 746500 
00001625 fd02           6449 	.byte	253,2
00001627 0d             6450 	.byte	13
00001628 01             6451 	.byte	1
00001629 00000000*      6452 	.word	_Memstack_Appl_JobEndCallback_DemNvm_IdEvStatusByte
0000162d 00000000*      6453 	.word	___ghs_eofn_Memstack_Appl_JobEndCallback_DemNvm_IdEvStatusByte
00001631 0153           6454 	.byte	1,83
00001633 828080800a     6455 	.byte	130,128,128,128,10
00001638 08             6456 	.byte	8
00001639 03             6457 	.byte	3
0000163a 0c             6458 	.byte	12
0000163b 00             6459 	.byte	0
0000163c 00             6460 	.byte	0
0000163d 00             6461 	.byte	0
0000163e 01             6462 	.byte	1
0000163f 01             6463 	.byte	1
00001640 00             6464 	.byte	0
00001641 01             6465 	.byte	1
                        6466 
                        6467 	.section	.debug_frame
                        6468 .LDW_51df250:
0000025c 00000000*      6469 	.word	.LDW_unq_26-.LDW_unq_25
                        6470 .LDW_unq_25:
00000260 00000000*      6471 	.word	.LDW_54e7820
00000264 00000000*      6472 	.word	_Memstack_Appl_JobEndCallback_DemNvm_IdEvStatusByte
00000268 00000000*      6473 	.word	___ghs_eofn_Memstack_Appl_JobEndCallback_DemNvm_IdEvStatusByte-_Memstack_Appl_JobEndCallback_DemNvm_IdEvStatusByte
0000026c 44             6474 	.byte	68

                                                                      Page 132
                                                              C:\Users\nhuliyap\AppData\Local\Temp\gh_0000d8g1.s
0000026d 9f             6475 	.byte	159
0000026e 03             6476 	.byte	3
0000026f 40             6477 	.byte	64
00000270 9d             6478 	.byte	157
00000271 07             6479 	.byte	7
00000272 01             6480 	.byte	1
00000273 00000000*      6481 	.word	.LDW54
00000277 00             6482 	.byte	0
                        6483 .LDW_unq_26:
                        6484 	.section	.debug_line
000019d5 000502         6485 	.byte	0,5,2
000019d8 00000000*      6486 	.word	_Memstack_Appl_JobEndCallback_DemNvm_IdEvStatusByte
000019dc 03             6487 	.byte	3
000019dd fc02           6488 	.byte	252,2
000019df 02             6489 	.byte	2
000019e0 00             6490 	.byte	0
000019e1 01             6491 	.byte	1
000019e2 06             6492 	.byte	6
000019e3 000502         6493 	.byte	0,5,2
000019e6 00000000*      6494 	.word	.LDWlin109
000019ea 0c             6495 	.byte	12
000019eb 000502         6496 	.byte	0,5,2
000019ee 00000000*      6497 	.word	.LDWlin110
000019f2 0b             6498 	.byte	11
000019f3 000502         6499 	.byte	0,5,2
000019f6 00000000*      6500 	.word	.LDWlin111
000019fa 0b             6501 	.byte	11
000019fb 0b             6502 	.byte	11
000019fc 1b             6503 	.byte	27
000019fd 02             6504 	.byte	2
000019fe 00             6505 	.byte	0
000019ff 0b             6506 	.byte	11
00001a00 02             6507 	.byte	2
00001a01 04             6508 	.byte	4
00001a02 000101         6509 	.byte	0,1,1
                        6510 	.section	.debug_info
                        6511 .LDW_55cad68:
00001642 1d             6512 	.byte	29
00001643 00000000*      6513 	.word	.LDW44
00001647 00000000*      6514 	.word	.LDW54
                        6515 
                        6516 .LDW_55c7ab8:
0000164b 04             6517 	.byte	4
0000164c 756352657175   6518 	.strz	"ucRequestResult"
00001652 657374526573 
00001658 756c7400 
0000165c fe02           6519 	.byte	254,2
0000165e 19             6520 	.byte	25
0000165f 01             6521 	.byte	1
00001660 00000000*      6522 	.word	.LDW_54d4358
00001664 00             6523 	.byte	0
00001665 00             6524 	.byte	0
00001666 0273           6525 	.byte	2,115
00001668 03             6526 	.byte	3
                        6527 
00001669 00             6528 	.byte	0
                        6529 
0000166a 00             6530 	.byte	0
                        6531 
                        6532 .LDW_55cc0b0:
0000166b 13             6533 	.byte	19

                                                                      Page 133
                                                              C:\Users\nhuliyap\AppData\Local\Temp\gh_0000d8g1.s
0000166c 4d656d737461   6534 	.strz	"Memstack_Appl_JobEndCallback_DemNvm_IdEvMemLoc0"
00001672 636b5f417070 
00001678 6c5f4a6f6245 
0000167e 6e6443616c6c 
00001684 6261636b5f44 
0000168a 656d4e766d5f 
00001690 496445764d65 
00001696 6d4c6f633000 
0000169c 8603           6535 	.byte	134,3
0000169e 0d             6536 	.byte	13
0000169f 01             6537 	.byte	1
000016a0 00000000*      6538 	.word	_Memstack_Appl_JobEndCallback_DemNvm_IdEvMemLoc0
000016a4 00000000*      6539 	.word	___ghs_eofn_Memstack_Appl_JobEndCallback_DemNvm_IdEvMemLoc0
000016a8 0153           6540 	.byte	1,83
000016aa 828080800a     6541 	.byte	130,128,128,128,10
000016af 08             6542 	.byte	8
000016b0 03             6543 	.byte	3
000016b1 0c             6544 	.byte	12
000016b2 00             6545 	.byte	0
000016b3 00             6546 	.byte	0
000016b4 00             6547 	.byte	0
000016b5 01             6548 	.byte	1
000016b6 01             6549 	.byte	1
000016b7 00             6550 	.byte	0
000016b8 01             6551 	.byte	1
                        6552 
                        6553 	.section	.debug_frame
                        6554 .LDW_51df890:
00000278 00000000*      6555 	.word	.LDW_unq_28-.LDW_unq_27
                        6556 .LDW_unq_27:
0000027c 00000000*      6557 	.word	.LDW_54e7820
00000280 00000000*      6558 	.word	_Memstack_Appl_JobEndCallback_DemNvm_IdEvMemLoc0
00000284 00000000*      6559 	.word	___ghs_eofn_Memstack_Appl_JobEndCallback_DemNvm_IdEvMemLoc0-_Memstack_Appl_JobEndCallback_DemNvm_IdEvMemLoc0
00000288 44             6560 	.byte	68
00000289 9f             6561 	.byte	159
0000028a 03             6562 	.byte	3
0000028b 40             6563 	.byte	64
0000028c 9d             6564 	.byte	157
0000028d 07             6565 	.byte	7
0000028e 01             6566 	.byte	1
0000028f 00000000*      6567 	.word	.LDW74
00000293 00             6568 	.byte	0
                        6569 .LDW_unq_28:
                        6570 	.section	.debug_line
00001a05 000502         6571 	.byte	0,5,2
00001a08 00000000*      6572 	.word	_Memstack_Appl_JobEndCallback_DemNvm_IdEvMemLoc0
00001a0c 03             6573 	.byte	3
00001a0d 8503           6574 	.byte	133,3
00001a0f 02             6575 	.byte	2
00001a10 00             6576 	.byte	0
00001a11 01             6577 	.byte	1
00001a12 06             6578 	.byte	6
00001a13 000502         6579 	.byte	0,5,2
00001a16 00000000*      6580 	.word	.LDWlin112
00001a1a 0c             6581 	.byte	12
00001a1b 000502         6582 	.byte	0,5,2
00001a1e 00000000*      6583 	.word	.LDWlin113
00001a22 0b             6584 	.byte	11
00001a23 000502         6585 	.byte	0,5,2
00001a26 00000000*      6586 	.word	.LDWlin114
00001a2a 0b             6587 	.byte	11

                                                                      Page 134
                                                              C:\Users\nhuliyap\AppData\Local\Temp\gh_0000d8g1.s
00001a2b 0b             6588 	.byte	11
00001a2c 1b             6589 	.byte	27
00001a2d 02             6590 	.byte	2
00001a2e 00             6591 	.byte	0
00001a2f 0b             6592 	.byte	11
00001a30 02             6593 	.byte	2
00001a31 04             6594 	.byte	4
00001a32 000101         6595 	.byte	0,1,1
                        6596 	.section	.debug_info
                        6597 .LDW_55cad08:
000016b9 1d             6598 	.byte	29
000016ba 00000000*      6599 	.word	.LDW64
000016be 00000000*      6600 	.word	.LDW74
                        6601 
                        6602 .LDW_55c8198:
000016c2 04             6603 	.byte	4
000016c3 756352657175   6604 	.strz	"ucRequestResult"
000016c9 657374526573 
000016cf 756c7400 
000016d3 8703           6605 	.byte	135,3
000016d5 19             6606 	.byte	25
000016d6 01             6607 	.byte	1
000016d7 00000000*      6608 	.word	.LDW_54d4358
000016db 00             6609 	.byte	0
000016dc 00             6610 	.byte	0
000016dd 0273           6611 	.byte	2,115
000016df 03             6612 	.byte	3
                        6613 
000016e0 00             6614 	.byte	0
                        6615 
000016e1 00             6616 	.byte	0
                        6617 
                        6618 .LDW_55cb860:
000016e2 13             6619 	.byte	19
000016e3 4d656d737461   6620 	.strz	"Memstack_Appl_JobEndCallback_DemNvm_IdEvMemLoc1"
000016e9 636b5f417070 
000016ef 6c5f4a6f6245 
000016f5 6e6443616c6c 
000016fb 6261636b5f44 
00001701 656d4e766d5f 
00001707 496445764d65 
0000170d 6d4c6f633100 
00001713 8f03           6621 	.byte	143,3
00001715 0d             6622 	.byte	13
00001716 01             6623 	.byte	1
00001717 00000000*      6624 	.word	_Memstack_Appl_JobEndCallback_DemNvm_IdEvMemLoc1
0000171b 00000000*      6625 	.word	___ghs_eofn_Memstack_Appl_JobEndCallback_DemNvm_IdEvMemLoc1
0000171f 0153           6626 	.byte	1,83
00001721 828080800a     6627 	.byte	130,128,128,128,10
00001726 08             6628 	.byte	8
00001727 03             6629 	.byte	3
00001728 0c             6630 	.byte	12
00001729 00             6631 	.byte	0
0000172a 00             6632 	.byte	0
0000172b 00             6633 	.byte	0
0000172c 01             6634 	.byte	1
0000172d 01             6635 	.byte	1
0000172e 00             6636 	.byte	0
0000172f 01             6637 	.byte	1
                        6638 
                        6639 	.section	.debug_frame

                                                                      Page 135
                                                              C:\Users\nhuliyap\AppData\Local\Temp\gh_0000d8g1.s
                        6640 .LDW_51df390:
00000294 00000000*      6641 	.word	.LDW_unq_2a-.LDW_unq_29
                        6642 .LDW_unq_29:
00000298 00000000*      6643 	.word	.LDW_54e7820
0000029c 00000000*      6644 	.word	_Memstack_Appl_JobEndCallback_DemNvm_IdEvMemLoc1
000002a0 00000000*      6645 	.word	___ghs_eofn_Memstack_Appl_JobEndCallback_DemNvm_IdEvMemLoc1-_Memstack_Appl_JobEndCallback_DemNvm_IdEvMemLoc1
000002a4 44             6646 	.byte	68
000002a5 9f             6647 	.byte	159
000002a6 03             6648 	.byte	3
000002a7 40             6649 	.byte	64
000002a8 9d             6650 	.byte	157
000002a9 07             6651 	.byte	7
000002aa 01             6652 	.byte	1
000002ab 00000000*      6653 	.word	.LDW94
000002af 00             6654 	.byte	0
                        6655 .LDW_unq_2a:
                        6656 	.section	.debug_line
00001a35 000502         6657 	.byte	0,5,2
00001a38 00000000*      6658 	.word	_Memstack_Appl_JobEndCallback_DemNvm_IdEvMemLoc1
00001a3c 03             6659 	.byte	3
00001a3d 8e03           6660 	.byte	142,3
00001a3f 02             6661 	.byte	2
00001a40 00             6662 	.byte	0
00001a41 01             6663 	.byte	1
00001a42 06             6664 	.byte	6
00001a43 000502         6665 	.byte	0,5,2
00001a46 00000000*      6666 	.word	.LDWlin115
00001a4a 0c             6667 	.byte	12
00001a4b 000502         6668 	.byte	0,5,2
00001a4e 00000000*      6669 	.word	.LDWlin116
00001a52 0b             6670 	.byte	11
00001a53 000502         6671 	.byte	0,5,2
00001a56 00000000*      6672 	.word	.LDWlin117
00001a5a 0b             6673 	.byte	11
00001a5b 0b             6674 	.byte	11
00001a5c 1b             6675 	.byte	27
00001a5d 02             6676 	.byte	2
00001a5e 00             6677 	.byte	0
00001a5f 0b             6678 	.byte	11
00001a60 02             6679 	.byte	2
00001a61 04             6680 	.byte	4
00001a62 000101         6681 	.byte	0,1,1
                        6682 	.section	.debug_info
                        6683 .LDW_55cb038:
00001730 1d             6684 	.byte	29
00001731 00000000*      6685 	.word	.LDW84
00001735 00000000*      6686 	.word	.LDW94
                        6687 
                        6688 .LDW_55c78a8:
00001739 04             6689 	.byte	4
0000173a 756352657175   6690 	.strz	"ucRequestResult"
00001740 657374526573 
00001746 756c7400 
0000174a 9003           6691 	.byte	144,3
0000174c 19             6692 	.byte	25
0000174d 01             6693 	.byte	1
0000174e 00000000*      6694 	.word	.LDW_54d4358
00001752 00             6695 	.byte	0
00001753 00             6696 	.byte	0
00001754 0273           6697 	.byte	2,115
00001756 03             6698 	.byte	3

                                                                      Page 136
                                                              C:\Users\nhuliyap\AppData\Local\Temp\gh_0000d8g1.s
                        6699 
00001757 00             6700 	.byte	0
                        6701 
00001758 00             6702 	.byte	0
                        6703 
                        6704 .LDW_55cc7d0:
00001759 13             6705 	.byte	19
0000175a 4d656d737461   6706 	.strz	"Memstack_Appl_JobEndCallback_DemNvm_IdEvMemLoc2"
00001760 636b5f417070 
00001766 6c5f4a6f6245 
0000176c 6e6443616c6c 
00001772 6261636b5f44 
00001778 656d4e766d5f 
0000177e 496445764d65 
00001784 6d4c6f633200 
0000178a 9803           6707 	.byte	152,3
0000178c 0d             6708 	.byte	13
0000178d 01             6709 	.byte	1
0000178e 00000000*      6710 	.word	_Memstack_Appl_JobEndCallback_DemNvm_IdEvMemLoc2
00001792 00000000*      6711 	.word	___ghs_eofn_Memstack_Appl_JobEndCallback_DemNvm_IdEvMemLoc2
00001796 0153           6712 	.byte	1,83
00001798 828080800a     6713 	.byte	130,128,128,128,10
0000179d 08             6714 	.byte	8
0000179e 03             6715 	.byte	3
0000179f 0c             6716 	.byte	12
000017a0 00             6717 	.byte	0
000017a1 00             6718 	.byte	0
000017a2 00             6719 	.byte	0
000017a3 01             6720 	.byte	1
000017a4 01             6721 	.byte	1
000017a5 00             6722 	.byte	0
000017a6 01             6723 	.byte	1
                        6724 
                        6725 	.section	.debug_frame
                        6726 .LDW_51df190:
000002b0 00000000*      6727 	.word	.LDW_unq_2c-.LDW_unq_2b
                        6728 .LDW_unq_2b:
000002b4 00000000*      6729 	.word	.LDW_54e7820
000002b8 00000000*      6730 	.word	_Memstack_Appl_JobEndCallback_DemNvm_IdEvMemLoc2
000002bc 00000000*      6731 	.word	___ghs_eofn_Memstack_Appl_JobEndCallback_DemNvm_IdEvMemLoc2-_Memstack_Appl_JobEndCallback_DemNvm_IdEvMemLoc2
000002c0 44             6732 	.byte	68
000002c1 9f             6733 	.byte	159
000002c2 03             6734 	.byte	3
000002c3 40             6735 	.byte	64
000002c4 9d             6736 	.byte	157
000002c5 07             6737 	.byte	7
000002c6 01             6738 	.byte	1
000002c7 00000000*      6739 	.word	.LDW15
000002cb 00             6740 	.byte	0
                        6741 .LDW_unq_2c:
                        6742 	.section	.debug_line
00001a65 000502         6743 	.byte	0,5,2
00001a68 00000000*      6744 	.word	_Memstack_Appl_JobEndCallback_DemNvm_IdEvMemLoc2
00001a6c 03             6745 	.byte	3
00001a6d 9703           6746 	.byte	151,3
00001a6f 02             6747 	.byte	2
00001a70 00             6748 	.byte	0
00001a71 01             6749 	.byte	1
00001a72 06             6750 	.byte	6
00001a73 000502         6751 	.byte	0,5,2
00001a76 00000000*      6752 	.word	.LDWlin118

                                                                      Page 137
                                                              C:\Users\nhuliyap\AppData\Local\Temp\gh_0000d8g1.s
00001a7a 0c             6753 	.byte	12
00001a7b 000502         6754 	.byte	0,5,2
00001a7e 00000000*      6755 	.word	.LDWlin119
00001a82 0b             6756 	.byte	11
00001a83 000502         6757 	.byte	0,5,2
00001a86 00000000*      6758 	.word	.LDWlin120
00001a8a 0b             6759 	.byte	11
00001a8b 0b             6760 	.byte	11
00001a8c 1b             6761 	.byte	27
00001a8d 02             6762 	.byte	2
00001a8e 00             6763 	.byte	0
00001a8f 0b             6764 	.byte	11
00001a90 02             6765 	.byte	2
00001a91 04             6766 	.byte	4
00001a92 000101         6767 	.byte	0,1,1
                        6768 	.section	.debug_info
                        6769 .LDW_55caa68:
000017a7 1d             6770 	.byte	29
000017a8 00000000*      6771 	.word	.LDW05
000017ac 00000000*      6772 	.word	.LDW15
                        6773 
                        6774 .LDW_55c81f0:
000017b0 04             6775 	.byte	4
000017b1 756352657175   6776 	.strz	"ucRequestResult"
000017b7 657374526573 
000017bd 756c7400 
000017c1 9903           6777 	.byte	153,3
000017c3 19             6778 	.byte	25
000017c4 01             6779 	.byte	1
000017c5 00000000*      6780 	.word	.LDW_54d4358
000017c9 00             6781 	.byte	0
000017ca 00             6782 	.byte	0
000017cb 0273           6783 	.byte	2,115
000017cd 03             6784 	.byte	3
                        6785 
000017ce 00             6786 	.byte	0
                        6787 
000017cf 00             6788 	.byte	0
                        6789 
                        6790 .LDW_55cc148:
000017d0 13             6791 	.byte	19
000017d1 4d656d737461   6792 	.strz	"Memstack_Appl_JobEndCallback_DemNvm_IdEvMemLoc3"
000017d7 636b5f417070 
000017dd 6c5f4a6f6245 
000017e3 6e6443616c6c 
000017e9 6261636b5f44 
000017ef 656d4e766d5f 
000017f5 496445764d65 
000017fb 6d4c6f633300 
00001801 a103           6793 	.byte	161,3
00001803 0d             6794 	.byte	13
00001804 01             6795 	.byte	1
00001805 00000000*      6796 	.word	_Memstack_Appl_JobEndCallback_DemNvm_IdEvMemLoc3
00001809 00000000*      6797 	.word	___ghs_eofn_Memstack_Appl_JobEndCallback_DemNvm_IdEvMemLoc3
0000180d 0153           6798 	.byte	1,83
0000180f 828080800a     6799 	.byte	130,128,128,128,10
00001814 08             6800 	.byte	8
00001815 03             6801 	.byte	3
00001816 0c             6802 	.byte	12
00001817 00             6803 	.byte	0
00001818 00             6804 	.byte	0

                                                                      Page 138
                                                              C:\Users\nhuliyap\AppData\Local\Temp\gh_0000d8g1.s
00001819 00             6805 	.byte	0
0000181a 01             6806 	.byte	1
0000181b 01             6807 	.byte	1
0000181c 00             6808 	.byte	0
0000181d 01             6809 	.byte	1
                        6810 
                        6811 	.section	.debug_frame
                        6812 .LDW_51df450:
000002cc 00000000*      6813 	.word	.LDW_unq_2e-.LDW_unq_2d
                        6814 .LDW_unq_2d:
000002d0 00000000*      6815 	.word	.LDW_54e7820
000002d4 00000000*      6816 	.word	_Memstack_Appl_JobEndCallback_DemNvm_IdEvMemLoc3
000002d8 00000000*      6817 	.word	___ghs_eofn_Memstack_Appl_JobEndCallback_DemNvm_IdEvMemLoc3-_Memstack_Appl_JobEndCallback_DemNvm_IdEvMemLoc3
000002dc 44             6818 	.byte	68
000002dd 9f             6819 	.byte	159
000002de 03             6820 	.byte	3
000002df 40             6821 	.byte	64
000002e0 9d             6822 	.byte	157
000002e1 07             6823 	.byte	7
000002e2 01             6824 	.byte	1
000002e3 00000000*      6825 	.word	.LDW35
000002e7 00             6826 	.byte	0
                        6827 .LDW_unq_2e:
                        6828 	.section	.debug_line
00001a95 000502         6829 	.byte	0,5,2
00001a98 00000000*      6830 	.word	_Memstack_Appl_JobEndCallback_DemNvm_IdEvMemLoc3
00001a9c 03             6831 	.byte	3
00001a9d a003           6832 	.byte	160,3
00001a9f 02             6833 	.byte	2
00001aa0 00             6834 	.byte	0
00001aa1 01             6835 	.byte	1
00001aa2 06             6836 	.byte	6
00001aa3 000502         6837 	.byte	0,5,2
00001aa6 00000000*      6838 	.word	.LDWlin121
00001aaa 0c             6839 	.byte	12
00001aab 000502         6840 	.byte	0,5,2
00001aae 00000000*      6841 	.word	.LDWlin122
00001ab2 0b             6842 	.byte	11
00001ab3 000502         6843 	.byte	0,5,2
00001ab6 00000000*      6844 	.word	.LDWlin123
00001aba 0b             6845 	.byte	11
00001abb 0b             6846 	.byte	11
00001abc 1b             6847 	.byte	27
00001abd 02             6848 	.byte	2
00001abe 00             6849 	.byte	0
00001abf 0b             6850 	.byte	11
00001ac0 02             6851 	.byte	2
00001ac1 04             6852 	.byte	4
00001ac2 000101         6853 	.byte	0,1,1
                        6854 	.section	.debug_info
                        6855 .LDW_55cac78:
0000181e 1d             6856 	.byte	29
0000181f 00000000*      6857 	.word	.LDW25
00001823 00000000*      6858 	.word	.LDW35
                        6859 
                        6860 .LDW_55c7f88:
00001827 04             6861 	.byte	4
00001828 756352657175   6862 	.strz	"ucRequestResult"
0000182e 657374526573 
00001834 756c7400 
00001838 a203           6863 	.byte	162,3

                                                                      Page 139
                                                              C:\Users\nhuliyap\AppData\Local\Temp\gh_0000d8g1.s
0000183a 19             6864 	.byte	25
0000183b 01             6865 	.byte	1
0000183c 00000000*      6866 	.word	.LDW_54d4358
00001840 00             6867 	.byte	0
00001841 00             6868 	.byte	0
00001842 0273           6869 	.byte	2,115
00001844 03             6870 	.byte	3
                        6871 
00001845 00             6872 	.byte	0
                        6873 
00001846 00             6874 	.byte	0
                        6875 
                        6876 .LDW_55cc1e0:
00001847 13             6877 	.byte	19
00001848 4d656d737461   6878 	.strz	"Memstack_Appl_JobEndCallback_DemNvm_IdEvMemLoc4"
0000184e 636b5f417070 
00001854 6c5f4a6f6245 
0000185a 6e6443616c6c 
00001860 6261636b5f44 
00001866 656d4e766d5f 
0000186c 496445764d65 
00001872 6d4c6f633400 
00001878 aa03           6879 	.byte	170,3
0000187a 0d             6880 	.byte	13
0000187b 01             6881 	.byte	1
0000187c 00000000*      6882 	.word	_Memstack_Appl_JobEndCallback_DemNvm_IdEvMemLoc4
00001880 00000000*      6883 	.word	___ghs_eofn_Memstack_Appl_JobEndCallback_DemNvm_IdEvMemLoc4
00001884 0153           6884 	.byte	1,83
00001886 828080800a     6885 	.byte	130,128,128,128,10
0000188b 08             6886 	.byte	8
0000188c 03             6887 	.byte	3
0000188d 0c             6888 	.byte	12
0000188e 00             6889 	.byte	0
0000188f 00             6890 	.byte	0
00001890 00             6891 	.byte	0
00001891 01             6892 	.byte	1
00001892 01             6893 	.byte	1
00001893 00             6894 	.byte	0
00001894 01             6895 	.byte	1
                        6896 
                        6897 	.section	.debug_frame
                        6898 .LDW_51df4d0:
000002e8 00000000*      6899 	.word	.LDW_unq_30-.LDW_unq_2f
                        6900 .LDW_unq_2f:
000002ec 00000000*      6901 	.word	.LDW_54e7820
000002f0 00000000*      6902 	.word	_Memstack_Appl_JobEndCallback_DemNvm_IdEvMemLoc4
000002f4 00000000*      6903 	.word	___ghs_eofn_Memstack_Appl_JobEndCallback_DemNvm_IdEvMemLoc4-_Memstack_Appl_JobEndCallback_DemNvm_IdEvMemLoc4
000002f8 44             6904 	.byte	68
000002f9 9f             6905 	.byte	159
000002fa 03             6906 	.byte	3
000002fb 40             6907 	.byte	64
000002fc 9d             6908 	.byte	157
000002fd 07             6909 	.byte	7
000002fe 01             6910 	.byte	1
000002ff 00000000*      6911 	.word	.LDW55
00000303 00             6912 	.byte	0
                        6913 .LDW_unq_30:
                        6914 	.section	.debug_line
00001ac5 000502         6915 	.byte	0,5,2
00001ac8 00000000*      6916 	.word	_Memstack_Appl_JobEndCallback_DemNvm_IdEvMemLoc4
00001acc 03             6917 	.byte	3

                                                                      Page 140
                                                              C:\Users\nhuliyap\AppData\Local\Temp\gh_0000d8g1.s
00001acd a903           6918 	.byte	169,3
00001acf 02             6919 	.byte	2
00001ad0 00             6920 	.byte	0
00001ad1 01             6921 	.byte	1
00001ad2 06             6922 	.byte	6
00001ad3 000502         6923 	.byte	0,5,2
00001ad6 00000000*      6924 	.word	.LDWlin124
00001ada 0c             6925 	.byte	12
00001adb 000502         6926 	.byte	0,5,2
00001ade 00000000*      6927 	.word	.LDWlin125
00001ae2 0b             6928 	.byte	11
00001ae3 000502         6929 	.byte	0,5,2
00001ae6 00000000*      6930 	.word	.LDWlin126
00001aea 0b             6931 	.byte	11
00001aeb 0b             6932 	.byte	11
00001aec 1b             6933 	.byte	27
00001aed 02             6934 	.byte	2
00001aee 00             6935 	.byte	0
00001aef 0b             6936 	.byte	11
00001af0 02             6937 	.byte	2
00001af1 04             6938 	.byte	4
00001af2 000101         6939 	.byte	0,1,1
                        6940 	.section	.debug_info
                        6941 .LDW_55caee8:
00001895 1d             6942 	.byte	29
00001896 00000000*      6943 	.word	.LDW45
0000189a 00000000*      6944 	.word	.LDW55
                        6945 
                        6946 .LDW_55c8140:
0000189e 04             6947 	.byte	4
0000189f 756352657175   6948 	.strz	"ucRequestResult"
000018a5 657374526573 
000018ab 756c7400 
000018af ab03           6949 	.byte	171,3
000018b1 19             6950 	.byte	25
000018b2 01             6951 	.byte	1
000018b3 00000000*      6952 	.word	.LDW_54d4358
000018b7 00             6953 	.byte	0
000018b8 00             6954 	.byte	0
000018b9 0273           6955 	.byte	2,115
000018bb 03             6956 	.byte	3
                        6957 
000018bc 00             6958 	.byte	0
                        6959 
000018bd 00             6960 	.byte	0
                        6961 
                        6962 .LDW_55cbee8:
000018be 13             6963 	.byte	19
000018bf 4d656d737461   6964 	.strz	"Memstack_Appl_JobEndCallback_DemNvm_IdEvMemLoc5"
000018c5 636b5f417070 
000018cb 6c5f4a6f6245 
000018d1 6e6443616c6c 
000018d7 6261636b5f44 
000018dd 656d4e766d5f 
000018e3 496445764d65 
000018e9 6d4c6f633500 
000018ef b303           6965 	.byte	179,3
000018f1 0d             6966 	.byte	13
000018f2 01             6967 	.byte	1
000018f3 00000000*      6968 	.word	_Memstack_Appl_JobEndCallback_DemNvm_IdEvMemLoc5
000018f7 00000000*      6969 	.word	___ghs_eofn_Memstack_Appl_JobEndCallback_DemNvm_IdEvMemLoc5

                                                                      Page 141
                                                              C:\Users\nhuliyap\AppData\Local\Temp\gh_0000d8g1.s
000018fb 0153           6970 	.byte	1,83
000018fd 828080800a     6971 	.byte	130,128,128,128,10
00001902 08             6972 	.byte	8
00001903 03             6973 	.byte	3
00001904 0c             6974 	.byte	12
00001905 00             6975 	.byte	0
00001906 00             6976 	.byte	0
00001907 00             6977 	.byte	0
00001908 01             6978 	.byte	1
00001909 01             6979 	.byte	1
0000190a 00             6980 	.byte	0
0000190b 01             6981 	.byte	1
                        6982 
                        6983 	.section	.debug_frame
                        6984 .LDW_51df510:
00000304 00000000*      6985 	.word	.LDW_unq_32-.LDW_unq_31
                        6986 .LDW_unq_31:
00000308 00000000*      6987 	.word	.LDW_54e7820
0000030c 00000000*      6988 	.word	_Memstack_Appl_JobEndCallback_DemNvm_IdEvMemLoc5
00000310 00000000*      6989 	.word	___ghs_eofn_Memstack_Appl_JobEndCallback_DemNvm_IdEvMemLoc5-_Memstack_Appl_JobEndCallback_DemNvm_IdEvMemLoc5
00000314 44             6990 	.byte	68
00000315 9f             6991 	.byte	159
00000316 03             6992 	.byte	3
00000317 40             6993 	.byte	64
00000318 9d             6994 	.byte	157
00000319 07             6995 	.byte	7
0000031a 01             6996 	.byte	1
0000031b 00000000*      6997 	.word	.LDW75
0000031f 00             6998 	.byte	0
                        6999 .LDW_unq_32:
                        7000 	.section	.debug_line
00001af5 000502         7001 	.byte	0,5,2
00001af8 00000000*      7002 	.word	_Memstack_Appl_JobEndCallback_DemNvm_IdEvMemLoc5
00001afc 03             7003 	.byte	3
00001afd b203           7004 	.byte	178,3
00001aff 02             7005 	.byte	2
00001b00 00             7006 	.byte	0
00001b01 01             7007 	.byte	1
00001b02 06             7008 	.byte	6
00001b03 000502         7009 	.byte	0,5,2
00001b06 00000000*      7010 	.word	.LDWlin127
00001b0a 0c             7011 	.byte	12
00001b0b 000502         7012 	.byte	0,5,2
00001b0e 00000000*      7013 	.word	.LDWlin128
00001b12 0b             7014 	.byte	11
00001b13 000502         7015 	.byte	0,5,2
00001b16 00000000*      7016 	.word	.LDWlin129
00001b1a 0b             7017 	.byte	11
00001b1b 0b             7018 	.byte	11
00001b1c 1b             7019 	.byte	27
00001b1d 02             7020 	.byte	2
00001b1e 00             7021 	.byte	0
00001b1f 0b             7022 	.byte	11
00001b20 02             7023 	.byte	2
00001b21 04             7024 	.byte	4
00001b22 000101         7025 	.byte	0,1,1
                        7026 	.section	.debug_info
                        7027 .LDW_55cabb8:
0000190c 1d             7028 	.byte	29
0000190d 00000000*      7029 	.word	.LDW65
00001911 00000000*      7030 	.word	.LDW75

                                                                      Page 142
                                                              C:\Users\nhuliyap\AppData\Local\Temp\gh_0000d8g1.s
                        7031 
                        7032 .LDW_55c7b68:
00001915 04             7033 	.byte	4
00001916 756352657175   7034 	.strz	"ucRequestResult"
0000191c 657374526573 
00001922 756c7400 
00001926 b403           7035 	.byte	180,3
00001928 19             7036 	.byte	25
00001929 01             7037 	.byte	1
0000192a 00000000*      7038 	.word	.LDW_54d4358
0000192e 00             7039 	.byte	0
0000192f 00             7040 	.byte	0
00001930 0273           7041 	.byte	2,115
00001932 03             7042 	.byte	3
                        7043 
00001933 00             7044 	.byte	0
                        7045 
00001934 00             7046 	.byte	0
                        7047 
                        7048 .LDW_55cba28:
00001935 13             7049 	.byte	19
00001936 4d656d737461   7050 	.strz	"Memstack_Appl_JobEndCallback_DemNvm_IdEvMemLoc6"
0000193c 636b5f417070 
00001942 6c5f4a6f6245 
00001948 6e6443616c6c 
0000194e 6261636b5f44 
00001954 656d4e766d5f 
0000195a 496445764d65 
00001960 6d4c6f633600 
00001966 bc03           7051 	.byte	188,3
00001968 0d             7052 	.byte	13
00001969 01             7053 	.byte	1
0000196a 00000000*      7054 	.word	_Memstack_Appl_JobEndCallback_DemNvm_IdEvMemLoc6
0000196e 00000000*      7055 	.word	___ghs_eofn_Memstack_Appl_JobEndCallback_DemNvm_IdEvMemLoc6
00001972 0153           7056 	.byte	1,83
00001974 828080800a     7057 	.byte	130,128,128,128,10
00001979 08             7058 	.byte	8
0000197a 03             7059 	.byte	3
0000197b 0c             7060 	.byte	12
0000197c 00             7061 	.byte	0
0000197d 00             7062 	.byte	0
0000197e 00             7063 	.byte	0
0000197f 01             7064 	.byte	1
00001980 01             7065 	.byte	1
00001981 00             7066 	.byte	0
00001982 01             7067 	.byte	1
                        7068 
                        7069 	.section	.debug_frame
                        7070 .LDW_51df690:
00000320 00000000*      7071 	.word	.LDW_unq_34-.LDW_unq_33
                        7072 .LDW_unq_33:
00000324 00000000*      7073 	.word	.LDW_54e7820
00000328 00000000*      7074 	.word	_Memstack_Appl_JobEndCallback_DemNvm_IdEvMemLoc6
0000032c 00000000*      7075 	.word	___ghs_eofn_Memstack_Appl_JobEndCallback_DemNvm_IdEvMemLoc6-_Memstack_Appl_JobEndCallback_DemNvm_IdEvMemLoc6
00000330 44             7076 	.byte	68
00000331 9f             7077 	.byte	159
00000332 03             7078 	.byte	3
00000333 40             7079 	.byte	64
00000334 9d             7080 	.byte	157
00000335 07             7081 	.byte	7
00000336 01             7082 	.byte	1

                                                                      Page 143
                                                              C:\Users\nhuliyap\AppData\Local\Temp\gh_0000d8g1.s
00000337 00000000*      7083 	.word	.LDW95
0000033b 00             7084 	.byte	0
                        7085 .LDW_unq_34:
                        7086 	.section	.debug_line
00001b25 000502         7087 	.byte	0,5,2
00001b28 00000000*      7088 	.word	_Memstack_Appl_JobEndCallback_DemNvm_IdEvMemLoc6
00001b2c 03             7089 	.byte	3
00001b2d bb03           7090 	.byte	187,3
00001b2f 02             7091 	.byte	2
00001b30 00             7092 	.byte	0
00001b31 01             7093 	.byte	1
00001b32 06             7094 	.byte	6
00001b33 000502         7095 	.byte	0,5,2
00001b36 00000000*      7096 	.word	.LDWlin130
00001b3a 0c             7097 	.byte	12
00001b3b 000502         7098 	.byte	0,5,2
00001b3e 00000000*      7099 	.word	.LDWlin131
00001b42 0b             7100 	.byte	11
00001b43 000502         7101 	.byte	0,5,2
00001b46 00000000*      7102 	.word	.LDWlin132
00001b4a 0b             7103 	.byte	11
00001b4b 0b             7104 	.byte	11
00001b4c 1b             7105 	.byte	27
00001b4d 02             7106 	.byte	2
00001b4e 00             7107 	.byte	0
00001b4f 0b             7108 	.byte	11
00001b50 02             7109 	.byte	2
00001b51 04             7110 	.byte	4
00001b52 000101         7111 	.byte	0,1,1
                        7112 	.section	.debug_info
                        7113 .LDW_55cab88:
00001983 1d             7114 	.byte	29
00001984 00000000*      7115 	.word	.LDW85
00001988 00000000*      7116 	.word	.LDW95
                        7117 
                        7118 .LDW_55c7e80:
0000198c 04             7119 	.byte	4
0000198d 756352657175   7120 	.strz	"ucRequestResult"
00001993 657374526573 
00001999 756c7400 
0000199d bd03           7121 	.byte	189,3
0000199f 19             7122 	.byte	25
000019a0 01             7123 	.byte	1
000019a1 00000000*      7124 	.word	.LDW_54d4358
000019a5 00             7125 	.byte	0
000019a6 00             7126 	.byte	0
000019a7 0273           7127 	.byte	2,115
000019a9 03             7128 	.byte	3
                        7129 
000019aa 00             7130 	.byte	0
                        7131 
000019ab 00             7132 	.byte	0
                        7133 
                        7134 .LDW_55cb8f8:
000019ac 13             7135 	.byte	19
000019ad 4d656d737461   7136 	.strz	"Memstack_Appl_JobEndCallback_DemNvm_IdEvMemLoc7"
000019b3 636b5f417070 
000019b9 6c5f4a6f6245 
000019bf 6e6443616c6c 
000019c5 6261636b5f44 
000019cb 656d4e766d5f 

                                                                      Page 144
                                                              C:\Users\nhuliyap\AppData\Local\Temp\gh_0000d8g1.s
000019d1 496445764d65 
000019d7 6d4c6f633700 
000019dd c503           7137 	.byte	197,3
000019df 0d             7138 	.byte	13
000019e0 01             7139 	.byte	1
000019e1 00000000*      7140 	.word	_Memstack_Appl_JobEndCallback_DemNvm_IdEvMemLoc7
000019e5 00000000*      7141 	.word	___ghs_eofn_Memstack_Appl_JobEndCallback_DemNvm_IdEvMemLoc7
000019e9 0153           7142 	.byte	1,83
000019eb 828080800a     7143 	.byte	130,128,128,128,10
000019f0 08             7144 	.byte	8
000019f1 03             7145 	.byte	3
000019f2 0c             7146 	.byte	12
000019f3 00             7147 	.byte	0
000019f4 00             7148 	.byte	0
000019f5 00             7149 	.byte	0
000019f6 01             7150 	.byte	1
000019f7 01             7151 	.byte	1
000019f8 00             7152 	.byte	0
000019f9 01             7153 	.byte	1
                        7154 
                        7155 	.section	.debug_frame
                        7156 .LDW_51df6d0:
0000033c 00000000*      7157 	.word	.LDW_unq_36-.LDW_unq_35
                        7158 .LDW_unq_35:
00000340 00000000*      7159 	.word	.LDW_54e7820
00000344 00000000*      7160 	.word	_Memstack_Appl_JobEndCallback_DemNvm_IdEvMemLoc7
00000348 00000000*      7161 	.word	___ghs_eofn_Memstack_Appl_JobEndCallback_DemNvm_IdEvMemLoc7-_Memstack_Appl_JobEndCallback_DemNvm_IdEvMemLoc7
0000034c 44             7162 	.byte	68
0000034d 9f             7163 	.byte	159
0000034e 03             7164 	.byte	3
0000034f 40             7165 	.byte	64
00000350 9d             7166 	.byte	157
00000351 07             7167 	.byte	7
00000352 01             7168 	.byte	1
00000353 00000000*      7169 	.word	.LDW16
00000357 00             7170 	.byte	0
                        7171 .LDW_unq_36:
                        7172 	.section	.debug_line
00001b55 000502         7173 	.byte	0,5,2
00001b58 00000000*      7174 	.word	_Memstack_Appl_JobEndCallback_DemNvm_IdEvMemLoc7
00001b5c 03             7175 	.byte	3
00001b5d c403           7176 	.byte	196,3
00001b5f 02             7177 	.byte	2
00001b60 00             7178 	.byte	0
00001b61 01             7179 	.byte	1
00001b62 06             7180 	.byte	6
00001b63 000502         7181 	.byte	0,5,2
00001b66 00000000*      7182 	.word	.LDWlin133
00001b6a 0c             7183 	.byte	12
00001b6b 000502         7184 	.byte	0,5,2
00001b6e 00000000*      7185 	.word	.LDWlin134
00001b72 0b             7186 	.byte	11
00001b73 000502         7187 	.byte	0,5,2
00001b76 00000000*      7188 	.word	.LDWlin135
00001b7a 0b             7189 	.byte	11
00001b7b 0b             7190 	.byte	11
00001b7c 1b             7191 	.byte	27
00001b7d 02             7192 	.byte	2
00001b7e 00             7193 	.byte	0
00001b7f 0b             7194 	.byte	11
00001b80 02             7195 	.byte	2

                                                                      Page 145
                                                              C:\Users\nhuliyap\AppData\Local\Temp\gh_0000d8g1.s
00001b81 04             7196 	.byte	4
00001b82 000101         7197 	.byte	0,1,1
                        7198 	.section	.debug_info
                        7199 .LDW_55cabe8:
000019fa 1d             7200 	.byte	29
000019fb 00000000*      7201 	.word	.LDW06
000019ff 00000000*      7202 	.word	.LDW16
                        7203 
                        7204 .LDW_55c8248:
00001a03 04             7205 	.byte	4
00001a04 756352657175   7206 	.strz	"ucRequestResult"
00001a0a 657374526573 
00001a10 756c7400 
00001a14 c603           7207 	.byte	198,3
00001a16 19             7208 	.byte	25
00001a17 01             7209 	.byte	1
00001a18 00000000*      7210 	.word	.LDW_54d4358
00001a1c 00             7211 	.byte	0
00001a1d 00             7212 	.byte	0
00001a1e 0273           7213 	.byte	2,115
00001a20 03             7214 	.byte	3
                        7215 
00001a21 00             7216 	.byte	0
                        7217 
00001a22 00             7218 	.byte	0
                        7219 
                        7220 .LDW_55cbb58:
00001a23 13             7221 	.byte	19
00001a24 4d656d737461   7222 	.strz	"Memstack_Appl_JobEndCallback_DemNvm_IdEvMemLoc8"
00001a2a 636b5f417070 
00001a30 6c5f4a6f6245 
00001a36 6e6443616c6c 
00001a3c 6261636b5f44 
00001a42 656d4e766d5f 
00001a48 496445764d65 
00001a4e 6d4c6f633800 
00001a54 ce03           7223 	.byte	206,3
00001a56 0d             7224 	.byte	13
00001a57 01             7225 	.byte	1
00001a58 00000000*      7226 	.word	_Memstack_Appl_JobEndCallback_DemNvm_IdEvMemLoc8
00001a5c 00000000*      7227 	.word	___ghs_eofn_Memstack_Appl_JobEndCallback_DemNvm_IdEvMemLoc8
00001a60 0153           7228 	.byte	1,83
00001a62 828080800a     7229 	.byte	130,128,128,128,10
00001a67 08             7230 	.byte	8
00001a68 03             7231 	.byte	3
00001a69 0c             7232 	.byte	12
00001a6a 00             7233 	.byte	0
00001a6b 00             7234 	.byte	0
00001a6c 00             7235 	.byte	0
00001a6d 01             7236 	.byte	1
00001a6e 01             7237 	.byte	1
00001a6f 00             7238 	.byte	0
00001a70 01             7239 	.byte	1
                        7240 
                        7241 	.section	.debug_frame
                        7242 .LDW_51df750:
00000358 00000000*      7243 	.word	.LDW_unq_38-.LDW_unq_37
                        7244 .LDW_unq_37:
0000035c 00000000*      7245 	.word	.LDW_54e7820
00000360 00000000*      7246 	.word	_Memstack_Appl_JobEndCallback_DemNvm_IdEvMemLoc8
00000364 00000000*      7247 	.word	___ghs_eofn_Memstack_Appl_JobEndCallback_DemNvm_IdEvMemLoc8-_Memstack_Appl_JobEndCallback_DemNvm_IdEvMemLoc8

                                                                      Page 146
                                                              C:\Users\nhuliyap\AppData\Local\Temp\gh_0000d8g1.s
00000368 44             7248 	.byte	68
00000369 9f             7249 	.byte	159
0000036a 03             7250 	.byte	3
0000036b 40             7251 	.byte	64
0000036c 9d             7252 	.byte	157
0000036d 07             7253 	.byte	7
0000036e 01             7254 	.byte	1
0000036f 00000000*      7255 	.word	.LDW36
00000373 00             7256 	.byte	0
                        7257 .LDW_unq_38:
                        7258 	.section	.debug_line
00001b85 000502         7259 	.byte	0,5,2
00001b88 00000000*      7260 	.word	_Memstack_Appl_JobEndCallback_DemNvm_IdEvMemLoc8
00001b8c 03             7261 	.byte	3
00001b8d cd03           7262 	.byte	205,3
00001b8f 02             7263 	.byte	2
00001b90 00             7264 	.byte	0
00001b91 01             7265 	.byte	1
00001b92 06             7266 	.byte	6
00001b93 000502         7267 	.byte	0,5,2
00001b96 00000000*      7268 	.word	.LDWlin136
00001b9a 0c             7269 	.byte	12
00001b9b 000502         7270 	.byte	0,5,2
00001b9e 00000000*      7271 	.word	.LDWlin137
00001ba2 0b             7272 	.byte	11
00001ba3 000502         7273 	.byte	0,5,2
00001ba6 00000000*      7274 	.word	.LDWlin138
00001baa 0b             7275 	.byte	11
00001bab 0b             7276 	.byte	11
00001bac 1b             7277 	.byte	27
00001bad 02             7278 	.byte	2
00001bae 00             7279 	.byte	0
00001baf 0b             7280 	.byte	11
00001bb0 02             7281 	.byte	2
00001bb1 04             7282 	.byte	4
00001bb2 000101         7283 	.byte	0,1,1
                        7284 	.section	.debug_info
                        7285 .LDW_55caaf8:
00001a71 1d             7286 	.byte	29
00001a72 00000000*      7287 	.word	.LDW26
00001a76 00000000*      7288 	.word	.LDW36
                        7289 
                        7290 .LDW_55c82a0:
00001a7a 04             7291 	.byte	4
00001a7b 756352657175   7292 	.strz	"ucRequestResult"
00001a81 657374526573 
00001a87 756c7400 
00001a8b cf03           7293 	.byte	207,3
00001a8d 19             7294 	.byte	25
00001a8e 01             7295 	.byte	1
00001a8f 00000000*      7296 	.word	.LDW_54d4358
00001a93 00             7297 	.byte	0
00001a94 00             7298 	.byte	0
00001a95 0273           7299 	.byte	2,115
00001a97 03             7300 	.byte	3
                        7301 
00001a98 00             7302 	.byte	0
                        7303 
00001a99 00             7304 	.byte	0
                        7305 
                        7306 .LDW_55cc998:

                                                                      Page 147
                                                              C:\Users\nhuliyap\AppData\Local\Temp\gh_0000d8g1.s
00001a9a 13             7307 	.byte	19
00001a9b 4d656d737461   7308 	.strz	"Memstack_Appl_JobEndCallback_DemNvm_IdEvMemLoc9"
00001aa1 636b5f417070 
00001aa7 6c5f4a6f6245 
00001aad 6e6443616c6c 
00001ab3 6261636b5f44 
00001ab9 656d4e766d5f 
00001abf 496445764d65 
00001ac5 6d4c6f633900 
00001acb d703           7309 	.byte	215,3
00001acd 0d             7310 	.byte	13
00001ace 01             7311 	.byte	1
00001acf 00000000*      7312 	.word	_Memstack_Appl_JobEndCallback_DemNvm_IdEvMemLoc9
00001ad3 00000000*      7313 	.word	___ghs_eofn_Memstack_Appl_JobEndCallback_DemNvm_IdEvMemLoc9
00001ad7 0153           7314 	.byte	1,83
00001ad9 828080800a     7315 	.byte	130,128,128,128,10
00001ade 08             7316 	.byte	8
00001adf 03             7317 	.byte	3
00001ae0 0c             7318 	.byte	12
00001ae1 00             7319 	.byte	0
00001ae2 00             7320 	.byte	0
00001ae3 00             7321 	.byte	0
00001ae4 01             7322 	.byte	1
00001ae5 01             7323 	.byte	1
00001ae6 00             7324 	.byte	0
00001ae7 01             7325 	.byte	1
                        7326 
                        7327 	.section	.debug_frame
                        7328 .LDW_51df810:
00000374 00000000*      7329 	.word	.LDW_unq_3a-.LDW_unq_39
                        7330 .LDW_unq_39:
00000378 00000000*      7331 	.word	.LDW_54e7820
0000037c 00000000*      7332 	.word	_Memstack_Appl_JobEndCallback_DemNvm_IdEvMemLoc9
00000380 00000000*      7333 	.word	___ghs_eofn_Memstack_Appl_JobEndCallback_DemNvm_IdEvMemLoc9-_Memstack_Appl_JobEndCallback_DemNvm_IdEvMemLoc9
00000384 44             7334 	.byte	68
00000385 9f             7335 	.byte	159
00000386 03             7336 	.byte	3
00000387 40             7337 	.byte	64
00000388 9d             7338 	.byte	157
00000389 07             7339 	.byte	7
0000038a 01             7340 	.byte	1
0000038b 00000000*      7341 	.word	.LDW56
0000038f 00             7342 	.byte	0
                        7343 .LDW_unq_3a:
                        7344 	.section	.debug_line
00001bb5 000502         7345 	.byte	0,5,2
00001bb8 00000000*      7346 	.word	_Memstack_Appl_JobEndCallback_DemNvm_IdEvMemLoc9
00001bbc 03             7347 	.byte	3
00001bbd d603           7348 	.byte	214,3
00001bbf 02             7349 	.byte	2
00001bc0 00             7350 	.byte	0
00001bc1 01             7351 	.byte	1
00001bc2 06             7352 	.byte	6
00001bc3 000502         7353 	.byte	0,5,2
00001bc6 00000000*      7354 	.word	.LDWlin139
00001bca 0c             7355 	.byte	12
00001bcb 000502         7356 	.byte	0,5,2
00001bce 00000000*      7357 	.word	.LDWlin140
00001bd2 0b             7358 	.byte	11
00001bd3 000502         7359 	.byte	0,5,2
00001bd6 00000000*      7360 	.word	.LDWlin141

                                                                      Page 148
                                                              C:\Users\nhuliyap\AppData\Local\Temp\gh_0000d8g1.s
00001bda 0b             7361 	.byte	11
00001bdb 0b             7362 	.byte	11
00001bdc 1b             7363 	.byte	27
00001bdd 02             7364 	.byte	2
00001bde 00             7365 	.byte	0
00001bdf 0b             7366 	.byte	11
00001be0 02             7367 	.byte	2
00001be1 04             7368 	.byte	4
00001be2 000101         7369 	.byte	0,1,1
                        7370 	.section	.debug_info
                        7371 .LDW_55cac18:
00001ae8 1d             7372 	.byte	29
00001ae9 00000000*      7373 	.word	.LDW46
00001aed 00000000*      7374 	.word	.LDW56
                        7375 
                        7376 .LDW_55c82f8:
00001af1 04             7377 	.byte	4
00001af2 756352657175   7378 	.strz	"ucRequestResult"
00001af8 657374526573 
00001afe 756c7400 
00001b02 d803           7379 	.byte	216,3
00001b04 19             7380 	.byte	25
00001b05 01             7381 	.byte	1
00001b06 00000000*      7382 	.word	.LDW_54d4358
00001b0a 00             7383 	.byte	0
00001b0b 00             7384 	.byte	0
00001b0c 0273           7385 	.byte	2,115
00001b0e 03             7386 	.byte	3
                        7387 
00001b0f 00             7388 	.byte	0
                        7389 
00001b10 00             7390 	.byte	0
                        7391 
                        7392 .LDW_55cc3a8:
00001b11 13             7393 	.byte	19
00001b12 4d656d737461   7394 	.strz	"Memstack_Appl_JobEndCallback_DemNvm_IdDemGenericNvData"
00001b18 636b5f417070 
00001b1e 6c5f4a6f6245 
00001b24 6e6443616c6c 
00001b2a 6261636b5f44 
00001b30 656d4e766d5f 
00001b36 496444656d47 
00001b3c 656e65726963 
00001b42 4e7644617461 
00001b48 00 
00001b49 df03           7395 	.byte	223,3
00001b4b 0d             7396 	.byte	13
00001b4c 01             7397 	.byte	1
00001b4d 00000000*      7398 	.word	_Memstack_Appl_JobEndCallback_DemNvm_IdDemGenericNvData
00001b51 00000000*      7399 	.word	___ghs_eofn_Memstack_Appl_JobEndCallback_DemNvm_IdDemGenericNvData
00001b55 0153           7400 	.byte	1,83
00001b57 828080800a     7401 	.byte	130,128,128,128,10
00001b5c 08             7402 	.byte	8
00001b5d 03             7403 	.byte	3
00001b5e 0c             7404 	.byte	12
00001b5f 00             7405 	.byte	0
00001b60 00             7406 	.byte	0
00001b61 00             7407 	.byte	0
00001b62 01             7408 	.byte	1
00001b63 01             7409 	.byte	1
00001b64 00             7410 	.byte	0

                                                                      Page 149
                                                              C:\Users\nhuliyap\AppData\Local\Temp\gh_0000d8g1.s
00001b65 01             7411 	.byte	1
                        7412 
                        7413 	.section	.debug_frame
                        7414 .LDW_51dff90:
00000390 00000000*      7415 	.word	.LDW_unq_3c-.LDW_unq_3b
                        7416 .LDW_unq_3b:
00000394 00000000*      7417 	.word	.LDW_54e7820
00000398 00000000*      7418 	.word	_Memstack_Appl_JobEndCallback_DemNvm_IdDemGenericNvData
0000039c 00000000*      7419 	.word	___ghs_eofn_Memstack_Appl_JobEndCallback_DemNvm_IdDemGenericNvData-_Memstack_Appl_JobEndCallback_DemNvm_IdDemGenericNvData
000003a0 44             7420 	.byte	68
000003a1 9f             7421 	.byte	159
000003a2 03             7422 	.byte	3
000003a3 40             7423 	.byte	64
000003a4 9d             7424 	.byte	157
000003a5 07             7425 	.byte	7
000003a6 01             7426 	.byte	1
000003a7 00000000*      7427 	.word	.LDW76
000003ab 00             7428 	.byte	0
                        7429 .LDW_unq_3c:
                        7430 	.section	.debug_line
00001be5 000502         7431 	.byte	0,5,2
00001be8 00000000*      7432 	.word	_Memstack_Appl_JobEndCallback_DemNvm_IdDemGenericNvData
00001bec 03             7433 	.byte	3
00001bed de03           7434 	.byte	222,3
00001bef 02             7435 	.byte	2
00001bf0 00             7436 	.byte	0
00001bf1 01             7437 	.byte	1
00001bf2 06             7438 	.byte	6
00001bf3 000502         7439 	.byte	0,5,2
00001bf6 00000000*      7440 	.word	.LDWlin142
00001bfa 0c             7441 	.byte	12
00001bfb 000502         7442 	.byte	0,5,2
00001bfe 00000000*      7443 	.word	.LDWlin143
00001c02 0b             7444 	.byte	11
00001c03 000502         7445 	.byte	0,5,2
00001c06 00000000*      7446 	.word	.LDWlin144
00001c0a 0b             7447 	.byte	11
00001c0b 0b             7448 	.byte	11
00001c0c 1b             7449 	.byte	27
00001c0d 02             7450 	.byte	2
00001c0e 00             7451 	.byte	0
00001c0f 0b             7452 	.byte	11
00001c10 02             7453 	.byte	2
00001c11 04             7454 	.byte	4
00001c12 000101         7455 	.byte	0,1,1
                        7456 	.section	.debug_info
                        7457 .LDW_55cab28:
00001b66 1d             7458 	.byte	29
00001b67 00000000*      7459 	.word	.LDW66
00001b6b 00000000*      7460 	.word	.LDW76
                        7461 
                        7462 .LDW_55c7900:
00001b6f 04             7463 	.byte	4
00001b70 756352657175   7464 	.strz	"ucRequestResult"
00001b76 657374526573 
00001b7c 756c7400 
00001b80 e003           7465 	.byte	224,3
00001b82 19             7466 	.byte	25
00001b83 01             7467 	.byte	1
00001b84 00000000*      7468 	.word	.LDW_54d4358
00001b88 00             7469 	.byte	0

                                                                      Page 150
                                                              C:\Users\nhuliyap\AppData\Local\Temp\gh_0000d8g1.s
00001b89 00             7470 	.byte	0
00001b8a 0273           7471 	.byte	2,115
00001b8c 03             7472 	.byte	3
                        7473 
00001b8d 00             7474 	.byte	0
                        7475 
00001b8e 00             7476 	.byte	0
                        7477 
                        7478 .LDW_55cca30:
00001b8f 13             7479 	.byte	19
00001b90 4d656d737461   7480 	.strz	"Memstack_Appl_JobEndCallback_ECUM_CFG_NVM_BLOCK"
00001b96 636b5f417070 
00001b9c 6c5f4a6f6245 
00001ba2 6e6443616c6c 
00001ba8 6261636b5f45 
00001bae 43554d5f4346 
00001bb4 475f4e564d5f 
00001bba 424c4f434b00 
00001bc0 e803           7481 	.byte	232,3
00001bc2 0d             7482 	.byte	13
00001bc3 01             7483 	.byte	1
00001bc4 00000000*      7484 	.word	_Memstack_Appl_JobEndCallback_ECUM_CFG_NVM_BLOCK
00001bc8 00000000*      7485 	.word	___ghs_eofn_Memstack_Appl_JobEndCallback_ECUM_CFG_NVM_BLOCK
00001bcc 0153           7486 	.byte	1,83
00001bce 828080800a     7487 	.byte	130,128,128,128,10
00001bd3 08             7488 	.byte	8
00001bd4 03             7489 	.byte	3
00001bd5 0c             7490 	.byte	12
00001bd6 00             7491 	.byte	0
00001bd7 00             7492 	.byte	0
00001bd8 00             7493 	.byte	0
00001bd9 01             7494 	.byte	1
00001bda 01             7495 	.byte	1
00001bdb 00             7496 	.byte	0
00001bdc 01             7497 	.byte	1
                        7498 
                        7499 	.section	.debug_frame
                        7500 .LDW_51dfc90:
000003ac 00000000*      7501 	.word	.LDW_unq_3e-.LDW_unq_3d
                        7502 .LDW_unq_3d:
000003b0 00000000*      7503 	.word	.LDW_54e7820
000003b4 00000000*      7504 	.word	_Memstack_Appl_JobEndCallback_ECUM_CFG_NVM_BLOCK
000003b8 00000000*      7505 	.word	___ghs_eofn_Memstack_Appl_JobEndCallback_ECUM_CFG_NVM_BLOCK-_Memstack_Appl_JobEndCallback_ECUM_CFG_NVM_BLOCK
000003bc 44             7506 	.byte	68
000003bd 9f             7507 	.byte	159
000003be 03             7508 	.byte	3
000003bf 40             7509 	.byte	64
000003c0 9d             7510 	.byte	157
000003c1 07             7511 	.byte	7
000003c2 01             7512 	.byte	1
000003c3 00000000*      7513 	.word	.LDW96
000003c7 00             7514 	.byte	0
                        7515 .LDW_unq_3e:
                        7516 	.section	.debug_line
00001c15 000502         7517 	.byte	0,5,2
00001c18 00000000*      7518 	.word	_Memstack_Appl_JobEndCallback_ECUM_CFG_NVM_BLOCK
00001c1c 03             7519 	.byte	3
00001c1d e703           7520 	.byte	231,3
00001c1f 02             7521 	.byte	2
00001c20 00             7522 	.byte	0
00001c21 01             7523 	.byte	1

                                                                      Page 151
                                                              C:\Users\nhuliyap\AppData\Local\Temp\gh_0000d8g1.s
00001c22 06             7524 	.byte	6
00001c23 000502         7525 	.byte	0,5,2
00001c26 00000000*      7526 	.word	.LDWlin145
00001c2a 0c             7527 	.byte	12
00001c2b 000502         7528 	.byte	0,5,2
00001c2e 00000000*      7529 	.word	.LDWlin146
00001c32 0b             7530 	.byte	11
00001c33 000502         7531 	.byte	0,5,2
00001c36 00000000*      7532 	.word	.LDWlin147
00001c3a 0b             7533 	.byte	11
00001c3b 0b             7534 	.byte	11
00001c3c 1b             7535 	.byte	27
00001c3d 02             7536 	.byte	2
00001c3e 00             7537 	.byte	0
00001c3f 0b             7538 	.byte	11
00001c40 02             7539 	.byte	2
00001c41 04             7540 	.byte	4
00001c42 000101         7541 	.byte	0,1,1
                        7542 	.section	.debug_info
                        7543 .LDW_55cb008:
00001bdd 1d             7544 	.byte	29
00001bde 00000000*      7545 	.word	.LDW86
00001be2 00000000*      7546 	.word	.LDW96
                        7547 
                        7548 .LDW_55c7bc0:
00001be6 04             7549 	.byte	4
00001be7 756352657175   7550 	.strz	"ucRequestResult"
00001bed 657374526573 
00001bf3 756c7400 
00001bf7 e903           7551 	.byte	233,3
00001bf9 19             7552 	.byte	25
00001bfa 01             7553 	.byte	1
00001bfb 00000000*      7554 	.word	.LDW_54d4358
00001bff 00             7555 	.byte	0
00001c00 00             7556 	.byte	0
00001c01 0273           7557 	.byte	2,115
00001c03 03             7558 	.byte	3
                        7559 
00001c04 00             7560 	.byte	0
                        7561 
00001c05 00             7562 	.byte	0
                        7563 
                        7564 .LDW_55cbac0:
00001c06 13             7565 	.byte	19
00001c07 4d656d737461   7566 	.strz	"Memstack_Appl_JobEndCallback_BSW_Data"
00001c0d 636b5f417070 
00001c13 6c5f4a6f6245 
00001c19 6e6443616c6c 
00001c1f 6261636b5f42 
00001c25 53575f446174 
00001c2b 6100 
00001c2d f103           7567 	.byte	241,3
00001c2f 0d             7568 	.byte	13
00001c30 01             7569 	.byte	1
00001c31 00000000*      7570 	.word	_Memstack_Appl_JobEndCallback_BSW_Data
00001c35 00000000*      7571 	.word	___ghs_eofn_Memstack_Appl_JobEndCallback_BSW_Data
00001c39 0153           7572 	.byte	1,83
00001c3b 828080800a     7573 	.byte	130,128,128,128,10
00001c40 08             7574 	.byte	8
00001c41 03             7575 	.byte	3
00001c42 0c             7576 	.byte	12

                                                                      Page 152
                                                              C:\Users\nhuliyap\AppData\Local\Temp\gh_0000d8g1.s
00001c43 00             7577 	.byte	0
00001c44 00             7578 	.byte	0
00001c45 00             7579 	.byte	0
00001c46 01             7580 	.byte	1
00001c47 01             7581 	.byte	1
00001c48 00             7582 	.byte	0
00001c49 01             7583 	.byte	1
                        7584 
                        7585 	.section	.debug_frame
                        7586 .LDW_51e0050:
000003c8 00000000*      7587 	.word	.LDW_unq_40-.LDW_unq_3f
                        7588 .LDW_unq_3f:
000003cc 00000000*      7589 	.word	.LDW_54e7820
000003d0 00000000*      7590 	.word	_Memstack_Appl_JobEndCallback_BSW_Data
000003d4 00000000*      7591 	.word	___ghs_eofn_Memstack_Appl_JobEndCallback_BSW_Data-_Memstack_Appl_JobEndCallback_BSW_Data
000003d8 44             7592 	.byte	68
000003d9 9f             7593 	.byte	159
000003da 03             7594 	.byte	3
000003db 40             7595 	.byte	64
000003dc 9d             7596 	.byte	157
000003dd 07             7597 	.byte	7
000003de 01             7598 	.byte	1
000003df 00000000*      7599 	.word	.LDW17
000003e3 00             7600 	.byte	0
                        7601 .LDW_unq_40:
                        7602 	.section	.debug_line
00001c45 000502         7603 	.byte	0,5,2
00001c48 00000000*      7604 	.word	_Memstack_Appl_JobEndCallback_BSW_Data
00001c4c 03             7605 	.byte	3
00001c4d f003           7606 	.byte	240,3
00001c4f 02             7607 	.byte	2
00001c50 00             7608 	.byte	0
00001c51 01             7609 	.byte	1
00001c52 06             7610 	.byte	6
00001c53 000502         7611 	.byte	0,5,2
00001c56 00000000*      7612 	.word	.LDWlin148
00001c5a 0c             7613 	.byte	12
00001c5b 000502         7614 	.byte	0,5,2
00001c5e 00000000*      7615 	.word	.LDWlin149
00001c62 0b             7616 	.byte	11
00001c63 000502         7617 	.byte	0,5,2
00001c66 00000000*      7618 	.word	.LDWlin150
00001c6a 0b             7619 	.byte	11
00001c6b 0b             7620 	.byte	11
00001c6c 1b             7621 	.byte	27
00001c6d 02             7622 	.byte	2
00001c6e 00             7623 	.byte	0
00001c6f 0b             7624 	.byte	11
00001c70 02             7625 	.byte	2
00001c71 04             7626 	.byte	4
00001c72 000101         7627 	.byte	0,1,1
                        7628 	.section	.debug_info
                        7629 .LDW_55cae88:
00001c4a 1d             7630 	.byte	29
00001c4b 00000000*      7631 	.word	.LDW07
00001c4f 00000000*      7632 	.word	.LDW17
                        7633 
                        7634 .LDW_55c7958:
00001c53 04             7635 	.byte	4
00001c54 756352657175   7636 	.strz	"ucRequestResult"
00001c5a 657374526573 

                                                                      Page 153
                                                              C:\Users\nhuliyap\AppData\Local\Temp\gh_0000d8g1.s
00001c60 756c7400 
00001c64 f203           7637 	.byte	242,3
00001c66 19             7638 	.byte	25
00001c67 01             7639 	.byte	1
00001c68 00000000*      7640 	.word	.LDW_54d4358
00001c6c 00             7641 	.byte	0
00001c6d 00             7642 	.byte	0
00001c6e 0273           7643 	.byte	2,115
00001c70 03             7644 	.byte	3
                        7645 
00001c71 00             7646 	.byte	0
                        7647 
00001c72 00             7648 	.byte	0
                        7649 
                        7650 .LDW_55cbc88:
00001c73 14             7651 	.byte	20
00001c74 4d656d737461   7652 	.strz	"Memstack_GetCurrentNvMConsistence"
00001c7a 636b5f476574 
00001c80 43757272656e 
00001c86 744e764d436f 
00001c8c 6e7369737465 
00001c92 6e636500 
00001c96 fa03           7653 	.byte	250,3
00001c98 0f             7654 	.byte	15
00001c99 01             7655 	.byte	1
00001c9a 00000000*      7656 	.word	.LDW_1899038
00001c9e 00000000*      7657 	.word	_Memstack_GetCurrentNvMConsistence
00001ca2 00000000*      7658 	.word	___ghs_eofn_Memstack_GetCurrentNvMConsistence
00001ca6 0153           7659 	.byte	1,83
00001ca8 02             7660 	.byte	2
00001ca9 00             7661 	.byte	0
00001caa 02             7662 	.byte	2
00001cab 00             7663 	.byte	0
00001cac 00             7664 	.byte	0
00001cad 00             7665 	.byte	0
00001cae 00             7666 	.byte	0
00001caf 01             7667 	.byte	1
00001cb0 01             7668 	.byte	1
00001cb1 00             7669 	.byte	0
00001cb2 01             7670 	.byte	1
                        7671 
                        7672 	.section	.debug_frame
                        7673 .LDW_51dfa50:
000003e4 00000000*      7674 	.word	.LDW_unq_42-.LDW_unq_41
                        7675 .LDW_unq_41:
000003e8 00000000*      7676 	.word	.LDW_54e7820
000003ec 00000000*      7677 	.word	_Memstack_GetCurrentNvMConsistence
000003f0 00000000*      7678 	.word	___ghs_eofn_Memstack_GetCurrentNvMConsistence-_Memstack_GetCurrentNvMConsistence
000003f4 01             7679 	.byte	1
000003f5 00000000*      7680 	.word	.LDW37
000003f9 00             7681 	.byte	0
000003fa 00             7682 	.byte	0
000003fb 00             7683 	.byte	0
                        7684 .LDW_unq_42:
                        7685 	.section	.debug_line
00001c75 000502         7686 	.byte	0,5,2
00001c78 00000000*      7687 	.word	_Memstack_GetCurrentNvMConsistence
00001c7c 03             7688 	.byte	3
00001c7d f903           7689 	.byte	249,3
00001c7f 02             7690 	.byte	2
00001c80 00             7691 	.byte	0

                                                                      Page 154
                                                              C:\Users\nhuliyap\AppData\Local\Temp\gh_0000d8g1.s
00001c81 01             7692 	.byte	1
00001c82 06             7693 	.byte	6
00001c83 000502         7694 	.byte	0,5,2
00001c86 00000000*      7695 	.word	.LDWlin151
00001c8a 0b             7696 	.byte	11
00001c8b 06             7697 	.byte	6
00001c8c 02             7698 	.byte	2
00001c8d 04             7699 	.byte	4
00001c8e 02             7700 	.byte	2
00001c8f 02             7701 	.byte	2
00001c90 000101         7702 	.byte	0,1,1
                        7703 	.section	.debug_info
                        7704 .LDW_55caf48:
00001cb3 1d             7705 	.byte	29
00001cb4 00000000*      7706 	.word	.LDW27
00001cb8 00000000*      7707 	.word	.LDW37
                        7708 
00001cbc 00             7709 	.byte	0
                        7710 
00001cbd 00             7711 	.byte	0
                        7712 
                        7713 .LDW_55cb990:
00001cbe 13             7714 	.byte	19
00001cbf 4d656d737461   7715 	.strz	"Memstack_ClearCurrentNvMConsistence"
00001cc5 636b5f436c65 
00001ccb 617243757272 
00001cd1 656e744e764d 
00001cd7 436f6e736973 
00001cdd 74656e636500 
00001ce3 fe03           7716 	.byte	254,3
00001ce5 0d             7717 	.byte	13
00001ce6 01             7718 	.byte	1
00001ce7 00000000*      7719 	.word	_Memstack_ClearCurrentNvMConsistence
00001ceb 00000000*      7720 	.word	___ghs_eofn_Memstack_ClearCurrentNvMConsistence
00001cef 0153           7721 	.byte	1,83
00001cf1 02             7722 	.byte	2
00001cf2 00             7723 	.byte	0
00001cf3 02             7724 	.byte	2
00001cf4 00             7725 	.byte	0
00001cf5 00             7726 	.byte	0
00001cf6 00             7727 	.byte	0
00001cf7 00             7728 	.byte	0
00001cf8 01             7729 	.byte	1
00001cf9 01             7730 	.byte	1
00001cfa 00             7731 	.byte	0
00001cfb 01             7732 	.byte	1
                        7733 
                        7734 	.section	.debug_frame
                        7735 .LDW_51dfb10:
000003fc 00000000*      7736 	.word	.LDW_unq_44-.LDW_unq_43
                        7737 .LDW_unq_43:
00000400 00000000*      7738 	.word	.LDW_54e7820
00000404 00000000*      7739 	.word	_Memstack_ClearCurrentNvMConsistence
00000408 00000000*      7740 	.word	___ghs_eofn_Memstack_ClearCurrentNvMConsistence-_Memstack_ClearCurrentNvMConsistence
0000040c 01             7741 	.byte	1
0000040d 00000000*      7742 	.word	.LDW57
00000411 00             7743 	.byte	0
00000412 00             7744 	.byte	0
00000413 00             7745 	.byte	0
                        7746 .LDW_unq_44:
                        7747 	.section	.debug_line

                                                                      Page 155
                                                              C:\Users\nhuliyap\AppData\Local\Temp\gh_0000d8g1.s
00001c93 000502         7748 	.byte	0,5,2
00001c96 00000000*      7749 	.word	_Memstack_ClearCurrentNvMConsistence
00001c9a 03             7750 	.byte	3
00001c9b fd03           7751 	.byte	253,3
00001c9d 02             7752 	.byte	2
00001c9e 00             7753 	.byte	0
00001c9f 01             7754 	.byte	1
00001ca0 06             7755 	.byte	6
00001ca1 000502         7756 	.byte	0,5,2
00001ca4 00000000*      7757 	.word	.LDWlin152
00001ca8 0b             7758 	.byte	11
00001ca9 1b             7759 	.byte	27
00001caa 02             7760 	.byte	2
00001cab 02             7761 	.byte	2
00001cac 000101         7762 	.byte	0,1,1
                        7763 	.section	.debug_info
                        7764 .LDW_55cab58:
00001cfc 1d             7765 	.byte	29
00001cfd 00000000*      7766 	.word	.LDW47
00001d01 00000000*      7767 	.word	.LDW57
                        7768 
00001d05 00             7769 	.byte	0
                        7770 
00001d06 00             7771 	.byte	0
                        7772 
00001d07 00             7773 	.byte	0
                        7774 
                        7775 	.section	.debug_line
                        7776 .Ldw_line_end:
                        7777 	.section	.debug_macinfo
00000000 01             7778 	.byte	1
00000001 00             7779 	.byte	0
00000002 5f5f474e555f   7780 	.strz	"__GNU_ASM_SUPPORT__ 1"
00000008 41534d5f5355 
0000000e 50504f52545f 
00000014 5f203100 
00000018 01             7781 	.byte	1
00000019 00             7782 	.byte	0
0000001a 5f5f67687320   7783 	.strz	"__ghs 1"
00000020 3100 
00000022 01             7784 	.byte	1
00000023 00             7785 	.byte	0
00000024 5f5f6768735f   7786 	.strz	"__ghs__ 1"
0000002a 5f203100 
0000002e 01             7787 	.byte	1
0000002f 00             7788 	.byte	0
00000030 5f5f41545452   7789 	.strz	"__ATTRIBUTES 1"
00000036 494255544553 
0000003c 203100 
0000003f 01             7790 	.byte	1
00000040 00             7791 	.byte	0
00000041 5f5f4544475f   7792 	.strz	"__EDG__ 1"
00000047 5f203100 
0000004b 01             7793 	.byte	1
0000004c 00             7794 	.byte	0
0000004d 5f5f434f5245   7795 	.strz	"__CORE_V850E3V5__ 1"
00000053 5f5638353045 
00000059 3356355f5f20 
0000005f 3100 
00000061 01             7796 	.byte	1
00000062 00             7797 	.byte	0

                                                                      Page 156
                                                              C:\Users\nhuliyap\AppData\Local\Temp\gh_0000d8g1.s
00000063 5f5f56383530   7798 	.strz	"__V850E__ 1"
00000069 455f5f203100 
0000006f 01             7799 	.byte	1
00000070 00             7800 	.byte	0
00000071 5f5f56383530   7801 	.strz	"__V850E2__ 1"
00000077 45325f5f2031 
0000007d 00 
0000007e 01             7802 	.byte	1
0000007f 00             7803 	.byte	0
00000080 5f5f56383530   7804 	.strz	"__V850E2R__ 1"
00000086 4532525f5f20 
0000008c 3100 
0000008e 01             7805 	.byte	1
0000008f 00             7806 	.byte	0
00000090 5f5f56383530   7807 	.strz	"__V850E2V3__ 1"
00000096 453256335f5f 
0000009c 203100 
0000009f 01             7808 	.byte	1
000000a0 00             7809 	.byte	0
000000a1 5f5f56383530   7810 	.strz	"__V850E3__ 1"
000000a7 45335f5f2031 
000000ad 00 
000000ae 01             7811 	.byte	1
000000af 00             7812 	.byte	0
000000b0 5f5f4c4c4f4e   7813 	.strz	"__LLONG_BIT 64"
000000b6 475f42495420 
000000bc 363400 
000000bf 01             7814 	.byte	1
000000c0 00             7815 	.byte	0
000000c1 4e4f545f5245   7816 	.strz	"NOT_READY_FOR_TESTING_OR_DEPLOYMENT 1"
000000c7 4144595f464f 
000000cd 525f54455354 
000000d3 494e475f4f52 
000000d9 5f4445504c4f 
000000df 594d454e5420 
000000e5 3100 
000000e7 03             7817 	.byte	3
000000e8 00             7818 	.byte	0
000000e9 01             7819 	.byte	1
000000ea 03             7820 	.byte	3
000000eb 01             7821 	.byte	1
000000ec 02             7822 	.byte	2
000000ed 03             7823 	.byte	3
000000ee 1c             7824 	.byte	28
000000ef 03             7825 	.byte	3
000000f0 01             7826 	.byte	1
000000f1 39             7827 	.byte	57
000000f2 4c4f575f4259   7828 	.strz	"LOW_BYTE_FIRST 1u"
000000f8 54455f464952 
000000fe 535420317500 
00000104 01             7829 	.byte	1
00000105 3c             7830 	.byte	60
00000106 545255452031   7831 	.strz	"TRUE 1u"
0000010c 7500 
0000010e 01             7832 	.byte	1
0000010f 40             7833 	.byte	64
00000110 46414c534520   7834 	.strz	"FALSE 0u"
00000116 307500 
00000119 01             7835 	.byte	1
0000011a 45             7836 	.byte	69
0000011b 4350555f4259   7837 	.strz	"CPU_BYTE_ORDER LOW_BYTE_FIRST"

                                                                      Page 157
                                                              C:\Users\nhuliyap\AppData\Local\Temp\gh_0000d8g1.s
00000121 54455f4f5244 
00000127 4552204c4f57 
0000012d 5f425954455f 
00000133 464952535400 
00000139 04             7838 	.byte	4
0000013a 03             7839 	.byte	3
0000013b 1d             7840 	.byte	29
0000013c 04             7841 	.byte	4
0000013d 03             7842 	.byte	3
0000013e 1b             7843 	.byte	27
0000013f 05             7844 	.byte	5
00000140 03             7845 	.byte	3
00000141 54             7846 	.byte	84
00000142 06             7847 	.byte	6
00000143 04             7848 	.byte	4
00000144 04             7849 	.byte	4
00000145 01             7850 	.byte	1
00000146 2f             7851 	.byte	47
00000147 4e554c4c5f50   7852 	.strz	"NULL_PTR ((void *)0)"
0000014d 545220282876 
00000153 6f6964202a29 
00000159 302900 
0000015c 01             7853 	.byte	1
0000015d 33             7854 	.byte	51
0000015e 4c4f43414c5f   7855 	.strz	"LOCAL_INLINE static inline"
00000164 494e4c494e45 
0000016a 207374617469 
00000170 6320696e6c69 
00000176 6e6500 
00000179 01             7856 	.byte	1
0000017a 34             7857 	.byte	52
0000017b 46554e432872   7858 	.strz	"FUNC(rettype,memclass) rettype"
00000181 657474797065 
00000187 2c6d656d636c 
0000018d 617373292072 
00000193 657474797065 
00000199 00 
0000019a 01             7859 	.byte	1
0000019b 37             7860 	.byte	55
0000019c 503256415228   7861 	.strz	"P2VAR(ptrtype,memclass,ptrclass) ptrtype*"
000001a2 707472747970 
000001a8 652c6d656d63 
000001ae 6c6173732c70 
000001b4 7472636c6173 
000001ba 732920707472 
000001c0 747970652a00 
000001c6 01             7862 	.byte	1
000001c7 38             7863 	.byte	56
000001c8 5032434f4e53   7864 	.strz	"P2CONST(ptrtype,memclass,ptrclass) const ptrtype*"
000001ce 542870747274 
000001d4 7970652c6d65 
000001da 6d636c617373 
000001e0 2c707472636c 
000001e6 617373292063 
000001ec 6f6e73742070 
000001f2 747274797065 
000001f8 2a00 
000001fa 01             7865 	.byte	1
000001fb 3b             7866 	.byte	59
000001fc 503246554e43   7867 	.strz	"P2FUNC(rettype,ptrclass,fctname) rettype (*fctname)"
00000202 287265747479 

                                                                      Page 158
                                                              C:\Users\nhuliyap\AppData\Local\Temp\gh_0000d8g1.s
00000208 70652c707472 
0000020e 636c6173732c 
00000214 6663746e616d 
0000021a 652920726574 
00000220 747970652028 
00000226 2a6663746e61 
0000022c 6d652900 
00000230 01             7868 	.byte	1
00000231 3d             7869 	.byte	61
00000232 434f4e535428   7870 	.strz	"CONST(type,memclass) const type"
00000238 747970652c6d 
0000023e 656d636c6173 
00000244 732920636f6e 
0000024a 737420747970 
00000250 6500 
00000252 01             7871 	.byte	1
00000253 3e             7872 	.byte	62
00000254 564152287661   7873 	.strz	"VAR(vartype,memclass) vartype"
0000025a 72747970652c 
00000260 6d656d636c61 
00000266 737329207661 
0000026c 727479706500 
00000272 04             7874 	.byte	4
00000273 01             7875 	.byte	1
00000274 3c             7876 	.byte	60
00000275 5354445f4f4e   7877 	.strz	"STD_ON 1u"
0000027b 20317500 
0000027f 01             7878 	.byte	1
00000280 3d             7879 	.byte	61
00000281 5354445f4f46   7880 	.strz	"STD_OFF 0u"
00000287 4620307500 
0000028c 01             7881 	.byte	1
0000028d 3f             7882 	.byte	63
0000028e 455f4e4f545f   7883 	.strz	"E_NOT_OK 1u"
00000294 4f4b20317500 
0000029a 04             7884 	.byte	4
0000029b 03             7885 	.byte	3
0000029c 03             7886 	.byte	3
0000029d 07             7887 	.byte	7
0000029e 03             7888 	.byte	3
0000029f 04             7889 	.byte	4
000002a0 08             7890 	.byte	8
000002a1 04             7891 	.byte	4
000002a2 03             7892 	.byte	3
000002a3 05             7893 	.byte	5
000002a4 09             7894 	.byte	9
000002a5 03             7895 	.byte	3
000002a6 04             7896 	.byte	4
000002a7 0a             7897 	.byte	10
000002a8 03             7898 	.byte	3
000002a9 06             7899 	.byte	6
000002aa 0b             7900 	.byte	11
000002ab 01             7901 	.byte	1
000002ac 02             7902 	.byte	2
000002ad 44454d5f5459   7903 	.strz	"DEM_TYPES_H "
000002b3 5045535f4820 
000002b9 00 
000002ba 03             7904 	.byte	3
000002bb 04             7905 	.byte	4
000002bc 0c             7906 	.byte	12
000002bd 01             7907 	.byte	1

                                                                      Page 159
                                                              C:\Users\nhuliyap\AppData\Local\Temp\gh_0000d8g1.s
000002be 04             7908 	.byte	4
000002bf 44454d5f4346   7909 	.strz	"DEM_CFG_OBD_OFF 0"
000002c5 475f4f42445f 
000002cb 4f4646203000 
000002d1 01             7910 	.byte	1
000002d2 05             7911 	.byte	5
000002d3 44454d5f4346   7912 	.strz	"DEM_CFG_OBD_ON 1"
000002d9 475f4f42445f 
000002df 4f4e203100 
000002e4 01             7913 	.byte	1
000002e5 06             7914 	.byte	6
000002e6 44454d5f4346   7915 	.strz	"DEM_CFG_OBD DEM_CFG_OBD_OFF"
000002ec 475f4f424420 
000002f2 44454d5f4346 
000002f8 475f4f42445f 
000002fe 4f464600 
00000302 01             7916 	.byte	1
00000303 07             7917 	.byte	7
00000304 44454d5f4346   7918 	.strz	"DEM_CFG_J1939DCM_OFF 0"
0000030a 475f4a313933 
00000310 3944434d5f4f 
00000316 4646203000 
0000031b 01             7919 	.byte	1
0000031c 09             7920 	.byte	9
0000031d 44454d5f4346   7921 	.strz	"DEM_CFG_J1939DCM DEM_CFG_J1939DCM_OFF"
00000323 475f4a313933 
00000329 3944434d2044 
0000032f 454d5f434647 
00000335 5f4a31393339 
0000033b 44434d5f4f46 
00000341 4600 
00000343 01             7922 	.byte	1
00000344 11             7923 	.byte	17
00000345 44454d5f4246   7924 	.strz	"DEM_BFM_ON TRUE"
0000034b 4d5f4f4e2054 
00000351 52554500 
00000355 01             7925 	.byte	1
00000356 15             7926 	.byte	21
00000357 44454d5f4246   7927 	.strz	"DEM_BFM_OFF FALSE"
0000035d 4d5f4f464620 
00000363 46414c534500 
00000369 01             7928 	.byte	1
0000036a 1f             7929 	.byte	31
0000036b 44454d5f4246   7930 	.strz	"DEM_BFM_ENABLED DEM_BFM_OFF"
00000371 4d5f454e4142 
00000377 4c4544204445 
0000037d 4d5f42464d5f 
00000383 4f464600 
00000387 01             7931 	.byte	1
00000388 20             7932 	.byte	32
00000389 44454d5f4346   7933 	.strz	"DEM_CFG_TRIGGER_TO_STORE_NVM_SUPPORTED FALSE"
0000038f 475f54524947 
00000395 4745525f544f 
0000039b 5f53544f5245 
000003a1 5f4e564d5f53 
000003a7 5550504f5254 
000003ad 45442046414c 
000003b3 534500 
000003b6 01             7934 	.byte	1
000003b7 21             7935 	.byte	33
000003b8 44454d5f4346   7936 	.strz	"DEM_CFG_SUSPICIOUS_SUPPORT FALSE"

                                                                      Page 160
                                                              C:\Users\nhuliyap\AppData\Local\Temp\gh_0000d8g1.s
000003be 475f53555350 
000003c4 4943494f5553 
000003ca 5f535550504f 
000003d0 52542046414c 
000003d6 534500 
000003d9 01             7937 	.byte	1
000003da 22             7938 	.byte	34
000003db 44454d5f4346   7939 	.strz	"DEM_CFG_DEBTIMEBASED_CONFIGURED_CYCLICTASKTIME TRUE"
000003e1 475f44454254 
000003e7 494d45424153 
000003ed 45445f434f4e 
000003f3 464947555245 
000003f9 445f4359434c 
000003ff 49435441534b 
00000405 54494d452054 
0000040b 52554500 
0000040f 01             7940 	.byte	1
00000410 23             7941 	.byte	35
00000411 44454d5f4346   7942 	.strz	"DEM_CFG_EVMEMGENERIC_SUPPORTED TRUE"
00000417 475f45564d45 
0000041d 4d47454e4552 
00000423 49435f535550 
00000429 504f52544544 
0000042f 205452554500 
00000435 01             7943 	.byte	1
00000436 24             7944 	.byte	36
00000437 44454d5f4346   7945 	.strz	"DEM_CFG_VERSION_INFO_API_OFF STD_OFF"
0000043d 475f56455253 
00000443 494f4e5f494e 
00000449 464f5f415049 
0000044f 5f4f46462053 
00000455 54445f4f4646 
0000045b 00 
0000045c 01             7946 	.byte	1
0000045d 25             7947 	.byte	37
0000045e 44454d5f4346   7948 	.strz	"DEM_CFG_VERSION_INFO_API_ON STD_ON"
00000464 475f56455253 
0000046a 494f4e5f494e 
00000470 464f5f415049 
00000476 5f4f4e205354 
0000047c 445f4f4e00 
00000481 01             7949 	.byte	1
00000482 26             7950 	.byte	38
00000483 44454d5f4346   7951 	.strz	"DEM_CFG_VERSION_INFO_API DEM_CFG_VERSION_INFO_API_OFF"
00000489 475f56455253 
0000048f 494f4e5f494e 
00000495 464f5f415049 
0000049b 2044454d5f43 
000004a1 46475f564552 
000004a7 53494f4e5f49 
000004ad 4e464f5f4150 
000004b3 495f4f464600 
000004b9 01             7952 	.byte	1
000004ba 27             7953 	.byte	39
000004bb 44454d5f4346   7954 	.strz	"DEM_CFG_ALTERNATIVEDTC_OFF STD_OFF"
000004c1 475f414c5445 
000004c7 524e41544956 
000004cd 454454435f4f 
000004d3 464620535444 
000004d9 5f4f464600 
000004de 01             7955 	.byte	1

                                                                      Page 161
                                                              C:\Users\nhuliyap\AppData\Local\Temp\gh_0000d8g1.s
000004df 28             7956 	.byte	40
000004e0 44454d5f4346   7957 	.strz	"DEM_CFG_ALTERNATIVEDTC_ON STD_ON"
000004e6 475f414c5445 
000004ec 524e41544956 
000004f2 454454435f4f 
000004f8 4e205354445f 
000004fe 4f4e00 
00000501 01             7958 	.byte	1
00000502 29             7959 	.byte	41
00000503 44454d5f4346   7960 	.strz	"DEM_CFG_ALTERNATIVEDTC DEM_CFG_ALTERNATIVEDTC_OFF"
00000509 475f414c5445 
0000050f 524e41544956 
00000515 454454432044 
0000051b 454d5f434647 
00000521 5f414c544552 
00000527 4e4154495645 
0000052d 4454435f4f46 
00000533 4600 
00000535 01             7961 	.byte	1
00000536 2a             7962 	.byte	42
00000537 44454d5f4346   7963 	.strz	"DEM_CFG_ERASE_ALL_OFF 0u"
0000053d 475f45524153 
00000543 455f414c4c5f 
00000549 4f4646203075 
0000054f 00 
00000550 01             7964 	.byte	1
00000551 2b             7965 	.byte	43
00000552 44454d5f4346   7966 	.strz	"DEM_CFG_ERASE_ALL_WITHOUT_HASHID_CHECK 1u"
00000558 475f45524153 
0000055e 455f414c4c5f 
00000564 574954484f55 
0000056a 545f48415348 
00000570 49445f434845 
00000576 434b20317500 
0000057c 01             7967 	.byte	1
0000057d 2c             7968 	.byte	44
0000057e 44454d5f4346   7969 	.strz	"DEM_CFG_ERASE_ALL_WITH_HASHID_CHECK 2u"
00000584 475f45524153 
0000058a 455f414c4c5f 
00000590 574954485f48 
00000596 41534849445f 
0000059c 434845434b20 
000005a2 327500 
000005a5 01             7970 	.byte	1
000005a6 2d             7971 	.byte	45
000005a7 44454d5f4346   7972 	.strz	"DEM_CFG_ERASE_ALL_DATA_SUPPORTED DEM_CFG_ERASE_ALL_OFF"
000005ad 475f45524153 
000005b3 455f414c4c5f 
000005b9 444154415f53 
000005bf 5550504f5254 
000005c5 45442044454d 
000005cb 5f4346475f45 
000005d1 524153455f41 
000005d7 4c4c5f4f4646 
000005dd 00 
000005de 01             7973 	.byte	1
000005df 2e             7974 	.byte	46
000005e0 44454d5f4346   7975 	.strz	"DEM_CFG_DEPENDENCY_OFF STD_OFF"
000005e6 475f44455045 
000005ec 4e44454e4359 
000005f2 5f4f46462053 

                                                                      Page 162
                                                              C:\Users\nhuliyap\AppData\Local\Temp\gh_0000d8g1.s
000005f8 54445f4f4646 
000005fe 00 
000005ff 01             7976 	.byte	1
00000600 2f             7977 	.byte	47
00000601 44454d5f4346   7978 	.strz	"DEM_CFG_DEPENDENCY_ON STD_ON"
00000607 475f44455045 
0000060d 4e44454e4359 
00000613 5f4f4e205354 
00000619 445f4f4e00 
0000061e 01             7979 	.byte	1
0000061f 30             7980 	.byte	48
00000620 44454d5f4346   7981 	.strz	"DEM_CFG_DEPENDENCY DEM_CFG_DEPENDENCY_OFF"
00000626 475f44455045 
0000062c 4e44454e4359 
00000632 2044454d5f43 
00000638 46475f444550 
0000063e 454e44454e43 
00000644 595f4f464600 
0000064a 01             7982 	.byte	1
0000064b 31             7983 	.byte	49
0000064c 44454d5f4346   7984 	.strz	"DEM_CFG_TESTMODE_SUPPORT_ON STD_ON"
00000652 475f54455354 
00000658 4d4f44455f53 
0000065e 5550504f5254 
00000664 5f4f4e205354 
0000066a 445f4f4e00 
0000066f 01             7985 	.byte	1
00000670 32             7986 	.byte	50
00000671 44454d5f4346   7987 	.strz	"DEM_CFG_TESTMODE_SUPPORT_OFF STD_OFF"
00000677 475f54455354 
0000067d 4d4f44455f53 
00000683 5550504f5254 
00000689 5f4f46462053 
0000068f 54445f4f4646 
00000695 00 
00000696 01             7988 	.byte	1
00000697 33             7989 	.byte	51
00000698 44454d5f4346   7990 	.strz	"DEM_CFG_TESTMODE_SUPPORT DEM_CFG_TESTMODE_SUPPORT_OFF"
0000069e 475f54455354 
000006a4 4d4f44455f53 
000006aa 5550504f5254 
000006b0 2044454d5f43 
000006b6 46475f544553 
000006bc 544d4f44455f 
000006c2 535550504f52 
000006c8 545f4f464600 
000006ce 01             7991 	.byte	1
000006cf 34             7992 	.byte	52
000006d0 44454d5f4346   7993 	.strz	"DEM_CFG_CHECKAPICONSISTENCY TRUE"
000006d6 475f43484543 
000006dc 4b415049434f 
000006e2 4e5349535445 
000006e8 4e4359205452 
000006ee 554500 
000006f1 01             7994 	.byte	1
000006f2 35             7995 	.byte	53
000006f3 44454d5f4346   7996 	.strz	"DEM_CFG_DEBUGDATA_OFF 0"
000006f9 475f44454255 
000006ff 47444154415f 
00000705 4f4646203000 
0000070b 01             7997 	.byte	1

                                                                      Page 163
                                                              C:\Users\nhuliyap\AppData\Local\Temp\gh_0000d8g1.s
0000070c 37             7998 	.byte	55
0000070d 44454d5f4346   7999 	.strz	"DEM_CFG_DEBUGDATA_32BIT (0+4)"
00000713 475f44454255 
00000719 47444154415f 
0000071f 333242495420 
00000725 28302b342900 
0000072b 01             8000 	.byte	1
0000072c 38             8001 	.byte	56
0000072d 44454d5f4346   8002 	.strz	"DEM_CFG_DEBUGDATA DEM_CFG_DEBUGDATA_32BIT"
00000733 475f44454255 
00000739 474441544120 
0000073f 44454d5f4346 
00000745 475f44454255 
0000074b 47444154415f 
00000751 333242495400 
00000757 01             8003 	.byte	1
00000758 3b             8004 	.byte	59
00000759 44454d5f4445   8005 	.strz	"DEM_DEBUGDATA_PARAM(A,B) ,A,B"
0000075f 425547444154 
00000765 415f50415241 
0000076b 4d28412c4229 
00000771 202c412c4200 
00000777 04             8006 	.byte	4
00000778 03             8007 	.byte	3
00000779 05             8008 	.byte	5
0000077a 0d             8009 	.byte	13
0000077b 03             8010 	.byte	3
0000077c 04             8011 	.byte	4
0000077d 0e             8012 	.byte	14
0000077e 03             8013 	.byte	3
0000077f 06             8014 	.byte	6
00000780 0b             8015 	.byte	11
00000781 04             8016 	.byte	4
00000782 01             8017 	.byte	1
00000783 22             8018 	.byte	34
00000784 44454d5f494e   8019 	.strz	"DEM_INVALID_DTC 0xAA000000u"
0000078a 56414c49445f 
00000790 445443203078 
00000796 414130303030 
0000079c 30307500 
000007a0 04             8020 	.byte	4
000007a1 04             8021 	.byte	4
000007a2 03             8022 	.byte	3
000007a3 06             8023 	.byte	6
000007a4 0f             8024 	.byte	15
000007a5 01             8025 	.byte	1
000007a6 04             8026 	.byte	4
000007a7 44454d5f4e4f   8027 	.strz	"DEM_NODEID_INVALID 0"
000007ad 444549445f49 
000007b3 4e56414c4944 
000007b9 203000 
000007bc 01             8028 	.byte	1
000007bd 05             8029 	.byte	5
000007be 44454d5f4e4f   8030 	.strz	"DEM_NODEID_COUNT 6u"
000007c4 444549445f43 
000007ca 4f554e542036 
000007d0 7500 
000007d2 01             8031 	.byte	1
000007d3 06             8032 	.byte	6
000007d4 44454d5f4e4f   8033 	.strz	"DEM_NODEID_ARRAYLENGTH (DEM_NODEID_COUNT+1u)"
000007da 444549445f41 

                                                                      Page 164
                                                              C:\Users\nhuliyap\AppData\Local\Temp\gh_0000d8g1.s
000007e0 525241594c45 
000007e6 4e4754482028 
000007ec 44454d5f4e4f 
000007f2 444549445f43 
000007f8 4f554e542b31 
000007fe 752900 
00000801 04             8034 	.byte	4
00000802 03             8035 	.byte	3
00000803 07             8036 	.byte	7
00000804 10             8037 	.byte	16
00000805 01             8038 	.byte	1
00000806 08             8039 	.byte	8
00000807 44454d5f4d4f   8040 	.strz	"DEM_MODULE_ID 54"
0000080d 44554c455f49 
00000813 4420353400 
00000818 01             8041 	.byte	1
00000819 0a             8042 	.byte	10
0000081a 44454d5f494e   8043 	.strz	"DEM_INSTANCE_ID 0"
00000820 5354414e4345 
00000826 5f4944203000 
0000082c 04             8044 	.byte	4
0000082d 03             8045 	.byte	3
0000082e 08             8046 	.byte	8
0000082f 11             8047 	.byte	17
00000830 01             8048 	.byte	1
00000831 08             8049 	.byte	8
00000832 44454d5f5544   8050 	.strz	"DEM_UDS_STATUS_TF 0x01"
00000838 535f53544154 
0000083e 55535f544620 
00000844 3078303100 
00000849 01             8051 	.byte	1
0000084a 09             8052 	.byte	9
0000084b 44454d5f5544   8053 	.strz	"DEM_UDS_STATUS_TFTOC 0x02"
00000851 535f53544154 
00000857 55535f544654 
0000085d 4f4320307830 
00000863 3200 
00000865 01             8054 	.byte	1
00000866 0a             8055 	.byte	10
00000867 44454d5f5544   8056 	.strz	"DEM_UDS_STATUS_PDTC 0x04"
0000086d 535f53544154 
00000873 55535f504454 
00000879 432030783034 
0000087f 00 
00000880 01             8057 	.byte	1
00000881 0b             8058 	.byte	11
00000882 44454d5f5544   8059 	.strz	"DEM_UDS_STATUS_CDTC 0x08"
00000888 535f53544154 
0000088e 55535f434454 
00000894 432030783038 
0000089a 00 
0000089b 01             8060 	.byte	1
0000089c 0c             8061 	.byte	12
0000089d 44454d5f5544   8062 	.strz	"DEM_UDS_STATUS_TNCSLC 0x10"
000008a3 535f53544154 
000008a9 55535f544e43 
000008af 534c43203078 
000008b5 313000 
000008b8 01             8063 	.byte	1
000008b9 0d             8064 	.byte	13
000008ba 44454d5f5544   8065 	.strz	"DEM_UDS_STATUS_TFSLC 0x20"

                                                                      Page 165
                                                              C:\Users\nhuliyap\AppData\Local\Temp\gh_0000d8g1.s
000008c0 535f53544154 
000008c6 55535f544653 
000008cc 4c4320307832 
000008d2 3000 
000008d4 01             8066 	.byte	1
000008d5 0e             8067 	.byte	14
000008d6 44454d5f5544   8068 	.strz	"DEM_UDS_STATUS_TNCTOC 0x40"
000008dc 535f53544154 
000008e2 55535f544e43 
000008e8 544f43203078 
000008ee 343000 
000008f1 01             8069 	.byte	1
000008f2 0f             8070 	.byte	15
000008f3 44454d5f5544   8071 	.strz	"DEM_UDS_STATUS_WIR 0x80"
000008f9 535f53544154 
000008ff 55535f574952 
00000905 203078383000 
0000090b 01             8072 	.byte	1
0000090c 18             8073 	.byte	24
0000090d 44454d5f4454   8074 	.strz	"DEM_DTC_ORIGIN_PRIMARY_MEMORY 0x01"
00000913 435f4f524947 
00000919 494e5f505249 
0000091f 4d4152595f4d 
00000925 454d4f525920 
0000092b 3078303100 
00000930 01             8075 	.byte	1
00000931 19             8076 	.byte	25
00000932 44454d5f4454   8077 	.strz	"DEM_DTC_ORIGIN_MIRROR_MEMORY 0x02"
00000938 435f4f524947 
0000093e 494e5f4d4952 
00000944 524f525f4d45 
0000094a 4d4f52592030 
00000950 78303200 
00000954 01             8078 	.byte	1
00000955 1a             8079 	.byte	26
00000956 44454d5f4454   8080 	.strz	"DEM_DTC_ORIGIN_PERMANENT_MEMORY 0x03"
0000095c 435f4f524947 
00000962 494e5f504552 
00000968 4d414e454e54 
0000096e 5f4d454d4f52 
00000974 592030783033 
0000097a 00 
0000097b 01             8081 	.byte	1
0000097c 1d             8082 	.byte	29
0000097d 44454d5f4454   8083 	.strz	"DEM_DTC_ORIGIN_SECONDARY_MEMORY 0x04"
00000983 435f4f524947 
00000989 494e5f534543 
0000098f 4f4e44415259 
00000995 5f4d454d4f52 
0000099b 592030783034 
000009a1 00 
000009a2 04             8084 	.byte	4
000009a3 01             8085 	.byte	1
000009a4 0e             8086 	.byte	14
000009a5 44454d5f494e   8087 	.strz	"DEM_INLINE LOCAL_INLINE"
000009ab 4c494e45204c 
000009b1 4f43414c5f49 
000009b7 4e4c494e4500 
000009bd 01             8088 	.byte	1
000009be 0f             8089 	.byte	15
000009bf 44454d5f554e   8090 	.strz	"DEM_UNUSED_PARAM(P) ((void)(P))"

                                                                      Page 166
                                                              C:\Users\nhuliyap\AppData\Local\Temp\gh_0000d8g1.s
000009c5 555345445f50 
000009cb 4152414d2850 
000009d1 29202828766f 
000009d7 696429285029 
000009dd 2900 
000009df 01             8091 	.byte	1
000009e0 10             8092 	.byte	16
000009e1 44454d5f455f   8093 	.strz	"DEM_E_NO_DTC_AVAILABLE 2"
000009e7 4e4f5f445443 
000009ed 5f415641494c 
000009f3 41424c452032 
000009f9 00 
000009fa 01             8094 	.byte	1
000009fb 12             8095 	.byte	18
000009fc 455f4e4f5f44   8096 	.strz	"E_NO_DTC_AVAILABLE DEM_E_NO_DTC_AVAILABLE"
00000a02 54435f415641 
00000a08 494c41424c45 
00000a0e 2044454d5f45 
00000a14 5f4e4f5f4454 
00000a1a 435f41564149 
00000a20 4c41424c4500 
00000a26 01             8097 	.byte	1
00000a27 19             8098 	.byte	25
00000a28 44454d5f455f   8099 	.strz	"DEM_E_NO_FDC_AVAILABLE 3"
00000a2e 4e4f5f464443 
00000a34 5f415641494c 
00000a3a 41424c452033 
00000a40 00 
00000a41 01             8100 	.byte	1
00000a42 1b             8101 	.byte	27
00000a43 455f4e4f5f46   8102 	.strz	"E_NO_FDC_AVAILABLE DEM_E_NO_FDC_AVAILABLE"
00000a49 44435f415641 
00000a4f 494c41424c45 
00000a55 2044454d5f45 
00000a5b 5f4e4f5f4644 
00000a61 435f41564149 
00000a67 4c41424c4500 
00000a6d 01             8103 	.byte	1
00000a6e 9901           8104 	.byte	153,1
00000a70 44454d5f4649   8105 	.strz	"DEM_FIRST_FAILED_DTC 0x01"
00000a76 5253545f4641 
00000a7c 494c45445f44 
00000a82 544320307830 
00000a88 3100 
00000a8a 01             8106 	.byte	1
00000a8b 9a01           8107 	.byte	154,1
00000a8d 44454d5f4d4f   8108 	.strz	"DEM_MOST_RECENT_FAILED_DTC 0x02"
00000a93 53545f524543 
00000a99 454e545f4641 
00000a9f 494c45445f44 
00000aa5 544320307830 
00000aab 3200 
00000aad 01             8109 	.byte	1
00000aae 9b01           8110 	.byte	155,1
00000ab0 44454d5f4649   8111 	.strz	"DEM_FIRST_DET_CONFIRMED_DTC 0x03"
00000ab6 5253545f4445 
00000abc 545f434f4e46 
00000ac2 49524d45445f 
00000ac8 445443203078 
00000ace 303300 
00000ad1 01             8112 	.byte	1

                                                                      Page 167
                                                              C:\Users\nhuliyap\AppData\Local\Temp\gh_0000d8g1.s
00000ad2 9c01           8113 	.byte	156,1
00000ad4 44454d5f4d4f   8114 	.strz	"DEM_MOST_REC_DET_CONFIRMED_DTC 0x04"
00000ada 53545f524543 
00000ae0 5f4445545f43 
00000ae6 4f4e4649524d 
00000aec 45445f445443 
00000af2 203078303400 
00000af8 04             8115 	.byte	4
00000af9 01             8116 	.byte	1
00000afa 08             8117 	.byte	8
00000afb 44454d5f5354   8118 	.strz	"DEM_START_SEC_ROM_CODE "
00000b01 4152545f5345 
00000b07 435f524f4d5f 
00000b0d 434f44452000 
00000b13 03             8119 	.byte	3
00000b14 09             8120 	.byte	9
00000b15 12             8121 	.byte	18
00000b16 01             8122 	.byte	1
00000b17 06             8123 	.byte	6
00000b18 44454d5f4d45   8124 	.strz	"DEM_MEMMAP_ERROR "
00000b1e 4d4d41505f45 
00000b24 52524f522000 
00000b2a 01             8125 	.byte	1
00000b2b 51             8126 	.byte	81
00000b2c 4253575f5354   8127 	.strz	"BSW_START_SEC_CODE "
00000b32 4152545f5345 
00000b38 435f434f4445 
00000b3e 2000 
00000b40 03             8128 	.byte	3
00000b41 52             8129 	.byte	82
00000b42 13             8130 	.byte	19
00000b43 01             8131 	.byte	1
00000b44 da08           8132 	.byte	218,8
00000b46 53544152545f   8133 	.strz	"START_SEC_CODE "
00000b4c 5345435f434f 
00000b52 44452000 
00000b56 03             8134 	.byte	3
00000b57 bb09           8135 	.byte	187,9
00000b59 14             8136 	.byte	20
00000b5a 01             8137 	.byte	1
00000b5b f307           8138 	.byte	243,7
00000b5d 434f44455f53   8139 	.strz	"CODE_SEC_OPEN "
00000b63 45435f4f5045 
00000b69 4e2000 
00000b6c 04             8140 	.byte	4
00000b6d 04             8141 	.byte	4
00000b6e 01             8142 	.byte	1
00000b6f 56             8143 	.byte	86
00000b70 44454d5f5741   8144 	.strz	"DEM_WAS_STARTED_SEC_ROM_CODE "
00000b76 535f53544152 
00000b7c 5445445f5345 
00000b82 435f524f4d5f 
00000b88 434f44452000 
00000b8e 04             8145 	.byte	4
00000b8f 01             8146 	.byte	1
00000b90 21             8147 	.byte	33
00000b91 44454d5f5354   8148 	.strz	"DEM_STOP_SEC_ROM_CODE "
00000b97 4f505f534543 
00000b9d 5f524f4d5f43 
00000ba3 4f44452000 
00000ba8 03             8149 	.byte	3

                                                                      Page 168
                                                              C:\Users\nhuliyap\AppData\Local\Temp\gh_0000d8g1.s
00000ba9 22             8150 	.byte	34
00000baa 12             8151 	.byte	18
00000bab 01             8152 	.byte	1
00000bac 06             8153 	.byte	6
00000bad 44454d5f4d45   8154 	.strz	"DEM_MEMMAP_ERROR "
00000bb3 4d4d41505f45 
00000bb9 52524f522000 
00000bbf 01             8155 	.byte	1
00000bc0 5e             8156 	.byte	94
00000bc1 4253575f5354   8157 	.strz	"BSW_STOP_SEC_CODE "
00000bc7 4f505f534543 
00000bcd 5f434f444520 
00000bd3 00 
00000bd4 03             8158 	.byte	3
00000bd5 5f             8159 	.byte	95
00000bd6 13             8160 	.byte	19
00000bd7 01             8161 	.byte	1
00000bd8 de08           8162 	.byte	222,8
00000bda 53544f505f53   8163 	.strz	"STOP_SEC_CODE "
00000be0 45435f434f44 
00000be6 452000 
00000be9 03             8164 	.byte	3
00000bea bb09           8165 	.byte	187,9
00000bec 14             8166 	.byte	20
00000bed 04             8167 	.byte	4
00000bee 04             8168 	.byte	4
00000bef 04             8169 	.byte	4
00000bf0 04             8170 	.byte	4
00000bf1 01             8171 	.byte	1
00000bf2 06             8172 	.byte	6
00000bf3 44454d5f5354   8173 	.strz	"DEM_START_SEC_ROM_CODE "
00000bf9 4152545f5345 
00000bff 435f524f4d5f 
00000c05 434f44452000 
00000c0b 03             8174 	.byte	3
00000c0c 07             8175 	.byte	7
00000c0d 12             8176 	.byte	18
00000c0e 01             8177 	.byte	1
00000c0f 06             8178 	.byte	6
00000c10 44454d5f4d45   8179 	.strz	"DEM_MEMMAP_ERROR "
00000c16 4d4d41505f45 
00000c1c 52524f522000 
00000c22 01             8180 	.byte	1
00000c23 51             8181 	.byte	81
00000c24 4253575f5354   8182 	.strz	"BSW_START_SEC_CODE "
00000c2a 4152545f5345 
00000c30 435f434f4445 
00000c36 2000 
00000c38 03             8183 	.byte	3
00000c39 52             8184 	.byte	82
00000c3a 13             8185 	.byte	19
00000c3b 01             8186 	.byte	1
00000c3c da08           8187 	.byte	218,8
00000c3e 53544152545f   8188 	.strz	"START_SEC_CODE "
00000c44 5345435f434f 
00000c4a 44452000 
00000c4e 03             8189 	.byte	3
00000c4f bb09           8190 	.byte	187,9
00000c51 14             8191 	.byte	20
00000c52 01             8192 	.byte	1
00000c53 f307           8193 	.byte	243,7

                                                                      Page 169
                                                              C:\Users\nhuliyap\AppData\Local\Temp\gh_0000d8g1.s
00000c55 434f44455f53   8194 	.strz	"CODE_SEC_OPEN "
00000c5b 45435f4f5045 
00000c61 4e2000 
00000c64 04             8195 	.byte	4
00000c65 04             8196 	.byte	4
00000c66 01             8197 	.byte	1
00000c67 56             8198 	.byte	86
00000c68 44454d5f5741   8199 	.strz	"DEM_WAS_STARTED_SEC_ROM_CODE "
00000c6e 535f53544152 
00000c74 5445445f5345 
00000c7a 435f524f4d5f 
00000c80 434f44452000 
00000c86 04             8200 	.byte	4
00000c87 01             8201 	.byte	1
00000c88 18             8202 	.byte	24
00000c89 44454d5f5354   8203 	.strz	"DEM_STOP_SEC_ROM_CODE "
00000c8f 4f505f534543 
00000c95 5f524f4d5f43 
00000c9b 4f44452000 
00000ca0 03             8204 	.byte	3
00000ca1 19             8205 	.byte	25
00000ca2 12             8206 	.byte	18
00000ca3 01             8207 	.byte	1
00000ca4 06             8208 	.byte	6
00000ca5 44454d5f4d45   8209 	.strz	"DEM_MEMMAP_ERROR "
00000cab 4d4d41505f45 
00000cb1 52524f522000 
00000cb7 01             8210 	.byte	1
00000cb8 5e             8211 	.byte	94
00000cb9 4253575f5354   8212 	.strz	"BSW_STOP_SEC_CODE "
00000cbf 4f505f534543 
00000cc5 5f434f444520 
00000ccb 00 
00000ccc 03             8213 	.byte	3
00000ccd 5f             8214 	.byte	95
00000cce 13             8215 	.byte	19
00000ccf 01             8216 	.byte	1
00000cd0 de08           8217 	.byte	222,8
00000cd2 53544f505f53   8218 	.strz	"STOP_SEC_CODE "
00000cd8 45435f434f44 
00000cde 452000 
00000ce1 03             8219 	.byte	3
00000ce2 bb09           8220 	.byte	187,9
00000ce4 14             8221 	.byte	20
00000ce5 04             8222 	.byte	4
00000ce6 04             8223 	.byte	4
00000ce7 04             8224 	.byte	4
00000ce8 04             8225 	.byte	4
00000ce9 03             8226 	.byte	3
00000cea 06             8227 	.byte	6
00000ceb 15             8228 	.byte	21
00000cec 01             8229 	.byte	1
00000ced 0f             8230 	.byte	15
00000cee 4e564d5f4341   8231 	.strz	"NVM_CAT01_IDX01_REAL_SIZE 1U"
00000cf4 5430315f4944 
00000cfa 5830315f5245 
00000d00 414c5f53495a 
00000d06 4520315500 
00000d0b 01             8232 	.byte	1
00000d0c 10             8233 	.byte	16
00000d0d 4e564d5f4341   8234 	.strz	"NVM_CAT01_IDX02_REAL_SIZE 25U"

                                                                      Page 170
                                                              C:\Users\nhuliyap\AppData\Local\Temp\gh_0000d8g1.s
00000d13 5430315f4944 
00000d19 5830325f5245 
00000d1f 414c5f53495a 
00000d25 452032355500 
00000d2b 01             8235 	.byte	1
00000d2c 11             8236 	.byte	17
00000d2d 4e564d5f4341   8237 	.strz	"NVM_CAT01_IDX03_REAL_SIZE 4U"
00000d33 5430315f4944 
00000d39 5830335f5245 
00000d3f 414c5f53495a 
00000d45 4520345500 
00000d4a 01             8238 	.byte	1
00000d4b 12             8239 	.byte	18
00000d4c 4e564d5f4341   8240 	.strz	"NVM_CAT01_IDX04_REAL_SIZE 1U"
00000d52 5430315f4944 
00000d58 5830345f5245 
00000d5e 414c5f53495a 
00000d64 4520315500 
00000d69 01             8241 	.byte	1
00000d6a 13             8242 	.byte	19
00000d6b 4e564d5f4341   8243 	.strz	"NVM_CAT01_IDX05_REAL_SIZE 2U"
00000d71 5430315f4944 
00000d77 5830355f5245 
00000d7d 414c5f53495a 
00000d83 4520325500 
00000d88 01             8244 	.byte	1
00000d89 14             8245 	.byte	20
00000d8a 4e564d5f4341   8246 	.strz	"NVM_CAT01_IDX06_REAL_SIZE 8U"
00000d90 5430315f4944 
00000d96 5830365f5245 
00000d9c 414c5f53495a 
00000da2 4520385500 
00000da7 01             8247 	.byte	1
00000da8 15             8248 	.byte	21
00000da9 4e564d5f4341   8249 	.strz	"NVM_CAT01_IDX07_REAL_SIZE 5U"
00000daf 5430315f4944 
00000db5 5830375f5245 
00000dbb 414c5f53495a 
00000dc1 4520355500 
00000dc6 01             8250 	.byte	1
00000dc7 16             8251 	.byte	22
00000dc8 4e564d5f4341   8252 	.strz	"NVM_CAT01_IDX08_REAL_SIZE 1U"
00000dce 5430315f4944 
00000dd4 5830385f5245 
00000dda 414c5f53495a 
00000de0 4520315500 
00000de5 01             8253 	.byte	1
00000de6 17             8254 	.byte	23
00000de7 4e564d5f4341   8255 	.strz	"NVM_CAT01_IDX09_REAL_SIZE 1U"
00000ded 5430315f4944 
00000df3 5830395f5245 
00000df9 414c5f53495a 
00000dff 4520315500 
00000e04 01             8256 	.byte	1
00000e05 18             8257 	.byte	24
00000e06 4e564d5f4341   8258 	.strz	"NVM_CAT01_IDX10_REAL_SIZE 4U"
00000e0c 5430315f4944 
00000e12 5831305f5245 
00000e18 414c5f53495a 
00000e1e 4520345500 
00000e23 01             8259 	.byte	1

                                                                      Page 171
                                                              C:\Users\nhuliyap\AppData\Local\Temp\gh_0000d8g1.s
00000e24 1a             8260 	.byte	26
00000e25 4e564d5f4341   8261 	.byte	78,86,77,95,67,65,84,48,49,95,83,73,90,69,95,66,89,84,69,83,32,40,78,86,77,95,67,65,84,48,49,95,73,68,88,48,49,95,82,69,65,76,95,83,73,90,69,32,43,32,78,86,77,95,67,65,84,48,49,95,73
00000e2b 5430315f5349 
00000e31 5a455f425954 
00000e37 455320284e56 
00000e3d 4d5f43415430 
00000e43 315f49445830 
00000e49 315f5245414c 
00000e4f 5f53495a4520 
00000e55 2b204e564d5f 
00000e5b 43415430315f 
00000e61 49 
00000e62 445830325f52   8262 	.byte	68,88,48,50,95,82,69,65,76,95,83,73,90,69,32,43,32,78,86,77,95,67,65,84,48,49,95,73,68,88,48,51,95,82,69,65,76,95,83,73,90,69,32,43,32,78,86,77,95,67,65,84,48,49,95,73,68,88,48,52,95
00000e68 45414c5f5349 
00000e6e 5a45202b204e 
00000e74 564d5f434154 
00000e7a 30315f494458 
00000e80 30335f524541 
00000e86 4c5f53495a45 
00000e8c 202b204e564d 
00000e92 5f4341543031 
00000e98 5f4944583034 
00000e9e 5f 
00000e9f 5245414c5f53   8263 	.byte	82,69,65,76,95,83,73,90,69,32,43,32,78,86,77,95,67,65,84,48,49,95,73,68,88,48,53,95,82,69,65,76,95,83,73,90,69,32,43,32,78,86,77,95,67,65,84,48,49,95,73,68,88,48,54,95,82,69,65,76,95
00000ea5 495a45202b20 
00000eab 4e564d5f4341 
00000eb1 5430315f4944 
00000eb7 5830355f5245 
00000ebd 414c5f53495a 
00000ec3 45202b204e56 
00000ec9 4d5f43415430 
00000ecf 315f49445830 
00000ed5 365f5245414c 
00000edb 5f 
00000edc 53495a45202b   8264 	.byte	83,73,90,69,32,43,32,78,86,77,95,67,65,84,48,49,95,73,68,88,48,55,95,82,69,65,76,95,83,73,90,69,32,43,32,78,86,77,95,67,65,84,48,49,95,73,68,88,48,56,95,82,69,65,76,95,83,73,90,69,32
00000ee2 204e564d5f43 
00000ee8 415430315f49 
00000eee 445830375f52 
00000ef4 45414c5f5349 
00000efa 5a45202b204e 
00000f00 564d5f434154 
00000f06 30315f494458 
00000f0c 30385f524541 
00000f12 4c5f53495a45 
00000f18 20 
00000f19 2b204e564d5f   8265 	.byte	43,32,78,86,77,95,67,65,84,48,49,95,73,68,88,48,57,95,82,69,65,76,95,83,73,90,69,32,43,32,78,86,77,95,67,65,84,48,49,95,73,68,88,49,48,95,82,69,65,76,95,83,73,90,69,41,0
00000f1f 43415430315f 
00000f25 49445830395f 
00000f2b 5245414c5f53 
00000f31 495a45202b20 
00000f37 4e564d5f4341 
00000f3d 5430315f4944 
00000f43 5831305f5245 
00000f49 414c5f53495a 
00000f4f 452900 
00000f52 01             8266 	.byte	1
00000f53 34             8267 	.byte	52
00000f54 4e564d5f4341   8268 	.strz	"NVM_CAT02_IDX01_REAL_SIZE 1U"
00000f5a 5430325f4944 
00000f60 5830315f5245 
00000f66 414c5f53495a 

                                                                      Page 172
                                                              C:\Users\nhuliyap\AppData\Local\Temp\gh_0000d8g1.s
00000f6c 4520315500 
00000f71 01             8269 	.byte	1
00000f72 35             8270 	.byte	53
00000f73 4e564d5f4341   8271 	.strz	"NVM_CAT02_IDX02_REAL_SIZE 1U"
00000f79 5430325f4944 
00000f7f 5830325f5245 
00000f85 414c5f53495a 
00000f8b 4520315500 
00000f90 01             8272 	.byte	1
00000f91 36             8273 	.byte	54
00000f92 4e564d5f4341   8274 	.strz	"NVM_CAT02_IDX03_REAL_SIZE 10U"
00000f98 5430325f4944 
00000f9e 5830335f5245 
00000fa4 414c5f53495a 
00000faa 452031305500 
00000fb0 01             8275 	.byte	1
00000fb1 37             8276 	.byte	55
00000fb2 4e564d5f4341   8277 	.strz	"NVM_CAT02_IDX04_REAL_SIZE 10U"
00000fb8 5430325f4944 
00000fbe 5830345f5245 
00000fc4 414c5f53495a 
00000fca 452031305500 
00000fd0 01             8278 	.byte	1
00000fd1 38             8279 	.byte	56
00000fd2 4e564d5f4341   8280 	.strz	"NVM_CAT02_IDX05_REAL_SIZE 10U"
00000fd8 5430325f4944 
00000fde 5830355f5245 
00000fe4 414c5f53495a 
00000fea 452031305500 
00000ff0 01             8281 	.byte	1
00000ff1 39             8282 	.byte	57
00000ff2 4e564d5f4341   8283 	.strz	"NVM_CAT02_IDX06_REAL_SIZE 1U"
00000ff8 5430325f4944 
00000ffe 5830365f5245 
00001004 414c5f53495a 
0000100a 4520315500 
0000100f 01             8284 	.byte	1
00001010 3a             8285 	.byte	58
00001011 4e564d5f4341   8286 	.strz	"NVM_CAT02_IDX07_REAL_SIZE 1U"
00001017 5430325f4944 
0000101d 5830375f5245 
00001023 414c5f53495a 
00001029 4520315500 
0000102e 01             8287 	.byte	1
0000102f 3b             8288 	.byte	59
00001030 4e564d5f4341   8289 	.strz	"NVM_CAT02_IDX08_REAL_SIZE 1U"
00001036 5430325f4944 
0000103c 5830385f5245 
00001042 414c5f53495a 
00001048 4520315500 
0000104d 01             8290 	.byte	1
0000104e 3c             8291 	.byte	60
0000104f 4e564d5f4341   8292 	.strz	"NVM_CAT02_IDX09_REAL_SIZE 1U"
00001055 5430325f4944 
0000105b 5830395f5245 
00001061 414c5f53495a 
00001067 4520315500 
0000106c 01             8293 	.byte	1
0000106d 3d             8294 	.byte	61
0000106e 4e564d5f4341   8295 	.strz	"NVM_CAT02_IDX10_REAL_SIZE 1U"
00001074 5430325f4944 

                                                                      Page 173
                                                              C:\Users\nhuliyap\AppData\Local\Temp\gh_0000d8g1.s
0000107a 5831305f5245 
00001080 414c5f53495a 
00001086 4520315500 
0000108b 01             8296 	.byte	1
0000108c 3e             8297 	.byte	62
0000108d 4e564d5f4341   8298 	.strz	"NVM_CAT02_IDX11_REAL_SIZE 3U"
00001093 5430325f4944 
00001099 5831315f5245 
0000109f 414c5f53495a 
000010a5 4520335500 
000010aa 01             8299 	.byte	1
000010ab 3f             8300 	.byte	63
000010ac 4e564d5f4341   8301 	.strz	"NVM_CAT02_IDX12_REAL_SIZE 12U"
000010b2 5430325f4944 
000010b8 5831325f5245 
000010be 414c5f53495a 
000010c4 452031325500 
000010ca 01             8302 	.byte	1
000010cb 41             8303 	.byte	65
000010cc 4e564d5f4341   8304 	.byte	78,86,77,95,67,65,84,48,50,95,83,73,90,69,95,66,89,84,69,83,32,40,78,86,77,95,67,65,84,48,50,95,73,68,88,48,49,95,82,69,65,76,95,83,73,90,69,32,43,32,78,86,77,95,67,65,84,48,50,95,73
000010d2 5430325f5349 
000010d8 5a455f425954 
000010de 455320284e56 
000010e4 4d5f43415430 
000010ea 325f49445830 
000010f0 315f5245414c 
000010f6 5f53495a4520 
000010fc 2b204e564d5f 
00001102 43415430325f 
00001108 49 
00001109 445830325f52   8305 	.byte	68,88,48,50,95,82,69,65,76,95,83,73,90,69,32,43,32,78,86,77,95,67,65,84,48,50,95,73,68,88,48,51,95,82,69,65,76,95,83,73,90,69,32,43,32,78,86,77,95,67,65,84,48,50,95,73,68,88,48,52,95
0000110f 45414c5f5349 
00001115 5a45202b204e 
0000111b 564d5f434154 
00001121 30325f494458 
00001127 30335f524541 
0000112d 4c5f53495a45 
00001133 202b204e564d 
00001139 5f4341543032 
0000113f 5f4944583034 
00001145 5f 
00001146 5245414c5f53   8306 	.byte	82,69,65,76,95,83,73,90,69,32,43,32,78,86,77,95,67,65,84,48,50,95,73,68,88,48,53,95,82,69,65,76,95,83,73,90,69,32,43,32,78,86,77,95,67,65,84,48,50,95,73,68,88,48,54,95,82,69,65,76,95
0000114c 495a45202b20 
00001152 4e564d5f4341 
00001158 5430325f4944 
0000115e 5830355f5245 
00001164 414c5f53495a 
0000116a 45202b204e56 
00001170 4d5f43415430 
00001176 325f49445830 
0000117c 365f5245414c 
00001182 5f 
00001183 53495a45202b   8307 	.byte	83,73,90,69,32,43,32,78,86,77,95,67,65,84,48,50,95,73,68,88,48,55,95,82,69,65,76,95,83,73,90,69,32,43,32,78,86,77,95,67,65,84,48,50,95,73,68,88,48,56,95,82,69,65,76,95,83,73,90,69,32
00001189 204e564d5f43 
0000118f 415430325f49 
00001195 445830375f52 
0000119b 45414c5f5349 
000011a1 5a45202b204e 
000011a7 564d5f434154 
000011ad 30325f494458 
000011b3 30385f524541 

                                                                      Page 174
                                                              C:\Users\nhuliyap\AppData\Local\Temp\gh_0000d8g1.s
000011b9 4c5f53495a45 
000011bf 20 
000011c0 2b204e564d5f   8308 	.byte	43,32,78,86,77,95,67,65,84,48,50,95,73,68,88,48,57,95,82,69,65,76,95,83,73,90,69,32,43,32,78,86,77,95,67,65,84,48,50,95,73,68,88,49,48,95,82,69,65,76,95,83,73,90,69,32,43,32,78,86,77
000011c6 43415430325f 
000011cc 49445830395f 
000011d2 5245414c5f53 
000011d8 495a45202b20 
000011de 4e564d5f4341 
000011e4 5430325f4944 
000011ea 5831305f5245 
000011f0 414c5f53495a 
000011f6 45202b204e56 
000011fc 4d 
000011fd 5f4341543032   8309 	.byte	95,67,65,84,48,50,95,73,68,88,49,49,95,82,69,65,76,95,83,73,90,69,32,43,32,78,86,77,95,67,65,84,48,50,95,73,68,88,49,50,95,82,69,65,76,95,83,73,90,69,41,0
00001203 5f4944583131 
00001209 5f5245414c5f 
0000120f 53495a45202b 
00001215 204e564d5f43 
0000121b 415430325f49 
00001221 445831325f52 
00001227 45414c5f5349 
0000122d 5a452900 
00001231 01             8310 	.byte	1
00001232 51             8311 	.byte	81
00001233 4e564d5f4341   8312 	.strz	"NVM_CAT03_IDX01_REAL_SIZE 16U"
00001239 5430335f4944 
0000123f 5830315f5245 
00001245 414c5f53495a 
0000124b 452031365500 
00001251 01             8313 	.byte	1
00001252 52             8314 	.byte	82
00001253 4e564d5f4341   8315 	.strz	"NVM_CAT03_IDX02_REAL_SIZE 4U"
00001259 5430335f4944 
0000125f 5830325f5245 
00001265 414c5f53495a 
0000126b 4520345500 
00001270 01             8316 	.byte	1
00001271 53             8317 	.byte	83
00001272 4e564d5f4341   8318 	.strz	"NVM_CAT03_IDX03_REAL_SIZE 25U"
00001278 5430335f4944 
0000127e 5830335f5245 
00001284 414c5f53495a 
0000128a 452032355500 
00001290 01             8319 	.byte	1
00001291 54             8320 	.byte	84
00001292 4e564d5f4341   8321 	.strz	"NVM_CAT03_IDX04_REAL_SIZE 2U"
00001298 5430335f4944 
0000129e 5830345f5245 
000012a4 414c5f53495a 
000012aa 4520325500 
000012af 01             8322 	.byte	1
000012b0 55             8323 	.byte	85
000012b1 4e564d5f4341   8324 	.strz	"NVM_CAT03_IDX05_REAL_SIZE 1U"
000012b7 5430335f4944 
000012bd 5830355f5245 
000012c3 414c5f53495a 
000012c9 4520315500 
000012ce 01             8325 	.byte	1
000012cf 56             8326 	.byte	86
000012d0 4e564d5f4341   8327 	.strz	"NVM_CAT03_IDX06_REAL_SIZE 1U"
000012d6 5430335f4944 

                                                                      Page 175
                                                              C:\Users\nhuliyap\AppData\Local\Temp\gh_0000d8g1.s
000012dc 5830365f5245 
000012e2 414c5f53495a 
000012e8 4520315500 
000012ed 01             8328 	.byte	1
000012ee 57             8329 	.byte	87
000012ef 4e564d5f4341   8330 	.strz	"NVM_CAT03_IDX07_REAL_SIZE 1U"
000012f5 5430335f4944 
000012fb 5830375f5245 
00001301 414c5f53495a 
00001307 4520315500 
0000130c 01             8331 	.byte	1
0000130d 58             8332 	.byte	88
0000130e 4e564d5f4341   8333 	.strz	"NVM_CAT03_IDX08_REAL_SIZE 1U"
00001314 5430335f4944 
0000131a 5830385f5245 
00001320 414c5f53495a 
00001326 4520315500 
0000132b 01             8334 	.byte	1
0000132c 59             8335 	.byte	89
0000132d 4e564d5f4341   8336 	.strz	"NVM_CAT03_IDX09_REAL_SIZE 41U"
00001333 5430335f4944 
00001339 5830395f5245 
0000133f 414c5f53495a 
00001345 452034315500 
0000134b 01             8337 	.byte	1
0000134c 5a             8338 	.byte	90
0000134d 4e564d5f4341   8339 	.strz	"NVM_CAT03_IDX10_REAL_SIZE 2U"
00001353 5430335f4944 
00001359 5831305f5245 
0000135f 414c5f53495a 
00001365 4520325500 
0000136a 01             8340 	.byte	1
0000136b 5b             8341 	.byte	91
0000136c 4e564d5f4341   8342 	.strz	"NVM_CAT03_IDX11_REAL_SIZE 2U"
00001372 5430335f4944 
00001378 5831315f5245 
0000137e 414c5f53495a 
00001384 4520325500 
00001389 01             8343 	.byte	1
0000138a 5d             8344 	.byte	93
0000138b 4e564d5f4341   8345 	.byte	78,86,77,95,67,65,84,48,51,95,83,73,90,69,95,66,89,84,69,83,32,40,78,86,77,95,67,65,84,48,51,95,73,68,88,48,49,95,82,69,65,76,95,83,73,90,69,32,43,32,78,86,77,95,67,65,84,48,51,95,73
00001391 5430335f5349 
00001397 5a455f425954 
0000139d 455320284e56 
000013a3 4d5f43415430 
000013a9 335f49445830 
000013af 315f5245414c 
000013b5 5f53495a4520 
000013bb 2b204e564d5f 
000013c1 43415430335f 
000013c7 49 
000013c8 445830325f52   8346 	.byte	68,88,48,50,95,82,69,65,76,95,83,73,90,69,32,43,32,78,86,77,95,67,65,84,48,51,95,73,68,88,48,51,95,82,69,65,76,95,83,73,90,69,32,43,32,78,86,77,95,67,65,84,48,51,95,73,68,88,48,52,95
000013ce 45414c5f5349 
000013d4 5a45202b204e 
000013da 564d5f434154 
000013e0 30335f494458 
000013e6 30335f524541 
000013ec 4c5f53495a45 
000013f2 202b204e564d 
000013f8 5f4341543033 
000013fe 5f4944583034 

                                                                      Page 176
                                                              C:\Users\nhuliyap\AppData\Local\Temp\gh_0000d8g1.s
00001404 5f 
00001405 5245414c5f53   8347 	.byte	82,69,65,76,95,83,73,90,69,32,43,32,78,86,77,95,67,65,84,48,51,95,73,68,88,48,53,95,82,69,65,76,95,83,73,90,69,32,43,32,78,86,77,95,67,65,84,48,51,95,73,68,88,48,54,95,82,69,65,76,95
0000140b 495a45202b20 
00001411 4e564d5f4341 
00001417 5430335f4944 
0000141d 5830355f5245 
00001423 414c5f53495a 
00001429 45202b204e56 
0000142f 4d5f43415430 
00001435 335f49445830 
0000143b 365f5245414c 
00001441 5f 
00001442 53495a45202b   8348 	.byte	83,73,90,69,32,43,32,78,86,77,95,67,65,84,48,51,95,73,68,88,48,55,95,82,69,65,76,95,83,73,90,69,32,43,32,78,86,77,95,67,65,84,48,51,95,73,68,88,48,56,95,82,69,65,76,95,83,73,90,69,32
00001448 204e564d5f43 
0000144e 415430335f49 
00001454 445830375f52 
0000145a 45414c5f5349 
00001460 5a45202b204e 
00001466 564d5f434154 
0000146c 30335f494458 
00001472 30385f524541 
00001478 4c5f53495a45 
0000147e 20 
0000147f 2b204e564d5f   8349 	.byte	43,32,78,86,77,95,67,65,84,48,51,95,73,68,88,48,57,95,82,69,65,76,95,83,73,90,69,32,43,32,78,86,77,95,67,65,84,48,51,95,73,68,88,49,48,95,82,69,65,76,95,83,73,90,69,32,43,32,78,86,77
00001485 43415430335f 
0000148b 49445830395f 
00001491 5245414c5f53 
00001497 495a45202b20 
0000149d 4e564d5f4341 
000014a3 5430335f4944 
000014a9 5831305f5245 
000014af 414c5f53495a 
000014b5 45202b204e56 
000014bb 4d 
000014bc 5f4341543033   8350 	.byte	95,67,65,84,48,51,95,73,68,88,49,49,95,82,69,65,76,95,83,73,90,69,41,0
000014c2 5f4944583131 
000014c8 5f5245414c5f 
000014ce 53495a452900 
000014d4 01             8351 	.byte	1
000014d5 71             8352 	.byte	113
000014d6 4e564d5f4341   8353 	.strz	"NVM_CAT04_IDX01_REAL_SIZE 1U"
000014dc 5430345f4944 
000014e2 5830315f5245 
000014e8 414c5f53495a 
000014ee 4520315500 
000014f3 01             8354 	.byte	1
000014f4 72             8355 	.byte	114
000014f5 4e564d5f4341   8356 	.strz	"NVM_CAT04_IDX02_REAL_SIZE 1U"
000014fb 5430345f4944 
00001501 5830325f5245 
00001507 414c5f53495a 
0000150d 4520315500 
00001512 01             8357 	.byte	1
00001513 73             8358 	.byte	115
00001514 4e564d5f4341   8359 	.strz	"NVM_CAT04_IDX03_REAL_SIZE 1U"
0000151a 5430345f4944 
00001520 5830335f5245 
00001526 414c5f53495a 
0000152c 4520315500 
00001531 01             8360 	.byte	1
00001532 74             8361 	.byte	116

                                                                      Page 177
                                                              C:\Users\nhuliyap\AppData\Local\Temp\gh_0000d8g1.s
00001533 4e564d5f4341   8362 	.strz	"NVM_CAT04_IDX04_REAL_SIZE 1U"
00001539 5430345f4944 
0000153f 5830345f5245 
00001545 414c5f53495a 
0000154b 4520315500 
00001550 01             8363 	.byte	1
00001551 75             8364 	.byte	117
00001552 4e564d5f4341   8365 	.strz	"NVM_CAT04_IDX05_REAL_SIZE 16U"
00001558 5430345f4944 
0000155e 5830355f5245 
00001564 414c5f53495a 
0000156a 452031365500 
00001570 01             8366 	.byte	1
00001571 77             8367 	.byte	119
00001572 4e564d5f4341   8368 	.strz	"NVM_CAT04_SIZE_BYTES (NVM_CAT04_IDX01_REAL_SIZE + NVM_CAT04_IDX02_REAL_SIZE + NVM_CAT04_IDX03_REAL_SIZE + NVM_CAT04_IDX04_REAL_SIZE + NVM_CAT04_IDX05_REAL_SIZE)"
00001578 5430345f5349 
0000157e 5a455f425954 
00001584 455320284e56 
0000158a 4d5f43415430 
00001590 345f49445830 
00001596 315f5245414c 
0000159c 5f53495a4520 
000015a2 2b204e564d5f 
000015a8 43415430345f 
000015ae 49445830325f 
000015b4 5245414c5f53 
000015ba 495a45202b20 
000015c0 4e564d5f4341 
000015c6 5430345f4944 
000015cc 5830335f5245 
000015d2 414c5f53495a 
000015d8 45202b204e56 
000015de 4d5f43415430 
000015e4 345f49445830 
000015ea 345f5245414c 
000015f0 5f53495a4520 
000015f6 2b204e564d5f 
000015fc 43415430345f 
00001602 49445830355f 
00001608 5245414c5f53 
0000160e 495a452900 
00001613 01             8369 	.byte	1
00001614 8a01           8370 	.byte	138,1
00001616 4e564d5f4341   8371 	.strz	"NVM_CAT05_IDX01_REAL_SIZE 1U"
0000161c 5430355f4944 
00001622 5830315f5245 
00001628 414c5f53495a 
0000162e 4520315500 
00001633 01             8372 	.byte	1
00001634 8b01           8373 	.byte	139,1
00001636 4e564d5f4341   8374 	.strz	"NVM_CAT05_IDX02_REAL_SIZE 1U"
0000163c 5430355f4944 
00001642 5830325f5245 
00001648 414c5f53495a 
0000164e 4520315500 
00001653 01             8375 	.byte	1
00001654 8c01           8376 	.byte	140,1
00001656 4e564d5f4341   8377 	.strz	"NVM_CAT05_IDX03_REAL_SIZE 1U"
0000165c 5430355f4944 
00001662 5830335f5245 
00001668 414c5f53495a 

                                                                      Page 178
                                                              C:\Users\nhuliyap\AppData\Local\Temp\gh_0000d8g1.s
0000166e 4520315500 
00001673 01             8378 	.byte	1
00001674 8d01           8379 	.byte	141,1
00001676 4e564d5f4341   8380 	.strz	"NVM_CAT05_IDX04_REAL_SIZE 1U"
0000167c 5430355f4944 
00001682 5830345f5245 
00001688 414c5f53495a 
0000168e 4520315500 
00001693 01             8381 	.byte	1
00001694 8e01           8382 	.byte	142,1
00001696 4e564d5f4341   8383 	.strz	"NVM_CAT05_IDX05_REAL_SIZE 1U"
0000169c 5430355f4944 
000016a2 5830355f5245 
000016a8 414c5f53495a 
000016ae 4520315500 
000016b3 01             8384 	.byte	1
000016b4 8f01           8385 	.byte	143,1
000016b6 4e564d5f4341   8386 	.strz	"NVM_CAT05_IDX06_REAL_SIZE 1U"
000016bc 5430355f4944 
000016c2 5830365f5245 
000016c8 414c5f53495a 
000016ce 4520315500 
000016d3 01             8387 	.byte	1
000016d4 9001           8388 	.byte	144,1
000016d6 4e564d5f4341   8389 	.strz	"NVM_CAT05_IDX07_REAL_SIZE 1U"
000016dc 5430355f4944 
000016e2 5830375f5245 
000016e8 414c5f53495a 
000016ee 4520315500 
000016f3 01             8390 	.byte	1
000016f4 9101           8391 	.byte	145,1
000016f6 4e564d5f4341   8392 	.strz	"NVM_CAT05_IDX08_REAL_SIZE 1U"
000016fc 5430355f4944 
00001702 5830385f5245 
00001708 414c5f53495a 
0000170e 4520315500 
00001713 01             8393 	.byte	1
00001714 9201           8394 	.byte	146,1
00001716 4e564d5f4341   8395 	.strz	"NVM_CAT05_IDX09_REAL_SIZE 1U"
0000171c 5430355f4944 
00001722 5830395f5245 
00001728 414c5f53495a 
0000172e 4520315500 
00001733 01             8396 	.byte	1
00001734 9301           8397 	.byte	147,1
00001736 4e564d5f4341   8398 	.strz	"NVM_CAT05_IDX10_REAL_SIZE 39U"
0000173c 5430355f4944 
00001742 5831305f5245 
00001748 414c5f53495a 
0000174e 452033395500 
00001754 01             8399 	.byte	1
00001755 9501           8400 	.byte	149,1
00001757 4e564d5f4341   8401 	.byte	78,86,77,95,67,65,84,48,53,95,83,73,90,69,95,66,89,84,69,83,32,40,78,86,77,95,67,65,84,48,53,95,73,68,88,48,49,95,82,69,65,76,95,83,73,90,69,32,43,32,78,86,77,95,67,65,84,48,53,95,73
0000175d 5430355f5349 
00001763 5a455f425954 
00001769 455320284e56 
0000176f 4d5f43415430 
00001775 355f49445830 
0000177b 315f5245414c 
00001781 5f53495a4520 
00001787 2b204e564d5f 

                                                                      Page 179
                                                              C:\Users\nhuliyap\AppData\Local\Temp\gh_0000d8g1.s
0000178d 43415430355f 
00001793 49 
00001794 445830325f52   8402 	.byte	68,88,48,50,95,82,69,65,76,95,83,73,90,69,32,43,32,78,86,77,95,67,65,84,48,53,95,73,68,88,48,51,95,82,69,65,76,95,83,73,90,69,32,43,32,78,86,77,95,67,65,84,48,53,95,73,68,88,48,52,95
0000179a 45414c5f5349 
000017a0 5a45202b204e 
000017a6 564d5f434154 
000017ac 30355f494458 
000017b2 30335f524541 
000017b8 4c5f53495a45 
000017be 202b204e564d 
000017c4 5f4341543035 
000017ca 5f4944583034 
000017d0 5f 
000017d1 5245414c5f53   8403 	.byte	82,69,65,76,95,83,73,90,69,32,43,32,78,86,77,95,67,65,84,48,53,95,73,68,88,48,53,95,82,69,65,76,95,83,73,90,69,32,43,32,78,86,77,95,67,65,84,48,53,95,73,68,88,48,54,95,82,69,65,76,95
000017d7 495a45202b20 
000017dd 4e564d5f4341 
000017e3 5430355f4944 
000017e9 5830355f5245 
000017ef 414c5f53495a 
000017f5 45202b204e56 
000017fb 4d5f43415430 
00001801 355f49445830 
00001807 365f5245414c 
0000180d 5f 
0000180e 53495a45202b   8404 	.byte	83,73,90,69,32,43,32,78,86,77,95,67,65,84,48,53,95,73,68,88,48,55,95,82,69,65,76,95,83,73,90,69,32,43,32,78,86,77,95,67,65,84,48,53,95,73,68,88,48,56,95,82,69,65,76,95,83,73,90,69,32
00001814 204e564d5f43 
0000181a 415430355f49 
00001820 445830375f52 
00001826 45414c5f5349 
0000182c 5a45202b204e 
00001832 564d5f434154 
00001838 30355f494458 
0000183e 30385f524541 
00001844 4c5f53495a45 
0000184a 20 
0000184b 2b204e564d5f   8405 	.byte	43,32,78,86,77,95,67,65,84,48,53,95,73,68,88,48,57,95,82,69,65,76,95,83,73,90,69,32,43,32,78,86,77,95,67,65,84,48,53,95,73,68,88,49,48,95,82,69,65,76,95,83,73,90,69,41,0
00001851 43415430355f 
00001857 49445830395f 
0000185d 5245414c5f53 
00001863 495a45202b20 
00001869 4e564d5f4341 
0000186f 5430355f4944 
00001875 5831305f5245 
0000187b 414c5f53495a 
00001881 452900 
00001884 01             8406 	.byte	1
00001885 a101           8407 	.byte	161,1
00001887 4e564d5f4341   8408 	.strz	"NVM_CAT06_IDX01_REAL_SIZE 1U"
0000188d 5430365f4944 
00001893 5830315f5245 
00001899 414c5f53495a 
0000189f 4520315500 
000018a4 01             8409 	.byte	1
000018a5 a201           8410 	.byte	162,1
000018a7 4e564d5f4341   8411 	.strz	"NVM_CAT06_IDX02_REAL_SIZE 1U"
000018ad 5430365f4944 
000018b3 5830325f5245 
000018b9 414c5f53495a 
000018bf 4520315500 
000018c4 01             8412 	.byte	1
000018c5 a301           8413 	.byte	163,1

                                                                      Page 180
                                                              C:\Users\nhuliyap\AppData\Local\Temp\gh_0000d8g1.s
000018c7 4e564d5f4341   8414 	.strz	"NVM_CAT06_IDX03_REAL_SIZE 1U"
000018cd 5430365f4944 
000018d3 5830335f5245 
000018d9 414c5f53495a 
000018df 4520315500 
000018e4 01             8415 	.byte	1
000018e5 a401           8416 	.byte	164,1
000018e7 4e564d5f4341   8417 	.strz	"NVM_CAT06_IDX04_REAL_SIZE 1U"
000018ed 5430365f4944 
000018f3 5830345f5245 
000018f9 414c5f53495a 
000018ff 4520315500 
00001904 01             8418 	.byte	1
00001905 a501           8419 	.byte	165,1
00001907 4e564d5f4341   8420 	.strz	"NVM_CAT06_IDX05_REAL_SIZE 1U"
0000190d 5430365f4944 
00001913 5830355f5245 
00001919 414c5f53495a 
0000191f 4520315500 
00001924 01             8421 	.byte	1
00001925 a601           8422 	.byte	166,1
00001927 4e564d5f4341   8423 	.strz	"NVM_CAT06_IDX06_REAL_SIZE 1U"
0000192d 5430365f4944 
00001933 5830365f5245 
00001939 414c5f53495a 
0000193f 4520315500 
00001944 01             8424 	.byte	1
00001945 a701           8425 	.byte	167,1
00001947 4e564d5f4341   8426 	.strz	"NVM_CAT06_IDX07_REAL_SIZE 1U"
0000194d 5430365f4944 
00001953 5830375f5245 
00001959 414c5f53495a 
0000195f 4520315500 
00001964 01             8427 	.byte	1
00001965 a801           8428 	.byte	168,1
00001967 4e564d5f4341   8429 	.strz	"NVM_CAT06_IDX08_REAL_SIZE 1U"
0000196d 5430365f4944 
00001973 5830385f5245 
00001979 414c5f53495a 
0000197f 4520315500 
00001984 01             8430 	.byte	1
00001985 a901           8431 	.byte	169,1
00001987 4e564d5f4341   8432 	.strz	"NVM_CAT06_IDX09_REAL_SIZE 40U"
0000198d 5430365f4944 
00001993 5830395f5245 
00001999 414c5f53495a 
0000199f 452034305500 
000019a5 01             8433 	.byte	1
000019a6 ab01           8434 	.byte	171,1
000019a8 4e564d5f4341   8435 	.byte	78,86,77,95,67,65,84,48,54,95,83,73,90,69,95,66,89,84,69,83,32,40,78,86,77,95,67,65,84,48,54,95,73,68,88,48,49,95,82,69,65,76,95,83,73,90,69,32,43,32,78,86,77,95,67,65,84,48,54,95,73
000019ae 5430365f5349 
000019b4 5a455f425954 
000019ba 455320284e56 
000019c0 4d5f43415430 
000019c6 365f49445830 
000019cc 315f5245414c 
000019d2 5f53495a4520 
000019d8 2b204e564d5f 
000019de 43415430365f 
000019e4 49 
000019e5 445830325f52   8436 	.byte	68,88,48,50,95,82,69,65,76,95,83,73,90,69,32,43,32,78,86,77,95,67,65,84,48,54,95,73,68,88,48,51,95,82,69,65,76,95,83,73,90,69,32,43,32,78,86,77,95,67,65,84,48,54,95,73,68,88,48,52,95

                                                                      Page 181
                                                              C:\Users\nhuliyap\AppData\Local\Temp\gh_0000d8g1.s
000019eb 45414c5f5349 
000019f1 5a45202b204e 
000019f7 564d5f434154 
000019fd 30365f494458 
00001a03 30335f524541 
00001a09 4c5f53495a45 
00001a0f 202b204e564d 
00001a15 5f4341543036 
00001a1b 5f4944583034 
00001a21 5f 
00001a22 5245414c5f53   8437 	.byte	82,69,65,76,95,83,73,90,69,32,43,32,78,86,77,95,67,65,84,48,54,95,73,68,88,48,53,95,82,69,65,76,95,83,73,90,69,32,43,32,78,86,77,95,67,65,84,48,54,95,73,68,88,48,54,95,82,69,65,76,95
00001a28 495a45202b20 
00001a2e 4e564d5f4341 
00001a34 5430365f4944 
00001a3a 5830355f5245 
00001a40 414c5f53495a 
00001a46 45202b204e56 
00001a4c 4d5f43415430 
00001a52 365f49445830 
00001a58 365f5245414c 
00001a5e 5f 
00001a5f 53495a45202b   8438 	.byte	83,73,90,69,32,43,32,78,86,77,95,67,65,84,48,54,95,73,68,88,48,55,95,82,69,65,76,95,83,73,90,69,32,43,32,78,86,77,95,67,65,84,48,54,95,73,68,88,48,56,95,82,69,65,76,95,83,73,90,69,32
00001a65 204e564d5f43 
00001a6b 415430365f49 
00001a71 445830375f52 
00001a77 45414c5f5349 
00001a7d 5a45202b204e 
00001a83 564d5f434154 
00001a89 30365f494458 
00001a8f 30385f524541 
00001a95 4c5f53495a45 
00001a9b 20 
00001a9c 2b204e564d5f   8439 	.byte	43,32,78,86,77,95,67,65,84,48,54,95,73,68,88,48,57,95,82,69,65,76,95,83,73,90,69,41,0
00001aa2 43415430365f 
00001aa8 49445830395f 
00001aae 5245414c5f53 
00001ab4 495a452900 
00001ab9 01             8440 	.byte	1
00001aba b601           8441 	.byte	182,1
00001abc 4e564d5f4341   8442 	.strz	"NVM_CAT07_IDX01_REAL_SIZE 24U"
00001ac2 5430375f4944 
00001ac8 5830315f5245 
00001ace 414c5f53495a 
00001ad4 452032345500 
00001ada 01             8443 	.byte	1
00001adb b701           8444 	.byte	183,1
00001add 4e564d5f4341   8445 	.strz	"NVM_CAT07_SIZE_BYTES (NVM_CAT07_IDX01_REAL_SIZE)"
00001ae3 5430375f5349 
00001ae9 5a455f425954 
00001aef 455320284e56 
00001af5 4d5f43415430 
00001afb 375f49445830 
00001b01 315f5245414c 
00001b07 5f53495a4529 
00001b0d 00 
00001b0e 01             8446 	.byte	1
00001b0f b901           8447 	.byte	185,1
00001b11 4e564d5f4341   8448 	.strz	"NVM_CAT08_IDX01_REAL_SIZE 24U"
00001b17 5430385f4944 
00001b1d 5830315f5245 
00001b23 414c5f53495a 

                                                                      Page 182
                                                              C:\Users\nhuliyap\AppData\Local\Temp\gh_0000d8g1.s
00001b29 452032345500 
00001b2f 01             8449 	.byte	1
00001b30 ba01           8450 	.byte	186,1
00001b32 4e564d5f4341   8451 	.strz	"NVM_CAT08_SIZE_BYTES (NVM_CAT08_IDX01_REAL_SIZE)"
00001b38 5430385f5349 
00001b3e 5a455f425954 
00001b44 455320284e56 
00001b4a 4d5f43415430 
00001b50 385f49445830 
00001b56 315f5245414c 
00001b5c 5f53495a4529 
00001b62 00 
00001b63 01             8452 	.byte	1
00001b64 bc01           8453 	.byte	188,1
00001b66 4e564d5f4341   8454 	.strz	"NVM_CAT09_IDX01_REAL_SIZE 32U"
00001b6c 5430395f4944 
00001b72 5830315f5245 
00001b78 414c5f53495a 
00001b7e 452033325500 
00001b84 01             8455 	.byte	1
00001b85 bd01           8456 	.byte	189,1
00001b87 4e564d5f4341   8457 	.strz	"NVM_CAT09_SIZE_BYTES (NVM_CAT09_IDX01_REAL_SIZE)"
00001b8d 5430395f5349 
00001b93 5a455f425954 
00001b99 455320284e56 
00001b9f 4d5f43415430 
00001ba5 395f49445830 
00001bab 315f5245414c 
00001bb1 5f53495a4529 
00001bb7 00 
00001bb8 01             8458 	.byte	1
00001bb9 c301           8459 	.byte	195,1
00001bbb 4e564d5f4341   8460 	.strz	"NVM_CAT10_IDX01_REAL_SIZE 1U"
00001bc1 5431305f4944 
00001bc7 5830315f5245 
00001bcd 414c5f53495a 
00001bd3 4520315500 
00001bd8 01             8461 	.byte	1
00001bd9 c401           8462 	.byte	196,1
00001bdb 4e564d5f4341   8463 	.strz	"NVM_CAT10_IDX02_REAL_SIZE 1U"
00001be1 5431305f4944 
00001be7 5830325f5245 
00001bed 414c5f53495a 
00001bf3 4520315500 
00001bf8 01             8464 	.byte	1
00001bf9 c501           8465 	.byte	197,1
00001bfb 4e564d5f4341   8466 	.strz	"NVM_CAT10_IDX03_REAL_SIZE 1U"
00001c01 5431305f4944 
00001c07 5830335f5245 
00001c0d 414c5f53495a 
00001c13 4520315500 
00001c18 01             8467 	.byte	1
00001c19 c601           8468 	.byte	198,1
00001c1b 4e564d5f4341   8469 	.strz	"NVM_CAT10_IDX04_REAL_SIZE 1U"
00001c21 5431305f4944 
00001c27 5830345f5245 
00001c2d 414c5f53495a 
00001c33 4520315500 
00001c38 01             8470 	.byte	1
00001c39 c801           8471 	.byte	200,1
00001c3b 4e564d5f4341   8472 	.strz	"NVM_CAT10_SIZE_BYTES (NVM_CAT10_IDX01_REAL_SIZE + NVM_CAT10_IDX02_REAL_SIZE + NVM_CAT10_IDX03_REAL_SIZE + NVM_CAT10_IDX04_REAL_SIZE )"

                                                                      Page 183
                                                              C:\Users\nhuliyap\AppData\Local\Temp\gh_0000d8g1.s
00001c41 5431305f5349 
00001c47 5a455f425954 
00001c4d 455320284e56 
00001c53 4d5f43415431 
00001c59 305f49445830 
00001c5f 315f5245414c 
00001c65 5f53495a4520 
00001c6b 2b204e564d5f 
00001c71 43415431305f 
00001c77 49445830325f 
00001c7d 5245414c5f53 
00001c83 495a45202b20 
00001c89 4e564d5f4341 
00001c8f 5431305f4944 
00001c95 5830335f5245 
00001c9b 414c5f53495a 
00001ca1 45202b204e56 
00001ca7 4d5f43415431 
00001cad 305f49445830 
00001cb3 345f5245414c 
00001cb9 5f53495a4520 
00001cbf 2900 
00001cc1 04             8473 	.byte	4
00001cc2 03             8474 	.byte	3
00001cc3 07             8475 	.byte	7
00001cc4 16             8476 	.byte	22
00001cc5 03             8477 	.byte	3
00001cc6 04             8478 	.byte	4
00001cc7 17             8479 	.byte	23
00001cc8 01             8480 	.byte	1
00001cc9 0e             8481 	.byte	14
00001cca 50524f445543   8482 	.strz	"PRODUCTION_SW 0x0"
00001cd0 54494f4e5f53 
00001cd6 572030783000 
00001cdc 01             8483 	.byte	1
00001cdd 0f             8484 	.byte	15
00001cde 444556454c4f   8485 	.strz	"DEVELOPMENT_SW 0x1"
00001ce4 504d454e545f 
00001cea 535720307831 
00001cf0 00 
00001cf1 01             8486 	.byte	1
00001cf2 10             8487 	.byte	16
00001cf3 53575f434154   8488 	.strz	"SW_CATEGORY PRODUCTION_SW"
00001cf9 45474f525920 
00001cff 50524f445543 
00001d05 54494f4e5f53 
00001d0b 5700 
00001d0d 04             8489 	.byte	4
00001d0e 01             8490 	.byte	1
00001d0f 06             8491 	.byte	6
00001d10 4d41585f5349   8492 	.strz	"MAX_SIZE_WS_TELEGRAM 16U"
00001d16 5a455f57535f 
00001d1c 54454c454752 
00001d22 414d20313655 
00001d28 00 
00001d29 01             8493 	.byte	1
00001d2a 0d             8494 	.byte	13
00001d2b 4e564d5f424c   8495 	.strz	"NVM_BLOCK_SIZE 4U"
00001d31 4f434b5f5349 
00001d37 5a4520345500 
00001d3d 01             8496 	.byte	1

                                                                      Page 184
                                                              C:\Users\nhuliyap\AppData\Local\Temp\gh_0000d8g1.s
00001d3e 0e             8497 	.byte	14
00001d3f 4e564d5f424c   8498 	.strz	"NVM_BLOCK_TYPE uint32"
00001d45 4f434b5f5459 
00001d4b 50452075696e 
00001d51 74333200 
00001d55 01             8499 	.byte	1
00001d56 0f             8500 	.byte	15
00001d57 4e564d5f4855   8501 	.strz	"NVM_HUF_DATA_MAX_BYTE_SIZE 400U"
00001d5d 465f44415441 
00001d63 5f4d41585f42 
00001d69 5954455f5349 
00001d6f 5a4520343030 
00001d75 5500 
00001d77 01             8502 	.byte	1
00001d78 10             8503 	.byte	16
00001d79 4e564d5f4d41   8504 	.strz	"NVM_MAX_CATEGORYS 10U"
00001d7f 585f43415445 
00001d85 474f52595320 
00001d8b 31305500 
00001d8f 04             8505 	.byte	4
00001d90 01             8506 	.byte	1
00001d91 09             8507 	.byte	9
00001d92 4e564d5f424c   8508 	.strz	"NVM_BLOCK_SIZE_BSW_DATA (uint16)64"
00001d98 4f434b5f5349 
00001d9e 5a455f425357 
00001da4 5f4441544120 
00001daa 2875696e7431 
00001db0 3629363400 
00001db5 01             8509 	.byte	1
00001db6 22             8510 	.byte	34
00001db7 4e764d426c6f   8511 	.strz	"NvMBlock_CAT01_Consistent 0x000001"
00001dbd 636b5f434154 
00001dc3 30315f436f6e 
00001dc9 73697374656e 
00001dcf 742030783030 
00001dd5 3030303100 
00001dda 01             8512 	.byte	1
00001ddb 23             8513 	.byte	35
00001ddc 4e764d426c6f   8514 	.strz	"NvMBlock_CAT02_Consistent 0x000002"
00001de2 636b5f434154 
00001de8 30325f436f6e 
00001dee 73697374656e 
00001df4 742030783030 
00001dfa 3030303200 
00001dff 01             8515 	.byte	1
00001e00 24             8516 	.byte	36
00001e01 4e764d426c6f   8517 	.strz	"NvMBlock_CAT03_Consistent 0x000004"
00001e07 636b5f434154 
00001e0d 30335f436f6e 
00001e13 73697374656e 
00001e19 742030783030 
00001e1f 3030303400 
00001e24 01             8518 	.byte	1
00001e25 25             8519 	.byte	37
00001e26 4e764d426c6f   8520 	.strz	"NvMBlock_CAT04_Consistent 0x000008"
00001e2c 636b5f434154 
00001e32 30345f436f6e 
00001e38 73697374656e 
00001e3e 742030783030 
00001e44 3030303800 
00001e49 01             8521 	.byte	1

                                                                      Page 185
                                                              C:\Users\nhuliyap\AppData\Local\Temp\gh_0000d8g1.s
00001e4a 26             8522 	.byte	38
00001e4b 4e764d426c6f   8523 	.strz	"NvMBlock_CAT05_Consistent 0x000010"
00001e51 636b5f434154 
00001e57 30355f436f6e 
00001e5d 73697374656e 
00001e63 742030783030 
00001e69 3030313000 
00001e6e 01             8524 	.byte	1
00001e6f 27             8525 	.byte	39
00001e70 4e764d426c6f   8526 	.strz	"NvMBlock_CAT06_Consistent 0x000020"
00001e76 636b5f434154 
00001e7c 30365f436f6e 
00001e82 73697374656e 
00001e88 742030783030 
00001e8e 3030323000 
00001e93 01             8527 	.byte	1
00001e94 28             8528 	.byte	40
00001e95 4e764d426c6f   8529 	.strz	"NvMBlock_CAT07_Consistent 0x000040"
00001e9b 636b5f434154 
00001ea1 30375f436f6e 
00001ea7 73697374656e 
00001ead 742030783030 
00001eb3 3030343000 
00001eb8 01             8530 	.byte	1
00001eb9 29             8531 	.byte	41
00001eba 4e764d426c6f   8532 	.strz	"NvMBlock_CAT08_Consistent 0x000080"
00001ec0 636b5f434154 
00001ec6 30385f436f6e 
00001ecc 73697374656e 
00001ed2 742030783030 
00001ed8 3030383000 
00001edd 01             8533 	.byte	1
00001ede 2a             8534 	.byte	42
00001edf 4e764d426c6f   8535 	.strz	"NvMBlock_CAT09_Consistent 0x000100"
00001ee5 636b5f434154 
00001eeb 30395f436f6e 
00001ef1 73697374656e 
00001ef7 742030783030 
00001efd 3031303000 
00001f02 01             8536 	.byte	1
00001f03 2b             8537 	.byte	43
00001f04 4e764d426c6f   8538 	.strz	"NvMBlock_CAT10_Consistent 0x000200"
00001f0a 636b5f434154 
00001f10 31305f436f6e 
00001f16 73697374656e 
00001f1c 742030783030 
00001f22 3032303000 
00001f27 01             8539 	.byte	1
00001f28 2c             8540 	.byte	44
00001f29 4e764d426c6f   8541 	.strz	"NvMBlock_DemNvm_IdEvStatusByte_Consistent 0x000400"
00001f2f 636b5f44656d 
00001f35 4e766d5f4964 
00001f3b 457653746174 
00001f41 757342797465 
00001f47 5f436f6e7369 
00001f4d 7374656e7420 
00001f53 307830303034 
00001f59 303000 
00001f5c 01             8542 	.byte	1
00001f5d 2d             8543 	.byte	45
00001f5e 4e764d426c6f   8544 	.strz	"NvMBlock_DemNvm_IdEvMemLoc0_Consistent 0x000800"

                                                                      Page 186
                                                              C:\Users\nhuliyap\AppData\Local\Temp\gh_0000d8g1.s
00001f64 636b5f44656d 
00001f6a 4e766d5f4964 
00001f70 45764d656d4c 
00001f76 6f63305f436f 
00001f7c 6e7369737465 
00001f82 6e7420307830 
00001f88 303038303000 
00001f8e 01             8545 	.byte	1
00001f8f 2e             8546 	.byte	46
00001f90 4e764d426c6f   8547 	.strz	"NvMBlock_DemNvm_IdEvMemLoc1_Consistent 0x001000"
00001f96 636b5f44656d 
00001f9c 4e766d5f4964 
00001fa2 45764d656d4c 
00001fa8 6f63315f436f 
00001fae 6e7369737465 
00001fb4 6e7420307830 
00001fba 303130303000 
00001fc0 01             8548 	.byte	1
00001fc1 2f             8549 	.byte	47
00001fc2 4e764d426c6f   8550 	.strz	"NvMBlock_DemNvm_IdEvMemLoc2_Consistent 0x002000"
00001fc8 636b5f44656d 
00001fce 4e766d5f4964 
00001fd4 45764d656d4c 
00001fda 6f63325f436f 
00001fe0 6e7369737465 
00001fe6 6e7420307830 
00001fec 303230303000 
00001ff2 01             8551 	.byte	1
00001ff3 30             8552 	.byte	48
00001ff4 4e764d426c6f   8553 	.strz	"NvMBlock_DemNvm_IdEvMemLoc3_Consistent 0x004000"
00001ffa 636b5f44656d 
00002000 4e766d5f4964 
00002006 45764d656d4c 
0000200c 6f63335f436f 
00002012 6e7369737465 
00002018 6e7420307830 
0000201e 303430303000 
00002024 01             8554 	.byte	1
00002025 31             8555 	.byte	49
00002026 4e764d426c6f   8556 	.strz	"NvMBlock_DemNvm_IdEvMemLoc4_Consistent 0x008000"
0000202c 636b5f44656d 
00002032 4e766d5f4964 
00002038 45764d656d4c 
0000203e 6f63345f436f 
00002044 6e7369737465 
0000204a 6e7420307830 
00002050 303830303000 
00002056 01             8557 	.byte	1
00002057 32             8558 	.byte	50
00002058 4e764d426c6f   8559 	.strz	"NvMBlock_DemNvm_IdEvMemLoc5_Consistent 0x010000"
0000205e 636b5f44656d 
00002064 4e766d5f4964 
0000206a 45764d656d4c 
00002070 6f63355f436f 
00002076 6e7369737465 
0000207c 6e7420307830 
00002082 313030303000 
00002088 01             8560 	.byte	1
00002089 33             8561 	.byte	51
0000208a 4e764d426c6f   8562 	.strz	"NvMBlock_DemNvm_IdEvMemLoc6_Consistent 0x020000"
00002090 636b5f44656d 

                                                                      Page 187
                                                              C:\Users\nhuliyap\AppData\Local\Temp\gh_0000d8g1.s
00002096 4e766d5f4964 
0000209c 45764d656d4c 
000020a2 6f63365f436f 
000020a8 6e7369737465 
000020ae 6e7420307830 
000020b4 323030303000 
000020ba 01             8563 	.byte	1
000020bb 34             8564 	.byte	52
000020bc 4e764d426c6f   8565 	.strz	"NvMBlock_DemNvm_IdEvMemLoc7_Consistent 0x040000"
000020c2 636b5f44656d 
000020c8 4e766d5f4964 
000020ce 45764d656d4c 
000020d4 6f63375f436f 
000020da 6e7369737465 
000020e0 6e7420307830 
000020e6 343030303000 
000020ec 01             8566 	.byte	1
000020ed 35             8567 	.byte	53
000020ee 4e764d426c6f   8568 	.strz	"NvMBlock_DemNvm_IdEvMemLoc8_Consistent 0x080000"
000020f4 636b5f44656d 
000020fa 4e766d5f4964 
00002100 45764d656d4c 
00002106 6f63385f436f 
0000210c 6e7369737465 
00002112 6e7420307830 
00002118 383030303000 
0000211e 01             8569 	.byte	1
0000211f 36             8570 	.byte	54
00002120 4e764d426c6f   8571 	.strz	"NvMBlock_DemNvm_IdEvMemLoc9_Consistent 0x100000"
00002126 636b5f44656d 
0000212c 4e766d5f4964 
00002132 45764d656d4c 
00002138 6f63395f436f 
0000213e 6e7369737465 
00002144 6e7420307831 
0000214a 303030303000 
00002150 01             8572 	.byte	1
00002151 37             8573 	.byte	55
00002152 4e764d426c6f   8574 	.strz	"NvMBlock_DemNvm_IdDemGenericNvData_Consistent 0x200000"
00002158 636b5f44656d 
0000215e 4e766d5f4964 
00002164 44656d47656e 
0000216a 657269634e76 
00002170 446174615f43 
00002176 6f6e73697374 
0000217c 656e74203078 
00002182 323030303030 
00002188 00 
00002189 01             8575 	.byte	1
0000218a 38             8576 	.byte	56
0000218b 4e764d426c6f   8577 	.strz	"NvMBlock_ECUM_CFG_NVM_BLOCK_Consistent 0x400000"
00002191 636b5f454355 
00002197 4d5f4346475f 
0000219d 4e564d5f424c 
000021a3 4f434b5f436f 
000021a9 6e7369737465 
000021af 6e7420307834 
000021b5 303030303000 
000021bb 01             8578 	.byte	1
000021bc 39             8579 	.byte	57
000021bd 4e764d426c6f   8580 	.strz	"NvMBlock_BSW_Data_Consistent 0x800000"

                                                                      Page 188
                                                              C:\Users\nhuliyap\AppData\Local\Temp\gh_0000d8g1.s
000021c3 636b5f425357 
000021c9 5f446174615f 
000021cf 436f6e736973 
000021d5 74656e742030 
000021db 783830303030 
000021e1 3000 
000021e3 04             8581 	.byte	4
000021e4 03             8582 	.byte	3
000021e5 04             8583 	.byte	4
000021e6 18             8584 	.byte	24
000021e7 03             8585 	.byte	3
000021e8 04             8586 	.byte	4
000021e9 19             8587 	.byte	25
000021ea 04             8588 	.byte	4
000021eb 03             8589 	.byte	3
000021ec 05             8590 	.byte	5
000021ed 1a             8591 	.byte	26
000021ee 04             8592 	.byte	4
000021ef 01             8593 	.byte	1
000021f0 28             8594 	.byte	40
000021f1 4645455f3330   8595 	.strz	"FEE_30_SMALLSECTOR_START_SEC_VAR_NOINIT_UNSPECIFIED "
000021f7 5f534d414c4c 
000021fd 534543544f52 
00002203 5f5354415254 
00002209 5f5345435f56 
0000220f 41525f4e4f49 
00002215 4e49545f554e 
0000221b 535045434946 
00002221 4945442000 
00002226 03             8596 	.byte	3
00002227 29             8597 	.byte	41
00002228 1b             8598 	.byte	27
00002229 01             8599 	.byte	1
0000222a 02             8600 	.byte	2
0000222b 4d454d4d4150   8601 	.strz	"MEMMAP_VENDOR_ID (30u)"
00002231 5f56454e444f 
00002237 525f49442028 
0000223d 3330752900 
00002242 01             8602 	.byte	1
00002243 08             8603 	.byte	8
00002244 4d454d4d4150   8604 	.strz	"MEMMAP_AR_RELEASE_MAJOR_VERSION (4u)"
0000224a 5f41525f5245 
00002250 4c454153455f 
00002256 4d414a4f525f 
0000225c 56455253494f 
00002262 4e2028347529 
00002268 00 
00002269 01             8605 	.byte	1
0000226a 09             8606 	.byte	9
0000226b 4d454d4d4150   8607 	.strz	"MEMMAP_AR_RELEASE_MINOR_VERSION (0u)"
00002271 5f41525f5245 
00002277 4c454153455f 
0000227d 4d494e4f525f 
00002283 56455253494f 
00002289 4e2028307529 
0000228f 00 
00002290 01             8608 	.byte	1
00002291 0a             8609 	.byte	10
00002292 4d454d4d4150   8610 	.strz	"MEMMAP_AR_RELEASE_REVISION_VERSION (3u)"
00002298 5f41525f5245 
0000229e 4c454153455f 

                                                                      Page 189
                                                              C:\Users\nhuliyap\AppData\Local\Temp\gh_0000d8g1.s
000022a4 524556495349 
000022aa 4f4e5f564552 
000022b0 53494f4e2028 
000022b6 33752900 
000022ba 01             8611 	.byte	1
000022bb 10             8612 	.byte	16
000022bc 4d454d5f4152   8613 	.strz	"MEM_AR_RELEASE_MAJOR_VERSION MEMMAP_AR_RELEASE_MAJOR_VERSION"
000022c2 5f52454c4541 
000022c8 53455f4d414a 
000022ce 4f525f564552 
000022d4 53494f4e204d 
000022da 454d4d41505f 
000022e0 41525f52454c 
000022e6 454153455f4d 
000022ec 414a4f525f56 
000022f2 455253494f4e 
000022f8 00 
000022f9 01             8614 	.byte	1
000022fa 11             8615 	.byte	17
000022fb 4d454d5f4152   8616 	.strz	"MEM_AR_RELEASE_MINOR_VERSION MEMMAP_AR_RELEASE_MINOR_VERSION"
00002301 5f52454c4541 
00002307 53455f4d494e 
0000230d 4f525f564552 
00002313 53494f4e204d 
00002319 454d4d41505f 
0000231f 41525f52454c 
00002325 454153455f4d 
0000232b 494e4f525f56 
00002331 455253494f4e 
00002337 00 
00002338 01             8617 	.byte	1
00002339 12             8618 	.byte	18
0000233a 4d454d5f4152   8619 	.strz	"MEM_AR_RELEASE_PATCH_VERSION MEMMAP_AR_RELEASE_REVISION_VERSION"
00002340 5f52454c4541 
00002346 53455f504154 
0000234c 43485f564552 
00002352 53494f4e204d 
00002358 454d4d41505f 
0000235e 41525f52454c 
00002364 454153455f52 
0000236a 45564953494f 
00002370 4e5f56455253 
00002376 494f4e00 
0000237a 01             8620 	.byte	1
0000237b 18             8621 	.byte	24
0000237c 4d454d4d4150   8622 	.strz	"MEMMAP_SW_MAJOR_VERSION (1u)"
00002382 5f53575f4d41 
00002388 4a4f525f5645 
0000238e 5253494f4e20 
00002394 2831752900 
00002399 01             8623 	.byte	1
0000239a 19             8624 	.byte	25
0000239b 4d454d4d4150   8625 	.strz	"MEMMAP_SW_MINOR_VERSION (11u)"
000023a1 5f53575f4d49 
000023a7 4e4f525f5645 
000023ad 5253494f4e20 
000023b3 283131752900 
000023b9 01             8626 	.byte	1
000023ba 1a             8627 	.byte	26
000023bb 4d454d4d4150   8628 	.strz	"MEMMAP_SW_PATCH_VERSION (0u)"
000023c1 5f53575f5041 

                                                                      Page 190
                                                              C:\Users\nhuliyap\AppData\Local\Temp\gh_0000d8g1.s
000023c7 5443485f5645 
000023cd 5253494f4e20 
000023d3 2830752900 
000023d8 01             8629 	.byte	1
000023d9 20             8630 	.byte	32
000023da 4d454d5f5357   8631 	.strz	"MEM_SW_MAJOR_VERSION MEMMAP_SW_MAJOR_VERSION"
000023e0 5f4d414a4f52 
000023e6 5f5645525349 
000023ec 4f4e204d454d 
000023f2 4d41505f5357 
000023f8 5f4d414a4f52 
000023fe 5f5645525349 
00002404 4f4e00 
00002407 01             8632 	.byte	1
00002408 21             8633 	.byte	33
00002409 4d454d5f5357   8634 	.strz	"MEM_SW_MINOR_VERSION MEMMAP_SW_MINOR_VERSION"
0000240f 5f4d494e4f52 
00002415 5f5645525349 
0000241b 4f4e204d454d 
00002421 4d41505f5357 
00002427 5f4d494e4f52 
0000242d 5f5645525349 
00002433 4f4e00 
00002436 01             8635 	.byte	1
00002437 22             8636 	.byte	34
00002438 4d454d5f5357   8637 	.strz	"MEM_SW_PATCH_VERSION MEMMAP_SW_PATCH_VERSION"
0000243e 5f5041544348 
00002444 5f5645525349 
0000244a 4f4e204d454d 
00002450 4d41505f5357 
00002456 5f5041544348 
0000245c 5f5645525349 
00002462 4f4e00 
00002465 01             8638 	.byte	1
00002466 24             8639 	.byte	36
00002467 4d454d4d4150   8640 	.strz	"MEMMAP_ERROR "
0000246d 5f4552524f52 
00002473 2000 
00002475 01             8641 	.byte	1
00002476 5e             8642 	.byte	94
00002477 53544152545f   8643 	.strz	"START_SEC_VAR_NOINIT_UNSPECIFIED "
0000247d 5345435f5641 
00002483 525f4e4f494e 
00002489 49545f554e53 
0000248f 504543494649 
00002495 45442000 
00002499 03             8644 	.byte	3
0000249a f403           8645 	.byte	244,3
0000249c 14             8646 	.byte	20
0000249d 01             8647 	.byte	1
0000249e ce09           8648 	.byte	206,9
000024a0 5641525f5345   8649 	.strz	"VAR_SEC_OPEN "
000024a6 435f4f50454e 
000024ac 2000 
000024ae 04             8650 	.byte	4
000024af 04             8651 	.byte	4
000024b0 01             8652 	.byte	1
000024b1 41             8653 	.byte	65
000024b2 4645455f3330   8654 	.strz	"FEE_30_SMALLSECTOR_STOP_SEC_VAR_NOINIT_UNSPECIFIED "
000024b8 5f534d414c4c 
000024be 534543544f52 

                                                                      Page 191
                                                              C:\Users\nhuliyap\AppData\Local\Temp\gh_0000d8g1.s
000024c4 5f53544f505f 
000024ca 5345435f5641 
000024d0 525f4e4f494e 
000024d6 49545f554e53 
000024dc 504543494649 
000024e2 45442000 
000024e6 03             8655 	.byte	3
000024e7 42             8656 	.byte	66
000024e8 1b             8657 	.byte	27
000024e9 01             8658 	.byte	1
000024ea 02             8659 	.byte	2
000024eb 4d454d4d4150   8660 	.strz	"MEMMAP_VENDOR_ID (30u)"
000024f1 5f56454e444f 
000024f7 525f49442028 
000024fd 3330752900 
00002502 01             8661 	.byte	1
00002503 08             8662 	.byte	8
00002504 4d454d4d4150   8663 	.strz	"MEMMAP_AR_RELEASE_MAJOR_VERSION (4u)"
0000250a 5f41525f5245 
00002510 4c454153455f 
00002516 4d414a4f525f 
0000251c 56455253494f 
00002522 4e2028347529 
00002528 00 
00002529 01             8664 	.byte	1
0000252a 09             8665 	.byte	9
0000252b 4d454d4d4150   8666 	.strz	"MEMMAP_AR_RELEASE_MINOR_VERSION (0u)"
00002531 5f41525f5245 
00002537 4c454153455f 
0000253d 4d494e4f525f 
00002543 56455253494f 
00002549 4e2028307529 
0000254f 00 
00002550 01             8667 	.byte	1
00002551 0a             8668 	.byte	10
00002552 4d454d4d4150   8669 	.strz	"MEMMAP_AR_RELEASE_REVISION_VERSION (3u)"
00002558 5f41525f5245 
0000255e 4c454153455f 
00002564 524556495349 
0000256a 4f4e5f564552 
00002570 53494f4e2028 
00002576 33752900 
0000257a 01             8670 	.byte	1
0000257b 10             8671 	.byte	16
0000257c 4d454d5f4152   8672 	.strz	"MEM_AR_RELEASE_MAJOR_VERSION MEMMAP_AR_RELEASE_MAJOR_VERSION"
00002582 5f52454c4541 
00002588 53455f4d414a 
0000258e 4f525f564552 
00002594 53494f4e204d 
0000259a 454d4d41505f 
000025a0 41525f52454c 
000025a6 454153455f4d 
000025ac 414a4f525f56 
000025b2 455253494f4e 
000025b8 00 
000025b9 01             8673 	.byte	1
000025ba 11             8674 	.byte	17
000025bb 4d454d5f4152   8675 	.strz	"MEM_AR_RELEASE_MINOR_VERSION MEMMAP_AR_RELEASE_MINOR_VERSION"
000025c1 5f52454c4541 
000025c7 53455f4d494e 
000025cd 4f525f564552 

                                                                      Page 192
                                                              C:\Users\nhuliyap\AppData\Local\Temp\gh_0000d8g1.s
000025d3 53494f4e204d 
000025d9 454d4d41505f 
000025df 41525f52454c 
000025e5 454153455f4d 
000025eb 494e4f525f56 
000025f1 455253494f4e 
000025f7 00 
000025f8 01             8676 	.byte	1
000025f9 12             8677 	.byte	18
000025fa 4d454d5f4152   8678 	.strz	"MEM_AR_RELEASE_PATCH_VERSION MEMMAP_AR_RELEASE_REVISION_VERSION"
00002600 5f52454c4541 
00002606 53455f504154 
0000260c 43485f564552 
00002612 53494f4e204d 
00002618 454d4d41505f 
0000261e 41525f52454c 
00002624 454153455f52 
0000262a 45564953494f 
00002630 4e5f56455253 
00002636 494f4e00 
0000263a 01             8679 	.byte	1
0000263b 18             8680 	.byte	24
0000263c 4d454d4d4150   8681 	.strz	"MEMMAP_SW_MAJOR_VERSION (1u)"
00002642 5f53575f4d41 
00002648 4a4f525f5645 
0000264e 5253494f4e20 
00002654 2831752900 
00002659 01             8682 	.byte	1
0000265a 19             8683 	.byte	25
0000265b 4d454d4d4150   8684 	.strz	"MEMMAP_SW_MINOR_VERSION (11u)"
00002661 5f53575f4d49 
00002667 4e4f525f5645 
0000266d 5253494f4e20 
00002673 283131752900 
00002679 01             8685 	.byte	1
0000267a 1a             8686 	.byte	26
0000267b 4d454d4d4150   8687 	.strz	"MEMMAP_SW_PATCH_VERSION (0u)"
00002681 5f53575f5041 
00002687 5443485f5645 
0000268d 5253494f4e20 
00002693 2830752900 
00002698 01             8688 	.byte	1
00002699 20             8689 	.byte	32
0000269a 4d454d5f5357   8690 	.strz	"MEM_SW_MAJOR_VERSION MEMMAP_SW_MAJOR_VERSION"
000026a0 5f4d414a4f52 
000026a6 5f5645525349 
000026ac 4f4e204d454d 
000026b2 4d41505f5357 
000026b8 5f4d414a4f52 
000026be 5f5645525349 
000026c4 4f4e00 
000026c7 01             8691 	.byte	1
000026c8 21             8692 	.byte	33
000026c9 4d454d5f5357   8693 	.strz	"MEM_SW_MINOR_VERSION MEMMAP_SW_MINOR_VERSION"
000026cf 5f4d494e4f52 
000026d5 5f5645525349 
000026db 4f4e204d454d 
000026e1 4d41505f5357 
000026e7 5f4d494e4f52 
000026ed 5f5645525349 
000026f3 4f4e00 

                                                                      Page 193
                                                              C:\Users\nhuliyap\AppData\Local\Temp\gh_0000d8g1.s
000026f6 01             8694 	.byte	1
000026f7 22             8695 	.byte	34
000026f8 4d454d5f5357   8696 	.strz	"MEM_SW_PATCH_VERSION MEMMAP_SW_PATCH_VERSION"
000026fe 5f5041544348 
00002704 5f5645525349 
0000270a 4f4e204d454d 
00002710 4d41505f5357 
00002716 5f5041544348 
0000271c 5f5645525349 
00002722 4f4e00 
00002725 01             8697 	.byte	1
00002726 24             8698 	.byte	36
00002727 4d454d4d4150   8699 	.strz	"MEMMAP_ERROR "
0000272d 5f4552524f52 
00002733 2000 
00002735 01             8700 	.byte	1
00002736 62             8701 	.byte	98
00002737 53544f505f53   8702 	.strz	"STOP_SEC_VAR "
0000273d 45435f564152 
00002743 2000 
00002745 03             8703 	.byte	3
00002746 f403           8704 	.byte	244,3
00002748 14             8705 	.byte	20
00002749 04             8706 	.byte	4
0000274a 04             8707 	.byte	4
0000274b 01             8708 	.byte	1
0000274c 44             8709 	.byte	68
0000274d 4645455f3330   8710 	.strz	"FEE_30_SMALLSECTOR_START_SEC_CODE "
00002753 5f534d414c4c 
00002759 534543544f52 
0000275f 5f5354415254 
00002765 5f5345435f43 
0000276b 4f44452000 
00002770 03             8711 	.byte	3
00002771 45             8712 	.byte	69
00002772 1b             8713 	.byte	27
00002773 01             8714 	.byte	1
00002774 02             8715 	.byte	2
00002775 4d454d4d4150   8716 	.strz	"MEMMAP_VENDOR_ID (30u)"
0000277b 5f56454e444f 
00002781 525f49442028 
00002787 3330752900 
0000278c 01             8717 	.byte	1
0000278d 08             8718 	.byte	8
0000278e 4d454d4d4150   8719 	.strz	"MEMMAP_AR_RELEASE_MAJOR_VERSION (4u)"
00002794 5f41525f5245 
0000279a 4c454153455f 
000027a0 4d414a4f525f 
000027a6 56455253494f 
000027ac 4e2028347529 
000027b2 00 
000027b3 01             8720 	.byte	1
000027b4 09             8721 	.byte	9
000027b5 4d454d4d4150   8722 	.strz	"MEMMAP_AR_RELEASE_MINOR_VERSION (0u)"
000027bb 5f41525f5245 
000027c1 4c454153455f 
000027c7 4d494e4f525f 
000027cd 56455253494f 
000027d3 4e2028307529 
000027d9 00 
000027da 01             8723 	.byte	1

                                                                      Page 194
                                                              C:\Users\nhuliyap\AppData\Local\Temp\gh_0000d8g1.s
000027db 0a             8724 	.byte	10
000027dc 4d454d4d4150   8725 	.strz	"MEMMAP_AR_RELEASE_REVISION_VERSION (3u)"
000027e2 5f41525f5245 
000027e8 4c454153455f 
000027ee 524556495349 
000027f4 4f4e5f564552 
000027fa 53494f4e2028 
00002800 33752900 
00002804 01             8726 	.byte	1
00002805 10             8727 	.byte	16
00002806 4d454d5f4152   8728 	.strz	"MEM_AR_RELEASE_MAJOR_VERSION MEMMAP_AR_RELEASE_MAJOR_VERSION"
0000280c 5f52454c4541 
00002812 53455f4d414a 
00002818 4f525f564552 
0000281e 53494f4e204d 
00002824 454d4d41505f 
0000282a 41525f52454c 
00002830 454153455f4d 
00002836 414a4f525f56 
0000283c 455253494f4e 
00002842 00 
00002843 01             8729 	.byte	1
00002844 11             8730 	.byte	17
00002845 4d454d5f4152   8731 	.strz	"MEM_AR_RELEASE_MINOR_VERSION MEMMAP_AR_RELEASE_MINOR_VERSION"
0000284b 5f52454c4541 
00002851 53455f4d494e 
00002857 4f525f564552 
0000285d 53494f4e204d 
00002863 454d4d41505f 
00002869 41525f52454c 
0000286f 454153455f4d 
00002875 494e4f525f56 
0000287b 455253494f4e 
00002881 00 
00002882 01             8732 	.byte	1
00002883 12             8733 	.byte	18
00002884 4d454d5f4152   8734 	.strz	"MEM_AR_RELEASE_PATCH_VERSION MEMMAP_AR_RELEASE_REVISION_VERSION"
0000288a 5f52454c4541 
00002890 53455f504154 
00002896 43485f564552 
0000289c 53494f4e204d 
000028a2 454d4d41505f 
000028a8 41525f52454c 
000028ae 454153455f52 
000028b4 45564953494f 
000028ba 4e5f56455253 
000028c0 494f4e00 
000028c4 01             8735 	.byte	1
000028c5 18             8736 	.byte	24
000028c6 4d454d4d4150   8737 	.strz	"MEMMAP_SW_MAJOR_VERSION (1u)"
000028cc 5f53575f4d41 
000028d2 4a4f525f5645 
000028d8 5253494f4e20 
000028de 2831752900 
000028e3 01             8738 	.byte	1
000028e4 19             8739 	.byte	25
000028e5 4d454d4d4150   8740 	.strz	"MEMMAP_SW_MINOR_VERSION (11u)"
000028eb 5f53575f4d49 
000028f1 4e4f525f5645 
000028f7 5253494f4e20 
000028fd 283131752900 

                                                                      Page 195
                                                              C:\Users\nhuliyap\AppData\Local\Temp\gh_0000d8g1.s
00002903 01             8741 	.byte	1
00002904 1a             8742 	.byte	26
00002905 4d454d4d4150   8743 	.strz	"MEMMAP_SW_PATCH_VERSION (0u)"
0000290b 5f53575f5041 
00002911 5443485f5645 
00002917 5253494f4e20 
0000291d 2830752900 
00002922 01             8744 	.byte	1
00002923 20             8745 	.byte	32
00002924 4d454d5f5357   8746 	.strz	"MEM_SW_MAJOR_VERSION MEMMAP_SW_MAJOR_VERSION"
0000292a 5f4d414a4f52 
00002930 5f5645525349 
00002936 4f4e204d454d 
0000293c 4d41505f5357 
00002942 5f4d414a4f52 
00002948 5f5645525349 
0000294e 4f4e00 
00002951 01             8747 	.byte	1
00002952 21             8748 	.byte	33
00002953 4d454d5f5357   8749 	.strz	"MEM_SW_MINOR_VERSION MEMMAP_SW_MINOR_VERSION"
00002959 5f4d494e4f52 
0000295f 5f5645525349 
00002965 4f4e204d454d 
0000296b 4d41505f5357 
00002971 5f4d494e4f52 
00002977 5f5645525349 
0000297d 4f4e00 
00002980 01             8750 	.byte	1
00002981 22             8751 	.byte	34
00002982 4d454d5f5357   8752 	.strz	"MEM_SW_PATCH_VERSION MEMMAP_SW_PATCH_VERSION"
00002988 5f5041544348 
0000298e 5f5645525349 
00002994 4f4e204d454d 
0000299a 4d41505f5357 
000029a0 5f5041544348 
000029a6 5f5645525349 
000029ac 4f4e00 
000029af 01             8753 	.byte	1
000029b0 24             8754 	.byte	36
000029b1 4d454d4d4150   8755 	.strz	"MEMMAP_ERROR "
000029b7 5f4552524f52 
000029bd 2000 
000029bf 01             8756 	.byte	1
000029c0 31             8757 	.byte	49
000029c1 53544152545f   8758 	.strz	"START_SEC_CODE "
000029c7 5345435f434f 
000029cd 44452000 
000029d1 03             8759 	.byte	3
000029d2 f403           8760 	.byte	244,3
000029d4 14             8761 	.byte	20
000029d5 01             8762 	.byte	1
000029d6 f307           8763 	.byte	243,7
000029d8 434f44455f53   8764 	.strz	"CODE_SEC_OPEN "
000029de 45435f4f5045 
000029e4 4e2000 
000029e7 04             8765 	.byte	4
000029e8 04             8766 	.byte	4
000029e9 01             8767 	.byte	1
000029ea 55             8768 	.byte	85
000029eb 4645455f3330   8769 	.strz	"FEE_30_SMALLSECTOR_STOP_SEC_CODE "
000029f1 5f534d414c4c 

                                                                      Page 196
                                                              C:\Users\nhuliyap\AppData\Local\Temp\gh_0000d8g1.s
000029f7 534543544f52 
000029fd 5f53544f505f 
00002a03 5345435f434f 
00002a09 44452000 
00002a0d 03             8770 	.byte	3
00002a0e 56             8771 	.byte	86
00002a0f 1b             8772 	.byte	27
00002a10 01             8773 	.byte	1
00002a11 02             8774 	.byte	2
00002a12 4d454d4d4150   8775 	.strz	"MEMMAP_VENDOR_ID (30u)"
00002a18 5f56454e444f 
00002a1e 525f49442028 
00002a24 3330752900 
00002a29 01             8776 	.byte	1
00002a2a 08             8777 	.byte	8
00002a2b 4d454d4d4150   8778 	.strz	"MEMMAP_AR_RELEASE_MAJOR_VERSION (4u)"
00002a31 5f41525f5245 
00002a37 4c454153455f 
00002a3d 4d414a4f525f 
00002a43 56455253494f 
00002a49 4e2028347529 
00002a4f 00 
00002a50 01             8779 	.byte	1
00002a51 09             8780 	.byte	9
00002a52 4d454d4d4150   8781 	.strz	"MEMMAP_AR_RELEASE_MINOR_VERSION (0u)"
00002a58 5f41525f5245 
00002a5e 4c454153455f 
00002a64 4d494e4f525f 
00002a6a 56455253494f 
00002a70 4e2028307529 
00002a76 00 
00002a77 01             8782 	.byte	1
00002a78 0a             8783 	.byte	10
00002a79 4d454d4d4150   8784 	.strz	"MEMMAP_AR_RELEASE_REVISION_VERSION (3u)"
00002a7f 5f41525f5245 
00002a85 4c454153455f 
00002a8b 524556495349 
00002a91 4f4e5f564552 
00002a97 53494f4e2028 
00002a9d 33752900 
00002aa1 01             8785 	.byte	1
00002aa2 10             8786 	.byte	16
00002aa3 4d454d5f4152   8787 	.strz	"MEM_AR_RELEASE_MAJOR_VERSION MEMMAP_AR_RELEASE_MAJOR_VERSION"
00002aa9 5f52454c4541 
00002aaf 53455f4d414a 
00002ab5 4f525f564552 
00002abb 53494f4e204d 
00002ac1 454d4d41505f 
00002ac7 41525f52454c 
00002acd 454153455f4d 
00002ad3 414a4f525f56 
00002ad9 455253494f4e 
00002adf 00 
00002ae0 01             8788 	.byte	1
00002ae1 11             8789 	.byte	17
00002ae2 4d454d5f4152   8790 	.strz	"MEM_AR_RELEASE_MINOR_VERSION MEMMAP_AR_RELEASE_MINOR_VERSION"
00002ae8 5f52454c4541 
00002aee 53455f4d494e 
00002af4 4f525f564552 
00002afa 53494f4e204d 
00002b00 454d4d41505f 

                                                                      Page 197
                                                              C:\Users\nhuliyap\AppData\Local\Temp\gh_0000d8g1.s
00002b06 41525f52454c 
00002b0c 454153455f4d 
00002b12 494e4f525f56 
00002b18 455253494f4e 
00002b1e 00 
00002b1f 01             8791 	.byte	1
00002b20 12             8792 	.byte	18
00002b21 4d454d5f4152   8793 	.strz	"MEM_AR_RELEASE_PATCH_VERSION MEMMAP_AR_RELEASE_REVISION_VERSION"
00002b27 5f52454c4541 
00002b2d 53455f504154 
00002b33 43485f564552 
00002b39 53494f4e204d 
00002b3f 454d4d41505f 
00002b45 41525f52454c 
00002b4b 454153455f52 
00002b51 45564953494f 
00002b57 4e5f56455253 
00002b5d 494f4e00 
00002b61 01             8794 	.byte	1
00002b62 18             8795 	.byte	24
00002b63 4d454d4d4150   8796 	.strz	"MEMMAP_SW_MAJOR_VERSION (1u)"
00002b69 5f53575f4d41 
00002b6f 4a4f525f5645 
00002b75 5253494f4e20 
00002b7b 2831752900 
00002b80 01             8797 	.byte	1
00002b81 19             8798 	.byte	25
00002b82 4d454d4d4150   8799 	.strz	"MEMMAP_SW_MINOR_VERSION (11u)"
00002b88 5f53575f4d49 
00002b8e 4e4f525f5645 
00002b94 5253494f4e20 
00002b9a 283131752900 
00002ba0 01             8800 	.byte	1
00002ba1 1a             8801 	.byte	26
00002ba2 4d454d4d4150   8802 	.strz	"MEMMAP_SW_PATCH_VERSION (0u)"
00002ba8 5f53575f5041 
00002bae 5443485f5645 
00002bb4 5253494f4e20 
00002bba 2830752900 
00002bbf 01             8803 	.byte	1
00002bc0 20             8804 	.byte	32
00002bc1 4d454d5f5357   8805 	.strz	"MEM_SW_MAJOR_VERSION MEMMAP_SW_MAJOR_VERSION"
00002bc7 5f4d414a4f52 
00002bcd 5f5645525349 
00002bd3 4f4e204d454d 
00002bd9 4d41505f5357 
00002bdf 5f4d414a4f52 
00002be5 5f5645525349 
00002beb 4f4e00 
00002bee 01             8806 	.byte	1
00002bef 21             8807 	.byte	33
00002bf0 4d454d5f5357   8808 	.strz	"MEM_SW_MINOR_VERSION MEMMAP_SW_MINOR_VERSION"
00002bf6 5f4d494e4f52 
00002bfc 5f5645525349 
00002c02 4f4e204d454d 
00002c08 4d41505f5357 
00002c0e 5f4d494e4f52 
00002c14 5f5645525349 
00002c1a 4f4e00 
00002c1d 01             8809 	.byte	1
00002c1e 22             8810 	.byte	34

                                                                      Page 198
                                                              C:\Users\nhuliyap\AppData\Local\Temp\gh_0000d8g1.s
00002c1f 4d454d5f5357   8811 	.strz	"MEM_SW_PATCH_VERSION MEMMAP_SW_PATCH_VERSION"
00002c25 5f5041544348 
00002c2b 5f5645525349 
00002c31 4f4e204d454d 
00002c37 4d41505f5357 
00002c3d 5f5041544348 
00002c43 5f5645525349 
00002c49 4f4e00 
00002c4c 01             8812 	.byte	1
00002c4d 24             8813 	.byte	36
00002c4e 4d454d4d4150   8814 	.strz	"MEMMAP_ERROR "
00002c54 5f4552524f52 
00002c5a 2000 
00002c5c 01             8815 	.byte	1
00002c5d 35             8816 	.byte	53
00002c5e 53544f505f53   8817 	.strz	"STOP_SEC_CODE "
00002c64 45435f434f44 
00002c6a 452000 
00002c6d 03             8818 	.byte	3
00002c6e f403           8819 	.byte	244,3
00002c70 14             8820 	.byte	20
00002c71 04             8821 	.byte	4
00002c72 04             8822 	.byte	4
00002c73 04             8823 	.byte	4
00002c74 03             8824 	.byte	3
00002c75 05             8825 	.byte	5
00002c76 1c             8826 	.byte	28
00002c77 01             8827 	.byte	1
00002c78 04             8828 	.byte	4
00002c79 464c535f4152   8829 	.strz	"FLS_AR_FOUR_ZERO_THREE 403"
00002c7f 5f464f55525f 
00002c85 5a45524f5f54 
00002c8b 485245452034 
00002c91 303300 
00002c94 01             8830 	.byte	1
00002c95 05             8831 	.byte	5
00002c96 464c535f4152   8832 	.strz	"FLS_AR_THREE_TWO_TWO 322"
00002c9c 5f5448524545 
00002ca2 5f54574f5f54 
00002ca8 574f20333232 
00002cae 00 
00002caf 01             8833 	.byte	1
00002cb0 06             8834 	.byte	6
00002cb1 464c535f4152   8835 	.strz	"FLS_AR_HIGHER_VERSION FLS_AR_FOUR_ZERO_THREE"
00002cb7 5f4849474845 
00002cbd 525f56455253 
00002cc3 494f4e20464c 
00002cc9 535f41525f46 
00002ccf 4f55525f5a45 
00002cd5 524f5f544852 
00002cdb 454500 
00002cde 01             8836 	.byte	1
00002cdf 07             8837 	.byte	7
00002ce0 464c535f4152   8838 	.strz	"FLS_AR_LOWER_VERSION FLS_AR_THREE_TWO_TWO"
00002ce6 5f4c4f574552 
00002cec 5f5645525349 
00002cf2 4f4e20464c53 
00002cf8 5f41525f5448 
00002cfe 5245455f5457 
00002d04 4f5f54574f00 
00002d0a 03             8839 	.byte	3

                                                                      Page 199
                                                              C:\Users\nhuliyap\AppData\Local\Temp\gh_0000d8g1.s
00002d0b 09             8840 	.byte	9
00002d0c 1d             8841 	.byte	29
00002d0d 01             8842 	.byte	1
00002d0e 13             8843 	.byte	19
00002d0f 464c535f4152   8844 	.strz	"FLS_AR_VERSION FLS_AR_LOWER_VERSION"
00002d15 5f5645525349 
00002d1b 4f4e20464c53 
00002d21 5f41525f4c4f 
00002d27 5745525f5645 
00002d2d 5253494f4e00 
00002d33 01             8845 	.byte	1
00002d34 14             8846 	.byte	20
00002d35 464c535f464c   8847 	.strz	"FLS_FLASH_ACCESS FLS_DATAFLASH_ACCESS"
00002d3b 4153485f4143 
00002d41 434553532046 
00002d47 4c535f444154 
00002d4d 41464c415348 
00002d53 5f4143434553 
00002d59 5300 
00002d5b 01             8848 	.byte	1
00002d5c 15             8849 	.byte	21
00002d5d 464c535f4445   8850 	.strz	"FLS_DEV_ERROR_DETECT STD_OFF"
00002d63 565f4552524f 
00002d69 525f44455445 
00002d6f 435420535444 
00002d75 5f4f464600 
00002d7a 01             8851 	.byte	1
00002d7b 16             8852 	.byte	22
00002d7c 464c535f5645   8853 	.strz	"FLS_VERSION_INFO_API STD_OFF"
00002d82 5253494f4e5f 
00002d88 494e464f5f41 
00002d8e 504920535444 
00002d94 5f4f464600 
00002d99 01             8854 	.byte	1
00002d9a 17             8855 	.byte	23
00002d9b 464c535f4341   8856 	.strz	"FLS_CANCEL_API STD_ON"
00002da1 4e43454c5f41 
00002da7 504920535444 
00002dad 5f4f4e00 
00002db1 01             8857 	.byte	1
00002db2 18             8858 	.byte	24
00002db3 464c535f434f   8859 	.strz	"FLS_COMPARE_API STD_ON"
00002db9 4d504152455f 
00002dbf 415049205354 
00002dc5 445f4f4e00 
00002dca 01             8860 	.byte	1
00002dcb 19             8861 	.byte	25
00002dcc 464c535f5345   8862 	.strz	"FLS_SET_MODE_API STD_OFF"
00002dd2 545f4d4f4445 
00002dd8 5f4150492053 
00002dde 54445f4f4646 
00002de4 00 
00002de5 01             8863 	.byte	1
00002de6 1a             8864 	.byte	26
00002de7 464c535f4745   8865 	.strz	"FLS_GET_STATUS_API STD_ON"
00002ded 545f53544154 
00002df3 55535f415049 
00002df9 205354445f4f 
00002dff 4e00 
00002e01 01             8866 	.byte	1
00002e02 1b             8867 	.byte	27

                                                                      Page 200
                                                              C:\Users\nhuliyap\AppData\Local\Temp\gh_0000d8g1.s
00002e03 464c535f4745   8868 	.strz	"FLS_GET_JOB_RESULT_API STD_ON"
00002e09 545f4a4f425f 
00002e0f 524553554c54 
00002e15 5f4150492053 
00002e1b 54445f4f4e00 
00002e21 01             8869 	.byte	1
00002e22 21             8870 	.byte	33
00002e23 464c535f5449   8871 	.strz	"FLS_TIMEOUT_MONITORING STD_OFF"
00002e29 4d454f55545f 
00002e2f 4d4f4e49544f 
00002e35 52494e472053 
00002e3b 54445f4f4646 
00002e41 00 
00002e42 01             8872 	.byte	1
00002e43 22             8873 	.byte	34
00002e44 464c535f424c   8874 	.strz	"FLS_BLANKCHECK_API STD_ON"
00002e4a 414e4b434845 
00002e50 434b5f415049 
00002e56 205354445f4f 
00002e5c 4e00 
00002e5e 01             8875 	.byte	1
00002e5f 23             8876 	.byte	35
00002e60 464c535f5245   8877 	.strz	"FLS_READIMMEDIATE_API STD_OFF"
00002e66 4144494d4d45 
00002e6c 44494154455f 
00002e72 415049205354 
00002e78 445f4f464600 
00002e7e 01             8878 	.byte	1
00002e7f 24             8879 	.byte	36
00002e80 464c535f494e   8880 	.strz	"FLS_INTERRUPT_MODE STD_OFF"
00002e86 544552525550 
00002e8c 545f4d4f4445 
00002e92 205354445f4f 
00002e98 464600 
00002e9b 01             8881 	.byte	1
00002e9c 26             8882 	.byte	38
00002e9d 464c535f5355   8883 	.strz	"FLS_SUSPEND_API STD_OFF"
00002ea3 5350454e445f 
00002ea9 415049205354 
00002eaf 445f4f464600 
00002eb5 01             8884 	.byte	1
00002eb6 27             8885 	.byte	39
00002eb7 464c535f5245   8886 	.strz	"FLS_RESUME_API STD_OFF"
00002ebd 53554d455f41 
00002ec3 504920535444 
00002ec9 5f4f464600 
00002ece 01             8887 	.byte	1
00002ecf 2f             8888 	.byte	47
00002ed0 464c535f4648   8889 	.strz	"FLS_FHVE_REGS NOT_SUPPORTED"
00002ed6 56455f524547 
00002edc 53204e4f545f 
00002ee2 535550504f52 
00002ee8 54454400 
00002eec 01             8890 	.byte	1
00002eed 30             8891 	.byte	48
00002eee 464c535f464c   8892 	.strz	"FLS_FLMD_REGS SUPPORTED"
00002ef4 4d445f524547 
00002efa 532053555050 
00002f00 4f5254454400 
00002f06 01             8893 	.byte	1
00002f07 38             8894 	.byte	56

                                                                      Page 201
                                                              C:\Users\nhuliyap\AppData\Local\Temp\gh_0000d8g1.s
00002f08 466c73436f6e   8895 	.strz	"FlsConfigSet (&Fls_GstConfiguration[0])"
00002f0e 666967536574 
00002f14 202826466c73 
00002f1a 5f477374436f 
00002f20 6e6669677572 
00002f26 6174696f6e5b 
00002f2c 305d2900 
00002f30 04             8896 	.byte	4
00002f31 03             8897 	.byte	3
00002f32 0a             8898 	.byte	10
00002f33 1e             8899 	.byte	30
00002f34 03             8900 	.byte	3
00002f35 04             8901 	.byte	4
00002f36 1f             8902 	.byte	31
00002f37 01             8903 	.byte	1
00002f38 2a             8904 	.byte	42
00002f39 535550504f52   8905 	.strz	"SUPPORTED 0"
00002f3f 544544203000 
00002f45 01             8906 	.byte	1
00002f46 2b             8907 	.byte	43
00002f47 4e4f545f5355   8908 	.strz	"NOT_SUPPORTED 1"
00002f4d 50504f525445 
00002f53 44203100 
00002f57 01             8909 	.byte	1
00002f58 40             8910 	.byte	64
00002f59 464c535f4441   8911 	.strz	"FLS_DATAFLASH_ACCESS 0"
00002f5f 5441464c4153 
00002f65 485f41434345 
00002f6b 5353203000 
00002f70 01             8912 	.byte	1
00002f71 41             8913 	.byte	65
00002f72 464c535f434f   8914 	.strz	"FLS_CODEFLASH_ACCESS 1"
00002f78 4445464c4153 
00002f7e 485f41434345 
00002f84 5353203100 
00002f89 01             8915 	.byte	1
00002f8a 42             8916 	.byte	66
00002f8b 464c535f4346   8917 	.strz	"FLS_CFDF_ACCESS 2"
00002f91 44465f414343 
00002f97 455353203200 
00002f9d 01             8918 	.byte	1
00002f9e 6b             8919 	.byte	107
00002f9f 464c535f5354   8920 	.strz	"FLS_START_SEC_BUFFER_CODE "
00002fa5 4152545f5345 
00002fab 435f42554646 
00002fb1 45525f434f44 
00002fb7 452000 
00002fba 03             8921 	.byte	3
00002fbb 6c             8922 	.byte	108
00002fbc 1b             8923 	.byte	27
00002fbd 01             8924 	.byte	1
00002fbe 02             8925 	.byte	2
00002fbf 4d454d4d4150   8926 	.strz	"MEMMAP_VENDOR_ID (30u)"
00002fc5 5f56454e444f 
00002fcb 525f49442028 
00002fd1 3330752900 
00002fd6 01             8927 	.byte	1
00002fd7 08             8928 	.byte	8
00002fd8 4d454d4d4150   8929 	.strz	"MEMMAP_AR_RELEASE_MAJOR_VERSION (4u)"
00002fde 5f41525f5245 
00002fe4 4c454153455f 

                                                                      Page 202
                                                              C:\Users\nhuliyap\AppData\Local\Temp\gh_0000d8g1.s
00002fea 4d414a4f525f 
00002ff0 56455253494f 
00002ff6 4e2028347529 
00002ffc 00 
00002ffd 01             8930 	.byte	1
00002ffe 09             8931 	.byte	9
00002fff 4d454d4d4150   8932 	.strz	"MEMMAP_AR_RELEASE_MINOR_VERSION (0u)"
00003005 5f41525f5245 
0000300b 4c454153455f 
00003011 4d494e4f525f 
00003017 56455253494f 
0000301d 4e2028307529 
00003023 00 
00003024 01             8933 	.byte	1
00003025 0a             8934 	.byte	10
00003026 4d454d4d4150   8935 	.strz	"MEMMAP_AR_RELEASE_REVISION_VERSION (3u)"
0000302c 5f41525f5245 
00003032 4c454153455f 
00003038 524556495349 
0000303e 4f4e5f564552 
00003044 53494f4e2028 
0000304a 33752900 
0000304e 01             8936 	.byte	1
0000304f 10             8937 	.byte	16
00003050 4d454d5f4152   8938 	.strz	"MEM_AR_RELEASE_MAJOR_VERSION MEMMAP_AR_RELEASE_MAJOR_VERSION"
00003056 5f52454c4541 
0000305c 53455f4d414a 
00003062 4f525f564552 
00003068 53494f4e204d 
0000306e 454d4d41505f 
00003074 41525f52454c 
0000307a 454153455f4d 
00003080 414a4f525f56 
00003086 455253494f4e 
0000308c 00 
0000308d 01             8939 	.byte	1
0000308e 11             8940 	.byte	17
0000308f 4d454d5f4152   8941 	.strz	"MEM_AR_RELEASE_MINOR_VERSION MEMMAP_AR_RELEASE_MINOR_VERSION"
00003095 5f52454c4541 
0000309b 53455f4d494e 
000030a1 4f525f564552 
000030a7 53494f4e204d 
000030ad 454d4d41505f 
000030b3 41525f52454c 
000030b9 454153455f4d 
000030bf 494e4f525f56 
000030c5 455253494f4e 
000030cb 00 
000030cc 01             8942 	.byte	1
000030cd 12             8943 	.byte	18
000030ce 4d454d5f4152   8944 	.strz	"MEM_AR_RELEASE_PATCH_VERSION MEMMAP_AR_RELEASE_REVISION_VERSION"
000030d4 5f52454c4541 
000030da 53455f504154 
000030e0 43485f564552 
000030e6 53494f4e204d 
000030ec 454d4d41505f 
000030f2 41525f52454c 
000030f8 454153455f52 
000030fe 45564953494f 
00003104 4e5f56455253 
0000310a 494f4e00 

                                                                      Page 203
                                                              C:\Users\nhuliyap\AppData\Local\Temp\gh_0000d8g1.s
0000310e 01             8945 	.byte	1
0000310f 18             8946 	.byte	24
00003110 4d454d4d4150   8947 	.strz	"MEMMAP_SW_MAJOR_VERSION (1u)"
00003116 5f53575f4d41 
0000311c 4a4f525f5645 
00003122 5253494f4e20 
00003128 2831752900 
0000312d 01             8948 	.byte	1
0000312e 19             8949 	.byte	25
0000312f 4d454d4d4150   8950 	.strz	"MEMMAP_SW_MINOR_VERSION (11u)"
00003135 5f53575f4d49 
0000313b 4e4f525f5645 
00003141 5253494f4e20 
00003147 283131752900 
0000314d 01             8951 	.byte	1
0000314e 1a             8952 	.byte	26
0000314f 4d454d4d4150   8953 	.strz	"MEMMAP_SW_PATCH_VERSION (0u)"
00003155 5f53575f5041 
0000315b 5443485f5645 
00003161 5253494f4e20 
00003167 2830752900 
0000316c 01             8954 	.byte	1
0000316d 20             8955 	.byte	32
0000316e 4d454d5f5357   8956 	.strz	"MEM_SW_MAJOR_VERSION MEMMAP_SW_MAJOR_VERSION"
00003174 5f4d414a4f52 
0000317a 5f5645525349 
00003180 4f4e204d454d 
00003186 4d41505f5357 
0000318c 5f4d414a4f52 
00003192 5f5645525349 
00003198 4f4e00 
0000319b 01             8957 	.byte	1
0000319c 21             8958 	.byte	33
0000319d 4d454d5f5357   8959 	.strz	"MEM_SW_MINOR_VERSION MEMMAP_SW_MINOR_VERSION"
000031a3 5f4d494e4f52 
000031a9 5f5645525349 
000031af 4f4e204d454d 
000031b5 4d41505f5357 
000031bb 5f4d494e4f52 
000031c1 5f5645525349 
000031c7 4f4e00 
000031ca 01             8960 	.byte	1
000031cb 22             8961 	.byte	34
000031cc 4d454d5f5357   8962 	.strz	"MEM_SW_PATCH_VERSION MEMMAP_SW_PATCH_VERSION"
000031d2 5f5041544348 
000031d8 5f5645525349 
000031de 4f4e204d454d 
000031e4 4d41505f5357 
000031ea 5f5041544348 
000031f0 5f5645525349 
000031f6 4f4e00 
000031f9 01             8963 	.byte	1
000031fa 24             8964 	.byte	36
000031fb 4d454d4d4150   8965 	.strz	"MEMMAP_ERROR "
00003201 5f4552524f52 
00003207 2000 
00003209 01             8966 	.byte	1
0000320a 9502           8967 	.byte	149,2
0000320c 53544152545f   8968 	.strz	"START_SEC_CODE "
00003212 5345435f434f 
00003218 44452000 

                                                                      Page 204
                                                              C:\Users\nhuliyap\AppData\Local\Temp\gh_0000d8g1.s
0000321c 03             8969 	.byte	3
0000321d f403           8970 	.byte	244,3
0000321f 14             8971 	.byte	20
00003220 01             8972 	.byte	1
00003221 f307           8973 	.byte	243,7
00003223 434f44455f53   8974 	.strz	"CODE_SEC_OPEN "
00003229 45435f4f5045 
0000322f 4e2000 
00003232 04             8975 	.byte	4
00003233 04             8976 	.byte	4
00003234 01             8977 	.byte	1
00003235 70             8978 	.byte	112
00003236 464c535f5354   8979 	.strz	"FLS_STOP_SEC_BUFFER_CODE "
0000323c 4f505f534543 
00003242 5f4255464645 
00003248 525f434f4445 
0000324e 2000 
00003250 03             8980 	.byte	3
00003251 71             8981 	.byte	113
00003252 1b             8982 	.byte	27
00003253 01             8983 	.byte	1
00003254 02             8984 	.byte	2
00003255 4d454d4d4150   8985 	.strz	"MEMMAP_VENDOR_ID (30u)"
0000325b 5f56454e444f 
00003261 525f49442028 
00003267 3330752900 
0000326c 01             8986 	.byte	1
0000326d 08             8987 	.byte	8
0000326e 4d454d4d4150   8988 	.strz	"MEMMAP_AR_RELEASE_MAJOR_VERSION (4u)"
00003274 5f41525f5245 
0000327a 4c454153455f 
00003280 4d414a4f525f 
00003286 56455253494f 
0000328c 4e2028347529 
00003292 00 
00003293 01             8989 	.byte	1
00003294 09             8990 	.byte	9
00003295 4d454d4d4150   8991 	.strz	"MEMMAP_AR_RELEASE_MINOR_VERSION (0u)"
0000329b 5f41525f5245 
000032a1 4c454153455f 
000032a7 4d494e4f525f 
000032ad 56455253494f 
000032b3 4e2028307529 
000032b9 00 
000032ba 01             8992 	.byte	1
000032bb 0a             8993 	.byte	10
000032bc 4d454d4d4150   8994 	.strz	"MEMMAP_AR_RELEASE_REVISION_VERSION (3u)"
000032c2 5f41525f5245 
000032c8 4c454153455f 
000032ce 524556495349 
000032d4 4f4e5f564552 
000032da 53494f4e2028 
000032e0 33752900 
000032e4 01             8995 	.byte	1
000032e5 10             8996 	.byte	16
000032e6 4d454d5f4152   8997 	.strz	"MEM_AR_RELEASE_MAJOR_VERSION MEMMAP_AR_RELEASE_MAJOR_VERSION"
000032ec 5f52454c4541 
000032f2 53455f4d414a 
000032f8 4f525f564552 
000032fe 53494f4e204d 
00003304 454d4d41505f 

                                                                      Page 205
                                                              C:\Users\nhuliyap\AppData\Local\Temp\gh_0000d8g1.s
0000330a 41525f52454c 
00003310 454153455f4d 
00003316 414a4f525f56 
0000331c 455253494f4e 
00003322 00 
00003323 01             8998 	.byte	1
00003324 11             8999 	.byte	17
00003325 4d454d5f4152   9000 	.strz	"MEM_AR_RELEASE_MINOR_VERSION MEMMAP_AR_RELEASE_MINOR_VERSION"
0000332b 5f52454c4541 
00003331 53455f4d494e 
00003337 4f525f564552 
0000333d 53494f4e204d 
00003343 454d4d41505f 
00003349 41525f52454c 
0000334f 454153455f4d 
00003355 494e4f525f56 
0000335b 455253494f4e 
00003361 00 
00003362 01             9001 	.byte	1
00003363 12             9002 	.byte	18
00003364 4d454d5f4152   9003 	.strz	"MEM_AR_RELEASE_PATCH_VERSION MEMMAP_AR_RELEASE_REVISION_VERSION"
0000336a 5f52454c4541 
00003370 53455f504154 
00003376 43485f564552 
0000337c 53494f4e204d 
00003382 454d4d41505f 
00003388 41525f52454c 
0000338e 454153455f52 
00003394 45564953494f 
0000339a 4e5f56455253 
000033a0 494f4e00 
000033a4 01             9004 	.byte	1
000033a5 18             9005 	.byte	24
000033a6 4d454d4d4150   9006 	.strz	"MEMMAP_SW_MAJOR_VERSION (1u)"
000033ac 5f53575f4d41 
000033b2 4a4f525f5645 
000033b8 5253494f4e20 
000033be 2831752900 
000033c3 01             9007 	.byte	1
000033c4 19             9008 	.byte	25
000033c5 4d454d4d4150   9009 	.strz	"MEMMAP_SW_MINOR_VERSION (11u)"
000033cb 5f53575f4d49 
000033d1 4e4f525f5645 
000033d7 5253494f4e20 
000033dd 283131752900 
000033e3 01             9010 	.byte	1
000033e4 1a             9011 	.byte	26
000033e5 4d454d4d4150   9012 	.strz	"MEMMAP_SW_PATCH_VERSION (0u)"
000033eb 5f53575f5041 
000033f1 5443485f5645 
000033f7 5253494f4e20 
000033fd 2830752900 
00003402 01             9013 	.byte	1
00003403 20             9014 	.byte	32
00003404 4d454d5f5357   9015 	.strz	"MEM_SW_MAJOR_VERSION MEMMAP_SW_MAJOR_VERSION"
0000340a 5f4d414a4f52 
00003410 5f5645525349 
00003416 4f4e204d454d 
0000341c 4d41505f5357 
00003422 5f4d414a4f52 
00003428 5f5645525349 

                                                                      Page 206
                                                              C:\Users\nhuliyap\AppData\Local\Temp\gh_0000d8g1.s
0000342e 4f4e00 
00003431 01             9016 	.byte	1
00003432 21             9017 	.byte	33
00003433 4d454d5f5357   9018 	.strz	"MEM_SW_MINOR_VERSION MEMMAP_SW_MINOR_VERSION"
00003439 5f4d494e4f52 
0000343f 5f5645525349 
00003445 4f4e204d454d 
0000344b 4d41505f5357 
00003451 5f4d494e4f52 
00003457 5f5645525349 
0000345d 4f4e00 
00003460 01             9019 	.byte	1
00003461 22             9020 	.byte	34
00003462 4d454d5f5357   9021 	.strz	"MEM_SW_PATCH_VERSION MEMMAP_SW_PATCH_VERSION"
00003468 5f5041544348 
0000346e 5f5645525349 
00003474 4f4e204d454d 
0000347a 4d41505f5357 
00003480 5f5041544348 
00003486 5f5645525349 
0000348c 4f4e00 
0000348f 01             9022 	.byte	1
00003490 24             9023 	.byte	36
00003491 4d454d4d4150   9024 	.strz	"MEMMAP_ERROR "
00003497 5f4552524f52 
0000349d 2000 
0000349f 01             9025 	.byte	1
000034a0 9902           9026 	.byte	153,2
000034a2 53544f505f53   9027 	.strz	"STOP_SEC_CODE "
000034a8 45435f434f44 
000034ae 452000 
000034b1 03             9028 	.byte	3
000034b2 f403           9029 	.byte	244,3
000034b4 14             9030 	.byte	20
000034b5 04             9031 	.byte	4
000034b6 04             9032 	.byte	4
000034b7 04             9033 	.byte	4
000034b8 03             9034 	.byte	3
000034b9 05             9035 	.byte	5
000034ba 20             9036 	.byte	32
000034bb 04             9037 	.byte	4
000034bc 03             9038 	.byte	3
000034bd 08             9039 	.byte	8
000034be 21             9040 	.byte	33
000034bf 04             9041 	.byte	4
000034c0 04             9042 	.byte	4
000034c1 03             9043 	.byte	3
000034c2 14             9044 	.byte	20
000034c3 22             9045 	.byte	34
000034c4 04             9046 	.byte	4
000034c5 01             9047 	.byte	1
000034c6 4a             9048 	.byte	74
000034c7 464c535f5354   9049 	.strz	"FLS_START_SEC_PUBLIC_CODE "
000034cd 4152545f5345 
000034d3 435f5055424c 
000034d9 49435f434f44 
000034df 452000 
000034e2 03             9050 	.byte	3
000034e3 4b             9051 	.byte	75
000034e4 1b             9052 	.byte	27
000034e5 01             9053 	.byte	1

                                                                      Page 207
                                                              C:\Users\nhuliyap\AppData\Local\Temp\gh_0000d8g1.s
000034e6 02             9054 	.byte	2
000034e7 4d454d4d4150   9055 	.strz	"MEMMAP_VENDOR_ID (30u)"
000034ed 5f56454e444f 
000034f3 525f49442028 
000034f9 3330752900 
000034fe 01             9056 	.byte	1
000034ff 08             9057 	.byte	8
00003500 4d454d4d4150   9058 	.strz	"MEMMAP_AR_RELEASE_MAJOR_VERSION (4u)"
00003506 5f41525f5245 
0000350c 4c454153455f 
00003512 4d414a4f525f 
00003518 56455253494f 
0000351e 4e2028347529 
00003524 00 
00003525 01             9059 	.byte	1
00003526 09             9060 	.byte	9
00003527 4d454d4d4150   9061 	.strz	"MEMMAP_AR_RELEASE_MINOR_VERSION (0u)"
0000352d 5f41525f5245 
00003533 4c454153455f 
00003539 4d494e4f525f 
0000353f 56455253494f 
00003545 4e2028307529 
0000354b 00 
0000354c 01             9062 	.byte	1
0000354d 0a             9063 	.byte	10
0000354e 4d454d4d4150   9064 	.strz	"MEMMAP_AR_RELEASE_REVISION_VERSION (3u)"
00003554 5f41525f5245 
0000355a 4c454153455f 
00003560 524556495349 
00003566 4f4e5f564552 
0000356c 53494f4e2028 
00003572 33752900 
00003576 01             9065 	.byte	1
00003577 10             9066 	.byte	16
00003578 4d454d5f4152   9067 	.strz	"MEM_AR_RELEASE_MAJOR_VERSION MEMMAP_AR_RELEASE_MAJOR_VERSION"
0000357e 5f52454c4541 
00003584 53455f4d414a 
0000358a 4f525f564552 
00003590 53494f4e204d 
00003596 454d4d41505f 
0000359c 41525f52454c 
000035a2 454153455f4d 
000035a8 414a4f525f56 
000035ae 455253494f4e 
000035b4 00 
000035b5 01             9068 	.byte	1
000035b6 11             9069 	.byte	17
000035b7 4d454d5f4152   9070 	.strz	"MEM_AR_RELEASE_MINOR_VERSION MEMMAP_AR_RELEASE_MINOR_VERSION"
000035bd 5f52454c4541 
000035c3 53455f4d494e 
000035c9 4f525f564552 
000035cf 53494f4e204d 
000035d5 454d4d41505f 
000035db 41525f52454c 
000035e1 454153455f4d 
000035e7 494e4f525f56 
000035ed 455253494f4e 
000035f3 00 
000035f4 01             9071 	.byte	1
000035f5 12             9072 	.byte	18
000035f6 4d454d5f4152   9073 	.strz	"MEM_AR_RELEASE_PATCH_VERSION MEMMAP_AR_RELEASE_REVISION_VERSION"

                                                                      Page 208
                                                              C:\Users\nhuliyap\AppData\Local\Temp\gh_0000d8g1.s
000035fc 5f52454c4541 
00003602 53455f504154 
00003608 43485f564552 
0000360e 53494f4e204d 
00003614 454d4d41505f 
0000361a 41525f52454c 
00003620 454153455f52 
00003626 45564953494f 
0000362c 4e5f56455253 
00003632 494f4e00 
00003636 01             9074 	.byte	1
00003637 18             9075 	.byte	24
00003638 4d454d4d4150   9076 	.strz	"MEMMAP_SW_MAJOR_VERSION (1u)"
0000363e 5f53575f4d41 
00003644 4a4f525f5645 
0000364a 5253494f4e20 
00003650 2831752900 
00003655 01             9077 	.byte	1
00003656 19             9078 	.byte	25
00003657 4d454d4d4150   9079 	.strz	"MEMMAP_SW_MINOR_VERSION (11u)"
0000365d 5f53575f4d49 
00003663 4e4f525f5645 
00003669 5253494f4e20 
0000366f 283131752900 
00003675 01             9080 	.byte	1
00003676 1a             9081 	.byte	26
00003677 4d454d4d4150   9082 	.strz	"MEMMAP_SW_PATCH_VERSION (0u)"
0000367d 5f53575f5041 
00003683 5443485f5645 
00003689 5253494f4e20 
0000368f 2830752900 
00003694 01             9083 	.byte	1
00003695 20             9084 	.byte	32
00003696 4d454d5f5357   9085 	.strz	"MEM_SW_MAJOR_VERSION MEMMAP_SW_MAJOR_VERSION"
0000369c 5f4d414a4f52 
000036a2 5f5645525349 
000036a8 4f4e204d454d 
000036ae 4d41505f5357 
000036b4 5f4d414a4f52 
000036ba 5f5645525349 
000036c0 4f4e00 
000036c3 01             9086 	.byte	1
000036c4 21             9087 	.byte	33
000036c5 4d454d5f5357   9088 	.strz	"MEM_SW_MINOR_VERSION MEMMAP_SW_MINOR_VERSION"
000036cb 5f4d494e4f52 
000036d1 5f5645525349 
000036d7 4f4e204d454d 
000036dd 4d41505f5357 
000036e3 5f4d494e4f52 
000036e9 5f5645525349 
000036ef 4f4e00 
000036f2 01             9089 	.byte	1
000036f3 22             9090 	.byte	34
000036f4 4d454d5f5357   9091 	.strz	"MEM_SW_PATCH_VERSION MEMMAP_SW_PATCH_VERSION"
000036fa 5f5041544348 
00003700 5f5645525349 
00003706 4f4e204d454d 
0000370c 4d41505f5357 
00003712 5f5041544348 
00003718 5f5645525349 
0000371e 4f4e00 

                                                                      Page 209
                                                              C:\Users\nhuliyap\AppData\Local\Temp\gh_0000d8g1.s
00003721 01             9092 	.byte	1
00003722 24             9093 	.byte	36
00003723 4d454d4d4150   9094 	.strz	"MEMMAP_ERROR "
00003729 5f4552524f52 
0000372f 2000 
00003731 01             9095 	.byte	1
00003732 f101           9096 	.byte	241,1
00003734 53544152545f   9097 	.strz	"START_SEC_CODE "
0000373a 5345435f434f 
00003740 44452000 
00003744 03             9098 	.byte	3
00003745 f403           9099 	.byte	244,3
00003747 14             9100 	.byte	20
00003748 01             9101 	.byte	1
00003749 f307           9102 	.byte	243,7
0000374b 434f44455f53   9103 	.strz	"CODE_SEC_OPEN "
00003751 45435f4f5045 
00003757 4e2000 
0000375a 04             9104 	.byte	4
0000375b 04             9105 	.byte	4
0000375c 01             9106 	.byte	1
0000375d a501           9107 	.byte	165,1
0000375f 464c535f5354   9108 	.strz	"FLS_STOP_SEC_PUBLIC_CODE "
00003765 4f505f534543 
0000376b 5f5055424c49 
00003771 435f434f4445 
00003777 2000 
00003779 03             9109 	.byte	3
0000377a a601           9110 	.byte	166,1
0000377c 1b             9111 	.byte	27
0000377d 01             9112 	.byte	1
0000377e 02             9113 	.byte	2
0000377f 4d454d4d4150   9114 	.strz	"MEMMAP_VENDOR_ID (30u)"
00003785 5f56454e444f 
0000378b 525f49442028 
00003791 3330752900 
00003796 01             9115 	.byte	1
00003797 08             9116 	.byte	8
00003798 4d454d4d4150   9117 	.strz	"MEMMAP_AR_RELEASE_MAJOR_VERSION (4u)"
0000379e 5f41525f5245 
000037a4 4c454153455f 
000037aa 4d414a4f525f 
000037b0 56455253494f 
000037b6 4e2028347529 
000037bc 00 
000037bd 01             9118 	.byte	1
000037be 09             9119 	.byte	9
000037bf 4d454d4d4150   9120 	.strz	"MEMMAP_AR_RELEASE_MINOR_VERSION (0u)"
000037c5 5f41525f5245 
000037cb 4c454153455f 
000037d1 4d494e4f525f 
000037d7 56455253494f 
000037dd 4e2028307529 
000037e3 00 
000037e4 01             9121 	.byte	1
000037e5 0a             9122 	.byte	10
000037e6 4d454d4d4150   9123 	.strz	"MEMMAP_AR_RELEASE_REVISION_VERSION (3u)"
000037ec 5f41525f5245 
000037f2 4c454153455f 
000037f8 524556495349 
000037fe 4f4e5f564552 

                                                                      Page 210
                                                              C:\Users\nhuliyap\AppData\Local\Temp\gh_0000d8g1.s
00003804 53494f4e2028 
0000380a 33752900 
0000380e 01             9124 	.byte	1
0000380f 10             9125 	.byte	16
00003810 4d454d5f4152   9126 	.strz	"MEM_AR_RELEASE_MAJOR_VERSION MEMMAP_AR_RELEASE_MAJOR_VERSION"
00003816 5f52454c4541 
0000381c 53455f4d414a 
00003822 4f525f564552 
00003828 53494f4e204d 
0000382e 454d4d41505f 
00003834 41525f52454c 
0000383a 454153455f4d 
00003840 414a4f525f56 
00003846 455253494f4e 
0000384c 00 
0000384d 01             9127 	.byte	1
0000384e 11             9128 	.byte	17
0000384f 4d454d5f4152   9129 	.strz	"MEM_AR_RELEASE_MINOR_VERSION MEMMAP_AR_RELEASE_MINOR_VERSION"
00003855 5f52454c4541 
0000385b 53455f4d494e 
00003861 4f525f564552 
00003867 53494f4e204d 
0000386d 454d4d41505f 
00003873 41525f52454c 
00003879 454153455f4d 
0000387f 494e4f525f56 
00003885 455253494f4e 
0000388b 00 
0000388c 01             9130 	.byte	1
0000388d 12             9131 	.byte	18
0000388e 4d454d5f4152   9132 	.strz	"MEM_AR_RELEASE_PATCH_VERSION MEMMAP_AR_RELEASE_REVISION_VERSION"
00003894 5f52454c4541 
0000389a 53455f504154 
000038a0 43485f564552 
000038a6 53494f4e204d 
000038ac 454d4d41505f 
000038b2 41525f52454c 
000038b8 454153455f52 
000038be 45564953494f 
000038c4 4e5f56455253 
000038ca 494f4e00 
000038ce 01             9133 	.byte	1
000038cf 18             9134 	.byte	24
000038d0 4d454d4d4150   9135 	.strz	"MEMMAP_SW_MAJOR_VERSION (1u)"
000038d6 5f53575f4d41 
000038dc 4a4f525f5645 
000038e2 5253494f4e20 
000038e8 2831752900 
000038ed 01             9136 	.byte	1
000038ee 19             9137 	.byte	25
000038ef 4d454d4d4150   9138 	.strz	"MEMMAP_SW_MINOR_VERSION (11u)"
000038f5 5f53575f4d49 
000038fb 4e4f525f5645 
00003901 5253494f4e20 
00003907 283131752900 
0000390d 01             9139 	.byte	1
0000390e 1a             9140 	.byte	26
0000390f 4d454d4d4150   9141 	.strz	"MEMMAP_SW_PATCH_VERSION (0u)"
00003915 5f53575f5041 
0000391b 5443485f5645 
00003921 5253494f4e20 

                                                                      Page 211
                                                              C:\Users\nhuliyap\AppData\Local\Temp\gh_0000d8g1.s
00003927 2830752900 
0000392c 01             9142 	.byte	1
0000392d 20             9143 	.byte	32
0000392e 4d454d5f5357   9144 	.strz	"MEM_SW_MAJOR_VERSION MEMMAP_SW_MAJOR_VERSION"
00003934 5f4d414a4f52 
0000393a 5f5645525349 
00003940 4f4e204d454d 
00003946 4d41505f5357 
0000394c 5f4d414a4f52 
00003952 5f5645525349 
00003958 4f4e00 
0000395b 01             9145 	.byte	1
0000395c 21             9146 	.byte	33
0000395d 4d454d5f5357   9147 	.strz	"MEM_SW_MINOR_VERSION MEMMAP_SW_MINOR_VERSION"
00003963 5f4d494e4f52 
00003969 5f5645525349 
0000396f 4f4e204d454d 
00003975 4d41505f5357 
0000397b 5f4d494e4f52 
00003981 5f5645525349 
00003987 4f4e00 
0000398a 01             9148 	.byte	1
0000398b 22             9149 	.byte	34
0000398c 4d454d5f5357   9150 	.strz	"MEM_SW_PATCH_VERSION MEMMAP_SW_PATCH_VERSION"
00003992 5f5041544348 
00003998 5f5645525349 
0000399e 4f4e204d454d 
000039a4 4d41505f5357 
000039aa 5f5041544348 
000039b0 5f5645525349 
000039b6 4f4e00 
000039b9 01             9151 	.byte	1
000039ba 24             9152 	.byte	36
000039bb 4d454d4d4150   9153 	.strz	"MEMMAP_ERROR "
000039c1 5f4552524f52 
000039c7 2000 
000039c9 01             9154 	.byte	1
000039ca f501           9155 	.byte	245,1
000039cc 53544f505f53   9156 	.strz	"STOP_SEC_CODE "
000039d2 45435f434f44 
000039d8 452000 
000039db 03             9157 	.byte	3
000039dc f403           9158 	.byte	244,3
000039de 14             9159 	.byte	20
000039df 04             9160 	.byte	4
000039e0 04             9161 	.byte	4
000039e1 01             9162 	.byte	1
000039e2 a801           9163 	.byte	168,1
000039e4 464c535f5354   9164 	.strz	"FLS_START_SEC_DBTOC_DATA_UNSPECIFIED "
000039ea 4152545f5345 
000039f0 435f4442544f 
000039f6 435f44415441 
000039fc 5f554e535045 
00003a02 434946494544 
00003a08 2000 
00003a0a 03             9165 	.byte	3
00003a0b a901           9166 	.byte	169,1
00003a0d 1b             9167 	.byte	27
00003a0e 01             9168 	.byte	1
00003a0f 02             9169 	.byte	2
00003a10 4d454d4d4150   9170 	.strz	"MEMMAP_VENDOR_ID (30u)"

                                                                      Page 212
                                                              C:\Users\nhuliyap\AppData\Local\Temp\gh_0000d8g1.s
00003a16 5f56454e444f 
00003a1c 525f49442028 
00003a22 3330752900 
00003a27 01             9171 	.byte	1
00003a28 08             9172 	.byte	8
00003a29 4d454d4d4150   9173 	.strz	"MEMMAP_AR_RELEASE_MAJOR_VERSION (4u)"
00003a2f 5f41525f5245 
00003a35 4c454153455f 
00003a3b 4d414a4f525f 
00003a41 56455253494f 
00003a47 4e2028347529 
00003a4d 00 
00003a4e 01             9174 	.byte	1
00003a4f 09             9175 	.byte	9
00003a50 4d454d4d4150   9176 	.strz	"MEMMAP_AR_RELEASE_MINOR_VERSION (0u)"
00003a56 5f41525f5245 
00003a5c 4c454153455f 
00003a62 4d494e4f525f 
00003a68 56455253494f 
00003a6e 4e2028307529 
00003a74 00 
00003a75 01             9177 	.byte	1
00003a76 0a             9178 	.byte	10
00003a77 4d454d4d4150   9179 	.strz	"MEMMAP_AR_RELEASE_REVISION_VERSION (3u)"
00003a7d 5f41525f5245 
00003a83 4c454153455f 
00003a89 524556495349 
00003a8f 4f4e5f564552 
00003a95 53494f4e2028 
00003a9b 33752900 
00003a9f 01             9180 	.byte	1
00003aa0 10             9181 	.byte	16
00003aa1 4d454d5f4152   9182 	.strz	"MEM_AR_RELEASE_MAJOR_VERSION MEMMAP_AR_RELEASE_MAJOR_VERSION"
00003aa7 5f52454c4541 
00003aad 53455f4d414a 
00003ab3 4f525f564552 
00003ab9 53494f4e204d 
00003abf 454d4d41505f 
00003ac5 41525f52454c 
00003acb 454153455f4d 
00003ad1 414a4f525f56 
00003ad7 455253494f4e 
00003add 00 
00003ade 01             9183 	.byte	1
00003adf 11             9184 	.byte	17
00003ae0 4d454d5f4152   9185 	.strz	"MEM_AR_RELEASE_MINOR_VERSION MEMMAP_AR_RELEASE_MINOR_VERSION"
00003ae6 5f52454c4541 
00003aec 53455f4d494e 
00003af2 4f525f564552 
00003af8 53494f4e204d 
00003afe 454d4d41505f 
00003b04 41525f52454c 
00003b0a 454153455f4d 
00003b10 494e4f525f56 
00003b16 455253494f4e 
00003b1c 00 
00003b1d 01             9186 	.byte	1
00003b1e 12             9187 	.byte	18
00003b1f 4d454d5f4152   9188 	.strz	"MEM_AR_RELEASE_PATCH_VERSION MEMMAP_AR_RELEASE_REVISION_VERSION"
00003b25 5f52454c4541 
00003b2b 53455f504154 

                                                                      Page 213
                                                              C:\Users\nhuliyap\AppData\Local\Temp\gh_0000d8g1.s
00003b31 43485f564552 
00003b37 53494f4e204d 
00003b3d 454d4d41505f 
00003b43 41525f52454c 
00003b49 454153455f52 
00003b4f 45564953494f 
00003b55 4e5f56455253 
00003b5b 494f4e00 
00003b5f 01             9189 	.byte	1
00003b60 18             9190 	.byte	24
00003b61 4d454d4d4150   9191 	.strz	"MEMMAP_SW_MAJOR_VERSION (1u)"
00003b67 5f53575f4d41 
00003b6d 4a4f525f5645 
00003b73 5253494f4e20 
00003b79 2831752900 
00003b7e 01             9192 	.byte	1
00003b7f 19             9193 	.byte	25
00003b80 4d454d4d4150   9194 	.strz	"MEMMAP_SW_MINOR_VERSION (11u)"
00003b86 5f53575f4d49 
00003b8c 4e4f525f5645 
00003b92 5253494f4e20 
00003b98 283131752900 
00003b9e 01             9195 	.byte	1
00003b9f 1a             9196 	.byte	26
00003ba0 4d454d4d4150   9197 	.strz	"MEMMAP_SW_PATCH_VERSION (0u)"
00003ba6 5f53575f5041 
00003bac 5443485f5645 
00003bb2 5253494f4e20 
00003bb8 2830752900 
00003bbd 01             9198 	.byte	1
00003bbe 20             9199 	.byte	32
00003bbf 4d454d5f5357   9200 	.strz	"MEM_SW_MAJOR_VERSION MEMMAP_SW_MAJOR_VERSION"
00003bc5 5f4d414a4f52 
00003bcb 5f5645525349 
00003bd1 4f4e204d454d 
00003bd7 4d41505f5357 
00003bdd 5f4d414a4f52 
00003be3 5f5645525349 
00003be9 4f4e00 
00003bec 01             9201 	.byte	1
00003bed 21             9202 	.byte	33
00003bee 4d454d5f5357   9203 	.strz	"MEM_SW_MINOR_VERSION MEMMAP_SW_MINOR_VERSION"
00003bf4 5f4d494e4f52 
00003bfa 5f5645525349 
00003c00 4f4e204d454d 
00003c06 4d41505f5357 
00003c0c 5f4d494e4f52 
00003c12 5f5645525349 
00003c18 4f4e00 
00003c1b 01             9204 	.byte	1
00003c1c 22             9205 	.byte	34
00003c1d 4d454d5f5357   9206 	.strz	"MEM_SW_PATCH_VERSION MEMMAP_SW_PATCH_VERSION"
00003c23 5f5041544348 
00003c29 5f5645525349 
00003c2f 4f4e204d454d 
00003c35 4d41505f5357 
00003c3b 5f5041544348 
00003c41 5f5645525349 
00003c47 4f4e00 
00003c4a 01             9207 	.byte	1
00003c4b 24             9208 	.byte	36

                                                                      Page 214
                                                              C:\Users\nhuliyap\AppData\Local\Temp\gh_0000d8g1.s
00003c4c 4d454d4d4150   9209 	.strz	"MEMMAP_ERROR "
00003c52 5f4552524f52 
00003c58 2000 
00003c5a 01             9210 	.byte	1
00003c5b dd02           9211 	.byte	221,2
00003c5d 53544152545f   9212 	.strz	"START_SEC_CONST_UNSPECIFIED "
00003c63 5345435f434f 
00003c69 4e53545f554e 
00003c6f 535045434946 
00003c75 4945442000 
00003c7a 03             9213 	.byte	3
00003c7b f403           9214 	.byte	244,3
00003c7d 14             9215 	.byte	20
00003c7e 01             9216 	.byte	1
00003c7f b408           9217 	.byte	180,8
00003c81 434f4e53545f   9218 	.strz	"CONST_SEC_OPEN "
00003c87 5345435f4f50 
00003c8d 454e2000 
00003c91 04             9219 	.byte	4
00003c92 04             9220 	.byte	4
00003c93 01             9221 	.byte	1
00003c94 ab01           9222 	.byte	171,1
00003c96 464c535f5354   9223 	.strz	"FLS_STOP_SEC_DBTOC_DATA_UNSPECIFIED "
00003c9c 4f505f534543 
00003ca2 5f4442544f43 
00003ca8 5f444154415f 
00003cae 554e53504543 
00003cb4 494649454420 
00003cba 00 
00003cbb 03             9224 	.byte	3
00003cbc ac01           9225 	.byte	172,1
00003cbe 1b             9226 	.byte	27
00003cbf 01             9227 	.byte	1
00003cc0 02             9228 	.byte	2
00003cc1 4d454d4d4150   9229 	.strz	"MEMMAP_VENDOR_ID (30u)"
00003cc7 5f56454e444f 
00003ccd 525f49442028 
00003cd3 3330752900 
00003cd8 01             9230 	.byte	1
00003cd9 08             9231 	.byte	8
00003cda 4d454d4d4150   9232 	.strz	"MEMMAP_AR_RELEASE_MAJOR_VERSION (4u)"
00003ce0 5f41525f5245 
00003ce6 4c454153455f 
00003cec 4d414a4f525f 
00003cf2 56455253494f 
00003cf8 4e2028347529 
00003cfe 00 
00003cff 01             9233 	.byte	1
00003d00 09             9234 	.byte	9
00003d01 4d454d4d4150   9235 	.strz	"MEMMAP_AR_RELEASE_MINOR_VERSION (0u)"
00003d07 5f41525f5245 
00003d0d 4c454153455f 
00003d13 4d494e4f525f 
00003d19 56455253494f 
00003d1f 4e2028307529 
00003d25 00 
00003d26 01             9236 	.byte	1
00003d27 0a             9237 	.byte	10
00003d28 4d454d4d4150   9238 	.strz	"MEMMAP_AR_RELEASE_REVISION_VERSION (3u)"
00003d2e 5f41525f5245 
00003d34 4c454153455f 

                                                                      Page 215
                                                              C:\Users\nhuliyap\AppData\Local\Temp\gh_0000d8g1.s
00003d3a 524556495349 
00003d40 4f4e5f564552 
00003d46 53494f4e2028 
00003d4c 33752900 
00003d50 01             9239 	.byte	1
00003d51 10             9240 	.byte	16
00003d52 4d454d5f4152   9241 	.strz	"MEM_AR_RELEASE_MAJOR_VERSION MEMMAP_AR_RELEASE_MAJOR_VERSION"
00003d58 5f52454c4541 
00003d5e 53455f4d414a 
00003d64 4f525f564552 
00003d6a 53494f4e204d 
00003d70 454d4d41505f 
00003d76 41525f52454c 
00003d7c 454153455f4d 
00003d82 414a4f525f56 
00003d88 455253494f4e 
00003d8e 00 
00003d8f 01             9242 	.byte	1
00003d90 11             9243 	.byte	17
00003d91 4d454d5f4152   9244 	.strz	"MEM_AR_RELEASE_MINOR_VERSION MEMMAP_AR_RELEASE_MINOR_VERSION"
00003d97 5f52454c4541 
00003d9d 53455f4d494e 
00003da3 4f525f564552 
00003da9 53494f4e204d 
00003daf 454d4d41505f 
00003db5 41525f52454c 
00003dbb 454153455f4d 
00003dc1 494e4f525f56 
00003dc7 455253494f4e 
00003dcd 00 
00003dce 01             9245 	.byte	1
00003dcf 12             9246 	.byte	18
00003dd0 4d454d5f4152   9247 	.strz	"MEM_AR_RELEASE_PATCH_VERSION MEMMAP_AR_RELEASE_REVISION_VERSION"
00003dd6 5f52454c4541 
00003ddc 53455f504154 
00003de2 43485f564552 
00003de8 53494f4e204d 
00003dee 454d4d41505f 
00003df4 41525f52454c 
00003dfa 454153455f52 
00003e00 45564953494f 
00003e06 4e5f56455253 
00003e0c 494f4e00 
00003e10 01             9248 	.byte	1
00003e11 18             9249 	.byte	24
00003e12 4d454d4d4150   9250 	.strz	"MEMMAP_SW_MAJOR_VERSION (1u)"
00003e18 5f53575f4d41 
00003e1e 4a4f525f5645 
00003e24 5253494f4e20 
00003e2a 2831752900 
00003e2f 01             9251 	.byte	1
00003e30 19             9252 	.byte	25
00003e31 4d454d4d4150   9253 	.strz	"MEMMAP_SW_MINOR_VERSION (11u)"
00003e37 5f53575f4d49 
00003e3d 4e4f525f5645 
00003e43 5253494f4e20 
00003e49 283131752900 
00003e4f 01             9254 	.byte	1
00003e50 1a             9255 	.byte	26
00003e51 4d454d4d4150   9256 	.strz	"MEMMAP_SW_PATCH_VERSION (0u)"
00003e57 5f53575f5041 

                                                                      Page 216
                                                              C:\Users\nhuliyap\AppData\Local\Temp\gh_0000d8g1.s
00003e5d 5443485f5645 
00003e63 5253494f4e20 
00003e69 2830752900 
00003e6e 01             9257 	.byte	1
00003e6f 20             9258 	.byte	32
00003e70 4d454d5f5357   9259 	.strz	"MEM_SW_MAJOR_VERSION MEMMAP_SW_MAJOR_VERSION"
00003e76 5f4d414a4f52 
00003e7c 5f5645525349 
00003e82 4f4e204d454d 
00003e88 4d41505f5357 
00003e8e 5f4d414a4f52 
00003e94 5f5645525349 
00003e9a 4f4e00 
00003e9d 01             9260 	.byte	1
00003e9e 21             9261 	.byte	33
00003e9f 4d454d5f5357   9262 	.strz	"MEM_SW_MINOR_VERSION MEMMAP_SW_MINOR_VERSION"
00003ea5 5f4d494e4f52 
00003eab 5f5645525349 
00003eb1 4f4e204d454d 
00003eb7 4d41505f5357 
00003ebd 5f4d494e4f52 
00003ec3 5f5645525349 
00003ec9 4f4e00 
00003ecc 01             9263 	.byte	1
00003ecd 22             9264 	.byte	34
00003ece 4d454d5f5357   9265 	.strz	"MEM_SW_PATCH_VERSION MEMMAP_SW_PATCH_VERSION"
00003ed4 5f5041544348 
00003eda 5f5645525349 
00003ee0 4f4e204d454d 
00003ee6 4d41505f5357 
00003eec 5f5041544348 
00003ef2 5f5645525349 
00003ef8 4f4e00 
00003efb 01             9266 	.byte	1
00003efc 24             9267 	.byte	36
00003efd 4d454d4d4150   9268 	.strz	"MEMMAP_ERROR "
00003f03 5f4552524f52 
00003f09 2000 
00003f0b 01             9269 	.byte	1
00003f0c e102           9270 	.byte	225,2
00003f0e 53544f505f53   9271 	.strz	"STOP_SEC_CONST "
00003f14 45435f434f4e 
00003f1a 53542000 
00003f1e 03             9272 	.byte	3
00003f1f f403           9273 	.byte	244,3
00003f21 14             9274 	.byte	20
00003f22 04             9275 	.byte	4
00003f23 04             9276 	.byte	4
00003f24 04             9277 	.byte	4
00003f25 03             9278 	.byte	3
00003f26 06             9279 	.byte	6
00003f27 23             9280 	.byte	35
00003f28 01             9281 	.byte	1
00003f29 04             9282 	.byte	4
00003f2a 4e564d5f485f   9283 	.strz	"NVM_H_ "
00003f30 2000 
00003f32 03             9284 	.byte	3
00003f33 13             9285 	.byte	19
00003f34 24             9286 	.byte	36
00003f35 03             9287 	.byte	3
00003f36 0c             9288 	.byte	12

                                                                      Page 217
                                                              C:\Users\nhuliyap\AppData\Local\Temp\gh_0000d8g1.s
00003f37 25             9289 	.byte	37
00003f38 01             9290 	.byte	1
00003f39 13             9291 	.byte	19
00003f3a 4e564d5f5245   9292 	.strz	"NVM_REQ_OK (0u)"
00003f40 515f4f4b2028 
00003f46 30752900 
00003f4a 01             9293 	.byte	1
00003f4b 16             9294 	.byte	22
00003f4c 4e564d5f5245   9295 	.strz	"NVM_REQ_NOT_OK (1u)"
00003f52 515f4e4f545f 
00003f58 4f4b20283175 
00003f5e 2900 
00003f60 01             9296 	.byte	1
00003f61 19             9297 	.byte	25
00003f62 4e564d5f5245   9298 	.strz	"NVM_REQ_PENDING (2u)"
00003f68 515f50454e44 
00003f6e 494e47202832 
00003f74 752900 
00003f77 01             9299 	.byte	1
00003f78 1c             9300 	.byte	28
00003f79 4e564d5f5245   9301 	.strz	"NVM_REQ_INTEGRITY_FAILED (3u)"
00003f7f 515f494e5445 
00003f85 47524954595f 
00003f8b 4641494c4544 
00003f91 202833752900 
00003f97 01             9302 	.byte	1
00003f98 1f             9303 	.byte	31
00003f99 4e564d5f5245   9304 	.strz	"NVM_REQ_BLOCK_SKIPPED (4u)"
00003f9f 515f424c4f43 
00003fa5 4b5f534b4950 
00003fab 504544202834 
00003fb1 752900 
00003fb4 01             9305 	.byte	1
00003fb5 22             9306 	.byte	34
00003fb6 4e564d5f5245   9307 	.strz	"NVM_REQ_NV_INVALIDATED (5u)"
00003fbc 515f4e565f49 
00003fc2 4e56414c4944 
00003fc8 415445442028 
00003fce 35752900 
00003fd2 01             9308 	.byte	1
00003fd3 25             9309 	.byte	37
00003fd4 4e564d5f5245   9310 	.strz	"NVM_REQ_CANCELED (6u)"
00003fda 515f43414e43 
00003fe0 454c45442028 
00003fe6 36752900 
00003fea 01             9311 	.byte	1
00003feb 28             9312 	.byte	40
00003fec 4e564d5f5245   9313 	.strz	"NVM_REQ_REDUNDANCY_FAILED (7u)"
00003ff2 515f52454455 
00003ff8 4e44414e4359 
00003ffe 5f4641494c45 
00004004 442028377529 
0000400a 00 
0000400b 01             9314 	.byte	1
0000400c 2b             9315 	.byte	43
0000400d 4e564d5f5245   9316 	.strz	"NVM_REQ_RESTORED_FROM_ROM (8u)"
00004013 515f52455354 
00004019 4f5245445f46 
0000401f 524f4d5f524f 
00004025 4d2028387529 
0000402b 00 

                                                                      Page 218
                                                              C:\Users\nhuliyap\AppData\Local\Temp\gh_0000d8g1.s
0000402c 04             9317 	.byte	4
0000402d 01             9318 	.byte	1
0000402e 18             9319 	.byte	24
0000402f 4e564d5f4150   9320 	.strz	"NVM_API_CONFIG_CLASS_1 (1u)"
00004035 495f434f4e46 
0000403b 49475f434c41 
00004041 53535f312028 
00004047 31752900 
0000404b 01             9321 	.byte	1
0000404c 1a             9322 	.byte	26
0000404d 4e564d5f4150   9323 	.strz	"NVM_API_CONFIG_CLASS_3 (7u)"
00004053 495f434f4e46 
00004059 49475f434c41 
0000405f 53535f332028 
00004065 37752900 
00004069 01             9324 	.byte	1
0000406a 1c             9325 	.byte	28
0000406b 4e564d5f4150   9326 	.strz	"NVM_API_CONFIG_CLASS (NVM_API_CONFIG_CLASS_3)"
00004071 495f434f4e46 
00004077 49475f434c41 
0000407d 535320284e56 
00004083 4d5f4150495f 
00004089 434f4e464947 
0000408f 5f434c415353 
00004095 5f332900 
00004099 01             9327 	.byte	1
0000409a 2c             9328 	.byte	44
0000409b 4e564d5f5645   9329 	.strz	"NVM_VERSION_INFO_API (STD_ON)"
000040a1 5253494f4e5f 
000040a7 494e464f5f41 
000040ad 504920285354 
000040b3 445f4f4e2900 
000040b9 01             9330 	.byte	1
000040ba 2e             9331 	.byte	46
000040bb 4e564d5f5345   9332 	.strz	"NVM_SET_RAM_BLOCK_STATUS_API (STD_ON)"
000040c1 545f52414d5f 
000040c7 424c4f434b5f 
000040cd 535441545553 
000040d3 5f4150492028 
000040d9 5354445f4f4e 
000040df 2900 
000040e1 01             9333 	.byte	1
000040e2 30             9334 	.byte	48
000040e3 4e564d5f4b49   9335 	.strz	"NVM_KILL_WRITEALL_API (STD_ON)"
000040e9 4c4c5f575249 
000040ef 5445414c4c5f 
000040f5 415049202853 
000040fb 54445f4f4e29 
00004101 00 
00004102 01             9336 	.byte	1
00004103 32             9337 	.byte	50
00004104 4e564d5f5245   9338 	.strz	"NVM_REPAIR_REDUNDANT_BLOCKS_API (STD_OFF)"
0000410a 504149525f52 
00004110 4544554e4441 
00004116 4e545f424c4f 
0000411c 434b535f4150 
00004122 492028535444 
00004128 5f4f46462900 
0000412e 01             9339 	.byte	1
0000412f 3a             9340 	.byte	58
00004130 4e764d436f6e   9341 	.strz	"NvMConf___MultiBlockRequest (0U)"

                                                                      Page 219
                                                              C:\Users\nhuliyap\AppData\Local\Temp\gh_0000d8g1.s
00004136 665f5f5f4d75 
0000413c 6c7469426c6f 
00004142 636b52657175 
00004148 657374202830 
0000414e 552900 
00004151 01             9342 	.byte	1
00004152 3c             9343 	.byte	60
00004153 4e764d436f6e   9344 	.strz	"NvMConf_NvMBlockDescriptor_NvMBlock_CAT01 (2UL)"
00004159 665f4e764d42 
0000415f 6c6f636b4465 
00004165 736372697074 
0000416b 6f725f4e764d 
00004171 426c6f636b5f 
00004177 434154303120 
0000417d 2832554c2900 
00004183 01             9345 	.byte	1
00004184 3d             9346 	.byte	61
00004185 4e764d436f6e   9347 	.strz	"NvMConf_NvMBlockDescriptor_NvMBlock_CAT02 (3UL)"
0000418b 665f4e764d42 
00004191 6c6f636b4465 
00004197 736372697074 
0000419d 6f725f4e764d 
000041a3 426c6f636b5f 
000041a9 434154303220 
000041af 2833554c2900 
000041b5 01             9348 	.byte	1
000041b6 3e             9349 	.byte	62
000041b7 4e764d436f6e   9350 	.strz	"NvMConf_NvMBlockDescriptor_NvMBlock_CAT03 (4UL)"
000041bd 665f4e764d42 
000041c3 6c6f636b4465 
000041c9 736372697074 
000041cf 6f725f4e764d 
000041d5 426c6f636b5f 
000041db 434154303320 
000041e1 2834554c2900 
000041e7 01             9351 	.byte	1
000041e8 3f             9352 	.byte	63
000041e9 4e764d436f6e   9353 	.strz	"NvMConf_NvMBlockDescriptor_NvMBlock_CAT04 (5UL)"
000041ef 665f4e764d42 
000041f5 6c6f636b4465 
000041fb 736372697074 
00004201 6f725f4e764d 
00004207 426c6f636b5f 
0000420d 434154303420 
00004213 2835554c2900 
00004219 01             9354 	.byte	1
0000421a 40             9355 	.byte	64
0000421b 4e764d436f6e   9356 	.strz	"NvMConf_NvMBlockDescriptor_NvMBlock_CAT05 (6UL)"
00004221 665f4e764d42 
00004227 6c6f636b4465 
0000422d 736372697074 
00004233 6f725f4e764d 
00004239 426c6f636b5f 
0000423f 434154303520 
00004245 2836554c2900 
0000424b 01             9357 	.byte	1
0000424c 41             9358 	.byte	65
0000424d 4e764d436f6e   9359 	.strz	"NvMConf_NvMBlockDescriptor_NvMBlock_CAT06 (7UL)"
00004253 665f4e764d42 
00004259 6c6f636b4465 
0000425f 736372697074 

                                                                      Page 220
                                                              C:\Users\nhuliyap\AppData\Local\Temp\gh_0000d8g1.s
00004265 6f725f4e764d 
0000426b 426c6f636b5f 
00004271 434154303620 
00004277 2837554c2900 
0000427d 01             9360 	.byte	1
0000427e 42             9361 	.byte	66
0000427f 4e764d436f6e   9362 	.strz	"NvMConf_NvMBlockDescriptor_NvMBlock_CAT07 (8UL)"
00004285 665f4e764d42 
0000428b 6c6f636b4465 
00004291 736372697074 
00004297 6f725f4e764d 
0000429d 426c6f636b5f 
000042a3 434154303720 
000042a9 2838554c2900 
000042af 01             9363 	.byte	1
000042b0 43             9364 	.byte	67
000042b1 4e764d436f6e   9365 	.strz	"NvMConf_NvMBlockDescriptor_NvMBlock_CAT08 (9UL)"
000042b7 665f4e764d42 
000042bd 6c6f636b4465 
000042c3 736372697074 
000042c9 6f725f4e764d 
000042cf 426c6f636b5f 
000042d5 434154303820 
000042db 2839554c2900 
000042e1 01             9366 	.byte	1
000042e2 44             9367 	.byte	68
000042e3 4e764d436f6e   9368 	.strz	"NvMConf_NvMBlockDescriptor_NvMBlock_CAT09 (10UL)"
000042e9 665f4e764d42 
000042ef 6c6f636b4465 
000042f5 736372697074 
000042fb 6f725f4e764d 
00004301 426c6f636b5f 
00004307 434154303920 
0000430d 283130554c29 
00004313 00 
00004314 01             9369 	.byte	1
00004315 45             9370 	.byte	69
00004316 4e764d436f6e   9371 	.strz	"NvMConf_NvMBlockDescriptor_NvMBlock_CAT10 (11UL)"
0000431c 665f4e764d42 
00004322 6c6f636b4465 
00004328 736372697074 
0000432e 6f725f4e764d 
00004334 426c6f636b5f 
0000433a 434154313020 
00004340 283131554c29 
00004346 00 
00004347 01             9372 	.byte	1
00004348 46             9373 	.byte	70
00004349 4e764d436f6e   9374 	.strz	"NvMConf_NvMBlockDescriptor_NvMBlock_BSW_Data (12UL)"
0000434f 665f4e764d42 
00004355 6c6f636b4465 
0000435b 736372697074 
00004361 6f725f4e764d 
00004367 426c6f636b5f 
0000436d 4253575f4461 
00004373 746120283132 
00004379 554c2900 
0000437d 01             9375 	.byte	1
0000437e 47             9376 	.byte	71
0000437f 4e764d436f6e   9377 	.strz	"NvMConf_NvMBlockDescriptor_ECUM_CFG_NVM_BLOCK (13UL)"
00004385 665f4e764d42 

                                                                      Page 221
                                                              C:\Users\nhuliyap\AppData\Local\Temp\gh_0000d8g1.s
0000438b 6c6f636b4465 
00004391 736372697074 
00004397 6f725f454355 
0000439d 4d5f4346475f 
000043a3 4e564d5f424c 
000043a9 4f434b202831 
000043af 33554c2900 
000043b4 01             9378 	.byte	1
000043b5 48             9379 	.byte	72
000043b6 4e764d436f6e   9380 	.strz	"NvMConf_NvMBlockDescriptor_NvMBlock_DemNvm_IdEvStatusByte (14UL)"
000043bc 665f4e764d42 
000043c2 6c6f636b4465 
000043c8 736372697074 
000043ce 6f725f4e764d 
000043d4 426c6f636b5f 
000043da 44656d4e766d 
000043e0 5f4964457653 
000043e6 746174757342 
000043ec 797465202831 
000043f2 34554c2900 
000043f7 01             9381 	.byte	1
000043f8 49             9382 	.byte	73
000043f9 4e764d436f6e   9383 	.strz	"NvMConf_NvMBlockDescriptor_NvMBlock_DemNvm_IdEvMemLoc0 (15UL)"
000043ff 665f4e764d42 
00004405 6c6f636b4465 
0000440b 736372697074 
00004411 6f725f4e764d 
00004417 426c6f636b5f 
0000441d 44656d4e766d 
00004423 5f496445764d 
00004429 656d4c6f6330 
0000442f 20283135554c 
00004435 2900 
00004437 01             9384 	.byte	1
00004438 4a             9385 	.byte	74
00004439 4e764d436f6e   9386 	.strz	"NvMConf_NvMBlockDescriptor_NvMBlock_DemNvm_IdEvMemLoc1 (16UL)"
0000443f 665f4e764d42 
00004445 6c6f636b4465 
0000444b 736372697074 
00004451 6f725f4e764d 
00004457 426c6f636b5f 
0000445d 44656d4e766d 
00004463 5f496445764d 
00004469 656d4c6f6331 
0000446f 20283136554c 
00004475 2900 
00004477 01             9387 	.byte	1
00004478 4b             9388 	.byte	75
00004479 4e764d436f6e   9389 	.strz	"NvMConf_NvMBlockDescriptor_NvMBlock_DemNvm_IdEvMemLoc2 (17UL)"
0000447f 665f4e764d42 
00004485 6c6f636b4465 
0000448b 736372697074 
00004491 6f725f4e764d 
00004497 426c6f636b5f 
0000449d 44656d4e766d 
000044a3 5f496445764d 
000044a9 656d4c6f6332 
000044af 20283137554c 
000044b5 2900 
000044b7 01             9390 	.byte	1
000044b8 4c             9391 	.byte	76

                                                                      Page 222
                                                              C:\Users\nhuliyap\AppData\Local\Temp\gh_0000d8g1.s
000044b9 4e764d436f6e   9392 	.strz	"NvMConf_NvMBlockDescriptor_NvMBlock_DemNvm_IdEvMemLoc3 (18UL)"
000044bf 665f4e764d42 
000044c5 6c6f636b4465 
000044cb 736372697074 
000044d1 6f725f4e764d 
000044d7 426c6f636b5f 
000044dd 44656d4e766d 
000044e3 5f496445764d 
000044e9 656d4c6f6333 
000044ef 20283138554c 
000044f5 2900 
000044f7 01             9393 	.byte	1
000044f8 4d             9394 	.byte	77
000044f9 4e764d436f6e   9395 	.strz	"NvMConf_NvMBlockDescriptor_NvMBlock_DemNvm_IdEvMemLoc4 (19UL)"
000044ff 665f4e764d42 
00004505 6c6f636b4465 
0000450b 736372697074 
00004511 6f725f4e764d 
00004517 426c6f636b5f 
0000451d 44656d4e766d 
00004523 5f496445764d 
00004529 656d4c6f6334 
0000452f 20283139554c 
00004535 2900 
00004537 01             9396 	.byte	1
00004538 4e             9397 	.byte	78
00004539 4e764d436f6e   9398 	.strz	"NvMConf_NvMBlockDescriptor_NvMBlock_DemNvm_IdEvMemLoc5 (20UL)"
0000453f 665f4e764d42 
00004545 6c6f636b4465 
0000454b 736372697074 
00004551 6f725f4e764d 
00004557 426c6f636b5f 
0000455d 44656d4e766d 
00004563 5f496445764d 
00004569 656d4c6f6335 
0000456f 20283230554c 
00004575 2900 
00004577 01             9399 	.byte	1
00004578 4f             9400 	.byte	79
00004579 4e764d436f6e   9401 	.strz	"NvMConf_NvMBlockDescriptor_NvMBlock_DemNvm_IdEvMemLoc6 (21UL)"
0000457f 665f4e764d42 
00004585 6c6f636b4465 
0000458b 736372697074 
00004591 6f725f4e764d 
00004597 426c6f636b5f 
0000459d 44656d4e766d 
000045a3 5f496445764d 
000045a9 656d4c6f6336 
000045af 20283231554c 
000045b5 2900 
000045b7 01             9402 	.byte	1
000045b8 50             9403 	.byte	80
000045b9 4e764d436f6e   9404 	.strz	"NvMConf_NvMBlockDescriptor_NvMBlock_DemNvm_IdEvMemLoc7 (22UL)"
000045bf 665f4e764d42 
000045c5 6c6f636b4465 
000045cb 736372697074 
000045d1 6f725f4e764d 
000045d7 426c6f636b5f 
000045dd 44656d4e766d 
000045e3 5f496445764d 
000045e9 656d4c6f6337 

                                                                      Page 223
                                                              C:\Users\nhuliyap\AppData\Local\Temp\gh_0000d8g1.s
000045ef 20283232554c 
000045f5 2900 
000045f7 01             9405 	.byte	1
000045f8 51             9406 	.byte	81
000045f9 4e764d436f6e   9407 	.strz	"NvMConf_NvMBlockDescriptor_NvMBlock_DemNvm_IdEvMemLoc8 (23UL)"
000045ff 665f4e764d42 
00004605 6c6f636b4465 
0000460b 736372697074 
00004611 6f725f4e764d 
00004617 426c6f636b5f 
0000461d 44656d4e766d 
00004623 5f496445764d 
00004629 656d4c6f6338 
0000462f 20283233554c 
00004635 2900 
00004637 01             9408 	.byte	1
00004638 52             9409 	.byte	82
00004639 4e764d436f6e   9410 	.strz	"NvMConf_NvMBlockDescriptor_NvMBlock_DemNvm_IdEvMemLoc9 (24UL)"
0000463f 665f4e764d42 
00004645 6c6f636b4465 
0000464b 736372697074 
00004651 6f725f4e764d 
00004657 426c6f636b5f 
0000465d 44656d4e766d 
00004663 5f496445764d 
00004669 656d4c6f6339 
0000466f 20283234554c 
00004675 2900 
00004677 01             9411 	.byte	1
00004678 53             9412 	.byte	83
00004679 4e764d436f6e   9413 	.strz	"NvMConf_NvMBlockDescriptor_NvMBlock_DemNvm_IdDemGenericNvData (25UL)"
0000467f 665f4e764d42 
00004685 6c6f636b4465 
0000468b 736372697074 
00004691 6f725f4e764d 
00004697 426c6f636b5f 
0000469d 44656d4e766d 
000046a3 5f496444656d 
000046a9 47656e657269 
000046af 634e76446174 
000046b5 612028323555 
000046bb 4c2900 
000046be 01             9414 	.byte	1
000046bf 56             9415 	.byte	86
000046c0 4e564d5f5354   9416 	.strz	"NVM_START_SEC_CONST_DESCRIPTOR_TABLE "
000046c6 4152545f5345 
000046cc 435f434f4e53 
000046d2 545f44455343 
000046d8 524950544f52 
000046de 5f5441424c45 
000046e4 2000 
000046e6 03             9417 	.byte	3
000046e7 57             9418 	.byte	87
000046e8 1b             9419 	.byte	27
000046e9 01             9420 	.byte	1
000046ea 02             9421 	.byte	2
000046eb 4d454d4d4150   9422 	.strz	"MEMMAP_VENDOR_ID (30u)"
000046f1 5f56454e444f 
000046f7 525f49442028 
000046fd 3330752900 
00004702 01             9423 	.byte	1

                                                                      Page 224
                                                              C:\Users\nhuliyap\AppData\Local\Temp\gh_0000d8g1.s
00004703 08             9424 	.byte	8
00004704 4d454d4d4150   9425 	.strz	"MEMMAP_AR_RELEASE_MAJOR_VERSION (4u)"
0000470a 5f41525f5245 
00004710 4c454153455f 
00004716 4d414a4f525f 
0000471c 56455253494f 
00004722 4e2028347529 
00004728 00 
00004729 01             9426 	.byte	1
0000472a 09             9427 	.byte	9
0000472b 4d454d4d4150   9428 	.strz	"MEMMAP_AR_RELEASE_MINOR_VERSION (0u)"
00004731 5f41525f5245 
00004737 4c454153455f 
0000473d 4d494e4f525f 
00004743 56455253494f 
00004749 4e2028307529 
0000474f 00 
00004750 01             9429 	.byte	1
00004751 0a             9430 	.byte	10
00004752 4d454d4d4150   9431 	.strz	"MEMMAP_AR_RELEASE_REVISION_VERSION (3u)"
00004758 5f41525f5245 
0000475e 4c454153455f 
00004764 524556495349 
0000476a 4f4e5f564552 
00004770 53494f4e2028 
00004776 33752900 
0000477a 01             9432 	.byte	1
0000477b 10             9433 	.byte	16
0000477c 4d454d5f4152   9434 	.strz	"MEM_AR_RELEASE_MAJOR_VERSION MEMMAP_AR_RELEASE_MAJOR_VERSION"
00004782 5f52454c4541 
00004788 53455f4d414a 
0000478e 4f525f564552 
00004794 53494f4e204d 
0000479a 454d4d41505f 
000047a0 41525f52454c 
000047a6 454153455f4d 
000047ac 414a4f525f56 
000047b2 455253494f4e 
000047b8 00 
000047b9 01             9435 	.byte	1
000047ba 11             9436 	.byte	17
000047bb 4d454d5f4152   9437 	.strz	"MEM_AR_RELEASE_MINOR_VERSION MEMMAP_AR_RELEASE_MINOR_VERSION"
000047c1 5f52454c4541 
000047c7 53455f4d494e 
000047cd 4f525f564552 
000047d3 53494f4e204d 
000047d9 454d4d41505f 
000047df 41525f52454c 
000047e5 454153455f4d 
000047eb 494e4f525f56 
000047f1 455253494f4e 
000047f7 00 
000047f8 01             9438 	.byte	1
000047f9 12             9439 	.byte	18
000047fa 4d454d5f4152   9440 	.strz	"MEM_AR_RELEASE_PATCH_VERSION MEMMAP_AR_RELEASE_REVISION_VERSION"
00004800 5f52454c4541 
00004806 53455f504154 
0000480c 43485f564552 
00004812 53494f4e204d 
00004818 454d4d41505f 
0000481e 41525f52454c 

                                                                      Page 225
                                                              C:\Users\nhuliyap\AppData\Local\Temp\gh_0000d8g1.s
00004824 454153455f52 
0000482a 45564953494f 
00004830 4e5f56455253 
00004836 494f4e00 
0000483a 01             9441 	.byte	1
0000483b 18             9442 	.byte	24
0000483c 4d454d4d4150   9443 	.strz	"MEMMAP_SW_MAJOR_VERSION (1u)"
00004842 5f53575f4d41 
00004848 4a4f525f5645 
0000484e 5253494f4e20 
00004854 2831752900 
00004859 01             9444 	.byte	1
0000485a 19             9445 	.byte	25
0000485b 4d454d4d4150   9446 	.strz	"MEMMAP_SW_MINOR_VERSION (11u)"
00004861 5f53575f4d49 
00004867 4e4f525f5645 
0000486d 5253494f4e20 
00004873 283131752900 
00004879 01             9447 	.byte	1
0000487a 1a             9448 	.byte	26
0000487b 4d454d4d4150   9449 	.strz	"MEMMAP_SW_PATCH_VERSION (0u)"
00004881 5f53575f5041 
00004887 5443485f5645 
0000488d 5253494f4e20 
00004893 2830752900 
00004898 01             9450 	.byte	1
00004899 20             9451 	.byte	32
0000489a 4d454d5f5357   9452 	.strz	"MEM_SW_MAJOR_VERSION MEMMAP_SW_MAJOR_VERSION"
000048a0 5f4d414a4f52 
000048a6 5f5645525349 
000048ac 4f4e204d454d 
000048b2 4d41505f5357 
000048b8 5f4d414a4f52 
000048be 5f5645525349 
000048c4 4f4e00 
000048c7 01             9453 	.byte	1
000048c8 21             9454 	.byte	33
000048c9 4d454d5f5357   9455 	.strz	"MEM_SW_MINOR_VERSION MEMMAP_SW_MINOR_VERSION"
000048cf 5f4d494e4f52 
000048d5 5f5645525349 
000048db 4f4e204d454d 
000048e1 4d41505f5357 
000048e7 5f4d494e4f52 
000048ed 5f5645525349 
000048f3 4f4e00 
000048f6 01             9456 	.byte	1
000048f7 22             9457 	.byte	34
000048f8 4d454d5f5357   9458 	.strz	"MEM_SW_PATCH_VERSION MEMMAP_SW_PATCH_VERSION"
000048fe 5f5041544348 
00004904 5f5645525349 
0000490a 4f4e204d454d 
00004910 4d41505f5357 
00004916 5f5041544348 
0000491c 5f5645525349 
00004922 4f4e00 
00004925 01             9459 	.byte	1
00004926 24             9460 	.byte	36
00004927 4d454d4d4150   9461 	.strz	"MEMMAP_ERROR "
0000492d 5f4552524f52 
00004933 2000 
00004935 01             9462 	.byte	1

                                                                      Page 226
                                                              C:\Users\nhuliyap\AppData\Local\Temp\gh_0000d8g1.s
00004936 b201           9463 	.byte	178,1
00004938 53544152545f   9464 	.strz	"START_SEC_CONST_UNSPECIFIED "
0000493e 5345435f434f 
00004944 4e53545f554e 
0000494a 535045434946 
00004950 4945442000 
00004955 03             9465 	.byte	3
00004956 f403           9466 	.byte	244,3
00004958 14             9467 	.byte	20
00004959 01             9468 	.byte	1
0000495a b408           9469 	.byte	180,8
0000495c 434f4e53545f   9470 	.strz	"CONST_SEC_OPEN "
00004962 5345435f4f50 
00004968 454e2000 
0000496c 04             9471 	.byte	4
0000496d 04             9472 	.byte	4
0000496e 01             9473 	.byte	1
0000496f 5d             9474 	.byte	93
00004970 4e564d5f5354   9475 	.strz	"NVM_STOP_SEC_CONST_DESCRIPTOR_TABLE "
00004976 4f505f534543 
0000497c 5f434f4e5354 
00004982 5f4445534352 
00004988 4950544f525f 
0000498e 5441424c4520 
00004994 00 
00004995 03             9476 	.byte	3
00004996 5e             9477 	.byte	94
00004997 1b             9478 	.byte	27
00004998 01             9479 	.byte	1
00004999 02             9480 	.byte	2
0000499a 4d454d4d4150   9481 	.strz	"MEMMAP_VENDOR_ID (30u)"
000049a0 5f56454e444f 
000049a6 525f49442028 
000049ac 3330752900 
000049b1 01             9482 	.byte	1
000049b2 08             9483 	.byte	8
000049b3 4d454d4d4150   9484 	.strz	"MEMMAP_AR_RELEASE_MAJOR_VERSION (4u)"
000049b9 5f41525f5245 
000049bf 4c454153455f 
000049c5 4d414a4f525f 
000049cb 56455253494f 
000049d1 4e2028347529 
000049d7 00 
000049d8 01             9485 	.byte	1
000049d9 09             9486 	.byte	9
000049da 4d454d4d4150   9487 	.strz	"MEMMAP_AR_RELEASE_MINOR_VERSION (0u)"
000049e0 5f41525f5245 
000049e6 4c454153455f 
000049ec 4d494e4f525f 
000049f2 56455253494f 
000049f8 4e2028307529 
000049fe 00 
000049ff 01             9488 	.byte	1
00004a00 0a             9489 	.byte	10
00004a01 4d454d4d4150   9490 	.strz	"MEMMAP_AR_RELEASE_REVISION_VERSION (3u)"
00004a07 5f41525f5245 
00004a0d 4c454153455f 
00004a13 524556495349 
00004a19 4f4e5f564552 
00004a1f 53494f4e2028 
00004a25 33752900 

                                                                      Page 227
                                                              C:\Users\nhuliyap\AppData\Local\Temp\gh_0000d8g1.s
00004a29 01             9491 	.byte	1
00004a2a 10             9492 	.byte	16
00004a2b 4d454d5f4152   9493 	.strz	"MEM_AR_RELEASE_MAJOR_VERSION MEMMAP_AR_RELEASE_MAJOR_VERSION"
00004a31 5f52454c4541 
00004a37 53455f4d414a 
00004a3d 4f525f564552 
00004a43 53494f4e204d 
00004a49 454d4d41505f 
00004a4f 41525f52454c 
00004a55 454153455f4d 
00004a5b 414a4f525f56 
00004a61 455253494f4e 
00004a67 00 
00004a68 01             9494 	.byte	1
00004a69 11             9495 	.byte	17
00004a6a 4d454d5f4152   9496 	.strz	"MEM_AR_RELEASE_MINOR_VERSION MEMMAP_AR_RELEASE_MINOR_VERSION"
00004a70 5f52454c4541 
00004a76 53455f4d494e 
00004a7c 4f525f564552 
00004a82 53494f4e204d 
00004a88 454d4d41505f 
00004a8e 41525f52454c 
00004a94 454153455f4d 
00004a9a 494e4f525f56 
00004aa0 455253494f4e 
00004aa6 00 
00004aa7 01             9497 	.byte	1
00004aa8 12             9498 	.byte	18
00004aa9 4d454d5f4152   9499 	.strz	"MEM_AR_RELEASE_PATCH_VERSION MEMMAP_AR_RELEASE_REVISION_VERSION"
00004aaf 5f52454c4541 
00004ab5 53455f504154 
00004abb 43485f564552 
00004ac1 53494f4e204d 
00004ac7 454d4d41505f 
00004acd 41525f52454c 
00004ad3 454153455f52 
00004ad9 45564953494f 
00004adf 4e5f56455253 
00004ae5 494f4e00 
00004ae9 01             9500 	.byte	1
00004aea 18             9501 	.byte	24
00004aeb 4d454d4d4150   9502 	.strz	"MEMMAP_SW_MAJOR_VERSION (1u)"
00004af1 5f53575f4d41 
00004af7 4a4f525f5645 
00004afd 5253494f4e20 
00004b03 2831752900 
00004b08 01             9503 	.byte	1
00004b09 19             9504 	.byte	25
00004b0a 4d454d4d4150   9505 	.strz	"MEMMAP_SW_MINOR_VERSION (11u)"
00004b10 5f53575f4d49 
00004b16 4e4f525f5645 
00004b1c 5253494f4e20 
00004b22 283131752900 
00004b28 01             9506 	.byte	1
00004b29 1a             9507 	.byte	26
00004b2a 4d454d4d4150   9508 	.strz	"MEMMAP_SW_PATCH_VERSION (0u)"
00004b30 5f53575f5041 
00004b36 5443485f5645 
00004b3c 5253494f4e20 
00004b42 2830752900 
00004b47 01             9509 	.byte	1

                                                                      Page 228
                                                              C:\Users\nhuliyap\AppData\Local\Temp\gh_0000d8g1.s
00004b48 20             9510 	.byte	32
00004b49 4d454d5f5357   9511 	.strz	"MEM_SW_MAJOR_VERSION MEMMAP_SW_MAJOR_VERSION"
00004b4f 5f4d414a4f52 
00004b55 5f5645525349 
00004b5b 4f4e204d454d 
00004b61 4d41505f5357 
00004b67 5f4d414a4f52 
00004b6d 5f5645525349 
00004b73 4f4e00 
00004b76 01             9512 	.byte	1
00004b77 21             9513 	.byte	33
00004b78 4d454d5f5357   9514 	.strz	"MEM_SW_MINOR_VERSION MEMMAP_SW_MINOR_VERSION"
00004b7e 5f4d494e4f52 
00004b84 5f5645525349 
00004b8a 4f4e204d454d 
00004b90 4d41505f5357 
00004b96 5f4d494e4f52 
00004b9c 5f5645525349 
00004ba2 4f4e00 
00004ba5 01             9515 	.byte	1
00004ba6 22             9516 	.byte	34
00004ba7 4d454d5f5357   9517 	.strz	"MEM_SW_PATCH_VERSION MEMMAP_SW_PATCH_VERSION"
00004bad 5f5041544348 
00004bb3 5f5645525349 
00004bb9 4f4e204d454d 
00004bbf 4d41505f5357 
00004bc5 5f5041544348 
00004bcb 5f5645525349 
00004bd1 4f4e00 
00004bd4 01             9518 	.byte	1
00004bd5 24             9519 	.byte	36
00004bd6 4d454d4d4150   9520 	.strz	"MEMMAP_ERROR "
00004bdc 5f4552524f52 
00004be2 2000 
00004be4 01             9521 	.byte	1
00004be5 b601           9522 	.byte	182,1
00004be7 53544f505f53   9523 	.strz	"STOP_SEC_CONST "
00004bed 45435f434f4e 
00004bf3 53542000 
00004bf7 03             9524 	.byte	3
00004bf8 f403           9525 	.byte	244,3
00004bfa 14             9526 	.byte	20
00004bfb 04             9527 	.byte	4
00004bfc 04             9528 	.byte	4
00004bfd 04             9529 	.byte	4
00004bfe 01             9530 	.byte	1
00004bff 21             9531 	.byte	33
00004c00 4e564d5f5354   9532 	.strz	"NVM_START_SEC_CODE "
00004c06 4152545f5345 
00004c0c 435f434f4445 
00004c12 2000 
00004c14 03             9533 	.byte	3
00004c15 22             9534 	.byte	34
00004c16 1b             9535 	.byte	27
00004c17 01             9536 	.byte	1
00004c18 02             9537 	.byte	2
00004c19 4d454d4d4150   9538 	.strz	"MEMMAP_VENDOR_ID (30u)"
00004c1f 5f56454e444f 
00004c25 525f49442028 
00004c2b 3330752900 
00004c30 01             9539 	.byte	1

                                                                      Page 229
                                                              C:\Users\nhuliyap\AppData\Local\Temp\gh_0000d8g1.s
00004c31 08             9540 	.byte	8
00004c32 4d454d4d4150   9541 	.strz	"MEMMAP_AR_RELEASE_MAJOR_VERSION (4u)"
00004c38 5f41525f5245 
00004c3e 4c454153455f 
00004c44 4d414a4f525f 
00004c4a 56455253494f 
00004c50 4e2028347529 
00004c56 00 
00004c57 01             9542 	.byte	1
00004c58 09             9543 	.byte	9
00004c59 4d454d4d4150   9544 	.strz	"MEMMAP_AR_RELEASE_MINOR_VERSION (0u)"
00004c5f 5f41525f5245 
00004c65 4c454153455f 
00004c6b 4d494e4f525f 
00004c71 56455253494f 
00004c77 4e2028307529 
00004c7d 00 
00004c7e 01             9545 	.byte	1
00004c7f 0a             9546 	.byte	10
00004c80 4d454d4d4150   9547 	.strz	"MEMMAP_AR_RELEASE_REVISION_VERSION (3u)"
00004c86 5f41525f5245 
00004c8c 4c454153455f 
00004c92 524556495349 
00004c98 4f4e5f564552 
00004c9e 53494f4e2028 
00004ca4 33752900 
00004ca8 01             9548 	.byte	1
00004ca9 10             9549 	.byte	16
00004caa 4d454d5f4152   9550 	.strz	"MEM_AR_RELEASE_MAJOR_VERSION MEMMAP_AR_RELEASE_MAJOR_VERSION"
00004cb0 5f52454c4541 
00004cb6 53455f4d414a 
00004cbc 4f525f564552 
00004cc2 53494f4e204d 
00004cc8 454d4d41505f 
00004cce 41525f52454c 
00004cd4 454153455f4d 
00004cda 414a4f525f56 
00004ce0 455253494f4e 
00004ce6 00 
00004ce7 01             9551 	.byte	1
00004ce8 11             9552 	.byte	17
00004ce9 4d454d5f4152   9553 	.strz	"MEM_AR_RELEASE_MINOR_VERSION MEMMAP_AR_RELEASE_MINOR_VERSION"
00004cef 5f52454c4541 
00004cf5 53455f4d494e 
00004cfb 4f525f564552 
00004d01 53494f4e204d 
00004d07 454d4d41505f 
00004d0d 41525f52454c 
00004d13 454153455f4d 
00004d19 494e4f525f56 
00004d1f 455253494f4e 
00004d25 00 
00004d26 01             9554 	.byte	1
00004d27 12             9555 	.byte	18
00004d28 4d454d5f4152   9556 	.strz	"MEM_AR_RELEASE_PATCH_VERSION MEMMAP_AR_RELEASE_REVISION_VERSION"
00004d2e 5f52454c4541 
00004d34 53455f504154 
00004d3a 43485f564552 
00004d40 53494f4e204d 
00004d46 454d4d41505f 
00004d4c 41525f52454c 

                                                                      Page 230
                                                              C:\Users\nhuliyap\AppData\Local\Temp\gh_0000d8g1.s
00004d52 454153455f52 
00004d58 45564953494f 
00004d5e 4e5f56455253 
00004d64 494f4e00 
00004d68 01             9557 	.byte	1
00004d69 18             9558 	.byte	24
00004d6a 4d454d4d4150   9559 	.strz	"MEMMAP_SW_MAJOR_VERSION (1u)"
00004d70 5f53575f4d41 
00004d76 4a4f525f5645 
00004d7c 5253494f4e20 
00004d82 2831752900 
00004d87 01             9560 	.byte	1
00004d88 19             9561 	.byte	25
00004d89 4d454d4d4150   9562 	.strz	"MEMMAP_SW_MINOR_VERSION (11u)"
00004d8f 5f53575f4d49 
00004d95 4e4f525f5645 
00004d9b 5253494f4e20 
00004da1 283131752900 
00004da7 01             9563 	.byte	1
00004da8 1a             9564 	.byte	26
00004da9 4d454d4d4150   9565 	.strz	"MEMMAP_SW_PATCH_VERSION (0u)"
00004daf 5f53575f5041 
00004db5 5443485f5645 
00004dbb 5253494f4e20 
00004dc1 2830752900 
00004dc6 01             9566 	.byte	1
00004dc7 20             9567 	.byte	32
00004dc8 4d454d5f5357   9568 	.strz	"MEM_SW_MAJOR_VERSION MEMMAP_SW_MAJOR_VERSION"
00004dce 5f4d414a4f52 
00004dd4 5f5645525349 
00004dda 4f4e204d454d 
00004de0 4d41505f5357 
00004de6 5f4d414a4f52 
00004dec 5f5645525349 
00004df2 4f4e00 
00004df5 01             9569 	.byte	1
00004df6 21             9570 	.byte	33
00004df7 4d454d5f5357   9571 	.strz	"MEM_SW_MINOR_VERSION MEMMAP_SW_MINOR_VERSION"
00004dfd 5f4d494e4f52 
00004e03 5f5645525349 
00004e09 4f4e204d454d 
00004e0f 4d41505f5357 
00004e15 5f4d494e4f52 
00004e1b 5f5645525349 
00004e21 4f4e00 
00004e24 01             9572 	.byte	1
00004e25 22             9573 	.byte	34
00004e26 4d454d5f5357   9574 	.strz	"MEM_SW_PATCH_VERSION MEMMAP_SW_PATCH_VERSION"
00004e2c 5f5041544348 
00004e32 5f5645525349 
00004e38 4f4e204d454d 
00004e3e 4d41505f5357 
00004e44 5f5041544348 
00004e4a 5f5645525349 
00004e50 4f4e00 
00004e53 01             9575 	.byte	1
00004e54 24             9576 	.byte	36
00004e55 4d454d4d4150   9577 	.strz	"MEMMAP_ERROR "
00004e5b 5f4552524f52 
00004e61 2000 
00004e63 01             9578 	.byte	1

                                                                      Page 231
                                                              C:\Users\nhuliyap\AppData\Local\Temp\gh_0000d8g1.s
00004e64 8e01           9579 	.byte	142,1
00004e66 53544152545f   9580 	.strz	"START_SEC_CODE "
00004e6c 5345435f434f 
00004e72 44452000 
00004e76 03             9581 	.byte	3
00004e77 f403           9582 	.byte	244,3
00004e79 14             9583 	.byte	20
00004e7a 01             9584 	.byte	1
00004e7b f307           9585 	.byte	243,7
00004e7d 434f44455f53   9586 	.strz	"CODE_SEC_OPEN "
00004e83 45435f4f5045 
00004e89 4e2000 
00004e8c 04             9587 	.byte	4
00004e8d 04             9588 	.byte	4
00004e8e 01             9589 	.byte	1
00004e8f 9401           9590 	.byte	148,1
00004e91 4e564d5f5354   9591 	.strz	"NVM_STOP_SEC_CODE "
00004e97 4f505f534543 
00004e9d 5f434f444520 
00004ea3 00 
00004ea4 03             9592 	.byte	3
00004ea5 9501           9593 	.byte	149,1
00004ea7 1b             9594 	.byte	27
00004ea8 01             9595 	.byte	1
00004ea9 24             9596 	.byte	36
00004eaa 4d454d4d4150   9597 	.strz	"MEMMAP_ERROR "
00004eb0 5f4552524f52 
00004eb6 2000 
00004eb8 01             9598 	.byte	1
00004eb9 9201           9599 	.byte	146,1
00004ebb 53544f505f53   9600 	.strz	"STOP_SEC_CODE "
00004ec1 45435f434f44 
00004ec7 452000 
00004eca 03             9601 	.byte	3
00004ecb f403           9602 	.byte	244,3
00004ecd 14             9603 	.byte	20
00004ece 04             9604 	.byte	4
00004ecf 04             9605 	.byte	4
00004ed0 04             9606 	.byte	4
00004ed1 03             9607 	.byte	3
00004ed2 07             9608 	.byte	7
00004ed3 26             9609 	.byte	38
00004ed4 03             9610 	.byte	3
00004ed5 06             9611 	.byte	6
00004ed6 27             9612 	.byte	39
00004ed7 03             9613 	.byte	3
00004ed8 05             9614 	.byte	5
00004ed9 28             9615 	.byte	40
00004eda 03             9616 	.byte	3
00004edb 04             9617 	.byte	4
00004edc 29             9618 	.byte	41
00004edd 01             9619 	.byte	1
00004ede 06             9620 	.byte	6
00004edf 44454d5f4346   9621 	.strz	"DEM_CFG_BUILDTARGET_ECU 1"
00004ee5 475f4255494c 
00004eeb 445441524745 
00004ef1 545f45435520 
00004ef7 3100 
00004ef9 01             9622 	.byte	1
00004efa 07             9623 	.byte	7
00004efb 44454d5f4346   9624 	.strz	"DEM_CFG_BUILDTARGET_DEMTESTSUITE 2"

                                                                      Page 232
                                                              C:\Users\nhuliyap\AppData\Local\Temp\gh_0000d8g1.s
00004f01 475f4255494c 
00004f07 445441524745 
00004f0d 545f44454d54 
00004f13 455354535549 
00004f19 5445203200 
00004f1e 01             9625 	.byte	1
00004f1f 10             9626 	.byte	16
00004f20 44454d5f4346   9627 	.strz	"DEM_CFG_BUILDTARGET DEM_CFG_BUILDTARGET_ECU"
00004f26 475f4255494c 
00004f2c 445441524745 
00004f32 542044454d5f 
00004f38 4346475f4255 
00004f3e 494c44544152 
00004f44 4745545f4543 
00004f4a 5500 
00004f4c 01             9628 	.byte	1
00004f4d 17             9629 	.byte	23
00004f4e 44454d5f4346   9630 	.strz	"DEM_CFG_DEVERRORDETECT_ON STD_ON"
00004f54 475f44455645 
00004f5a 52524f524445 
00004f60 544543545f4f 
00004f66 4e205354445f 
00004f6c 4f4e00 
00004f6f 01             9631 	.byte	1
00004f70 18             9632 	.byte	24
00004f71 44454d5f4346   9633 	.strz	"DEM_CFG_DEVERRORDETECT DEM_CFG_DEVERRORDETECT_ON"
00004f77 475f44455645 
00004f7d 52524f524445 
00004f83 544543542044 
00004f89 454d5f434647 
00004f8f 5f4445564552 
00004f95 524f52444554 
00004f9b 4543545f4f4e 
00004fa1 00 
00004fa2 01             9634 	.byte	1
00004fa3 1b             9635 	.byte	27
00004fa4 44454d5f4556   9636 	.strz	"DEM_EVENT_SUPPRESSION STD_ON"
00004faa 454e545f5355 
00004fb0 505052455353 
00004fb6 494f4e205354 
00004fbc 445f4f4e00 
00004fc1 01             9637 	.byte	1
00004fc2 1c             9638 	.byte	28
00004fc3 44454d5f4454   9639 	.strz	"DEM_DTC_SUPPRESSION (STD_ON+STD_OFF+1)"
00004fc9 435f53555050 
00004fcf 52455353494f 
00004fd5 4e2028535444 
00004fdb 5f4f4e2b5354 
00004fe1 445f4f46462b 
00004fe7 312900 
00004fea 01             9640 	.byte	1
00004feb 1d             9641 	.byte	29
00004fec 44454d5f4556   9642 	.strz	"DEM_EVENT_AND_DTC_SUPPRESSION (DEM_DTC_SUPPRESSION+1)"
00004ff2 454e545f414e 
00004ff8 445f4454435f 
00004ffe 535550505245 
00005004 5353494f4e20 
0000500a 2844454d5f44 
00005010 54435f535550 
00005016 505245535349 
0000501c 4f4e2b312900 

                                                                      Page 233
                                                              C:\Users\nhuliyap\AppData\Local\Temp\gh_0000d8g1.s
00005022 01             9643 	.byte	1
00005023 1e             9644 	.byte	30
00005024 44454d5f4346   9645 	.strz	"DEM_CFG_SUPPRESSION DEM_EVENT_SUPPRESSION"
0000502a 475f53555050 
00005030 52455353494f 
00005036 4e2044454d5f 
0000503c 4556454e545f 
00005042 535550505245 
00005048 5353494f4e00 
0000504e 04             9646 	.byte	4
0000504f 03             9647 	.byte	3
00005050 07             9648 	.byte	7
00005051 2a             9649 	.byte	42
00005052 03             9650 	.byte	3
00005053 04             9651 	.byte	4
00005054 2b             9652 	.byte	43
00005055 03             9653 	.byte	3
00005056 04             9654 	.byte	4
00005057 2c             9655 	.byte	44
00005058 04             9656 	.byte	4
00005059 04             9657 	.byte	4
0000505a 01             9658 	.byte	1
0000505b 08             9659 	.byte	8
0000505c 4445545f4346   9660 	.strz	"DET_CFG_CHECK_API_CONSISTENCY TRUE"
00005062 475f43484543 
00005068 4b5f4150495f 
0000506e 434f4e534953 
00005074 54454e435920 
0000507a 5452554500 
0000507f 01             9661 	.byte	1
00005080 0a             9662 	.byte	10
00005081 4445545f5354   9663 	.strz	"DET_START_SEC_ROM_CODE "
00005087 4152545f5345 
0000508d 435f524f4d5f 
00005093 434f44452000 
00005099 03             9664 	.byte	3
0000509a 0b             9665 	.byte	11
0000509b 2d             9666 	.byte	45
0000509c 01             9667 	.byte	1
0000509d 06             9668 	.byte	6
0000509e 4d454d4d4150   9669 	.strz	"MEMMAP_ERROR "
000050a4 5f4552524f52 
000050aa 2000 
000050ac 01             9670 	.byte	1
000050ad 51             9671 	.byte	81
000050ae 4253575f5354   9672 	.strz	"BSW_START_SEC_DEFAULT_CODE "
000050b4 4152545f5345 
000050ba 435f44454641 
000050c0 554c545f434f 
000050c6 44452000 
000050ca 03             9673 	.byte	3
000050cb 52             9674 	.byte	82
000050cc 13             9675 	.byte	19
000050cd 01             9676 	.byte	1
000050ce d308           9677 	.byte	211,8
000050d0 53544152545f   9678 	.strz	"START_SEC_CODE "
000050d6 5345435f434f 
000050dc 44452000 
000050e0 03             9679 	.byte	3
000050e1 bb09           9680 	.byte	187,9
000050e3 14             9681 	.byte	20

                                                                      Page 234
                                                              C:\Users\nhuliyap\AppData\Local\Temp\gh_0000d8g1.s
000050e4 01             9682 	.byte	1
000050e5 f307           9683 	.byte	243,7
000050e7 434f44455f53   9684 	.strz	"CODE_SEC_OPEN "
000050ed 45435f4f5045 
000050f3 4e2000 
000050f6 04             9685 	.byte	4
000050f7 04             9686 	.byte	4
000050f8 01             9687 	.byte	1
000050f9 56             9688 	.byte	86
000050fa 4445545f5741   9689 	.strz	"DET_WAS_STARTED_SEC_ROM_CODE "
00005100 535f53544152 
00005106 5445445f5345 
0000510c 435f524f4d5f 
00005112 434f44452000 
00005118 04             9690 	.byte	4
00005119 01             9691 	.byte	1
0000511a 20             9692 	.byte	32
0000511b 4445545f5354   9693 	.strz	"DET_STOP_SEC_ROM_CODE "
00005121 4f505f534543 
00005127 5f524f4d5f43 
0000512d 4f44452000 
00005132 03             9694 	.byte	3
00005133 21             9695 	.byte	33
00005134 2d             9696 	.byte	45
00005135 01             9697 	.byte	1
00005136 06             9698 	.byte	6
00005137 4d454d4d4150   9699 	.strz	"MEMMAP_ERROR "
0000513d 5f4552524f52 
00005143 2000 
00005145 01             9700 	.byte	1
00005146 5e             9701 	.byte	94
00005147 4253575f5354   9702 	.strz	"BSW_STOP_SEC_DEFAULT_CODE "
0000514d 4f505f534543 
00005153 5f4445464155 
00005159 4c545f434f44 
0000515f 452000 
00005162 03             9703 	.byte	3
00005163 5f             9704 	.byte	95
00005164 13             9705 	.byte	19
00005165 01             9706 	.byte	1
00005166 d608           9707 	.byte	214,8
00005168 53544f505f53   9708 	.strz	"STOP_SEC_CODE "
0000516e 45435f434f44 
00005174 452000 
00005177 03             9709 	.byte	3
00005178 bb09           9710 	.byte	187,9
0000517a 14             9711 	.byte	20
0000517b 04             9712 	.byte	4
0000517c 04             9713 	.byte	4
0000517d 04             9714 	.byte	4
0000517e 04             9715 	.byte	4
0000517f 01             9716 	.byte	1
00005180 08             9717 	.byte	8
00005181 44454d5f4445   9718 	.strz	"DEM_DET(APIID,ERRORID) Det_ReportError(DEM_MODULE_ID,DEM_INSTANCE_ID,APIID,ERRORID)"
00005187 542841504949 
0000518d 442c4552524f 
00005193 524944292044 
00005199 65745f526570 
0000519f 6f7274457272 
000051a5 6f722844454d 
000051ab 5f4d4f44554c 

                                                                      Page 235
                                                              C:\Users\nhuliyap\AppData\Local\Temp\gh_0000d8g1.s
000051b1 455f49442c44 
000051b7 454d5f494e53 
000051bd 54414e43455f 
000051c3 49442c415049 
000051c9 49442c455252 
000051cf 4f5249442900 
000051d5 01             9719 	.byte	1
000051d6 67             9720 	.byte	103
000051d7 44454d5f4445   9721 	.strz	"DEM_DET_APIID_EVENTIDLISTITERATOR 0xBD"
000051dd 545f41504949 
000051e3 445f4556454e 
000051e9 5449444c4953 
000051ef 544954455241 
000051f5 544f52203078 
000051fb 424400 
000051fe 01             9722 	.byte	1
000051ff 6f             9723 	.byte	111
00005200 44454d5f4445   9724 	.strz	"DEM_DET_APIID_DTCGROUPIDIDLISTITERATOR 0xC5"
00005206 545f41504949 
0000520c 445f44544347 
00005212 524f55504944 
00005218 49444c495354 
0000521e 495445524154 
00005224 4f5220307843 
0000522a 3500 
0000522c 04             9725 	.byte	4
0000522d 03             9726 	.byte	3
0000522e 06             9727 	.byte	6
0000522f 2e             9728 	.byte	46
00005230 03             9729 	.byte	3
00005231 04             9730 	.byte	4
00005232 2f             9731 	.byte	47
00005233 01             9732 	.byte	1
00005234 10             9733 	.byte	16
00005235 5242415f4253   9734 	.strz	"RBA_BSWSRV_START_SEC_CODE "
0000523b 575352565f53 
00005241 544152545f53 
00005247 45435f434f44 
0000524d 452000 
00005250 03             9735 	.byte	3
00005251 11             9736 	.byte	17
00005252 30             9737 	.byte	48
00005253 01             9738 	.byte	1
00005254 37             9739 	.byte	55
00005255 4253575f5354   9740 	.strz	"BSW_START_SEC_DEFAULT_CODE "
0000525b 4152545f5345 
00005261 435f44454641 
00005267 554c545f434f 
0000526d 44452000 
00005271 03             9741 	.byte	3
00005272 38             9742 	.byte	56
00005273 13             9743 	.byte	19
00005274 01             9744 	.byte	1
00005275 d308           9745 	.byte	211,8
00005277 53544152545f   9746 	.strz	"START_SEC_CODE "
0000527d 5345435f434f 
00005283 44452000 
00005287 03             9747 	.byte	3
00005288 bb09           9748 	.byte	187,9
0000528a 14             9749 	.byte	20
0000528b 01             9750 	.byte	1

                                                                      Page 236
                                                              C:\Users\nhuliyap\AppData\Local\Temp\gh_0000d8g1.s
0000528c f307           9751 	.byte	243,7
0000528e 434f44455f53   9752 	.strz	"CODE_SEC_OPEN "
00005294 45435f4f5045 
0000529a 4e2000 
0000529d 04             9753 	.byte	4
0000529e 04             9754 	.byte	4
0000529f 04             9755 	.byte	4
000052a0 01             9756 	.byte	1
000052a1 15             9757 	.byte	21
000052a2 5242415f4253   9758 	.strz	"RBA_BSWSRV_STOP_SEC_CODE "
000052a8 575352565f53 
000052ae 544f505f5345 
000052b4 435f434f4445 
000052ba 2000 
000052bc 03             9759 	.byte	3
000052bd 16             9760 	.byte	22
000052be 30             9761 	.byte	48
000052bf 01             9762 	.byte	1
000052c0 3b             9763 	.byte	59
000052c1 4253575f5354   9764 	.strz	"BSW_STOP_SEC_DEFAULT_CODE "
000052c7 4f505f534543 
000052cd 5f4445464155 
000052d3 4c545f434f44 
000052d9 452000 
000052dc 03             9765 	.byte	3
000052dd 3c             9766 	.byte	60
000052de 13             9767 	.byte	19
000052df 01             9768 	.byte	1
000052e0 d608           9769 	.byte	214,8
000052e2 53544f505f53   9770 	.strz	"STOP_SEC_CODE "
000052e8 45435f434f44 
000052ee 452000 
000052f1 03             9771 	.byte	3
000052f2 bb09           9772 	.byte	187,9
000052f4 14             9773 	.byte	20
000052f5 04             9774 	.byte	4
000052f6 04             9775 	.byte	4
000052f7 04             9776 	.byte	4
000052f8 04             9777 	.byte	4
000052f9 04             9778 	.byte	4
000052fa 01             9779 	.byte	1
000052fb 09             9780 	.byte	9
000052fc 44454d5f5354   9781 	.strz	"DEM_STATIC_ASSERT(COND,MSG) typedef uint8 Dem_static_assertion_ ## MSG[(2*(((COND)!=(FALSE))?1:0))-1]"
00005302 415449435f41 
00005308 535345525428 
0000530e 434f4e442c4d 
00005314 534729207479 
0000531a 706564656620 
00005320 75696e743820 
00005326 44656d5f7374 
0000532c 617469635f61 
00005332 737365727469 
00005338 6f6e5f202323 
0000533e 204d53475b28 
00005344 322a28282843 
0000534a 4f4e4429213d 
00005350 2846414c5345 
00005356 29293f313a30 
0000535c 29292d315d00 
00005362 01             9782 	.byte	1
00005363 0e             9783 	.byte	14

                                                                      Page 237
                                                              C:\Users\nhuliyap\AppData\Local\Temp\gh_0000d8g1.s
00005364 44454d5f4153   9784 	.strz	"DEM_ASSERT_RANGECHECK(CONDITION) do {}while(0)"
0000536a 534552545f52 
00005370 414e47454348 
00005376 45434b28434f 
0000537c 4e444954494f 
00005382 4e2920646f20 
00005388 7b7d7768696c 
0000538e 6528302900 
00005393 04             9785 	.byte	4
00005394 03             9786 	.byte	3
00005395 07             9787 	.byte	7
00005396 31             9788 	.byte	49
00005397 03             9789 	.byte	3
00005398 06             9790 	.byte	6
00005399 32             9791 	.byte	50
0000539a 03             9792 	.byte	3
0000539b 07             9793 	.byte	7
0000539c 33             9794 	.byte	51
0000539d 04             9795 	.byte	4
0000539e 01             9796 	.byte	1
0000539f 09             9797 	.byte	9
000053a0 44454d5f4953   9798 	.strz	"DEM_ISO14229_TESTFAILED 0u"
000053a6 4f3134323239 
000053ac 5f5445535446 
000053b2 41494c454420 
000053b8 307500 
000053bb 01             9799 	.byte	1
000053bc 0a             9800 	.byte	10
000053bd 44454d5f4953   9801 	.strz	"DEM_ISO14229_TESTFAILED_TOC 1u"
000053c3 4f3134323239 
000053c9 5f5445535446 
000053cf 41494c45445f 
000053d5 544f43203175 
000053db 00 
000053dc 01             9802 	.byte	1
000053dd 0b             9803 	.byte	11
000053de 44454d5f4953   9804 	.strz	"DEM_ISO14229_TESTFAILED_SLC 5u"
000053e4 4f3134323239 
000053ea 5f5445535446 
000053f0 41494c45445f 
000053f6 534c43203575 
000053fc 00 
000053fd 01             9805 	.byte	1
000053fe 0c             9806 	.byte	12
000053ff 44454d5f4953   9807 	.strz	"DEM_ISO14229_TESTNOTCOMPLETE_TOC 6u"
00005405 4f3134323239 
0000540b 5f544553544e 
00005411 4f54434f4d50 
00005417 4c4554455f54 
0000541d 4f4320367500 
00005423 01             9808 	.byte	1
00005424 0d             9809 	.byte	13
00005425 44454d5f4953   9810 	.strz	"DEM_ISO14229_TESTNOTCOMPLETE_SLC 4u"
0000542b 4f3134323239 
00005431 5f544553544e 
00005437 4f54434f4d50 
0000543d 4c4554455f53 
00005443 4c4320347500 
00005449 01             9811 	.byte	1
0000544a 0e             9812 	.byte	14
0000544b 44454d5f4953   9813 	.strz	"DEM_ISO14229_PENDINGDTC 2u"

                                                                      Page 238
                                                              C:\Users\nhuliyap\AppData\Local\Temp\gh_0000d8g1.s
00005451 4f3134323239 
00005457 5f50454e4449 
0000545d 4e4744544320 
00005463 327500 
00005466 01             9814 	.byte	1
00005467 0f             9815 	.byte	15
00005468 44454d5f4953   9816 	.strz	"DEM_ISO14229_CONFIRMEDDTC 3u"
0000546e 4f3134323239 
00005474 5f434f4e4649 
0000547a 524d45444454 
00005480 4320337500 
00005485 01             9817 	.byte	1
00005486 10             9818 	.byte	16
00005487 44454d5f4953   9819 	.strz	"DEM_ISO14229_WARNINGINDICATOR 7u"
0000548d 4f3134323239 
00005493 5f5741524e49 
00005499 4e47494e4449 
0000549f 4341544f5220 
000054a5 377500 
000054a8 01             9820 	.byte	1
000054a9 12             9821 	.byte	18
000054aa 44454d5f4953   9822 	.strz	"DEM_ISO14229_BM_TESTFAILED (1u<<DEM_ISO14229_TESTFAILED)"
000054b0 4f3134323239 
000054b6 5f424d5f5445 
000054bc 53544641494c 
000054c2 454420283175 
000054c8 3c3c44454d5f 
000054ce 49534f313432 
000054d4 32395f544553 
000054da 544641494c45 
000054e0 442900 
000054e3 01             9823 	.byte	1
000054e4 13             9824 	.byte	19
000054e5 44454d5f4953   9825 	.strz	"DEM_ISO14229_BM_TESTFAILED_TOC (1u<<DEM_ISO14229_TESTFAILED_TOC)"
000054eb 4f3134323239 
000054f1 5f424d5f5445 
000054f7 53544641494c 
000054fd 45445f544f43 
00005503 202831753c3c 
00005509 44454d5f4953 
0000550f 4f3134323239 
00005515 5f5445535446 
0000551b 41494c45445f 
00005521 544f432900 
00005526 01             9826 	.byte	1
00005527 14             9827 	.byte	20
00005528 44454d5f4953   9828 	.strz	"DEM_ISO14229_BM_TESTFAILED_SLC (1u<<DEM_ISO14229_TESTFAILED_SLC)"
0000552e 4f3134323239 
00005534 5f424d5f5445 
0000553a 53544641494c 
00005540 45445f534c43 
00005546 202831753c3c 
0000554c 44454d5f4953 
00005552 4f3134323239 
00005558 5f5445535446 
0000555e 41494c45445f 
00005564 534c432900 
00005569 01             9829 	.byte	1
0000556a 15             9830 	.byte	21
0000556b 44454d5f4953   9831 	.strz	"DEM_ISO14229_BM_TESTNOTCOMPLETE_TOC (1u<<DEM_ISO14229_TESTNOTCOMPLETE_TOC)"
00005571 4f3134323239 

                                                                      Page 239
                                                              C:\Users\nhuliyap\AppData\Local\Temp\gh_0000d8g1.s
00005577 5f424d5f5445 
0000557d 53544e4f5443 
00005583 4f4d504c4554 
00005589 455f544f4320 
0000558f 2831753c3c44 
00005595 454d5f49534f 
0000559b 31343232395f 
000055a1 544553544e4f 
000055a7 54434f4d504c 
000055ad 4554455f544f 
000055b3 432900 
000055b6 01             9832 	.byte	1
000055b7 16             9833 	.byte	22
000055b8 44454d5f4953   9834 	.strz	"DEM_ISO14229_BM_TESTNOTCOMPLETE_SLC (1u<<DEM_ISO14229_TESTNOTCOMPLETE_SLC)"
000055be 4f3134323239 
000055c4 5f424d5f5445 
000055ca 53544e4f5443 
000055d0 4f4d504c4554 
000055d6 455f534c4320 
000055dc 2831753c3c44 
000055e2 454d5f49534f 
000055e8 31343232395f 
000055ee 544553544e4f 
000055f4 54434f4d504c 
000055fa 4554455f534c 
00005600 432900 
00005603 01             9835 	.byte	1
00005604 17             9836 	.byte	23
00005605 44454d5f4953   9837 	.strz	"DEM_ISO14229_BM_PENDINGDTC (1u<<DEM_ISO14229_PENDINGDTC)"
0000560b 4f3134323239 
00005611 5f424d5f5045 
00005617 4e44494e4744 
0000561d 544320283175 
00005623 3c3c44454d5f 
00005629 49534f313432 
0000562f 32395f50454e 
00005635 44494e474454 
0000563b 432900 
0000563e 01             9838 	.byte	1
0000563f 18             9839 	.byte	24
00005640 44454d5f4953   9840 	.strz	"DEM_ISO14229_BM_CONFIRMEDDTC (1u<<DEM_ISO14229_CONFIRMEDDTC)"
00005646 4f3134323239 
0000564c 5f424d5f434f 
00005652 4e4649524d45 
00005658 444454432028 
0000565e 31753c3c4445 
00005664 4d5f49534f31 
0000566a 343232395f43 
00005670 4f4e4649524d 
00005676 454444544329 
0000567c 00 
0000567d 01             9841 	.byte	1
0000567e 19             9842 	.byte	25
0000567f 44454d5f4953   9843 	.strz	"DEM_ISO14229_BM_WARNINGINDICATOR (1u<<DEM_ISO14229_WARNINGINDICATOR)"
00005685 4f3134323239 
0000568b 5f424d5f5741 
00005691 524e494e4749 
00005697 4e4449434154 
0000569d 4f5220283175 
000056a3 3c3c44454d5f 
000056a9 49534f313432 

                                                                      Page 240
                                                              C:\Users\nhuliyap\AppData\Local\Temp\gh_0000d8g1.s
000056af 32395f574152 
000056b5 4e494e47494e 
000056bb 44494341544f 
000056c1 522900 
000056c4 01             9844 	.byte	1
000056c5 3b             9845 	.byte	59
000056c6 44454d5f4953   9846 	.strz	"DEM_ISO14229BYTE_INITVALUE ( (DEM_ISO14229_BM_TESTNOTCOMPLETE_TOC)|(DEM_ISO14229_BM_TESTNOTCOMPLETE_SLC) )"
000056cc 4f3134323239 
000056d2 425954455f49 
000056d8 4e495456414c 
000056de 554520282028 
000056e4 44454d5f4953 
000056ea 4f3134323239 
000056f0 5f424d5f5445 
000056f6 53544e4f5443 
000056fc 4f4d504c4554 
00005702 455f544f4329 
00005708 7c2844454d5f 
0000570e 49534f313432 
00005714 32395f424d5f 
0000571a 544553544e4f 
00005720 54434f4d504c 
00005726 4554455f534c 
0000572c 4329202900 
00005731 04             9847 	.byte	4
00005732 03             9848 	.byte	3
00005733 07             9849 	.byte	7
00005734 34             9850 	.byte	52
00005735 01             9851 	.byte	1
00005736 09             9852 	.byte	9
00005737 44454d5f4152   9853 	.strz	"DEM_ARRAY_DECLARE(TYPE,NAME,SIZE) extern TYPE NAME[SIZE]"
0000573d 5241595f4445 
00005743 434c41524528 
00005749 545950452c4e 
0000574f 414d452c5349 
00005755 5a4529206578 
0000575b 7465726e2054 
00005761 595045204e41 
00005767 4d455b53495a 
0000576d 455d00 
00005770 01             9854 	.byte	1
00005771 0a             9855 	.byte	10
00005772 44454d5f4152   9856 	.strz	"DEM_ARRAY_DECLARE_CONST(TYPE,NAME,SIZE) extern const TYPE NAME[SIZE]"
00005778 5241595f4445 
0000577e 434c4152455f 
00005784 434f4e535428 
0000578a 545950452c4e 
00005790 414d452c5349 
00005796 5a4529206578 
0000579c 7465726e2063 
000057a2 6f6e73742054 
000057a8 595045204e41 
000057ae 4d455b53495a 
000057b4 455d00 
000057b7 01             9857 	.byte	1
000057b8 0d             9858 	.byte	13
000057b9 44454d5f4152   9859 	.strz	"DEM_ARRAY_FUNCPARAM(TYPE,NAME) TYPE NAME[]"
000057bf 5241595f4655 
000057c5 4e4350415241 
000057cb 4d2854595045 
000057d1 2c4e414d4529 

                                                                      Page 241
                                                              C:\Users\nhuliyap\AppData\Local\Temp\gh_0000d8g1.s
000057d7 205459504520 
000057dd 4e414d455b5d 
000057e3 00 
000057e4 01             9860 	.byte	1
000057e5 0e             9861 	.byte	14
000057e6 44454d5f4152   9862 	.strz	"DEM_ARRAY_CONSTFUNCPARAM(TYPE,NAME) const TYPE NAME[]"
000057ec 5241595f434f 
000057f2 4e535446554e 
000057f8 43504152414d 
000057fe 28545950452c 
00005804 4e414d452920 
0000580a 636f6e737420 
00005810 54595045204e 
00005816 414d455b5d00 
0000581c 01             9863 	.byte	1
0000581d 0f             9864 	.byte	15
0000581e 44454d5f5349   9865 	.strz	"DEM_SIZEOF_VAR(x) sizeof(x)"
00005824 5a454f465f56 
0000582a 415228782920 
00005830 73697a656f66 
00005836 28782900 
0000583a 01             9866 	.byte	1
0000583b 10             9867 	.byte	16
0000583c 44454d5f5349   9868 	.strz	"DEM_SIZEOF_TYPE(x) sizeof(x)"
00005842 5a454f465f54 
00005848 595045287829 
0000584e 2073697a656f 
00005854 6628782900 
00005859 04             9869 	.byte	4
0000585a 03             9870 	.byte	3
0000585b 08             9871 	.byte	8
0000585c 35             9872 	.byte	53
0000585d 03             9873 	.byte	3
0000585e 06             9874 	.byte	6
0000585f 36             9875 	.byte	54
00005860 01             9876 	.byte	1
00005861 07             9877 	.byte	7
00005862 44454d5f4556   9878 	.strz	"DEM_EVENTID_COUNT 41u"
00005868 454e5449445f 
0000586e 434f554e5420 
00005874 34317500 
00005878 01             9879 	.byte	1
00005879 08             9880 	.byte	8
0000587a 44454d5f4556   9881 	.strz	"DEM_EVENTID_ARRAYLENGTH (DEM_EVENTID_COUNT+1u)"
00005880 454e5449445f 
00005886 41525241594c 
0000588c 454e47544820 
00005892 2844454d5f45 
00005898 56454e544944 
0000589e 5f434f554e54 
000058a4 2b31752900 
000058a9 04             9882 	.byte	4
000058aa 01             9883 	.byte	1
000058ab 18             9884 	.byte	24
000058ac 44454d5f4346   9885 	.strz	"DEM_CFG_ALLOW_HISTORY_ON STD_ON"
000058b2 475f414c4c4f 
000058b8 575f48495354 
000058be 4f52595f4f4e 
000058c4 205354445f4f 
000058ca 4e00 
000058cc 01             9886 	.byte	1

                                                                      Page 242
                                                              C:\Users\nhuliyap\AppData\Local\Temp\gh_0000d8g1.s
000058cd 19             9887 	.byte	25
000058ce 44454d5f4346   9888 	.strz	"DEM_CFG_ALLOW_HISTORY_OFF STD_OFF"
000058d4 475f414c4c4f 
000058da 575f48495354 
000058e0 4f52595f4f46 
000058e6 46205354445f 
000058ec 4f464600 
000058f0 01             9889 	.byte	1
000058f1 1a             9890 	.byte	26
000058f2 44454d5f4346   9891 	.strz	"DEM_CFG_ALLOW_HISTORY DEM_CFG_ALLOW_HISTORY_OFF"
000058f8 475f414c4c4f 
000058fe 575f48495354 
00005904 4f5259204445 
0000590a 4d5f4346475f 
00005910 414c4c4f575f 
00005916 484953544f52 
0000591c 595f4f464600 
00005922 01             9892 	.byte	1
00005923 1c             9893 	.byte	28
00005924 44454d5f4346   9894 	.strz	"DEM_CFG_LOCK_ALLFAILUREINFO_ON STD_ON"
0000592a 475f4c4f434b 
00005930 5f414c4c4641 
00005936 494c55524549 
0000593c 4e464f5f4f4e 
00005942 205354445f4f 
00005948 4e00 
0000594a 01             9895 	.byte	1
0000594b 1d             9896 	.byte	29
0000594c 44454d5f4346   9897 	.strz	"DEM_CFG_LOCK_ALLFAILUREINFO_OFF STD_OFF"
00005952 475f4c4f434b 
00005958 5f414c4c4641 
0000595e 494c55524549 
00005964 4e464f5f4f46 
0000596a 46205354445f 
00005970 4f464600 
00005974 01             9898 	.byte	1
00005975 1e             9899 	.byte	30
00005976 44454d5f4346   9900 	.strz	"DEM_CFG_LOCK_ALLFAILUREINFO DEM_CFG_LOCK_ALLFAILUREINFO_OFF"
0000597c 475f4c4f434b 
00005982 5f414c4c4641 
00005988 494c55524549 
0000598e 4e464f204445 
00005994 4d5f4346475f 
0000599a 4c4f434b5f41 
000059a0 4c4c4641494c 
000059a6 555245494e46 
000059ac 4f5f4f464600 
000059b2 01             9901 	.byte	1
000059b3 20             9902 	.byte	32
000059b4 44454d5f4346   9903 	.strz	"DEM_CFG_SUPPORTEVENTMEMORYENTRY_ONFDCTHRESHOLD_ON STD_ON"
000059ba 475f53555050 
000059c0 4f5254455645 
000059c6 4e544d454d4f 
000059cc 5259454e5452 
000059d2 595f4f4e4644 
000059d8 435448524553 
000059de 484f4c445f4f 
000059e4 4e205354445f 
000059ea 4f4e00 
000059ed 01             9904 	.byte	1
000059ee 21             9905 	.byte	33

                                                                      Page 243
                                                              C:\Users\nhuliyap\AppData\Local\Temp\gh_0000d8g1.s
000059ef 44454d5f4346   9906 	.strz	"DEM_CFG_SUPPORTEVENTMEMORYENTRY_ONFDCTHRESHOLD_OFF STD_OFF"
000059f5 475f53555050 
000059fb 4f5254455645 
00005a01 4e544d454d4f 
00005a07 5259454e5452 
00005a0d 595f4f4e4644 
00005a13 435448524553 
00005a19 484f4c445f4f 
00005a1f 464620535444 
00005a25 5f4f464600 
00005a2a 01             9907 	.byte	1
00005a2b 22             9908 	.byte	34
00005a2c 44454d5f4346   9909 	.strz	"DEM_CFG_SUPPORTEVENTMEMORYENTRY_ONFDCTHRESHOLD DEM_CFG_SUPPORTEVENTMEMORYENTRY_ONFDCTHRESHOLD_OFF"
00005a32 475f53555050 
00005a38 4f5254455645 
00005a3e 4e544d454d4f 
00005a44 5259454e5452 
00005a4a 595f4f4e4644 
00005a50 435448524553 
00005a56 484f4c442044 
00005a5c 454d5f434647 
00005a62 5f535550504f 
00005a68 52544556454e 
00005a6e 544d454d4f52 
00005a74 59454e545259 
00005a7a 5f4f4e464443 
00005a80 544852455348 
00005a86 4f4c445f4f46 
00005a8c 4600 
00005a8e 01             9910 	.byte	1
00005a8f 24             9911 	.byte	36
00005a90 44454d5f4346   9912 	.strz	"DEM_CFG_SUPPORT_EVENT_FDCTHRESHOLDREACHED FALSE"
00005a96 475f53555050 
00005a9c 4f52545f4556 
00005aa2 454e545f4644 
00005aa8 435448524553 
00005aae 484f4c445245 
00005ab4 414348454420 
00005aba 46414c534500 
00005ac0 01             9913 	.byte	1
00005ac1 33             9914 	.byte	51
00005ac2 44454d5f4346   9915 	.strz	"DEM_CFG_CUSTOMIZABLEDTCSTATUSBYTE FALSE"
00005ac8 475f43555354 
00005ace 4f4d495a4142 
00005ad4 4c4544544353 
00005ada 544154555342 
00005ae0 595445204641 
00005ae6 4c534500 
00005aea 01             9916 	.byte	1
00005aeb 34             9917 	.byte	52
00005aec 44454d5f4346   9918 	.strz	"DEM_CFG_CLEARDTCCLEARSALLBITS TRUE"
00005af2 475f434c4541 
00005af8 52445443434c 
00005afe 45415253414c 
00005b04 4c4249545320 
00005b0a 5452554500 
00005b0f 01             9919 	.byte	1
00005b10 35             9920 	.byte	53
00005b11 44454d5f4346   9921 	.strz	"DEM_CFG_DTCSETTINGBLOCKSREPORTING TRUE"
00005b17 475f44544353 
00005b1d 455454494e47 

                                                                      Page 244
                                                              C:\Users\nhuliyap\AppData\Local\Temp\gh_0000d8g1.s
00005b23 424c4f434b53 
00005b29 5245504f5254 
00005b2f 494e47205452 
00005b35 554500 
00005b38 01             9922 	.byte	1
00005b39 36             9923 	.byte	54
00005b3a 44454d5f4346   9924 	.strz	"DEM_CFG_PRJSPECIFICEVENTSTATUSHANDLING FALSE"
00005b40 475f50524a53 
00005b46 504543494649 
00005b4c 434556454e54 
00005b52 535441545553 
00005b58 48414e444c49 
00005b5e 4e472046414c 
00005b64 534500 
00005b67 01             9925 	.byte	1
00005b68 3d             9926 	.byte	61
00005b69 44454d5f4346   9927 	.strz	"DEM_CFG_EVT_CLEARALLOWEDCALLBACK_OFF STD_OFF"
00005b6f 475f4556545f 
00005b75 434c45415241 
00005b7b 4c4c4f574544 
00005b81 43414c4c4241 
00005b87 434b5f4f4646 
00005b8d 205354445f4f 
00005b93 464600 
00005b96 01             9928 	.byte	1
00005b97 3f             9929 	.byte	63
00005b98 44454d5f4346   9930 	.strz	"DEM_CFG_EVT_CLEARALLOWEDCALLBACK DEM_CFG_EVT_CLEARALLOWEDCALLBACK_OFF"
00005b9e 475f4556545f 
00005ba4 434c45415241 
00005baa 4c4c4f574544 
00005bb0 43414c4c4241 
00005bb6 434b2044454d 
00005bbc 5f4346475f45 
00005bc2 56545f434c45 
00005bc8 4152414c4c4f 
00005bce 57454443414c 
00005bd4 4c4241434b5f 
00005bda 4f464600 
00005bde 01             9931 	.byte	1
00005bdf 4e             9932 	.byte	78
00005be0 44454d5f4346   9933 	.strz	"DEM_CFG_EVT_STATUS_CHANGE_NUM_CALLBACKS 0u"
00005be6 475f4556545f 
00005bec 535441545553 
00005bf2 5f4348414e47 
00005bf8 455f4e554d5f 
00005bfe 43414c4c4241 
00005c04 434b53203075 
00005c0a 00 
00005c0b 01             9934 	.byte	1
00005c0c 50             9935 	.byte	80
00005c0d 44454d5f4346   9936 	.strz	"DEM_CFG_TFSLC_RESET_AFTER_AGING_AND_DISPLACEMENT FALSE"
00005c13 475f5446534c 
00005c19 435f52455345 
00005c1f 545f41465445 
00005c25 525f4147494e 
00005c2b 475f414e445f 
00005c31 444953504c41 
00005c37 43454d454e54 
00005c3d 2046414c5345 
00005c43 00 
00005c44 01             9937 	.byte	1

                                                                      Page 245
                                                              C:\Users\nhuliyap\AppData\Local\Temp\gh_0000d8g1.s
00005c45 52             9938 	.byte	82
00005c46 44454d5f4346   9939 	.strz	"DEM_CFG_EVT_ATTRIBUTE_OFF STD_OFF"
00005c4c 475f4556545f 
00005c52 415454524942 
00005c58 5554455f4f46 
00005c5e 46205354445f 
00005c64 4f464600 
00005c68 01             9940 	.byte	1
00005c69 53             9941 	.byte	83
00005c6a 44454d5f4346   9942 	.strz	"DEM_CFG_EVT_ATTRIBUTE_ON STD_ON"
00005c70 475f4556545f 
00005c76 415454524942 
00005c7c 5554455f4f4e 
00005c82 205354445f4f 
00005c88 4e00 
00005c8a 01             9943 	.byte	1
00005c8b 54             9944 	.byte	84
00005c8c 44454d5f4346   9945 	.strz	"DEM_CFG_EVT_ATTRIBUTE DEM_CFG_EVT_ATTRIBUTE_OFF"
00005c92 475f4556545f 
00005c98 415454524942 
00005c9e 555445204445 
00005ca4 4d5f4346475f 
00005caa 4556545f4154 
00005cb0 545249425554 
00005cb6 455f4f464600 
00005cbc 01             9946 	.byte	1
00005cbd 56             9947 	.byte	86
00005cbe 44454d5f4556   9948 	.strz	"DEM_EVT_BP_STATE_CAUSALFAULT 0u"
00005cc4 545f42505f53 
00005cca 544154455f43 
00005cd0 415553414c46 
00005cd6 41554c542030 
00005cdc 7500 
00005cde 01             9949 	.byte	1
00005cdf 58             9950 	.byte	88
00005ce0 44454d5f4556   9951 	.strz	"DEM_EVT_BP_STATE_SUSPICIONLEVEL 1u"
00005ce6 545f42505f53 
00005cec 544154455f53 
00005cf2 555350494349 
00005cf8 4f4e4c455645 
00005cfe 4c20317500 
00005d03 01             9952 	.byte	1
00005d04 59             9953 	.byte	89
00005d05 44454d5f4556   9954 	.strz	"DEM_EVT_BP_STATE_NOTAVAILABLE 2u"
00005d0b 545f42505f53 
00005d11 544154455f4e 
00005d17 4f5441564149 
00005d1d 4c41424c4520 
00005d23 327500 
00005d26 01             9955 	.byte	1
00005d27 5a             9956 	.byte	90
00005d28 44454d5f4556   9957 	.strz	"DEM_EVT_BP_STATE_INITMONITORING 3u"
00005d2e 545f42505f53 
00005d34 544154455f49 
00005d3a 4e49544d4f4e 
00005d40 49544f52494e 
00005d46 4720337500 
00005d4b 01             9958 	.byte	1
00005d4c 5c             9959 	.byte	92
00005d4d 44454d5f4556   9960 	.strz	"DEM_EVT_BP_STATE_INITMONITORING_SIZE 3u"
00005d53 545f42505f53 

                                                                      Page 246
                                                              C:\Users\nhuliyap\AppData\Local\Temp\gh_0000d8g1.s
00005d59 544154455f49 
00005d5f 4e49544d4f4e 
00005d65 49544f52494e 
00005d6b 475f53495a45 
00005d71 20337500 
00005d75 01             9961 	.byte	1
00005d76 5d             9962 	.byte	93
00005d77 44454d5f4556   9963 	.strz	"DEM_EVT_BP_STATE_WIRSTATUS_EXTERNAL 6u"
00005d7d 545f42505f53 
00005d83 544154455f57 
00005d89 495253544154 
00005d8f 55535f455854 
00005d95 45524e414c20 
00005d9b 367500 
00005d9e 01             9964 	.byte	1
00005d9f 5f             9965 	.byte	95
00005da0 44454d5f4556   9966 	.strz	"DEM_EVT_BP_STATE_NXT_REPORT_IS_RELEVANT 7u"
00005da6 545f42505f53 
00005dac 544154455f4e 
00005db2 58545f524550 
00005db8 4f52545f4953 
00005dbe 5f52454c4556 
00005dc4 414e54203775 
00005dca 00 
00005dcb 01             9967 	.byte	1
00005dcc 62             9968 	.byte	98
00005dcd 44454d5f4556   9969 	.strz	"DEM_EVTSTATE_ISBITSET rba_DiagLib_Bit8IsBitSet"
00005dd3 545354415445 
00005dd9 5f4953424954 
00005ddf 534554207262 
00005de5 615f44696167 
00005deb 4c69625f4269 
00005df1 743849734269 
00005df7 7453657400 
00005dfc 01             9970 	.byte	1
00005dfd 63             9971 	.byte	99
00005dfe 44454d5f4556   9972 	.strz	"DEM_EVTSTATE_OVERWRITEBIT rba_DiagLib_Bit8OverwriteBit"
00005e04 545354415445 
00005e0a 5f4f56455257 
00005e10 524954454249 
00005e16 54207262615f 
00005e1c 446961674c69 
00005e22 625f42697438 
00005e28 4f7665727772 
00005e2e 697465426974 
00005e34 00 
00005e35 01             9973 	.byte	1
00005e36 64             9974 	.byte	100
00005e37 44454d5f4556   9975 	.strz	"DEM_EVTSTATE_OVERWRITEBITS rba_DiagLib_Bit8OverwriteBits"
00005e3d 545354415445 
00005e43 5f4f56455257 
00005e49 524954454249 
00005e4f 545320726261 
00005e55 5f446961674c 
00005e5b 69625f426974 
00005e61 384f76657277 
00005e67 726974654269 
00005e6d 747300 
00005e70 01             9976 	.byte	1
00005e71 67             9977 	.byte	103
00005e72 44454d5f4556   9978 	.strz	"DEM_EVTSTATE_GETBITS rba_DiagLib_Bit8GetBits"

                                                                      Page 247
                                                              C:\Users\nhuliyap\AppData\Local\Temp\gh_0000d8g1.s
00005e78 545354415445 
00005e7e 5f4745544249 
00005e84 545320726261 
00005e8a 5f446961674c 
00005e90 69625f426974 
00005e96 384765744269 
00005e9c 747300 
00005e9f 01             9979 	.byte	1
00005ea0 68             9980 	.byte	104
00005ea1 44454d5f4556   9981 	.strz	"DEM_EVTSTATE_CLEARBITS rba_DiagLib_Bit8ClearBits"
00005ea7 545354415445 
00005ead 5f434c454152 
00005eb3 424954532072 
00005eb9 62615f446961 
00005ebf 674c69625f42 
00005ec5 697438436c65 
00005ecb 617242697473 
00005ed1 00 
00005ed2 01             9982 	.byte	1
00005ed3 6c             9983 	.byte	108
00005ed4 44454d5f4346   9984 	.strz	"DEM_CFG_CALLBACK_INIT_MON_FOR_EVENT_SUPPORTED TRUE"
00005eda 475f43414c4c 
00005ee0 4241434b5f49 
00005ee6 4e49545f4d4f 
00005eec 4e5f464f525f 
00005ef2 4556454e545f 
00005ef8 535550504f52 
00005efe 544544205452 
00005f04 554500 
00005f07 01             9985 	.byte	1
00005f08 6e             9986 	.byte	110
00005f09 44454d5f4346   9987 	.strz	"DEM_CFG_CALLBACK_INITMFORE_LISTLENGTH 40u"
00005f0f 475f43414c4c 
00005f15 4241434b5f49 
00005f1b 4e49544d464f 
00005f21 52455f4c4953 
00005f27 544c454e4754 
00005f2d 482034307500 
00005f33 04             9988 	.byte	4
00005f34 03             9989 	.byte	3
00005f35 0a             9990 	.byte	10
00005f36 37             9991 	.byte	55
00005f37 03             9992 	.byte	3
00005f38 07             9993 	.byte	7
00005f39 38             9994 	.byte	56
00005f3a 04             9995 	.byte	4
00005f3b 03             9996 	.byte	3
00005f3c 08             9997 	.byte	8
00005f3d 39             9998 	.byte	57
00005f3e 01             9999 	.byte	1
00005f3f 04            10000 	.byte	4
00005f40 5242415f4449  10001 	.strz	"RBA_DIAGLIB_ISBITSET32 rba_DiagLib_Bit32IsBitSet"
00005f46 41474c49425f 
00005f4c 495342495453 
00005f52 455433322072 
00005f58 62615f446961 
00005f5e 674c69625f42 
00005f64 697433324973 
00005f6a 426974536574 
00005f70 00 
00005f71 01            10002 	.byte	1

                                                                      Page 248
                                                              C:\Users\nhuliyap\AppData\Local\Temp\gh_0000d8g1.s
00005f72 05            10003 	.byte	5
00005f73 5242415f4449  10004 	.strz	"RBA_DIAGLIB_GETSINGLEBIT32 rba_DiagLib_Bit32GetSingleBit"
00005f79 41474c49425f 
00005f7f 47455453494e 
00005f85 474c45424954 
00005f8b 333220726261 
00005f91 5f446961674c 
00005f97 69625f426974 
00005f9d 333247657453 
00005fa3 696e676c6542 
00005fa9 697400 
00005fac 01            10005 	.byte	1
00005fad 06            10006 	.byte	6
00005fae 5242415f4449  10007 	.strz	"RBA_DIAGLIB_GETBITS32 rba_DiagLib_Bit32GetBits"
00005fb4 41474c49425f 
00005fba 474554424954 
00005fc0 533332207262 
00005fc6 615f44696167 
00005fcc 4c69625f4269 
00005fd2 743332476574 
00005fd8 4269747300 
00005fdd 04            10008 	.byte	4
00005fde 01            10009 	.byte	1
00005fdf 10            10010 	.byte	16
00005fe0 44454d5f4f50  10011 	.strz	"DEM_OPERATIONCYCLE_COUNT 3"
00005fe6 45524154494f 
00005fec 4e4359434c45 
00005ff2 5f434f554e54 
00005ff8 203300 
00005ffb 01            10012 	.byte	1
00005ffc 16            10013 	.byte	22
00005ffd 44454d5f4f50  10014 	.strz	"DEM_OPERATIONCYCLE_ISBITSET rba_DiagLib_Bit8IsBitSet"
00006003 45524154494f 
00006009 4e4359434c45 
0000600f 5f4953424954 
00006015 534554207262 
0000601b 615f44696167 
00006021 4c69625f4269 
00006027 743849734269 
0000602d 7453657400 
00006032 04            10015 	.byte	4
00006033 03            10016 	.byte	3
00006034 0b            10017 	.byte	11
00006035 3a            10018 	.byte	58
00006036 03            10019 	.byte	3
00006037 07            10020 	.byte	7
00006038 3b            10021 	.byte	59
00006039 01            10022 	.byte	1
0000603a 08            10023 	.byte	8
0000603b 44454d5f4346  10024 	.strz	"DEM_CFG_EVCOMB_DISABLED 1u"
00006041 475f4556434f 
00006047 4d425f444953 
0000604d 41424c454420 
00006053 317500 
00006056 01            10025 	.byte	1
00006057 0b            10026 	.byte	11
00006058 44454d5f4346  10027 	.strz	"DEM_CFG_EVCOMB DEM_CFG_EVCOMB_DISABLED"
0000605e 475f4556434f 
00006064 4d422044454d 
0000606a 5f4346475f45 
00006070 56434f4d425f 

                                                                      Page 249
                                                              C:\Users\nhuliyap\AppData\Local\Temp\gh_0000d8g1.s
00006076 44495341424c 
0000607c 454400 
0000607f 01            10028 	.byte	1
00006080 0d            10029 	.byte	13
00006081 44454d5f4454  10030 	.strz	"DEM_DTCID_INVALID 0u"
00006087 4349445f494e 
0000608d 56414c494420 
00006093 307500 
00006096 01            10031 	.byte	1
00006097 0e            10032 	.byte	14
00006098 44454d5f4454  10033 	.strz	"DEM_DTCID_COUNT 41u"
0000609e 4349445f434f 
000060a4 554e54203431 
000060aa 7500 
000060ac 01            10034 	.byte	1
000060ad 0f            10035 	.byte	15
000060ae 44454d5f4454  10036 	.strz	"DEM_DTCID_ARRAYLENGTH (DEM_DTCID_COUNT+1u)"
000060b4 4349445f4152 
000060ba 5241594c454e 
000060c0 475448202844 
000060c6 454d5f445443 
000060cc 49445f434f55 
000060d2 4e542b317529 
000060d8 00 
000060d9 01            10037 	.byte	1
000060da 3c            10038 	.byte	60
000060db 44454d5f4454  10039 	.strz	"DEM_DTCGROUPID_COUNT 1u"
000060e1 4347524f5550 
000060e7 49445f434f55 
000060ed 4e5420317500 
000060f3 01            10040 	.byte	1
000060f4 3d            10041 	.byte	61
000060f5 44454d5f4454  10042 	.strz	"DEM_DTCGROUPID_ARRAYLENGTH (DEM_DTCGROUPID_COUNT+1u)"
000060fb 4347524f5550 
00006101 49445f415252 
00006107 41594c454e47 
0000610d 544820284445 
00006113 4d5f44544347 
00006119 524f55504944 
0000611f 5f434f554e54 
00006125 2b31752900 
0000612a 04            10043 	.byte	4
0000612b 01            10044 	.byte	1
0000612c 15            10045 	.byte	21
0000612d 44454d5f4346  10046 	.strz	"DEM_CFG_EVMEM_STORAGE_TESTFAILED_SUPPORTED TRUE"
00006133 475f45564d45 
00006139 4d5f53544f52 
0000613f 4147455f5445 
00006145 53544641494c 
0000614b 45445f535550 
00006151 504f52544544 
00006157 205452554500 
0000615d 01            10047 	.byte	1
0000615e 1d            10048 	.byte	29
0000615f 44454d5f4346  10049 	.strz	"DEM_CFG_EVMEM_EXTENDED_DATA_SUPPORTED FALSE"
00006165 475f45564d45 
0000616b 4d5f45585445 
00006171 4e4445445f44 
00006177 4154415f5355 
0000617d 50504f525445 
00006183 442046414c53 

                                                                      Page 250
                                                              C:\Users\nhuliyap\AppData\Local\Temp\gh_0000d8g1.s
00006189 4500 
0000618b 01            10050 	.byte	1
0000618c 22            10051 	.byte	34
0000618d 44454d5f4346  10052 	.strz	"DEM_CFG_EVMEM_FREEZE_FRAME_SUPPORTED TRUE"
00006193 475f45564d45 
00006199 4d5f46524545 
0000619f 5a455f465241 
000061a5 4d455f535550 
000061ab 504f52544544 
000061b1 205452554500 
000061b7 01            10053 	.byte	1
000061b8 2c            10054 	.byte	44
000061b9 44454d5f4346  10055 	.strz	"DEM_CFG_MAX_NUMBER_EVENT_ENTRY_SECONDARY 0u"
000061bf 475f4d41585f 
000061c5 4e554d424552 
000061cb 5f4556454e54 
000061d1 5f454e545259 
000061d7 5f5345434f4e 
000061dd 444152592030 
000061e3 7500 
000061e5 01            10056 	.byte	1
000061e6 30            10057 	.byte	48
000061e7 44454d5f4346  10058 	.strz	"DEM_CFG_MAX_NUMBER_EVENT_ENTRY_MIRROR 0u"
000061ed 475f4d41585f 
000061f3 4e554d424552 
000061f9 5f4556454e54 
000061ff 5f454e545259 
00006205 5f4d4952524f 
0000620b 5220307500 
00006210 01            10059 	.byte	1
00006211 36            10060 	.byte	54
00006212 44454d5f4346  10061 	.strz	"DEM_CFG_EVMEM_MIRROR_MEMORY_DTC_STATUS_STORED FALSE"
00006218 475f45564d45 
0000621e 4d5f4d495252 
00006224 4f525f4d454d 
0000622a 4f52595f4454 
00006230 435f53544154 
00006236 55535f53544f 
0000623c 524544204641 
00006242 4c534500 
00006246 01            10062 	.byte	1
00006247 38            10063 	.byte	56
00006248 44454d5f4346  10064 	.strz	"DEM_CFG_EVMEM_SHADOW_MEMORY_SUPPORTED FALSE"
0000624e 475f45564d45 
00006254 4d5f53484144 
0000625a 4f575f4d454d 
00006260 4f52595f5355 
00006266 50504f525445 
0000626c 442046414c53 
00006272 4500 
00006274 01            10065 	.byte	1
00006275 3b            10066 	.byte	59
00006276 44454d5f4346  10067 	.strz	"DEM_CFG_EVMEM_SHADOW_ENTRIES_VISIBLE FALSE"
0000627c 475f45564d45 
00006282 4d5f53484144 
00006288 4f575f454e54 
0000628e 524945535f56 
00006294 495349424c45 
0000629a 2046414c5345 
000062a0 00 
000062a1 01            10068 	.byte	1

                                                                      Page 251
                                                              C:\Users\nhuliyap\AppData\Local\Temp\gh_0000d8g1.s
000062a2 4b            10069 	.byte	75
000062a3 44454d5f4346  10070 	.strz	"DEM_CFG_EVMEM_AGING_COUNTER_SUPPORTED TRUE"
000062a9 475f45564d45 
000062af 4d5f4147494e 
000062b5 475f434f554e 
000062bb 5445525f5355 
000062c1 50504f525445 
000062c7 442054525545 
000062cd 00 
000062ce 01            10071 	.byte	1
000062cf 52            10072 	.byte	82
000062d0 44454d5f4346  10073 	.strz	"DEM_CFG_EVMEM_AGING_COUNTER_MAX 0xFF"
000062d6 475f45564d45 
000062dc 4d5f4147494e 
000062e2 475f434f554e 
000062e8 5445525f4d41 
000062ee 582030784646 
000062f4 00 
000062f5 01            10074 	.byte	1
000062f6 54            10075 	.byte	84
000062f7 44454d5f4346  10076 	.strz	"DEM_CFG_EVMEM_OCCURRENCE_COUNTER_SUPPORTED TRUE"
000062fd 475f45564d45 
00006303 4d5f4f434355 
00006309 5252454e4345 
0000630f 5f434f554e54 
00006315 45525f535550 
0000631b 504f52544544 
00006321 205452554500 
00006327 01            10077 	.byte	1
00006328 5a            10078 	.byte	90
00006329 44454d5f4346  10079 	.strz	"DEM_CFG_EVMEM_RESET_CONFIRMED_BIT_ON_OVERFLOW FALSE"
0000632f 475f45564d45 
00006335 4d5f52455345 
0000633b 545f434f4e46 
00006341 49524d45445f 
00006347 4249545f4f4e 
0000634d 5f4f56455246 
00006353 4c4f57204641 
00006359 4c534500 
0000635d 01            10080 	.byte	1
0000635e 5c            10081 	.byte	92
0000635f 44454d5f4346  10082 	.strz	"DEM_CFG_EVMEM_PROJECT_EXTENSION FALSE"
00006365 475f45564d45 
0000636b 4d5f50524f4a 
00006371 4543545f4558 
00006377 54454e53494f 
0000637d 4e2046414c53 
00006383 4500 
00006385 01            10083 	.byte	1
00006386 5e            10084 	.byte	94
00006387 44454d5f4346  10085 	.strz	"DEM_CFG_EVMEM_READ_FROM_DIFFERENT_TASK FALSE"
0000638d 475f45564d45 
00006393 4d5f52454144 
00006399 5f46524f4d5f 
0000639f 444946464552 
000063a5 454e545f5441 
000063ab 534b2046414c 
000063b1 534500 
000063b4 01            10086 	.byte	1
000063b5 63            10087 	.byte	99
000063b6 44454d5f4346  10088 	.strz	"DEM_CFG_EVMEM_DEBUG_BITFIELDS FALSE"

                                                                      Page 252
                                                              C:\Users\nhuliyap\AppData\Local\Temp\gh_0000d8g1.s
000063bc 475f45564d45 
000063c2 4d5f44454255 
000063c8 475f42495446 
000063ce 49454c445320 
000063d4 46414c534500 
000063da 01            10089 	.byte	1
000063db 70            10090 	.byte	112
000063dc 44454d5f4346  10091 	.strz	"DEM_CFG_EVMEM_OCCURRENCE_COUNTER_MAX 0xFFu"
000063e2 475f45564d45 
000063e8 4d5f4f434355 
000063ee 5252454e4345 
000063f4 5f434f554e54 
000063fa 45525f4d4158 
00006400 203078464675 
00006406 00 
00006407 01            10092 	.byte	1
00006408 9801          10093 	.byte	152,1
0000640a 44454d5f4346  10094 	.strz	"DEM_CFG_EVMEM_MIRROR_MEMORY_SUPPORTED FALSE"
00006410 475f45564d45 
00006416 4d5f4d495252 
0000641c 4f525f4d454d 
00006422 4f52595f5355 
00006428 50504f525445 
0000642e 442046414c53 
00006434 4500 
00006436 04            10095 	.byte	4
00006437 03            10096 	.byte	3
00006438 0c            10097 	.byte	12
00006439 3c            10098 	.byte	60
0000643a 04            10099 	.byte	4
0000643b 03            10100 	.byte	3
0000643c 0d            10101 	.byte	13
0000643d 3d            10102 	.byte	61
0000643e 03            10103 	.byte	3
0000643f 06            10104 	.byte	6
00006440 3e            10105 	.byte	62
00006441 03            10106 	.byte	3
00006442 0b            10107 	.byte	11
00006443 3f            10108 	.byte	63
00006444 04            10109 	.byte	4
00006445 03            10110 	.byte	3
00006446 0c            10111 	.byte	12
00006447 40            10112 	.byte	64
00006448 01            10113 	.byte	1
00006449 04            10114 	.byte	4
0000644a 44454d5f4346  10115 	.strz	"DEM_CFG_ENABLECONDITION_ON STD_ON"
00006450 475f454e4142 
00006456 4c45434f4e44 
0000645c 4954494f4e5f 
00006462 4f4e20535444 
00006468 5f4f4e00 
0000646c 01            10116 	.byte	1
0000646d 05            10117 	.byte	5
0000646e 44454d5f4346  10118 	.strz	"DEM_CFG_ENABLECONDITION_OFF STD_OFF"
00006474 475f454e4142 
0000647a 4c45434f4e44 
00006480 4954494f4e5f 
00006486 4f4646205354 
0000648c 445f4f464600 
00006492 01            10119 	.byte	1
00006493 06            10120 	.byte	6

                                                                      Page 253
                                                              C:\Users\nhuliyap\AppData\Local\Temp\gh_0000d8g1.s
00006494 44454d5f4346  10121 	.strz	"DEM_CFG_ENABLECONDITION DEM_CFG_ENABLECONDITION_OFF"
0000649a 475f454e4142 
000064a0 4c45434f4e44 
000064a6 4954494f4e20 
000064ac 44454d5f4346 
000064b2 475f454e4142 
000064b8 4c45434f4e44 
000064be 4954494f4e5f 
000064c4 4f464600 
000064c8 01            10122 	.byte	1
000064c9 07            10123 	.byte	7
000064ca 44454d5f454e  10124 	.strz	"DEM_ENABLECONDITION_COUNT 0u"
000064d0 41424c45434f 
000064d6 4e444954494f 
000064dc 4e5f434f554e 
000064e2 5420307500 
000064e7 01            10125 	.byte	1
000064e8 08            10126 	.byte	8
000064e9 44454d5f454e  10127 	.strz	"DEM_ENABLECONDITION_ARRAYLENGTH (DEM_ENABLECONDITION_COUNT)"
000064ef 41424c45434f 
000064f5 4e444954494f 
000064fb 4e5f41525241 
00006501 594c454e4754 
00006507 48202844454d 
0000650d 5f454e41424c 
00006513 45434f4e4449 
00006519 54494f4e5f43 
0000651f 4f554e542900 
00006525 04            10128 	.byte	4
00006526 03            10129 	.byte	3
00006527 0d            10130 	.byte	13
00006528 41            10131 	.byte	65
00006529 01            10132 	.byte	1
0000652a 04            10133 	.byte	4
0000652b 44454d5f4346  10134 	.strz	"DEM_CFG_EVTCATEGORY_OFF STD_OFF"
00006531 475f45565443 
00006537 415445474f52 
0000653d 595f4f464620 
00006543 5354445f4f46 
00006549 4600 
0000654b 01            10135 	.byte	1
0000654c 05            10136 	.byte	5
0000654d 44454d5f4346  10137 	.strz	"DEM_CFG_EVTCATEGORY_ON STD_ON"
00006553 475f45565443 
00006559 415445474f52 
0000655f 595f4f4e2053 
00006565 54445f4f4e00 
0000656b 01            10138 	.byte	1
0000656c 06            10139 	.byte	6
0000656d 44454d5f4346  10140 	.strz	"DEM_CFG_EVTCATEGORY DEM_CFG_EVTCATEGORY_OFF"
00006573 475f45565443 
00006579 415445474f52 
0000657f 592044454d5f 
00006585 4346475f4556 
0000658b 544341544547 
00006591 4f52595f4f46 
00006597 4600 
00006599 04            10141 	.byte	4
0000659a 03            10142 	.byte	3
0000659b 0e            10143 	.byte	14
0000659c 42            10144 	.byte	66

                                                                      Page 254
                                                              C:\Users\nhuliyap\AppData\Local\Temp\gh_0000d8g1.s
0000659d 01            10145 	.byte	1
0000659e 06            10146 	.byte	6
0000659f 44454d5f4346  10147 	.strz	"DEM_CFG_EVT_INDICATOR_OFF 0u"
000065a5 475f4556545f 
000065ab 494e44494341 
000065b1 544f525f4f46 
000065b7 4620307500 
000065bc 01            10148 	.byte	1
000065bd 07            10149 	.byte	7
000065be 44454d5f4346  10150 	.strz	"DEM_CFG_EVT_INDICATOR_ON 1u"
000065c4 475f4556545f 
000065ca 494e44494341 
000065d0 544f525f4f4e 
000065d6 20317500 
000065da 01            10151 	.byte	1
000065db 08            10152 	.byte	8
000065dc 44454d5f4346  10153 	.strz	"DEM_CFG_EVT_INDICATOR_PROJECTSPECIFIC 2u"
000065e2 475f4556545f 
000065e8 494e44494341 
000065ee 544f525f5052 
000065f4 4f4a45435453 
000065fa 504543494649 
00006600 4320327500 
00006605 01            10154 	.byte	1
00006606 09            10155 	.byte	9
00006607 44454d5f4346  10156 	.strz	"DEM_CFG_EVT_INDICATOR DEM_CFG_EVT_INDICATOR_OFF"
0000660d 475f4556545f 
00006613 494e44494341 
00006619 544f52204445 
0000661f 4d5f4346475f 
00006625 4556545f494e 
0000662b 44494341544f 
00006631 525f4f464600 
00006637 04            10157 	.byte	4
00006638 03            10158 	.byte	3
00006639 10            10159 	.byte	16
0000663a 43            10160 	.byte	67
0000663b 01            10161 	.byte	1
0000663c 04            10162 	.byte	4
0000663d 44454d5f4346  10163 	.strz	"DEM_CFG_STORAGECONDITION_ON STD_ON"
00006643 475f53544f52 
00006649 414745434f4e 
0000664f 444954494f4e 
00006655 5f4f4e205354 
0000665b 445f4f4e00 
00006660 01            10164 	.byte	1
00006661 05            10165 	.byte	5
00006662 44454d5f4346  10166 	.strz	"DEM_CFG_STORAGECONDITION_OFF STD_OFF"
00006668 475f53544f52 
0000666e 414745434f4e 
00006674 444954494f4e 
0000667a 5f4f46462053 
00006680 54445f4f4646 
00006686 00 
00006687 01            10167 	.byte	1
00006688 06            10168 	.byte	6
00006689 44454d5f4346  10169 	.strz	"DEM_CFG_STORAGECONDITION DEM_CFG_STORAGECONDITION_OFF"
0000668f 475f53544f52 
00006695 414745434f4e 
0000669b 444954494f4e 
000066a1 2044454d5f43 

                                                                      Page 255
                                                              C:\Users\nhuliyap\AppData\Local\Temp\gh_0000d8g1.s
000066a7 46475f53544f 
000066ad 52414745434f 
000066b3 4e444954494f 
000066b9 4e5f4f464600 
000066bf 01            10170 	.byte	1
000066c0 07            10171 	.byte	7
000066c1 44454d5f5354  10172 	.strz	"DEM_STORAGECONDITION_COUNT 0u"
000066c7 4f5241474543 
000066cd 4f4e44495449 
000066d3 4f4e5f434f55 
000066d9 4e5420307500 
000066df 01            10173 	.byte	1
000066e0 08            10174 	.byte	8
000066e1 44454d5f5354  10175 	.strz	"DEM_STORAGECONDITION_ARRAYLENGTH (DEM_STORAGECONDITION_COUNT)"
000066e7 4f5241474543 
000066ed 4f4e44495449 
000066f3 4f4e5f415252 
000066f9 41594c454e47 
000066ff 544820284445 
00006705 4d5f53544f52 
0000670b 414745434f4e 
00006711 444954494f4e 
00006717 5f434f554e54 
0000671d 2900 
0000671f 04            10176 	.byte	4
00006720 03            10177 	.byte	3
00006721 11            10178 	.byte	17
00006722 44            10179 	.byte	68
00006723 01            10180 	.byte	1
00006724 08            10181 	.byte	8
00006725 44454d5f5354  10182 	.strz	"DEM_START_SEC_ROM_CODE "
0000672b 4152545f5345 
00006731 435f524f4d5f 
00006737 434f44452000 
0000673d 03            10183 	.byte	3
0000673e 09            10184 	.byte	9
0000673f 12            10185 	.byte	18
00006740 01            10186 	.byte	1
00006741 06            10187 	.byte	6
00006742 44454d5f4d45  10188 	.strz	"DEM_MEMMAP_ERROR "
00006748 4d4d41505f45 
0000674e 52524f522000 
00006754 01            10189 	.byte	1
00006755 51            10190 	.byte	81
00006756 4253575f5354  10191 	.strz	"BSW_START_SEC_CODE "
0000675c 4152545f5345 
00006762 435f434f4445 
00006768 2000 
0000676a 03            10192 	.byte	3
0000676b 52            10193 	.byte	82
0000676c 13            10194 	.byte	19
0000676d 01            10195 	.byte	1
0000676e da08          10196 	.byte	218,8
00006770 53544152545f  10197 	.strz	"START_SEC_CODE "
00006776 5345435f434f 
0000677c 44452000 
00006780 03            10198 	.byte	3
00006781 bb09          10199 	.byte	187,9
00006783 14            10200 	.byte	20
00006784 01            10201 	.byte	1
00006785 f307          10202 	.byte	243,7

                                                                      Page 256
                                                              C:\Users\nhuliyap\AppData\Local\Temp\gh_0000d8g1.s
00006787 434f44455f53  10203 	.strz	"CODE_SEC_OPEN "
0000678d 45435f4f5045 
00006793 4e2000 
00006796 04            10204 	.byte	4
00006797 04            10205 	.byte	4
00006798 01            10206 	.byte	1
00006799 56            10207 	.byte	86
0000679a 44454d5f5741  10208 	.strz	"DEM_WAS_STARTED_SEC_ROM_CODE "
000067a0 535f53544152 
000067a6 5445445f5345 
000067ac 435f524f4d5f 
000067b2 434f44452000 
000067b8 04            10209 	.byte	4
000067b9 01            10210 	.byte	1
000067ba 0f            10211 	.byte	15
000067bb 44454d5f5354  10212 	.strz	"DEM_STOP_SEC_ROM_CODE "
000067c1 4f505f534543 
000067c7 5f524f4d5f43 
000067cd 4f44452000 
000067d2 03            10213 	.byte	3
000067d3 10            10214 	.byte	16
000067d4 12            10215 	.byte	18
000067d5 01            10216 	.byte	1
000067d6 06            10217 	.byte	6
000067d7 44454d5f4d45  10218 	.strz	"DEM_MEMMAP_ERROR "
000067dd 4d4d41505f45 
000067e3 52524f522000 
000067e9 01            10219 	.byte	1
000067ea 5e            10220 	.byte	94
000067eb 4253575f5354  10221 	.strz	"BSW_STOP_SEC_CODE "
000067f1 4f505f534543 
000067f7 5f434f444520 
000067fd 00 
000067fe 03            10222 	.byte	3
000067ff 5f            10223 	.byte	95
00006800 13            10224 	.byte	19
00006801 01            10225 	.byte	1
00006802 de08          10226 	.byte	222,8
00006804 53544f505f53  10227 	.strz	"STOP_SEC_CODE "
0000680a 45435f434f44 
00006810 452000 
00006813 03            10228 	.byte	3
00006814 bb09          10229 	.byte	187,9
00006816 14            10230 	.byte	20
00006817 04            10231 	.byte	4
00006818 04            10232 	.byte	4
00006819 04            10233 	.byte	4
0000681a 04            10234 	.byte	4
0000681b 03            10235 	.byte	3
0000681c 12            10236 	.byte	18
0000681d 45            10237 	.byte	69
0000681e 03            10238 	.byte	3
0000681f 05            10239 	.byte	5
00006820 46            10240 	.byte	70
00006821 03            10241 	.byte	3
00006822 06            10242 	.byte	6
00006823 47            10243 	.byte	71
00006824 04            10244 	.byte	4
00006825 04            10245 	.byte	4
00006826 01            10246 	.byte	1
00006827 07            10247 	.byte	7

                                                                      Page 257
                                                              C:\Users\nhuliyap\AppData\Local\Temp\gh_0000d8g1.s
00006828 44454d5f5354  10248 	.strz	"DEM_START_SEC_ROM_CODE "
0000682e 4152545f5345 
00006834 435f524f4d5f 
0000683a 434f44452000 
00006840 03            10249 	.byte	3
00006841 08            10250 	.byte	8
00006842 12            10251 	.byte	18
00006843 01            10252 	.byte	1
00006844 06            10253 	.byte	6
00006845 44454d5f4d45  10254 	.strz	"DEM_MEMMAP_ERROR "
0000684b 4d4d41505f45 
00006851 52524f522000 
00006857 01            10255 	.byte	1
00006858 51            10256 	.byte	81
00006859 4253575f5354  10257 	.strz	"BSW_START_SEC_CODE "
0000685f 4152545f5345 
00006865 435f434f4445 
0000686b 2000 
0000686d 03            10258 	.byte	3
0000686e 52            10259 	.byte	82
0000686f 13            10260 	.byte	19
00006870 01            10261 	.byte	1
00006871 da08          10262 	.byte	218,8
00006873 53544152545f  10263 	.strz	"START_SEC_CODE "
00006879 5345435f434f 
0000687f 44452000 
00006883 03            10264 	.byte	3
00006884 bb09          10265 	.byte	187,9
00006886 14            10266 	.byte	20
00006887 01            10267 	.byte	1
00006888 f307          10268 	.byte	243,7
0000688a 434f44455f53  10269 	.strz	"CODE_SEC_OPEN "
00006890 45435f4f5045 
00006896 4e2000 
00006899 04            10270 	.byte	4
0000689a 04            10271 	.byte	4
0000689b 01            10272 	.byte	1
0000689c 56            10273 	.byte	86
0000689d 44454d5f5741  10274 	.strz	"DEM_WAS_STARTED_SEC_ROM_CODE "
000068a3 535f53544152 
000068a9 5445445f5345 
000068af 435f524f4d5f 
000068b5 434f44452000 
000068bb 04            10275 	.byte	4
000068bc 01            10276 	.byte	1
000068bd 53            10277 	.byte	83
000068be 44454d5f5354  10278 	.strz	"DEM_STOP_SEC_ROM_CODE "
000068c4 4f505f534543 
000068ca 5f524f4d5f43 
000068d0 4f44452000 
000068d5 03            10279 	.byte	3
000068d6 54            10280 	.byte	84
000068d7 12            10281 	.byte	18
000068d8 01            10282 	.byte	1
000068d9 06            10283 	.byte	6
000068da 44454d5f4d45  10284 	.strz	"DEM_MEMMAP_ERROR "
000068e0 4d4d41505f45 
000068e6 52524f522000 
000068ec 01            10285 	.byte	1
000068ed 5e            10286 	.byte	94
000068ee 4253575f5354  10287 	.strz	"BSW_STOP_SEC_CODE "

                                                                      Page 258
                                                              C:\Users\nhuliyap\AppData\Local\Temp\gh_0000d8g1.s
000068f4 4f505f534543 
000068fa 5f434f444520 
00006900 00 
00006901 03            10288 	.byte	3
00006902 5f            10289 	.byte	95
00006903 13            10290 	.byte	19
00006904 01            10291 	.byte	1
00006905 de08          10292 	.byte	222,8
00006907 53544f505f53  10293 	.strz	"STOP_SEC_CODE "
0000690d 45435f434f44 
00006913 452000 
00006916 03            10294 	.byte	3
00006917 bb09          10295 	.byte	187,9
00006919 14            10296 	.byte	20
0000691a 04            10297 	.byte	4
0000691b 04            10298 	.byte	4
0000691c 04            10299 	.byte	4
0000691d 04            10300 	.byte	4
0000691e 03            10301 	.byte	3
0000691f 13            10302 	.byte	19
00006920 48            10303 	.byte	72
00006921 04            10304 	.byte	4
00006922 01            10305 	.byte	1
00006923 19            10306 	.byte	25
00006924 44454d5f5354  10307 	.strz	"DEM_START_SEC_ROM_CODE "
0000692a 4152545f5345 
00006930 435f524f4d5f 
00006936 434f44452000 
0000693c 03            10308 	.byte	3
0000693d 1a            10309 	.byte	26
0000693e 12            10310 	.byte	18
0000693f 01            10311 	.byte	1
00006940 06            10312 	.byte	6
00006941 44454d5f4d45  10313 	.strz	"DEM_MEMMAP_ERROR "
00006947 4d4d41505f45 
0000694d 52524f522000 
00006953 01            10314 	.byte	1
00006954 51            10315 	.byte	81
00006955 4253575f5354  10316 	.strz	"BSW_START_SEC_CODE "
0000695b 4152545f5345 
00006961 435f434f4445 
00006967 2000 
00006969 03            10317 	.byte	3
0000696a 52            10318 	.byte	82
0000696b 13            10319 	.byte	19
0000696c 01            10320 	.byte	1
0000696d da08          10321 	.byte	218,8
0000696f 53544152545f  10322 	.strz	"START_SEC_CODE "
00006975 5345435f434f 
0000697b 44452000 
0000697f 03            10323 	.byte	3
00006980 bb09          10324 	.byte	187,9
00006982 14            10325 	.byte	20
00006983 01            10326 	.byte	1
00006984 f307          10327 	.byte	243,7
00006986 434f44455f53  10328 	.strz	"CODE_SEC_OPEN "
0000698c 45435f4f5045 
00006992 4e2000 
00006995 04            10329 	.byte	4
00006996 04            10330 	.byte	4
00006997 01            10331 	.byte	1

                                                                      Page 259
                                                              C:\Users\nhuliyap\AppData\Local\Temp\gh_0000d8g1.s
00006998 56            10332 	.byte	86
00006999 44454d5f5741  10333 	.strz	"DEM_WAS_STARTED_SEC_ROM_CODE "
0000699f 535f53544152 
000069a5 5445445f5345 
000069ab 435f524f4d5f 
000069b1 434f44452000 
000069b7 04            10334 	.byte	4
000069b8 01            10335 	.byte	1
000069b9 c401          10336 	.byte	196,1
000069bb 44454d5f5354  10337 	.strz	"DEM_STOP_SEC_ROM_CODE "
000069c1 4f505f534543 
000069c7 5f524f4d5f43 
000069cd 4f44452000 
000069d2 03            10338 	.byte	3
000069d3 c501          10339 	.byte	197,1
000069d5 12            10340 	.byte	18
000069d6 01            10341 	.byte	1
000069d7 06            10342 	.byte	6
000069d8 44454d5f4d45  10343 	.strz	"DEM_MEMMAP_ERROR "
000069de 4d4d41505f45 
000069e4 52524f522000 
000069ea 01            10344 	.byte	1
000069eb 5e            10345 	.byte	94
000069ec 4253575f5354  10346 	.strz	"BSW_STOP_SEC_CODE "
000069f2 4f505f534543 
000069f8 5f434f444520 
000069fe 00 
000069ff 03            10347 	.byte	3
00006a00 5f            10348 	.byte	95
00006a01 13            10349 	.byte	19
00006a02 01            10350 	.byte	1
00006a03 de08          10351 	.byte	222,8
00006a05 53544f505f53  10352 	.strz	"STOP_SEC_CODE "
00006a0b 45435f434f44 
00006a11 452000 
00006a14 03            10353 	.byte	3
00006a15 bb09          10354 	.byte	187,9
00006a17 14            10355 	.byte	20
00006a18 04            10356 	.byte	4
00006a19 04            10357 	.byte	4
00006a1a 04            10358 	.byte	4
00006a1b 01            10359 	.byte	1
00006a1c c701          10360 	.byte	199,1
00006a1e 44454d5f5354  10361 	.strz	"DEM_START_SEC_ROM_CONST "
00006a24 4152545f5345 
00006a2a 435f524f4d5f 
00006a30 434f4e535420 
00006a36 00 
00006a37 03            10362 	.byte	3
00006a38 c801          10363 	.byte	200,1
00006a3a 12            10364 	.byte	18
00006a3b 01            10365 	.byte	1
00006a3c 06            10366 	.byte	6
00006a3d 44454d5f4d45  10367 	.strz	"DEM_MEMMAP_ERROR "
00006a43 4d4d41505f45 
00006a49 52524f522000 
00006a4f 01            10368 	.byte	1
00006a50 3a            10369 	.byte	58
00006a51 4253575f5354  10370 	.strz	"BSW_START_SEC_CONST_UNSPECIFIED "
00006a57 4152545f5345 
00006a5d 435f434f4e53 

                                                                      Page 260
                                                              C:\Users\nhuliyap\AppData\Local\Temp\gh_0000d8g1.s
00006a63 545f554e5350 
00006a69 454349464945 
00006a6f 442000 
00006a72 03            10371 	.byte	3
00006a73 3b            10372 	.byte	59
00006a74 13            10373 	.byte	19
00006a75 01            10374 	.byte	1
00006a76 f005          10375 	.byte	240,5
00006a78 53544152545f  10376 	.strz	"START_SEC_CONST_UNSPECIFIED "
00006a7e 5345435f434f 
00006a84 4e53545f554e 
00006a8a 535045434946 
00006a90 4945442000 
00006a95 03            10377 	.byte	3
00006a96 bb09          10378 	.byte	187,9
00006a98 14            10379 	.byte	20
00006a99 01            10380 	.byte	1
00006a9a b408          10381 	.byte	180,8
00006a9c 434f4e53545f  10382 	.strz	"CONST_SEC_OPEN "
00006aa2 5345435f4f50 
00006aa8 454e2000 
00006aac 04            10383 	.byte	4
00006aad 04            10384 	.byte	4
00006aae 01            10385 	.byte	1
00006aaf 3f            10386 	.byte	63
00006ab0 44454d5f5741  10387 	.strz	"DEM_WAS_STARTED_SEC_ROM_CONST "
00006ab6 535f53544152 
00006abc 5445445f5345 
00006ac2 435f524f4d5f 
00006ac8 434f4e535420 
00006ace 00 
00006acf 04            10388 	.byte	4
00006ad0 01            10389 	.byte	1
00006ad1 ca01          10390 	.byte	202,1
00006ad3 44454d5f5354  10391 	.strz	"DEM_STOP_SEC_ROM_CONST "
00006ad9 4f505f534543 
00006adf 5f524f4d5f43 
00006ae5 4f4e53542000 
00006aeb 03            10392 	.byte	3
00006aec cb01          10393 	.byte	203,1
00006aee 12            10394 	.byte	18
00006aef 01            10395 	.byte	1
00006af0 06            10396 	.byte	6
00006af1 44454d5f4d45  10397 	.strz	"DEM_MEMMAP_ERROR "
00006af7 4d4d41505f45 
00006afd 52524f522000 
00006b03 01            10398 	.byte	1
00006b04 47            10399 	.byte	71
00006b05 4253575f5354  10400 	.strz	"BSW_STOP_SEC_CONST_UNSPECIFIED "
00006b0b 4f505f534543 
00006b11 5f434f4e5354 
00006b17 5f554e535045 
00006b1d 434946494544 
00006b23 2000 
00006b25 03            10401 	.byte	3
00006b26 48            10402 	.byte	72
00006b27 13            10403 	.byte	19
00006b28 01            10404 	.byte	1
00006b29 f405          10405 	.byte	244,5
00006b2b 53544f505f53  10406 	.strz	"STOP_SEC_CONST "
00006b31 45435f434f4e 

                                                                      Page 261
                                                              C:\Users\nhuliyap\AppData\Local\Temp\gh_0000d8g1.s
00006b37 53542000 
00006b3b 03            10407 	.byte	3
00006b3c bb09          10408 	.byte	187,9
00006b3e 14            10409 	.byte	20
00006b3f 04            10410 	.byte	4
00006b40 04            10411 	.byte	4
00006b41 04            10412 	.byte	4
00006b42 01            10413 	.byte	1
00006b43 cd01          10414 	.byte	205,1
00006b45 44454d5f5354  10415 	.strz	"DEM_START_SEC_ROM_CODE "
00006b4b 4152545f5345 
00006b51 435f524f4d5f 
00006b57 434f44452000 
00006b5d 03            10416 	.byte	3
00006b5e ce01          10417 	.byte	206,1
00006b60 12            10418 	.byte	18
00006b61 01            10419 	.byte	1
00006b62 06            10420 	.byte	6
00006b63 44454d5f4d45  10421 	.strz	"DEM_MEMMAP_ERROR "
00006b69 4d4d41505f45 
00006b6f 52524f522000 
00006b75 01            10422 	.byte	1
00006b76 51            10423 	.byte	81
00006b77 4253575f5354  10424 	.strz	"BSW_START_SEC_CODE "
00006b7d 4152545f5345 
00006b83 435f434f4445 
00006b89 2000 
00006b8b 03            10425 	.byte	3
00006b8c 52            10426 	.byte	82
00006b8d 13            10427 	.byte	19
00006b8e 01            10428 	.byte	1
00006b8f da08          10429 	.byte	218,8
00006b91 53544152545f  10430 	.strz	"START_SEC_CODE "
00006b97 5345435f434f 
00006b9d 44452000 
00006ba1 03            10431 	.byte	3
00006ba2 bb09          10432 	.byte	187,9
00006ba4 14            10433 	.byte	20
00006ba5 01            10434 	.byte	1
00006ba6 f307          10435 	.byte	243,7
00006ba8 434f44455f53  10436 	.strz	"CODE_SEC_OPEN "
00006bae 45435f4f5045 
00006bb4 4e2000 
00006bb7 04            10437 	.byte	4
00006bb8 04            10438 	.byte	4
00006bb9 01            10439 	.byte	1
00006bba 56            10440 	.byte	86
00006bbb 44454d5f5741  10441 	.strz	"DEM_WAS_STARTED_SEC_ROM_CODE "
00006bc1 535f53544152 
00006bc7 5445445f5345 
00006bcd 435f524f4d5f 
00006bd3 434f44452000 
00006bd9 04            10442 	.byte	4
00006bda 01            10443 	.byte	1
00006bdb d201          10444 	.byte	210,1
00006bdd 44454d5f5354  10445 	.strz	"DEM_STOP_SEC_ROM_CODE "
00006be3 4f505f534543 
00006be9 5f524f4d5f43 
00006bef 4f44452000 
00006bf4 03            10446 	.byte	3
00006bf5 d301          10447 	.byte	211,1

                                                                      Page 262
                                                              C:\Users\nhuliyap\AppData\Local\Temp\gh_0000d8g1.s
00006bf7 12            10448 	.byte	18
00006bf8 01            10449 	.byte	1
00006bf9 06            10450 	.byte	6
00006bfa 44454d5f4d45  10451 	.strz	"DEM_MEMMAP_ERROR "
00006c00 4d4d41505f45 
00006c06 52524f522000 
00006c0c 01            10452 	.byte	1
00006c0d 5e            10453 	.byte	94
00006c0e 4253575f5354  10454 	.strz	"BSW_STOP_SEC_CODE "
00006c14 4f505f534543 
00006c1a 5f434f444520 
00006c20 00 
00006c21 03            10455 	.byte	3
00006c22 5f            10456 	.byte	95
00006c23 13            10457 	.byte	19
00006c24 01            10458 	.byte	1
00006c25 de08          10459 	.byte	222,8
00006c27 53544f505f53  10460 	.strz	"STOP_SEC_CODE "
00006c2d 45435f434f44 
00006c33 452000 
00006c36 03            10461 	.byte	3
00006c37 bb09          10462 	.byte	187,9
00006c39 14            10463 	.byte	20
00006c3a 04            10464 	.byte	4
00006c3b 04            10465 	.byte	4
00006c3c 04            10466 	.byte	4
00006c3d 04            10467 	.byte	4
00006c3e 03            10468 	.byte	3
00006c3f 09            10469 	.byte	9
00006c40 49            10470 	.byte	73
00006c41 03            10471 	.byte	3
00006c42 08            10472 	.byte	8
00006c43 4a            10473 	.byte	74
00006c44 03            10474 	.byte	3
00006c45 06            10475 	.byte	6
00006c46 4b            10476 	.byte	75
00006c47 01            10477 	.byte	1
00006c48 0d            10478 	.byte	13
00006c49 44454d5f4f50  10479 	.strz	"DEM_OPMO_STATE_INITIALIZED 2"
00006c4f 4d4f5f535441 
00006c55 54455f494e49 
00006c5b 5449414c495a 
00006c61 4544203200 
00006c66 01            10480 	.byte	1
00006c67 16            10481 	.byte	22
00006c68 44454d5f4649  10482 	.strz	"DEM_FIM_STATE_INITIALIZED 2"
00006c6e 4d5f53544154 
00006c74 455f494e4954 
00006c7a 49414c495a45 
00006c80 44203200 
00006c84 01            10483 	.byte	1
00006c85 18            10484 	.byte	24
00006c86 44454d5f5354  10485 	.strz	"DEM_START_SEC_RAM_INIT "
00006c8c 4152545f5345 
00006c92 435f52414d5f 
00006c98 494e49542000 
00006c9e 03            10486 	.byte	3
00006c9f 19            10487 	.byte	25
00006ca0 12            10488 	.byte	18
00006ca1 01            10489 	.byte	1
00006ca2 06            10490 	.byte	6

                                                                      Page 263
                                                              C:\Users\nhuliyap\AppData\Local\Temp\gh_0000d8g1.s
00006ca3 44454d5f4d45  10491 	.strz	"DEM_MEMMAP_ERROR "
00006ca9 4d4d41505f45 
00006caf 52524f522000 
00006cb5 01            10492 	.byte	1
00006cb6 23            10493 	.byte	35
00006cb7 4253575f5354  10494 	.strz	"BSW_START_SEC_VAR_INIT_UNSPECIFIED "
00006cbd 4152545f5345 
00006cc3 435f5641525f 
00006cc9 494e49545f55 
00006ccf 4e5350454349 
00006cd5 464945442000 
00006cdb 03            10495 	.byte	3
00006cdc 24            10496 	.byte	36
00006cdd 13            10497 	.byte	19
00006cde 01            10498 	.byte	1
00006cdf 8001          10499 	.byte	128,1
00006ce1 53544152545f  10500 	.strz	"START_SEC_VAR_INIT_UNSPECIFIED "
00006ce7 5345435f5641 
00006ced 525f494e4954 
00006cf3 5f554e535045 
00006cf9 434946494544 
00006cff 2000 
00006d01 03            10501 	.byte	3
00006d02 bb09          10502 	.byte	187,9
00006d04 14            10503 	.byte	20
00006d05 01            10504 	.byte	1
00006d06 a109          10505 	.byte	161,9
00006d08 5641525f5345  10506 	.strz	"VAR_SEC_OPEN "
00006d0e 435f4f50454e 
00006d14 2000 
00006d16 04            10507 	.byte	4
00006d17 04            10508 	.byte	4
00006d18 01            10509 	.byte	1
00006d19 28            10510 	.byte	40
00006d1a 44454d5f5741  10511 	.strz	"DEM_WAS_STARTED_SEC_RAM_INIT "
00006d20 535f53544152 
00006d26 5445445f5345 
00006d2c 435f52414d5f 
00006d32 494e49542000 
00006d38 04            10512 	.byte	4
00006d39 01            10513 	.byte	1
00006d3a 1e            10514 	.byte	30
00006d3b 44454d5f5354  10515 	.strz	"DEM_STOP_SEC_RAM_INIT "
00006d41 4f505f534543 
00006d47 5f52414d5f49 
00006d4d 4e49542000 
00006d52 03            10516 	.byte	3
00006d53 1f            10517 	.byte	31
00006d54 12            10518 	.byte	18
00006d55 01            10519 	.byte	1
00006d56 06            10520 	.byte	6
00006d57 44454d5f4d45  10521 	.strz	"DEM_MEMMAP_ERROR "
00006d5d 4d4d41505f45 
00006d63 52524f522000 
00006d69 01            10522 	.byte	1
00006d6a 30            10523 	.byte	48
00006d6b 4253575f5354  10524 	.strz	"BSW_STOP_SEC_VAR_INIT_UNSPECIFIED "
00006d71 4f505f534543 
00006d77 5f5641525f49 
00006d7d 4e49545f554e 
00006d83 535045434946 

                                                                      Page 264
                                                              C:\Users\nhuliyap\AppData\Local\Temp\gh_0000d8g1.s
00006d89 4945442000 
00006d8e 03            10525 	.byte	3
00006d8f 31            10526 	.byte	49
00006d90 13            10527 	.byte	19
00006d91 01            10528 	.byte	1
00006d92 8401          10529 	.byte	132,1
00006d94 53544f505f53  10530 	.strz	"STOP_SEC_VAR "
00006d9a 45435f564152 
00006da0 2000 
00006da2 03            10531 	.byte	3
00006da3 bb09          10532 	.byte	187,9
00006da5 14            10533 	.byte	20
00006da6 04            10534 	.byte	4
00006da7 04            10535 	.byte	4
00006da8 04            10536 	.byte	4
00006da9 04            10537 	.byte	4
00006daa 03            10538 	.byte	3
00006dab 07            10539 	.byte	7
00006dac 4c            10540 	.byte	76
00006dad 03            10541 	.byte	3
00006dae 04            10542 	.byte	4
00006daf 4d            10543 	.byte	77
00006db0 03            10544 	.byte	3
00006db1 04            10545 	.byte	4
00006db2 4e            10546 	.byte	78
00006db3 03            10547 	.byte	3
00006db4 44            10548 	.byte	68
00006db5 4f            10549 	.byte	79
00006db6 01            10550 	.byte	1
00006db7 17            10551 	.byte	23
00006db8 505241474d41  10552 	.strz	"PRAGMA(x) _Pragma(#x)"
00006dbe 287829205f50 
00006dc4 7261676d6128 
00006dca 23782900 
00006dce 01            10553 	.byte	1
00006dcf 18            10554 	.byte	24
00006dd0 5f5f52454144  10555 	.strz	"__READ volatile const"
00006dd6 20766f6c6174 
00006ddc 696c6520636f 
00006de2 6e737400 
00006de6 01            10556 	.byte	1
00006de7 1a            10557 	.byte	26
00006de8 5f5f52454144  10558 	.strz	"__READ_WRITE volatile"
00006dee 5f5752495445 
00006df4 20766f6c6174 
00006dfa 696c6500 
00006dfe 01            10559 	.byte	1
00006dff 1c            10560 	.byte	28
00006e00 5f5f494f5245  10561 	.strz	"__IOREG(reg,addr,attrib,type) PRAGMA(ghs io reg addr) extern attrib type reg;"
00006e06 47287265672c 
00006e0c 616464722c61 
00006e12 74747269622c 
00006e18 747970652920 
00006e1e 505241474d41 
00006e24 286768732069 
00006e2a 6f2072656720 
00006e30 616464722920 
00006e36 65787465726e 
00006e3c 206174747269 
00006e42 622074797065 
00006e48 207265673b00 

                                                                      Page 265
                                                              C:\Users\nhuliyap\AppData\Local\Temp\gh_0000d8g1.s
00006e4e 01            10562 	.byte	1
00006e4f 1f            10563 	.byte	31
00006e50 5f5f494f5245  10564 	.strz	"__IOREGARRAY(reg,array,addr,attrib,type) PRAGMA(ghs io reg addr) extern attrib type reg[array];"
00006e56 474152524159 
00006e5c 287265672c61 
00006e62 727261792c61 
00006e68 6464722c6174 
00006e6e 747269622c74 
00006e74 797065292050 
00006e7a 5241474d4128 
00006e80 67687320696f 
00006e86 207265672061 
00006e8c 646472292065 
00006e92 787465726e20 
00006e98 617474726962 
00006e9e 207479706520 
00006ea4 7265675b6172 
00006eaa 7261795d3b00 
00006eb0 04            10565 	.byte	4
00006eb1 03            10566 	.byte	3
00006eb2 45            10567 	.byte	69
00006eb3 50            10568 	.byte	80
00006eb4 01            10569 	.byte	1
00006eb5 05            10570 	.byte	5
00006eb6 5f494e4c494e  10571 	.strz	"_INLINE_ __inline"
00006ebc 455f205f5f69 
00006ec2 6e6c696e6500 
00006ec8 03            10572 	.byte	3
00006ec9 06            10573 	.byte	6
00006eca 51            10574 	.byte	81
00006ecb 01            10575 	.byte	1
00006ecc 0f            10576 	.byte	15
00006ecd 5f5f41545452  10577 	.strz	"__ATTRIBUTE(x) __attribute__(x)"
00006ed3 494255544528 
00006ed9 7829205f5f61 
00006edf 747472696275 
00006ee5 74655f5f2878 
00006eeb 2900 
00006eed 01            10578 	.byte	1
00006eee 74            10579 	.byte	116
00006eef 5f5f47455453  10580 	.strz	"__GETSP_macro() asm (\"mov sp, %0\" : \"=r\" (result));"
00006ef5 505f6d616372 
00006efb 6f2829206173 
00006f01 6d2028226d6f 
00006f07 762073702c20 
00006f0d 253022203a20 
00006f13 223d72222028 
00006f19 726573756c74 
00006f1f 29293b00 
00006f23 04            10581 	.byte	4
00006f24 01            10582 	.byte	1
00006f25 09            10583 	.byte	9
00006f26 7533325f5420  10584 	.strz	"u32_T unsigned long"
00006f2c 756e7369676e 
00006f32 6564206c6f6e 
00006f38 6700 
00006f3a 01            10585 	.byte	1
00006f3b b902          10586 	.byte	185,2
00006f3d 50535720352c  10587 	.strz	"PSW 5, 0"
00006f43 203000 
00006f46 01            10588 	.byte	1

                                                                      Page 266
                                                              C:\Users\nhuliyap\AppData\Local\Temp\gh_0000d8g1.s
00006f47 c302          10589 	.byte	195,2
00006f49 4d4346473020  10590 	.strz	"MCFG0 0, 1"
00006f4f 302c203100 
00006f54 01            10591 	.byte	1
00006f55 c502          10592 	.byte	197,2
00006f57 454241534520  10593 	.strz	"EBASE 3, 1"
00006f5d 332c203100 
00006f62 01            10594 	.byte	1
00006f63 c602          10595 	.byte	198,2
00006f65 494e54425020  10596 	.strz	"INTBP 4, 1"
00006f6b 342c203100 
00006f70 01            10597 	.byte	1
00006f71 c702          10598 	.byte	199,2
00006f73 4d43544c2035  10599 	.strz	"MCTL 5, 1"
00006f79 2c203100 
00006f7d 01            10600 	.byte	1
00006f7e c902          10601 	.byte	201,2
00006f80 534343464720  10602 	.strz	"SCCFG 11, 1"
00006f86 31312c203100 
00006f8c 01            10603 	.byte	1
00006f8d ce02          10604 	.byte	206,2
00006f8f 415349442037  10605 	.strz	"ASID 7, 2"
00006f95 2c203200 
00006f99 01            10606 	.byte	1
00006f9a d002          10607 	.byte	208,2
00006f9c 495350522031  10608 	.strz	"ISPR 10, 2"
00006fa2 302c203200 
00006fa7 01            10609 	.byte	1
00006fa8 d102          10610 	.byte	209,2
00006faa 504d52203131  10611 	.strz	"PMR 11, 2"
00006fb0 2c203200 
00006fb4 01            10612 	.byte	1
00006fb5 d202          10613 	.byte	210,2
00006fb7 494353522031  10614 	.strz	"ICSR 12, 2"
00006fbd 322c203200 
00006fc2 01            10615 	.byte	1
00006fc3 d302          10616 	.byte	211,2
00006fc5 494e54434647  10617 	.strz	"INTCFG 13, 2"
00006fcb 2031332c2032 
00006fd1 00 
00006fd2 01            10618 	.byte	1
00006fd3 d502          10619 	.byte	213,2
00006fd5 4d504d20302c  10620 	.strz	"MPM 0, 5"
00006fdb 203500 
00006fde 01            10621 	.byte	1
00006fdf d602          10622 	.byte	214,2
00006fe1 4d5052432031  10623 	.strz	"MPRC 1, 5"
00006fe7 2c203500 
00006feb 01            10624 	.byte	1
00006fec d702          10625 	.byte	215,2
00006fee 4d504252474e  10626 	.strz	"MPBRGN 4, 5"
00006ff4 20342c203500 
00006ffa 01            10627 	.byte	1
00006ffb d802          10628 	.byte	216,2
00006ffd 4d505452474e  10629 	.strz	"MPTRGN 5, 5"
00007003 20352c203500 
00007009 01            10630 	.byte	1
0000700a d902          10631 	.byte	217,2
0000700c 4d434120382c  10632 	.strz	"MCA 8, 5"
00007012 203500 
00007015 01            10633 	.byte	1

                                                                      Page 267
                                                              C:\Users\nhuliyap\AppData\Local\Temp\gh_0000d8g1.s
00007016 da02          10634 	.byte	218,2
00007018 4d435320392c  10635 	.strz	"MCS 9, 5"
0000701e 203500 
00007021 01            10636 	.byte	1
00007022 db02          10637 	.byte	219,2
00007024 4d4343203130  10638 	.strz	"MCC 10, 5"
0000702a 2c203500 
0000702e 01            10639 	.byte	1
0000702f dc02          10640 	.byte	220,2
00007031 4d4352203131  10641 	.strz	"MCR 11, 5"
00007037 2c203500 
0000703b 01            10642 	.byte	1
0000703c de02          10643 	.byte	222,2
0000703e 4d504c413020  10644 	.strz	"MPLA0 0, 6"
00007044 302c203600 
00007049 01            10645 	.byte	1
0000704a df02          10646 	.byte	223,2
0000704c 4d5055413020  10647 	.strz	"MPUA0 1, 6"
00007052 312c203600 
00007057 01            10648 	.byte	1
00007058 e002          10649 	.byte	224,2
0000705a 4d5041543020  10650 	.strz	"MPAT0 2, 6"
00007060 322c203600 
00007065 01            10651 	.byte	1
00007066 e102          10652 	.byte	225,2
00007068 4d504c413120  10653 	.strz	"MPLA1 4, 6"
0000706e 342c203600 
00007073 01            10654 	.byte	1
00007074 e202          10655 	.byte	226,2
00007076 4d5055413120  10656 	.strz	"MPUA1 5, 6"
0000707c 352c203600 
00007081 01            10657 	.byte	1
00007082 e302          10658 	.byte	227,2
00007084 4d5041543120  10659 	.strz	"MPAT1 6, 6"
0000708a 362c203600 
0000708f 01            10660 	.byte	1
00007090 e402          10661 	.byte	228,2
00007092 4d504c413220  10662 	.strz	"MPLA2 8, 6"
00007098 382c203600 
0000709d 01            10663 	.byte	1
0000709e e502          10664 	.byte	229,2
000070a0 4d5055413220  10665 	.strz	"MPUA2 9, 6"
000070a6 392c203600 
000070ab 01            10666 	.byte	1
000070ac e602          10667 	.byte	230,2
000070ae 4d5041543220  10668 	.strz	"MPAT2 10, 6"
000070b4 31302c203600 
000070ba 01            10669 	.byte	1
000070bb e702          10670 	.byte	231,2
000070bd 4d504c413320  10671 	.strz	"MPLA3 12, 6"
000070c3 31322c203600 
000070c9 01            10672 	.byte	1
000070ca e802          10673 	.byte	232,2
000070cc 4d5055413320  10674 	.strz	"MPUA3 13, 6"
000070d2 31332c203600 
000070d8 01            10675 	.byte	1
000070d9 e902          10676 	.byte	233,2
000070db 4d5041543320  10677 	.strz	"MPAT3 14, 6"
000070e1 31342c203600 
000070e7 01            10678 	.byte	1
000070e8 ea02          10679 	.byte	234,2

                                                                      Page 268
                                                              C:\Users\nhuliyap\AppData\Local\Temp\gh_0000d8g1.s
000070ea 4d504c413420  10680 	.strz	"MPLA4 16, 6"
000070f0 31362c203600 
000070f6 01            10681 	.byte	1
000070f7 eb02          10682 	.byte	235,2
000070f9 4d5055413420  10683 	.strz	"MPUA4 17, 6"
000070ff 31372c203600 
00007105 01            10684 	.byte	1
00007106 ec02          10685 	.byte	236,2
00007108 4d5041543420  10686 	.strz	"MPAT4 18, 6"
0000710e 31382c203600 
00007114 01            10687 	.byte	1
00007115 ed02          10688 	.byte	237,2
00007117 4d504c413520  10689 	.strz	"MPLA5 20, 6"
0000711d 32302c203600 
00007123 01            10690 	.byte	1
00007124 ee02          10691 	.byte	238,2
00007126 4d5055413520  10692 	.strz	"MPUA5 21, 6"
0000712c 32312c203600 
00007132 01            10693 	.byte	1
00007133 ef02          10694 	.byte	239,2
00007135 4d5041543520  10695 	.strz	"MPAT5 22, 6"
0000713b 32322c203600 
00007141 01            10696 	.byte	1
00007142 f002          10697 	.byte	240,2
00007144 4d504c413620  10698 	.strz	"MPLA6 24, 6"
0000714a 32342c203600 
00007150 01            10699 	.byte	1
00007151 f102          10700 	.byte	241,2
00007153 4d5055413620  10701 	.strz	"MPUA6 25, 6"
00007159 32352c203600 
0000715f 01            10702 	.byte	1
00007160 f202          10703 	.byte	242,2
00007162 4d5041543620  10704 	.strz	"MPAT6 26, 6"
00007168 32362c203600 
0000716e 01            10705 	.byte	1
0000716f f302          10706 	.byte	243,2
00007171 4d4c55413720  10707 	.strz	"MLUA7 28, 6"
00007177 32382c203600 
0000717d 01            10708 	.byte	1
0000717e f402          10709 	.byte	244,2
00007180 4d5055413720  10710 	.strz	"MPUA7 29, 6"
00007186 32392c203600 
0000718c 01            10711 	.byte	1
0000718d f502          10712 	.byte	245,2
0000718f 4d5041543720  10713 	.strz	"MPAT7 30, 6"
00007195 33302c203600 
0000719b 01            10714 	.byte	1
0000719c f602          10715 	.byte	246,2
0000719e 4d504c413820  10716 	.strz	"MPLA8 0, 7"
000071a4 302c203700 
000071a9 01            10717 	.byte	1
000071aa f702          10718 	.byte	247,2
000071ac 4d5055413820  10719 	.strz	"MPUA8 1, 7"
000071b2 312c203700 
000071b7 01            10720 	.byte	1
000071b8 f802          10721 	.byte	248,2
000071ba 4d5041543820  10722 	.strz	"MPAT8 2, 7"
000071c0 322c203700 
000071c5 01            10723 	.byte	1
000071c6 f902          10724 	.byte	249,2
000071c8 4d504c413920  10725 	.strz	"MPLA9 4, 7"

                                                                      Page 269
                                                              C:\Users\nhuliyap\AppData\Local\Temp\gh_0000d8g1.s
000071ce 342c203700 
000071d3 01            10726 	.byte	1
000071d4 fa02          10727 	.byte	250,2
000071d6 4d5055413920  10728 	.strz	"MPUA9 5, 7"
000071dc 352c203700 
000071e1 01            10729 	.byte	1
000071e2 fb02          10730 	.byte	251,2
000071e4 4d5041543920  10731 	.strz	"MPAT9 6, 7"
000071ea 362c203700 
000071ef 01            10732 	.byte	1
000071f0 fc02          10733 	.byte	252,2
000071f2 4d504c413130  10734 	.strz	"MPLA10 8, 7"
000071f8 20382c203700 
000071fe 01            10735 	.byte	1
000071ff fd02          10736 	.byte	253,2
00007201 4d5055413130  10737 	.strz	"MPUA10 9, 7"
00007207 20392c203700 
0000720d 01            10738 	.byte	1
0000720e fe02          10739 	.byte	254,2
00007210 4d5041543130  10740 	.strz	"MPAT10 10, 7"
00007216 2031302c2037 
0000721c 00 
0000721d 01            10741 	.byte	1
0000721e ff02          10742 	.byte	255,2
00007220 4d504c413131  10743 	.strz	"MPLA11 12, 7"
00007226 2031322c2037 
0000722c 00 
0000722d 01            10744 	.byte	1
0000722e 8003          10745 	.byte	128,3
00007230 4d5055413131  10746 	.strz	"MPUA11 13, 7"
00007236 2031332c2037 
0000723c 00 
0000723d 01            10747 	.byte	1
0000723e 8103          10748 	.byte	129,3
00007240 4d5041543131  10749 	.strz	"MPAT11 14, 7"
00007246 2031342c2037 
0000724c 00 
0000724d 01            10750 	.byte	1
0000724e 8203          10751 	.byte	130,3
00007250 4d504c413132  10752 	.strz	"MPLA12 16, 7"
00007256 2031362c2037 
0000725c 00 
0000725d 01            10753 	.byte	1
0000725e 8303          10754 	.byte	131,3
00007260 4d5055413132  10755 	.strz	"MPUA12 17, 7"
00007266 2031372c2037 
0000726c 00 
0000726d 01            10756 	.byte	1
0000726e 8403          10757 	.byte	132,3
00007270 4d5041543132  10758 	.strz	"MPAT12 18, 7"
00007276 2031382c2037 
0000727c 00 
0000727d 01            10759 	.byte	1
0000727e 8503          10760 	.byte	133,3
00007280 4d504c413133  10761 	.strz	"MPLA13 20, 7"
00007286 2032302c2037 
0000728c 00 
0000728d 01            10762 	.byte	1
0000728e 8603          10763 	.byte	134,3
00007290 4d5055413133  10764 	.strz	"MPUA13 21, 7"
00007296 2032312c2037 

                                                                      Page 270
                                                              C:\Users\nhuliyap\AppData\Local\Temp\gh_0000d8g1.s
0000729c 00 
0000729d 01            10765 	.byte	1
0000729e 8703          10766 	.byte	135,3
000072a0 4d5041543133  10767 	.strz	"MPAT13 22, 7"
000072a6 2032322c2037 
000072ac 00 
000072ad 01            10768 	.byte	1
000072ae 8803          10769 	.byte	136,3
000072b0 4d504c413134  10770 	.strz	"MPLA14 24, 7"
000072b6 2032342c2037 
000072bc 00 
000072bd 01            10771 	.byte	1
000072be 8903          10772 	.byte	137,3
000072c0 4d5055413134  10773 	.strz	"MPUA14 25, 7"
000072c6 2032352c2037 
000072cc 00 
000072cd 01            10774 	.byte	1
000072ce 8a03          10775 	.byte	138,3
000072d0 4d5041543134  10776 	.strz	"MPAT14 26, 7"
000072d6 2032362c2037 
000072dc 00 
000072dd 01            10777 	.byte	1
000072de 8b03          10778 	.byte	139,3
000072e0 4d504c413135  10779 	.strz	"MPLA15 28, 7"
000072e6 2032382c2037 
000072ec 00 
000072ed 01            10780 	.byte	1
000072ee 8c03          10781 	.byte	140,3
000072f0 4d5055413135  10782 	.strz	"MPUA15 29, 7"
000072f6 2032392c2037 
000072fc 00 
000072fd 01            10783 	.byte	1
000072fe 8d03          10784 	.byte	141,3
00007300 4d5041543135  10785 	.strz	"MPAT15 30, 7"
00007306 2033302c2037 
0000730c 00 
0000730d 04            10786 	.byte	4
0000730e 04            10787 	.byte	4
0000730f 04            10788 	.byte	4
00007310 04            10789 	.byte	4
00007311 01            10790 	.byte	1
00007312 09            10791 	.byte	9
00007313 44454d5f454e  10792 	.strz	"DEM_ENTERLOCK_MON() SchM_Enter_Dem_Monitoring()"
00007319 5445524c4f43 
0000731f 4b5f4d4f4e28 
00007325 29205363684d 
0000732b 5f456e746572 
00007331 5f44656d5f4d 
00007337 6f6e69746f72 
0000733d 696e67282900 
00007343 01            10793 	.byte	1
00007344 0a            10794 	.byte	10
00007345 44454d5f4558  10795 	.strz	"DEM_EXITLOCK_MON() SchM_Exit_Dem_Monitoring()"
0000734b 49544c4f434b 
00007351 5f4d4f4e2829 
00007357 205363684d5f 
0000735d 457869745f44 
00007363 656d5f4d6f6e 
00007369 69746f72696e 
0000736f 67282900 
00007373 01            10796 	.byte	1

                                                                      Page 271
                                                              C:\Users\nhuliyap\AppData\Local\Temp\gh_0000d8g1.s
00007374 0d            10797 	.byte	13
00007375 44454d5f4153  10798 	.strz	"DEM_ASSERT_ISLOCKED() do {}while(0)"
0000737b 534552545f49 
00007381 534c4f434b45 
00007387 44282920646f 
0000738d 207b7d776869 
00007393 6c6528302900 
00007399 04            10799 	.byte	4
0000739a 01            10800 	.byte	1
0000739b 0a            10801 	.byte	10
0000739c 44454d5f4249  10802 	.strz	"DEM_BITARRAY_DATAELEMENTS(BITCOUNT) ((((BITCOUNT)-1u) >> 5u)+1UL)"
000073a2 544152524159 
000073a8 5f4441544145 
000073ae 4c454d454e54 
000073b4 532842495443 
000073ba 4f554e542920 
000073c0 282828284249 
000073c6 54434f554e54 
000073cc 292d31752920 
000073d2 3e3e20357529 
000073d8 2b31554c2900 
000073de 01            10803 	.byte	1
000073df 0c            10804 	.byte	12
000073e0 44454d5f4249  10805 	.strz	"DEM_BITARRAY_DECLARE(VARNAME,BITCOUNT) DEM_ARRAY_DECLARE(uint32, VARNAME, DEM_BITARRAY_DATAELEMENTS(BITCOUNT))"
000073e6 544152524159 
000073ec 5f4445434c41 
000073f2 524528564152 
000073f8 4e414d452c42 
000073fe 4954434f554e 
00007404 54292044454d 
0000740a 5f4152524159 
00007410 5f4445434c41 
00007416 52452875696e 
0000741c 7433322c2056 
00007422 41524e414d45 
00007428 2c2044454d5f 
0000742e 424954415252 
00007434 41595f444154 
0000743a 41454c454d45 
00007440 4e5453284249 
00007446 54434f554e54 
0000744c 292900 
0000744f 01            10806 	.byte	1
00007450 11            10807 	.byte	17
00007451 44454d5f4249  10808 	.strz	"DEM_BITARRAY_FUNCPARAM(VARNAME) DEM_ARRAY_FUNCPARAM(uint32,VARNAME)"
00007457 544152524159 
0000745d 5f46554e4350 
00007463 4152414d2856 
00007469 41524e414d45 
0000746f 292044454d5f 
00007475 41525241595f 
0000747b 46554e435041 
00007481 52414d287569 
00007487 6e7433322c56 
0000748d 41524e414d45 
00007493 2900 
00007495 01            10809 	.byte	1
00007496 12            10810 	.byte	18
00007497 44454d5f4249  10811 	.strz	"DEM_BITARRAY_CONSTFUNCPARAM(VARNAME) DEM_ARRAY_CONSTFUNCPARAM(uint32,VARNAME)"
0000749d 544152524159 
000074a3 5f434f4e5354 

                                                                      Page 272
                                                              C:\Users\nhuliyap\AppData\Local\Temp\gh_0000d8g1.s
000074a9 46554e435041 
000074af 52414d285641 
000074b5 524e414d4529 
000074bb 2044454d5f41 
000074c1 525241595f43 
000074c7 4f4e53544655 
000074cd 4e4350415241 
000074d3 4d2875696e74 
000074d9 33322c564152 
000074df 4e414d452900 
000074e5 01            10812 	.byte	1
000074e6 14            10813 	.byte	20
000074e7 44454d5f4249  10814 	.strz	"DEM_BITARRAY_ELEMENT_BITSIZE (DEM_SIZEOF_TYPE(uint32) * 8u)"
000074ed 544152524159 
000074f3 5f454c454d45 
000074f9 4e545f424954 
000074ff 53495a452028 
00007505 44454d5f5349 
0000750b 5a454f465f54 
00007511 595045287569 
00007517 6e7433322920 
0000751d 2a2038752900 
00007523 04            10815 	.byte	4
00007524 03            10816 	.byte	3
00007525 0f            10817 	.byte	15
00007526 52            10818 	.byte	82
00007527 03            10819 	.byte	3
00007528 09            10820 	.byte	9
00007529 53            10821 	.byte	83
0000752a 03            10822 	.byte	3
0000752b 0c            10823 	.byte	12
0000752c 54            10824 	.byte	84
0000752d 04            10825 	.byte	4
0000752e 01            10826 	.byte	1
0000752f 16            10827 	.byte	22
00007530 44454d5f4556  10828 	.strz	"DEM_EVENTIDITERATORNEW 1"
00007536 454e54494449 
0000753c 54455241544f 
00007542 524e45572031 
00007548 00 
00007549 01            10829 	.byte	1
0000754a 73            10830 	.byte	115
0000754b 44454d5f5354  10831 	.strz	"DEM_START_SEC_ROM_CONST "
00007551 4152545f5345 
00007557 435f524f4d5f 
0000755d 434f4e535420 
00007563 00 
00007564 03            10832 	.byte	3
00007565 74            10833 	.byte	116
00007566 12            10834 	.byte	18
00007567 01            10835 	.byte	1
00007568 06            10836 	.byte	6
00007569 44454d5f4d45  10837 	.strz	"DEM_MEMMAP_ERROR "
0000756f 4d4d41505f45 
00007575 52524f522000 
0000757b 01            10838 	.byte	1
0000757c 3a            10839 	.byte	58
0000757d 4253575f5354  10840 	.strz	"BSW_START_SEC_CONST_UNSPECIFIED "
00007583 4152545f5345 
00007589 435f434f4e53 
0000758f 545f554e5350 

                                                                      Page 273
                                                              C:\Users\nhuliyap\AppData\Local\Temp\gh_0000d8g1.s
00007595 454349464945 
0000759b 442000 
0000759e 03            10841 	.byte	3
0000759f 3b            10842 	.byte	59
000075a0 13            10843 	.byte	19
000075a1 01            10844 	.byte	1
000075a2 f005          10845 	.byte	240,5
000075a4 53544152545f  10846 	.strz	"START_SEC_CONST_UNSPECIFIED "
000075aa 5345435f434f 
000075b0 4e53545f554e 
000075b6 535045434946 
000075bc 4945442000 
000075c1 03            10847 	.byte	3
000075c2 bb09          10848 	.byte	187,9
000075c4 14            10849 	.byte	20
000075c5 01            10850 	.byte	1
000075c6 b408          10851 	.byte	180,8
000075c8 434f4e53545f  10852 	.strz	"CONST_SEC_OPEN "
000075ce 5345435f4f50 
000075d4 454e2000 
000075d8 04            10853 	.byte	4
000075d9 04            10854 	.byte	4
000075da 01            10855 	.byte	1
000075db 3f            10856 	.byte	63
000075dc 44454d5f5741  10857 	.strz	"DEM_WAS_STARTED_SEC_ROM_CONST "
000075e2 535f53544152 
000075e8 5445445f5345 
000075ee 435f524f4d5f 
000075f4 434f4e535420 
000075fa 00 
000075fb 04            10858 	.byte	4
000075fc 01            10859 	.byte	1
000075fd 77            10860 	.byte	119
000075fe 44454d5f5354  10861 	.strz	"DEM_STOP_SEC_ROM_CONST "
00007604 4f505f534543 
0000760a 5f524f4d5f43 
00007610 4f4e53542000 
00007616 03            10862 	.byte	3
00007617 78            10863 	.byte	120
00007618 12            10864 	.byte	18
00007619 01            10865 	.byte	1
0000761a 06            10866 	.byte	6
0000761b 44454d5f4d45  10867 	.strz	"DEM_MEMMAP_ERROR "
00007621 4d4d41505f45 
00007627 52524f522000 
0000762d 01            10868 	.byte	1
0000762e 47            10869 	.byte	71
0000762f 4253575f5354  10870 	.strz	"BSW_STOP_SEC_CONST_UNSPECIFIED "
00007635 4f505f534543 
0000763b 5f434f4e5354 
00007641 5f554e535045 
00007647 434946494544 
0000764d 2000 
0000764f 03            10871 	.byte	3
00007650 48            10872 	.byte	72
00007651 13            10873 	.byte	19
00007652 01            10874 	.byte	1
00007653 f405          10875 	.byte	244,5
00007655 53544f505f53  10876 	.strz	"STOP_SEC_CONST "
0000765b 45435f434f4e 
00007661 53542000 

                                                                      Page 274
                                                              C:\Users\nhuliyap\AppData\Local\Temp\gh_0000d8g1.s
00007665 03            10877 	.byte	3
00007666 bb09          10878 	.byte	187,9
00007668 14            10879 	.byte	20
00007669 04            10880 	.byte	4
0000766a 04            10881 	.byte	4
0000766b 04            10882 	.byte	4
0000766c 01            10883 	.byte	1
0000766d a701          10884 	.byte	167,1
0000766f 44454d5f4454  10885 	.strz	"DEM_DTCIDITERATOR_NEW() 1"
00007675 434944495445 
0000767b 5241544f525f 
00007681 4e4557282920 
00007687 3100 
00007689 01            10886 	.byte	1
0000768a c301          10887 	.byte	195,1
0000768c 44454d5f4454  10888 	.strz	"DEM_DTCGROUPIDITERATOR_NEW() 1"
00007692 4347524f5550 
00007698 494449544552 
0000769e 41544f525f4e 
000076a4 455728292031 
000076aa 00 
000076ab 01            10889 	.byte	1
000076ac ab02          10890 	.byte	171,2
000076ae 44454d5f5354  10891 	.strz	"DEM_START_SEC_ROM_CONST "
000076b4 4152545f5345 
000076ba 435f524f4d5f 
000076c0 434f4e535420 
000076c6 00 
000076c7 03            10892 	.byte	3
000076c8 ac02          10893 	.byte	172,2
000076ca 12            10894 	.byte	18
000076cb 01            10895 	.byte	1
000076cc 06            10896 	.byte	6
000076cd 44454d5f4d45  10897 	.strz	"DEM_MEMMAP_ERROR "
000076d3 4d4d41505f45 
000076d9 52524f522000 
000076df 01            10898 	.byte	1
000076e0 3a            10899 	.byte	58
000076e1 4253575f5354  10900 	.strz	"BSW_START_SEC_CONST_UNSPECIFIED "
000076e7 4152545f5345 
000076ed 435f434f4e53 
000076f3 545f554e5350 
000076f9 454349464945 
000076ff 442000 
00007702 03            10901 	.byte	3
00007703 3b            10902 	.byte	59
00007704 13            10903 	.byte	19
00007705 01            10904 	.byte	1
00007706 f005          10905 	.byte	240,5
00007708 53544152545f  10906 	.strz	"START_SEC_CONST_UNSPECIFIED "
0000770e 5345435f434f 
00007714 4e53545f554e 
0000771a 535045434946 
00007720 4945442000 
00007725 03            10907 	.byte	3
00007726 bb09          10908 	.byte	187,9
00007728 14            10909 	.byte	20
00007729 01            10910 	.byte	1
0000772a b408          10911 	.byte	180,8
0000772c 434f4e53545f  10912 	.strz	"CONST_SEC_OPEN "
00007732 5345435f4f50 

                                                                      Page 275
                                                              C:\Users\nhuliyap\AppData\Local\Temp\gh_0000d8g1.s
00007738 454e2000 
0000773c 04            10913 	.byte	4
0000773d 04            10914 	.byte	4
0000773e 01            10915 	.byte	1
0000773f 3f            10916 	.byte	63
00007740 44454d5f5741  10917 	.strz	"DEM_WAS_STARTED_SEC_ROM_CONST "
00007746 535f53544152 
0000774c 5445445f5345 
00007752 435f524f4d5f 
00007758 434f4e535420 
0000775e 00 
0000775f 04            10918 	.byte	4
00007760 01            10919 	.byte	1
00007761 ae02          10920 	.byte	174,2
00007763 44454d5f5354  10921 	.strz	"DEM_STOP_SEC_ROM_CONST "
00007769 4f505f534543 
0000776f 5f524f4d5f43 
00007775 4f4e53542000 
0000777b 03            10922 	.byte	3
0000777c af02          10923 	.byte	175,2
0000777e 12            10924 	.byte	18
0000777f 01            10925 	.byte	1
00007780 06            10926 	.byte	6
00007781 44454d5f4d45  10927 	.strz	"DEM_MEMMAP_ERROR "
00007787 4d4d41505f45 
0000778d 52524f522000 
00007793 01            10928 	.byte	1
00007794 47            10929 	.byte	71
00007795 4253575f5354  10930 	.strz	"BSW_STOP_SEC_CONST_UNSPECIFIED "
0000779b 4f505f534543 
000077a1 5f434f4e5354 
000077a7 5f554e535045 
000077ad 434946494544 
000077b3 2000 
000077b5 03            10931 	.byte	3
000077b6 48            10932 	.byte	72
000077b7 13            10933 	.byte	19
000077b8 01            10934 	.byte	1
000077b9 f405          10935 	.byte	244,5
000077bb 53544f505f53  10936 	.strz	"STOP_SEC_CONST "
000077c1 45435f434f4e 
000077c7 53542000 
000077cb 03            10937 	.byte	3
000077cc bb09          10938 	.byte	187,9
000077ce 14            10939 	.byte	20
000077cf 04            10940 	.byte	4
000077d0 04            10941 	.byte	4
000077d1 04            10942 	.byte	4
000077d2 04            10943 	.byte	4
000077d3 01            10944 	.byte	1
000077d4 0b            10945 	.byte	11
000077d5 44454d5f5354  10946 	.strz	"DEM_START_SEC_ROM_CODE "
000077db 4152545f5345 
000077e1 435f524f4d5f 
000077e7 434f44452000 
000077ed 03            10947 	.byte	3
000077ee 0c            10948 	.byte	12
000077ef 12            10949 	.byte	18
000077f0 01            10950 	.byte	1
000077f1 06            10951 	.byte	6
000077f2 44454d5f4d45  10952 	.strz	"DEM_MEMMAP_ERROR "

                                                                      Page 276
                                                              C:\Users\nhuliyap\AppData\Local\Temp\gh_0000d8g1.s
000077f8 4d4d41505f45 
000077fe 52524f522000 
00007804 01            10953 	.byte	1
00007805 51            10954 	.byte	81
00007806 4253575f5354  10955 	.strz	"BSW_START_SEC_CODE "
0000780c 4152545f5345 
00007812 435f434f4445 
00007818 2000 
0000781a 03            10956 	.byte	3
0000781b 52            10957 	.byte	82
0000781c 13            10958 	.byte	19
0000781d 01            10959 	.byte	1
0000781e da08          10960 	.byte	218,8
00007820 53544152545f  10961 	.strz	"START_SEC_CODE "
00007826 5345435f434f 
0000782c 44452000 
00007830 03            10962 	.byte	3
00007831 bb09          10963 	.byte	187,9
00007833 14            10964 	.byte	20
00007834 01            10965 	.byte	1
00007835 f307          10966 	.byte	243,7
00007837 434f44455f53  10967 	.strz	"CODE_SEC_OPEN "
0000783d 45435f4f5045 
00007843 4e2000 
00007846 04            10968 	.byte	4
00007847 04            10969 	.byte	4
00007848 01            10970 	.byte	1
00007849 56            10971 	.byte	86
0000784a 44454d5f5741  10972 	.strz	"DEM_WAS_STARTED_SEC_ROM_CODE "
00007850 535f53544152 
00007856 5445445f5345 
0000785c 435f524f4d5f 
00007862 434f44452000 
00007868 04            10973 	.byte	4
00007869 01            10974 	.byte	1
0000786a 12            10975 	.byte	18
0000786b 44454d5f5354  10976 	.strz	"DEM_STOP_SEC_ROM_CODE "
00007871 4f505f534543 
00007877 5f524f4d5f43 
0000787d 4f44452000 
00007882 03            10977 	.byte	3
00007883 13            10978 	.byte	19
00007884 12            10979 	.byte	18
00007885 01            10980 	.byte	1
00007886 06            10981 	.byte	6
00007887 44454d5f4d45  10982 	.strz	"DEM_MEMMAP_ERROR "
0000788d 4d4d41505f45 
00007893 52524f522000 
00007899 01            10983 	.byte	1
0000789a 5e            10984 	.byte	94
0000789b 4253575f5354  10985 	.strz	"BSW_STOP_SEC_CODE "
000078a1 4f505f534543 
000078a7 5f434f444520 
000078ad 00 
000078ae 03            10986 	.byte	3
000078af 5f            10987 	.byte	95
000078b0 13            10988 	.byte	19
000078b1 01            10989 	.byte	1
000078b2 de08          10990 	.byte	222,8
000078b4 53544f505f53  10991 	.strz	"STOP_SEC_CODE "
000078ba 45435f434f44 

                                                                      Page 277
                                                              C:\Users\nhuliyap\AppData\Local\Temp\gh_0000d8g1.s
000078c0 452000 
000078c3 03            10992 	.byte	3
000078c4 bb09          10993 	.byte	187,9
000078c6 14            10994 	.byte	20
000078c7 04            10995 	.byte	4
000078c8 04            10996 	.byte	4
000078c9 04            10997 	.byte	4
000078ca 04            10998 	.byte	4
000078cb 03            10999 	.byte	3
000078cc 12            11000 	.byte	18
000078cd 55            11001 	.byte	85
000078ce 04            11002 	.byte	4
000078cf 03            11003 	.byte	3
000078d0 14            11004 	.byte	20
000078d1 56            11005 	.byte	86
000078d2 04            11006 	.byte	4
000078d3 03            11007 	.byte	3
000078d4 15            11008 	.byte	21
000078d5 57            11009 	.byte	87
000078d6 03            11010 	.byte	3
000078d7 09            11011 	.byte	9
000078d8 58            11012 	.byte	88
000078d9 04            11013 	.byte	4
000078da 01            11014 	.byte	1
000078db 27            11015 	.byte	39
000078dc 44454d5f5354  11016 	.strz	"DEM_START_SEC_ROM_CODE "
000078e2 4152545f5345 
000078e8 435f524f4d5f 
000078ee 434f44452000 
000078f4 03            11017 	.byte	3
000078f5 28            11018 	.byte	40
000078f6 12            11019 	.byte	18
000078f7 01            11020 	.byte	1
000078f8 06            11021 	.byte	6
000078f9 44454d5f4d45  11022 	.strz	"DEM_MEMMAP_ERROR "
000078ff 4d4d41505f45 
00007905 52524f522000 
0000790b 01            11023 	.byte	1
0000790c 51            11024 	.byte	81
0000790d 4253575f5354  11025 	.strz	"BSW_START_SEC_CODE "
00007913 4152545f5345 
00007919 435f434f4445 
0000791f 2000 
00007921 03            11026 	.byte	3
00007922 52            11027 	.byte	82
00007923 13            11028 	.byte	19
00007924 01            11029 	.byte	1
00007925 da08          11030 	.byte	218,8
00007927 53544152545f  11031 	.strz	"START_SEC_CODE "
0000792d 5345435f434f 
00007933 44452000 
00007937 03            11032 	.byte	3
00007938 bb09          11033 	.byte	187,9
0000793a 14            11034 	.byte	20
0000793b 01            11035 	.byte	1
0000793c f307          11036 	.byte	243,7
0000793e 434f44455f53  11037 	.strz	"CODE_SEC_OPEN "
00007944 45435f4f5045 
0000794a 4e2000 
0000794d 04            11038 	.byte	4
0000794e 04            11039 	.byte	4

                                                                      Page 278
                                                              C:\Users\nhuliyap\AppData\Local\Temp\gh_0000d8g1.s
0000794f 01            11040 	.byte	1
00007950 56            11041 	.byte	86
00007951 44454d5f5741  11042 	.strz	"DEM_WAS_STARTED_SEC_ROM_CODE "
00007957 535f53544152 
0000795d 5445445f5345 
00007963 435f524f4d5f 
00007969 434f44452000 
0000796f 04            11043 	.byte	4
00007970 01            11044 	.byte	1
00007971 67            11045 	.byte	103
00007972 44454d5f5354  11046 	.strz	"DEM_STOP_SEC_ROM_CODE "
00007978 4f505f534543 
0000797e 5f524f4d5f43 
00007984 4f44452000 
00007989 03            11047 	.byte	3
0000798a 68            11048 	.byte	104
0000798b 12            11049 	.byte	18
0000798c 01            11050 	.byte	1
0000798d 06            11051 	.byte	6
0000798e 44454d5f4d45  11052 	.strz	"DEM_MEMMAP_ERROR "
00007994 4d4d41505f45 
0000799a 52524f522000 
000079a0 01            11053 	.byte	1
000079a1 5e            11054 	.byte	94
000079a2 4253575f5354  11055 	.strz	"BSW_STOP_SEC_CODE "
000079a8 4f505f534543 
000079ae 5f434f444520 
000079b4 00 
000079b5 03            11056 	.byte	3
000079b6 5f            11057 	.byte	95
000079b7 13            11058 	.byte	19
000079b8 01            11059 	.byte	1
000079b9 de08          11060 	.byte	222,8
000079bb 53544f505f53  11061 	.strz	"STOP_SEC_CODE "
000079c1 45435f434f44 
000079c7 452000 
000079ca 03            11062 	.byte	3
000079cb bb09          11063 	.byte	187,9
000079cd 14            11064 	.byte	20
000079ce 04            11065 	.byte	4
000079cf 04            11066 	.byte	4
000079d0 04            11067 	.byte	4
000079d1 04            11068 	.byte	4
000079d2 03            11069 	.byte	3
000079d3 16            11070 	.byte	22
000079d4 59            11071 	.byte	89
000079d5 04            11072 	.byte	4
000079d6 03            11073 	.byte	3
000079d7 19            11074 	.byte	25
000079d8 5a            11075 	.byte	90
000079d9 01            11076 	.byte	1
000079da 06            11077 	.byte	6
000079db 44454d5f4346  11078 	.strz	"DEM_CFG_DISTURBANCE_MEMORY_ON STD_ON"
000079e1 475f44495354 
000079e7 555242414e43 
000079ed 455f4d454d4f 
000079f3 52595f4f4e20 
000079f9 5354445f4f4e 
000079ff 00 
00007a00 01            11079 	.byte	1
00007a01 07            11080 	.byte	7

                                                                      Page 279
                                                              C:\Users\nhuliyap\AppData\Local\Temp\gh_0000d8g1.s
00007a02 44454d5f4346  11081 	.strz	"DEM_CFG_DISTURBANCE_MEMORY_OFF STD_OFF"
00007a08 475f44495354 
00007a0e 555242414e43 
00007a14 455f4d454d4f 
00007a1a 52595f4f4646 
00007a20 205354445f4f 
00007a26 464600 
00007a29 01            11082 	.byte	1
00007a2a 08            11083 	.byte	8
00007a2b 44454d5f4346  11084 	.strz	"DEM_CFG_DISTURBANCE_MEMORY DEM_CFG_DISTURBANCE_MEMORY_OFF"
00007a31 475f44495354 
00007a37 555242414e43 
00007a3d 455f4d454d4f 
00007a43 52592044454d 
00007a49 5f4346475f44 
00007a4f 495354555242 
00007a55 414e43455f4d 
00007a5b 454d4f52595f 
00007a61 4f464600 
00007a65 01            11085 	.byte	1
00007a66 0a            11086 	.byte	10
00007a67 44454d5f4346  11087 	.strz	"DEM_CFG_DIST_MEM_CALLBACK_ON_DISTURBANCE_ON STD_ON"
00007a6d 475f44495354 
00007a73 5f4d454d5f43 
00007a79 414c4c424143 
00007a7f 4b5f4f4e5f44 
00007a85 495354555242 
00007a8b 414e43455f4f 
00007a91 4e205354445f 
00007a97 4f4e00 
00007a9a 01            11088 	.byte	1
00007a9b 0b            11089 	.byte	11
00007a9c 44454d5f4346  11090 	.strz	"DEM_CFG_DIST_MEM_CALLBACK_ON_DISTURBANCE_OFF STD_OFF"
00007aa2 475f44495354 
00007aa8 5f4d454d5f43 
00007aae 414c4c424143 
00007ab4 4b5f4f4e5f44 
00007aba 495354555242 
00007ac0 414e43455f4f 
00007ac6 464620535444 
00007acc 5f4f464600 
00007ad1 01            11091 	.byte	1
00007ad2 0c            11092 	.byte	12
00007ad3 44454d5f4346  11093 	.strz	"DEM_CFG_DIST_MEM_CALLBACK_ON_DISTURBANCE DEM_CFG_DIST_MEM_CALLBACK_ON_DISTURBANCE_OFF"
00007ad9 475f44495354 
00007adf 5f4d454d5f43 
00007ae5 414c4c424143 
00007aeb 4b5f4f4e5f44 
00007af1 495354555242 
00007af7 414e43452044 
00007afd 454d5f434647 
00007b03 5f444953545f 
00007b09 4d454d5f4341 
00007b0f 4c4c4241434b 
00007b15 5f4f4e5f4449 
00007b1b 535455524241 
00007b21 4e43455f4f46 
00007b27 4600 
00007b29 04            11094 	.byte	4
00007b2a 03            11095 	.byte	3
00007b2b 1b            11096 	.byte	27

                                                                      Page 280
                                                              C:\Users\nhuliyap\AppData\Local\Temp\gh_0000d8g1.s
00007b2c 5b            11097 	.byte	91
00007b2d 03            11098 	.byte	3
00007b2e 06            11099 	.byte	6
00007b2f 23            11100 	.byte	35
00007b30 04            11101 	.byte	4
00007b31 03            11102 	.byte	3
00007b32 08            11103 	.byte	8
00007b33 5c            11104 	.byte	92
00007b34 03            11105 	.byte	3
00007b35 06            11106 	.byte	6
00007b36 5d            11107 	.byte	93
00007b37 01            11108 	.byte	1
00007b38 13            11109 	.byte	19
00007b39 44454d5f4e56  11110 	.strz	"DEM_NVM_CFG_BLOCKID_TYPE uint8"
00007b3f 4d5f4346475f 
00007b45 424c4f434b49 
00007b4b 445f54595045 
00007b51 2075696e7438 
00007b57 00 
00007b58 01            11111 	.byte	1
00007b59 14            11112 	.byte	20
00007b5a 44454d5f4e56  11113 	.strz	"DEM_NVM_CFG_NUM_BLOCKS_TOTAL 12"
00007b60 4d5f4346475f 
00007b66 4e554d5f424c 
00007b6c 4f434b535f54 
00007b72 4f54414c2031 
00007b78 3200 
00007b7a 01            11114 	.byte	1
00007b7b 15            11115 	.byte	21
00007b7c 44454d5f4e56  11116 	.strz	"DEM_NVM_CFG_NUM_BLOCKS_EXTENDED 11"
00007b82 4d5f4346475f 
00007b88 4e554d5f424c 
00007b8e 4f434b535f45 
00007b94 5854454e4445 
00007b9a 4420313100 
00007b9f 01            11117 	.byte	1
00007ba0 36            11118 	.byte	54
00007ba1 44454d5f4e56  11119 	.strz	"DEM_NVM_CFG_NUM_STORAGEBUFFER 2"
00007ba7 4d5f4346475f 
00007bad 4e554d5f5354 
00007bb3 4f5241474542 
00007bb9 554646455220 
00007bbf 3200 
00007bc1 01            11120 	.byte	1
00007bc2 3a            11121 	.byte	58
00007bc3 44454d5f4e56  11122 	.strz	"DEM_NVM_CFG_COPYFCT_NUM 1"
00007bc9 4d5f4346475f 
00007bcf 434f50594643 
00007bd5 545f4e554d20 
00007bdb 3100 
00007bdd 04            11123 	.byte	4
00007bde 03            11124 	.byte	3
00007bdf 08            11125 	.byte	8
00007be0 5e            11126 	.byte	94
00007be1 03            11127 	.byte	3
00007be2 08            11128 	.byte	8
00007be3 5f            11129 	.byte	95
00007be4 01            11130 	.byte	1
00007be5 08            11131 	.byte	8
00007be6 44454d5f4346  11132 	.strz	"DEM_CFG_ENVMINSIZE_OF_MULTIPLE_RAWENVDATA (32u + 0u + 0u)"
00007bec 475f454e564d 

                                                                      Page 281
                                                              C:\Users\nhuliyap\AppData\Local\Temp\gh_0000d8g1.s
00007bf2 494e53495a45 
00007bf8 5f4f465f4d55 
00007bfe 4c5449504c45 
00007c04 5f524157454e 
00007c0a 564441544120 
00007c10 28333275202b 
00007c16 203075202b20 
00007c1c 30752900 
00007c20 04            11133 	.byte	4
00007c21 03            11134 	.byte	3
00007c22 09            11135 	.byte	9
00007c23 60            11136 	.byte	96
00007c24 01            11137 	.byte	1
00007c25 0f            11138 	.byte	15
00007c26 44454d5f4346  11139 	.strz	"DEM_CFG_READDEM_MAX_FDC_DURING_CURRENT_CYCLE_SUPPORTED FALSE"
00007c2c 475f52454144 
00007c32 44454d5f4d41 
00007c38 585f4644435f 
00007c3e 445552494e47 
00007c44 5f4355525245 
00007c4a 4e545f435943 
00007c50 4c455f535550 
00007c56 504f52544544 
00007c5c 2046414c5345 
00007c62 00 
00007c63 01            11140 	.byte	1
00007c64 10            11141 	.byte	16
00007c65 44454d5f4346  11142 	.strz	"DEM_CFG_READDEM_MAX_FDC_SINCE_LAST_CLEAR_SUPPORTED FALSE"
00007c6b 475f52454144 
00007c71 44454d5f4d41 
00007c77 585f4644435f 
00007c7d 53494e43455f 
00007c83 4c4153545f43 
00007c89 4c4541525f53 
00007c8f 5550504f5254 
00007c95 45442046414c 
00007c9b 534500 
00007c9e 01            11143 	.byte	1
00007c9f 11            11144 	.byte	17
00007ca0 44454d5f4346  11145 	.strz	"DEM_CFG_READDEM_CYCLES_SINCE_FIRST_FAILED_SUPPORTED FALSE"
00007ca6 475f52454144 
00007cac 44454d5f4359 
00007cb2 434c45535f53 
00007cb8 494e43455f46 
00007cbe 495253545f46 
00007cc4 41494c45445f 
00007cca 535550504f52 
00007cd0 544544204641 
00007cd6 4c534500 
00007cda 01            11146 	.byte	1
00007cdb 12            11147 	.byte	18
00007cdc 44454d5f4346  11148 	.strz	"DEM_CFG_READDEM_CYCLES_SINCE_LAST_FAILED_SUPPORTED FALSE"
00007ce2 475f52454144 
00007ce8 44454d5f4359 
00007cee 434c45535f53 
00007cf4 494e43455f4c 
00007cfa 4153545f4641 
00007d00 494c45445f53 
00007d06 5550504f5254 
00007d0c 45442046414c 
00007d12 534500 

                                                                      Page 282
                                                              C:\Users\nhuliyap\AppData\Local\Temp\gh_0000d8g1.s
00007d15 01            11149 	.byte	1
00007d16 13            11150 	.byte	19
00007d17 44454d5f4346  11151 	.strz	"DEM_CFG_READDEM_CYCLES_SINCE_LAST_FAILED_EXCLUDING_TNC_SUPPORTED FALSE"
00007d1d 475f52454144 
00007d23 44454d5f4359 
00007d29 434c45535f53 
00007d2f 494e43455f4c 
00007d35 4153545f4641 
00007d3b 494c45445f45 
00007d41 58434c554449 
00007d47 4e475f544e43 
00007d4d 5f535550504f 
00007d53 525445442046 
00007d59 414c534500 
00007d5e 01            11152 	.byte	1
00007d5f 14            11153 	.byte	20
00007d60 44454d5f4346  11154 	.strz	"DEM_CFG_READDEM_FAILED_CYCLES_SUPPORTED FALSE"
00007d66 475f52454144 
00007d6c 44454d5f4641 
00007d72 494c45445f43 
00007d78 59434c45535f 
00007d7e 535550504f52 
00007d84 544544204641 
00007d8a 4c534500 
00007d8e 04            11155 	.byte	4
00007d8f 03            11156 	.byte	3
00007d90 0b            11157 	.byte	11
00007d91 61            11158 	.byte	97
00007d92 01            11159 	.byte	1
00007d93 08            11160 	.byte	8
00007d94 44454d5f4346  11161 	.strz	"DEM_CFG_REPORT_CHRONOLOGICAL_ORDER_HOOKS_ENABLED FALSE"
00007d9a 475f5245504f 
00007da0 52545f434852 
00007da6 4f4e4f4c4f47 
00007dac 4943414c5f4f 
00007db2 524445525f48 
00007db8 4f4f4b535f45 
00007dbe 4e41424c4544 
00007dc4 2046414c5345 
00007dca 00 
00007dcb 04            11162 	.byte	4
00007dcc 03            11163 	.byte	3
00007dcd 0d            11164 	.byte	13
00007dce 62            11165 	.byte	98
00007dcf 01            11166 	.byte	1
00007dd0 17            11167 	.byte	23
00007dd1 44454d5f5354  11168 	.strz	"DEM_START_SEC_ROM_CONST "
00007dd7 4152545f5345 
00007ddd 435f524f4d5f 
00007de3 434f4e535420 
00007de9 00 
00007dea 03            11169 	.byte	3
00007deb 18            11170 	.byte	24
00007dec 12            11171 	.byte	18
00007ded 01            11172 	.byte	1
00007dee 06            11173 	.byte	6
00007def 44454d5f4d45  11174 	.strz	"DEM_MEMMAP_ERROR "
00007df5 4d4d41505f45 
00007dfb 52524f522000 
00007e01 01            11175 	.byte	1
00007e02 3a            11176 	.byte	58

                                                                      Page 283
                                                              C:\Users\nhuliyap\AppData\Local\Temp\gh_0000d8g1.s
00007e03 4253575f5354  11177 	.strz	"BSW_START_SEC_CONST_UNSPECIFIED "
00007e09 4152545f5345 
00007e0f 435f434f4e53 
00007e15 545f554e5350 
00007e1b 454349464945 
00007e21 442000 
00007e24 03            11178 	.byte	3
00007e25 3b            11179 	.byte	59
00007e26 13            11180 	.byte	19
00007e27 01            11181 	.byte	1
00007e28 f005          11182 	.byte	240,5
00007e2a 53544152545f  11183 	.strz	"START_SEC_CONST_UNSPECIFIED "
00007e30 5345435f434f 
00007e36 4e53545f554e 
00007e3c 535045434946 
00007e42 4945442000 
00007e47 03            11184 	.byte	3
00007e48 bb09          11185 	.byte	187,9
00007e4a 14            11186 	.byte	20
00007e4b 01            11187 	.byte	1
00007e4c b408          11188 	.byte	180,8
00007e4e 434f4e53545f  11189 	.strz	"CONST_SEC_OPEN "
00007e54 5345435f4f50 
00007e5a 454e2000 
00007e5e 04            11190 	.byte	4
00007e5f 04            11191 	.byte	4
00007e60 01            11192 	.byte	1
00007e61 3f            11193 	.byte	63
00007e62 44454d5f5741  11194 	.strz	"DEM_WAS_STARTED_SEC_ROM_CONST "
00007e68 535f53544152 
00007e6e 5445445f5345 
00007e74 435f524f4d5f 
00007e7a 434f4e535420 
00007e80 00 
00007e81 04            11195 	.byte	4
00007e82 01            11196 	.byte	1
00007e83 1a            11197 	.byte	26
00007e84 44454d5f5354  11198 	.strz	"DEM_STOP_SEC_ROM_CONST "
00007e8a 4f505f534543 
00007e90 5f524f4d5f43 
00007e96 4f4e53542000 
00007e9c 03            11199 	.byte	3
00007e9d 1b            11200 	.byte	27
00007e9e 12            11201 	.byte	18
00007e9f 01            11202 	.byte	1
00007ea0 06            11203 	.byte	6
00007ea1 44454d5f4d45  11204 	.strz	"DEM_MEMMAP_ERROR "
00007ea7 4d4d41505f45 
00007ead 52524f522000 
00007eb3 01            11205 	.byte	1
00007eb4 47            11206 	.byte	71
00007eb5 4253575f5354  11207 	.strz	"BSW_STOP_SEC_CONST_UNSPECIFIED "
00007ebb 4f505f534543 
00007ec1 5f434f4e5354 
00007ec7 5f554e535045 
00007ecd 434946494544 
00007ed3 2000 
00007ed5 03            11208 	.byte	3
00007ed6 48            11209 	.byte	72
00007ed7 13            11210 	.byte	19
00007ed8 01            11211 	.byte	1

                                                                      Page 284
                                                              C:\Users\nhuliyap\AppData\Local\Temp\gh_0000d8g1.s
00007ed9 f405          11212 	.byte	244,5
00007edb 53544f505f53  11213 	.strz	"STOP_SEC_CONST "
00007ee1 45435f434f4e 
00007ee7 53542000 
00007eeb 03            11214 	.byte	3
00007eec bb09          11215 	.byte	187,9
00007eee 14            11216 	.byte	20
00007eef 04            11217 	.byte	4
00007ef0 04            11218 	.byte	4
00007ef1 04            11219 	.byte	4
00007ef2 04            11220 	.byte	4
00007ef3 04            11221 	.byte	4
00007ef4 03            11222 	.byte	3
00007ef5 09            11223 	.byte	9
00007ef6 63            11224 	.byte	99
00007ef7 03            11225 	.byte	3
00007ef8 06            11226 	.byte	6
00007ef9 64            11227 	.byte	100
00007efa 03            11228 	.byte	3
00007efb 07            11229 	.byte	7
00007efc 65            11230 	.byte	101
00007efd 01            11231 	.byte	1
00007efe 11            11232 	.byte	17
00007eff 44454d5f5354  11233 	.strz	"DEM_START_SEC_ROM_CONST "
00007f05 4152545f5345 
00007f0b 435f524f4d5f 
00007f11 434f4e535420 
00007f17 00 
00007f18 03            11234 	.byte	3
00007f19 12            11235 	.byte	18
00007f1a 12            11236 	.byte	18
00007f1b 01            11237 	.byte	1
00007f1c 06            11238 	.byte	6
00007f1d 44454d5f4d45  11239 	.strz	"DEM_MEMMAP_ERROR "
00007f23 4d4d41505f45 
00007f29 52524f522000 
00007f2f 01            11240 	.byte	1
00007f30 3a            11241 	.byte	58
00007f31 4253575f5354  11242 	.strz	"BSW_START_SEC_CONST_UNSPECIFIED "
00007f37 4152545f5345 
00007f3d 435f434f4e53 
00007f43 545f554e5350 
00007f49 454349464945 
00007f4f 442000 
00007f52 03            11243 	.byte	3
00007f53 3b            11244 	.byte	59
00007f54 13            11245 	.byte	19
00007f55 01            11246 	.byte	1
00007f56 f005          11247 	.byte	240,5
00007f58 53544152545f  11248 	.strz	"START_SEC_CONST_UNSPECIFIED "
00007f5e 5345435f434f 
00007f64 4e53545f554e 
00007f6a 535045434946 
00007f70 4945442000 
00007f75 03            11249 	.byte	3
00007f76 bb09          11250 	.byte	187,9
00007f78 14            11251 	.byte	20
00007f79 01            11252 	.byte	1
00007f7a b408          11253 	.byte	180,8
00007f7c 434f4e53545f  11254 	.strz	"CONST_SEC_OPEN "
00007f82 5345435f4f50 

                                                                      Page 285
                                                              C:\Users\nhuliyap\AppData\Local\Temp\gh_0000d8g1.s
00007f88 454e2000 
00007f8c 04            11255 	.byte	4
00007f8d 04            11256 	.byte	4
00007f8e 01            11257 	.byte	1
00007f8f 3f            11258 	.byte	63
00007f90 44454d5f5741  11259 	.strz	"DEM_WAS_STARTED_SEC_ROM_CONST "
00007f96 535f53544152 
00007f9c 5445445f5345 
00007fa2 435f524f4d5f 
00007fa8 434f4e535420 
00007fae 00 
00007faf 04            11260 	.byte	4
00007fb0 01            11261 	.byte	1
00007fb1 16            11262 	.byte	22
00007fb2 44454d5f5354  11263 	.strz	"DEM_STOP_SEC_ROM_CONST "
00007fb8 4f505f534543 
00007fbe 5f524f4d5f43 
00007fc4 4f4e53542000 
00007fca 03            11264 	.byte	3
00007fcb 17            11265 	.byte	23
00007fcc 12            11266 	.byte	18
00007fcd 01            11267 	.byte	1
00007fce 06            11268 	.byte	6
00007fcf 44454d5f4d45  11269 	.strz	"DEM_MEMMAP_ERROR "
00007fd5 4d4d41505f45 
00007fdb 52524f522000 
00007fe1 01            11270 	.byte	1
00007fe2 47            11271 	.byte	71
00007fe3 4253575f5354  11272 	.strz	"BSW_STOP_SEC_CONST_UNSPECIFIED "
00007fe9 4f505f534543 
00007fef 5f434f4e5354 
00007ff5 5f554e535045 
00007ffb 434946494544 
00008001 2000 
00008003 03            11273 	.byte	3
00008004 48            11274 	.byte	72
00008005 13            11275 	.byte	19
00008006 01            11276 	.byte	1
00008007 f405          11277 	.byte	244,5
00008009 53544f505f53  11278 	.strz	"STOP_SEC_CONST "
0000800f 45435f434f4e 
00008015 53542000 
00008019 03            11279 	.byte	3
0000801a bb09          11280 	.byte	187,9
0000801c 14            11281 	.byte	20
0000801d 04            11282 	.byte	4
0000801e 04            11283 	.byte	4
0000801f 04            11284 	.byte	4
00008020 04            11285 	.byte	4
00008021 01            11286 	.byte	1
00008022 0a            11287 	.byte	10
00008023 44454d5f5354  11288 	.strz	"DEM_START_SEC_RAM_CLEARED "
00008029 4152545f5345 
0000802f 435f52414d5f 
00008035 434c45415245 
0000803b 442000 
0000803e 03            11289 	.byte	3
0000803f 0b            11290 	.byte	11
00008040 12            11291 	.byte	18
00008041 01            11292 	.byte	1
00008042 06            11293 	.byte	6

                                                                      Page 286
                                                              C:\Users\nhuliyap\AppData\Local\Temp\gh_0000d8g1.s
00008043 44454d5f4d45  11294 	.strz	"DEM_MEMMAP_ERROR "
00008049 4d4d41505f45 
0000804f 52524f522000 
00008055 01            11295 	.byte	1
00008056 0c            11296 	.byte	12
00008057 4253575f5354  11297 	.strz	"BSW_START_SEC_VAR_CLEARED_UNSPECIFIED "
0000805d 4152545f5345 
00008063 435f5641525f 
00008069 434c45415245 
0000806f 445f554e5350 
00008075 454349464945 
0000807b 442000 
0000807e 03            11298 	.byte	3
0000807f 0d            11299 	.byte	13
00008080 13            11300 	.byte	19
00008081 01            11301 	.byte	1
00008082 42            11302 	.byte	66
00008083 53544152545f  11303 	.strz	"START_SEC_VAR_CLEARED_UNSPECIFIED "
00008089 5345435f5641 
0000808f 525f434c4541 
00008095 5245445f554e 
0000809b 535045434946 
000080a1 4945442000 
000080a6 03            11304 	.byte	3
000080a7 bb09          11305 	.byte	187,9
000080a9 14            11306 	.byte	20
000080aa 01            11307 	.byte	1
000080ab 56            11308 	.byte	86
000080ac 53544152545f  11309 	.strz	"START_SEC_VAR_ZERO_INIT_UNSPECIFIED "
000080b2 5345435f5641 
000080b8 525f5a45524f 
000080be 5f494e49545f 
000080c4 554e53504543 
000080ca 494649454420 
000080d0 00 
000080d1 01            11310 	.byte	1
000080d2 840a          11311 	.byte	132,10
000080d4 5641525f5345  11312 	.strz	"VAR_SEC_OPEN "
000080da 435f4f50454e 
000080e0 2000 
000080e2 04            11313 	.byte	4
000080e3 04            11314 	.byte	4
000080e4 01            11315 	.byte	1
000080e5 11            11316 	.byte	17
000080e6 44454d5f5741  11317 	.strz	"DEM_WAS_STARTED_SEC_RAM_CLEARED "
000080ec 535f53544152 
000080f2 5445445f5345 
000080f8 435f52414d5f 
000080fe 434c45415245 
00008104 442000 
00008107 04            11318 	.byte	4
00008108 01            11319 	.byte	1
00008109 0f            11320 	.byte	15
0000810a 44454d5f5354  11321 	.strz	"DEM_STOP_SEC_RAM_CLEARED "
00008110 4f505f534543 
00008116 5f52414d5f43 
0000811c 4c4541524544 
00008122 2000 
00008124 03            11322 	.byte	3
00008125 10            11323 	.byte	16
00008126 12            11324 	.byte	18

                                                                      Page 287
                                                              C:\Users\nhuliyap\AppData\Local\Temp\gh_0000d8g1.s
00008127 01            11325 	.byte	1
00008128 06            11326 	.byte	6
00008129 44454d5f4d45  11327 	.strz	"DEM_MEMMAP_ERROR "
0000812f 4d4d41505f45 
00008135 52524f522000 
0000813b 01            11328 	.byte	1
0000813c 19            11329 	.byte	25
0000813d 4253575f5354  11330 	.strz	"BSW_STOP_SEC_VAR_CLEARED_UNSPECIFIED "
00008143 4f505f534543 
00008149 5f5641525f43 
0000814f 4c4541524544 
00008155 5f554e535045 
0000815b 434946494544 
00008161 2000 
00008163 03            11331 	.byte	3
00008164 1a            11332 	.byte	26
00008165 13            11333 	.byte	19
00008166 01            11334 	.byte	1
00008167 46            11335 	.byte	70
00008168 53544f505f53  11336 	.strz	"STOP_SEC_VAR "
0000816e 45435f564152 
00008174 2000 
00008176 03            11337 	.byte	3
00008177 bb09          11338 	.byte	187,9
00008179 14            11339 	.byte	20
0000817a 04            11340 	.byte	4
0000817b 04            11341 	.byte	4
0000817c 04            11342 	.byte	4
0000817d 01            11343 	.byte	1
0000817e 12            11344 	.byte	18
0000817f 44454d5f5354  11345 	.strz	"DEM_START_SEC_ROM_CODE "
00008185 4152545f5345 
0000818b 435f524f4d5f 
00008191 434f44452000 
00008197 03            11346 	.byte	3
00008198 13            11347 	.byte	19
00008199 12            11348 	.byte	18
0000819a 01            11349 	.byte	1
0000819b 06            11350 	.byte	6
0000819c 44454d5f4d45  11351 	.strz	"DEM_MEMMAP_ERROR "
000081a2 4d4d41505f45 
000081a8 52524f522000 
000081ae 01            11352 	.byte	1
000081af 51            11353 	.byte	81
000081b0 4253575f5354  11354 	.strz	"BSW_START_SEC_CODE "
000081b6 4152545f5345 
000081bc 435f434f4445 
000081c2 2000 
000081c4 03            11355 	.byte	3
000081c5 52            11356 	.byte	82
000081c6 13            11357 	.byte	19
000081c7 01            11358 	.byte	1
000081c8 da08          11359 	.byte	218,8
000081ca 53544152545f  11360 	.strz	"START_SEC_CODE "
000081d0 5345435f434f 
000081d6 44452000 
000081da 03            11361 	.byte	3
000081db bb09          11362 	.byte	187,9
000081dd 14            11363 	.byte	20
000081de 01            11364 	.byte	1
000081df f307          11365 	.byte	243,7

                                                                      Page 288
                                                              C:\Users\nhuliyap\AppData\Local\Temp\gh_0000d8g1.s
000081e1 434f44455f53  11366 	.strz	"CODE_SEC_OPEN "
000081e7 45435f4f5045 
000081ed 4e2000 
000081f0 04            11367 	.byte	4
000081f1 04            11368 	.byte	4
000081f2 01            11369 	.byte	1
000081f3 56            11370 	.byte	86
000081f4 44454d5f5741  11371 	.strz	"DEM_WAS_STARTED_SEC_ROM_CODE "
000081fa 535f53544152 
00008200 5445445f5345 
00008206 435f524f4d5f 
0000820c 434f44452000 
00008212 04            11372 	.byte	4
00008213 01            11373 	.byte	1
00008214 1e            11374 	.byte	30
00008215 44454d5f5354  11375 	.strz	"DEM_STOP_SEC_ROM_CODE "
0000821b 4f505f534543 
00008221 5f524f4d5f43 
00008227 4f44452000 
0000822c 03            11376 	.byte	3
0000822d 1f            11377 	.byte	31
0000822e 12            11378 	.byte	18
0000822f 01            11379 	.byte	1
00008230 06            11380 	.byte	6
00008231 44454d5f4d45  11381 	.strz	"DEM_MEMMAP_ERROR "
00008237 4d4d41505f45 
0000823d 52524f522000 
00008243 01            11382 	.byte	1
00008244 5e            11383 	.byte	94
00008245 4253575f5354  11384 	.strz	"BSW_STOP_SEC_CODE "
0000824b 4f505f534543 
00008251 5f434f444520 
00008257 00 
00008258 03            11385 	.byte	3
00008259 5f            11386 	.byte	95
0000825a 13            11387 	.byte	19
0000825b 01            11388 	.byte	1
0000825c de08          11389 	.byte	222,8
0000825e 53544f505f53  11390 	.strz	"STOP_SEC_CODE "
00008264 45435f434f44 
0000826a 452000 
0000826d 03            11391 	.byte	3
0000826e bb09          11392 	.byte	187,9
00008270 14            11393 	.byte	20
00008271 04            11394 	.byte	4
00008272 04            11395 	.byte	4
00008273 04            11396 	.byte	4
00008274 04            11397 	.byte	4
00008275 03            11398 	.byte	3
00008276 07            11399 	.byte	7
00008277 66            11400 	.byte	102
00008278 01            11401 	.byte	1
00008279 08            11402 	.byte	8
0000827a 44454d5f4556  11403 	.strz	"DEM_EVMEMGEN_DTCIDS_BY_OCCURRENCE_TIME_ARRAYSIZE 5u"
00008280 4d454d47454e 
00008286 5f4454434944 
0000828c 535f42595f4f 
00008292 434355525245 
00008298 4e43455f5449 
0000829e 4d455f415252 
000082a4 415953495a45 

                                                                      Page 289
                                                              C:\Users\nhuliyap\AppData\Local\Temp\gh_0000d8g1.s
000082aa 20357500 
000082ae 01            11404 	.byte	1
000082af 09            11405 	.byte	9
000082b0 44454d5f4556  11406 	.strz	"DEM_EVMEMGEN_OVERFLOW_ARRAYSIZE 5u"
000082b6 4d454d47454e 
000082bc 5f4f56455246 
000082c2 4c4f575f4152 
000082c8 52415953495a 
000082ce 4520357500 
000082d3 04            11407 	.byte	4
000082d4 01            11408 	.byte	1
000082d5 19            11409 	.byte	25
000082d6 44454d5f5354  11410 	.strz	"DEM_START_SEC_SAVED_ZONE "
000082dc 4152545f5345 
000082e2 435f53415645 
000082e8 445f5a4f4e45 
000082ee 2000 
000082f0 03            11411 	.byte	3
000082f1 1a            11412 	.byte	26
000082f2 12            11413 	.byte	18
000082f3 01            11414 	.byte	1
000082f4 06            11415 	.byte	6
000082f5 44454d5f4d45  11416 	.strz	"DEM_MEMMAP_ERROR "
000082fb 4d4d41505f45 
00008301 52524f522000 
00008307 01            11417 	.byte	1
00008308 9601          11418 	.byte	150,1
0000830a 4253575f5354  11419 	.strz	"BSW_START_SEC_VAR_SAVED_ZONE_UNSPECIFIED "
00008310 4152545f5345 
00008316 435f5641525f 
0000831c 53415645445f 
00008322 5a4f4e455f55 
00008328 4e5350454349 
0000832e 464945442000 
00008334 03            11420 	.byte	3
00008335 9701          11421 	.byte	151,1
00008337 13            11422 	.byte	19
00008338 03            11423 	.byte	3
00008339 bb09          11424 	.byte	187,9
0000833b 14            11425 	.byte	20
0000833c 04            11426 	.byte	4
0000833d 04            11427 	.byte	4
0000833e 01            11428 	.byte	1
0000833f 9b01          11429 	.byte	155,1
00008341 44454d5f5741  11430 	.strz	"DEM_WAS_STARTED_SEC_SAVED_ZONE "
00008347 535f53544152 
0000834d 5445445f5345 
00008353 435f53415645 
00008359 445f5a4f4e45 
0000835f 2000 
00008361 04            11431 	.byte	4
00008362 01            11432 	.byte	1
00008363 1c            11433 	.byte	28
00008364 44454d5f5354  11434 	.strz	"DEM_STOP_SEC_SAVED_ZONE "
0000836a 4f505f534543 
00008370 5f5341564544 
00008376 5f5a4f4e4520 
0000837c 00 
0000837d 03            11435 	.byte	3
0000837e 1d            11436 	.byte	29
0000837f 12            11437 	.byte	18

                                                                      Page 290
                                                              C:\Users\nhuliyap\AppData\Local\Temp\gh_0000d8g1.s
00008380 01            11438 	.byte	1
00008381 06            11439 	.byte	6
00008382 44454d5f4d45  11440 	.strz	"DEM_MEMMAP_ERROR "
00008388 4d4d41505f45 
0000838e 52524f522000 
00008394 01            11441 	.byte	1
00008395 a301          11442 	.byte	163,1
00008397 4253575f5354  11443 	.strz	"BSW_STOP_SEC_VAR_SAVED_ZONE_UNSPECIFIED "
0000839d 4f505f534543 
000083a3 5f5641525f53 
000083a9 415645445f5a 
000083af 4f4e455f554e 
000083b5 535045434946 
000083bb 4945442000 
000083c0 03            11444 	.byte	3
000083c1 a401          11445 	.byte	164,1
000083c3 13            11446 	.byte	19
000083c4 03            11447 	.byte	3
000083c5 bb09          11448 	.byte	187,9
000083c7 14            11449 	.byte	20
000083c8 04            11450 	.byte	4
000083c9 04            11451 	.byte	4
000083ca 04            11452 	.byte	4
000083cb 04            11453 	.byte	4
000083cc 03            11454 	.byte	3
000083cd 0a            11455 	.byte	10
000083ce 23            11456 	.byte	35
000083cf 04            11457 	.byte	4
000083d0 01            11458 	.byte	1
000083d1 33            11459 	.byte	51
000083d2 44454d5f4e56  11460 	.strz	"DEM_NVM_STATUSBITMASK_NONE 0x00u"
000083d8 4d5f53544154 
000083de 55534249544d 
000083e4 41534b5f4e4f 
000083ea 4e4520307830 
000083f0 307500 
000083f3 01            11461 	.byte	1
000083f4 34            11462 	.byte	52
000083f5 44454d5f4e56  11463 	.strz	"DEM_NVM_STATUSBITMASK_SHUTDOWN 0x01u"
000083fb 4d5f53544154 
00008401 55534249544d 
00008407 41534b5f5348 
0000840d 5554444f574e 
00008413 203078303175 
00008419 00 
0000841a 01            11464 	.byte	1
0000841b 35            11465 	.byte	53
0000841c 44454d5f4e56  11466 	.strz	"DEM_NVM_STATUSBITMASK_IMMEDIATE 0x02u"
00008422 4d5f53544154 
00008428 55534249544d 
0000842e 41534b5f494d 
00008434 4d4544494154 
0000843a 452030783032 
00008440 7500 
00008442 01            11467 	.byte	1
00008443 37            11468 	.byte	55
00008444 44454d5f4e56  11469 	.strz	"DEM_NVM_STATUSBITMASK_CLEAR 0x08u"
0000844a 4d5f53544154 
00008450 55534249544d 
00008456 41534b5f434c 
0000845c 454152203078 

                                                                      Page 291
                                                              C:\Users\nhuliyap\AppData\Local\Temp\gh_0000d8g1.s
00008462 30387500 
00008466 01            11470 	.byte	1
00008467 38            11471 	.byte	56
00008468 44454d5f4e56  11472 	.strz	"DEM_NVM_STATUSBITMASK_INVALIDATE 0x10u"
0000846e 4d5f53544154 
00008474 55534249544d 
0000847a 41534b5f494e 
00008480 56414c494441 
00008486 544520307831 
0000848c 307500 
0000848f 01            11473 	.byte	1
00008490 3a            11474 	.byte	58
00008491 44454d5f4e56  11475 	.strz	"DEM_NVM_STATUSBITMASK_EXCLUDE 0x40u"
00008497 4d5f53544154 
0000849d 55534249544d 
000084a3 41534b5f4558 
000084a9 434c55444520 
000084af 307834307500 
000084b5 01            11476 	.byte	1
000084b6 3e            11477 	.byte	62
000084b7 44454d5f4e56  11478 	.strz	"DEM_NVM_STATUSINDEX_SHUTDOWN 1u"
000084bd 4d5f53544154 
000084c3 5553494e4445 
000084c9 585f53485554 
000084cf 444f574e2031 
000084d5 7500 
000084d7 01            11479 	.byte	1
000084d8 3f            11480 	.byte	63
000084d9 44454d5f4e56  11481 	.strz	"DEM_NVM_STATUSINDEX_IMMEDIATE 2u"
000084df 4d5f53544154 
000084e5 5553494e4445 
000084eb 585f494d4d45 
000084f1 444941544520 
000084f7 327500 
000084fa 01            11482 	.byte	1
000084fb 40            11483 	.byte	64
000084fc 44454d5f4e56  11484 	.strz	"DEM_NVM_STATUSINDEX_CLEAR 3u"
00008502 4d5f53544154 
00008508 5553494e4445 
0000850e 585f434c4541 
00008514 5220337500 
00008519 01            11485 	.byte	1
0000851a 41            11486 	.byte	65
0000851b 44454d5f4e56  11487 	.strz	"DEM_NVM_STATUSINDEX_EXCLUDE 4u"
00008521 4d5f53544154 
00008527 5553494e4445 
0000852d 585f4558434c 
00008533 554445203475 
00008539 00 
0000853a 01            11488 	.byte	1
0000853b 44            11489 	.byte	68
0000853c 44454d5f4e56  11490 	.strz	"DEM_NVM_PENDING NVM_REQ_PENDING"
00008542 4d5f50454e44 
00008548 494e47204e56 
0000854e 4d5f5245515f 
00008554 50454e44494e 
0000855a 4700 
0000855c 01            11491 	.byte	1
0000855d 45            11492 	.byte	69
0000855e 44454d5f4e56  11493 	.strz	"DEM_NVM_SUCCESS NVM_REQ_OK"
00008564 4d5f53554343 

                                                                      Page 292
                                                              C:\Users\nhuliyap\AppData\Local\Temp\gh_0000d8g1.s
0000856a 455353204e56 
00008570 4d5f5245515f 
00008576 4f4b00 
00008579 01            11494 	.byte	1
0000857a 46            11495 	.byte	70
0000857b 44454d5f4e56  11496 	.strz	"DEM_NVM_CANCELED NVM_REQ_CANCELED"
00008581 4d5f43414e43 
00008587 454c4544204e 
0000858d 564d5f524551 
00008593 5f43414e4345 
00008599 4c454400 
0000859d 01            11497 	.byte	1
0000859e 47            11498 	.byte	71
0000859f 44454d5f4e56  11499 	.strz	"DEM_NVM_FAILED NVM_REQ_NOT_OK"
000085a5 4d5f4641494c 
000085ab 4544204e564d 
000085b1 5f5245515f4e 
000085b7 4f545f4f4b00 
000085bd 01            11500 	.byte	1
000085be 48            11501 	.byte	72
000085bf 44454d5f4e56  11502 	.strz	"DEM_NVM_INVALID NVM_REQ_NV_INVALIDATED"
000085c5 4d5f494e5641 
000085cb 4c4944204e56 
000085d1 4d5f5245515f 
000085d7 4e565f494e56 
000085dd 414c49444154 
000085e3 454400 
000085e6 01            11503 	.byte	1
000085e7 49            11504 	.byte	73
000085e8 44454d5f4e56  11505 	.strz	"DEM_NVM_INTEGRITY_FAILED NVM_REQ_INTEGRITY_FAILED"
000085ee 4d5f494e5445 
000085f4 47524954595f 
000085fa 4641494c4544 
00008600 204e564d5f52 
00008606 45515f494e54 
0000860c 454752495459 
00008612 5f4641494c45 
00008618 4400 
0000861a 01            11506 	.byte	1
0000861b 4a            11507 	.byte	74
0000861c 44454d5f4e56  11508 	.strz	"DEM_NVM_BLOCK_SKIPPED NVM_REQ_BLOCK_SKIPPED"
00008622 4d5f424c4f43 
00008628 4b5f534b4950 
0000862e 504544204e56 
00008634 4d5f5245515f 
0000863a 424c4f434b5f 
00008640 534b49505045 
00008646 4400 
00008648 04            11509 	.byte	4
00008649 01            11510 	.byte	1
0000864a 0e            11511 	.byte	14
0000864b 44454d5f5354  11512 	.strz	"DEM_START_SEC_RAM_CLEARED "
00008651 4152545f5345 
00008657 435f52414d5f 
0000865d 434c45415245 
00008663 442000 
00008666 03            11513 	.byte	3
00008667 0f            11514 	.byte	15
00008668 12            11515 	.byte	18
00008669 01            11516 	.byte	1
0000866a 06            11517 	.byte	6

                                                                      Page 293
                                                              C:\Users\nhuliyap\AppData\Local\Temp\gh_0000d8g1.s
0000866b 44454d5f4d45  11518 	.strz	"DEM_MEMMAP_ERROR "
00008671 4d4d41505f45 
00008677 52524f522000 
0000867d 01            11519 	.byte	1
0000867e 0c            11520 	.byte	12
0000867f 4253575f5354  11521 	.strz	"BSW_START_SEC_VAR_CLEARED_UNSPECIFIED "
00008685 4152545f5345 
0000868b 435f5641525f 
00008691 434c45415245 
00008697 445f554e5350 
0000869d 454349464945 
000086a3 442000 
000086a6 03            11522 	.byte	3
000086a7 0d            11523 	.byte	13
000086a8 13            11524 	.byte	19
000086a9 01            11525 	.byte	1
000086aa 42            11526 	.byte	66
000086ab 53544152545f  11527 	.strz	"START_SEC_VAR_CLEARED_UNSPECIFIED "
000086b1 5345435f5641 
000086b7 525f434c4541 
000086bd 5245445f554e 
000086c3 535045434946 
000086c9 4945442000 
000086ce 03            11528 	.byte	3
000086cf bb09          11529 	.byte	187,9
000086d1 14            11530 	.byte	20
000086d2 01            11531 	.byte	1
000086d3 56            11532 	.byte	86
000086d4 53544152545f  11533 	.strz	"START_SEC_VAR_ZERO_INIT_UNSPECIFIED "
000086da 5345435f5641 
000086e0 525f5a45524f 
000086e6 5f494e49545f 
000086ec 554e53504543 
000086f2 494649454420 
000086f8 00 
000086f9 01            11534 	.byte	1
000086fa 840a          11535 	.byte	132,10
000086fc 5641525f5345  11536 	.strz	"VAR_SEC_OPEN "
00008702 435f4f50454e 
00008708 2000 
0000870a 04            11537 	.byte	4
0000870b 04            11538 	.byte	4
0000870c 01            11539 	.byte	1
0000870d 11            11540 	.byte	17
0000870e 44454d5f5741  11541 	.strz	"DEM_WAS_STARTED_SEC_RAM_CLEARED "
00008714 535f53544152 
0000871a 5445445f5345 
00008720 435f52414d5f 
00008726 434c45415245 
0000872c 442000 
0000872f 04            11542 	.byte	4
00008730 01            11543 	.byte	1
00008731 1d            11544 	.byte	29
00008732 44454d5f5354  11545 	.strz	"DEM_STOP_SEC_RAM_CLEARED "
00008738 4f505f534543 
0000873e 5f52414d5f43 
00008744 4c4541524544 
0000874a 2000 
0000874c 03            11546 	.byte	3
0000874d 1e            11547 	.byte	30
0000874e 12            11548 	.byte	18

                                                                      Page 294
                                                              C:\Users\nhuliyap\AppData\Local\Temp\gh_0000d8g1.s
0000874f 01            11549 	.byte	1
00008750 06            11550 	.byte	6
00008751 44454d5f4d45  11551 	.strz	"DEM_MEMMAP_ERROR "
00008757 4d4d41505f45 
0000875d 52524f522000 
00008763 01            11552 	.byte	1
00008764 19            11553 	.byte	25
00008765 4253575f5354  11554 	.strz	"BSW_STOP_SEC_VAR_CLEARED_UNSPECIFIED "
0000876b 4f505f534543 
00008771 5f5641525f43 
00008777 4c4541524544 
0000877d 5f554e535045 
00008783 434946494544 
00008789 2000 
0000878b 03            11555 	.byte	3
0000878c 1a            11556 	.byte	26
0000878d 13            11557 	.byte	19
0000878e 01            11558 	.byte	1
0000878f 46            11559 	.byte	70
00008790 53544f505f53  11560 	.strz	"STOP_SEC_VAR "
00008796 45435f564152 
0000879c 2000 
0000879e 03            11561 	.byte	3
0000879f bb09          11562 	.byte	187,9
000087a1 14            11563 	.byte	20
000087a2 04            11564 	.byte	4
000087a3 04            11565 	.byte	4
000087a4 04            11566 	.byte	4
000087a5 01            11567 	.byte	1
000087a6 20            11568 	.byte	32
000087a7 44454d5f5354  11569 	.strz	"DEM_START_SEC_ROM_CONST "
000087ad 4152545f5345 
000087b3 435f524f4d5f 
000087b9 434f4e535420 
000087bf 00 
000087c0 03            11570 	.byte	3
000087c1 21            11571 	.byte	33
000087c2 12            11572 	.byte	18
000087c3 01            11573 	.byte	1
000087c4 06            11574 	.byte	6
000087c5 44454d5f4d45  11575 	.strz	"DEM_MEMMAP_ERROR "
000087cb 4d4d41505f45 
000087d1 52524f522000 
000087d7 01            11576 	.byte	1
000087d8 3a            11577 	.byte	58
000087d9 4253575f5354  11578 	.strz	"BSW_START_SEC_CONST_UNSPECIFIED "
000087df 4152545f5345 
000087e5 435f434f4e53 
000087eb 545f554e5350 
000087f1 454349464945 
000087f7 442000 
000087fa 03            11579 	.byte	3
000087fb 3b            11580 	.byte	59
000087fc 13            11581 	.byte	19
000087fd 01            11582 	.byte	1
000087fe f005          11583 	.byte	240,5
00008800 53544152545f  11584 	.strz	"START_SEC_CONST_UNSPECIFIED "
00008806 5345435f434f 
0000880c 4e53545f554e 
00008812 535045434946 
00008818 4945442000 

                                                                      Page 295
                                                              C:\Users\nhuliyap\AppData\Local\Temp\gh_0000d8g1.s
0000881d 03            11585 	.byte	3
0000881e bb09          11586 	.byte	187,9
00008820 14            11587 	.byte	20
00008821 01            11588 	.byte	1
00008822 b408          11589 	.byte	180,8
00008824 434f4e53545f  11590 	.strz	"CONST_SEC_OPEN "
0000882a 5345435f4f50 
00008830 454e2000 
00008834 04            11591 	.byte	4
00008835 04            11592 	.byte	4
00008836 01            11593 	.byte	1
00008837 3f            11594 	.byte	63
00008838 44454d5f5741  11595 	.strz	"DEM_WAS_STARTED_SEC_ROM_CONST "
0000883e 535f53544152 
00008844 5445445f5345 
0000884a 435f524f4d5f 
00008850 434f4e535420 
00008856 00 
00008857 04            11596 	.byte	4
00008858 01            11597 	.byte	1
00008859 2a            11598 	.byte	42
0000885a 44454d5f5354  11599 	.strz	"DEM_STOP_SEC_ROM_CONST "
00008860 4f505f534543 
00008866 5f524f4d5f43 
0000886c 4f4e53542000 
00008872 03            11600 	.byte	3
00008873 2b            11601 	.byte	43
00008874 12            11602 	.byte	18
00008875 01            11603 	.byte	1
00008876 06            11604 	.byte	6
00008877 44454d5f4d45  11605 	.strz	"DEM_MEMMAP_ERROR "
0000887d 4d4d41505f45 
00008883 52524f522000 
00008889 01            11606 	.byte	1
0000888a 47            11607 	.byte	71
0000888b 4253575f5354  11608 	.strz	"BSW_STOP_SEC_CONST_UNSPECIFIED "
00008891 4f505f534543 
00008897 5f434f4e5354 
0000889d 5f554e535045 
000088a3 434946494544 
000088a9 2000 
000088ab 03            11609 	.byte	3
000088ac 48            11610 	.byte	72
000088ad 13            11611 	.byte	19
000088ae 01            11612 	.byte	1
000088af f405          11613 	.byte	244,5
000088b1 53544f505f53  11614 	.strz	"STOP_SEC_CONST "
000088b7 45435f434f4e 
000088bd 53542000 
000088c1 03            11615 	.byte	3
000088c2 bb09          11616 	.byte	187,9
000088c4 14            11617 	.byte	20
000088c5 04            11618 	.byte	4
000088c6 04            11619 	.byte	4
000088c7 04            11620 	.byte	4
000088c8 04            11621 	.byte	4
000088c9 03            11622 	.byte	3
000088ca 1c            11623 	.byte	28
000088cb 67            11624 	.byte	103
000088cc 03            11625 	.byte	3
000088cd 0f            11626 	.byte	15

                                                                      Page 296
                                                              C:\Users\nhuliyap\AppData\Local\Temp\gh_0000d8g1.s
000088ce 68            11627 	.byte	104
000088cf 04            11628 	.byte	4
000088d0 04            11629 	.byte	4
000088d1 03            11630 	.byte	3
000088d2 1f            11631 	.byte	31
000088d3 69            11632 	.byte	105
000088d4 03            11633 	.byte	3
000088d5 07            11634 	.byte	7
000088d6 6a            11635 	.byte	106
000088d7 03            11636 	.byte	3
000088d8 09            11637 	.byte	9
000088d9 6b            11638 	.byte	107
000088da 01            11639 	.byte	1
000088db 06            11640 	.byte	6
000088dc 5242415f4449  11641 	.strz	"RBA_DIAGLIB_START_SEC_ROM_CODE "
000088e2 41474c49425f 
000088e8 53544152545f 
000088ee 5345435f524f 
000088f4 4d5f434f4445 
000088fa 2000 
000088fc 03            11642 	.byte	3
000088fd 07            11643 	.byte	7
000088fe 6c            11644 	.byte	108
000088ff 01            11645 	.byte	1
00008900 06            11646 	.byte	6
00008901 4d454d4d4150  11647 	.strz	"MEMMAP_ERROR "
00008907 5f4552524f52 
0000890d 2000 
0000890f 01            11648 	.byte	1
00008910 51            11649 	.byte	81
00008911 4253575f5354  11650 	.strz	"BSW_START_SEC_DEFAULT_CODE "
00008917 4152545f5345 
0000891d 435f44454641 
00008923 554c545f434f 
00008929 44452000 
0000892d 03            11651 	.byte	3
0000892e 52            11652 	.byte	82
0000892f 13            11653 	.byte	19
00008930 01            11654 	.byte	1
00008931 d308          11655 	.byte	211,8
00008933 53544152545f  11656 	.strz	"START_SEC_CODE "
00008939 5345435f434f 
0000893f 44452000 
00008943 03            11657 	.byte	3
00008944 bb09          11658 	.byte	187,9
00008946 14            11659 	.byte	20
00008947 01            11660 	.byte	1
00008948 f307          11661 	.byte	243,7
0000894a 434f44455f53  11662 	.strz	"CODE_SEC_OPEN "
00008950 45435f4f5045 
00008956 4e2000 
00008959 04            11663 	.byte	4
0000895a 04            11664 	.byte	4
0000895b 01            11665 	.byte	1
0000895c 56            11666 	.byte	86
0000895d 5242415f4449  11667 	.strz	"RBA_DIAGLIB_WAS_STARTED_SEC_ROM_CODE "
00008963 41474c49425f 
00008969 5741535f5354 
0000896f 41525445445f 
00008975 5345435f524f 
0000897b 4d5f434f4445 

                                                                      Page 297
                                                              C:\Users\nhuliyap\AppData\Local\Temp\gh_0000d8g1.s
00008981 2000 
00008983 04            11668 	.byte	4
00008984 01            11669 	.byte	1
00008985 3b            11670 	.byte	59
00008986 5242415f4449  11671 	.strz	"RBA_DIAGLIB_STOP_SEC_ROM_CODE "
0000898c 41474c49425f 
00008992 53544f505f53 
00008998 45435f524f4d 
0000899e 5f434f444520 
000089a4 00 
000089a5 03            11672 	.byte	3
000089a6 3c            11673 	.byte	60
000089a7 6c            11674 	.byte	108
000089a8 01            11675 	.byte	1
000089a9 06            11676 	.byte	6
000089aa 4d454d4d4150  11677 	.strz	"MEMMAP_ERROR "
000089b0 5f4552524f52 
000089b6 2000 
000089b8 01            11678 	.byte	1
000089b9 5e            11679 	.byte	94
000089ba 4253575f5354  11680 	.strz	"BSW_STOP_SEC_DEFAULT_CODE "
000089c0 4f505f534543 
000089c6 5f4445464155 
000089cc 4c545f434f44 
000089d2 452000 
000089d5 03            11681 	.byte	3
000089d6 5f            11682 	.byte	95
000089d7 13            11683 	.byte	19
000089d8 01            11684 	.byte	1
000089d9 d608          11685 	.byte	214,8
000089db 53544f505f53  11686 	.strz	"STOP_SEC_CODE "
000089e1 45435f434f44 
000089e7 452000 
000089ea 03            11687 	.byte	3
000089eb bb09          11688 	.byte	187,9
000089ed 14            11689 	.byte	20
000089ee 04            11690 	.byte	4
000089ef 04            11691 	.byte	4
000089f0 04            11692 	.byte	4
000089f1 04            11693 	.byte	4
000089f2 04            11694 	.byte	4
000089f3 01            11695 	.byte	1
000089f4 0e            11696 	.byte	14
000089f5 44454d5f5245  11697 	.strz	"DEM_RECOV (1u)"
000089fb 434f56202831 
00008a01 752900 
00008a04 01            11698 	.byte	1
00008a05 12            11699 	.byte	18
00008a06 44454d5f4445  11700 	.strz	"DEM_DEBOUNCE_FREEZE (0u)"
00008a0c 424f554e4345 
00008a12 5f465245455a 
00008a18 452028307529 
00008a1e 00 
00008a1f 01            11701 	.byte	1
00008a20 18            11702 	.byte	24
00008a21 44454d5f4e4f  11703 	.strz	"DEM_NO_STATUS_BYTE_CHANGE (0u)"
00008a27 5f5354415455 
00008a2d 535f42595445 
00008a33 5f4348414e47 
00008a39 452028307529 
00008a3f 00 

                                                                      Page 298
                                                              C:\Users\nhuliyap\AppData\Local\Temp\gh_0000d8g1.s
00008a40 04            11704 	.byte	4
00008a41 01            11705 	.byte	1
00008a42 64            11706 	.byte	100
00008a43 44454d5f5354  11707 	.strz	"DEM_START_SEC_ROM_CONST "
00008a49 4152545f5345 
00008a4f 435f524f4d5f 
00008a55 434f4e535420 
00008a5b 00 
00008a5c 03            11708 	.byte	3
00008a5d 65            11709 	.byte	101
00008a5e 12            11710 	.byte	18
00008a5f 01            11711 	.byte	1
00008a60 06            11712 	.byte	6
00008a61 44454d5f4d45  11713 	.strz	"DEM_MEMMAP_ERROR "
00008a67 4d4d41505f45 
00008a6d 52524f522000 
00008a73 01            11714 	.byte	1
00008a74 3a            11715 	.byte	58
00008a75 4253575f5354  11716 	.strz	"BSW_START_SEC_CONST_UNSPECIFIED "
00008a7b 4152545f5345 
00008a81 435f434f4e53 
00008a87 545f554e5350 
00008a8d 454349464945 
00008a93 442000 
00008a96 03            11717 	.byte	3
00008a97 3b            11718 	.byte	59
00008a98 13            11719 	.byte	19
00008a99 01            11720 	.byte	1
00008a9a f005          11721 	.byte	240,5
00008a9c 53544152545f  11722 	.strz	"START_SEC_CONST_UNSPECIFIED "
00008aa2 5345435f434f 
00008aa8 4e53545f554e 
00008aae 535045434946 
00008ab4 4945442000 
00008ab9 03            11723 	.byte	3
00008aba bb09          11724 	.byte	187,9
00008abc 14            11725 	.byte	20
00008abd 01            11726 	.byte	1
00008abe b408          11727 	.byte	180,8
00008ac0 434f4e53545f  11728 	.strz	"CONST_SEC_OPEN "
00008ac6 5345435f4f50 
00008acc 454e2000 
00008ad0 04            11729 	.byte	4
00008ad1 04            11730 	.byte	4
00008ad2 01            11731 	.byte	1
00008ad3 3f            11732 	.byte	63
00008ad4 44454d5f5741  11733 	.strz	"DEM_WAS_STARTED_SEC_ROM_CONST "
00008ada 535f53544152 
00008ae0 5445445f5345 
00008ae6 435f524f4d5f 
00008aec 434f4e535420 
00008af2 00 
00008af3 04            11734 	.byte	4
00008af4 01            11735 	.byte	1
00008af5 77            11736 	.byte	119
00008af6 44454d5f5354  11737 	.strz	"DEM_STOP_SEC_ROM_CONST "
00008afc 4f505f534543 
00008b02 5f524f4d5f43 
00008b08 4f4e53542000 
00008b0e 03            11738 	.byte	3
00008b0f 78            11739 	.byte	120

                                                                      Page 299
                                                              C:\Users\nhuliyap\AppData\Local\Temp\gh_0000d8g1.s
00008b10 12            11740 	.byte	18
00008b11 01            11741 	.byte	1
00008b12 06            11742 	.byte	6
00008b13 44454d5f4d45  11743 	.strz	"DEM_MEMMAP_ERROR "
00008b19 4d4d41505f45 
00008b1f 52524f522000 
00008b25 01            11744 	.byte	1
00008b26 47            11745 	.byte	71
00008b27 4253575f5354  11746 	.strz	"BSW_STOP_SEC_CONST_UNSPECIFIED "
00008b2d 4f505f534543 
00008b33 5f434f4e5354 
00008b39 5f554e535045 
00008b3f 434946494544 
00008b45 2000 
00008b47 03            11747 	.byte	3
00008b48 48            11748 	.byte	72
00008b49 13            11749 	.byte	19
00008b4a 01            11750 	.byte	1
00008b4b f405          11751 	.byte	244,5
00008b4d 53544f505f53  11752 	.strz	"STOP_SEC_CONST "
00008b53 45435f434f4e 
00008b59 53542000 
00008b5d 03            11753 	.byte	3
00008b5e bb09          11754 	.byte	187,9
00008b60 14            11755 	.byte	20
00008b61 04            11756 	.byte	4
00008b62 04            11757 	.byte	4
00008b63 04            11758 	.byte	4
00008b64 01            11759 	.byte	1
00008b65 7a            11760 	.byte	122
00008b66 44454d5f5354  11761 	.strz	"DEM_START_SEC_SAVED_ZONE "
00008b6c 4152545f5345 
00008b72 435f53415645 
00008b78 445f5a4f4e45 
00008b7e 2000 
00008b80 03            11762 	.byte	3
00008b81 7b            11763 	.byte	123
00008b82 12            11764 	.byte	18
00008b83 01            11765 	.byte	1
00008b84 06            11766 	.byte	6
00008b85 44454d5f4d45  11767 	.strz	"DEM_MEMMAP_ERROR "
00008b8b 4d4d41505f45 
00008b91 52524f522000 
00008b97 01            11768 	.byte	1
00008b98 9601          11769 	.byte	150,1
00008b9a 4253575f5354  11770 	.strz	"BSW_START_SEC_VAR_SAVED_ZONE_UNSPECIFIED "
00008ba0 4152545f5345 
00008ba6 435f5641525f 
00008bac 53415645445f 
00008bb2 5a4f4e455f55 
00008bb8 4e5350454349 
00008bbe 464945442000 
00008bc4 03            11771 	.byte	3
00008bc5 9701          11772 	.byte	151,1
00008bc7 13            11773 	.byte	19
00008bc8 03            11774 	.byte	3
00008bc9 bb09          11775 	.byte	187,9
00008bcb 14            11776 	.byte	20
00008bcc 04            11777 	.byte	4
00008bcd 04            11778 	.byte	4
00008bce 01            11779 	.byte	1

                                                                      Page 300
                                                              C:\Users\nhuliyap\AppData\Local\Temp\gh_0000d8g1.s
00008bcf 9b01          11780 	.byte	155,1
00008bd1 44454d5f5741  11781 	.strz	"DEM_WAS_STARTED_SEC_SAVED_ZONE "
00008bd7 535f53544152 
00008bdd 5445445f5345 
00008be3 435f53415645 
00008be9 445f5a4f4e45 
00008bef 2000 
00008bf1 04            11782 	.byte	4
00008bf2 01            11783 	.byte	1
00008bf3 8101          11784 	.byte	129,1
00008bf5 44454d5f5354  11785 	.strz	"DEM_STOP_SEC_SAVED_ZONE "
00008bfb 4f505f534543 
00008c01 5f5341564544 
00008c07 5f5a4f4e4520 
00008c0d 00 
00008c0e 03            11786 	.byte	3
00008c0f 8201          11787 	.byte	130,1
00008c11 12            11788 	.byte	18
00008c12 01            11789 	.byte	1
00008c13 06            11790 	.byte	6
00008c14 44454d5f4d45  11791 	.strz	"DEM_MEMMAP_ERROR "
00008c1a 4d4d41505f45 
00008c20 52524f522000 
00008c26 01            11792 	.byte	1
00008c27 a301          11793 	.byte	163,1
00008c29 4253575f5354  11794 	.strz	"BSW_STOP_SEC_VAR_SAVED_ZONE_UNSPECIFIED "
00008c2f 4f505f534543 
00008c35 5f5641525f53 
00008c3b 415645445f5a 
00008c41 4f4e455f554e 
00008c47 535045434946 
00008c4d 4945442000 
00008c52 03            11795 	.byte	3
00008c53 a401          11796 	.byte	164,1
00008c55 13            11797 	.byte	19
00008c56 03            11798 	.byte	3
00008c57 bb09          11799 	.byte	187,9
00008c59 14            11800 	.byte	20
00008c5a 04            11801 	.byte	4
00008c5b 04            11802 	.byte	4
00008c5c 04            11803 	.byte	4
00008c5d 01            11804 	.byte	1
00008c5e 8401          11805 	.byte	132,1
00008c60 44454d5f5354  11806 	.strz	"DEM_START_SEC_RAM_CLEARED "
00008c66 4152545f5345 
00008c6c 435f52414d5f 
00008c72 434c45415245 
00008c78 442000 
00008c7b 03            11807 	.byte	3
00008c7c 8501          11808 	.byte	133,1
00008c7e 12            11809 	.byte	18
00008c7f 01            11810 	.byte	1
00008c80 06            11811 	.byte	6
00008c81 44454d5f4d45  11812 	.strz	"DEM_MEMMAP_ERROR "
00008c87 4d4d41505f45 
00008c8d 52524f522000 
00008c93 01            11813 	.byte	1
00008c94 0c            11814 	.byte	12
00008c95 4253575f5354  11815 	.strz	"BSW_START_SEC_VAR_CLEARED_UNSPECIFIED "
00008c9b 4152545f5345 
00008ca1 435f5641525f 

                                                                      Page 301
                                                              C:\Users\nhuliyap\AppData\Local\Temp\gh_0000d8g1.s
00008ca7 434c45415245 
00008cad 445f554e5350 
00008cb3 454349464945 
00008cb9 442000 
00008cbc 03            11816 	.byte	3
00008cbd 0d            11817 	.byte	13
00008cbe 13            11818 	.byte	19
00008cbf 01            11819 	.byte	1
00008cc0 42            11820 	.byte	66
00008cc1 53544152545f  11821 	.strz	"START_SEC_VAR_CLEARED_UNSPECIFIED "
00008cc7 5345435f5641 
00008ccd 525f434c4541 
00008cd3 5245445f554e 
00008cd9 535045434946 
00008cdf 4945442000 
00008ce4 03            11822 	.byte	3
00008ce5 bb09          11823 	.byte	187,9
00008ce7 14            11824 	.byte	20
00008ce8 01            11825 	.byte	1
00008ce9 56            11826 	.byte	86
00008cea 53544152545f  11827 	.strz	"START_SEC_VAR_ZERO_INIT_UNSPECIFIED "
00008cf0 5345435f5641 
00008cf6 525f5a45524f 
00008cfc 5f494e49545f 
00008d02 554e53504543 
00008d08 494649454420 
00008d0e 00 
00008d0f 01            11828 	.byte	1
00008d10 840a          11829 	.byte	132,10
00008d12 5641525f5345  11830 	.strz	"VAR_SEC_OPEN "
00008d18 435f4f50454e 
00008d1e 2000 
00008d20 04            11831 	.byte	4
00008d21 04            11832 	.byte	4
00008d22 01            11833 	.byte	1
00008d23 11            11834 	.byte	17
00008d24 44454d5f5741  11835 	.strz	"DEM_WAS_STARTED_SEC_RAM_CLEARED "
00008d2a 535f53544152 
00008d30 5445445f5345 
00008d36 435f52414d5f 
00008d3c 434c45415245 
00008d42 442000 
00008d45 04            11836 	.byte	4
00008d46 01            11837 	.byte	1
00008d47 8f01          11838 	.byte	143,1
00008d49 44454d5f5354  11839 	.strz	"DEM_STOP_SEC_RAM_CLEARED "
00008d4f 4f505f534543 
00008d55 5f52414d5f43 
00008d5b 4c4541524544 
00008d61 2000 
00008d63 03            11840 	.byte	3
00008d64 9001          11841 	.byte	144,1
00008d66 12            11842 	.byte	18
00008d67 01            11843 	.byte	1
00008d68 06            11844 	.byte	6
00008d69 44454d5f4d45  11845 	.strz	"DEM_MEMMAP_ERROR "
00008d6f 4d4d41505f45 
00008d75 52524f522000 
00008d7b 01            11846 	.byte	1
00008d7c 19            11847 	.byte	25
00008d7d 4253575f5354  11848 	.strz	"BSW_STOP_SEC_VAR_CLEARED_UNSPECIFIED "

                                                                      Page 302
                                                              C:\Users\nhuliyap\AppData\Local\Temp\gh_0000d8g1.s
00008d83 4f505f534543 
00008d89 5f5641525f43 
00008d8f 4c4541524544 
00008d95 5f554e535045 
00008d9b 434946494544 
00008da1 2000 
00008da3 03            11849 	.byte	3
00008da4 1a            11850 	.byte	26
00008da5 13            11851 	.byte	19
00008da6 01            11852 	.byte	1
00008da7 46            11853 	.byte	70
00008da8 53544f505f53  11854 	.strz	"STOP_SEC_VAR "
00008dae 45435f564152 
00008db4 2000 
00008db6 03            11855 	.byte	3
00008db7 bb09          11856 	.byte	187,9
00008db9 14            11857 	.byte	20
00008dba 04            11858 	.byte	4
00008dbb 04            11859 	.byte	4
00008dbc 04            11860 	.byte	4
00008dbd 01            11861 	.byte	1
00008dbe ec01          11862 	.byte	236,1
00008dc0 44454d5f5354  11863 	.strz	"DEM_START_SEC_ROM_CODE "
00008dc6 4152545f5345 
00008dcc 435f524f4d5f 
00008dd2 434f44452000 
00008dd8 03            11864 	.byte	3
00008dd9 ed01          11865 	.byte	237,1
00008ddb 12            11866 	.byte	18
00008ddc 01            11867 	.byte	1
00008ddd 06            11868 	.byte	6
00008dde 44454d5f4d45  11869 	.strz	"DEM_MEMMAP_ERROR "
00008de4 4d4d41505f45 
00008dea 52524f522000 
00008df0 01            11870 	.byte	1
00008df1 51            11871 	.byte	81
00008df2 4253575f5354  11872 	.strz	"BSW_START_SEC_CODE "
00008df8 4152545f5345 
00008dfe 435f434f4445 
00008e04 2000 
00008e06 03            11873 	.byte	3
00008e07 52            11874 	.byte	82
00008e08 13            11875 	.byte	19
00008e09 01            11876 	.byte	1
00008e0a da08          11877 	.byte	218,8
00008e0c 53544152545f  11878 	.strz	"START_SEC_CODE "
00008e12 5345435f434f 
00008e18 44452000 
00008e1c 03            11879 	.byte	3
00008e1d bb09          11880 	.byte	187,9
00008e1f 14            11881 	.byte	20
00008e20 01            11882 	.byte	1
00008e21 f307          11883 	.byte	243,7
00008e23 434f44455f53  11884 	.strz	"CODE_SEC_OPEN "
00008e29 45435f4f5045 
00008e2f 4e2000 
00008e32 04            11885 	.byte	4
00008e33 04            11886 	.byte	4
00008e34 01            11887 	.byte	1
00008e35 56            11888 	.byte	86
00008e36 44454d5f5741  11889 	.strz	"DEM_WAS_STARTED_SEC_ROM_CODE "

                                                                      Page 303
                                                              C:\Users\nhuliyap\AppData\Local\Temp\gh_0000d8g1.s
00008e3c 535f53544152 
00008e42 5445445f5345 
00008e48 435f524f4d5f 
00008e4e 434f44452000 
00008e54 04            11890 	.byte	4
00008e55 01            11891 	.byte	1
00008e56 fe01          11892 	.byte	254,1
00008e58 44454d5f5354  11893 	.strz	"DEM_STOP_SEC_ROM_CODE "
00008e5e 4f505f534543 
00008e64 5f524f4d5f43 
00008e6a 4f44452000 
00008e6f 03            11894 	.byte	3
00008e70 ff01          11895 	.byte	255,1
00008e72 12            11896 	.byte	18
00008e73 01            11897 	.byte	1
00008e74 06            11898 	.byte	6
00008e75 44454d5f4d45  11899 	.strz	"DEM_MEMMAP_ERROR "
00008e7b 4d4d41505f45 
00008e81 52524f522000 
00008e87 01            11900 	.byte	1
00008e88 5e            11901 	.byte	94
00008e89 4253575f5354  11902 	.strz	"BSW_STOP_SEC_CODE "
00008e8f 4f505f534543 
00008e95 5f434f444520 
00008e9b 00 
00008e9c 03            11903 	.byte	3
00008e9d 5f            11904 	.byte	95
00008e9e 13            11905 	.byte	19
00008e9f 01            11906 	.byte	1
00008ea0 de08          11907 	.byte	222,8
00008ea2 53544f505f53  11908 	.strz	"STOP_SEC_CODE "
00008ea8 45435f434f44 
00008eae 452000 
00008eb1 03            11909 	.byte	3
00008eb2 bb09          11910 	.byte	187,9
00008eb4 14            11911 	.byte	20
00008eb5 04            11912 	.byte	4
00008eb6 04            11913 	.byte	4
00008eb7 04            11914 	.byte	4
00008eb8 04            11915 	.byte	4
00008eb9 01            11916 	.byte	1
00008eba 0f            11917 	.byte	15
00008ebb 44454d5f5354  11918 	.strz	"DEM_START_SEC_SAVED_ZONE "
00008ec1 4152545f5345 
00008ec7 435f53415645 
00008ecd 445f5a4f4e45 
00008ed3 2000 
00008ed5 03            11919 	.byte	3
00008ed6 10            11920 	.byte	16
00008ed7 12            11921 	.byte	18
00008ed8 01            11922 	.byte	1
00008ed9 06            11923 	.byte	6
00008eda 44454d5f4d45  11924 	.strz	"DEM_MEMMAP_ERROR "
00008ee0 4d4d41505f45 
00008ee6 52524f522000 
00008eec 01            11925 	.byte	1
00008eed 9601          11926 	.byte	150,1
00008eef 4253575f5354  11927 	.strz	"BSW_START_SEC_VAR_SAVED_ZONE_UNSPECIFIED "
00008ef5 4152545f5345 
00008efb 435f5641525f 
00008f01 53415645445f 

                                                                      Page 304
                                                              C:\Users\nhuliyap\AppData\Local\Temp\gh_0000d8g1.s
00008f07 5a4f4e455f55 
00008f0d 4e5350454349 
00008f13 464945442000 
00008f19 03            11928 	.byte	3
00008f1a 9701          11929 	.byte	151,1
00008f1c 13            11930 	.byte	19
00008f1d 03            11931 	.byte	3
00008f1e bb09          11932 	.byte	187,9
00008f20 14            11933 	.byte	20
00008f21 04            11934 	.byte	4
00008f22 04            11935 	.byte	4
00008f23 01            11936 	.byte	1
00008f24 9b01          11937 	.byte	155,1
00008f26 44454d5f5741  11938 	.strz	"DEM_WAS_STARTED_SEC_SAVED_ZONE "
00008f2c 535f53544152 
00008f32 5445445f5345 
00008f38 435f53415645 
00008f3e 445f5a4f4e45 
00008f44 2000 
00008f46 04            11939 	.byte	4
00008f47 01            11940 	.byte	1
00008f48 14            11941 	.byte	20
00008f49 44454d5f5354  11942 	.strz	"DEM_STOP_SEC_SAVED_ZONE "
00008f4f 4f505f534543 
00008f55 5f5341564544 
00008f5b 5f5a4f4e4520 
00008f61 00 
00008f62 03            11943 	.byte	3
00008f63 15            11944 	.byte	21
00008f64 12            11945 	.byte	18
00008f65 01            11946 	.byte	1
00008f66 06            11947 	.byte	6
00008f67 44454d5f4d45  11948 	.strz	"DEM_MEMMAP_ERROR "
00008f6d 4d4d41505f45 
00008f73 52524f522000 
00008f79 01            11949 	.byte	1
00008f7a a301          11950 	.byte	163,1
00008f7c 4253575f5354  11951 	.strz	"BSW_STOP_SEC_VAR_SAVED_ZONE_UNSPECIFIED "
00008f82 4f505f534543 
00008f88 5f5641525f53 
00008f8e 415645445f5a 
00008f94 4f4e455f554e 
00008f9a 535045434946 
00008fa0 4945442000 
00008fa5 03            11952 	.byte	3
00008fa6 a401          11953 	.byte	164,1
00008fa8 13            11954 	.byte	19
00008fa9 03            11955 	.byte	3
00008faa bb09          11956 	.byte	187,9
00008fac 14            11957 	.byte	20
00008fad 04            11958 	.byte	4
00008fae 04            11959 	.byte	4
00008faf 04            11960 	.byte	4
00008fb0 01            11961 	.byte	1
00008fb1 17            11962 	.byte	23
00008fb2 44454d5f5354  11963 	.strz	"DEM_START_SEC_RAM_CLEARED "
00008fb8 4152545f5345 
00008fbe 435f52414d5f 
00008fc4 434c45415245 
00008fca 442000 
00008fcd 03            11964 	.byte	3

                                                                      Page 305
                                                              C:\Users\nhuliyap\AppData\Local\Temp\gh_0000d8g1.s
00008fce 18            11965 	.byte	24
00008fcf 12            11966 	.byte	18
00008fd0 01            11967 	.byte	1
00008fd1 06            11968 	.byte	6
00008fd2 44454d5f4d45  11969 	.strz	"DEM_MEMMAP_ERROR "
00008fd8 4d4d41505f45 
00008fde 52524f522000 
00008fe4 01            11970 	.byte	1
00008fe5 0c            11971 	.byte	12
00008fe6 4253575f5354  11972 	.strz	"BSW_START_SEC_VAR_CLEARED_UNSPECIFIED "
00008fec 4152545f5345 
00008ff2 435f5641525f 
00008ff8 434c45415245 
00008ffe 445f554e5350 
00009004 454349464945 
0000900a 442000 
0000900d 03            11973 	.byte	3
0000900e 0d            11974 	.byte	13
0000900f 13            11975 	.byte	19
00009010 01            11976 	.byte	1
00009011 42            11977 	.byte	66
00009012 53544152545f  11978 	.strz	"START_SEC_VAR_CLEARED_UNSPECIFIED "
00009018 5345435f5641 
0000901e 525f434c4541 
00009024 5245445f554e 
0000902a 535045434946 
00009030 4945442000 
00009035 03            11979 	.byte	3
00009036 bb09          11980 	.byte	187,9
00009038 14            11981 	.byte	20
00009039 01            11982 	.byte	1
0000903a 56            11983 	.byte	86
0000903b 53544152545f  11984 	.strz	"START_SEC_VAR_ZERO_INIT_UNSPECIFIED "
00009041 5345435f5641 
00009047 525f5a45524f 
0000904d 5f494e49545f 
00009053 554e53504543 
00009059 494649454420 
0000905f 00 
00009060 01            11985 	.byte	1
00009061 840a          11986 	.byte	132,10
00009063 5641525f5345  11987 	.strz	"VAR_SEC_OPEN "
00009069 435f4f50454e 
0000906f 2000 
00009071 04            11988 	.byte	4
00009072 04            11989 	.byte	4
00009073 01            11990 	.byte	1
00009074 11            11991 	.byte	17
00009075 44454d5f5741  11992 	.strz	"DEM_WAS_STARTED_SEC_RAM_CLEARED "
0000907b 535f53544152 
00009081 5445445f5345 
00009087 435f52414d5f 
0000908d 434c45415245 
00009093 442000 
00009096 04            11993 	.byte	4
00009097 01            11994 	.byte	1
00009098 1e            11995 	.byte	30
00009099 44454d5f5354  11996 	.strz	"DEM_STOP_SEC_RAM_CLEARED "
0000909f 4f505f534543 
000090a5 5f52414d5f43 
000090ab 4c4541524544 

                                                                      Page 306
                                                              C:\Users\nhuliyap\AppData\Local\Temp\gh_0000d8g1.s
000090b1 2000 
000090b3 03            11997 	.byte	3
000090b4 1f            11998 	.byte	31
000090b5 12            11999 	.byte	18
000090b6 01            12000 	.byte	1
000090b7 06            12001 	.byte	6
000090b8 44454d5f4d45  12002 	.strz	"DEM_MEMMAP_ERROR "
000090be 4d4d41505f45 
000090c4 52524f522000 
000090ca 01            12003 	.byte	1
000090cb 19            12004 	.byte	25
000090cc 4253575f5354  12005 	.strz	"BSW_STOP_SEC_VAR_CLEARED_UNSPECIFIED "
000090d2 4f505f534543 
000090d8 5f5641525f43 
000090de 4c4541524544 
000090e4 5f554e535045 
000090ea 434946494544 
000090f0 2000 
000090f2 03            12006 	.byte	3
000090f3 1a            12007 	.byte	26
000090f4 13            12008 	.byte	19
000090f5 01            12009 	.byte	1
000090f6 46            12010 	.byte	70
000090f7 53544f505f53  12011 	.strz	"STOP_SEC_VAR "
000090fd 45435f564152 
00009103 2000 
00009105 03            12012 	.byte	3
00009106 bb09          12013 	.byte	187,9
00009108 14            12014 	.byte	20
00009109 04            12015 	.byte	4
0000910a 04            12016 	.byte	4
0000910b 04            12017 	.byte	4
0000910c 01            12018 	.byte	1
0000910d 21            12019 	.byte	33
0000910e 44454d5f5354  12020 	.strz	"DEM_START_SEC_ROM_CODE "
00009114 4152545f5345 
0000911a 435f524f4d5f 
00009120 434f44452000 
00009126 03            12021 	.byte	3
00009127 22            12022 	.byte	34
00009128 12            12023 	.byte	18
00009129 01            12024 	.byte	1
0000912a 06            12025 	.byte	6
0000912b 44454d5f4d45  12026 	.strz	"DEM_MEMMAP_ERROR "
00009131 4d4d41505f45 
00009137 52524f522000 
0000913d 01            12027 	.byte	1
0000913e 51            12028 	.byte	81
0000913f 4253575f5354  12029 	.strz	"BSW_START_SEC_CODE "
00009145 4152545f5345 
0000914b 435f434f4445 
00009151 2000 
00009153 03            12030 	.byte	3
00009154 52            12031 	.byte	82
00009155 13            12032 	.byte	19
00009156 01            12033 	.byte	1
00009157 da08          12034 	.byte	218,8
00009159 53544152545f  12035 	.strz	"START_SEC_CODE "
0000915f 5345435f434f 
00009165 44452000 
00009169 03            12036 	.byte	3

                                                                      Page 307
                                                              C:\Users\nhuliyap\AppData\Local\Temp\gh_0000d8g1.s
0000916a bb09          12037 	.byte	187,9
0000916c 14            12038 	.byte	20
0000916d 01            12039 	.byte	1
0000916e f307          12040 	.byte	243,7
00009170 434f44455f53  12041 	.strz	"CODE_SEC_OPEN "
00009176 45435f4f5045 
0000917c 4e2000 
0000917f 04            12042 	.byte	4
00009180 04            12043 	.byte	4
00009181 01            12044 	.byte	1
00009182 56            12045 	.byte	86
00009183 44454d5f5741  12046 	.strz	"DEM_WAS_STARTED_SEC_ROM_CODE "
00009189 535f53544152 
0000918f 5445445f5345 
00009195 435f524f4d5f 
0000919b 434f44452000 
000091a1 04            12047 	.byte	4
000091a2 01            12048 	.byte	1
000091a3 2f            12049 	.byte	47
000091a4 44454d5f5354  12050 	.strz	"DEM_STOP_SEC_ROM_CODE "
000091aa 4f505f534543 
000091b0 5f524f4d5f43 
000091b6 4f44452000 
000091bb 03            12051 	.byte	3
000091bc 30            12052 	.byte	48
000091bd 12            12053 	.byte	18
000091be 01            12054 	.byte	1
000091bf 06            12055 	.byte	6
000091c0 44454d5f4d45  12056 	.strz	"DEM_MEMMAP_ERROR "
000091c6 4d4d41505f45 
000091cc 52524f522000 
000091d2 01            12057 	.byte	1
000091d3 5e            12058 	.byte	94
000091d4 4253575f5354  12059 	.strz	"BSW_STOP_SEC_CODE "
000091da 4f505f534543 
000091e0 5f434f444520 
000091e6 00 
000091e7 03            12060 	.byte	3
000091e8 5f            12061 	.byte	95
000091e9 13            12062 	.byte	19
000091ea 01            12063 	.byte	1
000091eb de08          12064 	.byte	222,8
000091ed 53544f505f53  12065 	.strz	"STOP_SEC_CODE "
000091f3 45435f434f44 
000091f9 452000 
000091fc 03            12066 	.byte	3
000091fd bb09          12067 	.byte	187,9
000091ff 14            12068 	.byte	20
00009200 04            12069 	.byte	4
00009201 04            12070 	.byte	4
00009202 04            12071 	.byte	4
00009203 01            12072 	.byte	1
00009204 36            12073 	.byte	54
00009205 44454d5f5354  12074 	.strz	"DEM_START_SEC_ROM_CODE "
0000920b 4152545f5345 
00009211 435f524f4d5f 
00009217 434f44452000 
0000921d 03            12075 	.byte	3
0000921e 37            12076 	.byte	55
0000921f 12            12077 	.byte	18
00009220 01            12078 	.byte	1

                                                                      Page 308
                                                              C:\Users\nhuliyap\AppData\Local\Temp\gh_0000d8g1.s
00009221 06            12079 	.byte	6
00009222 44454d5f4d45  12080 	.strz	"DEM_MEMMAP_ERROR "
00009228 4d4d41505f45 
0000922e 52524f522000 
00009234 01            12081 	.byte	1
00009235 51            12082 	.byte	81
00009236 4253575f5354  12083 	.strz	"BSW_START_SEC_CODE "
0000923c 4152545f5345 
00009242 435f434f4445 
00009248 2000 
0000924a 03            12084 	.byte	3
0000924b 52            12085 	.byte	82
0000924c 13            12086 	.byte	19
0000924d 01            12087 	.byte	1
0000924e da08          12088 	.byte	218,8
00009250 53544152545f  12089 	.strz	"START_SEC_CODE "
00009256 5345435f434f 
0000925c 44452000 
00009260 03            12090 	.byte	3
00009261 bb09          12091 	.byte	187,9
00009263 14            12092 	.byte	20
00009264 01            12093 	.byte	1
00009265 f307          12094 	.byte	243,7
00009267 434f44455f53  12095 	.strz	"CODE_SEC_OPEN "
0000926d 45435f4f5045 
00009273 4e2000 
00009276 04            12096 	.byte	4
00009277 04            12097 	.byte	4
00009278 01            12098 	.byte	1
00009279 56            12099 	.byte	86
0000927a 44454d5f5741  12100 	.strz	"DEM_WAS_STARTED_SEC_ROM_CODE "
00009280 535f53544152 
00009286 5445445f5345 
0000928c 435f524f4d5f 
00009292 434f44452000 
00009298 04            12101 	.byte	4
00009299 01            12102 	.byte	1
0000929a 39            12103 	.byte	57
0000929b 44454d5f5354  12104 	.strz	"DEM_STATUSBYTE_EVENT_UNAVAILABLE (0x00)"
000092a1 415455534259 
000092a7 54455f455645 
000092ad 4e545f554e41 
000092b3 5641494c4142 
000092b9 4c4520283078 
000092bf 30302900 
000092c3 01            12105 	.byte	1
000092c4 3a            12106 	.byte	58
000092c5 44454d5f5354  12107 	.strz	"DEM_STATUSBYTE_NEW_OPERATIONCYCLE_SETMASK (DEM_ISO14229_BM_TESTNOTCOMPLETE_TOC)"
000092cb 415455534259 
000092d1 54455f4e4557 
000092d7 5f4f50455241 
000092dd 54494f4e4359 
000092e3 434c455f5345 
000092e9 544d41534b20 
000092ef 2844454d5f49 
000092f5 534f31343232 
000092fb 395f424d5f54 
00009301 4553544e4f54 
00009307 434f4d504c45 
0000930d 54455f544f43 
00009313 2900 

                                                                      Page 309
                                                              C:\Users\nhuliyap\AppData\Local\Temp\gh_0000d8g1.s
00009315 01            12108 	.byte	1
00009316 3b            12109 	.byte	59
00009317 44454d5f5354  12110 	.strz	"DEM_STATUSBYTE_NEW_OPERATIONCYCLE_CLEARMASK (DEM_ISO14229_BM_TESTFAILED_TOC)"
0000931d 415455534259 
00009323 54455f4e4557 
00009329 5f4f50455241 
0000932f 54494f4e4359 
00009335 434c455f434c 
0000933b 4541524d4153 
00009341 4b202844454d 
00009347 5f49534f3134 
0000934d 3232395f424d 
00009353 5f5445535446 
00009359 41494c45445f 
0000935f 544f432900 
00009364 01            12111 	.byte	1
00009365 a703          12112 	.byte	167,3
00009367 44454d5f5354  12113 	.strz	"DEM_STOP_SEC_ROM_CODE "
0000936d 4f505f534543 
00009373 5f524f4d5f43 
00009379 4f44452000 
0000937e 03            12114 	.byte	3
0000937f a803          12115 	.byte	168,3
00009381 12            12116 	.byte	18
00009382 01            12117 	.byte	1
00009383 06            12118 	.byte	6
00009384 44454d5f4d45  12119 	.strz	"DEM_MEMMAP_ERROR "
0000938a 4d4d41505f45 
00009390 52524f522000 
00009396 01            12120 	.byte	1
00009397 5e            12121 	.byte	94
00009398 4253575f5354  12122 	.strz	"BSW_STOP_SEC_CODE "
0000939e 4f505f534543 
000093a4 5f434f444520 
000093aa 00 
000093ab 03            12123 	.byte	3
000093ac 5f            12124 	.byte	95
000093ad 13            12125 	.byte	19
000093ae 01            12126 	.byte	1
000093af de08          12127 	.byte	222,8
000093b1 53544f505f53  12128 	.strz	"STOP_SEC_CODE "
000093b7 45435f434f44 
000093bd 452000 
000093c0 03            12129 	.byte	3
000093c1 bb09          12130 	.byte	187,9
000093c3 14            12131 	.byte	20
000093c4 04            12132 	.byte	4
000093c5 04            12133 	.byte	4
000093c6 04            12134 	.byte	4
000093c7 04            12135 	.byte	4
000093c8 03            12136 	.byte	3
000093c9 09            12137 	.byte	9
000093ca 6d            12138 	.byte	109
000093cb 04            12139 	.byte	4
000093cc 01            12140 	.byte	1
000093cd 0c            12141 	.byte	12
000093ce 44454d5f4346  12142 	.strz	"DEM_CFG_STATIC_ASSERTION_FOR_NVM_BLOCKLENGTH_ON STD_ON"
000093d4 475f53544154 
000093da 49435f415353 
000093e0 455254494f4e 
000093e6 5f464f525f4e 

                                                                      Page 310
                                                              C:\Users\nhuliyap\AppData\Local\Temp\gh_0000d8g1.s
000093ec 564d5f424c4f 
000093f2 434b4c454e47 
000093f8 54485f4f4e20 
000093fe 5354445f4f4e 
00009404 00 
00009405 01            12143 	.byte	1
00009406 0e            12144 	.byte	14
00009407 44454d5f4346  12145 	.strz	"DEM_CFG_STATIC_ASSERTION_FOR_NVM_BLOCKLENGTH DEM_CFG_STATIC_ASSERTION_FOR_NVM_BLOCKLENGTH_ON"
0000940d 475f53544154 
00009413 49435f415353 
00009419 455254494f4e 
0000941f 5f464f525f4e 
00009425 564d5f424c4f 
0000942b 434b4c454e47 
00009431 54482044454d 
00009437 5f4346475f53 
0000943d 54415449435f 
00009443 415353455254 
00009449 494f4e5f464f 
0000944f 525f4e564d5f 
00009455 424c4f434b4c 
0000945b 454e4754485f 
00009461 4f4e00 
00009464 01            12146 	.byte	1
00009465 12            12147 	.byte	18
00009466 44454d5f4e56  12148 	.strz	"DEM_NVM_ID_DEM_GENERIC_NV_DATA_SIZE 18"
0000946c 4d5f49445f44 
00009472 454d5f47454e 
00009478 455249435f4e 
0000947e 565f44415441 
00009484 5f53495a4520 
0000948a 313800 
0000948d 01            12149 	.byte	1
0000948e 13            12150 	.byte	19
0000948f 44454d5f4e56  12151 	.strz	"DEM_NVM_ID_EVMEM_LOC_0_SIZE 48"
00009495 4d5f49445f45 
0000949b 564d454d5f4c 
000094a1 4f435f305f53 
000094a7 495a45203438 
000094ad 00 
000094ae 01            12152 	.byte	1
000094af 14            12153 	.byte	20
000094b0 44454d5f4e56  12154 	.strz	"DEM_NVM_ID_EVMEM_LOC_1_SIZE 48"
000094b6 4d5f49445f45 
000094bc 564d454d5f4c 
000094c2 4f435f315f53 
000094c8 495a45203438 
000094ce 00 
000094cf 01            12155 	.byte	1
000094d0 15            12156 	.byte	21
000094d1 44454d5f4e56  12157 	.strz	"DEM_NVM_ID_EVMEM_LOC_2_SIZE 48"
000094d7 4d5f49445f45 
000094dd 564d454d5f4c 
000094e3 4f435f325f53 
000094e9 495a45203438 
000094ef 00 
000094f0 01            12158 	.byte	1
000094f1 16            12159 	.byte	22
000094f2 44454d5f4e56  12160 	.strz	"DEM_NVM_ID_EVMEM_LOC_3_SIZE 48"
000094f8 4d5f49445f45 
000094fe 564d454d5f4c 

                                                                      Page 311
                                                              C:\Users\nhuliyap\AppData\Local\Temp\gh_0000d8g1.s
00009504 4f435f335f53 
0000950a 495a45203438 
00009510 00 
00009511 01            12161 	.byte	1
00009512 17            12162 	.byte	23
00009513 44454d5f4e56  12163 	.strz	"DEM_NVM_ID_EVMEM_LOC_4_SIZE 48"
00009519 4d5f49445f45 
0000951f 564d454d5f4c 
00009525 4f435f345f53 
0000952b 495a45203438 
00009531 00 
00009532 01            12164 	.byte	1
00009533 18            12165 	.byte	24
00009534 44454d5f4e56  12166 	.strz	"DEM_NVM_ID_EVMEM_LOC_5_SIZE 48"
0000953a 4d5f49445f45 
00009540 564d454d5f4c 
00009546 4f435f355f53 
0000954c 495a45203438 
00009552 00 
00009553 01            12167 	.byte	1
00009554 19            12168 	.byte	25
00009555 44454d5f4e56  12169 	.strz	"DEM_NVM_ID_EVMEM_LOC_6_SIZE 48"
0000955b 4d5f49445f45 
00009561 564d454d5f4c 
00009567 4f435f365f53 
0000956d 495a45203438 
00009573 00 
00009574 01            12170 	.byte	1
00009575 1a            12171 	.byte	26
00009576 44454d5f4e56  12172 	.strz	"DEM_NVM_ID_EVMEM_LOC_7_SIZE 48"
0000957c 4d5f49445f45 
00009582 564d454d5f4c 
00009588 4f435f375f53 
0000958e 495a45203438 
00009594 00 
00009595 01            12173 	.byte	1
00009596 1b            12174 	.byte	27
00009597 44454d5f4e56  12175 	.strz	"DEM_NVM_ID_EVMEM_LOC_8_SIZE 48"
0000959d 4d5f49445f45 
000095a3 564d454d5f4c 
000095a9 4f435f385f53 
000095af 495a45203438 
000095b5 00 
000095b6 01            12176 	.byte	1
000095b7 1c            12177 	.byte	28
000095b8 44454d5f4e56  12178 	.strz	"DEM_NVM_ID_EVMEM_LOC_9_SIZE 48"
000095be 4d5f49445f45 
000095c4 564d454d5f4c 
000095ca 4f435f395f53 
000095d0 495a45203438 
000095d6 00 
000095d7 01            12179 	.byte	1
000095d8 1d            12180 	.byte	29
000095d9 44454d5f4e56  12181 	.strz	"DEM_NVM_ID_EVT_STATUSBYTE_SIZE 42"
000095df 4d5f49445f45 
000095e5 56545f535441 
000095eb 545553425954 
000095f1 455f53495a45 
000095f7 20343200 
000095fb 04            12182 	.byte	4
000095fc 01            12183 	.byte	1

                                                                      Page 312
                                                              C:\Users\nhuliyap\AppData\Local\Temp\gh_0000d8g1.s
000095fd 11            12184 	.byte	17
000095fe 4e564d5f424c  12185 	.strz	"NVM_BLOCK_MEMBERS_CATEGORY_01 (NVM_CAT01_SIZE_BYTES / NVM_BLOCK_SIZE)"
00009604 4f434b5f4d45 
0000960a 4d424552535f 
00009610 43415445474f 
00009616 52595f303120 
0000961c 284e564d5f43 
00009622 415430315f53 
00009628 495a455f4259 
0000962e 544553202f20 
00009634 4e564d5f424c 
0000963a 4f434b5f5349 
00009640 5a452900 
00009644 01            12186 	.byte	1
00009645 12            12187 	.byte	18
00009646 4e564d5f424c  12188 	.strz	"NVM_BLOCK_MEMBERS_CATEGORY_02 (NVM_CAT02_SIZE_BYTES / NVM_BLOCK_SIZE)"
0000964c 4f434b5f4d45 
00009652 4d424552535f 
00009658 43415445474f 
0000965e 52595f303220 
00009664 284e564d5f43 
0000966a 415430325f53 
00009670 495a455f4259 
00009676 544553202f20 
0000967c 4e564d5f424c 
00009682 4f434b5f5349 
00009688 5a452900 
0000968c 01            12189 	.byte	1
0000968d 13            12190 	.byte	19
0000968e 4e564d5f424c  12191 	.strz	"NVM_BLOCK_MEMBERS_CATEGORY_03 (NVM_CAT03_SIZE_BYTES / NVM_BLOCK_SIZE)"
00009694 4f434b5f4d45 
0000969a 4d424552535f 
000096a0 43415445474f 
000096a6 52595f303320 
000096ac 284e564d5f43 
000096b2 415430335f53 
000096b8 495a455f4259 
000096be 544553202f20 
000096c4 4e564d5f424c 
000096ca 4f434b5f5349 
000096d0 5a452900 
000096d4 01            12192 	.byte	1
000096d5 14            12193 	.byte	20
000096d6 4e564d5f424c  12194 	.strz	"NVM_BLOCK_MEMBERS_CATEGORY_04 (NVM_CAT04_SIZE_BYTES / NVM_BLOCK_SIZE)"
000096dc 4f434b5f4d45 
000096e2 4d424552535f 
000096e8 43415445474f 
000096ee 52595f303420 
000096f4 284e564d5f43 
000096fa 415430345f53 
00009700 495a455f4259 
00009706 544553202f20 
0000970c 4e564d5f424c 
00009712 4f434b5f5349 
00009718 5a452900 
0000971c 01            12195 	.byte	1
0000971d 15            12196 	.byte	21
0000971e 4e564d5f424c  12197 	.strz	"NVM_BLOCK_MEMBERS_CATEGORY_05 (NVM_CAT05_SIZE_BYTES / NVM_BLOCK_SIZE)"
00009724 4f434b5f4d45 
0000972a 4d424552535f 
00009730 43415445474f 

                                                                      Page 313
                                                              C:\Users\nhuliyap\AppData\Local\Temp\gh_0000d8g1.s
00009736 52595f303520 
0000973c 284e564d5f43 
00009742 415430355f53 
00009748 495a455f4259 
0000974e 544553202f20 
00009754 4e564d5f424c 
0000975a 4f434b5f5349 
00009760 5a452900 
00009764 01            12198 	.byte	1
00009765 16            12199 	.byte	22
00009766 4e564d5f424c  12200 	.strz	"NVM_BLOCK_MEMBERS_CATEGORY_06 (NVM_CAT06_SIZE_BYTES / NVM_BLOCK_SIZE)"
0000976c 4f434b5f4d45 
00009772 4d424552535f 
00009778 43415445474f 
0000977e 52595f303620 
00009784 284e564d5f43 
0000978a 415430365f53 
00009790 495a455f4259 
00009796 544553202f20 
0000979c 4e564d5f424c 
000097a2 4f434b5f5349 
000097a8 5a452900 
000097ac 01            12201 	.byte	1
000097ad 17            12202 	.byte	23
000097ae 4e564d5f424c  12203 	.strz	"NVM_BLOCK_MEMBERS_CATEGORY_07 (NVM_CAT07_SIZE_BYTES / NVM_BLOCK_SIZE)"
000097b4 4f434b5f4d45 
000097ba 4d424552535f 
000097c0 43415445474f 
000097c6 52595f303720 
000097cc 284e564d5f43 
000097d2 415430375f53 
000097d8 495a455f4259 
000097de 544553202f20 
000097e4 4e564d5f424c 
000097ea 4f434b5f5349 
000097f0 5a452900 
000097f4 01            12204 	.byte	1
000097f5 18            12205 	.byte	24
000097f6 4e564d5f424c  12206 	.strz	"NVM_BLOCK_MEMBERS_CATEGORY_08 (NVM_CAT08_SIZE_BYTES / NVM_BLOCK_SIZE)"
000097fc 4f434b5f4d45 
00009802 4d424552535f 
00009808 43415445474f 
0000980e 52595f303820 
00009814 284e564d5f43 
0000981a 415430385f53 
00009820 495a455f4259 
00009826 544553202f20 
0000982c 4e564d5f424c 
00009832 4f434b5f5349 
00009838 5a452900 
0000983c 01            12207 	.byte	1
0000983d 19            12208 	.byte	25
0000983e 4e564d5f424c  12209 	.strz	"NVM_BLOCK_MEMBERS_CATEGORY_09 (NVM_CAT09_SIZE_BYTES / NVM_BLOCK_SIZE)"
00009844 4f434b5f4d45 
0000984a 4d424552535f 
00009850 43415445474f 
00009856 52595f303920 
0000985c 284e564d5f43 
00009862 415430395f53 
00009868 495a455f4259 
0000986e 544553202f20 

                                                                      Page 314
                                                              C:\Users\nhuliyap\AppData\Local\Temp\gh_0000d8g1.s
00009874 4e564d5f424c 
0000987a 4f434b5f5349 
00009880 5a452900 
00009884 01            12210 	.byte	1
00009885 1a            12211 	.byte	26
00009886 4e564d5f424c  12212 	.strz	"NVM_BLOCK_MEMBERS_CATEGORY_10 (NVM_CAT10_SIZE_BYTES / NVM_BLOCK_SIZE)"
0000988c 4f434b5f4d45 
00009892 4d424552535f 
00009898 43415445474f 
0000989e 52595f313020 
000098a4 284e564d5f43 
000098aa 415431305f53 
000098b0 495a455f4259 
000098b6 544553202f20 
000098bc 4e564d5f424c 
000098c2 4f434b5f5349 
000098c8 5a452900 
000098cc 01            12213 	.byte	1
000098cd 1c            12214 	.byte	28
000098ce 4e564d5f4355  12215 	.strz	"NVM_CUMULATED_BLOCKS_CAT01 NVM_BLOCK_MEMBERS_CATEGORY_01"
000098d4 4d554c415445 
000098da 445f424c4f43 
000098e0 4b535f434154 
000098e6 3031204e564d 
000098ec 5f424c4f434b 
000098f2 5f4d454d4245 
000098f8 52535f434154 
000098fe 45474f52595f 
00009904 303100 
00009907 01            12216 	.byte	1
00009908 1d            12217 	.byte	29
00009909 4e564d5f4355  12218 	.strz	"NVM_CUMULATED_BLOCKS_CAT02 (NVM_CUMULATED_BLOCKS_CAT01 + NVM_BLOCK_MEMBERS_CATEGORY_02)"
0000990f 4d554c415445 
00009915 445f424c4f43 
0000991b 4b535f434154 
00009921 303220284e56 
00009927 4d5f43554d55 
0000992d 4c415445445f 
00009933 424c4f434b53 
00009939 5f4341543031 
0000993f 202b204e564d 
00009945 5f424c4f434b 
0000994b 5f4d454d4245 
00009951 52535f434154 
00009957 45474f52595f 
0000995d 30322900 
00009961 01            12219 	.byte	1
00009962 1e            12220 	.byte	30
00009963 4e564d5f4355  12221 	.strz	"NVM_CUMULATED_BLOCKS_CAT03 (NVM_CUMULATED_BLOCKS_CAT02 + NVM_BLOCK_MEMBERS_CATEGORY_03)"
00009969 4d554c415445 
0000996f 445f424c4f43 
00009975 4b535f434154 
0000997b 303320284e56 
00009981 4d5f43554d55 
00009987 4c415445445f 
0000998d 424c4f434b53 
00009993 5f4341543032 
00009999 202b204e564d 
0000999f 5f424c4f434b 
000099a5 5f4d454d4245 
000099ab 52535f434154 

                                                                      Page 315
                                                              C:\Users\nhuliyap\AppData\Local\Temp\gh_0000d8g1.s
000099b1 45474f52595f 
000099b7 30332900 
000099bb 01            12222 	.byte	1
000099bc 1f            12223 	.byte	31
000099bd 4e564d5f4355  12224 	.strz	"NVM_CUMULATED_BLOCKS_CAT04 (NVM_CUMULATED_BLOCKS_CAT03 + NVM_BLOCK_MEMBERS_CATEGORY_04)"
000099c3 4d554c415445 
000099c9 445f424c4f43 
000099cf 4b535f434154 
000099d5 303420284e56 
000099db 4d5f43554d55 
000099e1 4c415445445f 
000099e7 424c4f434b53 
000099ed 5f4341543033 
000099f3 202b204e564d 
000099f9 5f424c4f434b 
000099ff 5f4d454d4245 
00009a05 52535f434154 
00009a0b 45474f52595f 
00009a11 30342900 
00009a15 01            12225 	.byte	1
00009a16 20            12226 	.byte	32
00009a17 4e564d5f4355  12227 	.strz	"NVM_CUMULATED_BLOCKS_CAT05 (NVM_CUMULATED_BLOCKS_CAT04 + NVM_BLOCK_MEMBERS_CATEGORY_05)"
00009a1d 4d554c415445 
00009a23 445f424c4f43 
00009a29 4b535f434154 
00009a2f 303520284e56 
00009a35 4d5f43554d55 
00009a3b 4c415445445f 
00009a41 424c4f434b53 
00009a47 5f4341543034 
00009a4d 202b204e564d 
00009a53 5f424c4f434b 
00009a59 5f4d454d4245 
00009a5f 52535f434154 
00009a65 45474f52595f 
00009a6b 30352900 
00009a6f 01            12228 	.byte	1
00009a70 21            12229 	.byte	33
00009a71 4e564d5f4355  12230 	.strz	"NVM_CUMULATED_BLOCKS_CAT06 (NVM_CUMULATED_BLOCKS_CAT05 + NVM_BLOCK_MEMBERS_CATEGORY_06)"
00009a77 4d554c415445 
00009a7d 445f424c4f43 
00009a83 4b535f434154 
00009a89 303620284e56 
00009a8f 4d5f43554d55 
00009a95 4c415445445f 
00009a9b 424c4f434b53 
00009aa1 5f4341543035 
00009aa7 202b204e564d 
00009aad 5f424c4f434b 
00009ab3 5f4d454d4245 
00009ab9 52535f434154 
00009abf 45474f52595f 
00009ac5 30362900 
00009ac9 01            12231 	.byte	1
00009aca 22            12232 	.byte	34
00009acb 4e564d5f4355  12233 	.strz	"NVM_CUMULATED_BLOCKS_CAT07 (NVM_CUMULATED_BLOCKS_CAT06 + NVM_BLOCK_MEMBERS_CATEGORY_07)"
00009ad1 4d554c415445 
00009ad7 445f424c4f43 
00009add 4b535f434154 
00009ae3 303720284e56 
00009ae9 4d5f43554d55 

                                                                      Page 316
                                                              C:\Users\nhuliyap\AppData\Local\Temp\gh_0000d8g1.s
00009aef 4c415445445f 
00009af5 424c4f434b53 
00009afb 5f4341543036 
00009b01 202b204e564d 
00009b07 5f424c4f434b 
00009b0d 5f4d454d4245 
00009b13 52535f434154 
00009b19 45474f52595f 
00009b1f 30372900 
00009b23 01            12234 	.byte	1
00009b24 23            12235 	.byte	35
00009b25 4e564d5f4355  12236 	.strz	"NVM_CUMULATED_BLOCKS_CAT08 (NVM_CUMULATED_BLOCKS_CAT07 + NVM_BLOCK_MEMBERS_CATEGORY_08)"
00009b2b 4d554c415445 
00009b31 445f424c4f43 
00009b37 4b535f434154 
00009b3d 303820284e56 
00009b43 4d5f43554d55 
00009b49 4c415445445f 
00009b4f 424c4f434b53 
00009b55 5f4341543037 
00009b5b 202b204e564d 
00009b61 5f424c4f434b 
00009b67 5f4d454d4245 
00009b6d 52535f434154 
00009b73 45474f52595f 
00009b79 30382900 
00009b7d 01            12237 	.byte	1
00009b7e 24            12238 	.byte	36
00009b7f 4e564d5f4355  12239 	.strz	"NVM_CUMULATED_BLOCKS_CAT09 (NVM_CUMULATED_BLOCKS_CAT08 + NVM_BLOCK_MEMBERS_CATEGORY_09)"
00009b85 4d554c415445 
00009b8b 445f424c4f43 
00009b91 4b535f434154 
00009b97 303920284e56 
00009b9d 4d5f43554d55 
00009ba3 4c415445445f 
00009ba9 424c4f434b53 
00009baf 5f4341543038 
00009bb5 202b204e564d 
00009bbb 5f424c4f434b 
00009bc1 5f4d454d4245 
00009bc7 52535f434154 
00009bcd 45474f52595f 
00009bd3 30392900 
00009bd7 01            12240 	.byte	1
00009bd8 25            12241 	.byte	37
00009bd9 4e564d5f4355  12242 	.strz	"NVM_CUMULATED_BLOCKS_CAT10 (NVM_CUMULATED_BLOCKS_CAT09 + NVM_BLOCK_MEMBERS_CATEGORY_10)"
00009bdf 4d554c415445 
00009be5 445f424c4f43 
00009beb 4b535f434154 
00009bf1 313020284e56 
00009bf7 4d5f43554d55 
00009bfd 4c415445445f 
00009c03 424c4f434b53 
00009c09 5f4341543039 
00009c0f 202b204e564d 
00009c15 5f424c4f434b 
00009c1b 5f4d454d4245 
00009c21 52535f434154 
00009c27 45474f52595f 
00009c2d 31302900 
00009c31 04            12243 	.byte	4

                                                                      Page 317
                                                              C:\Users\nhuliyap\AppData\Local\Temp\gh_0000d8g1.s
00009c32 00            12244 	.byte	0
                       12245 	.section	.debug_abbrev
0000019f 00            12246 	.byte	0
                       12247 	.section	.debug_info
                       12248 .Ldw_end:
                       12249 .rh850_flags REGMODE32,DATA_ALIGN8,GP_FIX,EP_NONFIX,TP_FIX,REG2_RESERVE,G3K,GHS_MISALIGN,SDA_EXTRA_REGS_0
