                                                                      Page 1
                                                              C:\Users\nhuliyap\AppData\Local\Temp\gh_0000ds81.s
Command Line: C:\ghs\comp_201517\ease850.exe -w -elf -b0 -I../source/common -I../source/ProjectCompiler -I../source/ProjectCfg -I../source/SwcApplTpms -I../source/SwcApplEcuM -I../source/SwcServiceBswM -I../source/SwcServiceEcuM -I../source/SwcServiceNvM -I../source/SwcServiceOs -I../source/SwcServiceStartUp -I../source/McalAdc -I../source/McalDio -I../source/McalGpt -I../source/McalMcu -I../source/McalWdg -I../source/wrappers -I../source/wrappers/McalAta -I../source/McalLin -I../source/McalCan -I../source/wrappers/OS -I../source/McalFls -I../source/EcuabFee -I../source/EcuabMemIf -I../source/wrappers/VStdLib -I../source/wrappers/Crc -I../source/wrappers/FBL_APPL -I../source/wrappers/NVM_MANAGER -I../source/wrappers/DEM_MANAGER -I../source/wrappers/RDC_MANAGER -I../source/wrappers/ENV_MANAGER -I../source/wrappers/SYS_MANAGER -I../source/wrappers/EcuabCanIf -I../source/EcuabCanTrcv -I../source/wrappers/SwcServiceCanSM -I../source/wrappers/SwcServiceCanTp -I../source/wrappers/SwcServiceCanTp_PreCompile -I../source/wrappers/SwcServiceCom -I../source/wrappers/SwcServiceComM -I../source/wrappers/SwcServiceDcm -I../source/wrappers/SwcServicePduR -I../source/wrappers/SwcServiceEcuM -I../source/wrappers/Bfx -I../source/wrappers/SwcServiceDem -I../source/SwcServiceCom -I../source/SwcServiceDet -I../source/SwcServiceFiM -I../source/SwcServicePduR -I../source/SwcServiceSchM -I../source/wrappers/LibAutosarDiag -I../source/wrappers/rba_BswSrv -IC:\ghs\comp_201517\lib\rh850 -cg_underscore -cpu=rh850g3k -no_v850_simd -rh850_fpsimd=none -nomacro -patch_dbo=C:\_ECU2\ECU_Rivian_A1\Target\repo_projects\pRealEcu\cR_LATEST\make\output\objects\SwcApplTpms_Diag.dbo -source=SwcApplTpms_Diag.c -o output\objects\gh_0000ds81.o -list=output\list\SwcApplTpms_Diag.lst C:\Users\nhuliyap\AppData\Local\Temp\gh_0000ds81.s 
Original File: C:\Users\nhuliyap\AppData\Local\Temp\gh_0000ds81.s
Source File: SwcApplTpms_Diag.c
Directory: C:\_ECU2\ECU_Rivian_A1\Target\repo_projects\pRealEcu\cR_LATEST\make
Host OS: Windows
EASE: Copyright (C) 1983-2015 Green Hills Software.  All Rights Reserved.
Release: Compiler v2015.1.7
Build Directory: [Directory] BTOWORKER6:c:/build_2015_1_bto/2015-10-21.2100-2015_1_bto/win32-comp-ecom
Revision: [VCInfo] http://toolsvc/branches/release-branch-70-bto/src@544153 (built by build)
Revision Date: Thu Oct 22 07:50:13 2015

Release Date: Thu Oct 22 09:32:32 2015

                           1 --Driver Command: ccv850 ../source/SwcApplTpms/SwcApplTpms_Diag.c -cpu=rh850
                           2 --		-fhard -ignore_callt_state_in_interrupts -large_sda
                           3 --		-misalign_pack -nofarcalls -nofloatio -no_callt -Ogeneral
                           4 --		-Onounroll -prepare_dispose -registermode=32 -reserve_r2 -sda=0
                           5 --		-shorten_loads -Wshadow --brief_diagnostics --no_commons
                           6 --		--no_wrap_diagnostics --prototype_errors --short_enum -list -G
                           7 --		-dual_debug -dwarf -X5523 -lnk=-no_xda_modifications -D
                           8 --		NOT_READY_FOR_TESTING_OR_DEPLOYMENT -D IBTCM_SW_ANPASSUNGEN -D
                           9 --		BUILD_RIVIAN -c -inline_prologue -I../source/common
                          10 --		-I../source/ProjectCompiler -I../source/ProjectCfg
                          11 --		-I../source/SwcApplTpms -I../source/SwcApplEcuM
                          12 --		-I../source/SwcServiceBswM -I../source/SwcServiceEcuM
                          13 --		-I../source/SwcServiceNvM -I../source/SwcServiceOs
                          14 --		-I../source/SwcServiceStartUp -I../source/McalAdc
                          15 --		-I../source/McalDio -I../source/McalGpt -I../source/McalMcu
                          16 --		-I../source/McalWdg -I../source/wrappers
                          17 --		-I../source/wrappers/McalAta -I../source/McalLin
                          18 --		-I../source/McalCan -I../source/wrappers/OS -I../source/McalFls
                          19 --		-I../source/EcuabFee -I../source/EcuabMemIf
                          20 --		-I../source/wrappers/VStdLib -I../source/wrappers
                          21 --		-I../source/wrappers/Crc -I../source/wrappers/FBL_APPL
                          22 --		-I../source/wrappers/NVM_MANAGER -I../source/wrappers/DEM_MANAGER
                          23 --		-I../source/wrappers/RDC_MANAGER -I../source/wrappers/ENV_MANAGER
                          24 --		-I../source/wrappers/SYS_MANAGER -I../source/wrappers/EcuabCanIf
                          25 --		-I../source/EcuabCanTrcv -I../source/wrappers/SwcServiceCanSM
                          26 --		-I../source/wrappers/SwcServiceCanTp
                          27 --		-I../source/wrappers/SwcServiceCanTp_PreCompile
                          28 --		-I../source/wrappers/SwcServiceCom
                          29 --		-I../source/wrappers/SwcServiceComM
                          30 --		-I../source/wrappers/SwcServiceDcm
                          31 --		-I../source/wrappers/SwcServicePduR
                          32 --		-I../source/wrappers/SwcServiceEcuM -I../source/wrappers/Bfx
                          33 --		-I../source/wrappers/SwcServiceDem -I../source/SwcServiceCom
                          34 --		-I../source/SwcServiceDet -I../source/SwcServiceFiM
                          35 --		-I../source/SwcServicePduR -I../source/SwcServiceSchM
                          36 --		-I../source/wrappers/LibAutosarDiag
                          37 --		-I../source/wrappers/rba_BswSrv -object_dir=output/objects
                          38 --		-list_dir=output/list
                          39 --Source File:   ../source/SwcApplTpms/SwcApplTpms_Diag.c
                          40 --Directory:     
                          41 --		C:\_ECU2\ECU_Rivian_A1\Target\repo_projects\pRealEcu\cR_LATEST\make
                          42 --Compile Date:  Fri Sep 15 14:16:02 2023
                          43 --Host OS:       Win32
                          44 --Version:       C-RH850 2015.1.7 RELEASE VERSION
                          45 --Release:       Compiler v2015.1.7
                          46 --Revision Date: Thu Oct 22 08:06:12 2015
                          47 --Release Date:  Thu Oct 22 09:34:32 2015
                          48 -- ecom  -g -w -OM
                          49 	.text
                          50 ..bof.C.3A.5C_ECU2.5CECU_Rivian_A1.5CTarget.5Crepo_projects.5CpRealEcu.5CcR_LATEST.5Cmake.5Coutput.5Cobjects.5CSwcApplTpms_Diag...43.3A.5C_ECU2.5CECU_Rivian_A1.5CTarget.5Crepo_projects.5CpRealEcu.5CcR_LATEST.5Cmake..65044B02..0::

                                                                      Page 2
                                                              C:\Users\nhuliyap\AppData\Local\Temp\gh_0000ds81.s
                          51 	.align	2
                          52 ..gh.f.f.1.e.0:
                          53 	.type	..gh.f.f.1.e.0,@object
                          54 	.size	..gh.f.f.1.e.0,0
                          55 	.global	_DIAG__GetWSDataForPosition..C.3A.5C_ECU2.5CECU_Rivian_A1.5CTarget.5Crepo_projects.5CpRealEcu.5CcR_LATEST.5Cmake.5Coutput.5Cobjects.5CSwcApplTpms_Diag.
                          56 _DIAG__GetWSDataForPosition..C.3A.5C_ECU2.5CECU_Rivian_A1.5CTarget.5Crepo_projects.5CpRealEcu.5CcR_LATEST.5Cmake.5Coutput.5Cobjects.5CSwcApplTpms_Diag.:
                          57 _DIAG__GetWSDataForPosition:
00000000 8007e110         58 	prepare	{r27,r28,r29,r31},0
00000004 8600             59 	zxb	r6
00000006 07e8             60 	mov	r7,r29
                          61 --	    .bf
                          62 .LDW01:
00000008 06e0             63 	mov	r6,r28
                          64 	jarl	_ulGetID,lp
                          64 <EXPANSION BEGIN>
                          64 jarl22 _ulGetID , lp 
0000000a 80ff0000*        64 <EXPANSION END>
                          65 --line1073
                          66 ..lin.C.3A.5C_ECU2.5CECU_Rivian_A1.5CTarget.5Crepo_projects.5CpRealEcu.5CcR_LATEST.5Cmake.5Coutput.5Cobjects.5CSwcApplTpms_Diag.1::
                          67 .LDWlin1:
0000000e 0a30             68 	mov	r10,r6
00000010 0a40             69 	mov	r10,r8
00000012 1df0             70 	mov	r29,ep
00000014 0a38             71 	mov	r10,r7
00000016 8832             72 	shr	8,r6
00000018 9842             73 	shr	24,r8
0000001a 903a             74 	shr	16,r7
0000001c 8233             75 	sst.b	r6,2[ep]
0000001e 8043             76 	sst.b	r8,0[ep]
00000020 813b             77 	sst.b	r7,1[ep]
00000022 8353             78 	sst.b	r10,3[ep]
00000024 04da             79 	mov	4,r27
00000026 20361000         80 	movea	16,zero,r6
                          81 	jarl	_bGetBitBetriebszustandBZ,lp
                          81 <EXPANSION BEGIN>
                          81 jarl22 _bGetBitBetriebszustandBZ , lp 
0000002a 80ff0000*        81 <EXPANSION END>
0000002e 6152             82 	cmp	1,r10
00000030 da05*            83 	bne	.L6
                          84 --line1080
                          85 ..lin.C.3A.5C_ECU2.5CECU_Rivian_A1.5CTarget.5Crepo_projects.5CpRealEcu.5CcR_LATEST.5Cmake.5Coutput.5Cobjects.5CSwcApplTpms_Diag.2::
                          86 .LDWlin2:
00000032 1c30             87 	mov	r28,r6
                          88 	jarl	_GETucRadpositionPD,lp
                          88 <EXPANSION BEGIN>
                          88 jarl22 _GETucRadpositionPD , lp 
00000034 80ff0000*        88 <EXPANSION END>
00000038 0ad8             89 	mov	r10,r27
                          90 .L6:
                          91 --line1086
                          92 ..lin.C.3A.5C_ECU2.5CECU_Rivian_A1.5CTarget.5Crepo_projects.5CpRealEcu.5CcR_LATEST.5Cmake.5Coutput.5Cobjects.5CSwcApplTpms_Diag.3::
                          93 .LDWlin3:
0000003a 1df0             94 	mov	r29,ep
0000003c 84db             95 	sst.b	r27,4[ep]
0000003e 20deff00         96 	movea	255,zero,r27
00000042 85db             97 	sst.b	r27,5[ep]
00000044 1c30             98 	mov	r28,r6
                          99 	jarl	_GETucReifendruckPD,lp
                          99 <EXPANSION BEGIN>
                          99 jarl22 _GETucReifendruckPD , lp 
00000046 80ff0000*        99 <EXPANSION END>

                                                                      Page 3
                                                              C:\Users\nhuliyap\AppData\Local\Temp\gh_0000ds81.s
                         100 --line1093
                         101 ..lin.C.3A.5C_ECU2.5CECU_Rivian_A1.5CTarget.5Crepo_projects.5CpRealEcu.5CcR_LATEST.5Cmake.5Coutput.5Cobjects.5CSwcApplTpms_Diag.4::
                         102 .LDWlin4:
0000004a 1b48            103 	mov	r27,r9
0000004c 0a0607ff        104 	addi	-249,r10,zero
00000050 c105*           105 	bl	.L9
                         106 --line1095
                         107 ..lin.C.3A.5C_ECU2.5CECU_Rivian_A1.5CTarget.5Crepo_projects.5CpRealEcu.5CcR_LATEST.5Cmake.5Coutput.5Cobjects.5CSwcApplTpms_Diag.5::
                         108 .LDWlin5:
00000052 0a4e0200        109 	addi	2,r10,r9
00000056 824a            110 	shr	2,r9
                         111 .L9:
00000058 5d4f0600        112 	st.b	r9,6[r29]
0000005c 1c30            113 	mov	r28,r6
                         114 	jarl	_GETscTemperaturPD,lp
                         114 <EXPANSION BEGIN>
                         114 jarl22 _GETscTemperaturPD , lp 
0000005e 80ff0000*       114 <EXPANSION END>
00000062 0a962800        115 	addi	40,r10,r18
00000066 9200            116 	zxb	r18
                         117 --line1104
                         118 ..lin.C.3A.5C_ECU2.5CECU_Rivian_A1.5CTarget.5Crepo_projects.5CpRealEcu.5CcR_LATEST.5Cmake.5Coutput.5Cobjects.5CSwcApplTpms_Diag.6::
                         119 .LDWlin6:
00000068 120659ff        120 	addi	-167,r18,zero
0000006c fb97224b        121 	cmovl	r27,r18,r9
00000070 5d4f0700        122 	st.b	r9,7[r29]
                         123 	jarl	_GETucVarCodPlacardPressEE,lp
                         123 <EXPANSION BEGIN>
                         123 jarl22 _GETucVarCodPlacardPressEE , lp 
00000074 80ff0000*       123 <EXPANSION END>
                         124 --line1115
                         125 ..lin.C.3A.5C_ECU2.5CECU_Rivian_A1.5CTarget.5Crepo_projects.5CpRealEcu.5CcR_LATEST.5Cmake.5Coutput.5Cobjects.5CSwcApplTpms_Diag.7::
                         126 .LDWlin7:
00000078 0a460200        127 	addi	2,r10,r8
0000007c 8242            128 	shr	2,r8
0000007e 5d470800        129 	st.b	r8,8[r29]
00000082 1c30            130 	mov	r28,r6
                         131 	jarl	_GETucRestlebensdauerPD,lp
                         131 <EXPANSION BEGIN>
                         131 jarl22 _GETucRestlebensdauerPD , lp 
00000084 80ff0000*       131 <EXPANSION END>
00000088 ca4e7f00        132 	andi	127,r10,r9
0000008c 5d4f0900        133 	st.b	r9,9[r29]
                         134 --	    .ef
                         135 .LDW11:
                         136 --line1120
                         137 ..lin.C.3A.5C_ECU2.5CECU_Rivian_A1.5CTarget.5Crepo_projects.5CpRealEcu.5CcR_LATEST.5Cmake.5Coutput.5Cobjects.5CSwcApplTpms_Diag.8::
                         138 .LDWlin8:
00000090 4006ff10        139 	dispose	0,{r27,r28,r29,r31},[lp]
                         140 ___ghs_eofn_DIAG__GetWSDataForPosition:
                         141 	.type	_DIAG__GetWSDataForPosition,@function
                         142 	.size	_DIAG__GetWSDataForPosition,.-_DIAG__GetWSDataForPosition
                         143 	.type	_DIAG__GetWSDataForPosition..C.3A.5C_ECU2.5CECU_Rivian_A1.5CTarget.5Crepo_projects.5CpRealEcu.5CcR_LATEST.5Cmake.5Coutput.5Cobjects.5CSwcApplTpms_Diag.,@function
                         144 	.size	_DIAG__GetWSDataForPosition..C.3A.5C_ECU2.5CECU_Rivian_A1.5CTarget.5Crepo_projects.5CpRealEcu.5CcR_LATEST.5Cmake.5Coutput.5Cobjects.5CSwcApplTpms_Diag.,.-_DIAG__GetWSDataForPosition..C.3A.5C_ECU2.5CECU_Rivian_A1.5CTarget.5Crepo_projects.5CpRealEcu.5CcR_LATEST.5Cmake.5Coutput.5Cobjects.5CSwcApplTpms_Diag.
                         145 	.align	2
                         146 --_U8_TempRadPos	r27	local
                         147 --_U8_Temp	r18	local
                         148 --_U8_LocalReifendruckPD	r10	local
                         149 
                         150 --_CU8_PosIndex	r28	param
                         151 --_PU8_InterfaceData	r29	param

                                                                      Page 4
                                                              C:\Users\nhuliyap\AppData\Local\Temp\gh_0000ds81.s
                         152 
                         153 	.section ".bss","awb"
                         154 .L104:
                         155 	.type	.L104,@object
                         156 	.size	.L104,0
                         157 	.data
                         158 	.text
                         159 	.align	2
                         160 	.align	2
                         161 	.align	2
                         162 ..gh.f.f.1.e.1:
                         163 	.type	..gh.f.f.1.e.1,@object
                         164 	.size	..gh.f.f.1.e.1,0
                         165 	.global	_DIAG__ReqCallback_ReadWSNr01..C.3A.5C_ECU2.5CECU_Rivian_A1.5CTarget.5Crepo_projects.5CpRealEcu.5CcR_LATEST.5Cmake.5Coutput.5Cobjects.5CSwcApplTpms_Diag.
                         166 _DIAG__ReqCallback_ReadWSNr01..C.3A.5C_ECU2.5CECU_Rivian_A1.5CTarget.5Crepo_projects.5CpRealEcu.5CcR_LATEST.5Cmake.5Coutput.5Cobjects.5CSwcApplTpms_Diag.:
                         167 _DIAG__ReqCallback_ReadWSNr01:
00000094 8007e110        168 	prepare	{r27,r28,r29,r31},0
00000098 06d8            169 	mov	r6,r27
0000009a 3d0600000000*   170 	mov	.L203,r29
                         171 --	    .bf
                         172 .LDW21:
                         173 --line138
                         174 ..lin.C.3A.5C_ECU2.5CECU_Rivian_A1.5CTarget.5Crepo_projects.5CpRealEcu.5CcR_LATEST.5Cmake.5Coutput.5Cobjects.5CSwcApplTpms_Diag.9::
                         175 .LDWlin9:
000000a0 0092            176 	mov	0,r18
                         177 .L165:
000000a2 12f0            178 	mov	r18,ep
000000a4 ddf1            179 	add	r29,ep
000000a6 4192            180 	add	1,r18
000000a8 3de60400        181 	movea	4,r29,r28
000000ac 8403            182 	sst.b	zero,4[ep]
000000ae 1206f0ff        183 	addi	-16,r18,zero
000000b2 89fd*           184 	bnl	.L165
                         185 --line142
                         186 ..lin.C.3A.5C_ECU2.5CECU_Rivian_A1.5CTarget.5Crepo_projects.5CpRealEcu.5CcR_LATEST.5Cmake.5Coutput.5Cobjects.5CSwcApplTpms_Diag.10::
                         187 .LDWlin10:
000000b4 1c38            188 	mov	r28,r7
000000b6 0032            189 	mov	0,r6
                         190 	jarl	_DIAG__GetWSDataForPosition,lp
                         190 <EXPANSION BEGIN>
                         190 jarl22 _DIAG__GetWSDataForPosition , lp 
000000b8 bfff48ff*       190 <EXPANSION END>
                         191 --line144
                         192 ..lin.C.3A.5C_ECU2.5CECU_Rivian_A1.5CTarget.5Crepo_projects.5CpRealEcu.5CcR_LATEST.5Cmake.5Coutput.5Cobjects.5CSwcApplTpms_Diag.11::
                         193 .LDWlin11:
000000bc 1bf0            194 	mov	r27,ep
000000be 0a82            195 	mov	10,r16
000000c0 05e5            196 	sst.w	r28,8[ep]
000000c2 7d870000        197 	st.h	r16,0[r29]
000000c6 07ed            198 	sst.w	r29,12[ep]
000000c8 0052            199 	mov	0,r10
                         200 --	    .ef
                         201 .LDW31:
000000ca 4006ff10        202 	dispose	0,{r27,r28,r29,r31},[lp]
                         203 ___ghs_eofn_DIAG__ReqCallback_ReadWSNr01:
                         204 	.type	_DIAG__ReqCallback_ReadWSNr01,@function
                         205 	.size	_DIAG__ReqCallback_ReadWSNr01,.-_DIAG__ReqCallback_ReadWSNr01
                         206 	.type	_DIAG__ReqCallback_ReadWSNr01..C.3A.5C_ECU2.5CECU_Rivian_A1.5CTarget.5Crepo_projects.5CpRealEcu.5CcR_LATEST.5Cmake.5Coutput.5Cobjects.5CSwcApplTpms_Diag.,@function
                         207 	.size	_DIAG__ReqCallback_ReadWSNr01..C.3A.5C_ECU2.5CECU_Rivian_A1.5CTarget.5Crepo_projects.5CpRealEcu.5CcR_LATEST.5Cmake.5Coutput.5Cobjects.5CSwcApplTpms_Diag.,.-_DIAG__ReqCallback_ReadWSNr01..C.3A.5C_ECU2.5CECU_Rivian_A1.5CTarget.5Crepo_projects.5CpRealEcu.5CcR_LATEST.5Cmake.5Coutput.5Cobjects.5CSwcApplTpms_Diag.
                         208 	.align	2
                         209 --_U8_LoopCnt	r18	local

                                                                      Page 5
                                                              C:\Users\nhuliyap\AppData\Local\Temp\gh_0000ds81.s
                         210 
                         211 --_PS_MsgContext	r27	param
                         212 
                         213 	.section ".bss","awb"
                         214 	.align	4
                         215 .L203:
                         216 	.type	.L203,@object
                         217 	.size	.L203,0
                         218 	.global	_U16_RespLenght..C.3A.5C_ECU2.5CECU_Rivian_A1.5CTarget.5Crepo_projects.5CpRealEcu.5CcR_LATEST.5Cmake.5Coutput.5Cobjects.5CSwcApplTpms_Diag.
                         219 _U16_RespLenght..C.3A.5C_ECU2.5CECU_Rivian_A1.5CTarget.5Crepo_projects.5CpRealEcu.5CcR_LATEST.5Cmake.5Coutput.5Cobjects.5CSwcApplTpms_Diag.:
00000000 0000            220 _U16_RespLenght:	.space	2
                         221 	.type	_U16_RespLenght..C.3A.5C_ECU2.5CECU_Rivian_A1.5CTarget.5Crepo_projects.5CpRealEcu.5CcR_LATEST.5Cmake.5Coutput.5Cobjects.5CSwcApplTpms_Diag.,@object
                         222 	.size	_U16_RespLenght..C.3A.5C_ECU2.5CECU_Rivian_A1.5CTarget.5Crepo_projects.5CpRealEcu.5CcR_LATEST.5Cmake.5Coutput.5Cobjects.5CSwcApplTpms_Diag.,2
                         223 	.type	_U16_RespLenght,@object
                         224 	.size	_U16_RespLenght,2
00000002 0000            225 	.space	2
                         226 	.global	_AU8_ResData..C.3A.5C_ECU2.5CECU_Rivian_A1.5CTarget.5Crepo_projects.5CpRealEcu.5CcR_LATEST.5Cmake.5Coutput.5Cobjects.5CSwcApplTpms_Diag.
                         227 _AU8_ResData..C.3A.5C_ECU2.5CECU_Rivian_A1.5CTarget.5Crepo_projects.5CpRealEcu.5CcR_LATEST.5Cmake.5Coutput.5Cobjects.5CSwcApplTpms_Diag.:
00000004 000000000000    228 _AU8_ResData:	.space	16
0000000a 000000000000 
00000010 00000000 
                         229 	.type	_AU8_ResData..C.3A.5C_ECU2.5CECU_Rivian_A1.5CTarget.5Crepo_projects.5CpRealEcu.5CcR_LATEST.5Cmake.5Coutput.5Cobjects.5CSwcApplTpms_Diag.,@object
                         230 	.size	_AU8_ResData..C.3A.5C_ECU2.5CECU_Rivian_A1.5CTarget.5Crepo_projects.5CpRealEcu.5CcR_LATEST.5Cmake.5Coutput.5Cobjects.5CSwcApplTpms_Diag.,16
                         231 	.type	_AU8_ResData,@object
                         232 	.size	_AU8_ResData,16
                         233 	.section ".rodata","a"
                         234 	.align	4
                         235 	.global	_DIAG__AS_ReqHandlerArray..C.3A.5C_ECU2.5CECU_Rivian_A1.5CTarget.5Crepo_projects.5CpRealEcu.5CcR_LATEST.5Cmake.5Coutput.5Cobjects.5CSwcApplTpms_Diag.
                         236 _DIAG__AS_ReqHandlerArray..C.3A.5C_ECU2.5CECU_Rivian_A1.5CTarget.5Crepo_projects.5CpRealEcu.5CcR_LATEST.5Cmake.5Coutput.5Cobjects.5CSwcApplTpms_Diag.:
00000000 00              237 _DIAG__AS_ReqHandlerArray:	.space	1
00000001 000000          238 	.space	3
00000004 00000000*       239 	.word	_DIAG__ReqCallback_ReadWSNr01
00000008 01              240 	.byte	1
00000009 000000          241 	.space	3
0000000c 00000000*       242 	.word	_DIAG__ReqCallback_ReadWSNr02
00000010 02              243 	.byte	2
00000011 000000          244 	.space	3
00000014 00000000*       245 	.word	_DIAG__ReqCallback_ReadWSNr03
00000018 03              246 	.byte	3
00000019 000000          247 	.space	3
0000001c 00000000*       248 	.word	_DIAG__ReqCallback_ReadWSNr04
00000020 04              249 	.byte	4
00000021 000000          250 	.space	3
00000024 00000000*       251 	.word	_DIAG__ReqCallback_ReadIdFL
00000028 05              252 	.byte	5
00000029 000000          253 	.space	3
0000002c 00000000*       254 	.word	_DIAG__ReqCallback_ReadIdFR
00000030 06              255 	.byte	6
00000031 000000          256 	.space	3
00000034 00000000*       257 	.word	_DIAG__ReqCallback_ReadIdRR
00000038 07              258 	.byte	7
00000039 000000          259 	.space	3
0000003c 00000000*       260 	.word	_DIAG__ReqCallback_ReadIdRL
00000040 08              261 	.byte	8
00000041 000000          262 	.space	3
00000044 00000000*       263 	.word	_DIAG__ReqCallback_ReadLastReceivedWheelSensor
00000048 09              264 	.byte	9
00000049 000000          265 	.space	3
0000004c 00000000*       266 	.word	_DIAG__ReqCallback_WriteWSNr01
00000050 0a              267 	.byte	10
00000051 000000          268 	.space	3

                                                                      Page 6
                                                              C:\Users\nhuliyap\AppData\Local\Temp\gh_0000ds81.s
00000054 00000000*       269 	.word	_DIAG__ReqCallback_WriteWSNr02
00000058 0b              270 	.byte	11
00000059 000000          271 	.space	3
0000005c 00000000*       272 	.word	_DIAG__ReqCallback_WriteWSNr03
00000060 0c              273 	.byte	12
00000061 000000          274 	.space	3
00000064 00000000*       275 	.word	_DIAG__ReqCallback_WriteWSNr04
00000068 0d              276 	.byte	13
00000069 000000          277 	.space	3
0000006c 00000000*       278 	.word	_DIAG__ReqCallback_ReadWheelSensorIDs
00000070 0e              279 	.byte	14
00000071 000000          280 	.space	3
00000074 00000000*       281 	.word	_DIAG__ReqCallback_WriteWheelSensorIDs
00000078 0f              282 	.byte	15
00000079 000000          283 	.space	3
0000007c 00000000*       284 	.word	_DIAG__ReqCallback_ReadVehicleSpecificParameters
00000080 10              285 	.byte	16
00000081 000000          286 	.space	3
00000084 00000000*       287 	.word	_DIAG__ReqCallback_WriteVehicleSpecificParameters
00000088 11              288 	.byte	17
00000089 000000          289 	.space	3
0000008c 00000000*       290 	.word	_DIAG__ReqCallback_ReadAutoLearnWSParameters
00000090 12              291 	.byte	18
00000091 000000          292 	.space	3
00000094 00000000*       293 	.word	_DIAG__ReqCallback_WriteAutoLearnWSParameters
00000098 13              294 	.byte	19
00000099 000000          295 	.space	3
0000009c 00000000*       296 	.word	_DIAG__ReqCallback_ReadAdditionalPressureOfMinimumPressure
000000a0 14              297 	.byte	20
000000a1 000000          298 	.space	3
000000a4 00000000*       299 	.word	_DIAG__ReqCallback_WriteAdditionalPressureOfMinimumPressure
000000a8 15              300 	.byte	21
000000a9 000000          301 	.space	3
000000ac 00000000*       302 	.word	_DIAG__ReqCallback_StartEOL_TPMS_TestProcedure
000000b0 16              303 	.byte	22
000000b1 000000          304 	.space	3
000000b4 00000000*       305 	.word	_DIAG__ReqCallback_StopEOL_TPMS_TestProcedure
000000b8 17              306 	.byte	23
000000b9 000000          307 	.space	3
000000bc 00000000*       308 	.word	_DIAG__ReqCallback_RequestResultsEOL_TPMS_TestProcedure
000000c0 18              309 	.byte	24
000000c1 000000          310 	.space	3
000000c4 00000000*       311 	.word	_DIAG__ReqCallback_ReadBCMFaultReason
000000c8 19              312 	.byte	25
000000c9 000000          313 	.space	3
000000cc 00000000*       314 	.word	_DIAG__ReqCallback_WriteBCMFaultReason
000000d0 1a              315 	.byte	26
000000d1 000000          316 	.space	3
000000d4 00000000*       317 	.word	_DIAG__ReqCallback_ReadBCMPosition
000000d8 1b              318 	.byte	27
000000d9 000000          319 	.space	3
000000dc 00000000*       320 	.word	_DIAG__ReqCallback_WriteBCMPosition
000000e0 1c              321 	.byte	28
000000e1 000000          322 	.space	3
000000e4 00000000*       323 	.word	_DIAG__ReqCallback_ReadABSTicksValue
000000e8 1d              324 	.byte	29
000000e9 000000          325 	.space	3
000000ec 00000000*       326 	.word	_DIAG__ReqCallback_WriteABSTicksValue
000000f0 1e              327 	.byte	30
000000f1 000000          328 	.space	3
000000f4 00000000*       329 	.word	_DIAG__ReqCallback_ReadRSSINoiseLevel

                                                                      Page 7
                                                              C:\Users\nhuliyap\AppData\Local\Temp\gh_0000ds81.s
000000f8 1f              330 	.byte	31
000000f9 000000          331 	.space	3
000000fc 00000000*       332 	.word	_DIAG__ReqCallback_WriteRSSINoiseLevel
00000100 20              333 	.byte	32
00000101 000000          334 	.space	3
00000104 00000000*       335 	.word	_DIAG__ReqCallback_ReadTemperatureWarningThreshold
00000108 21              336 	.byte	33
00000109 000000          337 	.space	3
0000010c 00000000*       338 	.word	_DIAG__ReqCallback_WriteTemperatureWarningThreshold
                         339 	.type	_DIAG__AS_ReqHandlerArray..C.3A.5C_ECU2.5CECU_Rivian_A1.5CTarget.5Crepo_projects.5CpRealEcu.5CcR_LATEST.5Cmake.5Coutput.5Cobjects.5CSwcApplTpms_Diag.,@object
                         340 	.size	_DIAG__AS_ReqHandlerArray..C.3A.5C_ECU2.5CECU_Rivian_A1.5CTarget.5Crepo_projects.5CpRealEcu.5CcR_LATEST.5Cmake.5Coutput.5Cobjects.5CSwcApplTpms_Diag.,272
                         341 	.type	_DIAG__AS_ReqHandlerArray,@object
                         342 	.size	_DIAG__AS_ReqHandlerArray,272
                         343 	.data
                         344 	.text
                         345 	.align	2
                         346 	.align	2
                         347 ..gh.f.f.1.e.2:
                         348 	.type	..gh.f.f.1.e.2,@object
                         349 	.size	..gh.f.f.1.e.2,0
                         350 	.global	_DIAG__ReqCallback_ReadWSNr02..C.3A.5C_ECU2.5CECU_Rivian_A1.5CTarget.5Crepo_projects.5CpRealEcu.5CcR_LATEST.5Cmake.5Coutput.5Cobjects.5CSwcApplTpms_Diag.
                         351 _DIAG__ReqCallback_ReadWSNr02..C.3A.5C_ECU2.5CECU_Rivian_A1.5CTarget.5Crepo_projects.5CpRealEcu.5CcR_LATEST.5Cmake.5Coutput.5Cobjects.5CSwcApplTpms_Diag.:
                         352 _DIAG__ReqCallback_ReadWSNr02:
000000ce 8007e110        353 	prepare	{r27,r28,r29,r31},0
000000d2 06d8            354 	mov	r6,r27
000000d4 3d0600000000*   355 	mov	_U16_RespLenght,r29
                         356 --	    .bf
                         357 .LDW41:
                         358 --line156
                         359 ..lin.C.3A.5C_ECU2.5CECU_Rivian_A1.5CTarget.5Crepo_projects.5CpRealEcu.5CcR_LATEST.5Cmake.5Coutput.5Cobjects.5CSwcApplTpms_Diag.12::
                         360 .LDWlin12:
000000da 0092            361 	mov	0,r18
                         362 .L243:
000000dc 12f0            363 	mov	r18,ep
000000de ddf1            364 	add	r29,ep
000000e0 4192            365 	add	1,r18
000000e2 3de60400        366 	movea	4,r29,r28
000000e6 8403            367 	sst.b	zero,4[ep]
000000e8 1206f0ff        368 	addi	-16,r18,zero
000000ec 89fd*           369 	bnl	.L243
                         370 --line160
                         371 ..lin.C.3A.5C_ECU2.5CECU_Rivian_A1.5CTarget.5Crepo_projects.5CpRealEcu.5CcR_LATEST.5Cmake.5Coutput.5Cobjects.5CSwcApplTpms_Diag.13::
                         372 .LDWlin13:
000000ee 1c38            373 	mov	r28,r7
000000f0 0132            374 	mov	1,r6
                         375 	jarl	_DIAG__GetWSDataForPosition,lp
                         375 <EXPANSION BEGIN>
                         375 jarl22 _DIAG__GetWSDataForPosition , lp 
000000f2 bfff0eff*       375 <EXPANSION END>
                         376 --line162
                         377 ..lin.C.3A.5C_ECU2.5CECU_Rivian_A1.5CTarget.5Crepo_projects.5CpRealEcu.5CcR_LATEST.5Cmake.5Coutput.5Cobjects.5CSwcApplTpms_Diag.14::
                         378 .LDWlin14:
000000f6 1bf0            379 	mov	r27,ep
000000f8 0a82            380 	mov	10,r16
000000fa 05e5            381 	sst.w	r28,8[ep]
000000fc 7d870000        382 	st.h	r16,0[r29]
00000100 07ed            383 	sst.w	r29,12[ep]
00000102 0052            384 	mov	0,r10
                         385 --	    .ef
                         386 .LDW51:
00000104 4006ff10        387 	dispose	0,{r27,r28,r29,r31},[lp]

                                                                      Page 8
                                                              C:\Users\nhuliyap\AppData\Local\Temp\gh_0000ds81.s
                         388 ___ghs_eofn_DIAG__ReqCallback_ReadWSNr02:
                         389 	.type	_DIAG__ReqCallback_ReadWSNr02,@function
                         390 	.size	_DIAG__ReqCallback_ReadWSNr02,.-_DIAG__ReqCallback_ReadWSNr02
                         391 	.type	_DIAG__ReqCallback_ReadWSNr02..C.3A.5C_ECU2.5CECU_Rivian_A1.5CTarget.5Crepo_projects.5CpRealEcu.5CcR_LATEST.5Cmake.5Coutput.5Cobjects.5CSwcApplTpms_Diag.,@function
                         392 	.size	_DIAG__ReqCallback_ReadWSNr02..C.3A.5C_ECU2.5CECU_Rivian_A1.5CTarget.5Crepo_projects.5CpRealEcu.5CcR_LATEST.5Cmake.5Coutput.5Cobjects.5CSwcApplTpms_Diag.,.-_DIAG__ReqCallback_ReadWSNr02..C.3A.5C_ECU2.5CECU_Rivian_A1.5CTarget.5Crepo_projects.5CpRealEcu.5CcR_LATEST.5Cmake.5Coutput.5Cobjects.5CSwcApplTpms_Diag.
                         393 	.align	2
                         394 --_U8_LoopCnt	r18	local
                         395 
                         396 --_PS_MsgContext	r27	param
                         397 
                         398 	.data
                         399 	.text
                         400 	.align	2
                         401 	.align	2
                         402 ..gh.f.f.1.e.3:
                         403 	.type	..gh.f.f.1.e.3,@object
                         404 	.size	..gh.f.f.1.e.3,0
                         405 	.global	_DIAG__ReqCallback_ReadWSNr03..C.3A.5C_ECU2.5CECU_Rivian_A1.5CTarget.5Crepo_projects.5CpRealEcu.5CcR_LATEST.5Cmake.5Coutput.5Cobjects.5CSwcApplTpms_Diag.
                         406 _DIAG__ReqCallback_ReadWSNr03..C.3A.5C_ECU2.5CECU_Rivian_A1.5CTarget.5Crepo_projects.5CpRealEcu.5CcR_LATEST.5Cmake.5Coutput.5Cobjects.5CSwcApplTpms_Diag.:
                         407 _DIAG__ReqCallback_ReadWSNr03:
00000108 8007e110        408 	prepare	{r27,r28,r29,r31},0
0000010c 06d8            409 	mov	r6,r27
0000010e 3d0600000000*   410 	mov	_U16_RespLenght,r29
                         411 --	    .bf
                         412 .LDW61:
                         413 --line174
                         414 ..lin.C.3A.5C_ECU2.5CECU_Rivian_A1.5CTarget.5Crepo_projects.5CpRealEcu.5CcR_LATEST.5Cmake.5Coutput.5Cobjects.5CSwcApplTpms_Diag.15::
                         415 .LDWlin15:
00000114 0092            416 	mov	0,r18
                         417 .L322:
00000116 12f0            418 	mov	r18,ep
00000118 ddf1            419 	add	r29,ep
0000011a 4192            420 	add	1,r18
0000011c 3de60400        421 	movea	4,r29,r28
00000120 8403            422 	sst.b	zero,4[ep]
00000122 1206f0ff        423 	addi	-16,r18,zero
00000126 89fd*           424 	bnl	.L322
                         425 --line178
                         426 ..lin.C.3A.5C_ECU2.5CECU_Rivian_A1.5CTarget.5Crepo_projects.5CpRealEcu.5CcR_LATEST.5Cmake.5Coutput.5Cobjects.5CSwcApplTpms_Diag.16::
                         427 .LDWlin16:
00000128 1c38            428 	mov	r28,r7
0000012a 0232            429 	mov	2,r6
                         430 	jarl	_DIAG__GetWSDataForPosition,lp
                         430 <EXPANSION BEGIN>
                         430 jarl22 _DIAG__GetWSDataForPosition , lp 
0000012c bfffd4fe*       430 <EXPANSION END>
                         431 --line180
                         432 ..lin.C.3A.5C_ECU2.5CECU_Rivian_A1.5CTarget.5Crepo_projects.5CpRealEcu.5CcR_LATEST.5Cmake.5Coutput.5Cobjects.5CSwcApplTpms_Diag.17::
                         433 .LDWlin17:
00000130 1bf0            434 	mov	r27,ep
00000132 0a82            435 	mov	10,r16
00000134 05e5            436 	sst.w	r28,8[ep]
00000136 7d870000        437 	st.h	r16,0[r29]
0000013a 07ed            438 	sst.w	r29,12[ep]
0000013c 0052            439 	mov	0,r10
                         440 --	    .ef
                         441 .LDW71:
0000013e 4006ff10        442 	dispose	0,{r27,r28,r29,r31},[lp]
                         443 ___ghs_eofn_DIAG__ReqCallback_ReadWSNr03:
                         444 	.type	_DIAG__ReqCallback_ReadWSNr03,@function
                         445 	.size	_DIAG__ReqCallback_ReadWSNr03,.-_DIAG__ReqCallback_ReadWSNr03

                                                                      Page 9
                                                              C:\Users\nhuliyap\AppData\Local\Temp\gh_0000ds81.s
                         446 	.type	_DIAG__ReqCallback_ReadWSNr03..C.3A.5C_ECU2.5CECU_Rivian_A1.5CTarget.5Crepo_projects.5CpRealEcu.5CcR_LATEST.5Cmake.5Coutput.5Cobjects.5CSwcApplTpms_Diag.,@function
                         447 	.size	_DIAG__ReqCallback_ReadWSNr03..C.3A.5C_ECU2.5CECU_Rivian_A1.5CTarget.5Crepo_projects.5CpRealEcu.5CcR_LATEST.5Cmake.5Coutput.5Cobjects.5CSwcApplTpms_Diag.,.-_DIAG__ReqCallback_ReadWSNr03..C.3A.5C_ECU2.5CECU_Rivian_A1.5CTarget.5Crepo_projects.5CpRealEcu.5CcR_LATEST.5Cmake.5Coutput.5Cobjects.5CSwcApplTpms_Diag.
                         448 	.align	2
                         449 --_U8_LoopCnt	r18	local
                         450 
                         451 --_PS_MsgContext	r27	param
                         452 
                         453 	.data
                         454 	.text
                         455 	.align	2
                         456 	.align	2
                         457 ..gh.f.f.1.e.4:
                         458 	.type	..gh.f.f.1.e.4,@object
                         459 	.size	..gh.f.f.1.e.4,0
                         460 	.global	_DIAG__ReqCallback_ReadWSNr04..C.3A.5C_ECU2.5CECU_Rivian_A1.5CTarget.5Crepo_projects.5CpRealEcu.5CcR_LATEST.5Cmake.5Coutput.5Cobjects.5CSwcApplTpms_Diag.
                         461 _DIAG__ReqCallback_ReadWSNr04..C.3A.5C_ECU2.5CECU_Rivian_A1.5CTarget.5Crepo_projects.5CpRealEcu.5CcR_LATEST.5Cmake.5Coutput.5Cobjects.5CSwcApplTpms_Diag.:
                         462 _DIAG__ReqCallback_ReadWSNr04:
00000142 8007e110        463 	prepare	{r27,r28,r29,r31},0
00000146 06d8            464 	mov	r6,r27
00000148 3d0600000000*   465 	mov	_U16_RespLenght,r29
                         466 --	    .bf
                         467 .LDW81:
                         468 --line192
                         469 ..lin.C.3A.5C_ECU2.5CECU_Rivian_A1.5CTarget.5Crepo_projects.5CpRealEcu.5CcR_LATEST.5Cmake.5Coutput.5Cobjects.5CSwcApplTpms_Diag.18::
                         470 .LDWlin18:
0000014e 0092            471 	mov	0,r18
                         472 .L402:
00000150 12f0            473 	mov	r18,ep
00000152 ddf1            474 	add	r29,ep
00000154 4192            475 	add	1,r18
00000156 3de60400        476 	movea	4,r29,r28
0000015a 8403            477 	sst.b	zero,4[ep]
0000015c 1206f0ff        478 	addi	-16,r18,zero
00000160 89fd*           479 	bnl	.L402
                         480 --line196
                         481 ..lin.C.3A.5C_ECU2.5CECU_Rivian_A1.5CTarget.5Crepo_projects.5CpRealEcu.5CcR_LATEST.5Cmake.5Coutput.5Cobjects.5CSwcApplTpms_Diag.19::
                         482 .LDWlin19:
00000162 1c38            483 	mov	r28,r7
00000164 0332            484 	mov	3,r6
                         485 	jarl	_DIAG__GetWSDataForPosition,lp
                         485 <EXPANSION BEGIN>
                         485 jarl22 _DIAG__GetWSDataForPosition , lp 
00000166 bfff9afe*       485 <EXPANSION END>
                         486 --line198
                         487 ..lin.C.3A.5C_ECU2.5CECU_Rivian_A1.5CTarget.5Crepo_projects.5CpRealEcu.5CcR_LATEST.5Cmake.5Coutput.5Cobjects.5CSwcApplTpms_Diag.20::
                         488 .LDWlin20:
0000016a 1bf0            489 	mov	r27,ep
0000016c 0a82            490 	mov	10,r16
0000016e 05e5            491 	sst.w	r28,8[ep]
00000170 7d870000        492 	st.h	r16,0[r29]
00000174 07ed            493 	sst.w	r29,12[ep]
00000176 0052            494 	mov	0,r10
                         495 --	    .ef
                         496 .LDW91:
00000178 4006ff10        497 	dispose	0,{r27,r28,r29,r31},[lp]
                         498 ___ghs_eofn_DIAG__ReqCallback_ReadWSNr04:
                         499 	.type	_DIAG__ReqCallback_ReadWSNr04,@function
                         500 	.size	_DIAG__ReqCallback_ReadWSNr04,.-_DIAG__ReqCallback_ReadWSNr04
                         501 	.type	_DIAG__ReqCallback_ReadWSNr04..C.3A.5C_ECU2.5CECU_Rivian_A1.5CTarget.5Crepo_projects.5CpRealEcu.5CcR_LATEST.5Cmake.5Coutput.5Cobjects.5CSwcApplTpms_Diag.,@function
                         502 	.size	_DIAG__ReqCallback_ReadWSNr04..C.3A.5C_ECU2.5CECU_Rivian_A1.5CTarget.5Crepo_projects.5CpRealEcu.5CcR_LATEST.5Cmake.5Coutput.5Cobjects.5CSwcApplTpms_Diag.,.-_DIAG__ReqCallback_ReadWSNr04..C.3A.5C_ECU2.5CECU_Rivian_A1.5CTarget.5Crepo_projects.5CpRealEcu.5CcR_LATEST.5Cmake.5Coutput.5Cobjects.5CSwcApplTpms_Diag.
                         503 	.align	2

                                                                      Page 10
                                                              C:\Users\nhuliyap\AppData\Local\Temp\gh_0000ds81.s
                         504 --_U8_LoopCnt	r18	local
                         505 
                         506 --_PS_MsgContext	r27	param
                         507 
                         508 	.data
                         509 	.text
                         510 	.align	2
                         511 	.align	2
                         512 ..gh.f.f.1.e.5:
                         513 	.type	..gh.f.f.1.e.5,@object
                         514 	.size	..gh.f.f.1.e.5,0
                         515 	.global	_DIAG__GetWsIdForPosition..C.3A.5C_ECU2.5CECU_Rivian_A1.5CTarget.5Crepo_projects.5CpRealEcu.5CcR_LATEST.5Cmake.5Coutput.5Cobjects.5CSwcApplTpms_Diag.
                         516 _DIAG__GetWsIdForPosition..C.3A.5C_ECU2.5CECU_Rivian_A1.5CTarget.5Crepo_projects.5CpRealEcu.5CcR_LATEST.5Cmake.5Coutput.5Cobjects.5CSwcApplTpms_Diag.:
                         517 _DIAG__GetWsIdForPosition:
0000017c 80076100        518 	prepare	{r29,r31},0
00000180 8600            519 	zxb	r6
00000182 07e8            520 	mov	r7,r29
                         521 --	    .bf
                         522 .LDW02:
                         523 	jarl	_ucGetIndexOfHistoryWP,lp
                         523 <EXPANSION BEGIN>
                         523 jarl22 _ucGetIndexOfHistoryWP , lp 
00000184 80ff0000*       523 <EXPANSION END>
00000188 0a30            524 	mov	r10,r6
                         525 	jarl	_ulGetID,lp
                         525 <EXPANSION BEGIN>
                         525 jarl22 _ulGetID , lp 
0000018a 80ff0000*       525 <EXPANSION END>
                         526 --line1131
                         527 ..lin.C.3A.5C_ECU2.5CECU_Rivian_A1.5CTarget.5Crepo_projects.5CpRealEcu.5CcR_LATEST.5Cmake.5Coutput.5Cobjects.5CSwcApplTpms_Diag.21::
                         528 .LDWlin21:
0000018e 0a90            529 	mov	r10,r18
00000190 0a88            530 	mov	r10,r17
00000192 0a80            531 	mov	r10,r16
00000194 9892            532 	shr	24,r18
00000196 1df0            533 	mov	r29,ep
00000198 908a            534 	shr	16,r17
0000019a 8882            535 	shr	8,r16
0000019c 8093            536 	sst.b	r18,0[ep]
0000019e 818b            537 	sst.b	r17,1[ep]
000001a0 8283            538 	sst.b	r16,2[ep]
000001a2 8353            539 	sst.b	r10,3[ep]
                         540 --	    .ef
                         541 .LDW12:
000001a4 40067f00        542 	dispose	0,{r29,r31},[lp]
                         543 ___ghs_eofn_DIAG__GetWsIdForPosition:
                         544 	.type	_DIAG__GetWsIdForPosition,@function
                         545 	.size	_DIAG__GetWsIdForPosition,.-_DIAG__GetWsIdForPosition
                         546 	.type	_DIAG__GetWsIdForPosition..C.3A.5C_ECU2.5CECU_Rivian_A1.5CTarget.5Crepo_projects.5CpRealEcu.5CcR_LATEST.5Cmake.5Coutput.5Cobjects.5CSwcApplTpms_Diag.,@function
                         547 	.size	_DIAG__GetWsIdForPosition..C.3A.5C_ECU2.5CECU_Rivian_A1.5CTarget.5Crepo_projects.5CpRealEcu.5CcR_LATEST.5Cmake.5Coutput.5Cobjects.5CSwcApplTpms_Diag.,.-_DIAG__GetWsIdForPosition..C.3A.5C_ECU2.5CECU_Rivian_A1.5CTarget.5Crepo_projects.5CpRealEcu.5CcR_LATEST.5Cmake.5Coutput.5Cobjects.5CSwcApplTpms_Diag.
                         548 	.align	2
                         549 
                         550 --_CU8_PosIndex	r6	param
                         551 --_PU8_InterfaceData	r29	param
                         552 
                         553 	.section ".bss","awb"
                         554 .L500:
                         555 	.type	.L500,@object
                         556 	.size	.L500,0
                         557 	.data
                         558 	.text

                                                                      Page 11
                                                              C:\Users\nhuliyap\AppData\Local\Temp\gh_0000ds81.s
                         559 	.align	2
                         560 	.align	2
                         561 ..gh.f.f.1.e.6:
                         562 	.type	..gh.f.f.1.e.6,@object
                         563 	.size	..gh.f.f.1.e.6,0
                         564 	.global	_DIAG__ReqCallback_ReadIdFL..C.3A.5C_ECU2.5CECU_Rivian_A1.5CTarget.5Crepo_projects.5CpRealEcu.5CcR_LATEST.5Cmake.5Coutput.5Cobjects.5CSwcApplTpms_Diag.
                         565 _DIAG__ReqCallback_ReadIdFL..C.3A.5C_ECU2.5CECU_Rivian_A1.5CTarget.5Crepo_projects.5CpRealEcu.5CcR_LATEST.5Cmake.5Coutput.5Cobjects.5CSwcApplTpms_Diag.:
                         566 _DIAG__ReqCallback_ReadIdFL:
000001a8 8007e110        567 	prepare	{r27,r28,r29,r31},0
000001ac 06d8            568 	mov	r6,r27
000001ae 3d0600000000*   569 	mov	_U16_RespLenght,r29
                         570 --	    .bf
                         571 .LDW22:
                         572 --line210
                         573 ..lin.C.3A.5C_ECU2.5CECU_Rivian_A1.5CTarget.5Crepo_projects.5CpRealEcu.5CcR_LATEST.5Cmake.5Coutput.5Cobjects.5CSwcApplTpms_Diag.22::
                         574 .LDWlin22:
000001b4 0092            575 	mov	0,r18
                         576 .L522:
000001b6 12f0            577 	mov	r18,ep
000001b8 ddf1            578 	add	r29,ep
000001ba 4192            579 	add	1,r18
000001bc 3de60400        580 	movea	4,r29,r28
000001c0 8403            581 	sst.b	zero,4[ep]
000001c2 1206f0ff        582 	addi	-16,r18,zero
000001c6 89fd*           583 	bnl	.L522
                         584 --line215
                         585 ..lin.C.3A.5C_ECU2.5CECU_Rivian_A1.5CTarget.5Crepo_projects.5CpRealEcu.5CcR_LATEST.5Cmake.5Coutput.5Cobjects.5CSwcApplTpms_Diag.23::
                         586 .LDWlin23:
000001c8 1c38            587 	mov	r28,r7
000001ca 0032            588 	mov	0,r6
                         589 	jarl	_DIAG__GetWsIdForPosition,lp
                         589 <EXPANSION BEGIN>
                         589 jarl22 _DIAG__GetWsIdForPosition , lp 
000001cc bfffb0ff*       589 <EXPANSION END>
                         590 --line217
                         591 ..lin.C.3A.5C_ECU2.5CECU_Rivian_A1.5CTarget.5Crepo_projects.5CpRealEcu.5CcR_LATEST.5Cmake.5Coutput.5Cobjects.5CSwcApplTpms_Diag.24::
                         592 .LDWlin24:
000001d0 1bf0            593 	mov	r27,ep
000001d2 0482            594 	mov	4,r16
000001d4 05e5            595 	sst.w	r28,8[ep]
000001d6 7d870000        596 	st.h	r16,0[r29]
000001da 07ed            597 	sst.w	r29,12[ep]
000001dc 0052            598 	mov	0,r10
                         599 --	    .ef
                         600 .LDW32:
000001de 4006ff10        601 	dispose	0,{r27,r28,r29,r31},[lp]
                         602 ___ghs_eofn_DIAG__ReqCallback_ReadIdFL:
                         603 	.type	_DIAG__ReqCallback_ReadIdFL,@function
                         604 	.size	_DIAG__ReqCallback_ReadIdFL,.-_DIAG__ReqCallback_ReadIdFL
                         605 	.type	_DIAG__ReqCallback_ReadIdFL..C.3A.5C_ECU2.5CECU_Rivian_A1.5CTarget.5Crepo_projects.5CpRealEcu.5CcR_LATEST.5Cmake.5Coutput.5Cobjects.5CSwcApplTpms_Diag.,@function
                         606 	.size	_DIAG__ReqCallback_ReadIdFL..C.3A.5C_ECU2.5CECU_Rivian_A1.5CTarget.5Crepo_projects.5CpRealEcu.5CcR_LATEST.5Cmake.5Coutput.5Cobjects.5CSwcApplTpms_Diag.,.-_DIAG__ReqCallback_ReadIdFL..C.3A.5C_ECU2.5CECU_Rivian_A1.5CTarget.5Crepo_projects.5CpRealEcu.5CcR_LATEST.5Cmake.5Coutput.5Cobjects.5CSwcApplTpms_Diag.
                         607 	.align	2
                         608 --_U8_LoopCnt	r18	local
                         609 
                         610 --_PS_MsgContext	r27	param
                         611 
                         612 	.data
                         613 	.text
                         614 	.align	2
                         615 	.align	2
                         616 ..gh.f.f.1.e.7:

                                                                      Page 12
                                                              C:\Users\nhuliyap\AppData\Local\Temp\gh_0000ds81.s
                         617 	.type	..gh.f.f.1.e.7,@object
                         618 	.size	..gh.f.f.1.e.7,0
                         619 	.global	_DIAG__ReqCallback_ReadIdFR..C.3A.5C_ECU2.5CECU_Rivian_A1.5CTarget.5Crepo_projects.5CpRealEcu.5CcR_LATEST.5Cmake.5Coutput.5Cobjects.5CSwcApplTpms_Diag.
                         620 _DIAG__ReqCallback_ReadIdFR..C.3A.5C_ECU2.5CECU_Rivian_A1.5CTarget.5Crepo_projects.5CpRealEcu.5CcR_LATEST.5Cmake.5Coutput.5Cobjects.5CSwcApplTpms_Diag.:
                         621 _DIAG__ReqCallback_ReadIdFR:
000001e2 8007e110        622 	prepare	{r27,r28,r29,r31},0
000001e6 06d8            623 	mov	r6,r27
000001e8 3d0600000000*   624 	mov	_U16_RespLenght,r29
                         625 --	    .bf
                         626 .LDW42:
                         627 --line229
                         628 ..lin.C.3A.5C_ECU2.5CECU_Rivian_A1.5CTarget.5Crepo_projects.5CpRealEcu.5CcR_LATEST.5Cmake.5Coutput.5Cobjects.5CSwcApplTpms_Diag.25::
                         629 .LDWlin25:
000001ee 0092            630 	mov	0,r18
                         631 .L594:
000001f0 12f0            632 	mov	r18,ep
000001f2 ddf1            633 	add	r29,ep
000001f4 4192            634 	add	1,r18
000001f6 3de60400        635 	movea	4,r29,r28
000001fa 8403            636 	sst.b	zero,4[ep]
000001fc 1206f0ff        637 	addi	-16,r18,zero
00000200 89fd*           638 	bnl	.L594
                         639 --line234
                         640 ..lin.C.3A.5C_ECU2.5CECU_Rivian_A1.5CTarget.5Crepo_projects.5CpRealEcu.5CcR_LATEST.5Cmake.5Coutput.5Cobjects.5CSwcApplTpms_Diag.26::
                         641 .LDWlin26:
00000202 1c38            642 	mov	r28,r7
00000204 0132            643 	mov	1,r6
                         644 	jarl	_DIAG__GetWsIdForPosition,lp
                         644 <EXPANSION BEGIN>
                         644 jarl22 _DIAG__GetWsIdForPosition , lp 
00000206 bfff76ff*       644 <EXPANSION END>
                         645 --line236
                         646 ..lin.C.3A.5C_ECU2.5CECU_Rivian_A1.5CTarget.5Crepo_projects.5CpRealEcu.5CcR_LATEST.5Cmake.5Coutput.5Cobjects.5CSwcApplTpms_Diag.27::
                         647 .LDWlin27:
0000020a 1bf0            648 	mov	r27,ep
0000020c 0482            649 	mov	4,r16
0000020e 05e5            650 	sst.w	r28,8[ep]
00000210 7d870000        651 	st.h	r16,0[r29]
00000214 07ed            652 	sst.w	r29,12[ep]
00000216 0052            653 	mov	0,r10
                         654 --	    .ef
                         655 .LDW52:
00000218 4006ff10        656 	dispose	0,{r27,r28,r29,r31},[lp]
                         657 ___ghs_eofn_DIAG__ReqCallback_ReadIdFR:
                         658 	.type	_DIAG__ReqCallback_ReadIdFR,@function
                         659 	.size	_DIAG__ReqCallback_ReadIdFR,.-_DIAG__ReqCallback_ReadIdFR
                         660 	.type	_DIAG__ReqCallback_ReadIdFR..C.3A.5C_ECU2.5CECU_Rivian_A1.5CTarget.5Crepo_projects.5CpRealEcu.5CcR_LATEST.5Cmake.5Coutput.5Cobjects.5CSwcApplTpms_Diag.,@function
                         661 	.size	_DIAG__ReqCallback_ReadIdFR..C.3A.5C_ECU2.5CECU_Rivian_A1.5CTarget.5Crepo_projects.5CpRealEcu.5CcR_LATEST.5Cmake.5Coutput.5Cobjects.5CSwcApplTpms_Diag.,.-_DIAG__ReqCallback_ReadIdFR..C.3A.5C_ECU2.5CECU_Rivian_A1.5CTarget.5Crepo_projects.5CpRealEcu.5CcR_LATEST.5Cmake.5Coutput.5Cobjects.5CSwcApplTpms_Diag.
                         662 	.align	2
                         663 --_U8_LoopCnt	r18	local
                         664 
                         665 --_PS_MsgContext	r27	param
                         666 
                         667 	.data
                         668 	.text
                         669 	.align	2
                         670 	.align	2
                         671 ..gh.f.f.1.e.8:
                         672 	.type	..gh.f.f.1.e.8,@object
                         673 	.size	..gh.f.f.1.e.8,0
                         674 	.global	_DIAG__ReqCallback_ReadIdRR..C.3A.5C_ECU2.5CECU_Rivian_A1.5CTarget.5Crepo_projects.5CpRealEcu.5CcR_LATEST.5Cmake.5Coutput.5Cobjects.5CSwcApplTpms_Diag.

                                                                      Page 13
                                                              C:\Users\nhuliyap\AppData\Local\Temp\gh_0000ds81.s
                         675 _DIAG__ReqCallback_ReadIdRR..C.3A.5C_ECU2.5CECU_Rivian_A1.5CTarget.5Crepo_projects.5CpRealEcu.5CcR_LATEST.5Cmake.5Coutput.5Cobjects.5CSwcApplTpms_Diag.:
                         676 _DIAG__ReqCallback_ReadIdRR:
0000021c 8007e110        677 	prepare	{r27,r28,r29,r31},0
00000220 06d8            678 	mov	r6,r27
00000222 3d0600000000*   679 	mov	_U16_RespLenght,r29
                         680 --	    .bf
                         681 .LDW62:
                         682 --line248
                         683 ..lin.C.3A.5C_ECU2.5CECU_Rivian_A1.5CTarget.5Crepo_projects.5CpRealEcu.5CcR_LATEST.5Cmake.5Coutput.5Cobjects.5CSwcApplTpms_Diag.28::
                         684 .LDWlin28:
00000228 0092            685 	mov	0,r18
                         686 .L674:
0000022a 12f0            687 	mov	r18,ep
0000022c ddf1            688 	add	r29,ep
0000022e 4192            689 	add	1,r18
00000230 3de60400        690 	movea	4,r29,r28
00000234 8403            691 	sst.b	zero,4[ep]
00000236 1206f0ff        692 	addi	-16,r18,zero
0000023a 89fd*           693 	bnl	.L674
                         694 --line253
                         695 ..lin.C.3A.5C_ECU2.5CECU_Rivian_A1.5CTarget.5Crepo_projects.5CpRealEcu.5CcR_LATEST.5Cmake.5Coutput.5Cobjects.5CSwcApplTpms_Diag.29::
                         696 .LDWlin29:
0000023c 1c38            697 	mov	r28,r7
0000023e 0332            698 	mov	3,r6
                         699 	jarl	_DIAG__GetWsIdForPosition,lp
                         699 <EXPANSION BEGIN>
                         699 jarl22 _DIAG__GetWsIdForPosition , lp 
00000240 bfff3cff*       699 <EXPANSION END>
                         700 --line255
                         701 ..lin.C.3A.5C_ECU2.5CECU_Rivian_A1.5CTarget.5Crepo_projects.5CpRealEcu.5CcR_LATEST.5Cmake.5Coutput.5Cobjects.5CSwcApplTpms_Diag.30::
                         702 .LDWlin30:
00000244 1bf0            703 	mov	r27,ep
00000246 0482            704 	mov	4,r16
00000248 05e5            705 	sst.w	r28,8[ep]
0000024a 7d870000        706 	st.h	r16,0[r29]
0000024e 07ed            707 	sst.w	r29,12[ep]
00000250 0052            708 	mov	0,r10
                         709 --	    .ef
                         710 .LDW72:
00000252 4006ff10        711 	dispose	0,{r27,r28,r29,r31},[lp]
                         712 ___ghs_eofn_DIAG__ReqCallback_ReadIdRR:
                         713 	.type	_DIAG__ReqCallback_ReadIdRR,@function
                         714 	.size	_DIAG__ReqCallback_ReadIdRR,.-_DIAG__ReqCallback_ReadIdRR
                         715 	.type	_DIAG__ReqCallback_ReadIdRR..C.3A.5C_ECU2.5CECU_Rivian_A1.5CTarget.5Crepo_projects.5CpRealEcu.5CcR_LATEST.5Cmake.5Coutput.5Cobjects.5CSwcApplTpms_Diag.,@function
                         716 	.size	_DIAG__ReqCallback_ReadIdRR..C.3A.5C_ECU2.5CECU_Rivian_A1.5CTarget.5Crepo_projects.5CpRealEcu.5CcR_LATEST.5Cmake.5Coutput.5Cobjects.5CSwcApplTpms_Diag.,.-_DIAG__ReqCallback_ReadIdRR..C.3A.5C_ECU2.5CECU_Rivian_A1.5CTarget.5Crepo_projects.5CpRealEcu.5CcR_LATEST.5Cmake.5Coutput.5Cobjects.5CSwcApplTpms_Diag.
                         717 	.align	2
                         718 --_U8_LoopCnt	r18	local
                         719 
                         720 --_PS_MsgContext	r27	param
                         721 
                         722 	.data
                         723 	.text
                         724 	.align	2
                         725 	.align	2
                         726 ..gh.f.f.1.e.9:
                         727 	.type	..gh.f.f.1.e.9,@object
                         728 	.size	..gh.f.f.1.e.9,0
                         729 	.global	_DIAG__ReqCallback_ReadIdRL..C.3A.5C_ECU2.5CECU_Rivian_A1.5CTarget.5Crepo_projects.5CpRealEcu.5CcR_LATEST.5Cmake.5Coutput.5Cobjects.5CSwcApplTpms_Diag.
                         730 _DIAG__ReqCallback_ReadIdRL..C.3A.5C_ECU2.5CECU_Rivian_A1.5CTarget.5Crepo_projects.5CpRealEcu.5CcR_LATEST.5Cmake.5Coutput.5Cobjects.5CSwcApplTpms_Diag.:
                         731 _DIAG__ReqCallback_ReadIdRL:
00000256 8007e110        732 	prepare	{r27,r28,r29,r31},0

                                                                      Page 14
                                                              C:\Users\nhuliyap\AppData\Local\Temp\gh_0000ds81.s
0000025a 06d8            733 	mov	r6,r27
0000025c 3d0600000000*   734 	mov	_U16_RespLenght,r29
                         735 --	    .bf
                         736 .LDW82:
                         737 --line267
                         738 ..lin.C.3A.5C_ECU2.5CECU_Rivian_A1.5CTarget.5Crepo_projects.5CpRealEcu.5CcR_LATEST.5Cmake.5Coutput.5Cobjects.5CSwcApplTpms_Diag.31::
                         739 .LDWlin31:
00000262 0092            740 	mov	0,r18
                         741 .L754:
00000264 12f0            742 	mov	r18,ep
00000266 ddf1            743 	add	r29,ep
00000268 4192            744 	add	1,r18
0000026a 3de60400        745 	movea	4,r29,r28
0000026e 8403            746 	sst.b	zero,4[ep]
00000270 1206f0ff        747 	addi	-16,r18,zero
00000274 89fd*           748 	bnl	.L754
                         749 --line272
                         750 ..lin.C.3A.5C_ECU2.5CECU_Rivian_A1.5CTarget.5Crepo_projects.5CpRealEcu.5CcR_LATEST.5Cmake.5Coutput.5Cobjects.5CSwcApplTpms_Diag.32::
                         751 .LDWlin32:
00000276 1c38            752 	mov	r28,r7
00000278 0232            753 	mov	2,r6
                         754 	jarl	_DIAG__GetWsIdForPosition,lp
                         754 <EXPANSION BEGIN>
                         754 jarl22 _DIAG__GetWsIdForPosition , lp 
0000027a bfff02ff*       754 <EXPANSION END>
                         755 --line274
                         756 ..lin.C.3A.5C_ECU2.5CECU_Rivian_A1.5CTarget.5Crepo_projects.5CpRealEcu.5CcR_LATEST.5Cmake.5Coutput.5Cobjects.5CSwcApplTpms_Diag.33::
                         757 .LDWlin33:
0000027e 1bf0            758 	mov	r27,ep
00000280 0482            759 	mov	4,r16
00000282 05e5            760 	sst.w	r28,8[ep]
00000284 7d870000        761 	st.h	r16,0[r29]
00000288 07ed            762 	sst.w	r29,12[ep]
0000028a 0052            763 	mov	0,r10
                         764 --	    .ef
                         765 .LDW92:
0000028c 4006ff10        766 	dispose	0,{r27,r28,r29,r31},[lp]
                         767 ___ghs_eofn_DIAG__ReqCallback_ReadIdRL:
                         768 	.type	_DIAG__ReqCallback_ReadIdRL,@function
                         769 	.size	_DIAG__ReqCallback_ReadIdRL,.-_DIAG__ReqCallback_ReadIdRL
                         770 	.type	_DIAG__ReqCallback_ReadIdRL..C.3A.5C_ECU2.5CECU_Rivian_A1.5CTarget.5Crepo_projects.5CpRealEcu.5CcR_LATEST.5Cmake.5Coutput.5Cobjects.5CSwcApplTpms_Diag.,@function
                         771 	.size	_DIAG__ReqCallback_ReadIdRL..C.3A.5C_ECU2.5CECU_Rivian_A1.5CTarget.5Crepo_projects.5CpRealEcu.5CcR_LATEST.5Cmake.5Coutput.5Cobjects.5CSwcApplTpms_Diag.,.-_DIAG__ReqCallback_ReadIdRL..C.3A.5C_ECU2.5CECU_Rivian_A1.5CTarget.5Crepo_projects.5CpRealEcu.5CcR_LATEST.5Cmake.5Coutput.5Cobjects.5CSwcApplTpms_Diag.
                         772 	.align	2
                         773 --_U8_LoopCnt	r18	local
                         774 
                         775 --_PS_MsgContext	r27	param
                         776 
                         777 	.data
                         778 	.text
                         779 	.align	2
                         780 	.align	2
                         781 ..gh.f.f.1.e.10:
                         782 	.type	..gh.f.f.1.e.10,@object
                         783 	.size	..gh.f.f.1.e.10,0
                         784 	.global	_DIAG__GetLastReceivedWheelId..C.3A.5C_ECU2.5CECU_Rivian_A1.5CTarget.5Crepo_projects.5CpRealEcu.5CcR_LATEST.5Cmake.5Coutput.5Cobjects.5CSwcApplTpms_Diag.
                         785 _DIAG__GetLastReceivedWheelId..C.3A.5C_ECU2.5CECU_Rivian_A1.5CTarget.5Crepo_projects.5CpRealEcu.5CcR_LATEST.5Cmake.5Coutput.5Cobjects.5CSwcApplTpms_Diag.:
                         786 _DIAG__GetLastReceivedWheelId:
00000290 8207e100        787 	prepare	{r28,r29,r31},1
00000294 06e8            788 	mov	r6,r29
                         789 --	    .bf
                         790 .LDW03:

                                                                      Page 15
                                                              C:\Users\nhuliyap\AppData\Local\Temp\gh_0000ds81.s
                         791 	jarl	_ulGetReDataIdPD,lp
                         791 <EXPANSION BEGIN>
                         791 jarl22 _ulGetReDataIdPD , lp 
00000296 80ff0000*       791 <EXPANSION END>
0000029a 63570100        792 	st.w	r10,0[sp]
                         793 --line1149
                         794 ..lin.C.3A.5C_ECU2.5CECU_Rivian_A1.5CTarget.5Crepo_projects.5CpRealEcu.5CcR_LATEST.5Cmake.5Coutput.5Cobjects.5CSwcApplTpms_Diag.34::
                         795 .LDWlin34:
0000029e 008a            796 	mov	0,r17
                         797 .L834:
000002a0 1140            798 	mov	r17,r8
000002a2 c342            799 	shl	3,r8
000002a4 183a            800 	mov	-8,r7
000002a6 a839            801 	sub	r8,r7
000002a8 e7578240        802 	shr	r7,r10,r8
000002ac 5d470000        803 	st.b	r8,0[r29]
000002b0 41ea            804 	add	1,r29
000002b2 418a            805 	add	1,r17
000002b4 648a            806 	cmp	4,r17
000002b6 d1f5*           807 	bl	.L834
                         808 --line1155
                         809 ..lin.C.3A.5C_ECU2.5CECU_Rivian_A1.5CTarget.5Crepo_projects.5CpRealEcu.5CcR_LATEST.5Cmake.5Coutput.5Cobjects.5CSwcApplTpms_Diag.35::
                         810 .LDWlin35:
000002b8 04e2            811 	mov	4,r28
000002ba 20361000        812 	movea	16,zero,r6
                         813 	jarl	_bGetBitBetriebszustandBZ,lp
                         813 <EXPANSION BEGIN>
                         813 jarl22 _bGetBitBetriebszustandBZ , lp 
000002be 80ff0000*       813 <EXPANSION END>
000002c2 6152            814 	cmp	1,r10
000002c4 8a0d*           815 	bne	.L837
                         816 --line1157
                         817 ..lin.C.3A.5C_ECU2.5CECU_Rivian_A1.5CTarget.5Crepo_projects.5CpRealEcu.5CcR_LATEST.5Cmake.5Coutput.5Cobjects.5CSwcApplTpms_Diag.36::
                         818 .LDWlin36:
000002c6 0330            819 	mov	sp,r6
                         820 	jarl	_ucGetColOfID,lp
                         820 <EXPANSION BEGIN>
                         820 jarl22 _ucGetColOfID , lp 
000002c8 80ff0000*       820 <EXPANSION END>
000002cc 0a30            821 	mov	r10,r6
                         822 	jarl	_ucGetWPOfCol,lp
                         822 <EXPANSION BEGIN>
                         822 jarl22 _ucGetWPOfCol , lp 
000002ce 80ff0000*       822 <EXPANSION END>
000002d2 0ae0            823 	mov	r10,r28
                         824 .L837:
                         825 --line1162
                         826 ..lin.C.3A.5C_ECU2.5CECU_Rivian_A1.5CTarget.5Crepo_projects.5CpRealEcu.5CcR_LATEST.5Cmake.5Coutput.5Cobjects.5CSwcApplTpms_Diag.37::
                         827 .LDWlin37:
000002d4 1df0            828 	mov	r29,ep
000002d6 80e3            829 	sst.b	r28,0[ep]
000002d8 20e6ff00        830 	movea	255,zero,r28
000002dc 81e3            831 	sst.b	r28,1[ep]
000002de 42ea            832 	add	2,r29
                         833 	jarl	_ucGetReDataPreProcPressurePD,lp
                         833 <EXPANSION BEGIN>
                         833 jarl22 _ucGetReDataPreProcPressurePD , lp 
000002e0 80ff0000*       833 <EXPANSION END>
                         834 --line1169
                         835 ..lin.C.3A.5C_ECU2.5CECU_Rivian_A1.5CTarget.5Crepo_projects.5CpRealEcu.5CcR_LATEST.5Cmake.5Coutput.5Cobjects.5CSwcApplTpms_Diag.38::
                         836 .LDWlin38:

                                                                      Page 16
                                                              C:\Users\nhuliyap\AppData\Local\Temp\gh_0000ds81.s
000002e4 1c48            837 	mov	r28,r9
000002e6 0a0603ff        838 	addi	-253,r10,zero
000002ea c105*           839 	bl	.L840
                         840 --line1171
                         841 ..lin.C.3A.5C_ECU2.5CECU_Rivian_A1.5CTarget.5Crepo_projects.5CpRealEcu.5CcR_LATEST.5Cmake.5Coutput.5Cobjects.5CSwcApplTpms_Diag.39::
                         842 .LDWlin39:
000002ec 0a4e0200        843 	addi	2,r10,r9
000002f0 824a            844 	shr	2,r9
                         845 .L840:
000002f2 5d4f0000        846 	st.b	r9,0[r29]
                         847 	jarl	_scGetReDataPreProcTemperaturePD,lp
                         847 <EXPANSION BEGIN>
                         847 jarl22 _scGetReDataPreProcTemperaturePD , lp 
000002f6 80ff0000*       847 <EXPANSION END>
000002fa 0a962800        848 	addi	40,r10,r18
000002fe 9200            849 	zxb	r18
                         850 --line1179
                         851 ..lin.C.3A.5C_ECU2.5CECU_Rivian_A1.5CTarget.5Crepo_projects.5CpRealEcu.5CcR_LATEST.5Cmake.5Coutput.5Cobjects.5CSwcApplTpms_Diag.40::
                         852 .LDWlin40:
00000300 120659ff        853 	addi	-167,r18,zero
00000304 fc97224b        854 	cmovl	r28,r18,r9
00000308 5d4f0100        855 	st.b	r9,1[r29]
0000030c 0852            856 	mov	8,r10
                         857 --	    .ef
                         858 .LDW13:
0000030e 4206ff00        859 	dispose	1,{r28,r29,r31},[lp]
                         860 ___ghs_eofn_DIAG__GetLastReceivedWheelId:
                         861 	.type	_DIAG__GetLastReceivedWheelId,@function
                         862 	.size	_DIAG__GetLastReceivedWheelId,.-_DIAG__GetLastReceivedWheelId
                         863 	.type	_DIAG__GetLastReceivedWheelId..C.3A.5C_ECU2.5CECU_Rivian_A1.5CTarget.5Crepo_projects.5CpRealEcu.5CcR_LATEST.5Cmake.5Coutput.5Cobjects.5CSwcApplTpms_Diag.,@function
                         864 	.size	_DIAG__GetLastReceivedWheelId..C.3A.5C_ECU2.5CECU_Rivian_A1.5CTarget.5Crepo_projects.5CpRealEcu.5CcR_LATEST.5Cmake.5Coutput.5Cobjects.5CSwcApplTpms_Diag.,.-_DIAG__GetLastReceivedWheelId..C.3A.5C_ECU2.5CECU_Rivian_A1.5CTarget.5Crepo_projects.5CpRealEcu.5CcR_LATEST.5Cmake.5Coutput.5Cobjects.5CSwcApplTpms_Diag.
                         865 	.align	2
                         866 --_U8_Idx	r17	local
                         867 --_U8_RadPos	r28	local
                         868 --_U32_REId	0[sp]	local
                         869 --_U8_LocalTemperature	r18	local
                         870 --_U8_LocalPreProcPressurePD	r10	local
                         871 
                         872 --_PU8_ResData	r29	param
                         873 
                         874 	.section ".bss","awb"
                         875 .L938:
                         876 	.type	.L938,@object
                         877 	.size	.L938,0
                         878 	.data
                         879 	.text
                         880 	.align	2
                         881 	.align	2
                         882 ..gh.f.f.1.e.11:
                         883 	.type	..gh.f.f.1.e.11,@object
                         884 	.size	..gh.f.f.1.e.11,0
                         885 	.global	_DIAG__ReqCallback_ReadLastReceivedWheelSensor..C.3A.5C_ECU2.5CECU_Rivian_A1.5CTarget.5Crepo_projects.5CpRealEcu.5CcR_LATEST.5Cmake.5Coutput.5Cobjects.5CSwcApplTpms_Diag.
                         886 _DIAG__ReqCallback_ReadLastReceivedWheelSensor..C.3A.5C_ECU2.5CECU_Rivian_A1.5CTarget.5Crepo_projects.5CpRealEcu.5CcR_LATEST.5Cmake.5Coutput.5Cobjects.5CSwcApplTpms_Diag.:
                         887 _DIAG__ReqCallback_ReadLastReceivedWheelSensor:
00000312 8007e110        888 	prepare	{r27,r28,r29,r31},0
00000316 06d8            889 	mov	r6,r27
00000318 3d0600000000*   890 	mov	_U16_RespLenght,r29
                         891 --	    .bf
                         892 .LDW23:
                         893 --line286
                         894 ..lin.C.3A.5C_ECU2.5CECU_Rivian_A1.5CTarget.5Crepo_projects.5CpRealEcu.5CcR_LATEST.5Cmake.5Coutput.5Cobjects.5CSwcApplTpms_Diag.41::

                                                                      Page 17
                                                              C:\Users\nhuliyap\AppData\Local\Temp\gh_0000ds81.s
                         895 .LDWlin41:
0000031e 0092            896 	mov	0,r18
                         897 .L1017:
00000320 12f0            898 	mov	r18,ep
00000322 ddf1            899 	add	r29,ep
00000324 4192            900 	add	1,r18
00000326 3de60400        901 	movea	4,r29,r28
0000032a 8403            902 	sst.b	zero,4[ep]
0000032c 1206f0ff        903 	addi	-16,r18,zero
00000330 89fd*           904 	bnl	.L1017
                         905 --line290
                         906 ..lin.C.3A.5C_ECU2.5CECU_Rivian_A1.5CTarget.5Crepo_projects.5CpRealEcu.5CcR_LATEST.5Cmake.5Coutput.5Cobjects.5CSwcApplTpms_Diag.42::
                         907 .LDWlin42:
00000332 1c30            908 	mov	r28,r6
                         909 	jarl	_DIAG__GetLastReceivedWheelId,lp
                         909 <EXPANSION BEGIN>
                         909 jarl22 _DIAG__GetLastReceivedWheelId , lp 
00000334 bfff5cff*       909 <EXPANSION END>
                         910 --line292
                         911 ..lin.C.3A.5C_ECU2.5CECU_Rivian_A1.5CTarget.5Crepo_projects.5CpRealEcu.5CcR_LATEST.5Cmake.5Coutput.5Cobjects.5CSwcApplTpms_Diag.43::
                         912 .LDWlin43:
00000338 1bf0            913 	mov	r27,ep
0000033a 0882            914 	mov	8,r16
0000033c 05e5            915 	sst.w	r28,8[ep]
0000033e 7d870000        916 	st.h	r16,0[r29]
00000342 07ed            917 	sst.w	r29,12[ep]
00000344 0052            918 	mov	0,r10
                         919 --	    .ef
                         920 .LDW33:
00000346 4006ff10        921 	dispose	0,{r27,r28,r29,r31},[lp]
                         922 ___ghs_eofn_DIAG__ReqCallback_ReadLastReceivedWheelSensor:
                         923 	.type	_DIAG__ReqCallback_ReadLastReceivedWheelSensor,@function
                         924 	.size	_DIAG__ReqCallback_ReadLastReceivedWheelSensor,.-_DIAG__ReqCallback_ReadLastReceivedWheelSensor
                         925 	.type	_DIAG__ReqCallback_ReadLastReceivedWheelSensor..C.3A.5C_ECU2.5CECU_Rivian_A1.5CTarget.5Crepo_projects.5CpRealEcu.5CcR_LATEST.5Cmake.5Coutput.5Cobjects.5CSwcApplTpms_Diag.,@function
                         926 	.size	_DIAG__ReqCallback_ReadLastReceivedWheelSensor..C.3A.5C_ECU2.5CECU_Rivian_A1.5CTarget.5Crepo_projects.5CpRealEcu.5CcR_LATEST.5Cmake.5Coutput.5Cobjects.5CSwcApplTpms_Diag.,.-_DIAG__ReqCallback_ReadLastReceivedWheelSensor..C.3A.5C_ECU2.5CECU_Rivian_A1.5CTarget.5Crepo_projects.5CpRealEcu.5CcR_LATEST.5Cmake.5Coutput.5Cobjects.5CSwcApplTpms_Diag.
                         927 	.align	2
                         928 --_U8_LoopCnt	r18	local
                         929 
                         930 --_PS_MsgContext	r27	param
                         931 
                         932 	.data
                         933 	.text
                         934 	.align	2
                         935 	.align	2
                         936 ..gh.f.f.1.e.12:
                         937 	.type	..gh.f.f.1.e.12,@object
                         938 	.size	..gh.f.f.1.e.12,0
                         939 	.global	_DIAG__PutNewIDAndResetWarning..C.3A.5C_ECU2.5CECU_Rivian_A1.5CTarget.5Crepo_projects.5CpRealEcu.5CcR_LATEST.5Cmake.5Coutput.5Cobjects.5CSwcApplTpms_Diag.
                         940 _DIAG__PutNewIDAndResetWarning..C.3A.5C_ECU2.5CECU_Rivian_A1.5CTarget.5Crepo_projects.5CpRealEcu.5CcR_LATEST.5Cmake.5Coutput.5Cobjects.5CSwcApplTpms_Diag.:
                         941 _DIAG__PutNewIDAndResetWarning:
0000034a 8407e130        942 	prepare	{r26,r27,r28,r29,r31},2
0000034e 06e0            943 	mov	r6,r28
                         944 --	    .bf
                         945 .LDW43:
00000350 00d2            946 	mov	0,r26
00000352 1a90            947 	mov	r26,r18
00000354 12e8            948 	mov	r18,r29
                         949 .L1090:
00000356 9c670100        950 	ld.bu	0[r28],r12
0000035a 1d88            951 	mov	r29,r17
0000035c c38a            952 	shl	3,r17

                                                                      Page 18
                                                              C:\Users\nhuliyap\AppData\Local\Temp\gh_0000ds81.s
0000035e 1882            953 	mov	-8,r16
00000360 b181            954 	sub	r17,r16
00000362 f067c268        955 	shl	r16,r12,r13
00000366 0d91            956 	or	r13,r18
00000368 41e2            957 	add	1,r28
0000036a 41ea            958 	add	1,r29
0000036c 63970500        959 	st.w	r18,4[sp]
00000370 64ea            960 	cmp	4,r29
00000372 a1f5*           961 	bl	.L1090
                         962 --line1204
                         963 ..lin.C.3A.5C_ECU2.5CECU_Rivian_A1.5CTarget.5Crepo_projects.5CpRealEcu.5CcR_LATEST.5Cmake.5Coutput.5Cobjects.5CSwcApplTpms_Diag.44::
                         964 .LDWlin44:
00000374 1c38            965 	mov	r28,r7
00000376 23360400        966 	movea	4,sp,r6
                         967 	jarl	_ucSetID,lp
                         967 <EXPANSION BEGIN>
                         967 jarl22 _ucSetID , lp 
0000037a 80ff0000*       967 <EXPANSION END>
                         968 --line1206
                         969 ..lin.C.3A.5C_ECU2.5CECU_Rivian_A1.5CTarget.5Crepo_projects.5CpRealEcu.5CcR_LATEST.5Cmake.5Coutput.5Cobjects.5CSwcApplTpms_Diag.45::
                         970 .LDWlin45:
0000037e e051            971 	cmp	zero,r10
00000380 ca05*           972 	bne	.L1091
                         973 --line1208
                         974 ..lin.C.3A.5C_ECU2.5CECU_Rivian_A1.5CTarget.5Crepo_projects.5CpRealEcu.5CcR_LATEST.5Cmake.5Coutput.5Cobjects.5CSwcApplTpms_Diag.46::
                         975 .LDWlin46:
00000382 20d63100        976 	movea	49,zero,r26
00000386 853d*           977 	br	.L1093
                         978 .L1091:
00000388 0ad8            979 	mov	r10,r27
                         980 --line1211
                         981 ..lin.C.3A.5C_ECU2.5CECU_Rivian_A1.5CTarget.5Crepo_projects.5CpRealEcu.5CcR_LATEST.5Cmake.5Coutput.5Cobjects.5CSwcApplTpms_Diag.47::
                         982 .LDWlin47:
                         983 	jarl	_InitBZ,lp
                         983 <EXPANSION BEGIN>
                         983 jarl22 _InitBZ , lp 
0000038a 80ff0000*       983 <EXPANSION END>
                         984 --line1213
                         985 ..lin.C.3A.5C_ECU2.5CECU_Rivian_A1.5CTarget.5Crepo_projects.5CpRealEcu.5CcR_LATEST.5Cmake.5Coutput.5Cobjects.5CSwcApplTpms_Diag.48::
                         986 .LDWlin48:
0000038e 9c5f0100        987 	ld.bu	0[r28],r11
00000392 635a            988 	cmp	3,r11
00000394 b315*           989 	bnh	.L1094
                         990 --line1215
                         991 ..lin.C.3A.5C_ECU2.5CECU_Rivian_A1.5CTarget.5Crepo_projects.5CpRealEcu.5CcR_LATEST.5Cmake.5Coutput.5Cobjects.5CSwcApplTpms_Diag.49::
                         992 .LDWlin49:
00000396 0e52            993 	mov	14,r10
00000398 03f0            994 	mov	sp,ep
0000039a 0432            995 	mov	4,r6
0000039c 8253            996 	sst.b	r10,2[ep]
0000039e 8333            997 	sst.b	r6,3[ep]
000003a0 233e0200        998 	movea	2,sp,r7
                         999 	jarl	_ucWarnManagerWN,lp
                         999 <EXPANSION BEGIN>
                         999 jarl22 _ucWarnManagerWN , lp 
000003a4 80ff0000*       999 <EXPANSION END>
                        1000 --line1218
                        1001 ..lin.C.3A.5C_ECU2.5CECU_Rivian_A1.5CTarget.5Crepo_projects.5CpRealEcu.5CcR_LATEST.5Cmake.5Coutput.5Cobjects.5CSwcApplTpms_Diag.50::
                        1002 .LDWlin50:
000003a8 03f0           1003 	mov	sp,ep
000003aa 8203           1004 	sst.b	zero,2[ep]

                                                                      Page 19
                                                              C:\Users\nhuliyap\AppData\Local\Temp\gh_0000ds81.s
000003ac 8303           1005 	sst.b	zero,3[ep]
000003ae 0132           1006 	mov	1,r6
000003b0 233e0200       1007 	movea	2,sp,r7
                        1008 	jarl	_ucTSSMsgManagerTM,lp
                        1008 <EXPANSION BEGIN>
                        1008 jarl22 _ucTSSMsgManagerTM , lp 
000003b4 80ff0000*      1008 <EXPANSION END>
000003b8 f51d*          1009 	br	.L1093
                        1010 .L1094:
                        1011 --line1224
                        1012 ..lin.C.3A.5C_ECU2.5CECU_Rivian_A1.5CTarget.5Crepo_projects.5CpRealEcu.5CcR_LATEST.5Cmake.5Coutput.5Cobjects.5CSwcApplTpms_Diag.51::
                        1013 .LDWlin51:
000003ba 1ae8           1014 	mov	r26,r29
                        1015 .L1099:
000003bc 204e1000       1016 	movea	16,zero,r9
000003c0 fd4fc270       1017 	shl	r29,r9,r14
000003c4 0e78           1018 	mov	r14,r15
000003c6 8f00           1019 	zxb	r15
000003c8 5b79           1020 	and	r27,r15
000003ca ee79           1021 	cmp	r14,r15
000003cc aa15*          1022 	bne	.L1102
                        1023 --line1228
                        1024 ..lin.C.3A.5C_ECU2.5CECU_Rivian_A1.5CTarget.5Crepo_projects.5CpRealEcu.5CcR_LATEST.5Cmake.5Coutput.5Cobjects.5CSwcApplTpms_Diag.52::
                        1025 .LDWlin52:
000003ce 0e72           1026 	mov	14,r14
000003d0 03f0           1027 	mov	sp,ep
000003d2 8273           1028 	sst.b	r14,2[ep]
000003d4 83eb           1029 	sst.b	r29,3[ep]
000003d6 0432           1030 	mov	4,r6
000003d8 233e0200       1031 	movea	2,sp,r7
                        1032 	jarl	_ucWarnManagerWN,lp
                        1032 <EXPANSION BEGIN>
                        1032 jarl22 _ucWarnManagerWN , lp 
000003dc 80ff0000*      1032 <EXPANSION END>
                        1033 --line1231
                        1034 ..lin.C.3A.5C_ECU2.5CECU_Rivian_A1.5CTarget.5Crepo_projects.5CpRealEcu.5CcR_LATEST.5Cmake.5Coutput.5Cobjects.5CSwcApplTpms_Diag.53::
                        1035 .LDWlin53:
000003e0 03f0           1036 	mov	sp,ep
000003e2 8203           1037 	sst.b	zero,2[ep]
000003e4 8303           1038 	sst.b	zero,3[ep]
000003e6 0132           1039 	mov	1,r6
000003e8 233e0200       1040 	movea	2,sp,r7
                        1041 	jarl	_ucTSSMsgManagerTM,lp
                        1041 <EXPANSION BEGIN>
                        1041 jarl22 _ucTSSMsgManagerTM , lp 
000003ec 80ff0000*      1041 <EXPANSION END>
                        1042 .L1102:
                        1043 --line1224
                        1044 ..lin.C.3A.5C_ECU2.5CECU_Rivian_A1.5CTarget.5Crepo_projects.5CpRealEcu.5CcR_LATEST.5Cmake.5Coutput.5Cobjects.5CSwcApplTpms_Diag.54::
                        1045 .LDWlin54:
000003f0 41ea           1046 	add	1,r29
000003f2 64ea           1047 	cmp	4,r29
000003f4 c1e5*          1048 	bl	.L1099
                        1049 .L1093:
                        1050 --line1242
                        1051 ..lin.C.3A.5C_ECU2.5CECU_Rivian_A1.5CTarget.5Crepo_projects.5CpRealEcu.5CcR_LATEST.5Cmake.5Coutput.5Cobjects.5CSwcApplTpms_Diag.55::
                        1052 .LDWlin55:
000003f6 1a50           1053 	mov	r26,r10
                        1054 --	    .ef
                        1055 .LDW53:
000003f8 4406ff30       1056 	dispose	2,{r26,r27,r28,r29,r31},[lp]

                                                                      Page 20
                                                              C:\Users\nhuliyap\AppData\Local\Temp\gh_0000ds81.s
                        1057 ___ghs_eofn_DIAG__PutNewIDAndResetWarning:
                        1058 	.type	_DIAG__PutNewIDAndResetWarning,@function
                        1059 	.size	_DIAG__PutNewIDAndResetWarning,.-_DIAG__PutNewIDAndResetWarning
                        1060 	.type	_DIAG__PutNewIDAndResetWarning..C.3A.5C_ECU2.5CECU_Rivian_A1.5CTarget.5Crepo_projects.5CpRealEcu.5CcR_LATEST.5Cmake.5Coutput.5Cobjects.5CSwcApplTpms_Diag.,@function
                        1061 	.size	_DIAG__PutNewIDAndResetWarning..C.3A.5C_ECU2.5CECU_Rivian_A1.5CTarget.5Crepo_projects.5CpRealEcu.5CcR_LATEST.5Cmake.5Coutput.5Cobjects.5CSwcApplTpms_Diag.,.-_DIAG__PutNewIDAndResetWarning..C.3A.5C_ECU2.5CECU_Rivian_A1.5CTarget.5Crepo_projects.5CpRealEcu.5CcR_LATEST.5Cmake.5Coutput.5Cobjects.5CSwcApplTpms_Diag.
                        1062 	.align	2
                        1063 --_AU8_Service	2[sp]	local
                        1064 --_U8_Idx	r29	local
                        1065 --_U8_Ret	r27	local
                        1066 --_U8_RetVal	r26	local
                        1067 --_U32_REId	4[sp]	local
                        1068 
                        1069 --_PU8_ReqData	r28	param
                        1070 
                        1071 	.section ".bss","awb"
                        1072 .L2282:
                        1073 	.type	.L2282,@object
                        1074 	.size	.L2282,0
                        1075 	.data
                        1076 	.text
                        1077 	.align	2
                        1078 	.align	2
                        1079 ..gh.f.f.1.e.13:
                        1080 	.type	..gh.f.f.1.e.13,@object
                        1081 	.size	..gh.f.f.1.e.13,0
                        1082 	.global	_DIAG__ReqCallback_WriteWSNr01..C.3A.5C_ECU2.5CECU_Rivian_A1.5CTarget.5Crepo_projects.5CpRealEcu.5CcR_LATEST.5Cmake.5Coutput.5Cobjects.5CSwcApplTpms_Diag.
                        1083 _DIAG__ReqCallback_WriteWSNr01..C.3A.5C_ECU2.5CECU_Rivian_A1.5CTarget.5Crepo_projects.5CpRealEcu.5CcR_LATEST.5Cmake.5Coutput.5Cobjects.5CSwcApplTpms_Diag.:
                        1084 _DIAG__ReqCallback_WriteWSNr01:
000003fc 06f0           1085 	mov	r6,ep
                        1086 --	    .bf
                        1087 .LDW63:
000003fe 00f5           1088 	sld.w	0[ep],ep
00000400 260600000000*  1089 	mov	_AU8_ResData,r6
00000406 6090           1090 	sld.bu	0[ep],r18
00000408 46970000       1091 	st.b	r18,0[r6]
                        1092 --line305
                        1093 ..lin.C.3A.5C_ECU2.5CECU_Rivian_A1.5CTarget.5Crepo_projects.5CpRealEcu.5CcR_LATEST.5Cmake.5Coutput.5Cobjects.5CSwcApplTpms_Diag.56::
                        1094 .LDWlin56:
0000040c 6188           1095 	sld.bu	1[ep],r17
0000040e 468f0100       1096 	st.b	r17,1[r6]
00000412 6280           1097 	sld.bu	2[ep],r16
00000414 46870200       1098 	st.b	r16,2[r6]
00000418 6378           1099 	sld.bu	3[ep],r15
0000041a 06f0           1100 	mov	r6,ep
0000041c 8403           1101 	sst.b	zero,4[ep]
0000041e 837b           1102 	sst.b	r15,3[ep]
00000420 bf072aff*      1103 	jr	_DIAG__PutNewIDAndResetWarning
                        1104 --	    .ef
                        1105 .LDW73:
                        1106 ___ghs_eofn_DIAG__ReqCallback_WriteWSNr01:
                        1107 	.type	_DIAG__ReqCallback_WriteWSNr01,@function
                        1108 	.size	_DIAG__ReqCallback_WriteWSNr01,.-_DIAG__ReqCallback_WriteWSNr01
                        1109 	.type	_DIAG__ReqCallback_WriteWSNr01..C.3A.5C_ECU2.5CECU_Rivian_A1.5CTarget.5Crepo_projects.5CpRealEcu.5CcR_LATEST.5Cmake.5Coutput.5Cobjects.5CSwcApplTpms_Diag.,@function
                        1110 	.size	_DIAG__ReqCallback_WriteWSNr01..C.3A.5C_ECU2.5CECU_Rivian_A1.5CTarget.5Crepo_projects.5CpRealEcu.5CcR_LATEST.5Cmake.5Coutput.5Cobjects.5CSwcApplTpms_Diag.,.-_DIAG__ReqCallback_WriteWSNr01..C.3A.5C_ECU2.5CECU_Rivian_A1.5CTarget.5Crepo_projects.5CpRealEcu.5CcR_LATEST.5Cmake.5Coutput.5Cobjects.5CSwcApplTpms_Diag.
                        1111 	.align	2
                        1112 
                        1113 --_PS_MsgContext	ep	param
                        1114 
                        1115 	.data
                        1116 	.text
                        1117 	.align	2

                                                                      Page 21
                                                              C:\Users\nhuliyap\AppData\Local\Temp\gh_0000ds81.s
                        1118 	.align	2
                        1119 ..gh.f.f.1.e.14:
                        1120 	.type	..gh.f.f.1.e.14,@object
                        1121 	.size	..gh.f.f.1.e.14,0
                        1122 	.global	_DIAG__ReqCallback_WriteWSNr02..C.3A.5C_ECU2.5CECU_Rivian_A1.5CTarget.5Crepo_projects.5CpRealEcu.5CcR_LATEST.5Cmake.5Coutput.5Cobjects.5CSwcApplTpms_Diag.
                        1123 _DIAG__ReqCallback_WriteWSNr02..C.3A.5C_ECU2.5CECU_Rivian_A1.5CTarget.5Crepo_projects.5CpRealEcu.5CcR_LATEST.5Cmake.5Coutput.5Cobjects.5CSwcApplTpms_Diag.:
                        1124 _DIAG__ReqCallback_WriteWSNr02:
00000424 06f0           1125 	mov	r6,ep
                        1126 --	    .bf
                        1127 .LDW83:
00000426 00f5           1128 	sld.w	0[ep],ep
00000428 260600000000*  1129 	mov	_AU8_ResData,r6
                        1130 --line323
                        1131 ..lin.C.3A.5C_ECU2.5CECU_Rivian_A1.5CTarget.5Crepo_projects.5CpRealEcu.5CcR_LATEST.5Cmake.5Coutput.5Cobjects.5CSwcApplTpms_Diag.57::
                        1132 .LDWlin57:
0000042e 0172           1133 	mov	1,r14
00000430 6090           1134 	sld.bu	0[ep],r18
00000432 46970000       1135 	st.b	r18,0[r6]
00000436 6188           1136 	sld.bu	1[ep],r17
00000438 468f0100       1137 	st.b	r17,1[r6]
0000043c 6280           1138 	sld.bu	2[ep],r16
0000043e 46870200       1139 	st.b	r16,2[r6]
00000442 6378           1140 	sld.bu	3[ep],r15
00000444 06f0           1141 	mov	r6,ep
00000446 8473           1142 	sst.b	r14,4[ep]
00000448 837b           1143 	sst.b	r15,3[ep]
0000044a bf0700ff*      1144 	jr	_DIAG__PutNewIDAndResetWarning
                        1145 --	    .ef
                        1146 .LDW93:
                        1147 ___ghs_eofn_DIAG__ReqCallback_WriteWSNr02:
                        1148 	.type	_DIAG__ReqCallback_WriteWSNr02,@function
                        1149 	.size	_DIAG__ReqCallback_WriteWSNr02,.-_DIAG__ReqCallback_WriteWSNr02
                        1150 	.type	_DIAG__ReqCallback_WriteWSNr02..C.3A.5C_ECU2.5CECU_Rivian_A1.5CTarget.5Crepo_projects.5CpRealEcu.5CcR_LATEST.5Cmake.5Coutput.5Cobjects.5CSwcApplTpms_Diag.,@function
                        1151 	.size	_DIAG__ReqCallback_WriteWSNr02..C.3A.5C_ECU2.5CECU_Rivian_A1.5CTarget.5Crepo_projects.5CpRealEcu.5CcR_LATEST.5Cmake.5Coutput.5Cobjects.5CSwcApplTpms_Diag.,.-_DIAG__ReqCallback_WriteWSNr02..C.3A.5C_ECU2.5CECU_Rivian_A1.5CTarget.5Crepo_projects.5CpRealEcu.5CcR_LATEST.5Cmake.5Coutput.5Cobjects.5CSwcApplTpms_Diag.
                        1152 	.align	2
                        1153 
                        1154 --_PS_MsgContext	ep	param
                        1155 
                        1156 	.data
                        1157 	.text
                        1158 	.align	2
                        1159 	.align	2
                        1160 ..gh.f.f.1.e.15:
                        1161 	.type	..gh.f.f.1.e.15,@object
                        1162 	.size	..gh.f.f.1.e.15,0
                        1163 	.global	_DIAG__ReqCallback_WriteWSNr03..C.3A.5C_ECU2.5CECU_Rivian_A1.5CTarget.5Crepo_projects.5CpRealEcu.5CcR_LATEST.5Cmake.5Coutput.5Cobjects.5CSwcApplTpms_Diag.
                        1164 _DIAG__ReqCallback_WriteWSNr03..C.3A.5C_ECU2.5CECU_Rivian_A1.5CTarget.5Crepo_projects.5CpRealEcu.5CcR_LATEST.5Cmake.5Coutput.5Cobjects.5CSwcApplTpms_Diag.:
                        1165 _DIAG__ReqCallback_WriteWSNr03:
0000044e 06f0           1166 	mov	r6,ep
                        1167 --	    .bf
                        1168 .LDW04:
00000450 00f5           1169 	sld.w	0[ep],ep
00000452 260600000000*  1170 	mov	_AU8_ResData,r6
                        1171 --line338
                        1172 ..lin.C.3A.5C_ECU2.5CECU_Rivian_A1.5CTarget.5Crepo_projects.5CpRealEcu.5CcR_LATEST.5Cmake.5Coutput.5Cobjects.5CSwcApplTpms_Diag.58::
                        1173 .LDWlin58:
00000458 0272           1174 	mov	2,r14
0000045a 6090           1175 	sld.bu	0[ep],r18
0000045c 46970000       1176 	st.b	r18,0[r6]
00000460 6188           1177 	sld.bu	1[ep],r17
00000462 468f0100       1178 	st.b	r17,1[r6]

                                                                      Page 22
                                                              C:\Users\nhuliyap\AppData\Local\Temp\gh_0000ds81.s
00000466 6280           1179 	sld.bu	2[ep],r16
00000468 46870200       1180 	st.b	r16,2[r6]
0000046c 6378           1181 	sld.bu	3[ep],r15
0000046e 06f0           1182 	mov	r6,ep
00000470 8473           1183 	sst.b	r14,4[ep]
00000472 837b           1184 	sst.b	r15,3[ep]
00000474 bf07d6fe*      1185 	jr	_DIAG__PutNewIDAndResetWarning
                        1186 --	    .ef
                        1187 .LDW14:
                        1188 ___ghs_eofn_DIAG__ReqCallback_WriteWSNr03:
                        1189 	.type	_DIAG__ReqCallback_WriteWSNr03,@function
                        1190 	.size	_DIAG__ReqCallback_WriteWSNr03,.-_DIAG__ReqCallback_WriteWSNr03
                        1191 	.type	_DIAG__ReqCallback_WriteWSNr03..C.3A.5C_ECU2.5CECU_Rivian_A1.5CTarget.5Crepo_projects.5CpRealEcu.5CcR_LATEST.5Cmake.5Coutput.5Cobjects.5CSwcApplTpms_Diag.,@function
                        1192 	.size	_DIAG__ReqCallback_WriteWSNr03..C.3A.5C_ECU2.5CECU_Rivian_A1.5CTarget.5Crepo_projects.5CpRealEcu.5CcR_LATEST.5Cmake.5Coutput.5Cobjects.5CSwcApplTpms_Diag.,.-_DIAG__ReqCallback_WriteWSNr03..C.3A.5C_ECU2.5CECU_Rivian_A1.5CTarget.5Crepo_projects.5CpRealEcu.5CcR_LATEST.5Cmake.5Coutput.5Cobjects.5CSwcApplTpms_Diag.
                        1193 	.align	2
                        1194 
                        1195 --_PS_MsgContext	ep	param
                        1196 
                        1197 	.data
                        1198 	.text
                        1199 	.align	2
                        1200 	.align	2
                        1201 ..gh.f.f.1.e.16:
                        1202 	.type	..gh.f.f.1.e.16,@object
                        1203 	.size	..gh.f.f.1.e.16,0
                        1204 	.global	_DIAG__ReqCallback_WriteWSNr04..C.3A.5C_ECU2.5CECU_Rivian_A1.5CTarget.5Crepo_projects.5CpRealEcu.5CcR_LATEST.5Cmake.5Coutput.5Cobjects.5CSwcApplTpms_Diag.
                        1205 _DIAG__ReqCallback_WriteWSNr04..C.3A.5C_ECU2.5CECU_Rivian_A1.5CTarget.5Crepo_projects.5CpRealEcu.5CcR_LATEST.5Cmake.5Coutput.5Cobjects.5CSwcApplTpms_Diag.:
                        1206 _DIAG__ReqCallback_WriteWSNr04:
00000478 06f0           1207 	mov	r6,ep
                        1208 --	    .bf
                        1209 .LDW24:
0000047a 00f5           1210 	sld.w	0[ep],ep
0000047c 260600000000*  1211 	mov	_AU8_ResData,r6
                        1212 --line353
                        1213 ..lin.C.3A.5C_ECU2.5CECU_Rivian_A1.5CTarget.5Crepo_projects.5CpRealEcu.5CcR_LATEST.5Cmake.5Coutput.5Cobjects.5CSwcApplTpms_Diag.59::
                        1214 .LDWlin59:
00000482 0372           1215 	mov	3,r14
00000484 6090           1216 	sld.bu	0[ep],r18
00000486 46970000       1217 	st.b	r18,0[r6]
0000048a 6188           1218 	sld.bu	1[ep],r17
0000048c 468f0100       1219 	st.b	r17,1[r6]
00000490 6280           1220 	sld.bu	2[ep],r16
00000492 46870200       1221 	st.b	r16,2[r6]
00000496 6378           1222 	sld.bu	3[ep],r15
00000498 06f0           1223 	mov	r6,ep
0000049a 8473           1224 	sst.b	r14,4[ep]
0000049c 837b           1225 	sst.b	r15,3[ep]
0000049e bf07acfe*      1226 	jr	_DIAG__PutNewIDAndResetWarning
                        1227 --	    .ef
                        1228 .LDW34:
                        1229 ___ghs_eofn_DIAG__ReqCallback_WriteWSNr04:
                        1230 	.type	_DIAG__ReqCallback_WriteWSNr04,@function
                        1231 	.size	_DIAG__ReqCallback_WriteWSNr04,.-_DIAG__ReqCallback_WriteWSNr04
                        1232 	.type	_DIAG__ReqCallback_WriteWSNr04..C.3A.5C_ECU2.5CECU_Rivian_A1.5CTarget.5Crepo_projects.5CpRealEcu.5CcR_LATEST.5Cmake.5Coutput.5Cobjects.5CSwcApplTpms_Diag.,@function
                        1233 	.size	_DIAG__ReqCallback_WriteWSNr04..C.3A.5C_ECU2.5CECU_Rivian_A1.5CTarget.5Crepo_projects.5CpRealEcu.5CcR_LATEST.5Cmake.5Coutput.5Cobjects.5CSwcApplTpms_Diag.,.-_DIAG__ReqCallback_WriteWSNr04..C.3A.5C_ECU2.5CECU_Rivian_A1.5CTarget.5Crepo_projects.5CpRealEcu.5CcR_LATEST.5Cmake.5Coutput.5Cobjects.5CSwcApplTpms_Diag.
                        1234 	.align	2
                        1235 
                        1236 --_PS_MsgContext	ep	param
                        1237 
                        1238 	.data
                        1239 	.text

                                                                      Page 23
                                                              C:\Users\nhuliyap\AppData\Local\Temp\gh_0000ds81.s
                        1240 	.align	2
                        1241 	.align	2
                        1242 ..gh.f.f.1.e.17:
                        1243 	.type	..gh.f.f.1.e.17,@object
                        1244 	.size	..gh.f.f.1.e.17,0
                        1245 	.global	_DIAG__ReqCallback_ReadWheelSensorIDs..C.3A.5C_ECU2.5CECU_Rivian_A1.5CTarget.5Crepo_projects.5CpRealEcu.5CcR_LATEST.5Cmake.5Coutput.5Cobjects.5CSwcApplTpms_Diag.
                        1246 _DIAG__ReqCallback_ReadWheelSensorIDs..C.3A.5C_ECU2.5CECU_Rivian_A1.5CTarget.5Crepo_projects.5CpRealEcu.5CcR_LATEST.5Cmake.5Coutput.5Cobjects.5CSwcApplTpms_Diag.:
                        1247 _DIAG__ReqCallback_ReadWheelSensorIDs:
000004a2 8007e1b1       1248 	prepare	{r23,r24,r26,r27,r28,r29,r31},0
000004a6 06c0           1249 	mov	r6,r24
000004a8 3d0600000000*  1250 	mov	_U16_RespLenght,r29
                        1251 --	    .bf
                        1252 .LDW44:
                        1253 --line362
                        1254 ..lin.C.3A.5C_ECU2.5CECU_Rivian_A1.5CTarget.5Crepo_projects.5CpRealEcu.5CcR_LATEST.5Cmake.5Coutput.5Cobjects.5CSwcApplTpms_Diag.60::
                        1255 .LDWlin60:
000004ae 00d2           1256 	mov	0,r26
000004b0 20461000       1257 	movea	16,zero,r8
000004b4 7d470000       1258 	st.h	r8,0[r29]
000004b8 1a48           1259 	mov	r26,r9
                        1260 .L2586:
000004ba 09f0           1261 	mov	r9,ep
000004bc ddf1           1262 	add	r29,ep
000004be 414a           1263 	add	1,r9
000004c0 3de60400       1264 	movea	4,r29,r28
000004c4 8403           1265 	sst.b	zero,4[ep]
000004c6 0906f0ff       1266 	addi	-16,r9,zero
000004ca 89fd*          1267 	bnl	.L2586
                        1268 --line372
                        1269 ..lin.C.3A.5C_ECU2.5CECU_Rivian_A1.5CTarget.5Crepo_projects.5CpRealEcu.5CcR_LATEST.5Cmake.5Coutput.5Cobjects.5CSwcApplTpms_Diag.61::
                        1270 .LDWlin61:
000004cc 0830           1271 	mov	r8,r6
                        1272 	jarl	_bGetBitBetriebszustandBZ,lp
                        1272 <EXPANSION BEGIN>
                        1272 jarl22 _bGetBitBetriebszustandBZ , lp 
000004ce 80ff0000*      1272 <EXPANSION END>
000004d2 6152           1273 	cmp	1,r10
                        1274 --line375
                        1275 ..lin.C.3A.5C_ECU2.5CECU_Rivian_A1.5CTarget.5Crepo_projects.5CpRealEcu.5CcR_LATEST.5Cmake.5Coutput.5Cobjects.5CSwcApplTpms_Diag.62::
                        1276 .LDWlin62:
000004d4 1ad8           1277 	mov	r26,r27
000004d6 ea45*          1278 	bne	.L2588
                        1279 .L2592:
                        1280 --line377
                        1281 ..lin.C.3A.5C_ECU2.5CECU_Rivian_A1.5CTarget.5Crepo_projects.5CpRealEcu.5CcR_LATEST.5Cmake.5Coutput.5Cobjects.5CSwcApplTpms_Diag.63::
                        1282 .LDWlin63:
000004d8 1b30           1283 	mov	r27,r6
                        1284 	jarl	_GETucRadpositionPD,lp
                        1284 <EXPANSION BEGIN>
                        1284 jarl22 _GETucRadpositionPD , lp 
000004da 80ff0000*      1284 <EXPANSION END>
000004de 0ab8           1285 	mov	r10,r23
                        1286 --line378
                        1287 ..lin.C.3A.5C_ECU2.5CECU_Rivian_A1.5CTarget.5Crepo_projects.5CpRealEcu.5CcR_LATEST.5Cmake.5Coutput.5Cobjects.5CSwcApplTpms_Diag.64::
                        1288 .LDWlin64:
000004e0 1b30           1289 	mov	r27,r6
                        1290 	jarl	_ulGetID,lp
                        1290 <EXPANSION BEGIN>
                        1290 jarl22 _ulGetID , lp 
000004e2 80ff0000*      1290 <EXPANSION END>
                        1291 --line379

                                                                      Page 24
                                                              C:\Users\nhuliyap\AppData\Local\Temp\gh_0000ds81.s
                        1292 ..lin.C.3A.5C_ECU2.5CECU_Rivian_A1.5CTarget.5Crepo_projects.5CpRealEcu.5CcR_LATEST.5Cmake.5Coutput.5Cobjects.5CSwcApplTpms_Diag.65::
                        1293 .LDWlin65:
000004e6 61ba           1294 	cmp	1,r23
000004e8 9115*          1295 	bl	.L2595
000004ea c21d*          1296 	be	.L2596
000004ec 63ba           1297 	cmp	3,r23
000004ee e125*          1298 	bl	.L2597
000004f0 aa35*          1299 	bne	.L2593
                        1300 --line403
                        1301 ..lin.C.3A.5C_ECU2.5CECU_Rivian_A1.5CTarget.5Crepo_projects.5CpRealEcu.5CcR_LATEST.5Cmake.5Coutput.5Cobjects.5CSwcApplTpms_Diag.66::
                        1302 .LDWlin66:
000004f2 0a68           1303 	mov	r10,r13
000004f4 0a60           1304 	mov	r10,r12
000004f6 986a           1305 	shr	24,r13
000004f8 9062           1306 	shr	16,r12
000004fa 0a58           1307 	mov	r10,r11
000004fc 1cf0           1308 	mov	r28,ep
000004fe 885a           1309 	shr	8,r11
00000500 8c6b           1310 	sst.b	r13,12[ep]
00000502 8d63           1311 	sst.b	r12,13[ep]
00000504 8e5b           1312 	sst.b	r11,14[ep]
00000506 0ff2           1313 	mov	15,ep
00000508 c525*          1314 	br	.L2706
                        1315 .L2595:
                        1316 --line382
                        1317 ..lin.C.3A.5C_ECU2.5CECU_Rivian_A1.5CTarget.5Crepo_projects.5CpRealEcu.5CcR_LATEST.5Cmake.5Coutput.5Cobjects.5CSwcApplTpms_Diag.67::
                        1318 .LDWlin67:
0000050a 0a40           1319 	mov	r10,r8
0000050c 0a38           1320 	mov	r10,r7
0000050e 9842           1321 	shr	24,r8
00000510 903a           1322 	shr	16,r7
00000512 0a30           1323 	mov	r10,r6
00000514 1cf0           1324 	mov	r28,ep
00000516 8832           1325 	shr	8,r6
00000518 8043           1326 	sst.b	r8,0[ep]
0000051a 813b           1327 	sst.b	r7,1[ep]
0000051c 8233           1328 	sst.b	r6,2[ep]
0000051e 03f2           1329 	mov	3,ep
00000520 851d*          1330 	br	.L2706
                        1331 .L2596:
                        1332 --line389
                        1333 ..lin.C.3A.5C_ECU2.5CECU_Rivian_A1.5CTarget.5Crepo_projects.5CpRealEcu.5CcR_LATEST.5Cmake.5Coutput.5Cobjects.5CSwcApplTpms_Diag.68::
                        1334 .LDWlin68:
00000522 0a98           1335 	mov	r10,r19
00000524 0a90           1336 	mov	r10,r18
00000526 989a           1337 	shr	24,r19
00000528 9092           1338 	shr	16,r18
0000052a 0a88           1339 	mov	r10,r17
0000052c 1cf0           1340 	mov	r28,ep
0000052e 888a           1341 	shr	8,r17
00000530 849b           1342 	sst.b	r19,4[ep]
00000532 8593           1343 	sst.b	r18,5[ep]
00000534 868b           1344 	sst.b	r17,6[ep]
00000536 07f2           1345 	mov	7,ep
00000538 c50d*          1346 	br	.L2706
                        1347 .L2597:
                        1348 --line396
                        1349 ..lin.C.3A.5C_ECU2.5CECU_Rivian_A1.5CTarget.5Crepo_projects.5CpRealEcu.5CcR_LATEST.5Cmake.5Coutput.5Cobjects.5CSwcApplTpms_Diag.69::
                        1350 .LDWlin69:
0000053a 0a80           1351 	mov	r10,r16
0000053c 0a78           1352 	mov	r10,r15

                                                                      Page 25
                                                              C:\Users\nhuliyap\AppData\Local\Temp\gh_0000ds81.s
0000053e 0a70           1353 	mov	r10,r14
00000540 9882           1354 	shr	24,r16
00000542 1cf0           1355 	mov	r28,ep
00000544 907a           1356 	shr	16,r15
00000546 8872           1357 	shr	8,r14
00000548 8883           1358 	sst.b	r16,8[ep]
0000054a 897b           1359 	sst.b	r15,9[ep]
0000054c 8a73           1360 	sst.b	r14,10[ep]
0000054e 0bf2           1361 	mov	11,ep
                        1362 .L2706:
00000550 dcf1           1363 	add	r28,ep
00000552 8053           1364 	sst.b	r10,0[ep]
                        1365 .L2593:
00000554 41da           1366 	add	1,r27
00000556 64da           1367 	cmp	4,r27
00000558 81c5*          1368 	bl	.L2592
                        1369 --line415
                        1370 ..lin.C.3A.5C_ECU2.5CECU_Rivian_A1.5CTarget.5Crepo_projects.5CpRealEcu.5CcR_LATEST.5Cmake.5Coutput.5Cobjects.5CSwcApplTpms_Diag.70::
                        1371 .LDWlin70:
0000055a 18f0           1372 	mov	r24,ep
0000055c 05e5           1373 	sst.w	r28,8[ep]
0000055e 07ed           1374 	sst.w	r29,12[ep]
00000560 b505*          1375 	br	.L2600
                        1376 .L2588:
                        1377 --line422
                        1378 ..lin.C.3A.5C_ECU2.5CECU_Rivian_A1.5CTarget.5Crepo_projects.5CpRealEcu.5CcR_LATEST.5Cmake.5Coutput.5Cobjects.5CSwcApplTpms_Diag.71::
                        1379 .LDWlin71:
00000562 20d62200       1380 	movea	34,zero,r26
                        1381 .L2600:
00000566 1a50           1382 	mov	r26,r10
                        1383 --	    .ef
                        1384 .LDW54:
00000568 4006ffb1       1385 	dispose	0,{r23,r24,r26,r27,r28,r29,r31},[lp]
                        1386 ___ghs_eofn_DIAG__ReqCallback_ReadWheelSensorIDs:
                        1387 	.type	_DIAG__ReqCallback_ReadWheelSensorIDs,@function
                        1388 	.size	_DIAG__ReqCallback_ReadWheelSensorIDs,.-_DIAG__ReqCallback_ReadWheelSensorIDs
                        1389 	.type	_DIAG__ReqCallback_ReadWheelSensorIDs..C.3A.5C_ECU2.5CECU_Rivian_A1.5CTarget.5Crepo_projects.5CpRealEcu.5CcR_LATEST.5Cmake.5Coutput.5Cobjects.5CSwcApplTpms_Diag.,@function
                        1390 	.size	_DIAG__ReqCallback_ReadWheelSensorIDs..C.3A.5C_ECU2.5CECU_Rivian_A1.5CTarget.5Crepo_projects.5CpRealEcu.5CcR_LATEST.5Cmake.5Coutput.5Cobjects.5CSwcApplTpms_Diag.,.-_DIAG__ReqCallback_ReadWheelSensorIDs..C.3A.5C_ECU2.5CECU_Rivian_A1.5CTarget.5Crepo_projects.5CpRealEcu.5CcR_LATEST.5Cmake.5Coutput.5Cobjects.5CSwcApplTpms_Diag.
                        1391 	.align	2
                        1392 --_U8_RetVal	r26	local
                        1393 --_U8_Index	r27	local
                        1394 --_U8_RadPos	r23	local
                        1395 --_U32_TmpID	r10	local
                        1396 --_U8_LoopCnt	r9	local
                        1397 
                        1398 --_PS_MsgContext	r24	param
                        1399 
                        1400 	.data
                        1401 	.text
                        1402 	.align	2
                        1403 	.align	2
                        1404 ..gh.f.f.1.e.18:
                        1405 	.type	..gh.f.f.1.e.18,@object
                        1406 	.size	..gh.f.f.1.e.18,0
                        1407 	.global	_DIAG__ReqCallback_WriteWheelSensorIDs..C.3A.5C_ECU2.5CECU_Rivian_A1.5CTarget.5Crepo_projects.5CpRealEcu.5CcR_LATEST.5Cmake.5Coutput.5Cobjects.5CSwcApplTpms_Diag.
                        1408 _DIAG__ReqCallback_WriteWheelSensorIDs..C.3A.5C_ECU2.5CECU_Rivian_A1.5CTarget.5Crepo_projects.5CpRealEcu.5CcR_LATEST.5Cmake.5Coutput.5Cobjects.5CSwcApplTpms_Diag.:
                        1409 _DIAG__ReqCallback_WriteWheelSensorIDs:
0000056c 8007e110       1410 	prepare	{r27,r28,r29,r31},0
00000570 06e0           1411 	mov	r6,r28
                        1412 --	    .bf
                        1413 .LDW64:

                                                                      Page 26
                                                              C:\Users\nhuliyap\AppData\Local\Temp\gh_0000ds81.s
00000572 00da           1414 	mov	0,r27
00000574 1b90           1415 	mov	r27,r18
                        1416 .L2914:
00000576 3d0600000000*  1417 	mov	_AU8_ResData,r29
0000057c 12f0           1418 	mov	r18,ep
0000057e ddf1           1419 	add	r29,ep
                        1420 --line433
                        1421 ..lin.C.3A.5C_ECU2.5CECU_Rivian_A1.5CTarget.5Crepo_projects.5CpRealEcu.5CcR_LATEST.5Cmake.5Coutput.5Cobjects.5CSwcApplTpms_Diag.72::
                        1422 .LDWlin72:
00000580 4192           1423 	add	1,r18
00000582 8003           1424 	sst.b	zero,0[ep]
00000584 6592           1425 	cmp	5,r18
00000586 81fd*          1426 	bl	.L2914
                        1427 --line437
                        1428 ..lin.C.3A.5C_ECU2.5CECU_Rivian_A1.5CTarget.5Crepo_projects.5CpRealEcu.5CcR_LATEST.5Cmake.5Coutput.5Cobjects.5CSwcApplTpms_Diag.73::
                        1429 .LDWlin73:
00000588 26f70100       1430 	ld.w	0[r6],ep
0000058c 008d           1431 	sld.w	0[ep],r17
0000058e 0285           1432 	sld.w	4[ep],r16
00000590 1e660c00       1433 	addi	12,ep,r12
00000594 f089           1434 	cmp	r16,r17
00000596 e20d*          1435 	be	.L2916
00000598 0475           1436 	sld.w	8[ep],r14
0000059a ee89           1437 	cmp	r14,r17
0000059c b20d*          1438 	be	.L2916
0000059e 2c7f0100       1439 	ld.w	0[r12],r15
000005a2 ef89           1440 	cmp	r15,r17
000005a4 f205*          1441 	be	.L2916
000005a6 ee81           1442 	cmp	r14,r16
000005a8 d205*          1443 	be	.L2916
000005aa ef81           1444 	cmp	r15,r16
000005ac b205*          1445 	be	.L2916
000005ae ef71           1446 	cmp	r15,r14
000005b0 ca05*          1447 	bne	.L2915
                        1448 .L2916:
                        1449 --line449
                        1450 ..lin.C.3A.5C_ECU2.5CECU_Rivian_A1.5CTarget.5Crepo_projects.5CpRealEcu.5CcR_LATEST.5Cmake.5Coutput.5Cobjects.5CSwcApplTpms_Diag.74::
                        1451 .LDWlin74:
000005b2 20de2200       1452 	movea	34,zero,r27
000005b6 a54d*          1453 	br	.L2922
                        1454 .L2915:
                        1455 --line453
                        1456 ..lin.C.3A.5C_ECU2.5CECU_Rivian_A1.5CTarget.5Crepo_projects.5CpRealEcu.5CcR_LATEST.5Cmake.5Coutput.5Cobjects.5CSwcApplTpms_Diag.75::
                        1457 .LDWlin75:
000005b8 6058           1458 	sld.bu	0[ep],r11
000005ba 1d30           1459 	mov	r29,r6
000005bc 5d5f0000       1460 	st.b	r11,0[r29]
000005c0 6150           1461 	sld.bu	1[ep],r10
000005c2 5d570100       1462 	st.b	r10,1[r29]
000005c6 6248           1463 	sld.bu	2[ep],r9
000005c8 5d4f0200       1464 	st.b	r9,2[r29]
000005cc 6340           1465 	sld.bu	3[ep],r8
000005ce 1df0           1466 	mov	r29,ep
000005d0 8403           1467 	sst.b	zero,4[ep]
000005d2 8343           1468 	sst.b	r8,3[ep]
                        1469 	jarl	_DIAG__PutNewIDAndResetWarning,lp
                        1469 <EXPANSION BEGIN>
                        1469 jarl22 _DIAG__PutNewIDAndResetWarning , lp 
000005d4 bfff76fd*      1469 <EXPANSION END>
                        1470 --line460
                        1471 ..lin.C.3A.5C_ECU2.5CECU_Rivian_A1.5CTarget.5Crepo_projects.5CpRealEcu.5CcR_LATEST.5Cmake.5Coutput.5Cobjects.5CSwcApplTpms_Diag.76::

                                                                      Page 27
                                                              C:\Users\nhuliyap\AppData\Local\Temp\gh_0000ds81.s
                        1472 .LDWlin76:
000005d8 3cf70100       1473 	ld.w	0[r28],ep
000005dc 018a           1474 	mov	1,r17
000005de 6438           1475 	sld.bu	4[ep],r7
000005e0 5d3f0000       1476 	st.b	r7,0[r29]
000005e4 6530           1477 	sld.bu	5[ep],r6
000005e6 5d370100       1478 	st.b	r6,1[r29]
000005ea 6698           1479 	sld.bu	6[ep],r19
000005ec 1d30           1480 	mov	r29,r6
000005ee 5d9f0200       1481 	st.b	r19,2[r29]
000005f2 6790           1482 	sld.bu	7[ep],r18
000005f4 1df0           1483 	mov	r29,ep
000005f6 848b           1484 	sst.b	r17,4[ep]
000005f8 8393           1485 	sst.b	r18,3[ep]
                        1486 	jarl	_DIAG__PutNewIDAndResetWarning,lp
                        1486 <EXPANSION BEGIN>
                        1486 jarl22 _DIAG__PutNewIDAndResetWarning , lp 
000005fa bfff50fd*      1486 <EXPANSION END>
                        1487 --line467
                        1488 ..lin.C.3A.5C_ECU2.5CECU_Rivian_A1.5CTarget.5Crepo_projects.5CpRealEcu.5CcR_LATEST.5Cmake.5Coutput.5Cobjects.5CSwcApplTpms_Diag.77::
                        1489 .LDWlin77:
000005fe 3cf70100       1490 	ld.w	0[r28],ep
00000602 0262           1491 	mov	2,r12
00000604 1d30           1492 	mov	r29,r6
00000606 6880           1493 	sld.bu	8[ep],r16
00000608 5d870000       1494 	st.b	r16,0[r29]
0000060c 6978           1495 	sld.bu	9[ep],r15
0000060e 5d7f0100       1496 	st.b	r15,1[r29]
00000612 6a70           1497 	sld.bu	10[ep],r14
00000614 5d770200       1498 	st.b	r14,2[r29]
00000618 6b68           1499 	sld.bu	11[ep],r13
0000061a 1df0           1500 	mov	r29,ep
0000061c 8463           1501 	sst.b	r12,4[ep]
0000061e 836b           1502 	sst.b	r13,3[ep]
                        1503 	jarl	_DIAG__PutNewIDAndResetWarning,lp
                        1503 <EXPANSION BEGIN>
                        1503 jarl22 _DIAG__PutNewIDAndResetWarning , lp 
00000620 bfff2afd*      1503 <EXPANSION END>
                        1504 --line474
                        1505 ..lin.C.3A.5C_ECU2.5CECU_Rivian_A1.5CTarget.5Crepo_projects.5CpRealEcu.5CcR_LATEST.5Cmake.5Coutput.5Cobjects.5CSwcApplTpms_Diag.78::
                        1506 .LDWlin78:
00000624 3cf70100       1507 	ld.w	0[r28],ep
00000628 033a           1508 	mov	3,r7
0000062a 1d30           1509 	mov	r29,r6
0000062c 6c58           1510 	sld.bu	12[ep],r11
0000062e 5d5f0000       1511 	st.b	r11,0[r29]
00000632 6d50           1512 	sld.bu	13[ep],r10
00000634 5d570100       1513 	st.b	r10,1[r29]
00000638 6e48           1514 	sld.bu	14[ep],r9
0000063a 5d4f0200       1515 	st.b	r9,2[r29]
0000063e 6f40           1516 	sld.bu	15[ep],r8
00000640 1df0           1517 	mov	r29,ep
00000642 843b           1518 	sst.b	r7,4[ep]
00000644 8343           1519 	sst.b	r8,3[ep]
                        1520 	jarl	_DIAG__PutNewIDAndResetWarning,lp
                        1520 <EXPANSION BEGIN>
                        1520 jarl22 _DIAG__PutNewIDAndResetWarning , lp 
00000646 bfff04fd*      1520 <EXPANSION END>
                        1521 .L2922:
                        1522 --line481
                        1523 ..lin.C.3A.5C_ECU2.5CECU_Rivian_A1.5CTarget.5Crepo_projects.5CpRealEcu.5CcR_LATEST.5Cmake.5Coutput.5Cobjects.5CSwcApplTpms_Diag.79::

                                                                      Page 28
                                                              C:\Users\nhuliyap\AppData\Local\Temp\gh_0000ds81.s
                        1524 .LDWlin79:
0000064a 1b50           1525 	mov	r27,r10
                        1526 --	    .ef
                        1527 .LDW74:
0000064c 4006ff10       1528 	dispose	0,{r27,r28,r29,r31},[lp]
                        1529 ___ghs_eofn_DIAG__ReqCallback_WriteWheelSensorIDs:
                        1530 	.type	_DIAG__ReqCallback_WriteWheelSensorIDs,@function
                        1531 	.size	_DIAG__ReqCallback_WriteWheelSensorIDs,.-_DIAG__ReqCallback_WriteWheelSensorIDs
                        1532 	.type	_DIAG__ReqCallback_WriteWheelSensorIDs..C.3A.5C_ECU2.5CECU_Rivian_A1.5CTarget.5Crepo_projects.5CpRealEcu.5CcR_LATEST.5Cmake.5Coutput.5Cobjects.5CSwcApplTpms_Diag.,@function
                        1533 	.size	_DIAG__ReqCallback_WriteWheelSensorIDs..C.3A.5C_ECU2.5CECU_Rivian_A1.5CTarget.5Crepo_projects.5CpRealEcu.5CcR_LATEST.5Cmake.5Coutput.5Cobjects.5CSwcApplTpms_Diag.,.-_DIAG__ReqCallback_WriteWheelSensorIDs..C.3A.5C_ECU2.5CECU_Rivian_A1.5CTarget.5Crepo_projects.5CpRealEcu.5CcR_LATEST.5Cmake.5Coutput.5Cobjects.5CSwcApplTpms_Diag.
                        1534 	.align	2
                        1535 --_U8_RetVal	r27	local
                        1536 --_U8_LoopCnt	r18	local
                        1537 --_ID3	r13	local
                        1538 --_ID4	r12	local
                        1539 
                        1540 --_PS_MsgContext	r28	param
                        1541 
                        1542 	.data
                        1543 	.text
                        1544 	.align	2
                        1545 	.align	2
                        1546 ..gh.f.f.1.e.19:
                        1547 	.type	..gh.f.f.1.e.19,@object
                        1548 	.size	..gh.f.f.1.e.19,0
                        1549 	.global	_DIAG__GetVehicleSpecPara..C.3A.5C_ECU2.5CECU_Rivian_A1.5CTarget.5Crepo_projects.5CpRealEcu.5CcR_LATEST.5Cmake.5Coutput.5Cobjects.5CSwcApplTpms_Diag.
                        1550 _DIAG__GetVehicleSpecPara..C.3A.5C_ECU2.5CECU_Rivian_A1.5CTarget.5Crepo_projects.5CpRealEcu.5CcR_LATEST.5Cmake.5Coutput.5Cobjects.5CSwcApplTpms_Diag.:
                        1551 _DIAG__GetVehicleSpecPara:
00000650 80076100       1552 	prepare	{r29,r31},0
00000654 06e8           1553 	mov	r6,r29
                        1554 --	    .bf
                        1555 .LDW84:
                        1556 	jarl	_GETucVarCodLegislationEE,lp
                        1556 <EXPANSION BEGIN>
                        1556 jarl22 _GETucVarCodLegislationEE , lp 
00000656 80ff0000*      1556 <EXPANSION END>
0000065a 5d570000       1557 	st.b	r10,0[r29]
                        1558 --line1249
                        1559 ..lin.C.3A.5C_ECU2.5CECU_Rivian_A1.5CTarget.5Crepo_projects.5CpRealEcu.5CcR_LATEST.5Cmake.5Coutput.5Cobjects.5CSwcApplTpms_Diag.80::
                        1560 .LDWlin80:
                        1561 	jarl	_GETucVarCodPlacardPressEE,lp
                        1561 <EXPANSION BEGIN>
                        1561 jarl22 _GETucVarCodPlacardPressEE , lp 
0000065e 80ff0000*      1561 <EXPANSION END>
00000662 5d570100       1562 	st.b	r10,1[r29]
                        1563 --line1251
                        1564 ..lin.C.3A.5C_ECU2.5CECU_Rivian_A1.5CTarget.5Crepo_projects.5CpRealEcu.5CcR_LATEST.5Cmake.5Coutput.5Cobjects.5CSwcApplTpms_Diag.81::
                        1565 .LDWlin81:
                        1566 	jarl	_NvM3_GETucVarCodOffroadPlacardPress,lp
                        1566 <EXPANSION BEGIN>
                        1566 jarl22 _NvM3_GETucVarCodOffroadPlacardPress , lp 
00000666 80ff0000*      1566 <EXPANSION END>
0000066a 5d570200       1567 	st.b	r10,2[r29]
                        1568 --line1253
                        1569 ..lin.C.3A.5C_ECU2.5CECU_Rivian_A1.5CTarget.5Crepo_projects.5CpRealEcu.5CcR_LATEST.5Cmake.5Coutput.5Cobjects.5CSwcApplTpms_Diag.82::
                        1570 .LDWlin82:
                        1571 	jarl	_GETucVarCodMinPressThresEE,lp
                        1571 <EXPANSION BEGIN>
                        1571 jarl22 _GETucVarCodMinPressThresEE , lp 
0000066e 80ff0000*      1571 <EXPANSION END>
00000672 5d570300       1572 	st.b	r10,3[r29]

                                                                      Page 29
                                                              C:\Users\nhuliyap\AppData\Local\Temp\gh_0000ds81.s
                        1573 --	    .ef
                        1574 .LDW94:
                        1575 --line1255
                        1576 ..lin.C.3A.5C_ECU2.5CECU_Rivian_A1.5CTarget.5Crepo_projects.5CpRealEcu.5CcR_LATEST.5Cmake.5Coutput.5Cobjects.5CSwcApplTpms_Diag.83::
                        1577 .LDWlin83:
00000676 40067f00       1578 	dispose	0,{r29,r31},[lp]
                        1579 ___ghs_eofn_DIAG__GetVehicleSpecPara:
                        1580 	.type	_DIAG__GetVehicleSpecPara,@function
                        1581 	.size	_DIAG__GetVehicleSpecPara,.-_DIAG__GetVehicleSpecPara
                        1582 	.type	_DIAG__GetVehicleSpecPara..C.3A.5C_ECU2.5CECU_Rivian_A1.5CTarget.5Crepo_projects.5CpRealEcu.5CcR_LATEST.5Cmake.5Coutput.5Cobjects.5CSwcApplTpms_Diag.,@function
                        1583 	.size	_DIAG__GetVehicleSpecPara..C.3A.5C_ECU2.5CECU_Rivian_A1.5CTarget.5Crepo_projects.5CpRealEcu.5CcR_LATEST.5Cmake.5Coutput.5Cobjects.5CSwcApplTpms_Diag.,.-_DIAG__GetVehicleSpecPara..C.3A.5C_ECU2.5CECU_Rivian_A1.5CTarget.5Crepo_projects.5CpRealEcu.5CcR_LATEST.5Cmake.5Coutput.5Cobjects.5CSwcApplTpms_Diag.
                        1584 	.align	2
                        1585 
                        1586 --_PU8_ResData	r29	param
                        1587 
                        1588 	.section ".bss","awb"
                        1589 .L3140:
                        1590 	.type	.L3140,@object
                        1591 	.size	.L3140,0
                        1592 	.data
                        1593 	.text
                        1594 	.align	2
                        1595 	.align	2
                        1596 ..gh.f.f.1.e.20:
                        1597 	.type	..gh.f.f.1.e.20,@object
                        1598 	.size	..gh.f.f.1.e.20,0
                        1599 	.global	_DIAG__ReqCallback_ReadVehicleSpecificParameters..C.3A.5C_ECU2.5CECU_Rivian_A1.5CTarget.5Crepo_projects.5CpRealEcu.5CcR_LATEST.5Cmake.5Coutput.5Cobjects.5CSwcApplTpms_Diag.
                        1600 _DIAG__ReqCallback_ReadVehicleSpecificParameters..C.3A.5C_ECU2.5CECU_Rivian_A1.5CTarget.5Crepo_projects.5CpRealEcu.5CcR_LATEST.5Cmake.5Coutput.5Cobjects.5CSwcApplTpms_Diag.:
                        1601 _DIAG__ReqCallback_ReadVehicleSpecificParameters:
0000067a 8007e110       1602 	prepare	{r27,r28,r29,r31},0
0000067e 06d8           1603 	mov	r6,r27
00000680 3d0600000000*  1604 	mov	_U16_RespLenght,r29
                        1605 --	    .bf
                        1606 .LDW05:
                        1607 --line489
                        1608 ..lin.C.3A.5C_ECU2.5CECU_Rivian_A1.5CTarget.5Crepo_projects.5CpRealEcu.5CcR_LATEST.5Cmake.5Coutput.5Cobjects.5CSwcApplTpms_Diag.84::
                        1609 .LDWlin84:
00000686 0092           1610 	mov	0,r18
                        1611 .L3162:
00000688 12f0           1612 	mov	r18,ep
0000068a ddf1           1613 	add	r29,ep
0000068c 4192           1614 	add	1,r18
0000068e 3de60400       1615 	movea	4,r29,r28
00000692 8403           1616 	sst.b	zero,4[ep]
00000694 1206f0ff       1617 	addi	-16,r18,zero
00000698 89fd*          1618 	bnl	.L3162
                        1619 --line493
                        1620 ..lin.C.3A.5C_ECU2.5CECU_Rivian_A1.5CTarget.5Crepo_projects.5CpRealEcu.5CcR_LATEST.5Cmake.5Coutput.5Cobjects.5CSwcApplTpms_Diag.85::
                        1621 .LDWlin85:
0000069a 1c30           1622 	mov	r28,r6
                        1623 	jarl	_DIAG__GetVehicleSpecPara,lp
                        1623 <EXPANSION BEGIN>
                        1623 jarl22 _DIAG__GetVehicleSpecPara , lp 
0000069c bfffb4ff*      1623 <EXPANSION END>
                        1624 --line495
                        1625 ..lin.C.3A.5C_ECU2.5CECU_Rivian_A1.5CTarget.5Crepo_projects.5CpRealEcu.5CcR_LATEST.5Cmake.5Coutput.5Cobjects.5CSwcApplTpms_Diag.86::
                        1626 .LDWlin86:
000006a0 1bf0           1627 	mov	r27,ep
000006a2 0482           1628 	mov	4,r16
000006a4 05e5           1629 	sst.w	r28,8[ep]
000006a6 7d870000       1630 	st.h	r16,0[r29]

                                                                      Page 30
                                                              C:\Users\nhuliyap\AppData\Local\Temp\gh_0000ds81.s
000006aa 07ed           1631 	sst.w	r29,12[ep]
000006ac 0052           1632 	mov	0,r10
                        1633 --	    .ef
                        1634 .LDW15:
000006ae 4006ff10       1635 	dispose	0,{r27,r28,r29,r31},[lp]
                        1636 ___ghs_eofn_DIAG__ReqCallback_ReadVehicleSpecificParameters:
                        1637 	.type	_DIAG__ReqCallback_ReadVehicleSpecificParameters,@function
                        1638 	.size	_DIAG__ReqCallback_ReadVehicleSpecificParameters,.-_DIAG__ReqCallback_ReadVehicleSpecificParameters
                        1639 	.type	_DIAG__ReqCallback_ReadVehicleSpecificParameters..C.3A.5C_ECU2.5CECU_Rivian_A1.5CTarget.5Crepo_projects.5CpRealEcu.5CcR_LATEST.5Cmake.5Coutput.5Cobjects.5CSwcApplTpms_Diag.,@function
                        1640 	.size	_DIAG__ReqCallback_ReadVehicleSpecificParameters..C.3A.5C_ECU2.5CECU_Rivian_A1.5CTarget.5Crepo_projects.5CpRealEcu.5CcR_LATEST.5Cmake.5Coutput.5Cobjects.5CSwcApplTpms_Diag.,.-_DIAG__ReqCallback_ReadVehicleSpecificParameters..C.3A.5C_ECU2.5CECU_Rivian_A1.5CTarget.5Crepo_projects.5CpRealEcu.5CcR_LATEST.5Cmake.5Coutput.5Cobjects.5CSwcApplTpms_Diag.
                        1641 	.align	2
                        1642 --_U8_LoopCnt	r18	local
                        1643 
                        1644 --_PS_MsgContext	r27	param
                        1645 
                        1646 	.data
                        1647 	.text
                        1648 	.align	2
                        1649 	.align	2
                        1650 ..gh.f.f.1.e.21:
                        1651 	.type	..gh.f.f.1.e.21,@object
                        1652 	.size	..gh.f.f.1.e.21,0
                        1653 	.global	_DIAG__PutVehicleSpecPara..C.3A.5C_ECU2.5CECU_Rivian_A1.5CTarget.5Crepo_projects.5CpRealEcu.5CcR_LATEST.5Cmake.5Coutput.5Cobjects.5CSwcApplTpms_Diag.
                        1654 _DIAG__PutVehicleSpecPara..C.3A.5C_ECU2.5CECU_Rivian_A1.5CTarget.5Crepo_projects.5CpRealEcu.5CcR_LATEST.5Cmake.5Coutput.5Cobjects.5CSwcApplTpms_Diag.:
                        1655 _DIAG__PutVehicleSpecPara:
000006b2 80076100       1656 	prepare	{r29,r31},0
000006b6 06e8           1657 	mov	r6,r29
                        1658 --	    .bf
                        1659 .LDW25:
000006b8 86370100       1660 	ld.bu	0[r6],r6
                        1661 	jarl	_PUTucVarCodLegislationEE,lp
                        1661 <EXPANSION BEGIN>
                        1661 jarl22 _PUTucVarCodLegislationEE , lp 
000006bc 80ff0000*      1661 <EXPANSION END>
                        1662 --line1261
                        1663 ..lin.C.3A.5C_ECU2.5CECU_Rivian_A1.5CTarget.5Crepo_projects.5CpRealEcu.5CcR_LATEST.5Cmake.5Coutput.5Cobjects.5CSwcApplTpms_Diag.87::
                        1664 .LDWlin87:
000006c0 bd370100       1665 	ld.bu	1[r29],r6
                        1666 	jarl	_PUTucVarCodPlacardPressEE,lp
                        1666 <EXPANSION BEGIN>
                        1666 jarl22 _PUTucVarCodPlacardPressEE , lp 
000006c4 80ff0000*      1666 <EXPANSION END>
                        1667 --line1263
                        1668 ..lin.C.3A.5C_ECU2.5CECU_Rivian_A1.5CTarget.5Crepo_projects.5CpRealEcu.5CcR_LATEST.5Cmake.5Coutput.5Cobjects.5CSwcApplTpms_Diag.88::
                        1669 .LDWlin88:
                        1670 	jarl	_CalibrSetPressureCAL,lp
                        1670 <EXPANSION BEGIN>
                        1670 jarl22 _CalibrSetPressureCAL , lp 
000006c8 80ff0000*      1670 <EXPANSION END>
                        1671 --	    .ef
                        1672 .LDW35:
                        1673 --line1264
                        1674 ..lin.C.3A.5C_ECU2.5CECU_Rivian_A1.5CTarget.5Crepo_projects.5CpRealEcu.5CcR_LATEST.5Cmake.5Coutput.5Cobjects.5CSwcApplTpms_Diag.89::
                        1675 .LDWlin89:
000006cc 40067f00       1676 	dispose	0,{r29,r31},[lp]
                        1677 ___ghs_eofn_DIAG__PutVehicleSpecPara:
                        1678 	.type	_DIAG__PutVehicleSpecPara,@function
                        1679 	.size	_DIAG__PutVehicleSpecPara,.-_DIAG__PutVehicleSpecPara
                        1680 	.type	_DIAG__PutVehicleSpecPara..C.3A.5C_ECU2.5CECU_Rivian_A1.5CTarget.5Crepo_projects.5CpRealEcu.5CcR_LATEST.5Cmake.5Coutput.5Cobjects.5CSwcApplTpms_Diag.,@function
                        1681 	.size	_DIAG__PutVehicleSpecPara..C.3A.5C_ECU2.5CECU_Rivian_A1.5CTarget.5Crepo_projects.5CpRealEcu.5CcR_LATEST.5Cmake.5Coutput.5Cobjects.5CSwcApplTpms_Diag.,.-_DIAG__PutVehicleSpecPara..C.3A.5C_ECU2.5CECU_Rivian_A1.5CTarget.5Crepo_projects.5CpRealEcu.5CcR_LATEST.5Cmake.5Coutput.5Cobjects.5CSwcApplTpms_Diag.
                        1682 	.align	2

                                                                      Page 31
                                                              C:\Users\nhuliyap\AppData\Local\Temp\gh_0000ds81.s
                        1683 
                        1684 --_PU8_ReqData	r29	param
                        1685 
                        1686 	.section ".bss","awb"
                        1687 .L3249:
                        1688 	.type	.L3249,@object
                        1689 	.size	.L3249,0
                        1690 	.data
                        1691 	.text
                        1692 	.align	2
                        1693 	.align	2
                        1694 ..gh.f.f.1.e.22:
                        1695 	.type	..gh.f.f.1.e.22,@object
                        1696 	.size	..gh.f.f.1.e.22,0
                        1697 	.global	_DIAG__PutMinPressThresEE..C.3A.5C_ECU2.5CECU_Rivian_A1.5CTarget.5Crepo_projects.5CpRealEcu.5CcR_LATEST.5Cmake.5Coutput.5Cobjects.5CSwcApplTpms_Diag.
                        1698 _DIAG__PutMinPressThresEE..C.3A.5C_ECU2.5CECU_Rivian_A1.5CTarget.5Crepo_projects.5CpRealEcu.5CcR_LATEST.5Cmake.5Coutput.5Cobjects.5CSwcApplTpms_Diag.:
                        1699 _DIAG__PutMinPressThresEE:
000006d0 80072100       1700 	prepare	{r31},0
000006d4 06f0           1701 	mov	r6,ep
                        1702 --	    .bf
                        1703 .LDW45:
000006d6 6030           1704 	sld.bu	0[ep],r6
                        1705 	jarl	_PUTucVarCodMinPressThresEE,lp
                        1705 <EXPANSION BEGIN>
                        1705 jarl22 _PUTucVarCodMinPressThresEE , lp 
000006d8 80ff0000*      1705 <EXPANSION END>
                        1706 --line1275
                        1707 ..lin.C.3A.5C_ECU2.5CECU_Rivian_A1.5CTarget.5Crepo_projects.5CpRealEcu.5CcR_LATEST.5Cmake.5Coutput.5Cobjects.5CSwcApplTpms_Diag.90::
                        1708 .LDWlin90:
                        1709 	jarl	_CalibrSetPressureCAL,lp
                        1709 <EXPANSION BEGIN>
                        1709 jarl22 _CalibrSetPressureCAL , lp 
000006dc 80ff0000*      1709 <EXPANSION END>
                        1710 --	    .ef
                        1711 .LDW55:
                        1712 --line1276
                        1713 ..lin.C.3A.5C_ECU2.5CECU_Rivian_A1.5CTarget.5Crepo_projects.5CpRealEcu.5CcR_LATEST.5Cmake.5Coutput.5Cobjects.5CSwcApplTpms_Diag.91::
                        1714 .LDWlin91:
000006e0 40063f00       1715 	dispose	0,{r31},[lp]
                        1716 ___ghs_eofn_DIAG__PutMinPressThresEE:
                        1717 	.type	_DIAG__PutMinPressThresEE,@function
                        1718 	.size	_DIAG__PutMinPressThresEE,.-_DIAG__PutMinPressThresEE
                        1719 	.type	_DIAG__PutMinPressThresEE..C.3A.5C_ECU2.5CECU_Rivian_A1.5CTarget.5Crepo_projects.5CpRealEcu.5CcR_LATEST.5Cmake.5Coutput.5Cobjects.5CSwcApplTpms_Diag.,@function
                        1720 	.size	_DIAG__PutMinPressThresEE..C.3A.5C_ECU2.5CECU_Rivian_A1.5CTarget.5Crepo_projects.5CpRealEcu.5CcR_LATEST.5Cmake.5Coutput.5Cobjects.5CSwcApplTpms_Diag.,.-_DIAG__PutMinPressThresEE..C.3A.5C_ECU2.5CECU_Rivian_A1.5CTarget.5Crepo_projects.5CpRealEcu.5CcR_LATEST.5Cmake.5Coutput.5Cobjects.5CSwcApplTpms_Diag.
                        1721 	.align	2
                        1722 
                        1723 --_PU8_ReqData	ep	param
                        1724 
                        1725 	.section ".bss","awb"
                        1726 .L3297:
                        1727 	.type	.L3297,@object
                        1728 	.size	.L3297,0
                        1729 	.data
                        1730 	.text
                        1731 	.align	2
                        1732 	.align	2
                        1733 ..gh.f.f.1.e.23:
                        1734 	.type	..gh.f.f.1.e.23,@object
                        1735 	.size	..gh.f.f.1.e.23,0
                        1736 	.global	_DIAG__ReqCallback_WriteVehicleSpecificParameters..C.3A.5C_ECU2.5CECU_Rivian_A1.5CTarget.5Crepo_projects.5CpRealEcu.5CcR_LATEST.5Cmake.5Coutput.5Cobjects.5CSwcApplTpms_Diag.
                        1737 _DIAG__ReqCallback_WriteVehicleSpecificParameters..C.3A.5C_ECU2.5CECU_Rivian_A1.5CTarget.5Crepo_projects.5CpRealEcu.5CcR_LATEST.5Cmake.5Coutput.5Cobjects.5CSwcApplTpms_Diag.:

                                                                      Page 32
                                                              C:\Users\nhuliyap\AppData\Local\Temp\gh_0000ds81.s
                        1738 _DIAG__ReqCallback_WriteVehicleSpecificParameters:
000006e4 8207e1f0       1739 	prepare	{r24,r25,r26,r27,r28,r29,r31},1
000006e8 06c0           1740 	mov	r6,r24
000006ea 3d0600000000*  1741 	mov	_U16_RespLenght,r29
                        1742 --	    .bf
                        1743 .LDW65:
                        1744 --line514
                        1745 ..lin.C.3A.5C_ECU2.5CECU_Rivian_A1.5CTarget.5Crepo_projects.5CpRealEcu.5CcR_LATEST.5Cmake.5Coutput.5Cobjects.5CSwcApplTpms_Diag.92::
                        1746 .LDWlin92:
000006f0 26f70100       1747 	ld.w	0[r6],ep
000006f4 00ca           1748 	mov	0,r25
000006f6 6188           1749 	sld.bu	1[ep],r17
000006f8 6370           1750 	sld.bu	3[ep],r14
000006fa 6090           1751 	sld.bu	0[ep],r18
000006fc 62d8           1752 	sld.bu	2[ep],r27
000006fe 117ec4ff       1753 	addi	-60,r17,r15
00000702 43770100       1754 	st.b	r14,1[sp]
00000706 0f0665ff       1755 	addi	-155,r15,zero
0000070a 913d*          1756 	bl	.L3317
                        1757 --line521
                        1758 ..lin.C.3A.5C_ECU2.5CECU_Rivian_A1.5CTarget.5Crepo_projects.5CpRealEcu.5CcR_LATEST.5Cmake.5Coutput.5Cobjects.5CSwcApplTpms_Diag.93::
                        1759 .LDWlin93:
0000070c 6492           1760 	cmp	4,r18
0000070e b205*          1761 	be	.L3324
                        1762 --line527
                        1763 ..lin.C.3A.5C_ECU2.5CECU_Rivian_A1.5CTarget.5Crepo_projects.5CpRealEcu.5CcR_LATEST.5Cmake.5Coutput.5Cobjects.5CSwcApplTpms_Diag.94::
                        1764 .LDWlin94:
00000710 6192           1765 	cmp	1,r18
00000712 ea05*          1766 	bne	.L3323
                        1767 .L3324:
                        1768 --line530
                        1769 ..lin.C.3A.5C_ECU2.5CECU_Rivian_A1.5CTarget.5Crepo_projects.5CpRealEcu.5CcR_LATEST.5Cmake.5Coutput.5Cobjects.5CSwcApplTpms_Diag.95::
                        1770 .LDWlin95:
00000714 20e63c00       1771 	movea	60,zero,r28
                        1772 .L3448:
00000718 20d64000       1773 	movea	64,zero,r26
0000071c c50d*          1774 	br	.L3333
                        1775 .L3323:
                        1776 --line533
                        1777 ..lin.C.3A.5C_ECU2.5CECU_Rivian_A1.5CTarget.5Crepo_projects.5CpRealEcu.5CcR_LATEST.5Cmake.5Coutput.5Cobjects.5CSwcApplTpms_Diag.96::
                        1778 .LDWlin96:
0000071e 6292           1779 	cmp	2,r18
00000720 ca05*          1780 	bne	.L3326
                        1781 --line536
                        1782 ..lin.C.3A.5C_ECU2.5CECU_Rivian_A1.5CTarget.5Crepo_projects.5CpRealEcu.5CcR_LATEST.5Cmake.5Coutput.5Cobjects.5CSwcApplTpms_Diag.97::
                        1783 .LDWlin97:
00000722 20e63800       1784 	movea	56,zero,r28
00000726 95fd*          1785 	br	.L3448
                        1786 .L3326:
                        1787 --line539
                        1788 ..lin.C.3A.5C_ECU2.5CECU_Rivian_A1.5CTarget.5Crepo_projects.5CpRealEcu.5CcR_LATEST.5Cmake.5Coutput.5Cobjects.5CSwcApplTpms_Diag.98::
                        1789 .LDWlin98:
00000728 6392           1790 	cmp	3,r18
0000072a 9a2d*          1791 	bne	.L3317
                        1792 --line542
                        1793 ..lin.C.3A.5C_ECU2.5CECU_Rivian_A1.5CTarget.5Crepo_projects.5CpRealEcu.5CcR_LATEST.5Cmake.5Coutput.5Cobjects.5CSwcApplTpms_Diag.99::
                        1794 .LDWlin99:
0000072c 20e64000       1795 	movea	64,zero,r28
00000730 20d64800       1796 	movea	72,zero,r26
                        1797 .L3333:
00000734 03f0           1798 	mov	sp,ep

                                                                      Page 33
                                                              C:\Users\nhuliyap\AppData\Local\Temp\gh_0000ds81.s
00000736 8293           1799 	sst.b	r18,2[ep]
00000738 838b           1800 	sst.b	r17,3[ep]
0000073a 23360200       1801 	movea	2,sp,r6
                        1802 	jarl	_DIAG__PutVehicleSpecPara,lp
                        1802 <EXPANSION BEGIN>
                        1802 jarl22 _DIAG__PutVehicleSpecPara , lp 
0000073e bfff74ff*      1802 <EXPANSION END>
                        1803 --line556
                        1804 ..lin.C.3A.5C_ECU2.5CECU_Rivian_A1.5CTarget.5Crepo_projects.5CpRealEcu.5CcR_LATEST.5Cmake.5Coutput.5Cobjects.5CSwcApplTpms_Diag.100::
                        1805 .LDWlin100:
00000742 fbd1           1806 	cmp	r27,r26
00000744 fbd72633       1807 	cmovnh	r27,r26,r6
                        1808 	jarl	_NvM3_PUTucVarCodOffroadPlacardPress,lp
                        1808 <EXPANSION BEGIN>
                        1808 jarl22 _NvM3_PUTucVarCodOffroadPlacardPress , lp 
00000748 80ff0000*      1808 <EXPANSION END>
                        1809 --line563
                        1810 ..lin.C.3A.5C_ECU2.5CECU_Rivian_A1.5CTarget.5Crepo_projects.5CpRealEcu.5CcR_LATEST.5Cmake.5Coutput.5Cobjects.5CSwcApplTpms_Diag.101::
                        1811 .LDWlin101:
0000074c a36f0100       1812 	ld.bu	1[sp],r13
00000750 fc69           1813 	cmp	r28,r13
00000752 b905*          1814 	bnl	.L3336
                        1815 --line565
                        1816 ..lin.C.3A.5C_ECU2.5CECU_Rivian_A1.5CTarget.5Crepo_projects.5CpRealEcu.5CcR_LATEST.5Cmake.5Coutput.5Cobjects.5CSwcApplTpms_Diag.102::
                        1817 .LDWlin102:
00000754 43e70100       1818 	st.b	r28,1[sp]
                        1819 .L3336:
00000758 23360100       1820 	movea	1,sp,r6
                        1821 	jarl	_DIAG__PutMinPressThresEE,lp
                        1821 <EXPANSION BEGIN>
                        1821 jarl22 _DIAG__PutMinPressThresEE , lp 
0000075c bfff74ff*      1821 <EXPANSION END>
                        1822 --line570
                        1823 ..lin.C.3A.5C_ECU2.5CECU_Rivian_A1.5CTarget.5Crepo_projects.5CpRealEcu.5CcR_LATEST.5Cmake.5Coutput.5Cobjects.5CSwcApplTpms_Diag.103::
                        1824 .LDWlin103:
00000760 a3370100       1825 	ld.bu	1[sp],r6
00000764 1938           1826 	mov	r25,r7
                        1827 	jarl	_ucPutPMinCS,lp
                        1827 <EXPANSION BEGIN>
                        1827 jarl22 _ucPutPMinCS , lp 
00000766 80ff0000*      1827 <EXPANSION END>
0000076a e051           1828 	cmp	zero,r10
0000076c a30d*          1829 	bnh	.L3341
                        1830 --line572
                        1831 ..lin.C.3A.5C_ECU2.5CECU_Rivian_A1.5CTarget.5Crepo_projects.5CpRealEcu.5CcR_LATEST.5Cmake.5Coutput.5Cobjects.5CSwcApplTpms_Diag.104::
                        1832 .LDWlin104:
0000076e 270600000000*  1833 	mov	_tCDA,r7
00000774 0232           1834 	mov	2,r6
                        1835 	jarl	_PutDataEE,lp
                        1835 <EXPANSION BEGIN>
                        1835 jarl22 _PutDataEE , lp 
00000776 80ff0000*      1835 <EXPANSION END>
0000077a b505*          1836 	br	.L3341
                        1837 .L3317:
                        1838 --line581
                        1839 ..lin.C.3A.5C_ECU2.5CECU_Rivian_A1.5CTarget.5Crepo_projects.5CpRealEcu.5CcR_LATEST.5Cmake.5Coutput.5Cobjects.5CSwcApplTpms_Diag.105::
                        1840 .LDWlin105:
0000077c 20ce3100       1841 	movea	49,zero,r25
                        1842 .L3341:
00000780 7d070000       1843 	st.h	zero,0[r29]
00000784 78ef0d00       1844 	st.w	r29,12[r24]

                                                                      Page 34
                                                              C:\Users\nhuliyap\AppData\Local\Temp\gh_0000ds81.s
00000788 1950           1845 	mov	r25,r10
                        1846 --	    .ef
                        1847 .LDW75:
0000078a 4206fff0       1848 	dispose	1,{r24,r25,r26,r27,r28,r29,r31},[lp]
                        1849 ___ghs_eofn_DIAG__ReqCallback_WriteVehicleSpecificParameters:
                        1850 	.type	_DIAG__ReqCallback_WriteVehicleSpecificParameters,@function
                        1851 	.size	_DIAG__ReqCallback_WriteVehicleSpecificParameters,.-_DIAG__ReqCallback_WriteVehicleSpecificParameters
                        1852 	.type	_DIAG__ReqCallback_WriteVehicleSpecificParameters..C.3A.5C_ECU2.5CECU_Rivian_A1.5CTarget.5Crepo_projects.5CpRealEcu.5CcR_LATEST.5Cmake.5Coutput.5Cobjects.5CSwcApplTpms_Diag.,@function
                        1853 	.size	_DIAG__ReqCallback_WriteVehicleSpecificParameters..C.3A.5C_ECU2.5CECU_Rivian_A1.5CTarget.5Crepo_projects.5CpRealEcu.5CcR_LATEST.5Cmake.5Coutput.5Cobjects.5CSwcApplTpms_Diag.,.-_DIAG__ReqCallback_WriteVehicleSpecificParameters..C.3A.5C_ECU2.5CECU_Rivian_A1.5CTarget.5Crepo_projects.5CpRealEcu.5CcR_LATEST.5Cmake.5Coutput.5Cobjects.5CSwcApplTpms_Diag.
                        1854 	.align	2
                        1855 --_U8_RetVal	r25	local
                        1856 --_AU8_ReqData	2[sp]	local
                        1857 --_U8_VarCodLegislation	r18	local
                        1858 --_U8_VarCodPlacardPress	r17	local
                        1859 --_U8_VarCodMinPressThres	r28	local
                        1860 --_U8_VarCodOffroadPlacardPress	r27	local
                        1861 --_U8_VarCodOffroadPlacardPressMin	r26	local
                        1862 --_U8_VarCodMinimumPressure	1[sp]	local
                        1863 
                        1864 --_PS_MsgContext	r24	param
                        1865 
                        1866 	.data
                        1867 	.text
                        1868 	.align	2
                        1869 	.align	2
                        1870 ..gh.f.f.1.e.24:
                        1871 	.type	..gh.f.f.1.e.24,@object
                        1872 	.size	..gh.f.f.1.e.24,0
                        1873 	.global	_DIAG__ReqCallback_ReadAutoLearnWSParameters..C.3A.5C_ECU2.5CECU_Rivian_A1.5CTarget.5Crepo_projects.5CpRealEcu.5CcR_LATEST.5Cmake.5Coutput.5Cobjects.5CSwcApplTpms_Diag.
                        1874 _DIAG__ReqCallback_ReadAutoLearnWSParameters..C.3A.5C_ECU2.5CECU_Rivian_A1.5CTarget.5Crepo_projects.5CpRealEcu.5CcR_LATEST.5Cmake.5Coutput.5Cobjects.5CSwcApplTpms_Diag.:
                        1875 _DIAG__ReqCallback_ReadAutoLearnWSParameters:
0000078e 8e07e100       1876 	prepare	{r28,r29,r31},7
00000792 06e0           1877 	mov	r6,r28
00000794 3d0600000000*  1878 	mov	_U16_RespLenght,r29
                        1879 --	    .bf
                        1880 .LDW85:
                        1881 --line595
                        1882 ..lin.C.3A.5C_ECU2.5CECU_Rivian_A1.5CTarget.5Crepo_projects.5CpRealEcu.5CcR_LATEST.5Cmake.5Coutput.5Cobjects.5CSwcApplTpms_Diag.106::
                        1883 .LDWlin106:
0000079a 0338           1884 	mov	sp,r7
0000079c 0332           1885 	mov	3,r6
                        1886 	jarl	_GetWADataEE,lp
                        1886 <EXPANSION BEGIN>
                        1886 jarl22 _GetWADataEE , lp 
0000079e 80ff0000*      1886 <EXPANSION END>
                        1887 --line597
                        1888 ..lin.C.3A.5C_ECU2.5CECU_Rivian_A1.5CTarget.5Crepo_projects.5CpRealEcu.5CcR_LATEST.5Cmake.5Coutput.5Cobjects.5CSwcApplTpms_Diag.107::
                        1889 .LDWlin107:
000007a2 838f0900       1890 	ld.bu	8[sp],r17
000007a6 a3870900       1891 	ld.bu	9[sp],r16
000007aa 3df60400       1892 	movea	4,r29,ep
000007ae 027a           1893 	mov	2,r15
000007b0 808b           1894 	sst.b	r17,0[ep]
000007b2 8183           1895 	sst.b	r16,1[ep]
000007b4 7cf70900       1896 	st.w	ep,8[r28]
000007b8 7d7f0000       1897 	st.h	r15,0[r29]
000007bc 7cef0d00       1898 	st.w	r29,12[r28]
000007c0 0052           1899 	mov	0,r10
                        1900 --	    .ef
                        1901 .LDW95:
000007c2 4e06ff00       1902 	dispose	7,{r28,r29,r31},[lp]

                                                                      Page 35
                                                              C:\Users\nhuliyap\AppData\Local\Temp\gh_0000ds81.s
                        1903 ___ghs_eofn_DIAG__ReqCallback_ReadAutoLearnWSParameters:
                        1904 	.type	_DIAG__ReqCallback_ReadAutoLearnWSParameters,@function
                        1905 	.size	_DIAG__ReqCallback_ReadAutoLearnWSParameters,.-_DIAG__ReqCallback_ReadAutoLearnWSParameters
                        1906 	.type	_DIAG__ReqCallback_ReadAutoLearnWSParameters..C.3A.5C_ECU2.5CECU_Rivian_A1.5CTarget.5Crepo_projects.5CpRealEcu.5CcR_LATEST.5Cmake.5Coutput.5Cobjects.5CSwcApplTpms_Diag.,@function
                        1907 	.size	_DIAG__ReqCallback_ReadAutoLearnWSParameters..C.3A.5C_ECU2.5CECU_Rivian_A1.5CTarget.5Crepo_projects.5CpRealEcu.5CcR_LATEST.5Cmake.5Coutput.5Cobjects.5CSwcApplTpms_Diag.,.-_DIAG__ReqCallback_ReadAutoLearnWSParameters..C.3A.5C_ECU2.5CECU_Rivian_A1.5CTarget.5Crepo_projects.5CpRealEcu.5CcR_LATEST.5Cmake.5Coutput.5Cobjects.5CSwcApplTpms_Diag.
                        1908 	.align	2
                        1909 --_tWAParLocal	0[sp]	local
                        1910 
                        1911 --_PS_MsgContext	r28	param
                        1912 
                        1913 	.data
                        1914 	.text
                        1915 	.align	2
                        1916 	.align	2
                        1917 ..gh.f.f.1.e.25:
                        1918 	.type	..gh.f.f.1.e.25,@object
                        1919 	.size	..gh.f.f.1.e.25,0
                        1920 	.global	_DIAG__ReqCallback_WriteAutoLearnWSParameters..C.3A.5C_ECU2.5CECU_Rivian_A1.5CTarget.5Crepo_projects.5CpRealEcu.5CcR_LATEST.5Cmake.5Coutput.5Cobjects.5CSwcApplTpms_Diag.
                        1921 _DIAG__ReqCallback_WriteAutoLearnWSParameters..C.3A.5C_ECU2.5CECU_Rivian_A1.5CTarget.5Crepo_projects.5CpRealEcu.5CcR_LATEST.5Cmake.5Coutput.5Cobjects.5CSwcApplTpms_Diag.:
                        1922 _DIAG__ReqCallback_WriteAutoLearnWSParameters:
000007c6 8007e170       1923 	prepare	{r25,r26,r27,r28,r29,r31},0
000007ca 06d8           1924 	mov	r6,r27
000007cc 3d0600000000*  1925 	mov	_U16_RespLenght,r29
                        1926 --	    .bf
                        1927 .LDW06:
                        1928 --line610
                        1929 ..lin.C.3A.5C_ECU2.5CECU_Rivian_A1.5CTarget.5Crepo_projects.5CpRealEcu.5CcR_LATEST.5Cmake.5Coutput.5Cobjects.5CSwcApplTpms_Diag.108::
                        1930 .LDWlin108:
000007d2 26f70100       1931 	ld.w	0[r6],ep
000007d6 3c0600000000*  1932 	mov	_tWAPar,r28
000007dc 1c38           1933 	mov	r28,r7
000007de 0332           1934 	mov	3,r6
000007e0 60d0           1935 	sld.bu	0[ep],r26
                        1936 --line611
                        1937 ..lin.C.3A.5C_ECU2.5CECU_Rivian_A1.5CTarget.5Crepo_projects.5CpRealEcu.5CcR_LATEST.5Cmake.5Coutput.5Cobjects.5CSwcApplTpms_Diag.109::
                        1938 .LDWlin109:
000007e2 61c8           1939 	sld.bu	1[ep],r25
                        1940 	jarl	_GetWADataEE,lp
                        1940 <EXPANSION BEGIN>
                        1940 jarl22 _GetWADataEE , lp 
000007e4 80ff0000*      1940 <EXPANSION END>
                        1941 --line614
                        1942 ..lin.C.3A.5C_ECU2.5CECU_Rivian_A1.5CTarget.5Crepo_projects.5CpRealEcu.5CcR_LATEST.5Cmake.5Coutput.5Cobjects.5CSwcApplTpms_Diag.110::
                        1943 .LDWlin110:
000007e8 1cf0           1944 	mov	r28,ep
000007ea 88d3           1945 	sst.b	r26,8[ep]
000007ec 89cb           1946 	sst.b	r25,9[ep]
000007ee 1c38           1947 	mov	r28,r7
000007f0 0332           1948 	mov	3,r6
                        1949 	jarl	_PutWADataEE,lp
                        1949 <EXPANSION BEGIN>
                        1949 jarl22 _PutWADataEE , lp 
000007f2 80ff0000*      1949 <EXPANSION END>
                        1950 --line618
                        1951 ..lin.C.3A.5C_ECU2.5CECU_Rivian_A1.5CTarget.5Crepo_projects.5CpRealEcu.5CcR_LATEST.5Cmake.5Coutput.5Cobjects.5CSwcApplTpms_Diag.111::
                        1952 .LDWlin111:
000007f6 7d070000       1953 	st.h	zero,0[r29]
000007fa 7bef0d00       1954 	st.w	r29,12[r27]
000007fe 0052           1955 	mov	0,r10
                        1956 --	    .ef
                        1957 .LDW16:

                                                                      Page 36
                                                              C:\Users\nhuliyap\AppData\Local\Temp\gh_0000ds81.s
00000800 4006ff70       1958 	dispose	0,{r25,r26,r27,r28,r29,r31},[lp]
                        1959 ___ghs_eofn_DIAG__ReqCallback_WriteAutoLearnWSParameters:
                        1960 	.type	_DIAG__ReqCallback_WriteAutoLearnWSParameters,@function
                        1961 	.size	_DIAG__ReqCallback_WriteAutoLearnWSParameters,.-_DIAG__ReqCallback_WriteAutoLearnWSParameters
                        1962 	.type	_DIAG__ReqCallback_WriteAutoLearnWSParameters..C.3A.5C_ECU2.5CECU_Rivian_A1.5CTarget.5Crepo_projects.5CpRealEcu.5CcR_LATEST.5Cmake.5Coutput.5Cobjects.5CSwcApplTpms_Diag.,@function
                        1963 	.size	_DIAG__ReqCallback_WriteAutoLearnWSParameters..C.3A.5C_ECU2.5CECU_Rivian_A1.5CTarget.5Crepo_projects.5CpRealEcu.5CcR_LATEST.5Cmake.5Coutput.5Cobjects.5CSwcApplTpms_Diag.,.-_DIAG__ReqCallback_WriteAutoLearnWSParameters..C.3A.5C_ECU2.5CECU_Rivian_A1.5CTarget.5Crepo_projects.5CpRealEcu.5CcR_LATEST.5Cmake.5Coutput.5Cobjects.5CSwcApplTpms_Diag.
                        1964 	.align	2
                        1965 --_U8_MinCt4ZomReset	r26	local
                        1966 --_U8_MinERMeanRssiLevel	r25	local
                        1967 
                        1968 --_PS_MsgContext	r27	param
                        1969 
                        1970 	.data
                        1971 	.text
                        1972 	.align	2
                        1973 	.align	2
                        1974 ..gh.f.f.1.e.26:
                        1975 	.type	..gh.f.f.1.e.26,@object
                        1976 	.size	..gh.f.f.1.e.26,0
                        1977 	.global	_DIAG__GetMinPressThresEE..C.3A.5C_ECU2.5CECU_Rivian_A1.5CTarget.5Crepo_projects.5CpRealEcu.5CcR_LATEST.5Cmake.5Coutput.5Cobjects.5CSwcApplTpms_Diag.
                        1978 _DIAG__GetMinPressThresEE..C.3A.5C_ECU2.5CECU_Rivian_A1.5CTarget.5Crepo_projects.5CpRealEcu.5CcR_LATEST.5Cmake.5Coutput.5Cobjects.5CSwcApplTpms_Diag.:
                        1979 _DIAG__GetMinPressThresEE:
00000804 80076100       1980 	prepare	{r29,r31},0
00000808 06e8           1981 	mov	r6,r29
                        1982 --	    .bf
                        1983 .LDW26:
                        1984 	jarl	_GETucVarCodMinPressThresEE,lp
                        1984 <EXPANSION BEGIN>
                        1984 jarl22 _GETucVarCodMinPressThresEE , lp 
0000080a 80ff0000*      1984 <EXPANSION END>
0000080e 5d570000       1985 	st.b	r10,0[r29]
                        1986 --	    .ef
                        1987 .LDW36:
                        1988 --line1269
                        1989 ..lin.C.3A.5C_ECU2.5CECU_Rivian_A1.5CTarget.5Crepo_projects.5CpRealEcu.5CcR_LATEST.5Cmake.5Coutput.5Cobjects.5CSwcApplTpms_Diag.112::
                        1990 .LDWlin112:
00000812 40067f00       1991 	dispose	0,{r29,r31},[lp]
                        1992 ___ghs_eofn_DIAG__GetMinPressThresEE:
                        1993 	.type	_DIAG__GetMinPressThresEE,@function
                        1994 	.size	_DIAG__GetMinPressThresEE,.-_DIAG__GetMinPressThresEE
                        1995 	.type	_DIAG__GetMinPressThresEE..C.3A.5C_ECU2.5CECU_Rivian_A1.5CTarget.5Crepo_projects.5CpRealEcu.5CcR_LATEST.5Cmake.5Coutput.5Cobjects.5CSwcApplTpms_Diag.,@function
                        1996 	.size	_DIAG__GetMinPressThresEE..C.3A.5C_ECU2.5CECU_Rivian_A1.5CTarget.5Crepo_projects.5CpRealEcu.5CcR_LATEST.5Cmake.5Coutput.5Cobjects.5CSwcApplTpms_Diag.,.-_DIAG__GetMinPressThresEE..C.3A.5C_ECU2.5CECU_Rivian_A1.5CTarget.5Crepo_projects.5CpRealEcu.5CcR_LATEST.5Cmake.5Coutput.5Cobjects.5CSwcApplTpms_Diag.
                        1997 	.align	2
                        1998 
                        1999 --_PU8_ResData	r29	param
                        2000 
                        2001 	.section ".bss","awb"
                        2002 .L3828:
                        2003 	.type	.L3828,@object
                        2004 	.size	.L3828,0
                        2005 	.data
                        2006 	.text
                        2007 	.align	2
                        2008 	.align	2
                        2009 ..gh.f.f.1.e.27:
                        2010 	.type	..gh.f.f.1.e.27,@object
                        2011 	.size	..gh.f.f.1.e.27,0
                        2012 	.global	_DIAG__ReqCallback_ReadAdditionalPressureOfMinimumPressure..C.3A.5C_ECU2.5CECU_Rivian_A1.5CTarget.5Crepo_projects.5CpRealEcu.5CcR_LATEST.5Cmake.5Coutput.5Cobjects.5CSwcApplTpms_Diag.
                        2013 _DIAG__ReqCallback_ReadAdditionalPressureOfMinimumPressure..C.3A.5C_ECU2.5CECU_Rivian_A1.5CTarget.5Crepo_projects.5CpRealEcu.5CcR_LATEST.5Cmake.5Coutput.5Cobjects.5CSwcApplTpms_Diag.:
                        2014 _DIAG__ReqCallback_ReadAdditionalPressureOfMinimumPressure:
00000816 8007e110       2015 	prepare	{r27,r28,r29,r31},0

                                                                      Page 37
                                                              C:\Users\nhuliyap\AppData\Local\Temp\gh_0000ds81.s
0000081a 06d8           2016 	mov	r6,r27
0000081c 3d0600000000*  2017 	mov	_U16_RespLenght,r29
                        2018 --	    .bf
                        2019 .LDW46:
                        2020 --line627
                        2021 ..lin.C.3A.5C_ECU2.5CECU_Rivian_A1.5CTarget.5Crepo_projects.5CpRealEcu.5CcR_LATEST.5Cmake.5Coutput.5Cobjects.5CSwcApplTpms_Diag.113::
                        2022 .LDWlin113:
00000822 3de60400       2023 	movea	4,r29,r28
00000826 5d070400       2024 	st.b	zero,4[r29]
0000082a 1c30           2025 	mov	r28,r6
                        2026 	jarl	_DIAG__GetMinPressThresEE,lp
                        2026 <EXPANSION BEGIN>
                        2026 jarl22 _DIAG__GetMinPressThresEE , lp 
0000082c bfffd8ff*      2026 <EXPANSION END>
                        2027 --line630
                        2028 ..lin.C.3A.5C_ECU2.5CECU_Rivian_A1.5CTarget.5Crepo_projects.5CpRealEcu.5CcR_LATEST.5Cmake.5Coutput.5Cobjects.5CSwcApplTpms_Diag.114::
                        2029 .LDWlin114:
00000830 1bf0           2030 	mov	r27,ep
00000832 018a           2031 	mov	1,r17
00000834 05e5           2032 	sst.w	r28,8[ep]
00000836 7d8f0000       2033 	st.h	r17,0[r29]
0000083a 07ed           2034 	sst.w	r29,12[ep]
0000083c 0052           2035 	mov	0,r10
                        2036 --	    .ef
                        2037 .LDW56:
0000083e 4006ff10       2038 	dispose	0,{r27,r28,r29,r31},[lp]
                        2039 ___ghs_eofn_DIAG__ReqCallback_ReadAdditionalPressureOfMinimumPressure:
                        2040 	.type	_DIAG__ReqCallback_ReadAdditionalPressureOfMinimumPressure,@function
                        2041 	.size	_DIAG__ReqCallback_ReadAdditionalPressureOfMinimumPressure,.-_DIAG__ReqCallback_ReadAdditionalPressureOfMinimumPressure
                        2042 	.type	_DIAG__ReqCallback_ReadAdditionalPressureOfMinimumPressure..C.3A.5C_ECU2.5CECU_Rivian_A1.5CTarget.5Crepo_projects.5CpRealEcu.5CcR_LATEST.5Cmake.5Coutput.5Cobjects.5CSwcApplTpms_Diag.,@function
                        2043 	.size	_DIAG__ReqCallback_ReadAdditionalPressureOfMinimumPressure..C.3A.5C_ECU2.5CECU_Rivian_A1.5CTarget.5Crepo_projects.5CpRealEcu.5CcR_LATEST.5Cmake.5Coutput.5Cobjects.5CSwcApplTpms_Diag.,.-_DIAG__ReqCallback_ReadAdditionalPressureOfMinimumPressure..C.3A.5C_ECU2.5CECU_Rivian_A1.5CTarget.5Crepo_projects.5CpRealEcu.5CcR_LATEST.5Cmake.5Coutput.5Cobjects.5CSwcApplTpms_Diag.
                        2044 	.align	2
                        2045 
                        2046 --_PS_MsgContext	r27	param
                        2047 
                        2048 	.data
                        2049 	.text
                        2050 	.align	2
                        2051 	.align	2
                        2052 ..gh.f.f.1.e.28:
                        2053 	.type	..gh.f.f.1.e.28,@object
                        2054 	.size	..gh.f.f.1.e.28,0
                        2055 	.global	_DIAG__ReqCallback_WriteAdditionalPressureOfMinimumPressure..C.3A.5C_ECU2.5CECU_Rivian_A1.5CTarget.5Crepo_projects.5CpRealEcu.5CcR_LATEST.5Cmake.5Coutput.5Cobjects.5CSwcApplTpms_Diag.
                        2056 _DIAG__ReqCallback_WriteAdditionalPressureOfMinimumPressure..C.3A.5C_ECU2.5CECU_Rivian_A1.5CTarget.5Crepo_projects.5CpRealEcu.5CcR_LATEST.5Cmake.5Coutput.5Cobjects.5CSwcApplTpms_Diag.:
                        2057 _DIAG__ReqCallback_WriteAdditionalPressureOfMinimumPressure:
00000842 8407e120       2058 	prepare	{r26,r28,r29,r31},2
00000846 06d0           2059 	mov	r6,r26
00000848 3d0600000000*  2060 	mov	_U16_RespLenght,r29
                        2061 --	    .bf
                        2062 .LDW66:
                        2063 --line646
                        2064 ..lin.C.3A.5C_ECU2.5CECU_Rivian_A1.5CTarget.5Crepo_projects.5CpRealEcu.5CcR_LATEST.5Cmake.5Coutput.5Cobjects.5CSwcApplTpms_Diag.115::
                        2065 .LDWlin115:
0000084e 26f70100       2066 	ld.w	0[r6],ep
00000852 7d070000       2067 	st.h	zero,0[r29]
00000856 00e2           2068 	mov	0,r28
00000858 6080           2069 	sld.bu	0[ep],r16
0000085a 43870300       2070 	st.b	r16,3[sp]
                        2071 	jarl	_GETucVarCodLegislationEE,lp
                        2071 <EXPANSION BEGIN>
                        2071 jarl22 _GETucVarCodLegislationEE , lp 

                                                                      Page 38
                                                              C:\Users\nhuliyap\AppData\Local\Temp\gh_0000ds81.s
0000085e 80ff0000*      2071 <EXPANSION END>
00000862 6152           2072 	cmp	1,r10
00000864 f20d*          2073 	be	.L3898
                        2074 --line653
                        2075 ..lin.C.3A.5C_ECU2.5CECU_Rivian_A1.5CTarget.5Crepo_projects.5CpRealEcu.5CcR_LATEST.5Cmake.5Coutput.5Cobjects.5CSwcApplTpms_Diag.116::
                        2076 .LDWlin116:
                        2077 	jarl	_GETucVarCodLegislationEE,lp
                        2077 <EXPANSION BEGIN>
                        2077 jarl22 _GETucVarCodLegislationEE , lp 
00000866 80ff0000*      2077 <EXPANSION END>
0000086a 6252           2078 	cmp	2,r10
0000086c ca05*          2079 	bne	.L3895
                        2080 --line656
                        2081 ..lin.C.3A.5C_ECU2.5CECU_Rivian_A1.5CTarget.5Crepo_projects.5CpRealEcu.5CcR_LATEST.5Cmake.5Coutput.5Cobjects.5CSwcApplTpms_Diag.117::
                        2082 .LDWlin117:
0000086e 20963800       2083 	movea	56,zero,r18
00000872 a50d*          2084 	br	.L3894
                        2085 .L3895:
                        2086 --line658
                        2087 ..lin.C.3A.5C_ECU2.5CECU_Rivian_A1.5CTarget.5Crepo_projects.5CpRealEcu.5CcR_LATEST.5Cmake.5Coutput.5Cobjects.5CSwcApplTpms_Diag.118::
                        2088 .LDWlin118:
                        2089 	jarl	_GETucVarCodLegislationEE,lp
                        2089 <EXPANSION BEGIN>
                        2089 jarl22 _GETucVarCodLegislationEE , lp 
00000874 80ff0000*      2089 <EXPANSION END>
00000878 6352           2090 	cmp	3,r10
0000087a ca05*          2091 	bne	.L3898
                        2092 --line661
                        2093 ..lin.C.3A.5C_ECU2.5CECU_Rivian_A1.5CTarget.5Crepo_projects.5CpRealEcu.5CcR_LATEST.5Cmake.5Coutput.5Cobjects.5CSwcApplTpms_Diag.119::
                        2094 .LDWlin119:
0000087c 20964000       2095 	movea	64,zero,r18
00000880 b505*          2096 	br	.L3894
                        2097 .L3898:
                        2098 --line666
                        2099 ..lin.C.3A.5C_ECU2.5CECU_Rivian_A1.5CTarget.5Crepo_projects.5CpRealEcu.5CcR_LATEST.5Cmake.5Coutput.5Cobjects.5CSwcApplTpms_Diag.120::
                        2100 .LDWlin120:
00000882 20963c00       2101 	movea	60,zero,r18
                        2102 .L3894:
00000886 a38f0300       2103 	ld.bu	3[sp],r17
0000088a f289           2104 	cmp	r18,r17
0000088c e115*          2105 	bl	.L3901
0000088e 110629ff       2106 	addi	-215,r17,zero
00000892 b115*          2107 	bl	.L3901
                        2108 --line672
                        2109 ..lin.C.3A.5C_ECU2.5CECU_Rivian_A1.5CTarget.5Crepo_projects.5CpRealEcu.5CcR_LATEST.5Cmake.5Coutput.5Cobjects.5CSwcApplTpms_Diag.121::
                        2110 .LDWlin121:
00000894 23360300       2111 	movea	3,sp,r6
                        2112 	jarl	_DIAG__PutMinPressThresEE,lp
                        2112 <EXPANSION BEGIN>
                        2112 jarl22 _DIAG__PutMinPressThresEE , lp 
00000898 bfff38fe*      2112 <EXPANSION END>
                        2113 --line674
                        2114 ..lin.C.3A.5C_ECU2.5CECU_Rivian_A1.5CTarget.5Crepo_projects.5CpRealEcu.5CcR_LATEST.5Cmake.5Coutput.5Cobjects.5CSwcApplTpms_Diag.122::
                        2115 .LDWlin122:
0000089c a3370300       2116 	ld.bu	3[sp],r6
000008a0 1c38           2117 	mov	r28,r7
                        2118 	jarl	_ucPutPMinCS,lp
                        2118 <EXPANSION BEGIN>
                        2118 jarl22 _ucPutPMinCS , lp 
000008a2 80ff0000*      2118 <EXPANSION END>
000008a6 e051           2119 	cmp	zero,r10

                                                                      Page 39
                                                              C:\Users\nhuliyap\AppData\Local\Temp\gh_0000ds81.s
000008a8 a30d*          2120 	bnh	.L3906
                        2121 --line676
                        2122 ..lin.C.3A.5C_ECU2.5CECU_Rivian_A1.5CTarget.5Crepo_projects.5CpRealEcu.5CcR_LATEST.5Cmake.5Coutput.5Cobjects.5CSwcApplTpms_Diag.123::
                        2123 .LDWlin123:
000008aa 270600000000*  2124 	mov	_tCDA,r7
000008b0 0232           2125 	mov	2,r6
                        2126 	jarl	_PutDataEE,lp
                        2126 <EXPANSION BEGIN>
                        2126 jarl22 _PutDataEE , lp 
000008b2 80ff0000*      2126 <EXPANSION END>
000008b6 b505*          2127 	br	.L3906
                        2128 .L3901:
                        2129 --line681
                        2130 ..lin.C.3A.5C_ECU2.5CECU_Rivian_A1.5CTarget.5Crepo_projects.5CpRealEcu.5CcR_LATEST.5Cmake.5Coutput.5Cobjects.5CSwcApplTpms_Diag.124::
                        2131 .LDWlin124:
000008b8 20e62200       2132 	movea	34,zero,r28
                        2133 .L3906:
000008bc 7aef0d00       2134 	st.w	r29,12[r26]
000008c0 1c50           2135 	mov	r28,r10
                        2136 --	    .ef
                        2137 .LDW76:
000008c2 4406ff20       2138 	dispose	2,{r26,r28,r29,r31},[lp]
                        2139 ___ghs_eofn_DIAG__ReqCallback_WriteAdditionalPressureOfMinimumPressure:
                        2140 	.type	_DIAG__ReqCallback_WriteAdditionalPressureOfMinimumPressure,@function
                        2141 	.size	_DIAG__ReqCallback_WriteAdditionalPressureOfMinimumPressure,.-_DIAG__ReqCallback_WriteAdditionalPressureOfMinimumPressure
                        2142 	.type	_DIAG__ReqCallback_WriteAdditionalPressureOfMinimumPressure..C.3A.5C_ECU2.5CECU_Rivian_A1.5CTarget.5Crepo_projects.5CpRealEcu.5CcR_LATEST.5Cmake.5Coutput.5Cobjects.5CSwcApplTpms_Diag.,@function
                        2143 	.size	_DIAG__ReqCallback_WriteAdditionalPressureOfMinimumPressure..C.3A.5C_ECU2.5CECU_Rivian_A1.5CTarget.5Crepo_projects.5CpRealEcu.5CcR_LATEST.5Cmake.5Coutput.5Cobjects.5CSwcApplTpms_Diag.,.-_DIAG__ReqCallback_WriteAdditionalPressureOfMinimumPressure..C.3A.5C_ECU2.5CECU_Rivian_A1.5CTarget.5Crepo_projects.5CpRealEcu.5CcR_LATEST.5Cmake.5Coutput.5Cobjects.5CSwcApplTpms_Diag.
                        2144 	.align	2
                        2145 --_U8_RetVal	r28	local
                        2146 --_U8_VarCodMinPressThres	3[sp]	local
                        2147 --_U8_LowLimitOfPMIN	r18	local
                        2148 
                        2149 --_PS_MsgContext	r26	param
                        2150 
                        2151 	.data
                        2152 	.text
                        2153 	.align	2
                        2154 	.align	2
                        2155 ..gh.f.f.1.e.29:
                        2156 	.type	..gh.f.f.1.e.29,@object
                        2157 	.size	..gh.f.f.1.e.29,0
                        2158 	.global	_DIAG__ReqCallback_ReadBCMFaultReason..C.3A.5C_ECU2.5CECU_Rivian_A1.5CTarget.5Crepo_projects.5CpRealEcu.5CcR_LATEST.5Cmake.5Coutput.5Cobjects.5CSwcApplTpms_Diag.
                        2159 _DIAG__ReqCallback_ReadBCMFaultReason..C.3A.5C_ECU2.5CECU_Rivian_A1.5CTarget.5Crepo_projects.5CpRealEcu.5CcR_LATEST.5Cmake.5Coutput.5Cobjects.5CSwcApplTpms_Diag.:
                        2160 _DIAG__ReqCallback_ReadBCMFaultReason:
000008c6 8007e110       2161 	prepare	{r27,r28,r29,r31},0
000008ca 06d8           2162 	mov	r6,r27
000008cc 3d0600000000*  2163 	mov	_U16_RespLenght,r29
                        2164 --	    .bf
                        2165 .LDW86:
                        2166 --line693
                        2167 ..lin.C.3A.5C_ECU2.5CECU_Rivian_A1.5CTarget.5Crepo_projects.5CpRealEcu.5CcR_LATEST.5Cmake.5Coutput.5Cobjects.5CSwcApplTpms_Diag.125::
                        2168 .LDWlin125:
000008d2 3de60400       2169 	movea	4,r29,r28
000008d6 5d070400       2170 	st.b	zero,4[r29]
000008da 1c30           2171 	mov	r28,r6
                        2172 	jarl	_NvM_ReadData_ECUDefect,lp
                        2172 <EXPANSION BEGIN>
                        2172 jarl22 _NvM_ReadData_ECUDefect , lp 
000008dc 80ff0000*      2172 <EXPANSION END>
                        2173 --line697
                        2174 ..lin.C.3A.5C_ECU2.5CECU_Rivian_A1.5CTarget.5Crepo_projects.5CpRealEcu.5CcR_LATEST.5Cmake.5Coutput.5Cobjects.5CSwcApplTpms_Diag.126::

                                                                      Page 40
                                                              C:\Users\nhuliyap\AppData\Local\Temp\gh_0000ds81.s
                        2175 .LDWlin126:
000008e0 1bf0           2176 	mov	r27,ep
000008e2 018a           2177 	mov	1,r17
000008e4 05e5           2178 	sst.w	r28,8[ep]
000008e6 7d8f0000       2179 	st.h	r17,0[r29]
000008ea 07ed           2180 	sst.w	r29,12[ep]
000008ec 0052           2181 	mov	0,r10
                        2182 --	    .ef
                        2183 .LDW96:
000008ee 4006ff10       2184 	dispose	0,{r27,r28,r29,r31},[lp]
                        2185 ___ghs_eofn_DIAG__ReqCallback_ReadBCMFaultReason:
                        2186 	.type	_DIAG__ReqCallback_ReadBCMFaultReason,@function
                        2187 	.size	_DIAG__ReqCallback_ReadBCMFaultReason,.-_DIAG__ReqCallback_ReadBCMFaultReason
                        2188 	.type	_DIAG__ReqCallback_ReadBCMFaultReason..C.3A.5C_ECU2.5CECU_Rivian_A1.5CTarget.5Crepo_projects.5CpRealEcu.5CcR_LATEST.5Cmake.5Coutput.5Cobjects.5CSwcApplTpms_Diag.,@function
                        2189 	.size	_DIAG__ReqCallback_ReadBCMFaultReason..C.3A.5C_ECU2.5CECU_Rivian_A1.5CTarget.5Crepo_projects.5CpRealEcu.5CcR_LATEST.5Cmake.5Coutput.5Cobjects.5CSwcApplTpms_Diag.,.-_DIAG__ReqCallback_ReadBCMFaultReason..C.3A.5C_ECU2.5CECU_Rivian_A1.5CTarget.5Crepo_projects.5CpRealEcu.5CcR_LATEST.5Cmake.5Coutput.5Cobjects.5CSwcApplTpms_Diag.
                        2190 	.align	2
                        2191 
                        2192 --_PS_MsgContext	r27	param
                        2193 
                        2194 	.data
                        2195 	.text
                        2196 	.align	2
                        2197 	.align	2
                        2198 ..gh.f.f.1.e.30:
                        2199 	.type	..gh.f.f.1.e.30,@object
                        2200 	.size	..gh.f.f.1.e.30,0
                        2201 	.global	_DIAG__ReqCallback_WriteBCMFaultReason..C.3A.5C_ECU2.5CECU_Rivian_A1.5CTarget.5Crepo_projects.5CpRealEcu.5CcR_LATEST.5Cmake.5Coutput.5Cobjects.5CSwcApplTpms_Diag.
                        2202 _DIAG__ReqCallback_WriteBCMFaultReason..C.3A.5C_ECU2.5CECU_Rivian_A1.5CTarget.5Crepo_projects.5CpRealEcu.5CcR_LATEST.5Cmake.5Coutput.5Cobjects.5CSwcApplTpms_Diag.:
                        2203 _DIAG__ReqCallback_WriteBCMFaultReason:
000008f2 8007e110       2204 	prepare	{r27,r28,r29,r31},0
000008f6 06d8           2205 	mov	r6,r27
000008f8 3d0600000000*  2206 	mov	_U16_RespLenght,r29
                        2207 --	    .bf
                        2208 .LDW07:
                        2209 --line707
                        2210 ..lin.C.3A.5C_ECU2.5CECU_Rivian_A1.5CTarget.5Crepo_projects.5CpRealEcu.5CcR_LATEST.5Cmake.5Coutput.5Cobjects.5CSwcApplTpms_Diag.127::
                        2211 .LDWlin127:
000008fe 26f70100       2212 	ld.w	0[r6],ep
00000902 6030           2213 	sld.bu	0[ep],r6
00000904 6332           2214 	cmp	3,r6
00000906 d905*          2215 	bnl	.L4180
00000908 00e2           2216 	mov	0,r28
                        2217 --line711
                        2218 ..lin.C.3A.5C_ECU2.5CECU_Rivian_A1.5CTarget.5Crepo_projects.5CpRealEcu.5CcR_LATEST.5Cmake.5Coutput.5Cobjects.5CSwcApplTpms_Diag.128::
                        2219 .LDWlin128:
                        2220 	jarl	_NvM_WriteData_ECUDefect,lp
                        2220 <EXPANSION BEGIN>
                        2220 jarl22 _NvM_WriteData_ECUDefect , lp 
0000090a 80ff0000*      2220 <EXPANSION END>
0000090e b505*          2221 	br	.L4182
                        2222 .L4180:
                        2223 --line714
                        2224 ..lin.C.3A.5C_ECU2.5CECU_Rivian_A1.5CTarget.5Crepo_projects.5CpRealEcu.5CcR_LATEST.5Cmake.5Coutput.5Cobjects.5CSwcApplTpms_Diag.129::
                        2225 .LDWlin129:
00000910 20e63100       2226 	movea	49,zero,r28
                        2227 .L4182:
00000914 7d070000       2228 	st.h	zero,0[r29]
00000918 7bef0d00       2229 	st.w	r29,12[r27]
0000091c 1c50           2230 	mov	r28,r10
                        2231 --	    .ef
                        2232 .LDW17:

                                                                      Page 41
                                                              C:\Users\nhuliyap\AppData\Local\Temp\gh_0000ds81.s
0000091e 4006ff10       2233 	dispose	0,{r27,r28,r29,r31},[lp]
                        2234 ___ghs_eofn_DIAG__ReqCallback_WriteBCMFaultReason:
                        2235 	.type	_DIAG__ReqCallback_WriteBCMFaultReason,@function
                        2236 	.size	_DIAG__ReqCallback_WriteBCMFaultReason,.-_DIAG__ReqCallback_WriteBCMFaultReason
                        2237 	.type	_DIAG__ReqCallback_WriteBCMFaultReason..C.3A.5C_ECU2.5CECU_Rivian_A1.5CTarget.5Crepo_projects.5CpRealEcu.5CcR_LATEST.5Cmake.5Coutput.5Cobjects.5CSwcApplTpms_Diag.,@function
                        2238 	.size	_DIAG__ReqCallback_WriteBCMFaultReason..C.3A.5C_ECU2.5CECU_Rivian_A1.5CTarget.5Crepo_projects.5CpRealEcu.5CcR_LATEST.5Cmake.5Coutput.5Cobjects.5CSwcApplTpms_Diag.,.-_DIAG__ReqCallback_WriteBCMFaultReason..C.3A.5C_ECU2.5CECU_Rivian_A1.5CTarget.5Crepo_projects.5CpRealEcu.5CcR_LATEST.5Cmake.5Coutput.5Cobjects.5CSwcApplTpms_Diag.
                        2239 	.align	2
                        2240 --_U8_RetVal	r28	local
                        2241 --_BCMFaultReasonToWrite	r6	local
                        2242 
                        2243 --_PS_MsgContext	r27	param
                        2244 
                        2245 	.data
                        2246 	.text
                        2247 	.align	2
                        2248 	.align	2
                        2249 ..gh.f.f.1.e.31:
                        2250 	.type	..gh.f.f.1.e.31,@object
                        2251 	.size	..gh.f.f.1.e.31,0
                        2252 	.global	_DIAG__ReqCallback_ReadBCMPosition..C.3A.5C_ECU2.5CECU_Rivian_A1.5CTarget.5Crepo_projects.5CpRealEcu.5CcR_LATEST.5Cmake.5Coutput.5Cobjects.5CSwcApplTpms_Diag.
                        2253 _DIAG__ReqCallback_ReadBCMPosition..C.3A.5C_ECU2.5CECU_Rivian_A1.5CTarget.5Crepo_projects.5CpRealEcu.5CcR_LATEST.5Cmake.5Coutput.5Cobjects.5CSwcApplTpms_Diag.:
                        2254 _DIAG__ReqCallback_ReadBCMPosition:
00000922 8e07e130       2255 	prepare	{r26,r27,r28,r29,r31},7
00000926 06d0           2256 	mov	r6,r26
00000928 3d0600000000*  2257 	mov	_U16_RespLenght,r29
                        2258 --	    .bf
                        2259 .LDW27:
                        2260 --line726
                        2261 ..lin.C.3A.5C_ECU2.5CECU_Rivian_A1.5CTarget.5Crepo_projects.5CpRealEcu.5CcR_LATEST.5Cmake.5Coutput.5Cobjects.5CSwcApplTpms_Diag.130::
                        2262 .LDWlin130:
0000092e 00da           2263 	mov	0,r27
00000930 3de60400       2264 	movea	4,r29,r28
00000934 5d070400       2265 	st.b	zero,4[r29]
00000938 43070500       2266 	st.b	zero,5[sp]
0000093c 0338           2267 	mov	sp,r7
0000093e 0332           2268 	mov	3,r6
                        2269 	jarl	_GetWADataEE,lp
                        2269 <EXPANSION BEGIN>
                        2269 jarl22 _GetWADataEE , lp 
00000940 80ff0000*      2269 <EXPANSION END>
                        2270 --line730
                        2271 ..lin.C.3A.5C_ECU2.5CECU_Rivian_A1.5CTarget.5Crepo_projects.5CpRealEcu.5CcR_LATEST.5Cmake.5Coutput.5Cobjects.5CSwcApplTpms_Diag.131::
                        2272 .LDWlin131:
00000944 a3970500       2273 	ld.bu	5[sp],r18
00000948 1206abff       2274 	addi	-85,r18,zero
0000094c 920d*          2275 	be	.L4280
0000094e 120656ff       2276 	addi	-170,r18,zero
00000952 e205*          2277 	be	.L4280
00000954 120601ff       2278 	addi	-255,r18,zero
00000958 b205*          2279 	be	.L4280
                        2280 --line736
                        2281 ..lin.C.3A.5C_ECU2.5CECU_Rivian_A1.5CTarget.5Crepo_projects.5CpRealEcu.5CcR_LATEST.5Cmake.5Coutput.5Cobjects.5CSwcApplTpms_Diag.132::
                        2282 .LDWlin132:
0000095a 20de1300       2283 	movea	19,zero,r27
                        2284 .L4280:
0000095e 1af0           2285 	mov	r26,ep
00000960 0182           2286 	mov	1,r16
00000962 5c970000       2287 	st.b	r18,0[r28]
00000966 05e5           2288 	sst.w	r28,8[ep]
00000968 7d870000       2289 	st.h	r16,0[r29]
0000096c 07ed           2290 	sst.w	r29,12[ep]

                                                                      Page 42
                                                              C:\Users\nhuliyap\AppData\Local\Temp\gh_0000ds81.s
0000096e 1b50           2291 	mov	r27,r10
                        2292 --	    .ef
                        2293 .LDW37:
00000970 4e06ff30       2294 	dispose	7,{r26,r27,r28,r29,r31},[lp]
                        2295 ___ghs_eofn_DIAG__ReqCallback_ReadBCMPosition:
                        2296 	.type	_DIAG__ReqCallback_ReadBCMPosition,@function
                        2297 	.size	_DIAG__ReqCallback_ReadBCMPosition,.-_DIAG__ReqCallback_ReadBCMPosition
                        2298 	.type	_DIAG__ReqCallback_ReadBCMPosition..C.3A.5C_ECU2.5CECU_Rivian_A1.5CTarget.5Crepo_projects.5CpRealEcu.5CcR_LATEST.5Cmake.5Coutput.5Cobjects.5CSwcApplTpms_Diag.,@function
                        2299 	.size	_DIAG__ReqCallback_ReadBCMPosition..C.3A.5C_ECU2.5CECU_Rivian_A1.5CTarget.5Crepo_projects.5CpRealEcu.5CcR_LATEST.5Cmake.5Coutput.5Cobjects.5CSwcApplTpms_Diag.,.-_DIAG__ReqCallback_ReadBCMPosition..C.3A.5C_ECU2.5CECU_Rivian_A1.5CTarget.5Crepo_projects.5CpRealEcu.5CcR_LATEST.5Cmake.5Coutput.5Cobjects.5CSwcApplTpms_Diag.
                        2300 	.align	2
                        2301 --_tWAParLocal	0[sp]	local
                        2302 --_U8_RetVal	r27	local
                        2303 
                        2304 --_PS_MsgContext	r26	param
                        2305 
                        2306 	.data
                        2307 	.text
                        2308 	.align	2
                        2309 	.align	2
                        2310 ..gh.f.f.1.e.32:
                        2311 	.type	..gh.f.f.1.e.32,@object
                        2312 	.size	..gh.f.f.1.e.32,0
                        2313 	.global	_DIAG__ReqCallback_WriteBCMPosition..C.3A.5C_ECU2.5CECU_Rivian_A1.5CTarget.5Crepo_projects.5CpRealEcu.5CcR_LATEST.5Cmake.5Coutput.5Cobjects.5CSwcApplTpms_Diag.
                        2314 _DIAG__ReqCallback_WriteBCMPosition..C.3A.5C_ECU2.5CECU_Rivian_A1.5CTarget.5Crepo_projects.5CpRealEcu.5CcR_LATEST.5Cmake.5Coutput.5Cobjects.5CSwcApplTpms_Diag.:
                        2315 _DIAG__ReqCallback_WriteBCMPosition:
00000974 8007e170       2316 	prepare	{r25,r26,r27,r28,r29,r31},0
00000978 06c8           2317 	mov	r6,r25
0000097a 3d0600000000*  2318 	mov	_U16_RespLenght,r29
                        2319 --	    .bf
                        2320 .LDW47:
                        2321 --line766
                        2322 ..lin.C.3A.5C_ECU2.5CECU_Rivian_A1.5CTarget.5Crepo_projects.5CpRealEcu.5CcR_LATEST.5Cmake.5Coutput.5Cobjects.5CSwcApplTpms_Diag.133::
                        2323 .LDWlin133:
00000980 26f70100       2324 	ld.w	0[r6],ep
00000984 00d2           2325 	mov	0,r26
00000986 60e0           2326 	sld.bu	0[ep],r28
00000988 1c06abff       2327 	addi	-85,r28,zero
0000098c f205*          2328 	be	.L4388
0000098e 1c0656ff       2329 	addi	-170,r28,zero
00000992 c205*          2330 	be	.L4388
00000994 1c0601ff       2331 	addi	-255,r28,zero
00000998 fa0d*          2332 	bne	.L4387
                        2333 .L4388:
                        2334 --line773
                        2335 ..lin.C.3A.5C_ECU2.5CECU_Rivian_A1.5CTarget.5Crepo_projects.5CpRealEcu.5CcR_LATEST.5Cmake.5Coutput.5Cobjects.5CSwcApplTpms_Diag.134::
                        2336 .LDWlin134:
0000099a 3b0600000000*  2337 	mov	_tWAPar,r27
000009a0 1b38           2338 	mov	r27,r7
000009a2 0332           2339 	mov	3,r6
                        2340 	jarl	_GetWADataEE,lp
                        2340 <EXPANSION BEGIN>
                        2340 jarl22 _GetWADataEE , lp 
000009a4 80ff0000*      2340 <EXPANSION END>
                        2341 --line774
                        2342 ..lin.C.3A.5C_ECU2.5CECU_Rivian_A1.5CTarget.5Crepo_projects.5CpRealEcu.5CcR_LATEST.5Cmake.5Coutput.5Cobjects.5CSwcApplTpms_Diag.135::
                        2343 .LDWlin135:
000009a8 5be70500       2344 	st.b	r28,5[r27]
000009ac 1b38           2345 	mov	r27,r7
000009ae 0332           2346 	mov	3,r6
                        2347 	jarl	_PutWADataEE,lp
                        2347 <EXPANSION BEGIN>

                                                                      Page 43
                                                              C:\Users\nhuliyap\AppData\Local\Temp\gh_0000ds81.s
                        2347 jarl22 _PutWADataEE , lp 
000009b0 80ff0000*      2347 <EXPANSION END>
000009b4 b505*          2348 	br	.L4391
                        2349 .L4387:
                        2350 --line778
                        2351 ..lin.C.3A.5C_ECU2.5CECU_Rivian_A1.5CTarget.5Crepo_projects.5CpRealEcu.5CcR_LATEST.5Cmake.5Coutput.5Cobjects.5CSwcApplTpms_Diag.136::
                        2352 .LDWlin136:
000009b6 20d62200       2353 	movea	34,zero,r26
                        2354 .L4391:
000009ba 7d070000       2355 	st.h	zero,0[r29]
000009be 79ef0d00       2356 	st.w	r29,12[r25]
000009c2 1a50           2357 	mov	r26,r10
                        2358 --	    .ef
                        2359 .LDW57:
000009c4 4006ff70       2360 	dispose	0,{r25,r26,r27,r28,r29,r31},[lp]
                        2361 ___ghs_eofn_DIAG__ReqCallback_WriteBCMPosition:
                        2362 	.type	_DIAG__ReqCallback_WriteBCMPosition,@function
                        2363 	.size	_DIAG__ReqCallback_WriteBCMPosition,.-_DIAG__ReqCallback_WriteBCMPosition
                        2364 	.type	_DIAG__ReqCallback_WriteBCMPosition..C.3A.5C_ECU2.5CECU_Rivian_A1.5CTarget.5Crepo_projects.5CpRealEcu.5CcR_LATEST.5Cmake.5Coutput.5Cobjects.5CSwcApplTpms_Diag.,@function
                        2365 	.size	_DIAG__ReqCallback_WriteBCMPosition..C.3A.5C_ECU2.5CECU_Rivian_A1.5CTarget.5Crepo_projects.5CpRealEcu.5CcR_LATEST.5Cmake.5Coutput.5Cobjects.5CSwcApplTpms_Diag.,.-_DIAG__ReqCallback_WriteBCMPosition..C.3A.5C_ECU2.5CECU_Rivian_A1.5CTarget.5Crepo_projects.5CpRealEcu.5CcR_LATEST.5Cmake.5Coutput.5Cobjects.5CSwcApplTpms_Diag.
                        2366 	.align	2
                        2367 --_U8_RetVal	r26	local
                        2368 --_U8_NewECUPosition	r28	local
                        2369 
                        2370 --_PS_MsgContext	r25	param
                        2371 
                        2372 	.data
                        2373 	.text
                        2374 	.align	2
                        2375 	.align	2
                        2376 ..gh.f.f.1.e.33:
                        2377 	.type	..gh.f.f.1.e.33,@object
                        2378 	.size	..gh.f.f.1.e.33,0
                        2379 	.global	_DIAG__ReqCallback_ReadABSTicksValue..C.3A.5C_ECU2.5CECU_Rivian_A1.5CTarget.5Crepo_projects.5CpRealEcu.5CcR_LATEST.5Cmake.5Coutput.5Cobjects.5CSwcApplTpms_Diag.
                        2380 _DIAG__ReqCallback_ReadABSTicksValue..C.3A.5C_ECU2.5CECU_Rivian_A1.5CTarget.5Crepo_projects.5CpRealEcu.5CcR_LATEST.5Cmake.5Coutput.5Cobjects.5CSwcApplTpms_Diag.:
                        2381 _DIAG__ReqCallback_ReadABSTicksValue:
000009c8 8207e310       2382 	prepare	{r27,r28,r29,r31},1,sp
000009cc 06d8           2383 	mov	r6,r27
000009ce 3d0600000000*  2384 	mov	_U16_RespLenght,r29
                        2385 --	    .bf
                        2386 .LDW67:
                        2387 --line788
                        2388 ..lin.C.3A.5C_ECU2.5CECU_Rivian_A1.5CTarget.5Crepo_projects.5CpRealEcu.5CcR_LATEST.5Cmake.5Coutput.5Cobjects.5CSwcApplTpms_Diag.137::
                        2389 .LDWlin137:
000009d4 00e2           2390 	mov	0,r28
000009d6 8203           2391 	sst.b	zero,2[ep]
000009d8 8303           2392 	sst.b	zero,3[ep]
000009da 233e0200       2393 	movea	2,sp,r7
000009de 0432           2394 	mov	4,r6
                        2395 	jarl	_GetWADataEE,lp
                        2395 <EXPANSION BEGIN>
                        2395 jarl22 _GetWADataEE , lp 
000009e0 80ff0000*      2395 <EXPANSION END>
                        2396 --line795
                        2397 ..lin.C.3A.5C_ECU2.5CECU_Rivian_A1.5CTarget.5Crepo_projects.5CpRealEcu.5CcR_LATEST.5Cmake.5Coutput.5Cobjects.5CSwcApplTpms_Diag.138::
                        2398 .LDWlin138:
000009e4 83970300       2399 	ld.bu	2[sp],r18
000009e8 1206e0ff       2400 	addi	-32,r18,zero
000009ec 810d*          2401 	bl	.L4517
000009ee a3870300       2402 	ld.bu	3[sp],r16
000009f2 1006e0ff       2403 	addi	-32,r16,zero

                                                                      Page 44
                                                              C:\Users\nhuliyap\AppData\Local\Temp\gh_0000ds81.s
000009f6 b105*          2404 	bl	.L4517
                        2405 --line800
                        2406 ..lin.C.3A.5C_ECU2.5CECU_Rivian_A1.5CTarget.5Crepo_projects.5CpRealEcu.5CcR_LATEST.5Cmake.5Coutput.5Cobjects.5CSwcApplTpms_Diag.139::
                        2407 .LDWlin139:
000009f8 20e61300       2408 	movea	19,zero,r28
                        2409 .L4517:
000009fc a37f0300       2410 	ld.bu	3[sp],r15
00000a00 3df60400       2411 	movea	4,r29,ep
00000a04 0272           2412 	mov	2,r14
00000a06 8093           2413 	sst.b	r18,0[ep]
00000a08 817b           2414 	sst.b	r15,1[ep]
00000a0a 7bf70900       2415 	st.w	ep,8[r27]
00000a0e 7d770000       2416 	st.h	r14,0[r29]
00000a12 7bef0d00       2417 	st.w	r29,12[r27]
00000a16 1c50           2418 	mov	r28,r10
                        2419 --	    .ef
                        2420 .LDW77:
00000a18 4206ff10       2421 	dispose	1,{r27,r28,r29,r31},[lp]
                        2422 ___ghs_eofn_DIAG__ReqCallback_ReadABSTicksValue:
                        2423 	.type	_DIAG__ReqCallback_ReadABSTicksValue,@function
                        2424 	.size	_DIAG__ReqCallback_ReadABSTicksValue,.-_DIAG__ReqCallback_ReadABSTicksValue
                        2425 	.type	_DIAG__ReqCallback_ReadABSTicksValue..C.3A.5C_ECU2.5CECU_Rivian_A1.5CTarget.5Crepo_projects.5CpRealEcu.5CcR_LATEST.5Cmake.5Coutput.5Cobjects.5CSwcApplTpms_Diag.,@function
                        2426 	.size	_DIAG__ReqCallback_ReadABSTicksValue..C.3A.5C_ECU2.5CECU_Rivian_A1.5CTarget.5Crepo_projects.5CpRealEcu.5CcR_LATEST.5Cmake.5Coutput.5Cobjects.5CSwcApplTpms_Diag.,.-_DIAG__ReqCallback_ReadABSTicksValue..C.3A.5C_ECU2.5CECU_Rivian_A1.5CTarget.5Crepo_projects.5CpRealEcu.5CcR_LATEST.5Cmake.5Coutput.5Cobjects.5CSwcApplTpms_Diag.
                        2427 	.align	2
                        2428 --_U8_RetVal	r28	local
                        2429 --_LocalABSTicksInOneRev	2[sp]	local
                        2430 
                        2431 --_PS_MsgContext	r27	param
                        2432 
                        2433 	.data
                        2434 	.text
                        2435 	.align	2
                        2436 	.align	2
                        2437 ..gh.f.f.1.e.34:
                        2438 	.type	..gh.f.f.1.e.34,@object
                        2439 	.size	..gh.f.f.1.e.34,0
                        2440 	.global	_DIAG__ReqCallback_WriteABSTicksValue..C.3A.5C_ECU2.5CECU_Rivian_A1.5CTarget.5Crepo_projects.5CpRealEcu.5CcR_LATEST.5Cmake.5Coutput.5Cobjects.5CSwcApplTpms_Diag.
                        2441 _DIAG__ReqCallback_WriteABSTicksValue..C.3A.5C_ECU2.5CECU_Rivian_A1.5CTarget.5Crepo_projects.5CpRealEcu.5CcR_LATEST.5Cmake.5Coutput.5Cobjects.5CSwcApplTpms_Diag.:
                        2442 _DIAG__ReqCallback_WriteABSTicksValue:
00000a1c 8207e310       2443 	prepare	{r27,r28,r29,r31},1,sp
00000a20 06d8           2444 	mov	r6,r27
00000a22 3d0600000000*  2445 	mov	_U16_RespLenght,r29
                        2446 --	    .bf
                        2447 .LDW87:
                        2448 --line831
                        2449 ..lin.C.3A.5C_ECU2.5CECU_Rivian_A1.5CTarget.5Crepo_projects.5CpRealEcu.5CcR_LATEST.5Cmake.5Coutput.5Cobjects.5CSwcApplTpms_Diag.140::
                        2450 .LDWlin140:
00000a28 8003           2451 	sst.b	zero,0[ep]
00000a2a 8103           2452 	sst.b	zero,1[ep]
00000a2c 26f70100       2453 	ld.w	0[r6],ep
00000a30 00e2           2454 	mov	0,r28
00000a32 6090           2455 	sld.bu	0[ep],r18
00000a34 43970200       2456 	st.b	r18,2[sp]
00000a38 6188           2457 	sld.bu	1[ep],r17
00000a3a 1206e0ff       2458 	addi	-32,r18,zero
00000a3e 438f0300       2459 	st.b	r17,3[sp]
00000a42 c105*          2460 	bl	.L4613
00000a44 1106e0ff       2461 	addi	-32,r17,zero
00000a48 c915*          2462 	bnl	.L4612
                        2463 .L4613:
                        2464 --line840

                                                                      Page 45
                                                              C:\Users\nhuliyap\AppData\Local\Temp\gh_0000ds81.s
                        2465 ..lin.C.3A.5C_ECU2.5CECU_Rivian_A1.5CTarget.5Crepo_projects.5CpRealEcu.5CcR_LATEST.5Cmake.5Coutput.5Cobjects.5CSwcApplTpms_Diag.141::
                        2466 .LDWlin141:
00000a4a 0338           2467 	mov	sp,r7
00000a4c 0432           2468 	mov	4,r6
                        2469 	jarl	_GetWADataEE,lp
                        2469 <EXPANSION BEGIN>
                        2469 jarl22 _GetWADataEE , lp 
00000a4e 80ff0000*      2469 <EXPANSION END>
                        2470 --line841
                        2471 ..lin.C.3A.5C_ECU2.5CECU_Rivian_A1.5CTarget.5Crepo_projects.5CpRealEcu.5CcR_LATEST.5Cmake.5Coutput.5Cobjects.5CSwcApplTpms_Diag.142::
                        2472 .LDWlin142:
00000a52 03f0           2473 	mov	sp,ep
00000a54 6278           2474 	sld.bu	2[ep],r15
00000a56 6070           2475 	sld.bu	0[ep],r14
00000a58 ef71           2476 	cmp	r15,r14
00000a5a da05*          2477 	bne	.L4615
00000a5c 6368           2478 	sld.bu	3[ep],r13
00000a5e 6160           2479 	sld.bu	1[ep],r12
00000a60 ed61           2480 	cmp	r13,r12
00000a62 920d*          2481 	be	.L4619
                        2482 .L4615:
                        2483 --line846
                        2484 ..lin.C.3A.5C_ECU2.5CECU_Rivian_A1.5CTarget.5Crepo_projects.5CpRealEcu.5CcR_LATEST.5Cmake.5Coutput.5Cobjects.5CSwcApplTpms_Diag.143::
                        2485 .LDWlin143:
00000a64 233e0200       2486 	movea	2,sp,r7
00000a68 0432           2487 	mov	4,r6
                        2488 	jarl	_PutWADataEE,lp
                        2488 <EXPANSION BEGIN>
                        2488 jarl22 _PutWADataEE , lp 
00000a6a 80ff0000*      2488 <EXPANSION END>
00000a6e b505*          2489 	br	.L4619
                        2490 .L4612:
                        2491 --line850
                        2492 ..lin.C.3A.5C_ECU2.5CECU_Rivian_A1.5CTarget.5Crepo_projects.5CpRealEcu.5CcR_LATEST.5Cmake.5Coutput.5Cobjects.5CSwcApplTpms_Diag.144::
                        2493 .LDWlin144:
00000a70 20e62200       2494 	movea	34,zero,r28
                        2495 .L4619:
00000a74 7d070000       2496 	st.h	zero,0[r29]
00000a78 7bef0d00       2497 	st.w	r29,12[r27]
00000a7c 1c50           2498 	mov	r28,r10
                        2499 --	    .ef
                        2500 .LDW97:
00000a7e 4206ff10       2501 	dispose	1,{r27,r28,r29,r31},[lp]
                        2502 ___ghs_eofn_DIAG__ReqCallback_WriteABSTicksValue:
                        2503 	.type	_DIAG__ReqCallback_WriteABSTicksValue,@function
                        2504 	.size	_DIAG__ReqCallback_WriteABSTicksValue,.-_DIAG__ReqCallback_WriteABSTicksValue
                        2505 	.type	_DIAG__ReqCallback_WriteABSTicksValue..C.3A.5C_ECU2.5CECU_Rivian_A1.5CTarget.5Crepo_projects.5CpRealEcu.5CcR_LATEST.5Cmake.5Coutput.5Cobjects.5CSwcApplTpms_Diag.,@function
                        2506 	.size	_DIAG__ReqCallback_WriteABSTicksValue..C.3A.5C_ECU2.5CECU_Rivian_A1.5CTarget.5Crepo_projects.5CpRealEcu.5CcR_LATEST.5Cmake.5Coutput.5Cobjects.5CSwcApplTpms_Diag.,.-_DIAG__ReqCallback_WriteABSTicksValue..C.3A.5C_ECU2.5CECU_Rivian_A1.5CTarget.5Crepo_projects.5CpRealEcu.5CcR_LATEST.5Cmake.5Coutput.5Cobjects.5CSwcApplTpms_Diag.
                        2507 	.align	2
                        2508 --_U8_RetVal	r28	local
                        2509 --_LocalABSTicksInOneRev	0[sp]	local
                        2510 --_ParamaterABSTicksInOneRev	2[sp]	local
                        2511 
                        2512 --_PS_MsgContext	r27	param
                        2513 
                        2514 	.data
                        2515 	.text
                        2516 	.align	2
                        2517 	.align	2
                        2518 ..gh.f.f.1.e.35:
                        2519 	.type	..gh.f.f.1.e.35,@object

                                                                      Page 46
                                                              C:\Users\nhuliyap\AppData\Local\Temp\gh_0000ds81.s
                        2520 	.size	..gh.f.f.1.e.35,0
                        2521 	.global	_DIAG__ReqCallback_ReadRSSINoiseLevel..C.3A.5C_ECU2.5CECU_Rivian_A1.5CTarget.5Crepo_projects.5CpRealEcu.5CcR_LATEST.5Cmake.5Coutput.5Cobjects.5CSwcApplTpms_Diag.
                        2522 _DIAG__ReqCallback_ReadRSSINoiseLevel..C.3A.5C_ECU2.5CECU_Rivian_A1.5CTarget.5Crepo_projects.5CpRealEcu.5CcR_LATEST.5Cmake.5Coutput.5Cobjects.5CSwcApplTpms_Diag.:
                        2523 _DIAG__ReqCallback_ReadRSSINoiseLevel:
00000a82 8007e110       2524 	prepare	{r27,r28,r29,r31},0
00000a86 06d8           2525 	mov	r6,r27
00000a88 3d0600000000*  2526 	mov	_U16_RespLenght,r29
                        2527 --	    .bf
                        2528 .LDW08:
                        2529 --line881
                        2530 ..lin.C.3A.5C_ECU2.5CECU_Rivian_A1.5CTarget.5Crepo_projects.5CpRealEcu.5CcR_LATEST.5Cmake.5Coutput.5Cobjects.5CSwcApplTpms_Diag.145::
                        2531 .LDWlin145:
00000a8e 3c0600000000*  2532 	mov	_tWAPar,r28
00000a94 1c38           2533 	mov	r28,r7
00000a96 0332           2534 	mov	3,r6
                        2535 	jarl	_GetWADataEE,lp
                        2535 <EXPANSION BEGIN>
                        2535 jarl22 _GetWADataEE , lp 
00000a98 80ff0000*      2535 <EXPANSION END>
                        2536 --line882
                        2537 ..lin.C.3A.5C_ECU2.5CECU_Rivian_A1.5CTarget.5Crepo_projects.5CpRealEcu.5CcR_LATEST.5Cmake.5Coutput.5Cobjects.5CSwcApplTpms_Diag.146::
                        2538 .LDWlin146:
00000a9c bc8f1700       2539 	ld.bu	23[r28],r17
00000aa0 bc871500       2540 	ld.bu	21[r28],r16
00000aa4 3df60400       2541 	movea	4,r29,ep
00000aa8 027a           2542 	mov	2,r15
00000aaa 808b           2543 	sst.b	r17,0[ep]
00000aac 8183           2544 	sst.b	r16,1[ep]
00000aae 7bf70900       2545 	st.w	ep,8[r27]
00000ab2 7d7f0000       2546 	st.h	r15,0[r29]
00000ab6 7bef0d00       2547 	st.w	r29,12[r27]
00000aba 0052           2548 	mov	0,r10
                        2549 --	    .ef
                        2550 .LDW18:
00000abc 4006ff10       2551 	dispose	0,{r27,r28,r29,r31},[lp]
                        2552 ___ghs_eofn_DIAG__ReqCallback_ReadRSSINoiseLevel:
                        2553 	.type	_DIAG__ReqCallback_ReadRSSINoiseLevel,@function
                        2554 	.size	_DIAG__ReqCallback_ReadRSSINoiseLevel,.-_DIAG__ReqCallback_ReadRSSINoiseLevel
                        2555 	.type	_DIAG__ReqCallback_ReadRSSINoiseLevel..C.3A.5C_ECU2.5CECU_Rivian_A1.5CTarget.5Crepo_projects.5CpRealEcu.5CcR_LATEST.5Cmake.5Coutput.5Cobjects.5CSwcApplTpms_Diag.,@function
                        2556 	.size	_DIAG__ReqCallback_ReadRSSINoiseLevel..C.3A.5C_ECU2.5CECU_Rivian_A1.5CTarget.5Crepo_projects.5CpRealEcu.5CcR_LATEST.5Cmake.5Coutput.5Cobjects.5CSwcApplTpms_Diag.,.-_DIAG__ReqCallback_ReadRSSINoiseLevel..C.3A.5C_ECU2.5CECU_Rivian_A1.5CTarget.5Crepo_projects.5CpRealEcu.5CcR_LATEST.5Cmake.5Coutput.5Cobjects.5CSwcApplTpms_Diag.
                        2557 	.align	2
                        2558 
                        2559 --_PS_MsgContext	r27	param
                        2560 
                        2561 	.data
                        2562 	.text
                        2563 	.align	2
                        2564 	.align	2
                        2565 ..gh.f.f.1.e.36:
                        2566 	.type	..gh.f.f.1.e.36,@object
                        2567 	.size	..gh.f.f.1.e.36,0
                        2568 	.global	_DIAG__ReqCallback_WriteRSSINoiseLevel..C.3A.5C_ECU2.5CECU_Rivian_A1.5CTarget.5Crepo_projects.5CpRealEcu.5CcR_LATEST.5Cmake.5Coutput.5Cobjects.5CSwcApplTpms_Diag.
                        2569 _DIAG__ReqCallback_WriteRSSINoiseLevel..C.3A.5C_ECU2.5CECU_Rivian_A1.5CTarget.5Crepo_projects.5CpRealEcu.5CcR_LATEST.5Cmake.5Coutput.5Cobjects.5CSwcApplTpms_Diag.:
                        2570 _DIAG__ReqCallback_WriteRSSINoiseLevel:
00000ac0 8007e130       2571 	prepare	{r26,r27,r28,r29,r31},0
00000ac4 06d8           2572 	mov	r6,r27
00000ac6 3d0600000000*  2573 	mov	_U16_RespLenght,r29
                        2574 --	    .bf
                        2575 .LDW28:
                        2576 --line911
                        2577 ..lin.C.3A.5C_ECU2.5CECU_Rivian_A1.5CTarget.5Crepo_projects.5CpRealEcu.5CcR_LATEST.5Cmake.5Coutput.5Cobjects.5CSwcApplTpms_Diag.147::

                                                                      Page 47
                                                              C:\Users\nhuliyap\AppData\Local\Temp\gh_0000ds81.s
                        2578 .LDWlin147:
00000acc 26f70100       2579 	ld.w	0[r6],ep
00000ad0 00d2           2580 	mov	0,r26
00000ad2 6088           2581 	sld.bu	0[ep],r17
00000ad4 e089           2582 	cmp	zero,r17
00000ad6 821d*          2583 	be	.L4788
00000ad8 6180           2584 	sld.bu	1[ep],r16
00000ada 6a82           2585 	cmp	10,r16
00000adc d315*          2586 	bnh	.L4788
                        2587 --line914
                        2588 ..lin.C.3A.5C_ECU2.5CECU_Rivian_A1.5CTarget.5Crepo_projects.5CpRealEcu.5CcR_LATEST.5Cmake.5Coutput.5Cobjects.5CSwcApplTpms_Diag.148::
                        2589 .LDWlin148:
00000ade 3c0600000000*  2590 	mov	_tWAPar,r28
00000ae4 1c38           2591 	mov	r28,r7
00000ae6 0332           2592 	mov	3,r6
                        2593 	jarl	_GetWADataEE,lp
                        2593 <EXPANSION BEGIN>
                        2593 jarl22 _GetWADataEE , lp 
00000ae8 80ff0000*      2593 <EXPANSION END>
                        2594 --line915
                        2595 ..lin.C.3A.5C_ECU2.5CECU_Rivian_A1.5CTarget.5Crepo_projects.5CpRealEcu.5CcR_LATEST.5Cmake.5Coutput.5Cobjects.5CSwcApplTpms_Diag.149::
                        2596 .LDWlin149:
00000aec 3bf70100       2597 	ld.w	0[r27],ep
00000af0 1c38           2598 	mov	r28,r7
00000af2 0332           2599 	mov	3,r6
00000af4 6078           2600 	sld.bu	0[ep],r15
00000af6 5c7f1700       2601 	st.b	r15,23[r28]
00000afa 6170           2602 	sld.bu	1[ep],r14
00000afc 5c771500       2603 	st.b	r14,21[r28]
                        2604 	jarl	_PutWADataEE,lp
                        2604 <EXPANSION BEGIN>
                        2604 jarl22 _PutWADataEE , lp 
00000b00 80ff0000*      2604 <EXPANSION END>
00000b04 b505*          2605 	br	.L4791
                        2606 .L4788:
                        2607 --line920
                        2608 ..lin.C.3A.5C_ECU2.5CECU_Rivian_A1.5CTarget.5Crepo_projects.5CpRealEcu.5CcR_LATEST.5Cmake.5Coutput.5Cobjects.5CSwcApplTpms_Diag.150::
                        2609 .LDWlin150:
00000b06 20d62200       2610 	movea	34,zero,r26
                        2611 .L4791:
00000b0a 7d070000       2612 	st.h	zero,0[r29]
00000b0e 7bef0d00       2613 	st.w	r29,12[r27]
00000b12 1a50           2614 	mov	r26,r10
                        2615 --	    .ef
                        2616 .LDW38:
00000b14 4006ff30       2617 	dispose	0,{r26,r27,r28,r29,r31},[lp]
                        2618 ___ghs_eofn_DIAG__ReqCallback_WriteRSSINoiseLevel:
                        2619 	.type	_DIAG__ReqCallback_WriteRSSINoiseLevel,@function
                        2620 	.size	_DIAG__ReqCallback_WriteRSSINoiseLevel,.-_DIAG__ReqCallback_WriteRSSINoiseLevel
                        2621 	.type	_DIAG__ReqCallback_WriteRSSINoiseLevel..C.3A.5C_ECU2.5CECU_Rivian_A1.5CTarget.5Crepo_projects.5CpRealEcu.5CcR_LATEST.5Cmake.5Coutput.5Cobjects.5CSwcApplTpms_Diag.,@function
                        2622 	.size	_DIAG__ReqCallback_WriteRSSINoiseLevel..C.3A.5C_ECU2.5CECU_Rivian_A1.5CTarget.5Crepo_projects.5CpRealEcu.5CcR_LATEST.5Cmake.5Coutput.5Cobjects.5CSwcApplTpms_Diag.,.-_DIAG__ReqCallback_WriteRSSINoiseLevel..C.3A.5C_ECU2.5CECU_Rivian_A1.5CTarget.5Crepo_projects.5CpRealEcu.5CcR_LATEST.5Cmake.5Coutput.5Cobjects.5CSwcApplTpms_Diag.
                        2623 	.align	2
                        2624 --_U8_RetVal	r26	local
                        2625 
                        2626 --_PS_MsgContext	r27	param
                        2627 
                        2628 	.data
                        2629 	.text
                        2630 	.align	2
                        2631 	.align	2
                        2632 ..gh.f.f.1.e.37:

                                                                      Page 48
                                                              C:\Users\nhuliyap\AppData\Local\Temp\gh_0000ds81.s
                        2633 	.type	..gh.f.f.1.e.37,@object
                        2634 	.size	..gh.f.f.1.e.37,0
                        2635 	.global	_DIAG__ReqCallback_ReadTemperatureWarningThreshold..C.3A.5C_ECU2.5CECU_Rivian_A1.5CTarget.5Crepo_projects.5CpRealEcu.5CcR_LATEST.5Cmake.5Coutput.5Cobjects.5CSwcApplTpms_Diag.
                        2636 _DIAG__ReqCallback_ReadTemperatureWarningThreshold..C.3A.5C_ECU2.5CECU_Rivian_A1.5CTarget.5Crepo_projects.5CpRealEcu.5CcR_LATEST.5Cmake.5Coutput.5Cobjects.5CSwcApplTpms_Diag.:
                        2637 _DIAG__ReqCallback_ReadTemperatureWarningThreshold:
00000b18 8007e100       2638 	prepare	{r28,r29,r31},0
00000b1c 06e0           2639 	mov	r6,r28
00000b1e 3d0600000000*  2640 	mov	_U16_RespLenght,r29
                        2641 --	    .bf
                        2642 .LDW48:
                        2643 --line933
                        2644 ..lin.C.3A.5C_ECU2.5CECU_Rivian_A1.5CTarget.5Crepo_projects.5CpRealEcu.5CcR_LATEST.5Cmake.5Coutput.5Cobjects.5CSwcApplTpms_Diag.151::
                        2645 .LDWlin151:
                        2646 	jarl	_NvM3_GETucVarCodTemperatureWarningThresEE,lp
                        2646 <EXPANSION BEGIN>
                        2646 jarl22 _NvM3_GETucVarCodTemperatureWarningThresEE , lp 
00000b24 80ff0000*      2646 <EXPANSION END>
00000b28 3df60400       2647 	movea	4,r29,ep
00000b2c 0a8e2800       2648 	addi	40,r10,r17
                        2649 --line937
                        2650 ..lin.C.3A.5C_ECU2.5CECU_Rivian_A1.5CTarget.5Crepo_projects.5CpRealEcu.5CcR_LATEST.5Cmake.5Coutput.5Cobjects.5CSwcApplTpms_Diag.152::
                        2651 .LDWlin152:
00000b30 0182           2652 	mov	1,r16
00000b32 808b           2653 	sst.b	r17,0[ep]
00000b34 7cf70900       2654 	st.w	ep,8[r28]
00000b38 7d870000       2655 	st.h	r16,0[r29]
00000b3c 7cef0d00       2656 	st.w	r29,12[r28]
00000b40 0052           2657 	mov	0,r10
                        2658 --	    .ef
                        2659 .LDW58:
00000b42 4006ff00       2660 	dispose	0,{r28,r29,r31},[lp]
                        2661 ___ghs_eofn_DIAG__ReqCallback_ReadTemperatureWarningThreshold:
                        2662 	.type	_DIAG__ReqCallback_ReadTemperatureWarningThreshold,@function
                        2663 	.size	_DIAG__ReqCallback_ReadTemperatureWarningThreshold,.-_DIAG__ReqCallback_ReadTemperatureWarningThreshold
                        2664 	.type	_DIAG__ReqCallback_ReadTemperatureWarningThreshold..C.3A.5C_ECU2.5CECU_Rivian_A1.5CTarget.5Crepo_projects.5CpRealEcu.5CcR_LATEST.5Cmake.5Coutput.5Cobjects.5CSwcApplTpms_Diag.,@function
                        2665 	.size	_DIAG__ReqCallback_ReadTemperatureWarningThreshold..C.3A.5C_ECU2.5CECU_Rivian_A1.5CTarget.5Crepo_projects.5CpRealEcu.5CcR_LATEST.5Cmake.5Coutput.5Cobjects.5CSwcApplTpms_Diag.,.-_DIAG__ReqCallback_ReadTemperatureWarningThreshold..C.3A.5C_ECU2.5CECU_Rivian_A1.5CTarget.5Crepo_projects.5CpRealEcu.5CcR_LATEST.5Cmake.5Coutput.5Cobjects.5CSwcApplTpms_Diag.
                        2666 	.align	2
                        2667 
                        2668 --_PS_MsgContext	r28	param
                        2669 
                        2670 	.data
                        2671 	.text
                        2672 	.align	2
                        2673 	.align	2
                        2674 ..gh.f.f.1.e.38:
                        2675 	.type	..gh.f.f.1.e.38,@object
                        2676 	.size	..gh.f.f.1.e.38,0
                        2677 	.global	_DIAG__ReqCallback_WriteTemperatureWarningThreshold..C.3A.5C_ECU2.5CECU_Rivian_A1.5CTarget.5Crepo_projects.5CpRealEcu.5CcR_LATEST.5Cmake.5Coutput.5Cobjects.5CSwcApplTpms_Diag.
                        2678 _DIAG__ReqCallback_WriteTemperatureWarningThreshold..C.3A.5C_ECU2.5CECU_Rivian_A1.5CTarget.5Crepo_projects.5CpRealEcu.5CcR_LATEST.5Cmake.5Coutput.5Cobjects.5CSwcApplTpms_Diag.:
                        2679 _DIAG__ReqCallback_WriteTemperatureWarningThreshold:
00000b46 80076100       2680 	prepare	{r29,r31},0
00000b4a 06f0           2681 	mov	r6,ep
                        2682 --	    .bf
                        2683 .LDW68:
00000b4c 00f5           2684 	sld.w	0[ep],ep
00000b4e 009b           2685 	sld.b	0[ep],r19
00000b50 1336d8ff       2686 	addi	-40,r19,r6
00000b54 a600           2687 	sxb	r6
00000b56 060688ff       2688 	addi	-120,r6,zero
00000b5a df05*          2689 	bgt	.L4948
00000b5c 00ea           2690 	mov	0,r29

                                                                      Page 49
                                                              C:\Users\nhuliyap\AppData\Local\Temp\gh_0000ds81.s
                        2691 --line950
                        2692 ..lin.C.3A.5C_ECU2.5CECU_Rivian_A1.5CTarget.5Crepo_projects.5CpRealEcu.5CcR_LATEST.5Cmake.5Coutput.5Cobjects.5CSwcApplTpms_Diag.153::
                        2693 .LDWlin153:
                        2694 	jarl	_NvM3_PUTucVarCodTemperatureWarningThresEE,lp
                        2694 <EXPANSION BEGIN>
                        2694 jarl22 _NvM3_PUTucVarCodTemperatureWarningThresEE , lp 
00000b5e 80ff0000*      2694 <EXPANSION END>
00000b62 b505*          2695 	br	.L4950
                        2696 .L4948:
                        2697 --line953
                        2698 ..lin.C.3A.5C_ECU2.5CECU_Rivian_A1.5CTarget.5Crepo_projects.5CpRealEcu.5CcR_LATEST.5Cmake.5Coutput.5Cobjects.5CSwcApplTpms_Diag.154::
                        2699 .LDWlin154:
00000b64 20ee2200       2700 	movea	34,zero,r29
                        2701 .L4950:
00000b68 1d50           2702 	mov	r29,r10
                        2703 --	    .ef
                        2704 .LDW78:
00000b6a 40067f00       2705 	dispose	0,{r29,r31},[lp]
                        2706 ___ghs_eofn_DIAG__ReqCallback_WriteTemperatureWarningThreshold:
                        2707 	.type	_DIAG__ReqCallback_WriteTemperatureWarningThreshold,@function
                        2708 	.size	_DIAG__ReqCallback_WriteTemperatureWarningThreshold,.-_DIAG__ReqCallback_WriteTemperatureWarningThreshold
                        2709 	.type	_DIAG__ReqCallback_WriteTemperatureWarningThreshold..C.3A.5C_ECU2.5CECU_Rivian_A1.5CTarget.5Crepo_projects.5CpRealEcu.5CcR_LATEST.5Cmake.5Coutput.5Cobjects.5CSwcApplTpms_Diag.,@function
                        2710 	.size	_DIAG__ReqCallback_WriteTemperatureWarningThreshold..C.3A.5C_ECU2.5CECU_Rivian_A1.5CTarget.5Crepo_projects.5CpRealEcu.5CcR_LATEST.5Cmake.5Coutput.5Cobjects.5CSwcApplTpms_Diag.,.-_DIAG__ReqCallback_WriteTemperatureWarningThreshold..C.3A.5C_ECU2.5CECU_Rivian_A1.5CTarget.5Crepo_projects.5CpRealEcu.5CcR_LATEST.5Cmake.5Coutput.5Cobjects.5CSwcApplTpms_Diag.
                        2711 	.align	2
                        2712 --_U8_RetVal	r29	local
                        2713 --_S8_TemperatureWarningThres	r6	local
                        2714 
                        2715 --_PS_MsgContext	ep	param
                        2716 
                        2717 	.section ".bss","awb"
                        2718 .L4998:
                        2719 	.type	.L4998,@object
                        2720 	.size	.L4998,0
                        2721 	.data
                        2722 	.text
                        2723 	.align	2
                        2724 	.align	2
                        2725 ..gh.f.f.1.e.39:
                        2726 	.type	..gh.f.f.1.e.39,@object
                        2727 	.size	..gh.f.f.1.e.39,0
                        2728 	.global	_DIAG__EOLRoutineStart..C.3A.5C_ECU2.5CECU_Rivian_A1.5CTarget.5Crepo_projects.5CpRealEcu.5CcR_LATEST.5Cmake.5Coutput.5Cobjects.5CSwcApplTpms_Diag.
                        2729 _DIAG__EOLRoutineStart..C.3A.5C_ECU2.5CECU_Rivian_A1.5CTarget.5Crepo_projects.5CpRealEcu.5CcR_LATEST.5Cmake.5Coutput.5Cobjects.5CSwcApplTpms_Diag.:
                        2730 _DIAG__EOLRoutineStart:
00000b6e 80076100       2731 	prepare	{r29,r31},0
00000b72 06f0           2732 	mov	r6,ep
00000b74 07e8           2733 	mov	r7,r29
                        2734 --	    .bf
                        2735 .LDW88:
00000b76 6030           2736 	sld.bu	0[ep],r6
                        2737 	jarl	_EOL_StartLearnRoutine,lp
                        2737 <EXPANSION BEGIN>
                        2737 jarl22 _EOL_StartLearnRoutine , lp 
00000b78 80ff0000*      2737 <EXPANSION END>
00000b7c 5d570000       2738 	st.b	r10,0[r29]
                        2739 --	    .ef
                        2740 .LDW98:
                        2741 --line1281
                        2742 ..lin.C.3A.5C_ECU2.5CECU_Rivian_A1.5CTarget.5Crepo_projects.5CpRealEcu.5CcR_LATEST.5Cmake.5Coutput.5Cobjects.5CSwcApplTpms_Diag.155::
                        2743 .LDWlin155:
00000b80 40067f00       2744 	dispose	0,{r29,r31},[lp]
                        2745 ___ghs_eofn_DIAG__EOLRoutineStart:

                                                                      Page 50
                                                              C:\Users\nhuliyap\AppData\Local\Temp\gh_0000ds81.s
                        2746 	.type	_DIAG__EOLRoutineStart,@function
                        2747 	.size	_DIAG__EOLRoutineStart,.-_DIAG__EOLRoutineStart
                        2748 	.type	_DIAG__EOLRoutineStart..C.3A.5C_ECU2.5CECU_Rivian_A1.5CTarget.5Crepo_projects.5CpRealEcu.5CcR_LATEST.5Cmake.5Coutput.5Cobjects.5CSwcApplTpms_Diag.,@function
                        2749 	.size	_DIAG__EOLRoutineStart..C.3A.5C_ECU2.5CECU_Rivian_A1.5CTarget.5Crepo_projects.5CpRealEcu.5CcR_LATEST.5Cmake.5Coutput.5Cobjects.5CSwcApplTpms_Diag.,.-_DIAG__EOLRoutineStart..C.3A.5C_ECU2.5CECU_Rivian_A1.5CTarget.5Crepo_projects.5CpRealEcu.5CcR_LATEST.5Cmake.5Coutput.5Cobjects.5CSwcApplTpms_Diag.
                        2750 	.align	2
                        2751 
                        2752 --_PU8_ReqData	ep	param
                        2753 --_PU8_ResData	r29	param
                        2754 
                        2755 	.section ".bss","awb"
                        2756 .L5073:
                        2757 	.type	.L5073,@object
                        2758 	.size	.L5073,0
                        2759 	.data
                        2760 	.text
                        2761 	.align	2
                        2762 	.align	2
                        2763 ..gh.f.f.1.e.40:
                        2764 	.type	..gh.f.f.1.e.40,@object
                        2765 	.size	..gh.f.f.1.e.40,0
                        2766 	.global	_DIAG__EOLRoutineReqResponse..C.3A.5C_ECU2.5CECU_Rivian_A1.5CTarget.5Crepo_projects.5CpRealEcu.5CcR_LATEST.5Cmake.5Coutput.5Cobjects.5CSwcApplTpms_Diag.
                        2767 _DIAG__EOLRoutineReqResponse..C.3A.5C_ECU2.5CECU_Rivian_A1.5CTarget.5Crepo_projects.5CpRealEcu.5CcR_LATEST.5Cmake.5Coutput.5Cobjects.5CSwcApplTpms_Diag.:
                        2768 _DIAG__EOLRoutineReqResponse:
00000b84 80076100       2769 	prepare	{r29,r31},0
00000b88 06e8           2770 	mov	r6,r29
                        2771 --	    .bf
                        2772 .LDW09:
                        2773 	jarl	_EOL_GetStatusEOLRoutine,lp
                        2773 <EXPANSION BEGIN>
                        2773 jarl22 _EOL_GetStatusEOLRoutine , lp 
00000b8a 80ff0000*      2773 <EXPANSION END>
                        2774 --line1287
                        2775 ..lin.C.3A.5C_ECU2.5CECU_Rivian_A1.5CTarget.5Crepo_projects.5CpRealEcu.5CcR_LATEST.5Cmake.5Coutput.5Cobjects.5CSwcApplTpms_Diag.156::
                        2776 .LDWlin156:
00000b8e 6752           2777 	cmp	7,r10
00000b90 bb05*          2778 	bh	.L5094
00000b92 6352           2779 	cmp	3,r10
00000b94 da05*          2780 	bne	.L5096
                        2781 .L5094:
                        2782 --line1290
                        2783 ..lin.C.3A.5C_ECU2.5CECU_Rivian_A1.5CTarget.5Crepo_projects.5CpRealEcu.5CcR_LATEST.5Cmake.5Coutput.5Cobjects.5CSwcApplTpms_Diag.157::
                        2784 .LDWlin157:
00000b96 0032           2785 	mov	0,r6
                        2786 	jarl	_EOL_PutStatusEOLRoutine,lp
                        2786 <EXPANSION BEGIN>
                        2786 jarl22 _EOL_PutStatusEOLRoutine , lp 
00000b98 80ff0000*      2786 <EXPANSION END>
                        2787 --line1291
                        2788 ..lin.C.3A.5C_ECU2.5CECU_Rivian_A1.5CTarget.5Crepo_projects.5CpRealEcu.5CcR_LATEST.5Cmake.5Coutput.5Cobjects.5CSwcApplTpms_Diag.158::
                        2789 .LDWlin158:
00000b9c 0052           2790 	mov	0,r10
                        2791 .L5096:
00000b9e 5d570000       2792 	st.b	r10,0[r29]
                        2793 --	    .ef
                        2794 .LDW19:
00000ba2 40067f00       2795 	dispose	0,{r29,r31},[lp]
                        2796 ___ghs_eofn_DIAG__EOLRoutineReqResponse:
                        2797 	.type	_DIAG__EOLRoutineReqResponse,@function
                        2798 	.size	_DIAG__EOLRoutineReqResponse,.-_DIAG__EOLRoutineReqResponse
                        2799 	.type	_DIAG__EOLRoutineReqResponse..C.3A.5C_ECU2.5CECU_Rivian_A1.5CTarget.5Crepo_projects.5CpRealEcu.5CcR_LATEST.5Cmake.5Coutput.5Cobjects.5CSwcApplTpms_Diag.,@function
                        2800 	.size	_DIAG__EOLRoutineReqResponse..C.3A.5C_ECU2.5CECU_Rivian_A1.5CTarget.5Crepo_projects.5CpRealEcu.5CcR_LATEST.5Cmake.5Coutput.5Cobjects.5CSwcApplTpms_Diag.,.-_DIAG__EOLRoutineReqResponse..C.3A.5C_ECU2.5CECU_Rivian_A1.5CTarget.5Crepo_projects.5CpRealEcu.5CcR_LATEST.5Cmake.5Coutput.5Cobjects.5CSwcApplTpms_Diag.

                                                                      Page 51
                                                              C:\Users\nhuliyap\AppData\Local\Temp\gh_0000ds81.s
                        2801 	.align	2
                        2802 --_ucRoutineStatusValue	r10	local
                        2803 
                        2804 --_PU8_ResData	r29	param
                        2805 
                        2806 	.section ".bss","awb"
                        2807 .L5136:
                        2808 	.type	.L5136,@object
                        2809 	.size	.L5136,0
                        2810 	.data
                        2811 	.text
                        2812 	.align	2
                        2813 	.align	2
                        2814 ..gh.f.f.1.e.41:
                        2815 	.type	..gh.f.f.1.e.41,@object
                        2816 	.size	..gh.f.f.1.e.41,0
                        2817 	.global	_DIAG__ReqCallback_StartEOL_TPMS_TestProcedure..C.3A.5C_ECU2.5CECU_Rivian_A1.5CTarget.5Crepo_projects.5CpRealEcu.5CcR_LATEST.5Cmake.5Coutput.5Cobjects.5CSwcApplTpms_Diag.
                        2818 _DIAG__ReqCallback_StartEOL_TPMS_TestProcedure..C.3A.5C_ECU2.5CECU_Rivian_A1.5CTarget.5Crepo_projects.5CpRealEcu.5CcR_LATEST.5Cmake.5Coutput.5Cobjects.5CSwcApplTpms_Diag.:
                        2819 _DIAG__ReqCallback_StartEOL_TPMS_TestProcedure:
00000ba6 8407e330       2820 	prepare	{r26,r27,r28,r29,r31},2,sp
00000baa 06e0           2821 	mov	r6,r28
00000bac 3d0600000000*  2822 	mov	_U16_RespLenght,r29
                        2823 --	    .bf
                        2824 .LDW29:
                        2825 --line968
                        2826 ..lin.C.3A.5C_ECU2.5CECU_Rivian_A1.5CTarget.5Crepo_projects.5CpRealEcu.5CcR_LATEST.5Cmake.5Coutput.5Cobjects.5CSwcApplTpms_Diag.159::
                        2827 .LDWlin159:
00000bb2 e6970500       2828 	ld.hu	4[r6],r18
00000bb6 8203           2829 	sst.b	zero,2[ep]
00000bb8 8303           2830 	sst.b	zero,3[ep]
00000bba 1df0           2831 	mov	r29,ep
00000bbc 3dd60400       2832 	movea	4,r29,r26
00000bc0 8403           2833 	sst.b	zero,4[ep]
00000bc2 8004           2834 	sst.h	zero,0[ep]
00000bc4 6192           2835 	cmp	1,r18
00000bc6 ba1d*          2836 	bne	.L5183
                        2837 --line971
                        2838 ..lin.C.3A.5C_ECU2.5CECU_Rivian_A1.5CTarget.5Crepo_projects.5CpRealEcu.5CcR_LATEST.5Cmake.5Coutput.5Cobjects.5CSwcApplTpms_Diag.160::
                        2839 .LDWlin160:
00000bc8 26f70100       2840 	ld.w	0[r6],ep
00000bcc 00da           2841 	mov	0,r27
00000bce 23360200       2842 	movea	2,sp,r6
00000bd2 233e0300       2843 	movea	3,sp,r7
00000bd6 6088           2844 	sld.bu	0[ep],r17
00000bd8 438f0200       2845 	st.b	r17,2[sp]
                        2846 	jarl	_DIAG__EOLRoutineStart,lp
                        2846 <EXPANSION BEGIN>
                        2846 jarl22 _DIAG__EOLRoutineStart , lp 
00000bdc bfff92ff*      2846 <EXPANSION END>
                        2847 --line973
                        2848 ..lin.C.3A.5C_ECU2.5CECU_Rivian_A1.5CTarget.5Crepo_projects.5CpRealEcu.5CcR_LATEST.5Cmake.5Coutput.5Cobjects.5CSwcApplTpms_Diag.161::
                        2849 .LDWlin161:
00000be0 a3870300       2850 	ld.bu	3[sp],r16
00000be4 6182           2851 	cmp	1,r16
00000be6 ca05*          2852 	bne	.L5185
                        2853 --line976
                        2854 ..lin.C.3A.5C_ECU2.5CECU_Rivian_A1.5CTarget.5Crepo_projects.5CpRealEcu.5CcR_LATEST.5Cmake.5Coutput.5Cobjects.5CSwcApplTpms_Diag.162::
                        2855 .LDWlin162:
00000be8 20de3100       2856 	movea	49,zero,r27
00000bec a50d*          2857 	br	.L5188
                        2858 .L5185:

                                                                      Page 52
                                                              C:\Users\nhuliyap\AppData\Local\Temp\gh_0000ds81.s
                        2859 --line980
                        2860 ..lin.C.3A.5C_ECU2.5CECU_Rivian_A1.5CTarget.5Crepo_projects.5CpRealEcu.5CcR_LATEST.5Cmake.5Coutput.5Cobjects.5CSwcApplTpms_Diag.163::
                        2861 .LDWlin163:
00000bee 1a30           2862 	mov	r26,r6
                        2863 	jarl	_DIAG__EOLRoutineReqResponse,lp
                        2863 <EXPANSION BEGIN>
                        2863 jarl22 _DIAG__EOLRoutineReqResponse , lp 
00000bf0 bfff94ff*      2863 <EXPANSION END>
                        2864 --line981
                        2865 ..lin.C.3A.5C_ECU2.5CECU_Rivian_A1.5CTarget.5Crepo_projects.5CpRealEcu.5CcR_LATEST.5Cmake.5Coutput.5Cobjects.5CSwcApplTpms_Diag.164::
                        2866 .LDWlin164:
00000bf4 017a           2867 	mov	1,r15
00000bf6 7d7f0000       2868 	st.h	r15,0[r29]
00000bfa b505*          2869 	br	.L5188
                        2870 .L5183:
                        2871 --line986
                        2872 ..lin.C.3A.5C_ECU2.5CECU_Rivian_A1.5CTarget.5Crepo_projects.5CpRealEcu.5CcR_LATEST.5Cmake.5Coutput.5Cobjects.5CSwcApplTpms_Diag.165::
                        2873 .LDWlin165:
00000bfc 20de1300       2874 	movea	19,zero,r27
                        2875 .L5188:
00000c00 1cf0           2876 	mov	r28,ep
00000c02 05d5           2877 	sst.w	r26,8[ep]
00000c04 07ed           2878 	sst.w	r29,12[ep]
00000c06 1b50           2879 	mov	r27,r10
                        2880 --	    .ef
                        2881 .LDW39:
00000c08 4406ff30       2882 	dispose	2,{r26,r27,r28,r29,r31},[lp]
                        2883 ___ghs_eofn_DIAG__ReqCallback_StartEOL_TPMS_TestProcedure:
                        2884 	.type	_DIAG__ReqCallback_StartEOL_TPMS_TestProcedure,@function
                        2885 	.size	_DIAG__ReqCallback_StartEOL_TPMS_TestProcedure,.-_DIAG__ReqCallback_StartEOL_TPMS_TestProcedure
                        2886 	.type	_DIAG__ReqCallback_StartEOL_TPMS_TestProcedure..C.3A.5C_ECU2.5CECU_Rivian_A1.5CTarget.5Crepo_projects.5CpRealEcu.5CcR_LATEST.5Cmake.5Coutput.5Cobjects.5CSwcApplTpms_Diag.,@function
                        2887 	.size	_DIAG__ReqCallback_StartEOL_TPMS_TestProcedure..C.3A.5C_ECU2.5CECU_Rivian_A1.5CTarget.5Crepo_projects.5CpRealEcu.5CcR_LATEST.5Cmake.5Coutput.5Cobjects.5CSwcApplTpms_Diag.,.-_DIAG__ReqCallback_StartEOL_TPMS_TestProcedure..C.3A.5C_ECU2.5CECU_Rivian_A1.5CTarget.5Crepo_projects.5CpRealEcu.5CcR_LATEST.5Cmake.5Coutput.5Cobjects.5CSwcApplTpms_Diag.
                        2888 	.align	2
                        2889 --_U8_RetVal	r27	local
                        2890 --_U8_TmpReq	2[sp]	local
                        2891 --_U8_TmpRes	3[sp]	local
                        2892 
                        2893 --_PS_MsgContext	r28	param
                        2894 
                        2895 	.data
                        2896 	.text
                        2897 	.align	2
                        2898 	.align	2
                        2899 ..gh.f.f.1.e.42:
                        2900 	.type	..gh.f.f.1.e.42,@object
                        2901 	.size	..gh.f.f.1.e.42,0
                        2902 	.global	_DIAG__ReqCallback_StopEOL_TPMS_TestProcedure..C.3A.5C_ECU2.5CECU_Rivian_A1.5CTarget.5Crepo_projects.5CpRealEcu.5CcR_LATEST.5Cmake.5Coutput.5Cobjects.5CSwcApplTpms_Diag.
                        2903 _DIAG__ReqCallback_StopEOL_TPMS_TestProcedure..C.3A.5C_ECU2.5CECU_Rivian_A1.5CTarget.5Crepo_projects.5CpRealEcu.5CcR_LATEST.5Cmake.5Coutput.5Cobjects.5CSwcApplTpms_Diag.:
                        2904 _DIAG__ReqCallback_StopEOL_TPMS_TestProcedure:
00000c0c 8007e130       2905 	prepare	{r26,r27,r28,r29,r31},0
00000c10 06e0           2906 	mov	r6,r28
00000c12 3d0600000000*  2907 	mov	_U16_RespLenght,r29
                        2908 --	    .bf
                        2909 .LDW49:
                        2910 --line1002
                        2911 ..lin.C.3A.5C_ECU2.5CECU_Rivian_A1.5CTarget.5Crepo_projects.5CpRealEcu.5CcR_LATEST.5Cmake.5Coutput.5Cobjects.5CSwcApplTpms_Diag.166::
                        2912 .LDWlin166:
00000c18 e68f0500       2913 	ld.hu	4[r6],r17
00000c1c 0192           2914 	mov	1,r18
00000c1e 1df0           2915 	mov	r29,ep
00000c20 3dd60400       2916 	movea	4,r29,r26

                                                                      Page 53
                                                              C:\Users\nhuliyap\AppData\Local\Temp\gh_0000ds81.s
00000c24 8493           2917 	sst.b	r18,4[ep]
00000c26 8004           2918 	sst.h	zero,0[ep]
00000c28 618a           2919 	cmp	1,r17
00000c2a 8a15*          2920 	bne	.L5314
                        2921 --line1005
                        2922 ..lin.C.3A.5C_ECU2.5CECU_Rivian_A1.5CTarget.5Crepo_projects.5CpRealEcu.5CcR_LATEST.5Cmake.5Coutput.5Cobjects.5CSwcApplTpms_Diag.167::
                        2923 .LDWlin167:
00000c2c 26f70100       2924 	ld.w	0[r6],ep
00000c30 00da           2925 	mov	0,r27
00000c32 6080           2926 	sld.bu	0[ep],r16
00000c34 e081           2927 	cmp	zero,r16
00000c36 fa05*          2928 	bne	.L5316
                        2929 --line1008
                        2930 ..lin.C.3A.5C_ECU2.5CECU_Rivian_A1.5CTarget.5Crepo_projects.5CpRealEcu.5CcR_LATEST.5Cmake.5Coutput.5Cobjects.5CSwcApplTpms_Diag.168::
                        2931 .LDWlin168:
                        2932 	jarl	_EOL_ResetLearnRoutine,lp
                        2932 <EXPANSION BEGIN>
                        2932 jarl22 _EOL_ResetLearnRoutine , lp 
00000c38 80ff0000*      2932 <EXPANSION END>
                        2933 --line1009
                        2934 ..lin.C.3A.5C_ECU2.5CECU_Rivian_A1.5CTarget.5Crepo_projects.5CpRealEcu.5CcR_LATEST.5Cmake.5Coutput.5Cobjects.5CSwcApplTpms_Diag.169::
                        2935 .LDWlin169:
00000c3c 017a           2936 	mov	1,r15
00000c3e 7d7f0000       2937 	st.h	r15,0[r29]
00000c42 e505*          2938 	br	.L5319
                        2939 .L5316:
                        2940 --line1014
                        2941 ..lin.C.3A.5C_ECU2.5CECU_Rivian_A1.5CTarget.5Crepo_projects.5CpRealEcu.5CcR_LATEST.5Cmake.5Coutput.5Cobjects.5CSwcApplTpms_Diag.170::
                        2942 .LDWlin170:
00000c44 20de3100       2943 	movea	49,zero,r27
00000c48 b505*          2944 	br	.L5319
                        2945 .L5314:
                        2946 --line1019
                        2947 ..lin.C.3A.5C_ECU2.5CECU_Rivian_A1.5CTarget.5Crepo_projects.5CpRealEcu.5CcR_LATEST.5Cmake.5Coutput.5Cobjects.5CSwcApplTpms_Diag.171::
                        2948 .LDWlin171:
00000c4a 20de1300       2949 	movea	19,zero,r27
                        2950 .L5319:
00000c4e 1cf0           2951 	mov	r28,ep
00000c50 05d5           2952 	sst.w	r26,8[ep]
00000c52 07ed           2953 	sst.w	r29,12[ep]
00000c54 1b50           2954 	mov	r27,r10
                        2955 --	    .ef
                        2956 .LDW59:
00000c56 4006ff30       2957 	dispose	0,{r26,r27,r28,r29,r31},[lp]
                        2958 ___ghs_eofn_DIAG__ReqCallback_StopEOL_TPMS_TestProcedure:
                        2959 	.type	_DIAG__ReqCallback_StopEOL_TPMS_TestProcedure,@function
                        2960 	.size	_DIAG__ReqCallback_StopEOL_TPMS_TestProcedure,.-_DIAG__ReqCallback_StopEOL_TPMS_TestProcedure
                        2961 	.type	_DIAG__ReqCallback_StopEOL_TPMS_TestProcedure..C.3A.5C_ECU2.5CECU_Rivian_A1.5CTarget.5Crepo_projects.5CpRealEcu.5CcR_LATEST.5Cmake.5Coutput.5Cobjects.5CSwcApplTpms_Diag.,@function
                        2962 	.size	_DIAG__ReqCallback_StopEOL_TPMS_TestProcedure..C.3A.5C_ECU2.5CECU_Rivian_A1.5CTarget.5Crepo_projects.5CpRealEcu.5CcR_LATEST.5Cmake.5Coutput.5Cobjects.5CSwcApplTpms_Diag.,.-_DIAG__ReqCallback_StopEOL_TPMS_TestProcedure..C.3A.5C_ECU2.5CECU_Rivian_A1.5CTarget.5Crepo_projects.5CpRealEcu.5CcR_LATEST.5Cmake.5Coutput.5Cobjects.5CSwcApplTpms_Diag.
                        2963 	.align	2
                        2964 --_U8_RetVal	r27	local
                        2965 
                        2966 --_PS_MsgContext	r28	param
                        2967 
                        2968 	.data
                        2969 	.text
                        2970 	.align	2
                        2971 	.align	2
                        2972 ..gh.f.f.1.e.43:
                        2973 	.type	..gh.f.f.1.e.43,@object
                        2974 	.size	..gh.f.f.1.e.43,0

                                                                      Page 54
                                                              C:\Users\nhuliyap\AppData\Local\Temp\gh_0000ds81.s
                        2975 	.global	_DIAG__ReqCallback_RequestResultsEOL_TPMS_TestProcedure..C.3A.5C_ECU2.5CECU_Rivian_A1.5CTarget.5Crepo_projects.5CpRealEcu.5CcR_LATEST.5Cmake.5Coutput.5Cobjects.5CSwcApplTpms_Diag.
                        2976 _DIAG__ReqCallback_RequestResultsEOL_TPMS_TestProcedure..C.3A.5C_ECU2.5CECU_Rivian_A1.5CTarget.5Crepo_projects.5CpRealEcu.5CcR_LATEST.5Cmake.5Coutput.5Cobjects.5CSwcApplTpms_Diag.:
                        2977 _DIAG__ReqCallback_RequestResultsEOL_TPMS_TestProcedure:
00000c5a 8007e130       2978 	prepare	{r26,r27,r28,r29,r31},0
00000c5e 3d0600000000*  2979 	mov	_U16_RespLenght,r29
                        2980 --	    .bf
                        2981 .LDW69:
                        2982 --line1034
                        2983 ..lin.C.3A.5C_ECU2.5CECU_Rivian_A1.5CTarget.5Crepo_projects.5CpRealEcu.5CcR_LATEST.5Cmake.5Coutput.5Cobjects.5CSwcApplTpms_Diag.172::
                        2984 .LDWlin172:
00000c64 e6970500       2985 	ld.hu	4[r6],r18
00000c68 1df0           2986 	mov	r29,ep
00000c6a 8004           2987 	sst.h	zero,0[ep]
00000c6c 8403           2988 	sst.b	zero,4[ep]
00000c6e e091           2989 	cmp	zero,r18
00000c70 ba25*          2990 	bne	.L5442
00000c72 06d8           2991 	mov	r6,r27
00000c74 3de60400       2992 	movea	4,r29,r28
00000c78 12d0           2993 	mov	r18,r26
                        2994 --line1037
                        2995 ..lin.C.3A.5C_ECU2.5CECU_Rivian_A1.5CTarget.5Crepo_projects.5CpRealEcu.5CcR_LATEST.5Cmake.5Coutput.5Cobjects.5CSwcApplTpms_Diag.173::
                        2996 .LDWlin173:
00000c7a 1c30           2997 	mov	r28,r6
                        2998 	jarl	_DIAG__EOLRoutineReqResponse,lp
                        2998 <EXPANSION BEGIN>
                        2998 jarl22 _DIAG__EOLRoutineReqResponse , lp 
00000c7c bfff08ff*      2998 <EXPANSION END>
                        2999 --line1039
                        3000 ..lin.C.3A.5C_ECU2.5CECU_Rivian_A1.5CTarget.5Crepo_projects.5CpRealEcu.5CcR_LATEST.5Cmake.5Coutput.5Cobjects.5CSwcApplTpms_Diag.174::
                        3001 .LDWlin174:
00000c80 1a30           3002 	mov	r26,r6
                        3003 	jarl	_GETucReifendruckPD,lp
                        3003 <EXPANSION BEGIN>
                        3003 jarl22 _GETucReifendruckPD , lp 
00000c82 80ff0000*      3003 <EXPANSION END>
00000c86 5d570500       3004 	st.b	r10,5[r29]
                        3005 --line1040
                        3006 ..lin.C.3A.5C_ECU2.5CECU_Rivian_A1.5CTarget.5Crepo_projects.5CpRealEcu.5CcR_LATEST.5Cmake.5Coutput.5Cobjects.5CSwcApplTpms_Diag.175::
                        3007 .LDWlin175:
00000c8a 0132           3008 	mov	1,r6
                        3009 	jarl	_GETucReifendruckPD,lp
                        3009 <EXPANSION BEGIN>
                        3009 jarl22 _GETucReifendruckPD , lp 
00000c8c 80ff0000*      3009 <EXPANSION END>
00000c90 5d570600       3010 	st.b	r10,6[r29]
                        3011 --line1041
                        3012 ..lin.C.3A.5C_ECU2.5CECU_Rivian_A1.5CTarget.5Crepo_projects.5CpRealEcu.5CcR_LATEST.5Cmake.5Coutput.5Cobjects.5CSwcApplTpms_Diag.176::
                        3013 .LDWlin176:
00000c94 0232           3014 	mov	2,r6
                        3015 	jarl	_GETucReifendruckPD,lp
                        3015 <EXPANSION BEGIN>
                        3015 jarl22 _GETucReifendruckPD , lp 
00000c96 80ff0000*      3015 <EXPANSION END>
00000c9a 5d570700       3016 	st.b	r10,7[r29]
                        3017 --line1042
                        3018 ..lin.C.3A.5C_ECU2.5CECU_Rivian_A1.5CTarget.5Crepo_projects.5CpRealEcu.5CcR_LATEST.5Cmake.5Coutput.5Cobjects.5CSwcApplTpms_Diag.177::
                        3019 .LDWlin177:
00000c9e 0332           3020 	mov	3,r6
                        3021 	jarl	_GETucReifendruckPD,lp
                        3021 <EXPANSION BEGIN>
                        3021 jarl22 _GETucReifendruckPD , lp 

                                                                      Page 55
                                                              C:\Users\nhuliyap\AppData\Local\Temp\gh_0000ds81.s
00000ca0 80ff0000*      3021 <EXPANSION END>
00000ca4 1df0           3022 	mov	r29,ep
                        3023 --line1046
                        3024 ..lin.C.3A.5C_ECU2.5CECU_Rivian_A1.5CTarget.5Crepo_projects.5CpRealEcu.5CcR_LATEST.5Cmake.5Coutput.5Cobjects.5CSwcApplTpms_Diag.178::
                        3025 .LDWlin178:
00000ca6 058a           3026 	mov	5,r17
00000ca8 8853           3027 	sst.b	r10,8[ep]
00000caa 7be70900       3028 	st.w	r28,8[r27]
00000cae 808c           3029 	sst.h	r17,0[ep]
00000cb0 7bef0d00       3030 	st.w	r29,12[r27]
00000cb4 b505*          3031 	br	.L5444
                        3032 .L5442:
                        3033 --line1051
                        3034 ..lin.C.3A.5C_ECU2.5CECU_Rivian_A1.5CTarget.5Crepo_projects.5CpRealEcu.5CcR_LATEST.5Cmake.5Coutput.5Cobjects.5CSwcApplTpms_Diag.179::
                        3035 .LDWlin179:
00000cb6 20d61300       3036 	movea	19,zero,r26
                        3037 .L5444:
00000cba 1a50           3038 	mov	r26,r10
                        3039 --	    .ef
                        3040 .LDW79:
00000cbc 4006ff30       3041 	dispose	0,{r26,r27,r28,r29,r31},[lp]
                        3042 ___ghs_eofn_DIAG__ReqCallback_RequestResultsEOL_TPMS_TestProcedure:
                        3043 	.type	_DIAG__ReqCallback_RequestResultsEOL_TPMS_TestProcedure,@function
                        3044 	.size	_DIAG__ReqCallback_RequestResultsEOL_TPMS_TestProcedure,.-_DIAG__ReqCallback_RequestResultsEOL_TPMS_TestProcedure
                        3045 	.type	_DIAG__ReqCallback_RequestResultsEOL_TPMS_TestProcedure..C.3A.5C_ECU2.5CECU_Rivian_A1.5CTarget.5Crepo_projects.5CpRealEcu.5CcR_LATEST.5Cmake.5Coutput.5Cobjects.5CSwcApplTpms_Diag.,@function
                        3046 	.size	_DIAG__ReqCallback_RequestResultsEOL_TPMS_TestProcedure..C.3A.5C_ECU2.5CECU_Rivian_A1.5CTarget.5Crepo_projects.5CpRealEcu.5CcR_LATEST.5Cmake.5Coutput.5Cobjects.5CSwcApplTpms_Diag.,.-_DIAG__ReqCallback_RequestResultsEOL_TPMS_TestProcedure..C.3A.5C_ECU2.5CECU_Rivian_A1.5CTarget.5Crepo_projects.5CpRealEcu.5CcR_LATEST.5Cmake.5Coutput.5Cobjects.5CSwcApplTpms_Diag.
                        3047 	.align	2
                        3048 --_U8_RetVal	r26	local
                        3049 
                        3050 --_PS_MsgContext	r27	param
                        3051 
                        3052 	.data
                        3053 	.text
                        3054 	.align	2
                        3055 	.align	2
                        3056 ..gh.f.f.1.e.44:
                        3057 	.type	..gh.f.f.1.e.44,@object
                        3058 	.size	..gh.f.f.1.e.44,0
                        3059 	.global	_HufIf_DiagReqCallback
                        3060 _HufIf_DiagReqCallback:
00000cc0 8007e110       3061 	prepare	{r27,r28,r29,r31},0
00000cc4 06e0           3062 	mov	r6,r28
00000cc6 bc00           3063 	sxb	r28
00000cc8 07d8           3064 	mov	r7,r27
                        3065 --	    .bf
                        3066 .LDW89:
00000cca 0092           3067 	mov	0,r18
                        3068 .L5542:
00000ccc 12f0           3069 	mov	r18,ep
00000cce c3f2           3070 	shl	3,ep
00000cd0 310600000000*  3071 	mov	_DIAG__AS_ReqHandlerArray,r17
00000cd6 d1f1           3072 	add	r17,ep
00000cd8 0083           3073 	sld.b	0[ep],r16
00000cda f0e1           3074 	cmp	r16,r28
00000cdc 9a0d*          3075 	bne	.L5543
                        3076 --line1308
                        3077 ..lin.C.3A.5C_ECU2.5CECU_Rivian_A1.5CTarget.5Crepo_projects.5CpRealEcu.5CcR_LATEST.5Cmake.5Coutput.5Cobjects.5CSwcApplTpms_Diag.180::
                        3078 .LDWlin180:
00000cde 02ed           3079 	sld.w	4[ep],r29
00000ce0 e0e9           3080 	cmp	zero,r29
00000ce2 a20d*          3081 	be	.L5551

                                                                      Page 56
                                                              C:\Users\nhuliyap\AppData\Local\Temp\gh_0000ds81.s
                        3082 --line1310
                        3083 ..lin.C.3A.5C_ECU2.5CECU_Rivian_A1.5CTarget.5Crepo_projects.5CpRealEcu.5CcR_LATEST.5Cmake.5Coutput.5Cobjects.5CSwcApplTpms_Diag.181::
                        3084 .LDWlin181:
00000ce4 0730           3085 	mov	r7,r6
00000ce6 fdc760f9       3086 	jarl	[r29],lp
00000cea 0ae8           3087 	mov	r10,r29
00000cec f505*          3088 	br	.L5552
                        3089 .L5543:
                        3090 --line1304
                        3091 ..lin.C.3A.5C_ECU2.5CECU_Rivian_A1.5CTarget.5Crepo_projects.5CpRealEcu.5CcR_LATEST.5Cmake.5Coutput.5Cobjects.5CSwcApplTpms_Diag.182::
                        3092 .LDWlin182:
00000cee 4192           3093 	add	1,r18
00000cf0 1206deff       3094 	addi	-34,r18,zero
00000cf4 c9ed*          3095 	bnl	.L5542
                        3096 .L5551:
                        3097 --line1324
                        3098 ..lin.C.3A.5C_ECU2.5CECU_Rivian_A1.5CTarget.5Crepo_projects.5CpRealEcu.5CcR_LATEST.5Cmake.5Coutput.5Cobjects.5CSwcApplTpms_Diag.183::
                        3099 .LDWlin183:
00000cf6 20ee1300       3100 	movea	19,zero,r29
                        3101 .L5552:
00000cfa 1c30           3102 	mov	r28,r6
00000cfc 1b38           3103 	mov	r27,r7
00000cfe 1d40           3104 	mov	r29,r8
                        3105 	jarl	_ClientIf_Debug_DiagReqCallback,lp
                        3105 <EXPANSION BEGIN>
                        3105 jarl22 _ClientIf_Debug_DiagReqCallback , lp 
00000d00 80ff0000*      3105 <EXPANSION END>
                        3106 --line1332
                        3107 ..lin.C.3A.5C_ECU2.5CECU_Rivian_A1.5CTarget.5Crepo_projects.5CpRealEcu.5CcR_LATEST.5Cmake.5Coutput.5Cobjects.5CSwcApplTpms_Diag.184::
                        3108 .LDWlin184:
00000d04 1d50           3109 	mov	r29,r10
                        3110 --	    .ef
                        3111 .LDW99:
00000d06 4006ff10       3112 	dispose	0,{r27,r28,r29,r31},[lp]
                        3113 	.global	___ghs_eofn_HufIf_DiagReqCallback
                        3114 ___ghs_eofn_HufIf_DiagReqCallback:
                        3115 	.type	_HufIf_DiagReqCallback,@function
                        3116 	.size	_HufIf_DiagReqCallback,.-_HufIf_DiagReqCallback
                        3117 	.align	2
                        3118 --_U8_RetVal	r29	local
                        3119 --_U8_Index	r18	local
                        3120 
                        3121 --_eDiagRequest	r28	param
                        3122 --_PS_MsgContext	r27	param
                        3123 
                        3124 	.section ".bss","awb"
                        3125 .L5653:
                        3126 	.type	.L5653,@object
                        3127 	.size	.L5653,0
                        3128 	.data
                        3129 	.text
                        3130 	.align	2
                        3131 --_tCDA	_tCDA	import
                        3132 --_tWAPar	_tWAPar	import
                        3133 --_AU8_ResData	_AU8_ResData	static
                        3134 --_U16_RespLenght	_U16_RespLenght	static
                        3135 --_DIAG__AS_ReqHandlerArray	_DIAG__AS_ReqHandlerArray	static
                        3136 
                        3137 	.data
                        3138 	.ghsnote version,17
                        3139 	.ghsnote tools,3

                                                                      Page 57
                                                              C:\Users\nhuliyap\AppData\Local\Temp\gh_0000ds81.s
                        3140 	.ghsnote options,144
                        3141 	.text
                        3142 	.align	2
                        3143 ..eof.C.3A.5C_ECU2.5CECU_Rivian_A1.5CTarget.5Crepo_projects.5CpRealEcu.5CcR_LATEST.5Cmake.5Coutput.5Cobjects.5CSwcApplTpms_Diag...43.3A.5C_ECU2.5CECU_Rivian_A1.5CTarget.5Crepo_projects.5CpRealEcu.5CcR_LATEST.5Cmake..65044B02..0::
                        3144 	.section	.debug_info
                        3145 .Ldw_begin:
00000000 3b320000       3146 	.word	.Ldw_end-.Ldw_begin-4
00000004 0200           3147 	.byte	2,0
00000006 00000000*      3148 	.word	.Ldw_abbr_begin
0000000a 04             3149 	.byte	4
                        3150 	.section	.debug_abbrev
                        3151 .Ldw_abbr_begin:
                        3152 	.section	.debug_info
0000000b 01             3153 	.byte	1
0000000c 00000000*      3154 	.word	..bof.C.3A.5C_ECU2.5CECU_Rivian_A1.5CTarget.5Crepo_projects.5CpRealEcu.5CcR_LATEST.5Cmake.5Coutput.5Cobjects.5CSwcApplTpms_Diag...43.3A.5C_ECU2.5CECU_Rivian_A1.5CTarget.5Crepo_projects.5CpRealEcu.5CcR_LATEST.5Cmake..65044B02..0
00000010 00000000*      3155 	.word	..eof.C.3A.5C_ECU2.5CECU_Rivian_A1.5CTarget.5Crepo_projects.5CpRealEcu.5CcR_LATEST.5Cmake.5Coutput.5Cobjects.5CSwcApplTpms_Diag...43.3A.5C_ECU2.5CECU_Rivian_A1.5CTarget.5Crepo_projects.5CpRealEcu.5CcR_LATEST.5Cmake..65044B02..0
00000014 2e2e2f736f75   3156 	.strz	"../source/SwcApplTpms/SwcApplTpms_Diag.c"
0000001a 7263652f5377 
00000020 634170706c54 
00000026 706d732f5377 
0000002c 634170706c54 
00000032 706d735f4469 
00000038 61672e6300 
0000003d 433a5c5f4543   3157 	.strz	"C:\\_ECU2\\ECU_Rivian_A1\\Target\\repo_projects\\pRealEcu\\cR_LATEST\\make"
00000043 55325c454355 
00000049 5f5269766961 
0000004f 6e5f41315c54 
00000055 61726765745c 
0000005b 7265706f5f70 
00000061 726f6a656374 
00000067 735c70526561 
0000006d 6c4563755c63 
00000073 525f4c415445 
00000079 53545c6d616b 
0000007f 6500 
00000081 474853204320   3158 	.strz	"GHS C 2015.1.7 [dual]"
00000087 323031352e31 
0000008d 2e37205b6475 
00000093 616c5d00 
00000097 0100           3159 	.byte	1,0
00000099 00000000*      3160 	.word	.Ldw_line_begin
0000009d 00000000*      3161 	.word	.Ldw_macinfo_begin
000000a1 00             3162 	.byte	0
                        3163 
                        3164 	.section	.debug_abbrev
00000000 01             3165 	.byte	1
00000001 11             3166 	.byte	17
00000002 01             3167 	.byte	1
00000003 1101           3168 	.byte	17,1
00000005 1201           3169 	.byte	18,1
00000007 0308           3170 	.byte	3,8
00000009 1b08           3171 	.byte	27,8
0000000b 2508           3172 	.byte	37,8
0000000d 1305           3173 	.byte	19,5
0000000f 1006           3174 	.byte	16,6
00000011 4306           3175 	.byte	67,6
00000013 420b           3176 	.byte	66,11
00000015 0000           3177 	.byte	0,0
                        3178 
                        3179 	.section	.debug_line
                        3180 .Ldw_line_begin:

                                                                      Page 58
                                                              C:\Users\nhuliyap\AppData\Local\Temp\gh_0000ds81.s
00000000 35120000       3181 	.word	.Ldw_line_end-.Ldw_line_begin-4
00000004 0200           3182 	.byte	2,0
00000006 00000000*      3183 	.word	.Ldw_lpro_end-.Ldw_lpro_begin
                        3184 .Ldw_lpro_begin:
0000000a 01             3185 	.byte	1
0000000b 00             3186 	.byte	0
0000000c 00             3187 	.byte	0
0000000d 04             3188 	.byte	4
0000000e 0a             3189 	.byte	10
0000000f 000101         3190 	.byte	0,1,1
00000012 010100         3191 	.byte	1,1,0
00000015 000001         3192 	.byte	0,0,1
00000018 00             3193 	.byte	0
00000019 2e2e2f736f75   3194 	.strz	"../source/SwcApplTpms/SwcApplTpms_Diag.c"
0000001f 7263652f5377 
00000025 634170706c54 
0000002b 706d732f5377 
00000031 634170706c54 
00000037 706d735f4469 
0000003d 61672e6300 
00000042 000000         3195 	.byte	0,0,0
00000045 2e2e2f736f75   3196 	.strz	"../source/common/Std_Types.hpp"
0000004b 7263652f636f 
00000051 6d6d6f6e2f53 
00000057 74645f547970 
0000005d 65732e687070 
00000063 00 
00000064 000000         3197 	.byte	0,0,0
00000067 2e2e2f736f75   3198 	.strz	"../source/common/Platform_Types.hpp"
0000006d 7263652f636f 
00000073 6d6d6f6e2f50 
00000079 6c6174666f72 
0000007f 6d5f54797065 
00000085 732e68707000 
0000008b 000000         3199 	.byte	0,0,0
0000008e 2e2e2f736f75   3200 	.strz	"../source/common/Compiler.hpp"
00000094 7263652f636f 
0000009a 6d6d6f6e2f43 
000000a0 6f6d70696c65 
000000a6 722e68707000 
000000ac 000000         3201 	.byte	0,0,0
000000af 2e2e2f736f75   3202 	.strz	"../source/ProjectCompiler/Compiler_Cfg.hpp"
000000b5 7263652f5072 
000000bb 6f6a65637443 
000000c1 6f6d70696c65 
000000c7 722f436f6d70 
000000cd 696c65725f43 
000000d3 66672e687070 
000000d9 00 
000000da 000000         3203 	.byte	0,0,0
000000dd 2e2e2f736f75   3204 	.strz	"../source/ProjectCompiler/CompilerCfg_SwcServiceOs.hpp"
000000e3 7263652f5072 
000000e9 6f6a65637443 
000000ef 6f6d70696c65 
000000f5 722f436f6d70 
000000fb 696c65724366 
00000101 675f53776353 
00000107 657276696365 
0000010d 4f732e687070 
00000113 00 
00000114 000000         3205 	.byte	0,0,0

                                                                      Page 59
                                                              C:\Users\nhuliyap\AppData\Local\Temp\gh_0000ds81.s
00000117 2e2e2f736f75   3206 	.strz	"../source/SwcApplTpms/iTpms_Interface.hpp"
0000011d 7263652f5377 
00000123 634170706c54 
00000129 706d732f6954 
0000012f 706d735f496e 
00000135 746572666163 
0000013b 652e68707000 
00000141 000000         3207 	.byte	0,0,0
00000144 2e2e2f736f75   3208 	.strz	"../source/SwcApplTpms/Tpms_Rte_Data_Type.hpp"
0000014a 7263652f5377 
00000150 634170706c54 
00000156 706d732f5470 
0000015c 6d735f527465 
00000162 5f446174615f 
00000168 547970652e68 
0000016e 707000 
00000171 000000         3209 	.byte	0,0,0
00000174 2e2e2f736f75   3210 	.strz	"../source/McalMcu/Types.hpp"
0000017a 7263652f4d63 
00000180 616c4d63752f 
00000186 54797065732e 
0000018c 68707000 
00000190 000000         3211 	.byte	0,0,0
00000193 2e2e2f736f75   3212 	.strz	"../source/SwcApplTpms/SwcApplTpms_Rte.hpp"
00000199 7263652f5377 
0000019f 634170706c54 
000001a5 706d732f5377 
000001ab 634170706c54 
000001b1 706d735f5274 
000001b7 652e68707000 
000001bd 000000         3213 	.byte	0,0,0
000001c0 2e2e2f736f75   3214 	.strz	"../source/SwcApplTpms/SwcApplTpms_Rte_Type.hpp"
000001c6 7263652f5377 
000001cc 634170706c54 
000001d2 706d732f5377 
000001d8 634170706c54 
000001de 706d735f5274 
000001e4 655f54797065 
000001ea 2e68707000 
000001ef 000000         3215 	.byte	0,0,0
000001f2 2e2e2f736f75   3216 	.strz	"../source/SwcApplTpms/global.hpp"
000001f8 7263652f5377 
000001fe 634170706c54 
00000204 706d732f676c 
0000020a 6f62616c2e68 
00000210 707000 
00000213 000000         3217 	.byte	0,0,0
00000216 2e2e2f736f75   3218 	.strz	"../source/SwcApplTpms/state_fzzX.hpp"
0000021c 7263652f5377 
00000222 634170706c54 
00000228 706d732f7374 
0000022e 6174655f667a 
00000234 7a582e687070 
0000023a 00 
0000023b 000000         3219 	.byte	0,0,0
0000023e 2e2e2f736f75   3220 	.strz	"../source/SwcApplTpms/tss_stdx.hpp"
00000244 7263652f5377 
0000024a 634170706c54 
00000250 706d732f7473 
00000256 735f73746478 
0000025c 2e68707000 

                                                                      Page 60
                                                              C:\Users\nhuliyap\AppData\Local\Temp\gh_0000ds81.s
00000261 000000         3221 	.byte	0,0,0
00000264 2e2e2f736f75   3222 	.strz	"../source/ProjectCfg/CfgSwcApplTpms.hpp"
0000026a 7263652f5072 
00000270 6f6a65637443 
00000276 66672f436667 
0000027c 537763417070 
00000282 6c54706d732e 
00000288 68707000 
0000028c 000000         3223 	.byte	0,0,0
0000028f 2e2e2f736f75   3224 	.strz	"../source/SwcApplTpms/state_bzx.hpp"
00000295 7263652f5377 
0000029b 634170706c54 
000002a1 706d732f7374 
000002a7 6174655f627a 
000002ad 782e68707000 
000002b3 000000         3225 	.byte	0,0,0
000002b6 2e2e2f736f75   3226 	.strz	"../source/SwcApplTpms/procdatx.hpp"
000002bc 7263652f5377 
000002c2 634170706c54 
000002c8 706d732f7072 
000002ce 6f6364617478 
000002d4 2e68707000 
000002d9 000000         3227 	.byte	0,0,0
000002dc 2e2e2f736f75   3228 	.strz	"../source/SwcApplTpms/cd_decoder_x.hpp"
000002e2 7263652f5377 
000002e8 634170706c54 
000002ee 706d732f6364 
000002f4 5f6465636f64 
000002fa 65725f782e68 
00000300 707000 
00000303 000000         3229 	.byte	0,0,0
00000306 2e2e2f736f75   3230 	.strz	"../source/SwcApplTpms/WallocX.hpp"
0000030c 7263652f5377 
00000312 634170706c54 
00000318 706d732f5761 
0000031e 6c6c6f63582e 
00000324 68707000 
00000328 000000         3231 	.byte	0,0,0
0000032b 2e2e2f736f75   3232 	.strz	"../source/SwcApplTpms/WnTypePar.hpp"
00000331 7263652f5377 
00000337 634170706c54 
0000033d 706d732f576e 
00000343 547970655061 
00000349 722e68707000 
0000034f 000000         3233 	.byte	0,0,0
00000352 2e2e2f736f75   3234 	.strz	"../source/SwcApplTpms/USWarn.hpp"
00000358 7263652f5377 
0000035e 634170706c54 
00000364 706d732f5553 
0000036a 5761726e2e68 
00000370 707000 
00000373 000000         3235 	.byte	0,0,0
00000376 2e2e2f736f75   3236 	.strz	"../source/SwcApplTpms/USWarnX.hpp"
0000037c 7263652f5377 
00000382 634170706c54 
00000388 706d732f5553 
0000038e 5761726e582e 
00000394 68707000 
00000398 000000         3237 	.byte	0,0,0
0000039b 2e2e2f736f75   3238 	.strz	"../source/SwcApplTpms/USCS.hpp"
000003a1 7263652f5377 

                                                                      Page 61
                                                              C:\Users\nhuliyap\AppData\Local\Temp\gh_0000ds81.s
000003a7 634170706c54 
000003ad 706d732f5553 
000003b3 43532e687070 
000003b9 00 
000003ba 000000         3239 	.byte	0,0,0
000003bd 2e2e2f736f75   3240 	.strz	"../source/ProjectCfg/SwcApplTpms_NvM_If.hpp"
000003c3 7263652f5072 
000003c9 6f6a65637443 
000003cf 66672f537763 
000003d5 4170706c5470 
000003db 6d735f4e764d 
000003e1 5f49662e6870 
000003e7 7000 
000003e9 000000         3241 	.byte	0,0,0
000003ec 2e2e2f736f75   3242 	.strz	"../source/SwcApplTpms/eeiface.hpp"
000003f2 7263652f5377 
000003f8 634170706c54 
000003fe 706d732f6565 
00000404 69666163652e 
0000040a 68707000 
0000040e 000000         3243 	.byte	0,0,0
00000411 2e2e2f736f75   3244 	.strz	"../source/SwcApplTpms/calibrX.hpp"
00000417 7263652f5377 
0000041d 634170706c54 
00000423 706d732f6361 
00000429 6c696272582e 
0000042f 68707000 
00000433 000000         3245 	.byte	0,0,0
00000436 2e2e2f736f75   3246 	.strz	"../source/SwcApplTpms/Walloc_IF.hpp"
0000043c 7263652f5377 
00000442 634170706c54 
00000448 706d732f5761 
0000044e 6c6c6f635f49 
00000454 462e68707000 
0000045a 000000         3247 	.byte	0,0,0
0000045d 2e2e2f736f75   3248 	.strz	"../source/SwcApplTpms/walloc.hpp"
00000463 7263652f5377 
00000469 634170706c54 
0000046f 706d732f7761 
00000475 6c6c6f632e68 
0000047b 707000 
0000047e 000000         3249 	.byte	0,0,0
00000481 2e2e2f736f75   3250 	.strz	"../source/SwcApplTpms/SwcApplTpms_LearnEOL.hpp"
00000487 7263652f5377 
0000048d 634170706c54 
00000493 706d732f5377 
00000499 634170706c54 
0000049f 706d735f4c65 
000004a5 61726e454f4c 
000004ab 2e68707000 
000004b0 000000         3251 	.byte	0,0,0
000004b3 00             3252 	.byte	0
                        3253 .Ldw_lpro_end:
                        3254 	.section	.debug_macinfo
                        3255 .Ldw_macinfo_begin:
                        3256 	.section	.debug_frame
                        3257 .LDW_4c4f988:
00000000 00000000*      3258 	.word	.LDW_unq_2-.LDW_unq_1
                        3259 .LDW_unq_1:
00000004 ffffffff       3260 	.byte	255,255,255,255
00000008 01             3261 	.byte	1

                                                                      Page 62
                                                              C:\Users\nhuliyap\AppData\Local\Temp\gh_0000ds81.s
00000009 00             3262 	.byte	0
0000000a 01             3263 	.byte	1
0000000b 01             3264 	.byte	1
0000000c 1f             3265 	.byte	31
0000000d 0c             3266 	.byte	12
0000000e 03             3267 	.byte	3
0000000f 00             3268 	.byte	0
00000010 07             3269 	.byte	7
00000011 00             3270 	.byte	0
00000012 07             3271 	.byte	7
00000013 01             3272 	.byte	1
00000014 07             3273 	.byte	7
00000015 02             3274 	.byte	2
00000016 07             3275 	.byte	7
00000017 03             3276 	.byte	3
00000018 07             3277 	.byte	7
00000019 04             3278 	.byte	4
0000001a 07             3279 	.byte	7
0000001b 05             3280 	.byte	5
0000001c 07             3281 	.byte	7
0000001d 06             3282 	.byte	6
0000001e 07             3283 	.byte	7
0000001f 07             3284 	.byte	7
00000020 07             3285 	.byte	7
00000021 08             3286 	.byte	8
00000022 07             3287 	.byte	7
00000023 09             3288 	.byte	9
00000024 07             3289 	.byte	7
00000025 0a             3290 	.byte	10
00000026 07             3291 	.byte	7
00000027 0b             3292 	.byte	11
00000028 07             3293 	.byte	7
00000029 0c             3294 	.byte	12
0000002a 07             3295 	.byte	7
0000002b 0d             3296 	.byte	13
0000002c 07             3297 	.byte	7
0000002d 0e             3298 	.byte	14
0000002e 07             3299 	.byte	7
0000002f 0f             3300 	.byte	15
00000030 07             3301 	.byte	7
00000031 10             3302 	.byte	16
00000032 07             3303 	.byte	7
00000033 11             3304 	.byte	17
00000034 07             3305 	.byte	7
00000035 12             3306 	.byte	18
00000036 07             3307 	.byte	7
00000037 13             3308 	.byte	19
00000038 08             3309 	.byte	8
00000039 14             3310 	.byte	20
0000003a 08             3311 	.byte	8
0000003b 15             3312 	.byte	21
0000003c 08             3313 	.byte	8
0000003d 16             3314 	.byte	22
0000003e 08             3315 	.byte	8
0000003f 17             3316 	.byte	23
00000040 08             3317 	.byte	8
00000041 18             3318 	.byte	24
00000042 08             3319 	.byte	8
00000043 19             3320 	.byte	25
00000044 08             3321 	.byte	8
00000045 1a             3322 	.byte	26

                                                                      Page 63
                                                              C:\Users\nhuliyap\AppData\Local\Temp\gh_0000ds81.s
00000046 08             3323 	.byte	8
00000047 1b             3324 	.byte	27
00000048 08             3325 	.byte	8
00000049 1c             3326 	.byte	28
0000004a 08             3327 	.byte	8
0000004b 1d             3328 	.byte	29
0000004c 07             3329 	.byte	7
0000004d 1e             3330 	.byte	30
0000004e 08             3331 	.byte	8
0000004f 1f             3332 	.byte	31
00000050 07             3333 	.byte	7
00000051 20             3334 	.byte	32
00000052 07             3335 	.byte	7
00000053 21             3336 	.byte	33
00000054 07             3337 	.byte	7
00000055 22             3338 	.byte	34
00000056 07             3339 	.byte	7
00000057 23             3340 	.byte	35
00000058 07             3341 	.byte	7
00000059 24             3342 	.byte	36
0000005a 07             3343 	.byte	7
0000005b 25             3344 	.byte	37
0000005c 07             3345 	.byte	7
0000005d 26             3346 	.byte	38
0000005e 07             3347 	.byte	7
0000005f 27             3348 	.byte	39
00000060 07             3349 	.byte	7
00000061 28             3350 	.byte	40
00000062 07             3351 	.byte	7
00000063 29             3352 	.byte	41
00000064 07             3353 	.byte	7
00000065 2a             3354 	.byte	42
00000066 07             3355 	.byte	7
00000067 2b             3356 	.byte	43
00000068 07             3357 	.byte	7
00000069 2c             3358 	.byte	44
0000006a 07             3359 	.byte	7
0000006b 2d             3360 	.byte	45
0000006c 07             3361 	.byte	7
0000006d 2e             3362 	.byte	46
0000006e 07             3363 	.byte	7
0000006f 2f             3364 	.byte	47
00000070 07             3365 	.byte	7
00000071 30             3366 	.byte	48
00000072 07             3367 	.byte	7
00000073 31             3368 	.byte	49
00000074 07             3369 	.byte	7
00000075 32             3370 	.byte	50
00000076 07             3371 	.byte	7
00000077 33             3372 	.byte	51
00000078 07             3373 	.byte	7
00000079 34             3374 	.byte	52
0000007a 07             3375 	.byte	7
0000007b 35             3376 	.byte	53
0000007c 07             3377 	.byte	7
0000007d 36             3378 	.byte	54
0000007e 07             3379 	.byte	7
0000007f 37             3380 	.byte	55
00000080 07             3381 	.byte	7
00000081 38             3382 	.byte	56
00000082 07             3383 	.byte	7

                                                                      Page 64
                                                              C:\Users\nhuliyap\AppData\Local\Temp\gh_0000ds81.s
00000083 39             3384 	.byte	57
00000084 07             3385 	.byte	7
00000085 3a             3386 	.byte	58
00000086 07             3387 	.byte	7
00000087 3b             3388 	.byte	59
00000088 07             3389 	.byte	7
00000089 3c             3390 	.byte	60
0000008a 07             3391 	.byte	7
0000008b 3d             3392 	.byte	61
0000008c 07             3393 	.byte	7
0000008d 3e             3394 	.byte	62
0000008e 07             3395 	.byte	7
0000008f 3f             3396 	.byte	63
                        3397 .LDW_unq_2:
                        3398 	.section	.debug_info
                        3399 .LDW_4876ee0:
000000a2 25             3400 	.byte	37
000000a3 756e7369676e   3401 	.strz	"unsigned char"
000000a9 656420636861 
000000af 7200 
000000b1 08             3402 	.byte	8
000000b2 01             3403 	.byte	1
                        3404 
                        3405 	.section	.debug_abbrev
00000017 25             3406 	.byte	37
00000018 24             3407 	.byte	36
00000019 00             3408 	.byte	0
0000001a 0308           3409 	.byte	3,8
0000001c 3e0b           3410 	.byte	62,11
0000001e 0b0b           3411 	.byte	11,11
00000020 0000           3412 	.byte	0,0
                        3413 
                        3414 	.section	.debug_info
                        3415 .LDW_48771f0:
000000b3 2f             3416 	.byte	47
000000b4 00000000*      3417 	.word	.LDW_4c43968
                        3418 
                        3419 	.section	.debug_abbrev
00000022 2f             3420 	.byte	47
00000023 0f             3421 	.byte	15
00000024 00             3422 	.byte	0
00000025 4910           3423 	.byte	73,16
00000027 0000           3424 	.byte	0,0
                        3425 
                        3426 	.section	.debug_info
                        3427 .LDW_4877260:
000000b8 44             3428 	.byte	68
000000b9 00000000*      3429 	.word	.LDW_4c438b8
000000bd 01             3430 	.byte	1
                        3431 
                        3432 	.section	.debug_abbrev
00000029 44             3433 	.byte	68
0000002a 15             3434 	.byte	21
0000002b 01             3435 	.byte	1
0000002c 4910           3436 	.byte	73,16
0000002e 270c           3437 	.byte	39,12
00000030 0000           3438 	.byte	0,0
                        3439 
                        3440 	.section	.debug_info
                        3441 .LDW_4871b50:
000000be 12             3442 	.byte	18

                                                                      Page 65
                                                              C:\Users\nhuliyap\AppData\Local\Temp\gh_0000ds81.s
000000bf 00000000*      3443 	.word	.LDW_48771f0
000000c3 00             3444 	.byte	0
                        3445 
                        3446 	.section	.debug_abbrev
00000032 12             3447 	.byte	18
00000033 05             3448 	.byte	5
00000034 00             3449 	.byte	0
00000035 4910           3450 	.byte	73,16
00000037 4b0c           3451 	.byte	75,12
00000039 0000           3452 	.byte	0,0
                        3453 
                        3454 	.section	.debug_info
000000c4 00             3455 	.byte	0
                        3456 
                        3457 .LDW_4877110:
000000c5 44             3458 	.byte	68
000000c6 00000000*      3459 	.word	.LDW_4c438b8
000000ca 01             3460 	.byte	1
                        3461 
                        3462 .LDW_4871a90:
000000cb 12             3463 	.byte	18
000000cc 00000000*      3464 	.word	.LDW_48771f0
000000d0 00             3465 	.byte	0
                        3466 
000000d1 00             3467 	.byte	0
                        3468 
                        3469 .LDW_4877228:
000000d2 44             3470 	.byte	68
000000d3 00000000*      3471 	.word	.LDW_4c438b8
000000d7 01             3472 	.byte	1
                        3473 
                        3474 .LDW_4871b80:
000000d8 12             3475 	.byte	18
000000d9 00000000*      3476 	.word	.LDW_48771f0
000000dd 00             3477 	.byte	0
                        3478 
000000de 00             3479 	.byte	0
                        3480 
                        3481 .LDW_4876e70:
000000df 44             3482 	.byte	68
000000e0 00000000*      3483 	.word	.LDW_4c438b8
000000e4 01             3484 	.byte	1
                        3485 
                        3486 .LDW_4871b20:
000000e5 12             3487 	.byte	18
000000e6 00000000*      3488 	.word	.LDW_48771f0
000000ea 00             3489 	.byte	0
                        3490 
000000eb 00             3491 	.byte	0
                        3492 
                        3493 .LDW_4876ea8:
000000ec 44             3494 	.byte	68
000000ed 00000000*      3495 	.word	.LDW_4c438b8
000000f1 01             3496 	.byte	1
                        3497 
                        3498 .LDW_4c9c178:
000000f2 12             3499 	.byte	18
000000f3 00000000*      3500 	.word	.LDW_48771f0
000000f7 00             3501 	.byte	0
                        3502 
000000f8 00             3503 	.byte	0

                                                                      Page 66
                                                              C:\Users\nhuliyap\AppData\Local\Temp\gh_0000ds81.s
                        3504 
                        3505 .LDW_4876c08:
000000f9 44             3506 	.byte	68
000000fa 00000000*      3507 	.word	.LDW_4c438b8
000000fe 01             3508 	.byte	1
                        3509 
                        3510 .LDW_4c9bff8:
000000ff 12             3511 	.byte	18
00000100 00000000*      3512 	.word	.LDW_48771f0
00000104 00             3513 	.byte	0
                        3514 
00000105 00             3515 	.byte	0
                        3516 
                        3517 .LDW_4877180:
00000106 44             3518 	.byte	68
00000107 00000000*      3519 	.word	.LDW_4c438b8
0000010b 01             3520 	.byte	1
                        3521 
                        3522 .LDW_4c9c118:
0000010c 12             3523 	.byte	18
0000010d 00000000*      3524 	.word	.LDW_48771f0
00000111 00             3525 	.byte	0
                        3526 
00000112 00             3527 	.byte	0
                        3528 
                        3529 .LDW_48770d8:
00000113 44             3530 	.byte	68
00000114 00000000*      3531 	.word	.LDW_4c438b8
00000118 01             3532 	.byte	1
                        3533 
                        3534 .LDW_4c9bed8:
00000119 12             3535 	.byte	18
0000011a 00000000*      3536 	.word	.LDW_48771f0
0000011e 00             3537 	.byte	0
                        3538 
0000011f 00             3539 	.byte	0
                        3540 
                        3541 .LDW_4876cb0:
00000120 44             3542 	.byte	68
00000121 00000000*      3543 	.word	.LDW_4c438b8
00000125 01             3544 	.byte	1
                        3545 
                        3546 .LDW_4c9bf08:
00000126 12             3547 	.byte	18
00000127 00000000*      3548 	.word	.LDW_48771f0
0000012b 00             3549 	.byte	0
                        3550 
0000012c 00             3551 	.byte	0
                        3552 
                        3553 .LDW_4877030:
0000012d 44             3554 	.byte	68
0000012e 00000000*      3555 	.word	.LDW_4c438b8
00000132 01             3556 	.byte	1
                        3557 
                        3558 .LDW_4c9bf38:
00000133 12             3559 	.byte	18
00000134 00000000*      3560 	.word	.LDW_48771f0
00000138 00             3561 	.byte	0
                        3562 
00000139 00             3563 	.byte	0
                        3564 

                                                                      Page 67
                                                              C:\Users\nhuliyap\AppData\Local\Temp\gh_0000ds81.s
                        3565 .LDW_4876ce8:
0000013a 44             3566 	.byte	68
0000013b 00000000*      3567 	.word	.LDW_4c438b8
0000013f 01             3568 	.byte	1
                        3569 
                        3570 .LDW_4c9c058:
00000140 12             3571 	.byte	18
00000141 00000000*      3572 	.word	.LDW_48771f0
00000145 00             3573 	.byte	0
                        3574 
00000146 00             3575 	.byte	0
                        3576 
                        3577 .LDW_4876f88:
00000147 44             3578 	.byte	68
00000148 00000000*      3579 	.word	.LDW_4c438b8
0000014c 01             3580 	.byte	1
                        3581 
                        3582 .LDW_4c9c208:
0000014d 12             3583 	.byte	18
0000014e 00000000*      3584 	.word	.LDW_48771f0
00000152 00             3585 	.byte	0
                        3586 
00000153 00             3587 	.byte	0
                        3588 
                        3589 .LDW_4876d58:
00000154 44             3590 	.byte	68
00000155 00000000*      3591 	.word	.LDW_4c438b8
00000159 01             3592 	.byte	1
                        3593 
                        3594 .LDW_4c9c388:
0000015a 12             3595 	.byte	18
0000015b 00000000*      3596 	.word	.LDW_48771f0
0000015f 00             3597 	.byte	0
                        3598 
00000160 00             3599 	.byte	0
                        3600 
                        3601 .LDW_48770a0:
00000161 44             3602 	.byte	68
00000162 00000000*      3603 	.word	.LDW_4c438b8
00000166 01             3604 	.byte	1
                        3605 
                        3606 .LDW_4c9c148:
00000167 12             3607 	.byte	18
00000168 00000000*      3608 	.word	.LDW_48771f0
0000016c 00             3609 	.byte	0
                        3610 
0000016d 00             3611 	.byte	0
                        3612 
                        3613 .LDW_4877298:
0000016e 25             3614 	.byte	37
0000016f 756e7369676e   3615 	.strz	"unsigned long"
00000175 6564206c6f6e 
0000017b 6700 
0000017d 07             3616 	.byte	7
0000017e 04             3617 	.byte	4
                        3618 
                        3619 .LDW_4876fc0:
0000017f 44             3620 	.byte	68
00000180 00000000*      3621 	.word	.LDW_4c438b8
00000184 01             3622 	.byte	1
                        3623 

                                                                      Page 68
                                                              C:\Users\nhuliyap\AppData\Local\Temp\gh_0000ds81.s
                        3624 .LDW_4c9bf98:
00000185 12             3625 	.byte	18
00000186 00000000*      3626 	.word	.LDW_48771f0
0000018a 00             3627 	.byte	0
                        3628 
0000018b 00             3629 	.byte	0
                        3630 
                        3631 .LDW_4876ff8:
0000018c 2f             3632 	.byte	47
0000018d 00000000*      3633 	.word	.LDW_4cad198
                        3634 
                        3635 .LDW_4876d90:
00000191 44             3636 	.byte	68
00000192 00000000*      3637 	.word	.LDW_4c438b8
00000196 01             3638 	.byte	1
                        3639 
                        3640 .LDW_4c9bfc8:
00000197 12             3641 	.byte	18
00000198 00000000*      3642 	.word	.LDW_48771f0
0000019c 00             3643 	.byte	0
                        3644 
0000019d 00             3645 	.byte	0
                        3646 
                        3647 .LDW_48772d0:
0000019e 44             3648 	.byte	68
0000019f 00000000*      3649 	.word	.LDW_4c438b8
000001a3 01             3650 	.byte	1
                        3651 
                        3652 .LDW_4c9c0b8:
000001a4 12             3653 	.byte	18
000001a5 00000000*      3654 	.word	.LDW_48771f0
000001a9 00             3655 	.byte	0
                        3656 
000001aa 00             3657 	.byte	0
                        3658 
                        3659 .LDW_4877308:
000001ab 25             3660 	.byte	37
000001ac 696e7400       3661 	.strz	"int"
000001b0 05             3662 	.byte	5
000001b1 04             3663 	.byte	4
                        3664 
                        3665 .LDW_4cb7048:
000001b2 3a             3666 	.byte	58
000001b3 00             3667 	.byte	0
000001b4 02             3668 	.byte	2
000001b5 00000000*      3669 	.word	.LDW_4c438b8
                        3670 
                        3671 	.section	.debug_abbrev
0000003b 3a             3672 	.byte	58
0000003c 01             3673 	.byte	1
0000003d 01             3674 	.byte	1
0000003e 090b           3675 	.byte	9,11
00000040 0b0f           3676 	.byte	11,15
00000042 4910           3677 	.byte	73,16
00000044 0000           3678 	.byte	0,0
                        3679 
                        3680 	.section	.debug_info
000001b9 32             3681 	.byte	50
000001ba 00000000*      3682 	.word	.LDW_4877308
000001be 04             3683 	.byte	4
000001bf 00             3684 	.byte	0

                                                                      Page 69
                                                              C:\Users\nhuliyap\AppData\Local\Temp\gh_0000ds81.s
000001c0 01             3685 	.byte	1
                        3686 
                        3687 	.section	.debug_abbrev
00000046 32             3688 	.byte	50
00000047 21             3689 	.byte	33
00000048 00             3690 	.byte	0
00000049 4910           3691 	.byte	73,16
0000004b 0b0f           3692 	.byte	11,15
0000004d 220d           3693 	.byte	34,13
0000004f 2f0d           3694 	.byte	47,13
00000051 0000           3695 	.byte	0,0
                        3696 
                        3697 	.section	.debug_info
000001c1 00             3698 	.byte	0
                        3699 
                        3700 .LDW_4877340:
000001c2 44             3701 	.byte	68
000001c3 00000000*      3702 	.word	.LDW_4c438b8
000001c7 01             3703 	.byte	1
                        3704 
                        3705 .LDW_4c9c0e8:
000001c8 12             3706 	.byte	18
000001c9 00000000*      3707 	.word	.LDW_48771f0
000001cd 00             3708 	.byte	0
                        3709 
000001ce 00             3710 	.byte	0
                        3711 
                        3712 .LDW_4cb73a0:
000001cf 44             3713 	.byte	68
000001d0 00000000*      3714 	.word	.LDW_4c438b8
000001d4 01             3715 	.byte	1
                        3716 
                        3717 .LDW_4c9c1d8:
000001d5 12             3718 	.byte	18
000001d6 00000000*      3719 	.word	.LDW_48771f0
000001da 00             3720 	.byte	0
                        3721 
000001db 00             3722 	.byte	0
                        3723 
                        3724 .LDW_4cb7480:
000001dc 44             3725 	.byte	68
000001dd 00000000*      3726 	.word	.LDW_4c438b8
000001e1 01             3727 	.byte	1
                        3728 
                        3729 .LDW_4c9c298:
000001e2 12             3730 	.byte	18
000001e3 00000000*      3731 	.word	.LDW_48771f0
000001e7 00             3732 	.byte	0
                        3733 
000001e8 00             3734 	.byte	0
                        3735 
                        3736 .LDW_4cb77c8:
000001e9 44             3737 	.byte	68
000001ea 00000000*      3738 	.word	.LDW_4c438b8
000001ee 01             3739 	.byte	1
                        3740 
                        3741 .LDW_4c9c478:
000001ef 12             3742 	.byte	18
000001f0 00000000*      3743 	.word	.LDW_48771f0
000001f4 00             3744 	.byte	0
                        3745 

                                                                      Page 70
                                                              C:\Users\nhuliyap\AppData\Local\Temp\gh_0000ds81.s
000001f5 00             3746 	.byte	0
                        3747 
                        3748 .LDW_4cb75d0:
000001f6 44             3749 	.byte	68
000001f7 00000000*      3750 	.word	.LDW_4c438b8
000001fb 01             3751 	.byte	1
                        3752 
                        3753 .LDW_4c9c448:
000001fc 12             3754 	.byte	18
000001fd 00000000*      3755 	.word	.LDW_48771f0
00000201 00             3756 	.byte	0
                        3757 
00000202 00             3758 	.byte	0
                        3759 
                        3760 .LDW_4cb7640:
00000203 44             3761 	.byte	68
00000204 00000000*      3762 	.word	.LDW_4c438b8
00000208 01             3763 	.byte	1
                        3764 
                        3765 .LDW_4c9c4d8:
00000209 12             3766 	.byte	18
0000020a 00000000*      3767 	.word	.LDW_48771f0
0000020e 00             3768 	.byte	0
                        3769 
0000020f 00             3770 	.byte	0
                        3771 
                        3772 .LDW_4cb7288:
00000210 44             3773 	.byte	68
00000211 00000000*      3774 	.word	.LDW_4c438b8
00000215 01             3775 	.byte	1
                        3776 
                        3777 .LDW_4c9c568:
00000216 12             3778 	.byte	18
00000217 00000000*      3779 	.word	.LDW_48771f0
0000021b 00             3780 	.byte	0
                        3781 
0000021c 00             3782 	.byte	0
                        3783 
                        3784 .LDW_4cb7100:
0000021d 44             3785 	.byte	68
0000021e 00000000*      3786 	.word	.LDW_4c438b8
00000222 01             3787 	.byte	1
                        3788 
                        3789 .LDW_4cc89d8:
00000223 12             3790 	.byte	18
00000224 00000000*      3791 	.word	.LDW_48771f0
00000228 00             3792 	.byte	0
                        3793 
00000229 00             3794 	.byte	0
                        3795 
                        3796 .LDW_4cb7218:
0000022a 44             3797 	.byte	68
0000022b 00000000*      3798 	.word	.LDW_4c438b8
0000022f 01             3799 	.byte	1
                        3800 
                        3801 .LDW_4cc8ca8:
00000230 12             3802 	.byte	18
00000231 00000000*      3803 	.word	.LDW_48771f0
00000235 00             3804 	.byte	0
                        3805 
00000236 00             3806 	.byte	0

                                                                      Page 71
                                                              C:\Users\nhuliyap\AppData\Local\Temp\gh_0000ds81.s
                        3807 
                        3808 .LDW_4cb74f0:
00000237 44             3809 	.byte	68
00000238 00000000*      3810 	.word	.LDW_4c438b8
0000023c 01             3811 	.byte	1
                        3812 
                        3813 .LDW_4cc8a08:
0000023d 12             3814 	.byte	18
0000023e 00000000*      3815 	.word	.LDW_48771f0
00000242 00             3816 	.byte	0
                        3817 
00000243 00             3818 	.byte	0
                        3819 
                        3820 .LDW_4cb7560:
00000244 44             3821 	.byte	68
00000245 00000000*      3822 	.word	.LDW_4c438b8
00000249 01             3823 	.byte	1
                        3824 
                        3825 .LDW_4cc8a68:
0000024a 12             3826 	.byte	18
0000024b 00000000*      3827 	.word	.LDW_48771f0
0000024f 00             3828 	.byte	0
                        3829 
00000250 00             3830 	.byte	0
                        3831 
                        3832 .LDW_4cb7250:
00000251 44             3833 	.byte	68
00000252 00000000*      3834 	.word	.LDW_4c438b8
00000256 01             3835 	.byte	1
                        3836 
                        3837 .LDW_4cc8ac8:
00000257 12             3838 	.byte	18
00000258 00000000*      3839 	.word	.LDW_48771f0
0000025c 00             3840 	.byte	0
                        3841 
0000025d 00             3842 	.byte	0
                        3843 
                        3844 .LDW_4cb74b8:
0000025e 44             3845 	.byte	68
0000025f 00000000*      3846 	.word	.LDW_4c438b8
00000263 01             3847 	.byte	1
                        3848 
                        3849 .LDW_4cc8e28:
00000264 12             3850 	.byte	18
00000265 00000000*      3851 	.word	.LDW_48771f0
00000269 00             3852 	.byte	0
                        3853 
0000026a 00             3854 	.byte	0
                        3855 
                        3856 .LDW_4cb7678:
0000026b 44             3857 	.byte	68
0000026c 00000000*      3858 	.word	.LDW_4c438b8
00000270 01             3859 	.byte	1
                        3860 
                        3861 .LDW_4cc8a38:
00000271 12             3862 	.byte	18
00000272 00000000*      3863 	.word	.LDW_48771f0
00000276 00             3864 	.byte	0
                        3865 
00000277 00             3866 	.byte	0
                        3867 

                                                                      Page 72
                                                              C:\Users\nhuliyap\AppData\Local\Temp\gh_0000ds81.s
                        3868 .LDW_4cb7608:
00000278 25             3869 	.byte	37
00000279 7369676e6564   3870 	.strz	"signed char"
0000027f 206368617200 
00000285 06             3871 	.byte	6
00000286 01             3872 	.byte	1
                        3873 
                        3874 .LDW_4cb7138:
00000287 44             3875 	.byte	68
00000288 00000000*      3876 	.word	.LDW_4c438b8
0000028c 01             3877 	.byte	1
                        3878 
                        3879 .LDW_4cc8cd8:
0000028d 12             3880 	.byte	18
0000028e 00000000*      3881 	.word	.LDW_48771f0
00000292 00             3882 	.byte	0
                        3883 
00000293 00             3884 	.byte	0
                        3885 
                        3886 .LDW_4cb72c0:
00000294 44             3887 	.byte	68
00000295 00000000*      3888 	.word	.LDW_4c438b8
00000299 01             3889 	.byte	1
                        3890 
                        3891 .LDW_4cc8a98:
0000029a 12             3892 	.byte	18
0000029b 00000000*      3893 	.word	.LDW_48771f0
0000029f 00             3894 	.byte	0
                        3895 
000002a0 00             3896 	.byte	0
                        3897 
                        3898 .LDW_4cb72f8:
000002a1 44             3899 	.byte	68
000002a2 00000000*      3900 	.word	.LDW_4c438b8
000002a6 01             3901 	.byte	1
                        3902 
                        3903 .LDW_4cc8e58:
000002a7 12             3904 	.byte	18
000002a8 00000000*      3905 	.word	.LDW_48771f0
000002ac 00             3906 	.byte	0
                        3907 
000002ad 00             3908 	.byte	0
                        3909 
                        3910 .LDW_4cb8778:
000002ae 29             3911 	.byte	41
000002af 00000000*      3912 	.word	.LDW_4c438b8
                        3913 
                        3914 	.section	.debug_abbrev
00000053 29             3915 	.byte	41
00000054 26             3916 	.byte	38
00000055 00             3917 	.byte	0
00000056 4910           3918 	.byte	73,16
00000058 0000           3919 	.byte	0,0
                        3920 
                        3921 	.section	.debug_info
                        3922 .LDW_4cb7790:
000002b3 2f             3923 	.byte	47
000002b4 00000000*      3924 	.word	.LDW_4c438b8
                        3925 
                        3926 .LDW_4cb7330:
000002b8 45             3927 	.byte	69

                                                                      Page 73
                                                              C:\Users\nhuliyap\AppData\Local\Temp\gh_0000ds81.s
000002b9 01             3928 	.byte	1
                        3929 
                        3930 	.section	.debug_abbrev
0000005a 45             3931 	.byte	69
0000005b 15             3932 	.byte	21
0000005c 01             3933 	.byte	1
0000005d 270c           3934 	.byte	39,12
0000005f 0000           3935 	.byte	0,0
                        3936 
                        3937 	.section	.debug_info
                        3938 .LDW_4cc8bb8:
000002ba 12             3939 	.byte	18
000002bb 00000000*      3940 	.word	.LDW_4cb8778
000002bf 00             3941 	.byte	0
                        3942 
                        3943 .LDW_4cc8e88:
000002c0 12             3944 	.byte	18
000002c1 00000000*      3945 	.word	.LDW_4cb7790
000002c5 00             3946 	.byte	0
                        3947 
000002c6 00             3948 	.byte	0
                        3949 
                        3950 .LDW_4cb7528:
000002c7 45             3951 	.byte	69
000002c8 01             3952 	.byte	1
                        3953 
                        3954 .LDW_4cc8be8:
000002c9 12             3955 	.byte	18
000002ca 00000000*      3956 	.word	.LDW_4cb8778
000002ce 00             3957 	.byte	0
                        3958 
                        3959 .LDW_4cc8eb8:
000002cf 12             3960 	.byte	18
000002d0 00000000*      3961 	.word	.LDW_4cb7790
000002d4 00             3962 	.byte	0
                        3963 
000002d5 00             3964 	.byte	0
                        3965 
                        3966 .LDW_4cb76b0:
000002d6 44             3967 	.byte	68
000002d7 00000000*      3968 	.word	.LDW_4c438b8
000002db 01             3969 	.byte	1
                        3970 
                        3971 .LDW_4cc8c18:
000002dc 12             3972 	.byte	18
000002dd 00000000*      3973 	.word	.LDW_4cb7790
000002e1 00             3974 	.byte	0
                        3975 
000002e2 00             3976 	.byte	0
                        3977 
                        3978 .LDW_4cb76e8:
000002e3 44             3979 	.byte	68
000002e4 00000000*      3980 	.word	.LDW_4c438b8
000002e8 01             3981 	.byte	1
                        3982 
                        3983 .LDW_4cc8d68:
000002e9 12             3984 	.byte	18
000002ea 00000000*      3985 	.word	.LDW_4cb7790
000002ee 00             3986 	.byte	0
                        3987 
000002ef 00             3988 	.byte	0

                                                                      Page 74
                                                              C:\Users\nhuliyap\AppData\Local\Temp\gh_0000ds81.s
                        3989 
                        3990 .LDW_4cdaa48:
000002f0 3a             3991 	.byte	58
000002f1 00             3992 	.byte	0
000002f2 02             3993 	.byte	2
000002f3 00000000*      3994 	.word	.LDW_4c438b8
                        3995 
000002f7 32             3996 	.byte	50
000002f8 00000000*      3997 	.word	.LDW_4877308
000002fc 04             3998 	.byte	4
000002fd 00             3999 	.byte	0
000002fe 01             4000 	.byte	1
                        4001 
000002ff 00             4002 	.byte	0
                        4003 
                        4004 .LDW_4cb7720:
00000300 45             4005 	.byte	69
00000301 01             4006 	.byte	1
                        4007 
                        4008 .LDW_4cc8d98:
00000302 12             4009 	.byte	18
00000303 00000000*      4010 	.word	.LDW_4cb7790
00000307 00             4011 	.byte	0
                        4012 
00000308 00             4013 	.byte	0
                        4014 
                        4015 .LDW_4cb7758:
00000309 45             4016 	.byte	69
0000030a 01             4017 	.byte	1
                        4018 
                        4019 .LDW_4cc93f8:
0000030b 12             4020 	.byte	18
0000030c 00000000*      4021 	.word	.LDW_4cb7790
00000310 00             4022 	.byte	0
                        4023 
00000311 00             4024 	.byte	0
                        4025 
                        4026 .LDW_4cb7170:
00000312 45             4027 	.byte	69
00000313 01             4028 	.byte	1
                        4029 
                        4030 .LDW_4cc9338:
00000314 12             4031 	.byte	18
00000315 00000000*      4032 	.word	.LDW_4cb7790
00000319 00             4033 	.byte	0
                        4034 
0000031a 00             4035 	.byte	0
                        4036 
                        4037 .LDW_4cb7368:
0000031b 45             4038 	.byte	69
0000031c 01             4039 	.byte	1
                        4040 
                        4041 .LDW_4cc9278:
0000031d 12             4042 	.byte	18
0000031e 00000000*      4043 	.word	.LDW_4cb7790
00000322 00             4044 	.byte	0
                        4045 
00000323 00             4046 	.byte	0
                        4047 
                        4048 .LDW_4cb71a8:
00000324 45             4049 	.byte	69

                                                                      Page 75
                                                              C:\Users\nhuliyap\AppData\Local\Temp\gh_0000ds81.s
00000325 01             4050 	.byte	1
                        4051 
                        4052 .LDW_4cc91e8:
00000326 12             4053 	.byte	18
00000327 00000000*      4054 	.word	.LDW_4cb7790
0000032b 00             4055 	.byte	0
                        4056 
                        4057 .LDW_4cc9218:
0000032c 12             4058 	.byte	18
0000032d 00000000*      4059 	.word	.LDW_4cb7790
00000331 00             4060 	.byte	0
                        4061 
00000332 00             4062 	.byte	0
                        4063 
                        4064 .LDW_4cb73d8:
00000333 45             4065 	.byte	69
00000334 01             4066 	.byte	1
                        4067 
                        4068 .LDW_4cc8fa8:
00000335 12             4069 	.byte	18
00000336 00000000*      4070 	.word	.LDW_4cb7790
0000033a 00             4071 	.byte	0
                        4072 
0000033b 00             4073 	.byte	0
                        4074 
                        4075 .LDW_4cc9ba0:
0000033c 29             4076 	.byte	41
0000033d 00000000*      4077 	.word	.LDW_4cca438
                        4078 
                        4079 .LDW_4cb71e0:
00000341 44             4080 	.byte	68
00000342 00000000*      4081 	.word	.LDW_4c438b8
00000346 01             4082 	.byte	1
                        4083 
                        4084 .LDW_4cc8f48:
00000347 12             4085 	.byte	18
00000348 00000000*      4086 	.word	.LDW_4cc9ba0
0000034c 00             4087 	.byte	0
                        4088 
                        4089 .LDW_4cc92d8:
0000034d 12             4090 	.byte	18
0000034e 00000000*      4091 	.word	.LDW_48771f0
00000352 00             4092 	.byte	0
                        4093 
00000353 00             4094 	.byte	0
                        4095 
                        4096 .LDW_4cb7448:
00000354 25             4097 	.byte	37
00000355 756e7369676e   4098 	.strz	"unsigned short"
0000035b 65642073686f 
00000361 727400 
00000364 07             4099 	.byte	7
00000365 02             4100 	.byte	2
                        4101 
                        4102 .LDW_4cb7838:
00000366 25             4103 	.byte	37
00000367 756e7369676e   4104 	.strz	"unsigned int"
0000036d 656420696e74 
00000373 00 
00000374 07             4105 	.byte	7
00000375 04             4106 	.byte	4

                                                                      Page 76
                                                              C:\Users\nhuliyap\AppData\Local\Temp\gh_0000ds81.s
                        4107 
                        4108 .LDW_4b50400:
00000376 2f             4109 	.byte	47
00000377 00000000*      4110 	.word	.LDW_4cc9bf8
                        4111 
                        4112 .LDW_4cf0648:
0000037b 3a             4113 	.byte	58
0000037c 00             4114 	.byte	0
0000037d 04             4115 	.byte	4
0000037e 00000000*      4116 	.word	.LDW_4876ee0
                        4117 
00000382 32             4118 	.byte	50
00000383 00000000*      4119 	.word	.LDW_4877308
00000387 04             4120 	.byte	4
00000388 00             4121 	.byte	0
00000389 03             4122 	.byte	3
                        4123 
0000038a 00             4124 	.byte	0
                        4125 
                        4126 .LDW_4cf1418:
0000038b 3a             4127 	.byte	58
0000038c 00             4128 	.byte	0
0000038d 04             4129 	.byte	4
0000038e 00000000*      4130 	.word	.LDW_4876ee0
                        4131 
00000392 32             4132 	.byte	50
00000393 00000000*      4133 	.word	.LDW_4877308
00000397 04             4134 	.byte	4
00000398 00             4135 	.byte	0
00000399 03             4136 	.byte	3
                        4137 
0000039a 00             4138 	.byte	0
                        4139 
                        4140 .LDW_4cf0978:
0000039b 3a             4141 	.byte	58
0000039c 00             4142 	.byte	0
0000039d 04             4143 	.byte	4
0000039e 00000000*      4144 	.word	.LDW_4cb7608
                        4145 
000003a2 32             4146 	.byte	50
000003a3 00000000*      4147 	.word	.LDW_4877308
000003a7 04             4148 	.byte	4
000003a8 00             4149 	.byte	0
000003a9 03             4150 	.byte	3
                        4151 
000003aa 00             4152 	.byte	0
                        4153 
                        4154 .LDW_4cf14a0:
000003ab 3a             4155 	.byte	58
000003ac 00             4156 	.byte	0
000003ad 08             4157 	.byte	8
000003ae 00000000*      4158 	.word	.LDW_4cb7448
                        4159 
000003b2 32             4160 	.byte	50
000003b3 00000000*      4161 	.word	.LDW_4877308
000003b7 04             4162 	.byte	4
000003b8 00             4163 	.byte	0
000003b9 03             4164 	.byte	3
                        4165 
000003ba 00             4166 	.byte	0
                        4167 

                                                                      Page 77
                                                              C:\Users\nhuliyap\AppData\Local\Temp\gh_0000ds81.s
                        4168 .LDW_4cf0758:
000003bb 3a             4169 	.byte	58
000003bc 00             4170 	.byte	0
000003bd 04             4171 	.byte	4
000003be 00000000*      4172 	.word	.LDW_4876ee0
                        4173 
000003c2 32             4174 	.byte	50
000003c3 00000000*      4175 	.word	.LDW_4877308
000003c7 04             4176 	.byte	4
000003c8 00             4177 	.byte	0
000003c9 03             4178 	.byte	3
                        4179 
000003ca 00             4180 	.byte	0
                        4181 
                        4182 .LDW_4cf0ca8:
000003cb 3a             4183 	.byte	58
000003cc 00             4184 	.byte	0
000003cd 1a             4185 	.byte	26
000003ce 00000000*      4186 	.word	.LDW_4876ee0
                        4187 
000003d2 32             4188 	.byte	50
000003d3 00000000*      4189 	.word	.LDW_4877308
000003d7 04             4190 	.byte	4
000003d8 00             4191 	.byte	0
000003d9 19             4192 	.byte	25
                        4193 
000003da 00             4194 	.byte	0
                        4195 
                        4196 .LDW_4b50320:
000003db 44             4197 	.byte	68
000003dc 00000000*      4198 	.word	.LDW_4c438b8
000003e0 01             4199 	.byte	1
                        4200 
                        4201 .LDW_4cc9368:
000003e1 12             4202 	.byte	18
000003e2 00000000*      4203 	.word	.LDW_48771f0
000003e6 00             4204 	.byte	0
                        4205 
000003e7 00             4206 	.byte	0
                        4207 
                        4208 .LDW_4b50550:
000003e8 2f             4209 	.byte	47
000003e9 00000000*      4210 	.word	.LDW_4b50320
                        4211 
                        4212 .LDW_4cf3130:
000003ed 29             4213 	.byte	41
000003ee 00000000*      4214 	.word	.LDW_4876ee0
                        4215 
                        4216 .LDW_4cf5eb8:
000003f2 3a             4217 	.byte	58
000003f3 00             4218 	.byte	0
000003f4 10             4219 	.byte	16
000003f5 00000000*      4220 	.word	.LDW_4c438b8
                        4221 
000003f9 32             4222 	.byte	50
000003fa 00000000*      4223 	.word	.LDW_4877308
000003fe 04             4224 	.byte	4
000003ff 00             4225 	.byte	0
00000400 0f             4226 	.byte	15
                        4227 
00000401 00             4228 	.byte	0

                                                                      Page 78
                                                              C:\Users\nhuliyap\AppData\Local\Temp\gh_0000ds81.s
                        4229 
                        4230 .LDW_4cf8e78:
00000402 29             4231 	.byte	41
00000403 00000000*      4232 	.word	.LDW_4cf2898
                        4233 
                        4234 .LDW_4cf6380:
00000407 3a             4235 	.byte	58
00000408 00             4236 	.byte	0
00000409 9002           4237 	.byte	144,2
0000040b 00000000*      4238 	.word	.LDW_4cf8e78
                        4239 
0000040f 32             4240 	.byte	50
00000410 00000000*      4241 	.word	.LDW_4877308
00000414 04             4242 	.byte	4
00000415 00             4243 	.byte	0
00000416 21             4244 	.byte	33
                        4245 
00000417 00             4246 	.byte	0
                        4247 
                        4248 .LDW_4b50780:
00000418 45             4249 	.byte	69
00000419 01             4250 	.byte	1
                        4251 
                        4252 .LDW_4cc9518:
0000041a 12             4253 	.byte	18
0000041b 00000000*      4254 	.word	.LDW_4cc9ba0
0000041f 00             4255 	.byte	0
                        4256 
                        4257 .LDW_4cc9638:
00000420 12             4258 	.byte	18
00000421 00000000*      4259 	.word	.LDW_48771f0
00000425 00             4260 	.byte	0
                        4261 
                        4262 .LDW_4cc9548:
00000426 12             4263 	.byte	18
00000427 00000000*      4264 	.word	.LDW_4c438b8
0000042b 00             4265 	.byte	0
                        4266 
0000042c 00             4267 	.byte	0
                        4268 
                        4269 .LDW_4cfd4f8:
0000042d 45             4270 	.byte	69
0000042e 01             4271 	.byte	1
                        4272 
0000042f 00             4273 	.byte	0
                        4274 
                        4275 .LDW_4cfd450:
00000430 44             4276 	.byte	68
00000431 00000000*      4277 	.word	.LDW_4cc9e08
00000435 01             4278 	.byte	1
                        4279 
                        4280 .LDW_4cfac60:
00000436 12             4281 	.byte	18
00000437 00000000*      4282 	.word	.LDW_4cc9bf8
0000043b 00             4283 	.byte	0
                        4284 
0000043c 00             4285 	.byte	0
                        4286 
                        4287 .LDW_4cfd568:
0000043d 44             4288 	.byte	68
0000043e 00000000*      4289 	.word	.LDW_4c438b8

                                                                      Page 79
                                                              C:\Users\nhuliyap\AppData\Local\Temp\gh_0000ds81.s
00000442 01             4290 	.byte	1
                        4291 
                        4292 .LDW_4cfa960:
00000443 12             4293 	.byte	18
00000444 00000000*      4294 	.word	.LDW_4c438b8
00000448 00             4295 	.byte	0
                        4296 
00000449 00             4297 	.byte	0
                        4298 
                        4299 .LDW_4cfd728:
0000044a 44             4300 	.byte	68
0000044b 00000000*      4301 	.word	.LDW_4cb7a10
0000044f 01             4302 	.byte	1
                        4303 
                        4304 .LDW_4cfafc0:
00000450 12             4305 	.byte	18
00000451 00000000*      4306 	.word	.LDW_4c438b8
00000455 00             4307 	.byte	0
                        4308 
00000456 00             4309 	.byte	0
                        4310 
                        4311 .LDW_4cfd2c8:
00000457 44             4312 	.byte	68
00000458 00000000*      4313 	.word	.LDW_4c438b8
0000045c 01             4314 	.byte	1
                        4315 
                        4316 .LDW_4cfae10:
0000045d 12             4317 	.byte	18
0000045e 00000000*      4318 	.word	.LDW_4c438b8
00000462 00             4319 	.byte	0
                        4320 
00000463 00             4321 	.byte	0
                        4322 
                        4323 .LDW_4cfdd38:
00000464 44             4324 	.byte	68
00000465 00000000*      4325 	.word	.LDW_4c438b8
00000469 01             4326 	.byte	1
                        4327 
                        4328 .LDW_4cfb170:
0000046a 12             4329 	.byte	18
0000046b 00000000*      4330 	.word	.LDW_4c438b8
0000046f 00             4331 	.byte	0
                        4332 
00000470 00             4333 	.byte	0
                        4334 
                        4335 .LDW_4cfdb40:
00000471 44             4336 	.byte	68
00000472 00000000*      4337 	.word	.LDW_4cad198
00000476 01             4338 	.byte	1
                        4339 
00000477 00             4340 	.byte	0
                        4341 
                        4342 .LDW_4cfdcc8:
00000478 44             4343 	.byte	68
00000479 00000000*      4344 	.word	.LDW_4c438b8
0000047d 01             4345 	.byte	1
                        4346 
0000047e 00             4347 	.byte	0
                        4348 
                        4349 .LDW_4cfdf30:
0000047f 44             4350 	.byte	68

                                                                      Page 80
                                                              C:\Users\nhuliyap\AppData\Local\Temp\gh_0000ds81.s
00000480 00000000*      4351 	.word	.LDW_4cb7a10
00000484 01             4352 	.byte	1
                        4353 
00000485 00             4354 	.byte	0
                        4355 
                        4356 .LDW_4d003f8:
00000486 2f             4357 	.byte	47
00000487 00000000*      4358 	.word	.LDW_4877298
                        4359 
                        4360 .LDW_4d004d8:
0000048b 44             4361 	.byte	68
0000048c 00000000*      4362 	.word	.LDW_4876ee0
00000490 01             4363 	.byte	1
                        4364 
                        4365 .LDW_4cfa540:
00000491 12             4366 	.byte	18
00000492 00000000*      4367 	.word	.LDW_4d003f8
00000496 00             4368 	.byte	0
                        4369 
00000497 00             4370 	.byte	0
                        4371 
                        4372 .LDW_4d00510:
00000498 44             4373 	.byte	68
00000499 00000000*      4374 	.word	.LDW_4876ee0
0000049d 01             4375 	.byte	1
                        4376 
                        4377 .LDW_4cfa240:
0000049e 12             4378 	.byte	18
0000049f 00000000*      4379 	.word	.LDW_4876ee0
000004a3 00             4380 	.byte	0
                        4381 
000004a4 00             4382 	.byte	0
                        4383 
                        4384 .LDW_4d005f0:
000004a5 44             4385 	.byte	68
000004a6 00000000*      4386 	.word	.LDW_4877298
000004aa 01             4387 	.byte	1
                        4388 
                        4389 .LDW_4cfa480:
000004ab 12             4390 	.byte	18
000004ac 00000000*      4391 	.word	.LDW_4876ee0
000004b0 00             4392 	.byte	0
                        4393 
000004b1 00             4394 	.byte	0
                        4395 
                        4396 .LDW_4d00900:
000004b2 44             4397 	.byte	68
000004b3 00000000*      4398 	.word	.LDW_4c438b8
000004b7 01             4399 	.byte	1
                        4400 
                        4401 .LDW_4cfa300:
000004b8 12             4402 	.byte	18
000004b9 00000000*      4403 	.word	.LDW_4876ff8
000004bd 00             4404 	.byte	0
                        4405 
                        4406 .LDW_4cfa270:
000004be 12             4407 	.byte	18
000004bf 00000000*      4408 	.word	.LDW_4cb7790
000004c3 00             4409 	.byte	0
                        4410 
000004c4 00             4411 	.byte	0

                                                                      Page 81
                                                              C:\Users\nhuliyap\AppData\Local\Temp\gh_0000ds81.s
                        4412 
                        4413 .LDW_4d006d0:
000004c5 44             4414 	.byte	68
000004c6 00000000*      4415 	.word	.LDW_4876ee0
000004ca 01             4416 	.byte	1
                        4417 
                        4418 .LDW_4cfa6c0:
000004cb 12             4419 	.byte	18
000004cc 00000000*      4420 	.word	.LDW_4876ee0
000004d0 00             4421 	.byte	0
                        4422 
000004d1 00             4423 	.byte	0
                        4424 
                        4425 .LDW_4d009a8:
000004d2 2f             4426 	.byte	47
000004d3 00000000*      4427 	.word	.LDW_4876ee0
                        4428 
                        4429 .LDW_4d01418:
000004d7 44             4430 	.byte	68
000004d8 00000000*      4431 	.word	.LDW_4876ee0
000004dc 01             4432 	.byte	1
                        4433 
                        4434 .LDW_4d03e70:
000004dd 12             4435 	.byte	18
000004de 00000000*      4436 	.word	.LDW_4876ee0
000004e2 00             4437 	.byte	0
                        4438 
                        4439 .LDW_4d03c60:
000004e3 12             4440 	.byte	18
000004e4 00000000*      4441 	.word	.LDW_4d009a8
000004e8 00             4442 	.byte	0
                        4443 
000004e9 00             4444 	.byte	0
                        4445 
                        4446 .LDW_4d01760:
000004ea 44             4447 	.byte	68
000004eb 00000000*      4448 	.word	.LDW_4876ee0
000004ef 01             4449 	.byte	1
                        4450 
                        4451 .LDW_4d03d20:
000004f0 12             4452 	.byte	18
000004f1 00000000*      4453 	.word	.LDW_4876ee0
000004f5 00             4454 	.byte	0
                        4455 
                        4456 .LDW_4d03f60:
000004f6 12             4457 	.byte	18
000004f7 00000000*      4458 	.word	.LDW_4d009a8
000004fb 00             4459 	.byte	0
                        4460 
000004fc 00             4461 	.byte	0
                        4462 
                        4463 .LDW_4d01450:
000004fd 2f             4464 	.byte	47
000004fe 00000000*      4465 	.word	.LDW_4cf3130
                        4466 
                        4467 .LDW_4d01220:
00000502 44             4468 	.byte	68
00000503 00000000*      4469 	.word	.LDW_4876ee0
00000507 01             4470 	.byte	1
                        4471 
                        4472 .LDW_4d03ff0:

                                                                      Page 82
                                                              C:\Users\nhuliyap\AppData\Local\Temp\gh_0000ds81.s
00000508 12             4473 	.byte	18
00000509 00000000*      4474 	.word	.LDW_4876ee0
0000050d 00             4475 	.byte	0
                        4476 
                        4477 .LDW_4d03a50:
0000050e 12             4478 	.byte	18
0000050f 00000000*      4479 	.word	.LDW_4876ee0
00000513 00             4480 	.byte	0
                        4481 
00000514 00             4482 	.byte	0
                        4483 
                        4484 .LDW_4d07208:
00000515 2f             4485 	.byte	47
00000516 00000000*      4486 	.word	.LDW_4cacf30
                        4487 
                        4488 .LDW_4d07978:
0000051a 2f             4489 	.byte	47
0000051b 00000000*      4490 	.word	.LDW_4cb81a0
                        4491 
                        4492 .LDW_4d07898:
0000051f 45             4493 	.byte	69
00000520 01             4494 	.byte	1
                        4495 
                        4496 .LDW_4d07df8:
00000521 12             4497 	.byte	18
00000522 00000000*      4498 	.word	.LDW_4876ee0
00000526 00             4499 	.byte	0
                        4500 
                        4501 .LDW_4d07be8:
00000527 12             4502 	.byte	18
00000528 00000000*      4503 	.word	.LDW_4d009a8
0000052c 00             4504 	.byte	0
                        4505 
0000052d 00             4506 	.byte	0
                        4507 
                        4508 .LDW_4d078d0:
0000052e 45             4509 	.byte	69
0000052f 01             4510 	.byte	1
                        4511 
                        4512 .LDW_4d07a98:
00000530 12             4513 	.byte	18
00000531 00000000*      4514 	.word	.LDW_4876ee0
00000535 00             4515 	.byte	0
                        4516 
                        4517 .LDW_4d07c48:
00000536 12             4518 	.byte	18
00000537 00000000*      4519 	.word	.LDW_4d009a8
0000053b 00             4520 	.byte	0
                        4521 
0000053c 00             4522 	.byte	0
                        4523 
                        4524 .LDW_4d07940:
0000053d 45             4525 	.byte	69
0000053e 01             4526 	.byte	1
                        4527 
                        4528 .LDW_4d07e28:
0000053f 12             4529 	.byte	18
00000540 00000000*      4530 	.word	.LDW_4c438b8
00000544 00             4531 	.byte	0
                        4532 
00000545 00             4533 	.byte	0

                                                                      Page 83
                                                              C:\Users\nhuliyap\AppData\Local\Temp\gh_0000ds81.s
                        4534 
                        4535 .LDW_4d07908:
00000546 44             4536 	.byte	68
00000547 00000000*      4537 	.word	.LDW_4c438b8
0000054b 01             4538 	.byte	1
                        4539 
0000054c 00             4540 	.byte	0
                        4541 
                        4542 .LDW_4d06e88:
0000054d 45             4543 	.byte	69
0000054e 01             4544 	.byte	1
                        4545 
                        4546 .LDW_4d07ac8:
0000054f 12             4547 	.byte	18
00000550 00000000*      4548 	.word	.LDW_4cb7a10
00000554 00             4549 	.byte	0
                        4550 
00000555 00             4551 	.byte	0
                        4552 
                        4553 .LDW_4d06d38:
00000556 44             4554 	.byte	68
00000557 00000000*      4555 	.word	.LDW_4cb7a10
0000055b 01             4556 	.byte	1
                        4557 
0000055c 00             4558 	.byte	0
                        4559 
                        4560 .LDW_4d06b78:
0000055d 45             4561 	.byte	69
0000055e 01             4562 	.byte	1
                        4563 
                        4564 .LDW_4d07ca8:
0000055f 12             4565 	.byte	18
00000560 00000000*      4566 	.word	.LDW_4c438b8
00000564 00             4567 	.byte	0
                        4568 
00000565 00             4569 	.byte	0
                        4570 
                        4571 .LDW_4d07128:
00000566 44             4572 	.byte	68
00000567 00000000*      4573 	.word	.LDW_4c438b8
0000056b 01             4574 	.byte	1
                        4575 
0000056c 00             4576 	.byte	0
                        4577 
                        4578 .LDW_4d06d70:
0000056d 45             4579 	.byte	69
0000056e 01             4580 	.byte	1
                        4581 
                        4582 .LDW_4d07cd8:
0000056f 12             4583 	.byte	18
00000570 00000000*      4584 	.word	.LDW_4c438b8
00000574 00             4585 	.byte	0
                        4586 
00000575 00             4587 	.byte	0
                        4588 
                        4589 .LDW_4d06ec0:
00000576 44             4590 	.byte	68
00000577 00000000*      4591 	.word	.LDW_4c438b8
0000057b 01             4592 	.byte	1
                        4593 
0000057c 00             4594 	.byte	0

                                                                      Page 84
                                                              C:\Users\nhuliyap\AppData\Local\Temp\gh_0000ds81.s
                        4595 
                        4596 .LDW_4d06c90:
0000057d 45             4597 	.byte	69
0000057e 01             4598 	.byte	1
                        4599 
                        4600 .LDW_4d07fd8:
0000057f 12             4601 	.byte	18
00000580 00000000*      4602 	.word	.LDW_4c438b8
00000584 00             4603 	.byte	0
                        4604 
00000585 00             4605 	.byte	0
                        4606 
                        4607 .LDW_4d06de0:
00000586 44             4608 	.byte	68
00000587 00000000*      4609 	.word	.LDW_4c438b8
0000058b 01             4610 	.byte	1
                        4611 
0000058c 00             4612 	.byte	0
                        4613 
                        4614 .LDW_4d06c58:
0000058d 45             4615 	.byte	69
0000058e 01             4616 	.byte	1
                        4617 
                        4618 .LDW_4d08218:
0000058f 12             4619 	.byte	18
00000590 00000000*      4620 	.word	.LDW_4c438b8
00000594 00             4621 	.byte	0
                        4622 
00000595 00             4623 	.byte	0
                        4624 
                        4625 .LDW_4d0b9c8:
00000596 45             4626 	.byte	69
00000597 01             4627 	.byte	1
                        4628 
                        4629 .LDW_4d08488:
00000598 12             4630 	.byte	18
00000599 00000000*      4631 	.word	.LDW_4cb7790
0000059d 00             4632 	.byte	0
                        4633 
0000059e 00             4634 	.byte	0
                        4635 
                        4636 .LDW_4d0b920:
0000059f 45             4637 	.byte	69
000005a0 01             4638 	.byte	1
                        4639 
                        4640 .LDW_4d080f8:
000005a1 12             4641 	.byte	18
000005a2 00000000*      4642 	.word	.LDW_4876ee0
000005a6 00             4643 	.byte	0
                        4644 
                        4645 .LDW_4d08458:
000005a7 12             4646 	.byte	18
000005a8 00000000*      4647 	.word	.LDW_4d01450
000005ac 00             4648 	.byte	0
                        4649 
000005ad 00             4650 	.byte	0
                        4651 
                        4652 .LDW_4d0b878:
000005ae 45             4653 	.byte	69
000005af 01             4654 	.byte	1
                        4655 

                                                                      Page 85
                                                              C:\Users\nhuliyap\AppData\Local\Temp\gh_0000ds81.s
000005b0 00             4656 	.byte	0
                        4657 
                        4658 .LDW_4d0ad88:
000005b1 44             4659 	.byte	68
000005b2 00000000*      4660 	.word	.LDW_4c438b8
000005b6 01             4661 	.byte	1
                        4662 
                        4663 .LDW_4d085a8:
000005b7 12             4664 	.byte	18
000005b8 00000000*      4665 	.word	.LDW_4c438b8
000005bc 00             4666 	.byte	0
                        4667 
000005bd 00             4668 	.byte	0
                        4669 
                        4670 .LDW_4d0ab20:
000005be 45             4671 	.byte	69
000005bf 01             4672 	.byte	1
                        4673 
000005c0 00             4674 	.byte	0
                        4675 
                        4676 .LDW_4d0afb8:
000005c1 44             4677 	.byte	68
000005c2 00000000*      4678 	.word	.LDW_4c438b8
000005c6 01             4679 	.byte	1
                        4680 
000005c7 00             4681 	.byte	0
                        4682 
                        4683 .LDW_4d0ae68:
000005c8 45             4684 	.byte	69
000005c9 01             4685 	.byte	1
                        4686 
                        4687 .LDW_4d082d8:
000005ca 12             4688 	.byte	18
000005cb 00000000*      4689 	.word	.LDW_4c438b8
000005cf 00             4690 	.byte	0
                        4691 
000005d0 00             4692 	.byte	0
                        4693 
                        4694 .LDW_4cc9e08:
000005d1 28             4695 	.byte	40
000005d2 626f6f6c6561   4696 	.strz	"boolean"
000005d8 6e00 
000005da 4e             4697 	.byte	78
000005db 49             4698 	.byte	73
000005dc 03             4699 	.byte	3
000005dd 00000000*      4700 	.word	.LDW_4876ee0
                        4701 
                        4702 	.section	.debug_abbrev
00000061 28             4703 	.byte	40
00000062 16             4704 	.byte	22
00000063 00             4705 	.byte	0
00000064 0308           4706 	.byte	3,8
00000066 3b0f           4707 	.byte	59,15
00000068 390f           4708 	.byte	57,15
0000006a 3a0f           4709 	.byte	58,15
0000006c 4910           4710 	.byte	73,16
0000006e 0000           4711 	.byte	0,0
                        4712 
                        4713 	.section	.debug_info
                        4714 .LDW_4cb7a10:
000005e1 28             4715 	.byte	40

                                                                      Page 86
                                                              C:\Users\nhuliyap\AppData\Local\Temp\gh_0000ds81.s
000005e2 73696e743800   4716 	.strz	"sint8"
000005e8 4f             4717 	.byte	79
000005e9 4b             4718 	.byte	75
000005ea 03             4719 	.byte	3
000005eb 00000000*      4720 	.word	.LDW_4cb7608
                        4721 
                        4722 .LDW_4c438b8:
000005ef 28             4723 	.byte	40
000005f0 75696e743800   4724 	.strz	"uint8"
000005f6 50             4725 	.byte	80
000005f7 4b             4726 	.byte	75
000005f8 03             4727 	.byte	3
000005f9 00000000*      4728 	.word	.LDW_4876ee0
                        4729 
                        4730 .LDW_4cc9bf8:
000005fd 28             4731 	.byte	40
000005fe 75696e743136   4732 	.strz	"uint16"
00000604 00 
00000605 52             4733 	.byte	82
00000606 4a             4734 	.byte	74
00000607 03             4735 	.byte	3
00000608 00000000*      4736 	.word	.LDW_4cb7448
                        4737 
                        4738 .LDW_4cad198:
0000060c 28             4739 	.byte	40
0000060d 75696e743332   4740 	.strz	"uint32"
00000613 00 
00000614 54             4741 	.byte	84
00000615 4a             4742 	.byte	74
00000616 03             4743 	.byte	3
00000617 00000000*      4744 	.word	.LDW_4877298
                        4745 
                        4746 .LDW_4ce4ae0:
0000061b 2e             4747 	.byte	46
0000061c 54504d534469   4748 	.strz	"TPMSDiagnosticRequest"
00000622 61676e6f7374 
00000628 696352657175 
0000062e 65737400 
00000632 30             4749 	.byte	48
00000633 0e             4750 	.byte	14
00000634 07             4751 	.byte	7
00000635 01             4752 	.byte	1
00000636 01             4753 	.byte	1
                        4754 
                        4755 	.section	.debug_abbrev
00000070 2e             4756 	.byte	46
00000071 04             4757 	.byte	4
00000072 01             4758 	.byte	1
00000073 0308           4759 	.byte	3,8
00000075 3b0f           4760 	.byte	59,15
00000077 390f           4761 	.byte	57,15
00000079 3a0f           4762 	.byte	58,15
0000007b 0b0f           4763 	.byte	11,15
0000007d 320b           4764 	.byte	50,11
0000007f 0000           4765 	.byte	0,0
                        4766 
                        4767 	.section	.debug_info
                        4768 .LDW_4ce4b30:
00000637 2d             4769 	.byte	45
00000638 455f54504d53   4770 	.strz	"E_TPMS_DIAG_READ_WS_ID1"
0000063e 5f444941475f 

                                                                      Page 87
                                                              C:\Users\nhuliyap\AppData\Local\Temp\gh_0000ds81.s
00000644 524541445f57 
0000064a 535f49443100 
00000650 31             4771 	.byte	49
00000651 07             4772 	.byte	7
00000652 07             4773 	.byte	7
00000653 00             4774 	.byte	0
                        4775 
                        4776 	.section	.debug_abbrev
00000081 2d             4777 	.byte	45
00000082 28             4778 	.byte	40
00000083 00             4779 	.byte	0
00000084 0308           4780 	.byte	3,8
00000086 3b0f           4781 	.byte	59,15
00000088 390f           4782 	.byte	57,15
0000008a 3a0f           4783 	.byte	58,15
0000008c 1c0d           4784 	.byte	28,13
0000008e 0000           4785 	.byte	0,0
                        4786 
                        4787 	.section	.debug_info
                        4788 .LDW_4ce4b70:
00000654 2d             4789 	.byte	45
00000655 455f54504d53   4790 	.strz	"E_TPMS_DIAG_READ_WS_ID2"
0000065b 5f444941475f 
00000661 524541445f57 
00000667 535f49443200 
0000066d 32             4791 	.byte	50
0000066e 07             4792 	.byte	7
0000066f 07             4793 	.byte	7
00000670 01             4794 	.byte	1
                        4795 
                        4796 .LDW_4ce4bb0:
00000671 2d             4797 	.byte	45
00000672 455f54504d53   4798 	.strz	"E_TPMS_DIAG_READ_WS_ID3"
00000678 5f444941475f 
0000067e 524541445f57 
00000684 535f49443300 
0000068a 33             4799 	.byte	51
0000068b 07             4800 	.byte	7
0000068c 07             4801 	.byte	7
0000068d 02             4802 	.byte	2
                        4803 
                        4804 .LDW_4ce4bf0:
0000068e 2d             4805 	.byte	45
0000068f 455f54504d53   4806 	.strz	"E_TPMS_DIAG_READ_WS_ID4"
00000695 5f444941475f 
0000069b 524541445f57 
000006a1 535f49443400 
000006a7 34             4807 	.byte	52
000006a8 07             4808 	.byte	7
000006a9 07             4809 	.byte	7
000006aa 03             4810 	.byte	3
                        4811 
                        4812 .LDW_4ce4c30:
000006ab 2d             4813 	.byte	45
000006ac 455f54504d53   4814 	.strz	"E_TPMS_DIAG_READ_ID_FL"
000006b2 5f444941475f 
000006b8 524541445f49 
000006be 445f464c00 
000006c3 35             4815 	.byte	53
000006c4 07             4816 	.byte	7
000006c5 07             4817 	.byte	7

                                                                      Page 88
                                                              C:\Users\nhuliyap\AppData\Local\Temp\gh_0000ds81.s
000006c6 04             4818 	.byte	4
                        4819 
                        4820 .LDW_4ce4c70:
000006c7 2d             4821 	.byte	45
000006c8 455f54504d53   4822 	.strz	"E_TPMS_DIAG_READ_ID_FR"
000006ce 5f444941475f 
000006d4 524541445f49 
000006da 445f465200 
000006df 36             4823 	.byte	54
000006e0 07             4824 	.byte	7
000006e1 07             4825 	.byte	7
000006e2 05             4826 	.byte	5
                        4827 
                        4828 .LDW_4ce4cb0:
000006e3 2d             4829 	.byte	45
000006e4 455f54504d53   4830 	.strz	"E_TPMS_DIAG_READ_ID_RR"
000006ea 5f444941475f 
000006f0 524541445f49 
000006f6 445f525200 
000006fb 37             4831 	.byte	55
000006fc 07             4832 	.byte	7
000006fd 07             4833 	.byte	7
000006fe 06             4834 	.byte	6
                        4835 
                        4836 .LDW_4ce4cf0:
000006ff 2d             4837 	.byte	45
00000700 455f54504d53   4838 	.strz	"E_TPMS_DIAG_READ_ID_RL"
00000706 5f444941475f 
0000070c 524541445f49 
00000712 445f524c00 
00000717 38             4839 	.byte	56
00000718 07             4840 	.byte	7
00000719 07             4841 	.byte	7
0000071a 07             4842 	.byte	7
                        4843 
                        4844 .LDW_4ce4d30:
0000071b 2d             4845 	.byte	45
0000071c 455f54504d53   4846 	.strz	"E_TPMS_DIAG_READ_LAST_RECEIVED_WS"
00000722 5f444941475f 
00000728 524541445f4c 
0000072e 4153545f5245 
00000734 434549564544 
0000073a 5f575300 
0000073e 39             4847 	.byte	57
0000073f 07             4848 	.byte	7
00000740 07             4849 	.byte	7
00000741 08             4850 	.byte	8
                        4851 
                        4852 .LDW_4ce5218:
00000742 2d             4853 	.byte	45
00000743 455f54504d53   4854 	.strz	"E_TPMS_DIAG_WRITE_WS_ID1"
00000749 5f444941475f 
0000074f 57524954455f 
00000755 57535f494431 
0000075b 00 
0000075c 3a             4855 	.byte	58
0000075d 07             4856 	.byte	7
0000075e 07             4857 	.byte	7
0000075f 09             4858 	.byte	9
                        4859 
                        4860 .LDW_4ce5358:

                                                                      Page 89
                                                              C:\Users\nhuliyap\AppData\Local\Temp\gh_0000ds81.s
00000760 2d             4861 	.byte	45
00000761 455f54504d53   4862 	.strz	"E_TPMS_DIAG_WRITE_WS_ID2"
00000767 5f444941475f 
0000076d 57524954455f 
00000773 57535f494432 
00000779 00 
0000077a 3b             4863 	.byte	59
0000077b 07             4864 	.byte	7
0000077c 07             4865 	.byte	7
0000077d 0a             4866 	.byte	10
                        4867 
                        4868 .LDW_4ce5458:
0000077e 2d             4869 	.byte	45
0000077f 455f54504d53   4870 	.strz	"E_TPMS_DIAG_WRITE_WS_ID3"
00000785 5f444941475f 
0000078b 57524954455f 
00000791 57535f494433 
00000797 00 
00000798 3c             4871 	.byte	60
00000799 07             4872 	.byte	7
0000079a 07             4873 	.byte	7
0000079b 0b             4874 	.byte	11
                        4875 
                        4876 .LDW_4ce5058:
0000079c 2d             4877 	.byte	45
0000079d 455f54504d53   4878 	.strz	"E_TPMS_DIAG_WRITE_WS_ID4"
000007a3 5f444941475f 
000007a9 57524954455f 
000007af 57535f494434 
000007b5 00 
000007b6 3d             4879 	.byte	61
000007b7 07             4880 	.byte	7
000007b8 07             4881 	.byte	7
000007b9 0c             4882 	.byte	12
                        4883 
                        4884 .LDW_4ce50d8:
000007ba 2d             4885 	.byte	45
000007bb 455f54504d53   4886 	.strz	"E_TPMS_DIAG_READ_WS_IDS"
000007c1 5f444941475f 
000007c7 524541445f57 
000007cd 535f49445300 
000007d3 3e             4887 	.byte	62
000007d4 07             4888 	.byte	7
000007d5 07             4889 	.byte	7
000007d6 0d             4890 	.byte	13
                        4891 
                        4892 .LDW_4ce4f58:
000007d7 2d             4893 	.byte	45
000007d8 455f54504d53   4894 	.strz	"E_TPMS_DIAG_WRITE_WS_IDS"
000007de 5f444941475f 
000007e4 57524954455f 
000007ea 57535f494453 
000007f0 00 
000007f1 3f             4895 	.byte	63
000007f2 07             4896 	.byte	7
000007f3 07             4897 	.byte	7
000007f4 0e             4898 	.byte	14
                        4899 
                        4900 .LDW_4ce4fd8:
000007f5 2d             4901 	.byte	45
000007f6 455f54504d53   4902 	.strz	"E_TPMS_DIAG_READ_SPECIFIC_PARAMETERS"

                                                                      Page 90
                                                              C:\Users\nhuliyap\AppData\Local\Temp\gh_0000ds81.s
000007fc 5f444941475f 
00000802 524541445f53 
00000808 504543494649 
0000080e 435f50415241 
00000814 4d4554455253 
0000081a 00 
0000081b 40             4903 	.byte	64
0000081c 07             4904 	.byte	7
0000081d 07             4905 	.byte	7
0000081e 0f             4906 	.byte	15
                        4907 
                        4908 .LDW_4ce4f98:
0000081f 2d             4909 	.byte	45
00000820 455f54504d53   4910 	.strz	"E_TPMS_DIAG_WRITE_SPECIFIC_PARAMETERS"
00000826 5f444941475f 
0000082c 57524954455f 
00000832 535045434946 
00000838 49435f504152 
0000083e 414d45544552 
00000844 5300 
00000846 41             4911 	.byte	65
00000847 07             4912 	.byte	7
00000848 07             4913 	.byte	7
00000849 10             4914 	.byte	16
                        4915 
                        4916 .LDW_4ce5258:
0000084a 2d             4917 	.byte	45
0000084b 455f54504d53   4918 	.strz	"E_TPMS_DIAG_READ_AUTO_LEARN_WS_PARAMETERS"
00000851 5f444941475f 
00000857 524541445f41 
0000085d 55544f5f4c45 
00000863 41524e5f5753 
00000869 5f504152414d 
0000086f 455445525300 
00000875 42             4919 	.byte	66
00000876 07             4920 	.byte	7
00000877 07             4921 	.byte	7
00000878 11             4922 	.byte	17
                        4923 
                        4924 .LDW_4ce54d8:
00000879 2d             4925 	.byte	45
0000087a 455f54504d53   4926 	.strz	"E_TPMS_DIAG_WRITE_AUTO_LEARN_WS_PARAMETERS"
00000880 5f444941475f 
00000886 57524954455f 
0000088c 4155544f5f4c 
00000892 4541524e5f57 
00000898 535f50415241 
0000089e 4d4554455253 
000008a4 00 
000008a5 43             4927 	.byte	67
000008a6 07             4928 	.byte	7
000008a7 07             4929 	.byte	7
000008a8 12             4930 	.byte	18
                        4931 
                        4932 .LDW_4ce5318:
000008a9 2d             4933 	.byte	45
000008aa 455f54504d53   4934 	.strz	"E_TPMS_DIAG_READ_PRESSURE_OF_MIN_PRESS"
000008b0 5f444941475f 
000008b6 524541445f50 
000008bc 524553535552 
000008c2 455f4f465f4d 

                                                                      Page 91
                                                              C:\Users\nhuliyap\AppData\Local\Temp\gh_0000ds81.s
000008c8 494e5f505245 
000008ce 535300 
000008d1 44             4935 	.byte	68
000008d2 07             4936 	.byte	7
000008d3 07             4937 	.byte	7
000008d4 13             4938 	.byte	19
                        4939 
                        4940 .LDW_4ce5158:
000008d5 2d             4941 	.byte	45
000008d6 455f54504d53   4942 	.strz	"E_TPMS_DIAG_WRITE_PRESSURE_OF_MIN_PRESS"
000008dc 5f444941475f 
000008e2 57524954455f 
000008e8 505245535355 
000008ee 52455f4f465f 
000008f4 4d494e5f5052 
000008fa 45535300 
000008fe 45             4943 	.byte	69
000008ff 07             4944 	.byte	7
00000900 07             4945 	.byte	7
00000901 14             4946 	.byte	20
                        4947 
                        4948 .LDW_4ce52d8:
00000902 2d             4949 	.byte	45
00000903 455f54504d53   4950 	.strz	"E_TPMS_DIAG_START_TPMS_EOL"
00000909 5f444941475f 
0000090f 53544152545f 
00000915 54504d535f45 
0000091b 4f4c00 
0000091e 46             4951 	.byte	70
0000091f 07             4952 	.byte	7
00000920 07             4953 	.byte	7
00000921 15             4954 	.byte	21
                        4955 
                        4956 .LDW_4ce5018:
00000922 2d             4957 	.byte	45
00000923 455f54504d53   4958 	.strz	"E_TPMS_DIAG_STOP_TPMS_EOL"
00000929 5f444941475f 
0000092f 53544f505f54 
00000935 504d535f454f 
0000093b 4c00 
0000093d 47             4959 	.byte	71
0000093e 07             4960 	.byte	7
0000093f 07             4961 	.byte	7
00000940 16             4962 	.byte	22
                        4963 
                        4964 .LDW_4ce51d8:
00000941 2d             4965 	.byte	45
00000942 455f54504d53   4966 	.strz	"E_TPMS_DIAG_RESULT_TPMS_EOL"
00000948 5f444941475f 
0000094e 524553554c54 
00000954 5f54504d535f 
0000095a 454f4c00 
0000095e 48             4967 	.byte	72
0000095f 07             4968 	.byte	7
00000960 07             4969 	.byte	7
00000961 17             4970 	.byte	23
                        4971 
                        4972 .LDW_4ce5298:
00000962 2d             4973 	.byte	45
00000963 455f54504d53   4974 	.strz	"E_TPMS_DIAG_READ_ECU_FAULT_REASON"
00000969 5f444941475f 

                                                                      Page 92
                                                              C:\Users\nhuliyap\AppData\Local\Temp\gh_0000ds81.s
0000096f 524541445f45 
00000975 43555f464155 
0000097b 4c545f524541 
00000981 534f4e00 
00000985 49             4975 	.byte	73
00000986 07             4976 	.byte	7
00000987 07             4977 	.byte	7
00000988 18             4978 	.byte	24
                        4979 
                        4980 .LDW_4ce4ed8:
00000989 2d             4981 	.byte	45
0000098a 455f54504d53   4982 	.strz	"E_TPMS_DIAG_WRITE_ECU_FAULT_REASON"
00000990 5f444941475f 
00000996 57524954455f 
0000099c 4543555f4641 
000009a2 554c545f5245 
000009a8 41534f4e00 
000009ad 4a             4983 	.byte	74
000009ae 07             4984 	.byte	7
000009af 07             4985 	.byte	7
000009b0 19             4986 	.byte	25
                        4987 
                        4988 .LDW_4ce5098:
000009b1 2d             4989 	.byte	45
000009b2 455f54504d53   4990 	.strz	"E_TPMS_DIAG_READ_ECU_POSITION"
000009b8 5f444941475f 
000009be 524541445f45 
000009c4 43555f504f53 
000009ca 4954494f4e00 
000009d0 4b             4991 	.byte	75
000009d1 07             4992 	.byte	7
000009d2 07             4993 	.byte	7
000009d3 1a             4994 	.byte	26
                        4995 
                        4996 .LDW_4ce5398:
000009d4 2d             4997 	.byte	45
000009d5 455f54504d53   4998 	.strz	"E_TPMS_DIAG_WRITE_ECU_POSITION"
000009db 5f444941475f 
000009e1 57524954455f 
000009e7 4543555f504f 
000009ed 534954494f4e 
000009f3 00 
000009f4 4c             4999 	.byte	76
000009f5 07             5000 	.byte	7
000009f6 07             5001 	.byte	7
000009f7 1b             5002 	.byte	27
                        5003 
                        5004 .LDW_4ce4f18:
000009f8 2d             5005 	.byte	45
000009f9 455f54504d53   5006 	.strz	"E_TPMS_DIAG_READ_ABS_TICKS"
000009ff 5f444941475f 
00000a05 524541445f41 
00000a0b 42535f544943 
00000a11 4b5300 
00000a14 4d             5007 	.byte	77
00000a15 07             5008 	.byte	7
00000a16 07             5009 	.byte	7
00000a17 1c             5010 	.byte	28
                        5011 
                        5012 .LDW_4ce53d8:
00000a18 2d             5013 	.byte	45

                                                                      Page 93
                                                              C:\Users\nhuliyap\AppData\Local\Temp\gh_0000ds81.s
00000a19 455f54504d53   5014 	.strz	"E_TPMS_DIAG_WRITE_ABS_TICKS"
00000a1f 5f444941475f 
00000a25 57524954455f 
00000a2b 4142535f5449 
00000a31 434b5300 
00000a35 4e             5015 	.byte	78
00000a36 07             5016 	.byte	7
00000a37 07             5017 	.byte	7
00000a38 1d             5018 	.byte	29
                        5019 
                        5020 .LDW_4ce5418:
00000a39 2d             5021 	.byte	45
00000a3a 455f54504d53   5022 	.strz	"E_TPMS_DIAG_READ_NOISE_LEVEL"
00000a40 5f444941475f 
00000a46 524541445f4e 
00000a4c 4f4953455f4c 
00000a52 4556454c00 
00000a57 4f             5023 	.byte	79
00000a58 07             5024 	.byte	7
00000a59 07             5025 	.byte	7
00000a5a 1e             5026 	.byte	30
                        5027 
                        5028 .LDW_4ce5198:
00000a5b 2d             5029 	.byte	45
00000a5c 455f54504d53   5030 	.strz	"E_TPMS_DIAG_WRITE_NOISE_LEVEL"
00000a62 5f444941475f 
00000a68 57524954455f 
00000a6e 4e4f4953455f 
00000a74 4c4556454c00 
00000a7a 50             5031 	.byte	80
00000a7b 07             5032 	.byte	7
00000a7c 07             5033 	.byte	7
00000a7d 1f             5034 	.byte	31
                        5035 
                        5036 .LDW_4ce5118:
00000a7e 2d             5037 	.byte	45
00000a7f 455f54504d53   5038 	.strz	"E_TPMS_DIAG_READ_TEMPERATURE_WARNING_THR"
00000a85 5f444941475f 
00000a8b 524541445f54 
00000a91 454d50455241 
00000a97 545552455f57 
00000a9d 41524e494e47 
00000aa3 5f54485200 
00000aa8 51             5039 	.byte	81
00000aa9 07             5040 	.byte	7
00000aaa 07             5041 	.byte	7
00000aab 20             5042 	.byte	32
                        5043 
                        5044 .LDW_4ce5498:
00000aac 2d             5045 	.byte	45
00000aad 455f54504d53   5046 	.strz	"E_TPMS_DIAG_WRITE_TEMPERATURE_WARNING_THR"
00000ab3 5f444941475f 
00000ab9 57524954455f 
00000abf 54454d504552 
00000ac5 41545552455f 
00000acb 5741524e494e 
00000ad1 475f54485200 
00000ad7 52             5047 	.byte	82
00000ad8 07             5048 	.byte	7
00000ad9 07             5049 	.byte	7
00000ada 21             5050 	.byte	33

                                                                      Page 94
                                                              C:\Users\nhuliyap\AppData\Local\Temp\gh_0000ds81.s
                        5051 
                        5052 .LDW_4ce5518:
00000adb 2d             5053 	.byte	45
00000adc 455f54504d53   5054 	.strz	"E_TPMS_DIAG_MAX_NUMBER"
00000ae2 5f444941475f 
00000ae8 4d41585f4e55 
00000aee 4d42455200 
00000af3 53             5055 	.byte	83
00000af4 07             5056 	.byte	7
00000af5 07             5057 	.byte	7
00000af6 22             5058 	.byte	34
                        5059 
00000af7 00             5060 	.byte	0
                        5061 
                        5062 .LDW_4cca438:
00000af8 28             5063 	.byte	40
00000af9 656e756d5f54   5064 	.strz	"enum_TPMSDiagnosticRequest"
00000aff 504d53446961 
00000b05 676e6f737469 
00000b0b 635265717565 
00000b11 737400 
00000b14 54             5065 	.byte	84
00000b15 02             5066 	.byte	2
00000b16 07             5067 	.byte	7
00000b17 00000000*      5068 	.word	.LDW_4ce4ae0
                        5069 
                        5070 .LDW_4c43910:
00000b1b 41             5071 	.byte	65
00000b1c b301           5072 	.byte	179,1
00000b1e 0f             5073 	.byte	15
00000b1f 07             5074 	.byte	7
00000b20 10             5075 	.byte	16
00000b21 01             5076 	.byte	1
                        5077 
                        5078 	.section	.debug_abbrev
00000090 41             5079 	.byte	65
00000091 13             5080 	.byte	19
00000092 01             5081 	.byte	1
00000093 3b0f           5082 	.byte	59,15
00000095 390f           5083 	.byte	57,15
00000097 3a0f           5084 	.byte	58,15
00000099 0b0f           5085 	.byte	11,15
0000009b 320b           5086 	.byte	50,11
0000009d 0000           5087 	.byte	0,0
                        5088 
                        5089 	.section	.debug_info
                        5090 .LDW_4cefba8:
00000b22 23             5091 	.byte	35
00000b23 707563526571   5092 	.strz	"pucReqData"
00000b29 4461746100 
00000b2e b401           5093 	.byte	180,1
00000b30 0c             5094 	.byte	12
00000b31 07             5095 	.byte	7
00000b32 00000000*      5096 	.word	.LDW_4cb7790
00000b36 0223           5097 	.byte	2,35
00000b38 00             5098 	.byte	0
00000b39 01             5099 	.byte	1
                        5100 
                        5101 	.section	.debug_abbrev
0000009f 23             5102 	.byte	35
000000a0 0d             5103 	.byte	13

                                                                      Page 95
                                                              C:\Users\nhuliyap\AppData\Local\Temp\gh_0000ds81.s
000000a1 00             5104 	.byte	0
000000a2 0308           5105 	.byte	3,8
000000a4 3b0f           5106 	.byte	59,15
000000a6 390f           5107 	.byte	57,15
000000a8 3a0f           5108 	.byte	58,15
000000aa 4910           5109 	.byte	73,16
000000ac 380a           5110 	.byte	56,10
000000ae 320b           5111 	.byte	50,11
000000b0 0000           5112 	.byte	0,0
                        5113 
                        5114 	.section	.debug_info
                        5115 .LDW_4cef6e0:
00000b3a 23             5116 	.byte	35
00000b3b 756952657144   5117 	.strz	"uiReqDataLen"
00000b41 6174614c656e 
00000b47 00 
00000b48 b501           5118 	.byte	181,1
00000b4a 0b             5119 	.byte	11
00000b4b 07             5120 	.byte	7
00000b4c 00000000*      5121 	.word	.LDW_4cc9bf8
00000b50 0223           5122 	.byte	2,35
00000b52 04             5123 	.byte	4
00000b53 01             5124 	.byte	1
                        5125 
                        5126 .LDW_4cefc38:
00000b54 23             5127 	.byte	35
00000b55 707563526573   5128 	.strz	"pucResData"
00000b5b 4461746100 
00000b60 b601           5129 	.byte	182,1
00000b62 0c             5130 	.byte	12
00000b63 07             5131 	.byte	7
00000b64 00000000*      5132 	.word	.LDW_4cb7790
00000b68 0223           5133 	.byte	2,35
00000b6a 08             5134 	.byte	8
00000b6b 01             5135 	.byte	1
                        5136 
                        5137 .LDW_4cef728:
00000b6c 23             5138 	.byte	35
00000b6d 707569526573   5139 	.strz	"puiResDataLen"
00000b73 446174614c65 
00000b79 6e00 
00000b7b b701           5140 	.byte	183,1
00000b7d 0c             5141 	.byte	12
00000b7e 07             5142 	.byte	7
00000b7f 00000000*      5143 	.word	.LDW_4b50400
00000b83 0223           5144 	.byte	2,35
00000b85 0c             5145 	.byte	12
00000b86 01             5146 	.byte	1
                        5147 
00000b87 00             5148 	.byte	0
                        5149 
                        5150 .LDW_4c43968:
00000b88 28             5151 	.byte	40
00000b89 747354504d53   5152 	.strz	"tsTPMSDiag_Data"
00000b8f 446961675f44 
00000b95 61746100 
00000b99 b801           5153 	.byte	184,1
00000b9b 02             5154 	.byte	2
00000b9c 07             5155 	.byte	7
00000b9d 00000000*      5156 	.word	.LDW_4c43910
                        5157 

                                                                      Page 96
                                                              C:\Users\nhuliyap\AppData\Local\Temp\gh_0000ds81.s
                        5158 .LDW_4cad980:
00000ba1 41             5159 	.byte	65
00000ba2 0a             5160 	.byte	10
00000ba3 10             5161 	.byte	16
00000ba4 13             5162 	.byte	19
00000ba5 19             5163 	.byte	25
00000ba6 01             5164 	.byte	1
                        5165 
                        5166 .LDW_4cf42d0:
00000ba7 23             5167 	.byte	35
00000ba8 756357414374   5168 	.strz	"ucWACtrl"
00000bae 726c00 
00000bb1 0b             5169 	.byte	11
00000bb2 12             5170 	.byte	18
00000bb3 13             5171 	.byte	19
00000bb4 00000000*      5172 	.word	.LDW_4876ee0
00000bb8 0223           5173 	.byte	2,35
00000bba 00             5174 	.byte	0
00000bbb 01             5175 	.byte	1
                        5176 
                        5177 .LDW_4cf4120:
00000bbc 23             5178 	.byte	35
00000bbd 75634d696e52   5179 	.strz	"ucMinRssiLevel"
00000bc3 7373694c6576 
00000bc9 656c00 
00000bcc 0c             5180 	.byte	12
00000bcd 12             5181 	.byte	18
00000bce 13             5182 	.byte	19
00000bcf 00000000*      5183 	.word	.LDW_4876ee0
00000bd3 0223           5184 	.byte	2,35
00000bd5 01             5185 	.byte	1
00000bd6 01             5186 	.byte	1
                        5187 
                        5188 .LDW_4cf3f28:
00000bd7 23             5189 	.byte	35
00000bd8 75634d696e52   5190 	.strz	"ucMinRssiDistance"
00000bde 737369446973 
00000be4 74616e636500 
00000bea 0d             5191 	.byte	13
00000beb 12             5192 	.byte	18
00000bec 13             5193 	.byte	19
00000bed 00000000*      5194 	.word	.LDW_4876ee0
00000bf1 0223           5195 	.byte	2,35
00000bf3 02             5196 	.byte	2
00000bf4 01             5197 	.byte	1
                        5198 
                        5199 .LDW_4cf4318:
00000bf5 23             5200 	.byte	35
00000bf6 75634d696e56   5201 	.strz	"ucMinVariationDistance"
00000bfc 617269617469 
00000c02 6f6e44697374 
00000c08 616e636500 
00000c0d 0e             5202 	.byte	14
00000c0e 12             5203 	.byte	18
00000c0f 13             5204 	.byte	19
00000c10 00000000*      5205 	.word	.LDW_4876ee0
00000c14 0223           5206 	.byte	2,35
00000c16 03             5207 	.byte	3
00000c17 01             5208 	.byte	1
                        5209 
                        5210 .LDW_4cf4168:

                                                                      Page 97
                                                              C:\Users\nhuliyap\AppData\Local\Temp\gh_0000ds81.s
00000c18 23             5211 	.byte	35
00000c19 75634c655269   5212 	.strz	"ucLeRiMinDistance"
00000c1f 4d696e446973 
00000c25 74616e636500 
00000c2b 0f             5213 	.byte	15
00000c2c 12             5214 	.byte	18
00000c2d 13             5215 	.byte	19
00000c2e 00000000*      5216 	.word	.LDW_4876ee0
00000c32 0223           5217 	.byte	2,35
00000c34 04             5218 	.byte	4
00000c35 01             5219 	.byte	1
                        5220 
                        5221 .LDW_4cf43a8:
00000c36 23             5222 	.byte	35
00000c37 756345637550   5223 	.strz	"ucEcuPosition"
00000c3d 6f736974696f 
00000c43 6e00 
00000c45 10             5224 	.byte	16
00000c46 12             5225 	.byte	18
00000c47 13             5226 	.byte	19
00000c48 00000000*      5227 	.word	.LDW_4876ee0
00000c4c 0223           5228 	.byte	2,35
00000c4e 05             5229 	.byte	5
00000c4f 01             5230 	.byte	1
                        5231 
                        5232 .LDW_4cf43f0:
00000c50 23             5233 	.byte	35
00000c51 75634d696e43   5234 	.strz	"ucMinCt4ER"
00000c57 7434455200 
00000c5c 11             5235 	.byte	17
00000c5d 12             5236 	.byte	18
00000c5e 13             5237 	.byte	19
00000c5f 00000000*      5238 	.word	.LDW_4876ee0
00000c63 0223           5239 	.byte	2,35
00000c65 06             5240 	.byte	6
00000c66 01             5241 	.byte	1
                        5242 
                        5243 .LDW_4cf3fb8:
00000c67 23             5244 	.byte	35
00000c68 75634d696e43   5245 	.strz	"ucMinCt4HistER"
00000c6e 743448697374 
00000c74 455200 
00000c77 12             5246 	.byte	18
00000c78 12             5247 	.byte	18
00000c79 13             5248 	.byte	19
00000c7a 00000000*      5249 	.word	.LDW_4876ee0
00000c7e 0223           5250 	.byte	2,35
00000c80 07             5251 	.byte	7
00000c81 01             5252 	.byte	1
                        5253 
                        5254 .LDW_4cf41b0:
00000c82 23             5255 	.byte	35
00000c83 75634d696e43   5256 	.strz	"ucMinCt4ZomReset"
00000c89 74345a6f6d52 
00000c8f 6573657400 
00000c94 13             5257 	.byte	19
00000c95 12             5258 	.byte	18
00000c96 13             5259 	.byte	19
00000c97 00000000*      5260 	.word	.LDW_4876ee0
00000c9b 0223           5261 	.byte	2,35
00000c9d 08             5262 	.byte	8

                                                                      Page 98
                                                              C:\Users\nhuliyap\AppData\Local\Temp\gh_0000ds81.s
00000c9e 01             5263 	.byte	1
                        5264 
                        5265 .LDW_4cf41f8:
00000c9f 23             5266 	.byte	35
00000ca0 75634d696e45   5267 	.strz	"ucMinERMeanRssiLevel"
00000ca6 524d65616e52 
00000cac 7373694c6576 
00000cb2 656c00 
00000cb5 14             5268 	.byte	20
00000cb6 12             5269 	.byte	18
00000cb7 13             5270 	.byte	19
00000cb8 00000000*      5271 	.word	.LDW_4876ee0
00000cbc 0223           5272 	.byte	2,35
00000cbe 09             5273 	.byte	9
00000cbf 01             5274 	.byte	1
                        5275 
                        5276 .LDW_4cf4240:
00000cc0 23             5277 	.byte	35
00000cc1 5741544f5469   5278 	.strz	"WATOTimeInSec"
00000cc7 6d65496e5365 
00000ccd 6300 
00000ccf 15             5279 	.byte	21
00000cd0 12             5280 	.byte	18
00000cd1 13             5281 	.byte	19
00000cd2 00000000*      5282 	.word	.LDW_4876ee0
00000cd6 0223           5283 	.byte	2,35
00000cd8 0a             5284 	.byte	10
00000cd9 01             5285 	.byte	1
                        5286 
                        5287 .LDW_4cf4480:
00000cda 23             5288 	.byte	35
00000cdb 756354696d65   5289 	.strz	"ucTimeoutAutoLoc"
00000ce1 6f7574417574 
00000ce7 6f4c6f6300 
00000cec 16             5290 	.byte	22
00000ced 12             5291 	.byte	18
00000cee 13             5292 	.byte	19
00000cef 00000000*      5293 	.word	.LDW_4876ee0
00000cf3 0223           5294 	.byte	2,35
00000cf5 0b             5295 	.byte	11
00000cf6 01             5296 	.byte	1
                        5297 
                        5298 .LDW_4cf44c8:
00000cf7 23             5299 	.byte	35
00000cf8 75634e65774d   5300 	.strz	"ucNewMinCntEvt"
00000cfe 696e436e7445 
00000d04 767400 
00000d07 17             5301 	.byte	23
00000d08 12             5302 	.byte	18
00000d09 13             5303 	.byte	19
00000d0a 00000000*      5304 	.word	.LDW_4876ee0
00000d0e 0223           5305 	.byte	2,35
00000d10 0c             5306 	.byte	12
00000d11 01             5307 	.byte	1
                        5308 
                        5309 .LDW_4cf3820:
00000d12 23             5310 	.byte	35
00000d13 75634d696e54   5311 	.strz	"ucMinTimeProtectER"
00000d19 696d6550726f 
00000d1f 746563744552 
00000d25 00 

                                                                      Page 99
                                                              C:\Users\nhuliyap\AppData\Local\Temp\gh_0000ds81.s
00000d26 18             5312 	.byte	24
00000d27 12             5313 	.byte	18
00000d28 13             5314 	.byte	19
00000d29 00000000*      5315 	.word	.LDW_4876ee0
00000d2d 0223           5316 	.byte	2,35
00000d2f 0d             5317 	.byte	13
00000d30 01             5318 	.byte	1
                        5319 
                        5320 .LDW_4cf3a18:
00000d31 23             5321 	.byte	35
00000d32 75636e4d696e   5322 	.strz	"ucnMinRxTGRF"
00000d38 527854475246 
00000d3e 00 
00000d3f 19             5323 	.byte	25
00000d40 12             5324 	.byte	18
00000d41 13             5325 	.byte	19
00000d42 00000000*      5326 	.word	.LDW_4876ee0
00000d46 0223           5327 	.byte	2,35
00000d48 0e             5328 	.byte	14
00000d49 01             5329 	.byte	1
                        5330 
                        5331 .LDW_4cf3b80:
00000d4a 23             5332 	.byte	35
00000d4b 75636e52656c   5333 	.strz	"ucnRelValMinDiff"
00000d51 56616c4d696e 
00000d57 4469666600 
00000d5c 1a             5334 	.byte	26
00000d5d 12             5335 	.byte	18
00000d5e 13             5336 	.byte	19
00000d5f 00000000*      5337 	.word	.LDW_4876ee0
00000d63 0223           5338 	.byte	2,35
00000d65 0f             5339 	.byte	15
00000d66 01             5340 	.byte	1
                        5341 
                        5342 .LDW_4cf37d8:
00000d67 23             5343 	.byte	35
00000d68 75636e52656c   5344 	.strz	"ucnRelValMidDiff"
00000d6e 56616c4d6964 
00000d74 4469666600 
00000d79 1b             5345 	.byte	27
00000d7a 12             5346 	.byte	18
00000d7b 13             5347 	.byte	19
00000d7c 00000000*      5348 	.word	.LDW_4876ee0
00000d80 0223           5349 	.byte	2,35
00000d82 10             5350 	.byte	16
00000d83 01             5351 	.byte	1
                        5352 
                        5353 .LDW_4cf3d78:
00000d84 23             5354 	.byte	35
00000d85 75636e52656c   5355 	.strz	"ucnRelValCompetDiff"
00000d8b 56616c436f6d 
00000d91 706574446966 
00000d97 6600 
00000d99 1c             5356 	.byte	28
00000d9a 12             5357 	.byte	18
00000d9b 13             5358 	.byte	19
00000d9c 00000000*      5359 	.word	.LDW_4876ee0
00000da0 0223           5360 	.byte	2,35
00000da2 11             5361 	.byte	17
00000da3 01             5362 	.byte	1
                        5363 

                                                                      Page 100
                                                              C:\Users\nhuliyap\AppData\Local\Temp\gh_0000ds81.s
                        5364 .LDW_4cf3dc0:
00000da4 23             5365 	.byte	35
00000da5 75634d61785a   5366 	.strz	"ucMaxZOnorm"
00000dab 4f6e6f726d00 
00000db1 1d             5367 	.byte	29
00000db2 12             5368 	.byte	18
00000db3 13             5369 	.byte	19
00000db4 00000000*      5370 	.word	.LDW_4876ee0
00000db8 0223           5371 	.byte	2,35
00000dba 12             5372 	.byte	18
00000dbb 01             5373 	.byte	1
                        5374 
                        5375 .LDW_4cf36b8:
00000dbc 23             5376 	.byte	35
00000dbd 75636e4d696e   5377 	.strz	"ucnMinA"
00000dc3 4100 
00000dc5 1e             5378 	.byte	30
00000dc6 12             5379 	.byte	18
00000dc7 13             5380 	.byte	19
00000dc8 00000000*      5381 	.word	.LDW_4876ee0
00000dcc 0223           5382 	.byte	2,35
00000dce 13             5383 	.byte	19
00000dcf 01             5384 	.byte	1
                        5385 
                        5386 .LDW_4cf39d0:
00000dd0 23             5387 	.byte	35
00000dd1 75634d696e53   5388 	.strz	"ucMinSpeedAutoLearnStart"
00000dd7 706565644175 
00000ddd 746f4c656172 
00000de3 6e5374617274 
00000de9 00 
00000dea 1f             5389 	.byte	31
00000deb 12             5390 	.byte	18
00000dec 13             5391 	.byte	19
00000ded 00000000*      5392 	.word	.LDW_4876ee0
00000df1 0223           5393 	.byte	2,35
00000df3 14             5394 	.byte	20
00000df4 01             5395 	.byte	1
                        5396 
                        5397 .LDW_4cf3790:
00000df5 23             5398 	.byte	35
00000df6 75634f666673   5399 	.strz	"ucOffsetOverlapsGXe"
00000dfc 65744f766572 
00000e02 6c6170734758 
00000e08 6500 
00000e0a 20             5400 	.byte	32
00000e0b 12             5401 	.byte	18
00000e0c 13             5402 	.byte	19
00000e0d 00000000*      5403 	.word	.LDW_4876ee0
00000e11 0223           5404 	.byte	2,35
00000e13 15             5405 	.byte	21
00000e14 01             5406 	.byte	1
                        5407 
                        5408 .LDW_4cf3a60:
00000e15 23             5409 	.byte	35
00000e16 75636e567765   5410 	.strz	"ucnVweight"
00000e1c 6967687400 
00000e21 21             5411 	.byte	33
00000e22 12             5412 	.byte	18
00000e23 13             5413 	.byte	19
00000e24 00000000*      5414 	.word	.LDW_4876ee0

                                                                      Page 101
                                                              C:\Users\nhuliyap\AppData\Local\Temp\gh_0000ds81.s
00000e28 0223           5415 	.byte	2,35
00000e2a 16             5416 	.byte	22
00000e2b 01             5417 	.byte	1
                        5418 
                        5419 .LDW_4cf3bc8:
00000e2c 23             5420 	.byte	35
00000e2d 75634d696e4f   5421 	.strz	"ucMinOffsetGXe"
00000e33 666673657447 
00000e39 586500 
00000e3c 22             5422 	.byte	34
00000e3d 12             5423 	.byte	18
00000e3e 13             5424 	.byte	19
00000e3f 00000000*      5425 	.word	.LDW_4876ee0
00000e43 0223           5426 	.byte	2,35
00000e45 17             5427 	.byte	23
00000e46 01             5428 	.byte	1
                        5429 
                        5430 .LDW_4cf3aa8:
00000e47 23             5431 	.byte	35
00000e48 756353756666   5432 	.strz	"ucSufficientRssiDistance"
00000e4e 696369656e74 
00000e54 527373694469 
00000e5a 7374616e6365 
00000e60 00 
00000e61 23             5433 	.byte	35
00000e62 12             5434 	.byte	18
00000e63 13             5435 	.byte	19
00000e64 00000000*      5436 	.word	.LDW_4876ee0
00000e68 0223           5437 	.byte	2,35
00000e6a 18             5438 	.byte	24
00000e6b 01             5439 	.byte	1
                        5440 
00000e6c 00             5441 	.byte	0
                        5442 
                        5443 .LDW_4cacf30:
00000e6d 28             5444 	.byte	40
00000e6e 574150617261   5445 	.strz	"WAParameter"
00000e74 6d6574657200 
00000e7a 24             5446 	.byte	36
00000e7b 03             5447 	.byte	3
00000e7c 13             5448 	.byte	19
00000e7d 00000000*      5449 	.word	.LDW_4cad980
                        5450 
                        5451 .LDW_4cb8300:
00000e81 41             5452 	.byte	65
00000e82 26             5453 	.byte	38
00000e83 10             5454 	.byte	16
00000e84 13             5455 	.byte	19
00000e85 02             5456 	.byte	2
00000e86 01             5457 	.byte	1
                        5458 
                        5459 .LDW_4cf38b0:
00000e87 23             5460 	.byte	35
00000e88 756346726f6e   5461 	.strz	"ucFrontAxisABSTicks"
00000e8e 744178697341 
00000e94 42535469636b 
00000e9a 7300 
00000e9c 27             5462 	.byte	39
00000e9d 12             5463 	.byte	18
00000e9e 13             5464 	.byte	19
00000e9f 00000000*      5465 	.word	.LDW_4876ee0

                                                                      Page 102
                                                              C:\Users\nhuliyap\AppData\Local\Temp\gh_0000ds81.s
00000ea3 0223           5466 	.byte	2,35
00000ea5 00             5467 	.byte	0
00000ea6 01             5468 	.byte	1
                        5469 
                        5470 .LDW_4cf3e08:
00000ea7 23             5471 	.byte	35
00000ea8 756352656172   5472 	.strz	"ucRearAxisABSTicks"
00000eae 417869734142 
00000eb4 535469636b73 
00000eba 00 
00000ebb 28             5473 	.byte	40
00000ebc 12             5474 	.byte	18
00000ebd 13             5475 	.byte	19
00000ebe 00000000*      5476 	.word	.LDW_4876ee0
00000ec2 0223           5477 	.byte	2,35
00000ec4 01             5478 	.byte	1
00000ec5 01             5479 	.byte	1
                        5480 
00000ec6 00             5481 	.byte	0
                        5482 
                        5483 .LDW_4cb81a0:
00000ec7 28             5484 	.byte	40
00000ec8 574141425354   5485 	.strz	"WAABSTicksInOneRevolution"
00000ece 69636b73496e 
00000ed4 4f6e65526576 
00000eda 6f6c7574696f 
00000ee0 6e00 
00000ee2 29             5486 	.byte	41
00000ee3 03             5487 	.byte	3
00000ee4 13             5488 	.byte	19
00000ee5 00000000*      5489 	.word	.LDW_4cb8300
                        5490 
                        5491 .LDW_4cf26e0:
00000ee9 40             5492 	.byte	64
00000eea 435400         5493 	.strz	"CT"
00000eed 1a             5494 	.byte	26
00000eee 08             5495 	.byte	8
00000eef 17             5496 	.byte	23
00000ef0 1a             5497 	.byte	26
00000ef1 01             5498 	.byte	1
                        5499 
                        5500 	.section	.debug_abbrev
000000b2 40             5501 	.byte	64
000000b3 13             5502 	.byte	19
000000b4 01             5503 	.byte	1
000000b5 0308           5504 	.byte	3,8
000000b7 3b0f           5505 	.byte	59,15
000000b9 390f           5506 	.byte	57,15
000000bb 3a0f           5507 	.byte	58,15
000000bd 0b0f           5508 	.byte	11,15
000000bf 320b           5509 	.byte	50,11
000000c1 0000           5510 	.byte	0,0
                        5511 
                        5512 	.section	.debug_info
                        5513 .LDW_4cf49e8:
00000ef2 23             5514 	.byte	35
00000ef3 7563504d696e   5515 	.strz	"ucPMinAbs"
00000ef9 41627300 
00000efd 1c             5516 	.byte	28
00000efe 11             5517 	.byte	17
00000eff 17             5518 	.byte	23

                                                                      Page 103
                                                              C:\Users\nhuliyap\AppData\Local\Temp\gh_0000ds81.s
00000f00 00000000*      5519 	.word	.LDW_4876ee0
00000f04 0223           5520 	.byte	2,35
00000f06 00             5521 	.byte	0
00000f07 01             5522 	.byte	1
                        5523 
                        5524 .LDW_4cf4d90:
00000f08 23             5525 	.byte	35
00000f09 61756350536f   5526 	.strz	"aucPSollMin"
00000f0f 6c6c4d696e00 
00000f15 1d             5527 	.byte	29
00000f16 11             5528 	.byte	17
00000f17 17             5529 	.byte	23
00000f18 00000000*      5530 	.word	.LDW_4cf0648
00000f1c 0223           5531 	.byte	2,35
00000f1e 01             5532 	.byte	1
00000f1f 01             5533 	.byte	1
                        5534 
                        5535 .LDW_4cf4eb0:
00000f20 23             5536 	.byte	35
00000f21 61756350536f   5537 	.strz	"aucPSoll"
00000f27 6c6c00 
00000f2a 1e             5538 	.byte	30
00000f2b 11             5539 	.byte	17
00000f2c 17             5540 	.byte	23
00000f2d 00000000*      5541 	.word	.LDW_4cf1418
00000f31 0223           5542 	.byte	2,35
00000f33 05             5543 	.byte	5
00000f34 01             5544 	.byte	1
                        5545 
                        5546 .LDW_4cf5378:
00000f35 23             5547 	.byte	35
00000f36 61736354536f   5548 	.strz	"ascTSoll"
00000f3c 6c6c00 
00000f3f 1f             5549 	.byte	31
00000f40 0f             5550 	.byte	15
00000f41 17             5551 	.byte	23
00000f42 00000000*      5552 	.word	.LDW_4cf0978
00000f46 0223           5553 	.byte	2,35
00000f48 09             5554 	.byte	9
00000f49 01             5555 	.byte	1
                        5556 
                        5557 .LDW_4cf5498:
00000f4a 23             5558 	.byte	35
00000f4b 617573684d53   5559 	.strz	"aushMSoll"
00000f51 6f6c6c00 
00000f55 20             5560 	.byte	32
00000f56 12             5561 	.byte	18
00000f57 17             5562 	.byte	23
00000f58 00000000*      5563 	.word	.LDW_4cf14a0
00000f5c 0223           5564 	.byte	2,35
00000f5e 0e             5565 	.byte	14
00000f5f 01             5566 	.byte	1
                        5567 
                        5568 .LDW_4cf56d8:
00000f60 23             5569 	.byte	35
00000f61 617563505761   5570 	.strz	"aucPWarm"
00000f67 726d00 
00000f6a 21             5571 	.byte	33
00000f6b 11             5572 	.byte	17
00000f6c 17             5573 	.byte	23
00000f6d 00000000*      5574 	.word	.LDW_4cf0758

                                                                      Page 104
                                                              C:\Users\nhuliyap\AppData\Local\Temp\gh_0000ds81.s
00000f71 0223           5575 	.byte	2,35
00000f73 16             5576 	.byte	22
00000f74 01             5577 	.byte	1
                        5578 
00000f75 00             5579 	.byte	0
                        5580 
                        5581 .LDW_4cf2d68:
00000f76 42             5582 	.byte	66
00000f77 43444100       5583 	.strz	"CDA"
00000f7b 24             5584 	.byte	36
00000f7c 07             5585 	.byte	7
00000f7d 17             5586 	.byte	23
00000f7e 1a             5587 	.byte	26
00000f7f 01             5588 	.byte	1
                        5589 
                        5590 	.section	.debug_abbrev
000000c3 42             5591 	.byte	66
000000c4 17             5592 	.byte	23
000000c5 01             5593 	.byte	1
000000c6 0308           5594 	.byte	3,8
000000c8 3b0f           5595 	.byte	59,15
000000ca 390f           5596 	.byte	57,15
000000cc 3a0f           5597 	.byte	58,15
000000ce 0b0f           5598 	.byte	11,15
000000d0 320b           5599 	.byte	50,11
000000d2 0000           5600 	.byte	0,0
                        5601 
                        5602 	.section	.debug_info
                        5603 .LDW_4cf58d0:
00000f80 23             5604 	.byte	35
00000f81 7443616c5461   5605 	.strz	"tCalTab"
00000f87 6200 
00000f89 26             5606 	.byte	38
00000f8a 0d             5607 	.byte	13
00000f8b 17             5608 	.byte	23
00000f8c 00000000*      5609 	.word	.LDW_4cf26e0
00000f90 0223           5610 	.byte	2,35
00000f92 00             5611 	.byte	0
00000f93 01             5612 	.byte	1
                        5613 
                        5614 .LDW_4cf5528:
00000f94 23             5615 	.byte	35
00000f95 756342797465   5616 	.strz	"ucByte"
00000f9b 00 
00000f9c 27             5617 	.byte	39
00000f9d 11             5618 	.byte	17
00000f9e 17             5619 	.byte	23
00000f9f 00000000*      5620 	.word	.LDW_4cf0ca8
00000fa3 0223           5621 	.byte	2,35
00000fa5 00             5622 	.byte	0
00000fa6 01             5623 	.byte	1
                        5624 
00000fa7 00             5625 	.byte	0
                        5626 
                        5627 .LDW_4cf2aa8:
00000fa8 28             5628 	.byte	40
00000fa9 444941475f5f   5629 	.strz	"DIAG__ReqCallback_Type"
00000faf 52657143616c 
00000fb5 6c6261636b5f 
00000fbb 5479706500 
00000fc0 25             5630 	.byte	37

                                                                      Page 105
                                                              C:\Users\nhuliyap\AppData\Local\Temp\gh_0000ds81.s
00000fc1 11             5631 	.byte	17
00000fc2 01             5632 	.byte	1
00000fc3 00000000*      5633 	.word	.LDW_4b50550
                        5634 
                        5635 .LDW_4cf27e8:
00000fc7 41             5636 	.byte	65
00000fc8 27             5637 	.byte	39
00000fc9 0f             5638 	.byte	15
00000fca 01             5639 	.byte	1
00000fcb 08             5640 	.byte	8
00000fcc 01             5641 	.byte	1
                        5642 
                        5643 .LDW_4cf82b0:
00000fcd 23             5644 	.byte	35
00000fce 654469616752   5645 	.strz	"eDiagRequest"
00000fd4 657175657374 
00000fda 00 
00000fdb 28             5646 	.byte	40
00000fdc 1e             5647 	.byte	30
00000fdd 01             5648 	.byte	1
00000fde 00000000*      5649 	.word	.LDW_4cca438
00000fe2 0223           5650 	.byte	2,35
00000fe4 00             5651 	.byte	0
00000fe5 01             5652 	.byte	1
                        5653 
                        5654 .LDW_4cf8220:
00000fe6 23             5655 	.byte	35
00000fe7 50465f526571   5656 	.strz	"PF_ReqCallback"
00000fed 43616c6c6261 
00000ff3 636b00 
00000ff6 29             5657 	.byte	41
00000ff7 1a             5658 	.byte	26
00000ff8 01             5659 	.byte	1
00000ff9 00000000*      5660 	.word	.LDW_4cf2aa8
00000ffd 0223           5661 	.byte	2,35
00000fff 04             5662 	.byte	4
00001000 01             5663 	.byte	1
                        5664 
00001001 00             5665 	.byte	0
                        5666 
                        5667 .LDW_4cf2898:
00001002 28             5668 	.byte	40
00001003 444941475f5f   5669 	.strz	"DIAG__struct_ReqHandler"
00001009 737472756374 
0000100f 5f5265714861 
00001015 6e646c657200 
0000101b 2a             5670 	.byte	42
0000101c 02             5671 	.byte	2
0000101d 01             5672 	.byte	1
0000101e 00000000*      5673 	.word	.LDW_4cf27e8
                        5674 
                        5675 .LDW_4cf3290:
00001022 05             5676 	.byte	5
00001023 7443444100     5677 	.strz	"tCDA"
00001028 2a             5678 	.byte	42
00001029 12             5679 	.byte	18
0000102a 17             5680 	.byte	23
0000102b 00000000*      5681 	.word	.LDW_4cf2d68
0000102f 01             5682 	.byte	1
00001030 01             5683 	.byte	1
                        5684 

                                                                      Page 106
                                                              C:\Users\nhuliyap\AppData\Local\Temp\gh_0000ds81.s
                        5685 	.section	.debug_abbrev
000000d4 05             5686 	.byte	5
000000d5 34             5687 	.byte	52
000000d6 00             5688 	.byte	0
000000d7 0308           5689 	.byte	3,8
000000d9 3b0f           5690 	.byte	59,15
000000db 390f           5691 	.byte	57,15
000000dd 3a0f           5692 	.byte	58,15
000000df 4910           5693 	.byte	73,16
000000e1 3f0c           5694 	.byte	63,12
000000e3 3c0c           5695 	.byte	60,12
000000e5 0000           5696 	.byte	0,0
                        5697 
                        5698 	.section	.debug_info
                        5699 .LDW_4cf33f0:
00001031 05             5700 	.byte	5
00001032 745741506172   5701 	.strz	"tWAPar"
00001038 00 
00001039 32             5702 	.byte	50
0000103a 14             5703 	.byte	20
0000103b 1c             5704 	.byte	28
0000103c 00000000*      5705 	.word	.LDW_4cacf30
00001040 01             5706 	.byte	1
00001041 01             5707 	.byte	1
                        5708 
                        5709 .LDW_4cf8a58:
00001042 04             5710 	.byte	4
00001043 4155385f5265   5711 	.strz	"AU8_ResData"
00001049 734461746100 
0000104f 5b             5712 	.byte	91
00001050 0f             5713 	.byte	15
00001051 01             5714 	.byte	1
00001052 00000000*      5715 	.word	.LDW_4cf5eb8
00001056 00             5716 	.byte	0
00001057 00             5717 	.byte	0
00001058 0503           5718 	.byte	5,3
0000105a 00000000*      5719 	.word	_AU8_ResData..C.3A.5C_ECU2.5CECU_Rivian_A1.5CTarget.5Crepo_projects.5CpRealEcu.5CcR_LATEST.5Cmake.5Coutput.5Cobjects.5CSwcApplTpms_Diag.
                        5720 
                        5721 	.section	.debug_abbrev
000000e7 04             5722 	.byte	4
000000e8 34             5723 	.byte	52
000000e9 00             5724 	.byte	0
000000ea 0308           5725 	.byte	3,8
000000ec 3b0f           5726 	.byte	59,15
000000ee 390f           5727 	.byte	57,15
000000f0 3a0f           5728 	.byte	58,15
000000f2 4910           5729 	.byte	73,16
000000f4 3f0c           5730 	.byte	63,12
000000f6 3c0c           5731 	.byte	60,12
000000f8 020a           5732 	.byte	2,10
000000fa 0000           5733 	.byte	0,0
                        5734 
                        5735 	.section	.debug_info
                        5736 .LDW_4cf9030:
0000105e 04             5737 	.byte	4
0000105f 5531365f5265   5738 	.strz	"U16_RespLenght"
00001065 73704c656e67 
0000106b 687400 
0000106e 5c             5739 	.byte	92
0000106f 10             5740 	.byte	16
00001070 01             5741 	.byte	1

                                                                      Page 107
                                                              C:\Users\nhuliyap\AppData\Local\Temp\gh_0000ds81.s
00001071 00000000*      5742 	.word	.LDW_4cc9bf8
00001075 00             5743 	.byte	0
00001076 00             5744 	.byte	0
00001077 0503           5745 	.byte	5,3
00001079 00000000*      5746 	.word	_U16_RespLenght..C.3A.5C_ECU2.5CECU_Rivian_A1.5CTarget.5Crepo_projects.5CpRealEcu.5CcR_LATEST.5Cmake.5Coutput.5Cobjects.5CSwcApplTpms_Diag.
                        5747 
                        5748 .LDW_4cf9088:
0000107d 04             5749 	.byte	4
0000107e 444941475f5f   5750 	.strz	"DIAG__AS_ReqHandlerArray"
00001084 41535f526571 
0000108a 48616e646c65 
00001090 724172726179 
00001096 00 
00001097 60             5751 	.byte	96
00001098 26             5752 	.byte	38
00001099 01             5753 	.byte	1
0000109a 00000000*      5754 	.word	.LDW_4cf6380
0000109e 00             5755 	.byte	0
0000109f 00             5756 	.byte	0
000010a0 0503           5757 	.byte	5,3
000010a2 00000000*      5758 	.word	_DIAG__AS_ReqHandlerArray..C.3A.5C_ECU2.5CECU_Rivian_A1.5CTarget.5Crepo_projects.5CpRealEcu.5CcR_LATEST.5Cmake.5Coutput.5Cobjects.5CSwcApplTpms_Diag.
                        5759 
                        5760 .LDW_4cdb6e0:
000010a6 15             5761 	.byte	21
000010a7 436c69656e74   5762 	.strz	"ClientIf_Debug_DiagReqCallback"
000010ad 49665f446562 
000010b3 75675f446961 
000010b9 675265714361 
000010bf 6c6c6261636b 
000010c5 00 
000010c6 cd01           5763 	.byte	205,1
000010c8 10             5764 	.byte	16
000010c9 07             5765 	.byte	7
000010ca 01             5766 	.byte	1
000010cb 00             5767 	.byte	0
000010cc 01             5768 	.byte	1
000010cd 01             5769 	.byte	1
000010ce 00             5770 	.byte	0
000010cf 01             5771 	.byte	1
                        5772 
                        5773 	.section	.debug_abbrev
000000fc 15             5774 	.byte	21
000000fd 2e             5775 	.byte	46
000000fe 01             5776 	.byte	1
000000ff 0308           5777 	.byte	3,8
00000101 3b0f           5778 	.byte	59,15
00000103 390f           5779 	.byte	57,15
00000105 3a0f           5780 	.byte	58,15
00000107 3c0c           5781 	.byte	60,12
00000109 200b           5782 	.byte	32,11
0000010b 3f0c           5783 	.byte	63,12
0000010d 320b           5784 	.byte	50,11
0000010f 4c0b           5785 	.byte	76,11
00000111 270c           5786 	.byte	39,12
00000113 0000           5787 	.byte	0,0
                        5788 
                        5789 	.section	.debug_info
000010d0 00             5790 	.byte	0
                        5791 
                        5792 .LDW_4cfb478:
000010d1 15             5793 	.byte	21

                                                                      Page 108
                                                              C:\Users\nhuliyap\AppData\Local\Temp\gh_0000ds81.s
000010d2 496e6974425a   5794 	.strz	"InitBZ"
000010d8 00 
000010d9 16             5795 	.byte	22
000010da 0d             5796 	.byte	13
000010db 10             5797 	.byte	16
000010dc 01             5798 	.byte	1
000010dd 00             5799 	.byte	0
000010de 01             5800 	.byte	1
000010df 01             5801 	.byte	1
000010e0 00             5802 	.byte	0
000010e1 01             5803 	.byte	1
                        5804 
000010e2 00             5805 	.byte	0
                        5806 
                        5807 .LDW_4cfb640:
000010e3 16             5808 	.byte	22
000010e4 624765744269   5809 	.strz	"bGetBitBetriebszustandBZ"
000010ea 744265747269 
000010f0 6562737a7573 
000010f6 74616e64425a 
000010fc 00 
000010fd 1a             5810 	.byte	26
000010fe 10             5811 	.byte	16
000010ff 10             5812 	.byte	16
00001100 00000000*      5813 	.word	.LDW_4cc9e08
00001104 01             5814 	.byte	1
00001105 00             5815 	.byte	0
00001106 01             5816 	.byte	1
00001107 01             5817 	.byte	1
00001108 00             5818 	.byte	0
00001109 01             5819 	.byte	1
                        5820 
                        5821 	.section	.debug_abbrev
00000115 16             5822 	.byte	22
00000116 2e             5823 	.byte	46
00000117 01             5824 	.byte	1
00000118 0308           5825 	.byte	3,8
0000011a 3b0f           5826 	.byte	59,15
0000011c 390f           5827 	.byte	57,15
0000011e 3a0f           5828 	.byte	58,15
00000120 4910           5829 	.byte	73,16
00000122 3c0c           5830 	.byte	60,12
00000124 200b           5831 	.byte	32,11
00000126 3f0c           5832 	.byte	63,12
00000128 320b           5833 	.byte	50,11
0000012a 4c0b           5834 	.byte	76,11
0000012c 270c           5835 	.byte	39,12
0000012e 0000           5836 	.byte	0,0
                        5837 
                        5838 	.section	.debug_info
0000110a 00             5839 	.byte	0
                        5840 
                        5841 .LDW_4cfbf28:
0000110b 16             5842 	.byte	22
0000110c 474554756352   5843 	.strz	"GETucReifendruckPD"
00001112 656966656e64 
00001118 7275636b5044 
0000111e 00 
0000111f 38             5844 	.byte	56
00001120 0e             5845 	.byte	14
00001121 11             5846 	.byte	17

                                                                      Page 109
                                                              C:\Users\nhuliyap\AppData\Local\Temp\gh_0000ds81.s
00001122 00000000*      5847 	.word	.LDW_4c438b8
00001126 01             5848 	.byte	1
00001127 00             5849 	.byte	0
00001128 01             5850 	.byte	1
00001129 01             5851 	.byte	1
0000112a 00             5852 	.byte	0
0000112b 01             5853 	.byte	1
                        5854 
0000112c 00             5855 	.byte	0
                        5856 
                        5857 .LDW_4cfb218:
0000112d 16             5858 	.byte	22
0000112e 474554736354   5859 	.strz	"GETscTemperaturPD"
00001134 656d70657261 
0000113a 747572504400 
00001140 3c             5860 	.byte	60
00001141 0e             5861 	.byte	14
00001142 11             5862 	.byte	17
00001143 00000000*      5863 	.word	.LDW_4cb7a10
00001147 01             5864 	.byte	1
00001148 00             5865 	.byte	0
00001149 01             5866 	.byte	1
0000114a 01             5867 	.byte	1
0000114b 00             5868 	.byte	0
0000114c 01             5869 	.byte	1
                        5870 
0000114d 00             5871 	.byte	0
                        5872 
                        5873 .LDW_4cfcc38:
0000114e 16             5874 	.byte	22
0000114f 474554756352   5875 	.strz	"GETucRestlebensdauerPD"
00001155 6573746c6562 
0000115b 656e73646175 
00001161 6572504400 
00001166 3e             5876 	.byte	62
00001167 0e             5877 	.byte	14
00001168 11             5878 	.byte	17
00001169 00000000*      5879 	.word	.LDW_4c438b8
0000116d 01             5880 	.byte	1
0000116e 00             5881 	.byte	0
0000116f 01             5882 	.byte	1
00001170 01             5883 	.byte	1
00001171 00             5884 	.byte	0
00001172 01             5885 	.byte	1
                        5886 
00001173 00             5887 	.byte	0
                        5888 
                        5889 .LDW_4cfcba0:
00001174 16             5890 	.byte	22
00001175 474554756352   5891 	.strz	"GETucRadpositionPD"
0000117b 6164706f7369 
00001181 74696f6e5044 
00001187 00 
00001188 46             5892 	.byte	70
00001189 0e             5893 	.byte	14
0000118a 11             5894 	.byte	17
0000118b 00000000*      5895 	.word	.LDW_4c438b8
0000118f 01             5896 	.byte	1
00001190 00             5897 	.byte	0
00001191 01             5898 	.byte	1
00001192 01             5899 	.byte	1

                                                                      Page 110
                                                              C:\Users\nhuliyap\AppData\Local\Temp\gh_0000ds81.s
00001193 00             5900 	.byte	0
00001194 01             5901 	.byte	1
                        5902 
00001195 00             5903 	.byte	0
                        5904 
                        5905 .LDW_4cfd060:
00001196 16             5906 	.byte	22
00001197 756c47657452   5907 	.strz	"ulGetReDataIdPD"
0000119d 654461746149 
000011a3 64504400 
000011a7 4c             5908 	.byte	76
000011a8 0f             5909 	.byte	15
000011a9 11             5910 	.byte	17
000011aa 00000000*      5911 	.word	.LDW_4cad198
000011ae 01             5912 	.byte	1
000011af 00             5913 	.byte	0
000011b0 01             5914 	.byte	1
000011b1 01             5915 	.byte	1
000011b2 00             5916 	.byte	0
000011b3 01             5917 	.byte	1
                        5918 
000011b4 00             5919 	.byte	0
                        5920 
                        5921 .LDW_4cfe788:
000011b5 16             5922 	.byte	22
000011b6 756347657452   5923 	.strz	"ucGetReDataPreProcPressurePD"
000011bc 654461746150 
000011c2 726550726f63 
000011c8 507265737375 
000011ce 7265504400 
000011d3 59             5924 	.byte	89
000011d4 0f             5925 	.byte	15
000011d5 11             5926 	.byte	17
000011d6 00000000*      5927 	.word	.LDW_4c438b8
000011da 01             5928 	.byte	1
000011db 00             5929 	.byte	0
000011dc 01             5930 	.byte	1
000011dd 01             5931 	.byte	1
000011de 00             5932 	.byte	0
000011df 01             5933 	.byte	1
                        5934 
000011e0 00             5935 	.byte	0
                        5936 
                        5937 .LDW_4cfe3f8:
000011e1 16             5938 	.byte	22
000011e2 736347657452   5939 	.strz	"scGetReDataPreProcTemperaturePD"
000011e8 654461746150 
000011ee 726550726f63 
000011f4 54656d706572 
000011fa 617475726550 
00001200 4400 
00001202 5b             5940 	.byte	91
00001203 0f             5941 	.byte	15
00001204 11             5942 	.byte	17
00001205 00000000*      5943 	.word	.LDW_4cb7a10
00001209 01             5944 	.byte	1
0000120a 00             5945 	.byte	0
0000120b 01             5946 	.byte	1
0000120c 01             5947 	.byte	1
0000120d 00             5948 	.byte	0
0000120e 01             5949 	.byte	1

                                                                      Page 111
                                                              C:\Users\nhuliyap\AppData\Local\Temp\gh_0000ds81.s
                        5950 
0000120f 00             5951 	.byte	0
                        5952 
                        5953 .LDW_4cfffe0:
00001210 16             5954 	.byte	22
00001211 756347657443   5955 	.strz	"ucGetColOfID"
00001217 6f6c4f664944 
0000121d 00 
0000121e 8601           5956 	.byte	134,1
00001220 16             5957 	.byte	22
00001221 13             5958 	.byte	19
00001222 00000000*      5959 	.word	.LDW_4876ee0
00001226 01             5960 	.byte	1
00001227 00             5961 	.byte	0
00001228 01             5962 	.byte	1
00001229 01             5963 	.byte	1
0000122a 00             5964 	.byte	0
0000122b 01             5965 	.byte	1
                        5966 
0000122c 00             5967 	.byte	0
                        5968 
                        5969 .LDW_4cfff48:
0000122d 16             5970 	.byte	22
0000122e 756347657457   5971 	.strz	"ucGetWPOfCol"
00001234 504f66436f6c 
0000123a 00 
0000123b 8801           5972 	.byte	136,1
0000123d 16             5973 	.byte	22
0000123e 13             5974 	.byte	19
0000123f 00000000*      5975 	.word	.LDW_4876ee0
00001243 01             5976 	.byte	1
00001244 00             5977 	.byte	0
00001245 01             5978 	.byte	1
00001246 01             5979 	.byte	1
00001247 00             5980 	.byte	0
00001248 01             5981 	.byte	1
                        5982 
00001249 00             5983 	.byte	0
                        5984 
                        5985 .LDW_4d00078:
0000124a 16             5986 	.byte	22
0000124b 756c47657449   5987 	.strz	"ulGetID"
00001251 4400 
00001253 8a01           5988 	.byte	138,1
00001255 16             5989 	.byte	22
00001256 13             5990 	.byte	19
00001257 00000000*      5991 	.word	.LDW_4877298
0000125b 01             5992 	.byte	1
0000125c 00             5993 	.byte	0
0000125d 01             5994 	.byte	1
0000125e 01             5995 	.byte	1
0000125f 00             5996 	.byte	0
00001260 01             5997 	.byte	1
                        5998 
00001261 00             5999 	.byte	0
                        6000 
                        6001 .LDW_4cffce8:
00001262 16             6002 	.byte	22
00001263 756353657449   6003 	.strz	"ucSetID"
00001269 4400 
0000126b 8c01           6004 	.byte	140,1

                                                                      Page 112
                                                              C:\Users\nhuliyap\AppData\Local\Temp\gh_0000ds81.s
0000126d 0e             6005 	.byte	14
0000126e 13             6006 	.byte	19
0000126f 00000000*      6007 	.word	.LDW_4c438b8
00001273 01             6008 	.byte	1
00001274 00             6009 	.byte	0
00001275 01             6010 	.byte	1
00001276 01             6011 	.byte	1
00001277 00             6012 	.byte	0
00001278 01             6013 	.byte	1
                        6014 
00001279 00             6015 	.byte	0
                        6016 
                        6017 .LDW_4cffd80:
0000127a 16             6018 	.byte	22
0000127b 756347657449   6019 	.strz	"ucGetIndexOfHistoryWP"
00001281 6e6465784f66 
00001287 486973746f72 
0000128d 79575000 
00001291 8f01           6020 	.byte	143,1
00001293 16             6021 	.byte	22
00001294 13             6022 	.byte	19
00001295 00000000*      6023 	.word	.LDW_4876ee0
00001299 01             6024 	.byte	1
0000129a 00             6025 	.byte	0
0000129b 01             6026 	.byte	1
0000129c 01             6027 	.byte	1
0000129d 00             6028 	.byte	0
0000129e 01             6029 	.byte	1
                        6030 
0000129f 00             6031 	.byte	0
                        6032 
                        6033 .LDW_4d037f8:
000012a0 16             6034 	.byte	22
000012a1 75635761726e   6035 	.strz	"ucWarnManagerWN"
000012a7 4d616e616765 
000012ad 72574e00 
000012b1 18             6036 	.byte	24
000012b2 16             6037 	.byte	22
000012b3 16             6038 	.byte	22
000012b4 00000000*      6039 	.word	.LDW_4876ee0
000012b8 01             6040 	.byte	1
000012b9 00             6041 	.byte	0
000012ba 01             6042 	.byte	1
000012bb 01             6043 	.byte	1
000012bc 00             6044 	.byte	0
000012bd 01             6045 	.byte	1
                        6046 
000012be 00             6047 	.byte	0
                        6048 
                        6049 .LDW_4d02d48:
000012bf 16             6050 	.byte	22
000012c0 75635453534d   6051 	.strz	"ucTSSMsgManagerTM"
000012c6 73674d616e61 
000012cc 676572544d00 
000012d2 35             6052 	.byte	53
000012d3 16             6053 	.byte	22
000012d4 16             6054 	.byte	22
000012d5 00000000*      6055 	.word	.LDW_4876ee0
000012d9 01             6056 	.byte	1
000012da 00             6057 	.byte	0
000012db 01             6058 	.byte	1

                                                                      Page 113
                                                              C:\Users\nhuliyap\AppData\Local\Temp\gh_0000ds81.s
000012dc 01             6059 	.byte	1
000012dd 00             6060 	.byte	0
000012de 01             6061 	.byte	1
                        6062 
000012df 00             6063 	.byte	0
                        6064 
                        6065 .LDW_4d02de0:
000012e0 16             6066 	.byte	22
000012e1 756350757450   6067 	.strz	"ucPutPMinCS"
000012e7 4d696e435300 
000012ed 06             6068 	.byte	6
000012ee 16             6069 	.byte	22
000012ef 17             6070 	.byte	23
000012f0 00000000*      6071 	.word	.LDW_4876ee0
000012f4 01             6072 	.byte	1
000012f5 00             6073 	.byte	0
000012f6 01             6074 	.byte	1
000012f7 01             6075 	.byte	1
000012f8 00             6076 	.byte	0
000012f9 01             6077 	.byte	1
                        6078 
000012fa 00             6079 	.byte	0
                        6080 
                        6081 .LDW_4d04b88:
000012fb 15             6082 	.byte	21
000012fc 476574574144   6083 	.strz	"GetWADataEE"
00001302 617461454500 
00001308 4e             6084 	.byte	78
00001309 0d             6085 	.byte	13
0000130a 18             6086 	.byte	24
0000130b 01             6087 	.byte	1
0000130c 00             6088 	.byte	0
0000130d 01             6089 	.byte	1
0000130e 01             6090 	.byte	1
0000130f 00             6091 	.byte	0
00001310 01             6092 	.byte	1
                        6093 
00001311 00             6094 	.byte	0
                        6095 
                        6096 .LDW_4d056d0:
00001312 15             6097 	.byte	21
00001313 507574574144   6098 	.strz	"PutWADataEE"
00001319 617461454500 
0000131f 4f             6099 	.byte	79
00001320 0d             6100 	.byte	13
00001321 18             6101 	.byte	24
00001322 01             6102 	.byte	1
00001323 00             6103 	.byte	0
00001324 01             6104 	.byte	1
00001325 01             6105 	.byte	1
00001326 00             6106 	.byte	0
00001327 01             6107 	.byte	1
                        6108 
00001328 00             6109 	.byte	0
                        6110 
                        6111 .LDW_4d05210:
00001329 15             6112 	.byte	21
0000132a 505554756356   6113 	.strz	"PUTucVarCodLegislationEE"
00001330 6172436f644c 
00001336 656769736c61 
0000133c 74696f6e4545 

                                                                      Page 114
                                                              C:\Users\nhuliyap\AppData\Local\Temp\gh_0000ds81.s
00001342 00 
00001343 50             6114 	.byte	80
00001344 10             6115 	.byte	16
00001345 18             6116 	.byte	24
00001346 01             6117 	.byte	1
00001347 00             6118 	.byte	0
00001348 01             6119 	.byte	1
00001349 01             6120 	.byte	1
0000134a 00             6121 	.byte	0
0000134b 01             6122 	.byte	1
                        6123 
0000134c 00             6124 	.byte	0
                        6125 
                        6126 .LDW_4d05508:
0000134d 16             6127 	.byte	22
0000134e 474554756356   6128 	.strz	"GETucVarCodLegislationEE"
00001354 6172436f644c 
0000135a 656769736c61 
00001360 74696f6e4545 
00001366 00 
00001367 51             6129 	.byte	81
00001368 10             6130 	.byte	16
00001369 18             6131 	.byte	24
0000136a 00000000*      6132 	.word	.LDW_4c438b8
0000136e 01             6133 	.byte	1
0000136f 00             6134 	.byte	0
00001370 01             6135 	.byte	1
00001371 01             6136 	.byte	1
00001372 00             6137 	.byte	0
00001373 01             6138 	.byte	1
                        6139 
00001374 00             6140 	.byte	0
                        6141 
                        6142 .LDW_4d04f18:
00001375 15             6143 	.byte	21
00001376 4e764d335f50   6144 	.strz	"NvM3_PUTucVarCodTemperatureWarningThresEE"
0000137c 555475635661 
00001382 72436f645465 
00001388 6d7065726174 
0000138e 757265576172 
00001394 6e696e675468 
0000139a 726573454500 
000013a0 54             6145 	.byte	84
000013a1 0d             6146 	.byte	13
000013a2 18             6147 	.byte	24
000013a3 01             6148 	.byte	1
000013a4 00             6149 	.byte	0
000013a5 01             6150 	.byte	1
000013a6 01             6151 	.byte	1
000013a7 00             6152 	.byte	0
000013a8 01             6153 	.byte	1
                        6154 
000013a9 00             6155 	.byte	0
                        6156 
                        6157 .LDW_4d055a0:
000013aa 16             6158 	.byte	22
000013ab 4e764d335f47   6159 	.strz	"NvM3_GETucVarCodTemperatureWarningThresEE"
000013b1 455475635661 
000013b7 72436f645465 
000013bd 6d7065726174 
000013c3 757265576172 

                                                                      Page 115
                                                              C:\Users\nhuliyap\AppData\Local\Temp\gh_0000ds81.s
000013c9 6e696e675468 
000013cf 726573454500 
000013d5 55             6160 	.byte	85
000013d6 0e             6161 	.byte	14
000013d7 18             6162 	.byte	24
000013d8 00000000*      6163 	.word	.LDW_4cb7a10
000013dc 01             6164 	.byte	1
000013dd 00             6165 	.byte	0
000013de 01             6166 	.byte	1
000013df 01             6167 	.byte	1
000013e0 00             6168 	.byte	0
000013e1 01             6169 	.byte	1
                        6170 
000013e2 00             6171 	.byte	0
                        6172 
                        6173 .LDW_4d059c8:
000013e3 15             6174 	.byte	21
000013e4 4e764d335f50   6175 	.strz	"NvM3_PUTucVarCodOffroadPlacardPress"
000013ea 555475635661 
000013f0 72436f644f66 
000013f6 66726f616450 
000013fc 6c6163617264 
00001402 507265737300 
00001408 56             6176 	.byte	86
00001409 0d             6177 	.byte	13
0000140a 18             6178 	.byte	24
0000140b 01             6179 	.byte	1
0000140c 00             6180 	.byte	0
0000140d 01             6181 	.byte	1
0000140e 01             6182 	.byte	1
0000140f 00             6183 	.byte	0
00001410 01             6184 	.byte	1
                        6185 
00001411 00             6186 	.byte	0
                        6187 
                        6188 .LDW_4d09ba8:
00001412 16             6189 	.byte	22
00001413 4e764d335f47   6190 	.strz	"NvM3_GETucVarCodOffroadPlacardPress"
00001419 455475635661 
0000141f 72436f644f66 
00001425 66726f616450 
0000142b 6c6163617264 
00001431 507265737300 
00001437 57             6191 	.byte	87
00001438 0e             6192 	.byte	14
00001439 18             6193 	.byte	24
0000143a 00000000*      6194 	.word	.LDW_4c438b8
0000143e 01             6195 	.byte	1
0000143f 00             6196 	.byte	0
00001440 01             6197 	.byte	1
00001441 01             6198 	.byte	1
00001442 00             6199 	.byte	0
00001443 01             6200 	.byte	1
                        6201 
00001444 00             6202 	.byte	0
                        6203 
                        6204 .LDW_4d093f0:
00001445 15             6205 	.byte	21
00001446 505554756356   6206 	.strz	"PUTucVarCodPlacardPressEE"
0000144c 6172436f6450 
00001452 6c6163617264 

                                                                      Page 116
                                                              C:\Users\nhuliyap\AppData\Local\Temp\gh_0000ds81.s
00001458 507265737345 
0000145e 4500 
00001460 58             6207 	.byte	88
00001461 10             6208 	.byte	16
00001462 18             6209 	.byte	24
00001463 01             6210 	.byte	1
00001464 00             6211 	.byte	0
00001465 01             6212 	.byte	1
00001466 01             6213 	.byte	1
00001467 00             6214 	.byte	0
00001468 01             6215 	.byte	1
                        6216 
00001469 00             6217 	.byte	0
                        6218 
                        6219 .LDW_4d09488:
0000146a 16             6220 	.byte	22
0000146b 474554756356   6221 	.strz	"GETucVarCodPlacardPressEE"
00001471 6172436f6450 
00001477 6c6163617264 
0000147d 507265737345 
00001483 4500 
00001485 59             6222 	.byte	89
00001486 10             6223 	.byte	16
00001487 18             6224 	.byte	24
00001488 00000000*      6225 	.word	.LDW_4c438b8
0000148c 01             6226 	.byte	1
0000148d 00             6227 	.byte	0
0000148e 01             6228 	.byte	1
0000148f 01             6229 	.byte	1
00001490 00             6230 	.byte	0
00001491 01             6231 	.byte	1
                        6232 
00001492 00             6233 	.byte	0
                        6234 
                        6235 .LDW_4d08fc8:
00001493 15             6236 	.byte	21
00001494 505554756356   6237 	.strz	"PUTucVarCodMinPressThresEE"
0000149a 6172436f644d 
000014a0 696e50726573 
000014a6 735468726573 
000014ac 454500 
000014af 5a             6238 	.byte	90
000014b0 10             6239 	.byte	16
000014b1 18             6240 	.byte	24
000014b2 01             6241 	.byte	1
000014b3 00             6242 	.byte	0
000014b4 01             6243 	.byte	1
000014b5 01             6244 	.byte	1
000014b6 00             6245 	.byte	0
000014b7 01             6246 	.byte	1
                        6247 
000014b8 00             6248 	.byte	0
                        6249 
                        6250 .LDW_4d09818:
000014b9 16             6251 	.byte	22
000014ba 474554756356   6252 	.strz	"GETucVarCodMinPressThresEE"
000014c0 6172436f644d 
000014c6 696e50726573 
000014cc 735468726573 
000014d2 454500 
000014d5 5b             6253 	.byte	91

                                                                      Page 117
                                                              C:\Users\nhuliyap\AppData\Local\Temp\gh_0000ds81.s
000014d6 10             6254 	.byte	16
000014d7 18             6255 	.byte	24
000014d8 00000000*      6256 	.word	.LDW_4c438b8
000014dc 01             6257 	.byte	1
000014dd 00             6258 	.byte	0
000014de 01             6259 	.byte	1
000014df 01             6260 	.byte	1
000014e0 00             6261 	.byte	0
000014e1 01             6262 	.byte	1
                        6263 
000014e2 00             6264 	.byte	0
                        6265 
                        6266 .LDW_4d08cd0:
000014e3 15             6267 	.byte	21
000014e4 4e764d5f5772   6268 	.strz	"NvM_WriteData_ECUDefect"
000014ea 697465446174 
000014f0 615f45435544 
000014f6 656665637400 
000014fc 72             6269 	.byte	114
000014fd 10             6270 	.byte	16
000014fe 18             6271 	.byte	24
000014ff 01             6272 	.byte	1
00001500 00             6273 	.byte	0
00001501 01             6274 	.byte	1
00001502 01             6275 	.byte	1
00001503 00             6276 	.byte	0
00001504 01             6277 	.byte	1
                        6278 
00001505 00             6279 	.byte	0
                        6280 
                        6281 .LDW_4d090f8:
00001506 15             6282 	.byte	21
00001507 4e764d5f5265   6283 	.strz	"NvM_ReadData_ECUDefect"
0000150d 616444617461 
00001513 5f4543554465 
00001519 6665637400 
0000151e 73             6284 	.byte	115
0000151f 10             6285 	.byte	16
00001520 18             6286 	.byte	24
00001521 01             6287 	.byte	1
00001522 00             6288 	.byte	0
00001523 01             6289 	.byte	1
00001524 01             6290 	.byte	1
00001525 00             6291 	.byte	0
00001526 01             6292 	.byte	1
                        6293 
00001527 00             6294 	.byte	0
                        6295 
                        6296 .LDW_4d09190:
00001528 15             6297 	.byte	21
00001529 507574446174   6298 	.strz	"PutDataEE"
0000152f 61454500 
00001533 07             6299 	.byte	7
00001534 0d             6300 	.byte	13
00001535 19             6301 	.byte	25
00001536 01             6302 	.byte	1
00001537 00             6303 	.byte	0
00001538 01             6304 	.byte	1
00001539 01             6305 	.byte	1
0000153a 00             6306 	.byte	0
0000153b 01             6307 	.byte	1

                                                                      Page 118
                                                              C:\Users\nhuliyap\AppData\Local\Temp\gh_0000ds81.s
                        6308 
0000153c 00             6309 	.byte	0
                        6310 
                        6311 .LDW_4d092c0:
0000153d 15             6312 	.byte	21
0000153e 43616c696272   6313 	.strz	"CalibrSetPressureCAL"
00001544 536574507265 
0000154a 737375726543 
00001550 414c00 
00001553 0c             6314 	.byte	12
00001554 0d             6315 	.byte	13
00001555 1a             6316 	.byte	26
00001556 01             6317 	.byte	1
00001557 00             6318 	.byte	0
00001558 01             6319 	.byte	1
00001559 01             6320 	.byte	1
0000155a 00             6321 	.byte	0
0000155b 01             6322 	.byte	1
                        6323 
0000155c 00             6324 	.byte	0
                        6325 
                        6326 .LDW_4d0a490:
0000155d 16             6327 	.byte	22
0000155e 454f4c5f5374   6328 	.strz	"EOL_StartLearnRoutine"
00001564 6172744c6561 
0000156a 726e526f7574 
00001570 696e6500 
00001574 14             6329 	.byte	20
00001575 0e             6330 	.byte	14
00001576 1d             6331 	.byte	29
00001577 00000000*      6332 	.word	.LDW_4c438b8
0000157b 01             6333 	.byte	1
0000157c 00             6334 	.byte	0
0000157d 01             6335 	.byte	1
0000157e 01             6336 	.byte	1
0000157f 00             6337 	.byte	0
00001580 01             6338 	.byte	1
                        6339 
00001581 00             6340 	.byte	0
                        6341 
                        6342 .LDW_4d09f38:
00001582 15             6343 	.byte	21
00001583 454f4c5f5265   6344 	.strz	"EOL_ResetLearnRoutine"
00001589 7365744c6561 
0000158f 726e526f7574 
00001595 696e6500 
00001599 15             6345 	.byte	21
0000159a 0d             6346 	.byte	13
0000159b 1d             6347 	.byte	29
0000159c 01             6348 	.byte	1
0000159d 00             6349 	.byte	0
0000159e 01             6350 	.byte	1
0000159f 01             6351 	.byte	1
000015a0 00             6352 	.byte	0
000015a1 01             6353 	.byte	1
                        6354 
000015a2 00             6355 	.byte	0
                        6356 
                        6357 .LDW_4d0a360:
000015a3 16             6358 	.byte	22
000015a4 454f4c5f4765   6359 	.strz	"EOL_GetStatusEOLRoutine"

                                                                      Page 119
                                                              C:\Users\nhuliyap\AppData\Local\Temp\gh_0000ds81.s
000015aa 745374617475 
000015b0 73454f4c526f 
000015b6 7574696e6500 
000015bc 17             6360 	.byte	23
000015bd 0e             6361 	.byte	14
000015be 1d             6362 	.byte	29
000015bf 00000000*      6363 	.word	.LDW_4c438b8
000015c3 01             6364 	.byte	1
000015c4 00             6365 	.byte	0
000015c5 01             6366 	.byte	1
000015c6 01             6367 	.byte	1
000015c7 00             6368 	.byte	0
000015c8 01             6369 	.byte	1
                        6370 
000015c9 00             6371 	.byte	0
                        6372 
                        6373 .LDW_4d0a100:
000015ca 15             6374 	.byte	21
000015cb 454f4c5f5075   6375 	.strz	"EOL_PutStatusEOLRoutine"
000015d1 745374617475 
000015d7 73454f4c526f 
000015dd 7574696e6500 
000015e3 18             6376 	.byte	24
000015e4 0d             6377 	.byte	13
000015e5 1d             6378 	.byte	29
000015e6 01             6379 	.byte	1
000015e7 00             6380 	.byte	0
000015e8 01             6381 	.byte	1
000015e9 01             6382 	.byte	1
000015ea 00             6383 	.byte	0
000015eb 01             6384 	.byte	1
                        6385 
000015ec 00             6386 	.byte	0
                        6387 
                        6388 .LDW_4c439c0:
000015ed 14             6389 	.byte	20
000015ee 444941475f5f   6390 	.strz	"DIAG__ReqCallback_ReadWSNr01"
000015f4 52657143616c 
000015fa 6c6261636b5f 
00001600 526561645753 
00001606 4e72303100 
0000160b 8601           6391 	.byte	134,1
0000160d 0e             6392 	.byte	14
0000160e 01             6393 	.byte	1
0000160f 00000000*      6394 	.word	.LDW_4c438b8
00001613 00000000*      6395 	.word	_DIAG__ReqCallback_ReadWSNr01..C.3A.5C_ECU2.5CECU_Rivian_A1.5CTarget.5Crepo_projects.5CpRealEcu.5CcR_LATEST.5Cmake.5Coutput.5Cobjects.5CSwcApplTpms_Diag.
00001617 00000000*      6396 	.word	___ghs_eofn_DIAG__ReqCallback_ReadWSNr01
0000161b 0153           6397 	.byte	1,83
0000161d 828080c00b     6398 	.byte	130,128,128,192,11
00001622 10             6399 	.byte	16
00001623 03             6400 	.byte	3
00001624 10             6401 	.byte	16
00001625 00             6402 	.byte	0
00001626 00             6403 	.byte	0
00001627 00             6404 	.byte	0
00001628 00             6405 	.byte	0
00001629 01             6406 	.byte	1
0000162a 00             6407 	.byte	0
0000162b 01             6408 	.byte	1
                        6409 
                        6410 	.section	.debug_abbrev

                                                                      Page 120
                                                              C:\Users\nhuliyap\AppData\Local\Temp\gh_0000ds81.s
00000130 14             6411 	.byte	20
00000131 2e             6412 	.byte	46
00000132 01             6413 	.byte	1
00000133 0308           6414 	.byte	3,8
00000135 3b0f           6415 	.byte	59,15
00000137 390f           6416 	.byte	57,15
00000139 3a0f           6417 	.byte	58,15
0000013b 4910           6418 	.byte	73,16
0000013d 1101           6419 	.byte	17,1
0000013f 1201           6420 	.byte	18,1
00000141 400a           6421 	.byte	64,10
00000143 8341           6422 	.byte	131,65
00000145 0f             6423 	.byte	15
00000146 8741           6424 	.byte	135,65
00000148 0d             6425 	.byte	13
00000149 8541           6426 	.byte	133,65
0000014b 0f             6427 	.byte	15
0000014c 8641           6428 	.byte	134,65
0000014e 0d             6429 	.byte	13
0000014f 9241           6430 	.byte	146,65
00000151 0f             6431 	.byte	15
00000152 3c0c           6432 	.byte	60,12
00000154 200b           6433 	.byte	32,11
00000156 3f0c           6434 	.byte	63,12
00000158 320b           6435 	.byte	50,11
0000015a 4c0b           6436 	.byte	76,11
0000015c 270c           6437 	.byte	39,12
0000015e 0000           6438 	.byte	0,0
                        6439 
                        6440 	.section	.debug_frame
                        6441 .LDW_4cee5f8:
00000090 00000000*      6442 	.word	.LDW_unq_4-.LDW_unq_3
                        6443 .LDW_unq_3:
00000094 00000000*      6444 	.word	.LDW_4c4f988
00000098 00000000*      6445 	.word	_DIAG__ReqCallback_ReadWSNr01..C.3A.5C_ECU2.5CECU_Rivian_A1.5CTarget.5Crepo_projects.5CpRealEcu.5CcR_LATEST.5Cmake.5Coutput.5Cobjects.5CSwcApplTpms_Diag.
0000009c 00000000*      6446 	.word	___ghs_eofn_DIAG__ReqCallback_ReadWSNr01-_DIAG__ReqCallback_ReadWSNr01..C.3A.5C_ECU2.5CECU_Rivian_A1.5CTarget.5Crepo_projects.5CpRealEcu.5CcR_LATEST.5Cmake.5Coutput.5Cobjects.5CSwcApplTpms_Diag.
000000a0 44             6447 	.byte	68
000000a1 9f             6448 	.byte	159
000000a2 00             6449 	.byte	0
000000a3 40             6450 	.byte	64
000000a4 9d             6451 	.byte	157
000000a5 04             6452 	.byte	4
000000a6 40             6453 	.byte	64
000000a7 9c             6454 	.byte	156
000000a8 08             6455 	.byte	8
000000a9 40             6456 	.byte	64
000000aa 9b             6457 	.byte	155
000000ab 0c             6458 	.byte	12
000000ac 01             6459 	.byte	1
000000ad 00000000*      6460 	.word	.LDW31
000000b1 00             6461 	.byte	0
000000b2 00             6462 	.byte	0
000000b3 00             6463 	.byte	0
                        6464 .LDW_unq_4:
                        6465 	.section	.debug_line
000004b4 000502         6466 	.byte	0,5,2
000004b7 00000000*      6467 	.word	_DIAG__ReqCallback_ReadWSNr01..C.3A.5C_ECU2.5CECU_Rivian_A1.5CTarget.5Crepo_projects.5CpRealEcu.5CcR_LATEST.5Cmake.5Coutput.5Cobjects.5CSwcApplTpms_Diag.
000004bb 03             6468 	.byte	3
000004bc 8601           6469 	.byte	134,1
000004be 02             6470 	.byte	2
000004bf 00             6471 	.byte	0

                                                                      Page 121
                                                              C:\Users\nhuliyap\AppData\Local\Temp\gh_0000ds81.s
000004c0 01             6472 	.byte	1
000004c1 06             6473 	.byte	6
000004c2 000502         6474 	.byte	0,5,2
000004c5 00000000*      6475 	.word	.LDWlin9
000004c9 0d             6476 	.byte	13
000004ca 02             6477 	.byte	2
000004cb 02             6478 	.byte	2
000004cc 0c             6479 	.byte	12
000004cd 03             6480 	.byte	3
000004ce 7e             6481 	.byte	126
000004cf 02             6482 	.byte	2
000004d0 04             6483 	.byte	4
000004d1 01             6484 	.byte	1
000004d2 000502         6485 	.byte	0,5,2
000004d5 00000000*      6486 	.word	.LDWlin10
000004d9 0d             6487 	.byte	13
000004da 0b             6488 	.byte	11
000004db 000502         6489 	.byte	0,5,2
000004de 00000000*      6490 	.word	.LDWlin11
000004e2 0c             6491 	.byte	12
000004e3 14             6492 	.byte	20
000004e4 2b             6493 	.byte	43
000004e5 14             6494 	.byte	20
000004e6 06             6495 	.byte	6
000004e7 02             6496 	.byte	2
000004e8 02             6497 	.byte	2
000004e9 02             6498 	.byte	2
000004ea 04             6499 	.byte	4
000004eb 000101         6500 	.byte	0,1,1
                        6501 	.section	.debug_info
                        6502 .LDW_4c43a58:
0000162c 0f             6503 	.byte	15
0000162d 50535f4d7367   6504 	.strz	"PS_MsgContext"
00001633 436f6e746578 
00001639 7400 
0000163b 8601           6505 	.byte	134,1
0000163d 3c             6506 	.byte	60
0000163e 01             6507 	.byte	1
0000163f 00000000*      6508 	.word	.LDW_48771f0
00001643 00             6509 	.byte	0
00001644 016b           6510 	.byte	1,107
                        6511 
                        6512 	.section	.debug_abbrev
00000160 0f             6513 	.byte	15
00000161 05             6514 	.byte	5
00000162 00             6515 	.byte	0
00000163 0308           6516 	.byte	3,8
00000165 3b0f           6517 	.byte	59,15
00000167 390f           6518 	.byte	57,15
00000169 3a0f           6519 	.byte	58,15
0000016b 4910           6520 	.byte	73,16
0000016d 4b0c           6521 	.byte	75,12
0000016f 020a           6522 	.byte	2,10
00000171 0000           6523 	.byte	0,0
                        6524 
                        6525 	.section	.debug_info
                        6526 .LDW_4871be0:
00001646 1d             6527 	.byte	29
00001647 00000000*      6528 	.word	.LDW21
0000164b 00000000*      6529 	.word	.LDW31
                        6530 

                                                                      Page 122
                                                              C:\Users\nhuliyap\AppData\Local\Temp\gh_0000ds81.s
                        6531 	.section	.debug_abbrev
00000173 1d             6532 	.byte	29
00000174 0b             6533 	.byte	11
00000175 01             6534 	.byte	1
00000176 1101           6535 	.byte	17,1
00000178 1201           6536 	.byte	18,1
0000017a 0000           6537 	.byte	0,0
                        6538 
                        6539 	.section	.debug_info
                        6540 .LDW_4c43ab0:
0000164f 05             6541 	.byte	5
00001650 55385f526574   6542 	.strz	"U8_RetVal"
00001656 56616c00 
0000165a 8801           6543 	.byte	136,1
0000165c 09             6544 	.byte	9
0000165d 01             6545 	.byte	1
0000165e 00000000*      6546 	.word	.LDW_4c438b8
00001662 00             6547 	.byte	0
00001663 00             6548 	.byte	0
                        6549 
                        6550 .LDW_4c43b08:
00001664 04             6551 	.byte	4
00001665 55385f4c6f6f   6552 	.strz	"U8_LoopCnt"
0000166b 70436e7400 
00001670 8901           6553 	.byte	137,1
00001672 09             6554 	.byte	9
00001673 01             6555 	.byte	1
00001674 00000000*      6556 	.word	.LDW_4c438b8
00001678 00             6557 	.byte	0
00001679 00             6558 	.byte	0
0000167a 0162           6559 	.byte	1,98
                        6560 
0000167c 00             6561 	.byte	0
                        6562 
0000167d 00             6563 	.byte	0
                        6564 
                        6565 .LDW_4c43b60:
0000167e 14             6566 	.byte	20
0000167f 444941475f5f   6567 	.strz	"DIAG__ReqCallback_ReadWSNr02"
00001685 52657143616c 
0000168b 6c6261636b5f 
00001691 526561645753 
00001697 4e72303200 
0000169c 9801           6568 	.byte	152,1
0000169e 0e             6569 	.byte	14
0000169f 01             6570 	.byte	1
000016a0 00000000*      6571 	.word	.LDW_4c438b8
000016a4 00000000*      6572 	.word	_DIAG__ReqCallback_ReadWSNr02..C.3A.5C_ECU2.5CECU_Rivian_A1.5CTarget.5Crepo_projects.5CpRealEcu.5CcR_LATEST.5Cmake.5Coutput.5Cobjects.5CSwcApplTpms_Diag.
000016a8 00000000*      6573 	.word	___ghs_eofn_DIAG__ReqCallback_ReadWSNr02
000016ac 0153           6574 	.byte	1,83
000016ae 828080c00b     6575 	.byte	130,128,128,192,11
000016b3 10             6576 	.byte	16
000016b4 03             6577 	.byte	3
000016b5 10             6578 	.byte	16
000016b6 00             6579 	.byte	0
000016b7 00             6580 	.byte	0
000016b8 00             6581 	.byte	0
000016b9 00             6582 	.byte	0
000016ba 01             6583 	.byte	1
000016bb 00             6584 	.byte	0
000016bc 01             6585 	.byte	1

                                                                      Page 123
                                                              C:\Users\nhuliyap\AppData\Local\Temp\gh_0000ds81.s
                        6586 
                        6587 	.section	.debug_frame
                        6588 .LDW_4cee678:
000000b4 00000000*      6589 	.word	.LDW_unq_6-.LDW_unq_5
                        6590 .LDW_unq_5:
000000b8 00000000*      6591 	.word	.LDW_4c4f988
000000bc 00000000*      6592 	.word	_DIAG__ReqCallback_ReadWSNr02..C.3A.5C_ECU2.5CECU_Rivian_A1.5CTarget.5Crepo_projects.5CpRealEcu.5CcR_LATEST.5Cmake.5Coutput.5Cobjects.5CSwcApplTpms_Diag.
000000c0 00000000*      6593 	.word	___ghs_eofn_DIAG__ReqCallback_ReadWSNr02-_DIAG__ReqCallback_ReadWSNr02..C.3A.5C_ECU2.5CECU_Rivian_A1.5CTarget.5Crepo_projects.5CpRealEcu.5CcR_LATEST.5Cmake.5Coutput.5Cobjects.5CSwcApplTpms_Diag.
000000c4 44             6594 	.byte	68
000000c5 9f             6595 	.byte	159
000000c6 00             6596 	.byte	0
000000c7 40             6597 	.byte	64
000000c8 9d             6598 	.byte	157
000000c9 04             6599 	.byte	4
000000ca 40             6600 	.byte	64
000000cb 9c             6601 	.byte	156
000000cc 08             6602 	.byte	8
000000cd 40             6603 	.byte	64
000000ce 9b             6604 	.byte	155
000000cf 0c             6605 	.byte	12
000000d0 01             6606 	.byte	1
000000d1 00000000*      6607 	.word	.LDW51
000000d5 00             6608 	.byte	0
000000d6 00             6609 	.byte	0
000000d7 00             6610 	.byte	0
                        6611 .LDW_unq_6:
                        6612 	.section	.debug_line
000004ee 000502         6613 	.byte	0,5,2
000004f1 00000000*      6614 	.word	_DIAG__ReqCallback_ReadWSNr02..C.3A.5C_ECU2.5CECU_Rivian_A1.5CTarget.5Crepo_projects.5CpRealEcu.5CcR_LATEST.5Cmake.5Coutput.5Cobjects.5CSwcApplTpms_Diag.
000004f5 03             6615 	.byte	3
000004f6 9801           6616 	.byte	152,1
000004f8 02             6617 	.byte	2
000004f9 00             6618 	.byte	0
000004fa 01             6619 	.byte	1
000004fb 06             6620 	.byte	6
000004fc 000502         6621 	.byte	0,5,2
000004ff 00000000*      6622 	.word	.LDWlin12
00000503 0d             6623 	.byte	13
00000504 02             6624 	.byte	2
00000505 02             6625 	.byte	2
00000506 0c             6626 	.byte	12
00000507 03             6627 	.byte	3
00000508 7e             6628 	.byte	126
00000509 02             6629 	.byte	2
0000050a 04             6630 	.byte	4
0000050b 01             6631 	.byte	1
0000050c 000502         6632 	.byte	0,5,2
0000050f 00000000*      6633 	.word	.LDWlin13
00000513 0d             6634 	.byte	13
00000514 0b             6635 	.byte	11
00000515 000502         6636 	.byte	0,5,2
00000518 00000000*      6637 	.word	.LDWlin14
0000051c 0c             6638 	.byte	12
0000051d 14             6639 	.byte	20
0000051e 2b             6640 	.byte	43
0000051f 14             6641 	.byte	20
00000520 06             6642 	.byte	6
00000521 02             6643 	.byte	2
00000522 02             6644 	.byte	2
00000523 02             6645 	.byte	2
00000524 04             6646 	.byte	4

                                                                      Page 124
                                                              C:\Users\nhuliyap\AppData\Local\Temp\gh_0000ds81.s
00000525 000101         6647 	.byte	0,1,1
                        6648 	.section	.debug_info
                        6649 .LDW_4c43bf8:
000016bd 0f             6650 	.byte	15
000016be 50535f4d7367   6651 	.strz	"PS_MsgContext"
000016c4 436f6e746578 
000016ca 7400 
000016cc 9801           6652 	.byte	152,1
000016ce 3c             6653 	.byte	60
000016cf 01             6654 	.byte	1
000016d0 00000000*      6655 	.word	.LDW_48771f0
000016d4 00             6656 	.byte	0
000016d5 016b           6657 	.byte	1,107
                        6658 
                        6659 .LDW_4871a60:
000016d7 1d             6660 	.byte	29
000016d8 00000000*      6661 	.word	.LDW41
000016dc 00000000*      6662 	.word	.LDW51
                        6663 
                        6664 .LDW_4c43c50:
000016e0 05             6665 	.byte	5
000016e1 55385f526574   6666 	.strz	"U8_RetVal"
000016e7 56616c00 
000016eb 9a01           6667 	.byte	154,1
000016ed 09             6668 	.byte	9
000016ee 01             6669 	.byte	1
000016ef 00000000*      6670 	.word	.LDW_4c438b8
000016f3 00             6671 	.byte	0
000016f4 00             6672 	.byte	0
                        6673 
                        6674 .LDW_4c43ca8:
000016f5 04             6675 	.byte	4
000016f6 55385f4c6f6f   6676 	.strz	"U8_LoopCnt"
000016fc 70436e7400 
00001701 9b01           6677 	.byte	155,1
00001703 09             6678 	.byte	9
00001704 01             6679 	.byte	1
00001705 00000000*      6680 	.word	.LDW_4c438b8
00001709 00             6681 	.byte	0
0000170a 00             6682 	.byte	0
0000170b 0162           6683 	.byte	1,98
                        6684 
0000170d 00             6685 	.byte	0
                        6686 
0000170e 00             6687 	.byte	0
                        6688 
                        6689 .LDW_48b8598:
0000170f 14             6690 	.byte	20
00001710 444941475f5f   6691 	.strz	"DIAG__ReqCallback_ReadWSNr03"
00001716 52657143616c 
0000171c 6c6261636b5f 
00001722 526561645753 
00001728 4e72303300 
0000172d aa01           6692 	.byte	170,1
0000172f 0e             6693 	.byte	14
00001730 01             6694 	.byte	1
00001731 00000000*      6695 	.word	.LDW_4c438b8
00001735 00000000*      6696 	.word	_DIAG__ReqCallback_ReadWSNr03..C.3A.5C_ECU2.5CECU_Rivian_A1.5CTarget.5Crepo_projects.5CpRealEcu.5CcR_LATEST.5Cmake.5Coutput.5Cobjects.5CSwcApplTpms_Diag.
00001739 00000000*      6697 	.word	___ghs_eofn_DIAG__ReqCallback_ReadWSNr03
0000173d 0153           6698 	.byte	1,83
0000173f 828080c00b     6699 	.byte	130,128,128,192,11

                                                                      Page 125
                                                              C:\Users\nhuliyap\AppData\Local\Temp\gh_0000ds81.s
00001744 10             6700 	.byte	16
00001745 03             6701 	.byte	3
00001746 10             6702 	.byte	16
00001747 00             6703 	.byte	0
00001748 00             6704 	.byte	0
00001749 00             6705 	.byte	0
0000174a 00             6706 	.byte	0
0000174b 01             6707 	.byte	1
0000174c 00             6708 	.byte	0
0000174d 01             6709 	.byte	1
                        6710 
                        6711 	.section	.debug_frame
                        6712 .LDW_4cef2b8:
000000d8 00000000*      6713 	.word	.LDW_unq_8-.LDW_unq_7
                        6714 .LDW_unq_7:
000000dc 00000000*      6715 	.word	.LDW_4c4f988
000000e0 00000000*      6716 	.word	_DIAG__ReqCallback_ReadWSNr03..C.3A.5C_ECU2.5CECU_Rivian_A1.5CTarget.5Crepo_projects.5CpRealEcu.5CcR_LATEST.5Cmake.5Coutput.5Cobjects.5CSwcApplTpms_Diag.
000000e4 00000000*      6717 	.word	___ghs_eofn_DIAG__ReqCallback_ReadWSNr03-_DIAG__ReqCallback_ReadWSNr03..C.3A.5C_ECU2.5CECU_Rivian_A1.5CTarget.5Crepo_projects.5CpRealEcu.5CcR_LATEST.5Cmake.5Coutput.5Cobjects.5CSwcApplTpms_Diag.
000000e8 44             6718 	.byte	68
000000e9 9f             6719 	.byte	159
000000ea 00             6720 	.byte	0
000000eb 40             6721 	.byte	64
000000ec 9d             6722 	.byte	157
000000ed 04             6723 	.byte	4
000000ee 40             6724 	.byte	64
000000ef 9c             6725 	.byte	156
000000f0 08             6726 	.byte	8
000000f1 40             6727 	.byte	64
000000f2 9b             6728 	.byte	155
000000f3 0c             6729 	.byte	12
000000f4 01             6730 	.byte	1
000000f5 00000000*      6731 	.word	.LDW71
000000f9 00             6732 	.byte	0
000000fa 00             6733 	.byte	0
000000fb 00             6734 	.byte	0
                        6735 .LDW_unq_8:
                        6736 	.section	.debug_line
00000528 000502         6737 	.byte	0,5,2
0000052b 00000000*      6738 	.word	_DIAG__ReqCallback_ReadWSNr03..C.3A.5C_ECU2.5CECU_Rivian_A1.5CTarget.5Crepo_projects.5CpRealEcu.5CcR_LATEST.5Cmake.5Coutput.5Cobjects.5CSwcApplTpms_Diag.
0000052f 03             6739 	.byte	3
00000530 aa01           6740 	.byte	170,1
00000532 02             6741 	.byte	2
00000533 00             6742 	.byte	0
00000534 01             6743 	.byte	1
00000535 06             6744 	.byte	6
00000536 000502         6745 	.byte	0,5,2
00000539 00000000*      6746 	.word	.LDWlin15
0000053d 0d             6747 	.byte	13
0000053e 02             6748 	.byte	2
0000053f 02             6749 	.byte	2
00000540 0c             6750 	.byte	12
00000541 03             6751 	.byte	3
00000542 7e             6752 	.byte	126
00000543 02             6753 	.byte	2
00000544 04             6754 	.byte	4
00000545 01             6755 	.byte	1
00000546 000502         6756 	.byte	0,5,2
00000549 00000000*      6757 	.word	.LDWlin16
0000054d 0d             6758 	.byte	13
0000054e 0b             6759 	.byte	11
0000054f 000502         6760 	.byte	0,5,2

                                                                      Page 126
                                                              C:\Users\nhuliyap\AppData\Local\Temp\gh_0000ds81.s
00000552 00000000*      6761 	.word	.LDWlin17
00000556 0c             6762 	.byte	12
00000557 14             6763 	.byte	20
00000558 2b             6764 	.byte	43
00000559 14             6765 	.byte	20
0000055a 06             6766 	.byte	6
0000055b 02             6767 	.byte	2
0000055c 02             6768 	.byte	2
0000055d 02             6769 	.byte	2
0000055e 04             6770 	.byte	4
0000055f 000101         6771 	.byte	0,1,1
                        6772 	.section	.debug_info
                        6773 .LDW_4c43d00:
0000174e 0f             6774 	.byte	15
0000174f 50535f4d7367   6775 	.strz	"PS_MsgContext"
00001755 436f6e746578 
0000175b 7400 
0000175d aa01           6776 	.byte	170,1
0000175f 3c             6777 	.byte	60
00001760 01             6778 	.byte	1
00001761 00000000*      6779 	.word	.LDW_48771f0
00001765 00             6780 	.byte	0
00001766 016b           6781 	.byte	1,107
                        6782 
                        6783 .LDW_4871ac0:
00001768 1d             6784 	.byte	29
00001769 00000000*      6785 	.word	.LDW61
0000176d 00000000*      6786 	.word	.LDW71
                        6787 
                        6788 .LDW_48b8630:
00001771 05             6789 	.byte	5
00001772 55385f526574   6790 	.strz	"U8_RetVal"
00001778 56616c00 
0000177c ac01           6791 	.byte	172,1
0000177e 09             6792 	.byte	9
0000177f 01             6793 	.byte	1
00001780 00000000*      6794 	.word	.LDW_4c438b8
00001784 00             6795 	.byte	0
00001785 00             6796 	.byte	0
                        6797 
                        6798 .LDW_48b8688:
00001786 04             6799 	.byte	4
00001787 55385f4c6f6f   6800 	.strz	"U8_LoopCnt"
0000178d 70436e7400 
00001792 ad01           6801 	.byte	173,1
00001794 09             6802 	.byte	9
00001795 01             6803 	.byte	1
00001796 00000000*      6804 	.word	.LDW_4c438b8
0000179a 00             6805 	.byte	0
0000179b 00             6806 	.byte	0
0000179c 0162           6807 	.byte	1,98
                        6808 
0000179e 00             6809 	.byte	0
                        6810 
0000179f 00             6811 	.byte	0
                        6812 
                        6813 .LDW_48b86e0:
000017a0 14             6814 	.byte	20
000017a1 444941475f5f   6815 	.strz	"DIAG__ReqCallback_ReadWSNr04"
000017a7 52657143616c 
000017ad 6c6261636b5f 

                                                                      Page 127
                                                              C:\Users\nhuliyap\AppData\Local\Temp\gh_0000ds81.s
000017b3 526561645753 
000017b9 4e72303400 
000017be bc01           6816 	.byte	188,1
000017c0 0e             6817 	.byte	14
000017c1 01             6818 	.byte	1
000017c2 00000000*      6819 	.word	.LDW_4c438b8
000017c6 00000000*      6820 	.word	_DIAG__ReqCallback_ReadWSNr04..C.3A.5C_ECU2.5CECU_Rivian_A1.5CTarget.5Crepo_projects.5CpRealEcu.5CcR_LATEST.5Cmake.5Coutput.5Cobjects.5CSwcApplTpms_Diag.
000017ca 00000000*      6821 	.word	___ghs_eofn_DIAG__ReqCallback_ReadWSNr04
000017ce 0153           6822 	.byte	1,83
000017d0 828080c00b     6823 	.byte	130,128,128,192,11
000017d5 10             6824 	.byte	16
000017d6 03             6825 	.byte	3
000017d7 10             6826 	.byte	16
000017d8 00             6827 	.byte	0
000017d9 00             6828 	.byte	0
000017da 00             6829 	.byte	0
000017db 00             6830 	.byte	0
000017dc 01             6831 	.byte	1
000017dd 00             6832 	.byte	0
000017de 01             6833 	.byte	1
                        6834 
                        6835 	.section	.debug_frame
                        6836 .LDW_4cef238:
000000fc 00000000*      6837 	.word	.LDW_unq_a-.LDW_unq_9
                        6838 .LDW_unq_9:
00000100 00000000*      6839 	.word	.LDW_4c4f988
00000104 00000000*      6840 	.word	_DIAG__ReqCallback_ReadWSNr04..C.3A.5C_ECU2.5CECU_Rivian_A1.5CTarget.5Crepo_projects.5CpRealEcu.5CcR_LATEST.5Cmake.5Coutput.5Cobjects.5CSwcApplTpms_Diag.
00000108 00000000*      6841 	.word	___ghs_eofn_DIAG__ReqCallback_ReadWSNr04-_DIAG__ReqCallback_ReadWSNr04..C.3A.5C_ECU2.5CECU_Rivian_A1.5CTarget.5Crepo_projects.5CpRealEcu.5CcR_LATEST.5Cmake.5Coutput.5Cobjects.5CSwcApplTpms_Diag.
0000010c 44             6842 	.byte	68
0000010d 9f             6843 	.byte	159
0000010e 00             6844 	.byte	0
0000010f 40             6845 	.byte	64
00000110 9d             6846 	.byte	157
00000111 04             6847 	.byte	4
00000112 40             6848 	.byte	64
00000113 9c             6849 	.byte	156
00000114 08             6850 	.byte	8
00000115 40             6851 	.byte	64
00000116 9b             6852 	.byte	155
00000117 0c             6853 	.byte	12
00000118 01             6854 	.byte	1
00000119 00000000*      6855 	.word	.LDW91
0000011d 00             6856 	.byte	0
0000011e 00             6857 	.byte	0
0000011f 00             6858 	.byte	0
                        6859 .LDW_unq_a:
                        6860 	.section	.debug_line
00000562 000502         6861 	.byte	0,5,2
00000565 00000000*      6862 	.word	_DIAG__ReqCallback_ReadWSNr04..C.3A.5C_ECU2.5CECU_Rivian_A1.5CTarget.5Crepo_projects.5CpRealEcu.5CcR_LATEST.5Cmake.5Coutput.5Cobjects.5CSwcApplTpms_Diag.
00000569 03             6863 	.byte	3
0000056a bc01           6864 	.byte	188,1
0000056c 02             6865 	.byte	2
0000056d 00             6866 	.byte	0
0000056e 01             6867 	.byte	1
0000056f 06             6868 	.byte	6
00000570 000502         6869 	.byte	0,5,2
00000573 00000000*      6870 	.word	.LDWlin18
00000577 0d             6871 	.byte	13
00000578 02             6872 	.byte	2
00000579 02             6873 	.byte	2
0000057a 0c             6874 	.byte	12

                                                                      Page 128
                                                              C:\Users\nhuliyap\AppData\Local\Temp\gh_0000ds81.s
0000057b 03             6875 	.byte	3
0000057c 7e             6876 	.byte	126
0000057d 02             6877 	.byte	2
0000057e 04             6878 	.byte	4
0000057f 01             6879 	.byte	1
00000580 000502         6880 	.byte	0,5,2
00000583 00000000*      6881 	.word	.LDWlin19
00000587 0d             6882 	.byte	13
00000588 0b             6883 	.byte	11
00000589 000502         6884 	.byte	0,5,2
0000058c 00000000*      6885 	.word	.LDWlin20
00000590 0c             6886 	.byte	12
00000591 14             6887 	.byte	20
00000592 2b             6888 	.byte	43
00000593 14             6889 	.byte	20
00000594 06             6890 	.byte	6
00000595 02             6891 	.byte	2
00000596 02             6892 	.byte	2
00000597 02             6893 	.byte	2
00000598 04             6894 	.byte	4
00000599 000101         6895 	.byte	0,1,1
                        6896 	.section	.debug_info
                        6897 .LDW_48b8778:
000017df 0f             6898 	.byte	15
000017e0 50535f4d7367   6899 	.strz	"PS_MsgContext"
000017e6 436f6e746578 
000017ec 7400 
000017ee bc01           6900 	.byte	188,1
000017f0 3c             6901 	.byte	60
000017f1 01             6902 	.byte	1
000017f2 00000000*      6903 	.word	.LDW_48771f0
000017f6 00             6904 	.byte	0
000017f7 016b           6905 	.byte	1,107
                        6906 
                        6907 .LDW_4c9c2c8:
000017f9 1d             6908 	.byte	29
000017fa 00000000*      6909 	.word	.LDW81
000017fe 00000000*      6910 	.word	.LDW91
                        6911 
                        6912 .LDW_48b87d0:
00001802 05             6913 	.byte	5
00001803 55385f526574   6914 	.strz	"U8_RetVal"
00001809 56616c00 
0000180d be01           6915 	.byte	190,1
0000180f 09             6916 	.byte	9
00001810 01             6917 	.byte	1
00001811 00000000*      6918 	.word	.LDW_4c438b8
00001815 00             6919 	.byte	0
00001816 00             6920 	.byte	0
                        6921 
                        6922 .LDW_48b8828:
00001817 04             6923 	.byte	4
00001818 55385f4c6f6f   6924 	.strz	"U8_LoopCnt"
0000181e 70436e7400 
00001823 bf01           6925 	.byte	191,1
00001825 09             6926 	.byte	9
00001826 01             6927 	.byte	1
00001827 00000000*      6928 	.word	.LDW_4c438b8
0000182b 00             6929 	.byte	0
0000182c 00             6930 	.byte	0
0000182d 0162           6931 	.byte	1,98

                                                                      Page 129
                                                              C:\Users\nhuliyap\AppData\Local\Temp\gh_0000ds81.s
                        6932 
0000182f 00             6933 	.byte	0
                        6934 
00001830 00             6935 	.byte	0
                        6936 
                        6937 .LDW_48b8880:
00001831 14             6938 	.byte	20
00001832 444941475f5f   6939 	.strz	"DIAG__ReqCallback_ReadIdFL"
00001838 52657143616c 
0000183e 6c6261636b5f 
00001844 526561644964 
0000184a 464c00 
0000184d ce01           6940 	.byte	206,1
0000184f 0e             6941 	.byte	14
00001850 01             6942 	.byte	1
00001851 00000000*      6943 	.word	.LDW_4c438b8
00001855 00000000*      6944 	.word	_DIAG__ReqCallback_ReadIdFL..C.3A.5C_ECU2.5CECU_Rivian_A1.5CTarget.5Crepo_projects.5CpRealEcu.5CcR_LATEST.5Cmake.5Coutput.5Cobjects.5CSwcApplTpms_Diag.
00001859 00000000*      6945 	.word	___ghs_eofn_DIAG__ReqCallback_ReadIdFL
0000185d 0153           6946 	.byte	1,83
0000185f 828080c00b     6947 	.byte	130,128,128,192,11
00001864 10             6948 	.byte	16
00001865 03             6949 	.byte	3
00001866 10             6950 	.byte	16
00001867 00             6951 	.byte	0
00001868 00             6952 	.byte	0
00001869 00             6953 	.byte	0
0000186a 00             6954 	.byte	0
0000186b 01             6955 	.byte	1
0000186c 00             6956 	.byte	0
0000186d 01             6957 	.byte	1
                        6958 
                        6959 	.section	.debug_frame
                        6960 .LDW_4cef338:
00000120 00000000*      6961 	.word	.LDW_unq_c-.LDW_unq_b
                        6962 .LDW_unq_b:
00000124 00000000*      6963 	.word	.LDW_4c4f988
00000128 00000000*      6964 	.word	_DIAG__ReqCallback_ReadIdFL..C.3A.5C_ECU2.5CECU_Rivian_A1.5CTarget.5Crepo_projects.5CpRealEcu.5CcR_LATEST.5Cmake.5Coutput.5Cobjects.5CSwcApplTpms_Diag.
0000012c 00000000*      6965 	.word	___ghs_eofn_DIAG__ReqCallback_ReadIdFL-_DIAG__ReqCallback_ReadIdFL..C.3A.5C_ECU2.5CECU_Rivian_A1.5CTarget.5Crepo_projects.5CpRealEcu.5CcR_LATEST.5Cmake.5Coutput.5Cobjects.5CSwcApplTpms_Diag.
00000130 44             6966 	.byte	68
00000131 9f             6967 	.byte	159
00000132 00             6968 	.byte	0
00000133 40             6969 	.byte	64
00000134 9d             6970 	.byte	157
00000135 04             6971 	.byte	4
00000136 40             6972 	.byte	64
00000137 9c             6973 	.byte	156
00000138 08             6974 	.byte	8
00000139 40             6975 	.byte	64
0000013a 9b             6976 	.byte	155
0000013b 0c             6977 	.byte	12
0000013c 01             6978 	.byte	1
0000013d 00000000*      6979 	.word	.LDW32
00000141 00             6980 	.byte	0
00000142 00             6981 	.byte	0
00000143 00             6982 	.byte	0
                        6983 .LDW_unq_c:
                        6984 	.section	.debug_line
0000059c 000502         6985 	.byte	0,5,2
0000059f 00000000*      6986 	.word	_DIAG__ReqCallback_ReadIdFL..C.3A.5C_ECU2.5CECU_Rivian_A1.5CTarget.5Crepo_projects.5CpRealEcu.5CcR_LATEST.5Cmake.5Coutput.5Cobjects.5CSwcApplTpms_Diag.
000005a3 03             6987 	.byte	3
000005a4 ce01           6988 	.byte	206,1

                                                                      Page 130
                                                              C:\Users\nhuliyap\AppData\Local\Temp\gh_0000ds81.s
000005a6 02             6989 	.byte	2
000005a7 00             6990 	.byte	0
000005a8 01             6991 	.byte	1
000005a9 06             6992 	.byte	6
000005aa 000502         6993 	.byte	0,5,2
000005ad 00000000*      6994 	.word	.LDWlin22
000005b1 0d             6995 	.byte	13
000005b2 02             6996 	.byte	2
000005b3 02             6997 	.byte	2
000005b4 0c             6998 	.byte	12
000005b5 03             6999 	.byte	3
000005b6 7e             7000 	.byte	126
000005b7 02             7001 	.byte	2
000005b8 04             7002 	.byte	4
000005b9 01             7003 	.byte	1
000005ba 000502         7004 	.byte	0,5,2
000005bd 00000000*      7005 	.word	.LDWlin23
000005c1 0d             7006 	.byte	13
000005c2 0c             7007 	.byte	12
000005c3 000502         7008 	.byte	0,5,2
000005c6 00000000*      7009 	.word	.LDWlin24
000005ca 0c             7010 	.byte	12
000005cb 14             7011 	.byte	20
000005cc 2b             7012 	.byte	43
000005cd 14             7013 	.byte	20
000005ce 06             7014 	.byte	6
000005cf 02             7015 	.byte	2
000005d0 02             7016 	.byte	2
000005d1 02             7017 	.byte	2
000005d2 04             7018 	.byte	4
000005d3 000101         7019 	.byte	0,1,1
                        7020 	.section	.debug_info
                        7021 .LDW_48b8918:
0000186e 0f             7022 	.byte	15
0000186f 50535f4d7367   7023 	.strz	"PS_MsgContext"
00001875 436f6e746578 
0000187b 7400 
0000187d ce01           7024 	.byte	206,1
0000187f 3a             7025 	.byte	58
00001880 01             7026 	.byte	1
00001881 00000000*      7027 	.word	.LDW_48771f0
00001885 00             7028 	.byte	0
00001886 016b           7029 	.byte	1,107
                        7030 
                        7031 .LDW_4c9c088:
00001888 1d             7032 	.byte	29
00001889 00000000*      7033 	.word	.LDW22
0000188d 00000000*      7034 	.word	.LDW32
                        7035 
                        7036 .LDW_4c9c640:
00001891 05             7037 	.byte	5
00001892 55385f526574   7038 	.strz	"U8_RetVal"
00001898 56616c00 
0000189c d001           7039 	.byte	208,1
0000189e 09             7040 	.byte	9
0000189f 01             7041 	.byte	1
000018a0 00000000*      7042 	.word	.LDW_4c438b8
000018a4 00             7043 	.byte	0
000018a5 00             7044 	.byte	0
                        7045 
                        7046 .LDW_4c9c7a0:

                                                                      Page 131
                                                              C:\Users\nhuliyap\AppData\Local\Temp\gh_0000ds81.s
000018a6 04             7047 	.byte	4
000018a7 55385f4c6f6f   7048 	.strz	"U8_LoopCnt"
000018ad 70436e7400 
000018b2 d101           7049 	.byte	209,1
000018b4 09             7050 	.byte	9
000018b5 01             7051 	.byte	1
000018b6 00000000*      7052 	.word	.LDW_4c438b8
000018ba 00             7053 	.byte	0
000018bb 00             7054 	.byte	0
000018bc 0162           7055 	.byte	1,98
                        7056 
000018be 00             7057 	.byte	0
                        7058 
000018bf 00             7059 	.byte	0
                        7060 
                        7061 .LDW_48b8970:
000018c0 14             7062 	.byte	20
000018c1 444941475f5f   7063 	.strz	"DIAG__ReqCallback_ReadIdFR"
000018c7 52657143616c 
000018cd 6c6261636b5f 
000018d3 526561644964 
000018d9 465200 
000018dc e101           7064 	.byte	225,1
000018de 0e             7065 	.byte	14
000018df 01             7066 	.byte	1
000018e0 00000000*      7067 	.word	.LDW_4c438b8
000018e4 00000000*      7068 	.word	_DIAG__ReqCallback_ReadIdFR..C.3A.5C_ECU2.5CECU_Rivian_A1.5CTarget.5Crepo_projects.5CpRealEcu.5CcR_LATEST.5Cmake.5Coutput.5Cobjects.5CSwcApplTpms_Diag.
000018e8 00000000*      7069 	.word	___ghs_eofn_DIAG__ReqCallback_ReadIdFR
000018ec 0153           7070 	.byte	1,83
000018ee 828080c00b     7071 	.byte	130,128,128,192,11
000018f3 10             7072 	.byte	16
000018f4 03             7073 	.byte	3
000018f5 10             7074 	.byte	16
000018f6 00             7075 	.byte	0
000018f7 00             7076 	.byte	0
000018f8 00             7077 	.byte	0
000018f9 00             7078 	.byte	0
000018fa 01             7079 	.byte	1
000018fb 00             7080 	.byte	0
000018fc 01             7081 	.byte	1
                        7082 
                        7083 	.section	.debug_frame
                        7084 .LDW_4cef1f8:
00000144 00000000*      7085 	.word	.LDW_unq_e-.LDW_unq_d
                        7086 .LDW_unq_d:
00000148 00000000*      7087 	.word	.LDW_4c4f988
0000014c 00000000*      7088 	.word	_DIAG__ReqCallback_ReadIdFR..C.3A.5C_ECU2.5CECU_Rivian_A1.5CTarget.5Crepo_projects.5CpRealEcu.5CcR_LATEST.5Cmake.5Coutput.5Cobjects.5CSwcApplTpms_Diag.
00000150 00000000*      7089 	.word	___ghs_eofn_DIAG__ReqCallback_ReadIdFR-_DIAG__ReqCallback_ReadIdFR..C.3A.5C_ECU2.5CECU_Rivian_A1.5CTarget.5Crepo_projects.5CpRealEcu.5CcR_LATEST.5Cmake.5Coutput.5Cobjects.5CSwcApplTpms_Diag.
00000154 44             7090 	.byte	68
00000155 9f             7091 	.byte	159
00000156 00             7092 	.byte	0
00000157 40             7093 	.byte	64
00000158 9d             7094 	.byte	157
00000159 04             7095 	.byte	4
0000015a 40             7096 	.byte	64
0000015b 9c             7097 	.byte	156
0000015c 08             7098 	.byte	8
0000015d 40             7099 	.byte	64
0000015e 9b             7100 	.byte	155
0000015f 0c             7101 	.byte	12
00000160 01             7102 	.byte	1

                                                                      Page 132
                                                              C:\Users\nhuliyap\AppData\Local\Temp\gh_0000ds81.s
00000161 00000000*      7103 	.word	.LDW52
00000165 00             7104 	.byte	0
00000166 00             7105 	.byte	0
00000167 00             7106 	.byte	0
                        7107 .LDW_unq_e:
                        7108 	.section	.debug_line
000005d6 000502         7109 	.byte	0,5,2
000005d9 00000000*      7110 	.word	_DIAG__ReqCallback_ReadIdFR..C.3A.5C_ECU2.5CECU_Rivian_A1.5CTarget.5Crepo_projects.5CpRealEcu.5CcR_LATEST.5Cmake.5Coutput.5Cobjects.5CSwcApplTpms_Diag.
000005dd 03             7111 	.byte	3
000005de e101           7112 	.byte	225,1
000005e0 02             7113 	.byte	2
000005e1 00             7114 	.byte	0
000005e2 01             7115 	.byte	1
000005e3 06             7116 	.byte	6
000005e4 000502         7117 	.byte	0,5,2
000005e7 00000000*      7118 	.word	.LDWlin25
000005eb 0d             7119 	.byte	13
000005ec 02             7120 	.byte	2
000005ed 02             7121 	.byte	2
000005ee 0c             7122 	.byte	12
000005ef 03             7123 	.byte	3
000005f0 7e             7124 	.byte	126
000005f1 02             7125 	.byte	2
000005f2 04             7126 	.byte	4
000005f3 01             7127 	.byte	1
000005f4 000502         7128 	.byte	0,5,2
000005f7 00000000*      7129 	.word	.LDWlin26
000005fb 0d             7130 	.byte	13
000005fc 0c             7131 	.byte	12
000005fd 000502         7132 	.byte	0,5,2
00000600 00000000*      7133 	.word	.LDWlin27
00000604 0c             7134 	.byte	12
00000605 14             7135 	.byte	20
00000606 2b             7136 	.byte	43
00000607 14             7137 	.byte	20
00000608 06             7138 	.byte	6
00000609 02             7139 	.byte	2
0000060a 02             7140 	.byte	2
0000060b 02             7141 	.byte	2
0000060c 04             7142 	.byte	4
0000060d 000101         7143 	.byte	0,1,1
                        7144 	.section	.debug_info
                        7145 .LDW_4c9c7f8:
000018fd 0f             7146 	.byte	15
000018fe 50535f4d7367   7147 	.strz	"PS_MsgContext"
00001904 436f6e746578 
0000190a 7400 
0000190c e101           7148 	.byte	225,1
0000190e 3a             7149 	.byte	58
0000190f 01             7150 	.byte	1
00001910 00000000*      7151 	.word	.LDW_48771f0
00001914 00             7152 	.byte	0
00001915 016b           7153 	.byte	1,107
                        7154 
                        7155 .LDW_4c9c2f8:
00001917 1d             7156 	.byte	29
00001918 00000000*      7157 	.word	.LDW42
0000191c 00000000*      7158 	.word	.LDW52
                        7159 
                        7160 .LDW_4c9c850:
00001920 05             7161 	.byte	5

                                                                      Page 133
                                                              C:\Users\nhuliyap\AppData\Local\Temp\gh_0000ds81.s
00001921 55385f526574   7162 	.strz	"U8_RetVal"
00001927 56616c00 
0000192b e301           7163 	.byte	227,1
0000192d 09             7164 	.byte	9
0000192e 01             7165 	.byte	1
0000192f 00000000*      7166 	.word	.LDW_4c438b8
00001933 00             7167 	.byte	0
00001934 00             7168 	.byte	0
                        7169 
                        7170 .LDW_4c9cb10:
00001935 04             7171 	.byte	4
00001936 55385f4c6f6f   7172 	.strz	"U8_LoopCnt"
0000193c 70436e7400 
00001941 e401           7173 	.byte	228,1
00001943 09             7174 	.byte	9
00001944 01             7175 	.byte	1
00001945 00000000*      7176 	.word	.LDW_4c438b8
00001949 00             7177 	.byte	0
0000194a 00             7178 	.byte	0
0000194b 0162           7179 	.byte	1,98
                        7180 
0000194d 00             7181 	.byte	0
                        7182 
0000194e 00             7183 	.byte	0
                        7184 
                        7185 .LDW_48b8a08:
0000194f 14             7186 	.byte	20
00001950 444941475f5f   7187 	.strz	"DIAG__ReqCallback_ReadIdRR"
00001956 52657143616c 
0000195c 6c6261636b5f 
00001962 526561644964 
00001968 525200 
0000196b f401           7188 	.byte	244,1
0000196d 0e             7189 	.byte	14
0000196e 01             7190 	.byte	1
0000196f 00000000*      7191 	.word	.LDW_4c438b8
00001973 00000000*      7192 	.word	_DIAG__ReqCallback_ReadIdRR..C.3A.5C_ECU2.5CECU_Rivian_A1.5CTarget.5Crepo_projects.5CpRealEcu.5CcR_LATEST.5Cmake.5Coutput.5Cobjects.5CSwcApplTpms_Diag.
00001977 00000000*      7193 	.word	___ghs_eofn_DIAG__ReqCallback_ReadIdRR
0000197b 0153           7194 	.byte	1,83
0000197d 828080c00b     7195 	.byte	130,128,128,192,11
00001982 10             7196 	.byte	16
00001983 03             7197 	.byte	3
00001984 10             7198 	.byte	16
00001985 00             7199 	.byte	0
00001986 00             7200 	.byte	0
00001987 00             7201 	.byte	0
00001988 00             7202 	.byte	0
00001989 01             7203 	.byte	1
0000198a 00             7204 	.byte	0
0000198b 01             7205 	.byte	1
                        7206 
                        7207 	.section	.debug_frame
                        7208 .LDW_4cef538:
00000168 00000000*      7209 	.word	.LDW_unq_10-.LDW_unq_f
                        7210 .LDW_unq_f:
0000016c 00000000*      7211 	.word	.LDW_4c4f988
00000170 00000000*      7212 	.word	_DIAG__ReqCallback_ReadIdRR..C.3A.5C_ECU2.5CECU_Rivian_A1.5CTarget.5Crepo_projects.5CpRealEcu.5CcR_LATEST.5Cmake.5Coutput.5Cobjects.5CSwcApplTpms_Diag.
00000174 00000000*      7213 	.word	___ghs_eofn_DIAG__ReqCallback_ReadIdRR-_DIAG__ReqCallback_ReadIdRR..C.3A.5C_ECU2.5CECU_Rivian_A1.5CTarget.5Crepo_projects.5CpRealEcu.5CcR_LATEST.5Cmake.5Coutput.5Cobjects.5CSwcApplTpms_Diag.
00000178 44             7214 	.byte	68
00000179 9f             7215 	.byte	159
0000017a 00             7216 	.byte	0

                                                                      Page 134
                                                              C:\Users\nhuliyap\AppData\Local\Temp\gh_0000ds81.s
0000017b 40             7217 	.byte	64
0000017c 9d             7218 	.byte	157
0000017d 04             7219 	.byte	4
0000017e 40             7220 	.byte	64
0000017f 9c             7221 	.byte	156
00000180 08             7222 	.byte	8
00000181 40             7223 	.byte	64
00000182 9b             7224 	.byte	155
00000183 0c             7225 	.byte	12
00000184 01             7226 	.byte	1
00000185 00000000*      7227 	.word	.LDW72
00000189 00             7228 	.byte	0
0000018a 00             7229 	.byte	0
0000018b 00             7230 	.byte	0
                        7231 .LDW_unq_10:
                        7232 	.section	.debug_line
00000610 000502         7233 	.byte	0,5,2
00000613 00000000*      7234 	.word	_DIAG__ReqCallback_ReadIdRR..C.3A.5C_ECU2.5CECU_Rivian_A1.5CTarget.5Crepo_projects.5CpRealEcu.5CcR_LATEST.5Cmake.5Coutput.5Cobjects.5CSwcApplTpms_Diag.
00000617 03             7235 	.byte	3
00000618 f401           7236 	.byte	244,1
0000061a 02             7237 	.byte	2
0000061b 00             7238 	.byte	0
0000061c 01             7239 	.byte	1
0000061d 06             7240 	.byte	6
0000061e 000502         7241 	.byte	0,5,2
00000621 00000000*      7242 	.word	.LDWlin28
00000625 0d             7243 	.byte	13
00000626 02             7244 	.byte	2
00000627 02             7245 	.byte	2
00000628 0c             7246 	.byte	12
00000629 03             7247 	.byte	3
0000062a 7e             7248 	.byte	126
0000062b 02             7249 	.byte	2
0000062c 04             7250 	.byte	4
0000062d 01             7251 	.byte	1
0000062e 000502         7252 	.byte	0,5,2
00000631 00000000*      7253 	.word	.LDWlin29
00000635 0d             7254 	.byte	13
00000636 0c             7255 	.byte	12
00000637 000502         7256 	.byte	0,5,2
0000063a 00000000*      7257 	.word	.LDWlin30
0000063e 0c             7258 	.byte	12
0000063f 14             7259 	.byte	20
00000640 2b             7260 	.byte	43
00000641 14             7261 	.byte	20
00000642 06             7262 	.byte	6
00000643 02             7263 	.byte	2
00000644 02             7264 	.byte	2
00000645 02             7265 	.byte	2
00000646 04             7266 	.byte	4
00000647 000101         7267 	.byte	0,1,1
                        7268 	.section	.debug_info
                        7269 .LDW_4c9ca60:
0000198c 0f             7270 	.byte	15
0000198d 50535f4d7367   7271 	.strz	"PS_MsgContext"
00001993 436f6e746578 
00001999 7400 
0000199b f401           7272 	.byte	244,1
0000199d 3a             7273 	.byte	58
0000199e 01             7274 	.byte	1
0000199f 00000000*      7275 	.word	.LDW_48771f0

                                                                      Page 135
                                                              C:\Users\nhuliyap\AppData\Local\Temp\gh_0000ds81.s
000019a3 00             7276 	.byte	0
000019a4 016b           7277 	.byte	1,107
                        7278 
                        7279 .LDW_4c9c3b8:
000019a6 1d             7280 	.byte	29
000019a7 00000000*      7281 	.word	.LDW62
000019ab 00000000*      7282 	.word	.LDW72
                        7283 
                        7284 .LDW_4c9c6f0:
000019af 05             7285 	.byte	5
000019b0 55385f526574   7286 	.strz	"U8_RetVal"
000019b6 56616c00 
000019ba f601           7287 	.byte	246,1
000019bc 09             7288 	.byte	9
000019bd 01             7289 	.byte	1
000019be 00000000*      7290 	.word	.LDW_4c438b8
000019c2 00             7291 	.byte	0
000019c3 00             7292 	.byte	0
                        7293 
                        7294 .LDW_4c9cab8:
000019c4 04             7295 	.byte	4
000019c5 55385f4c6f6f   7296 	.strz	"U8_LoopCnt"
000019cb 70436e7400 
000019d0 f701           7297 	.byte	247,1
000019d2 09             7298 	.byte	9
000019d3 01             7299 	.byte	1
000019d4 00000000*      7300 	.word	.LDW_4c438b8
000019d8 00             7301 	.byte	0
000019d9 00             7302 	.byte	0
000019da 0162           7303 	.byte	1,98
                        7304 
000019dc 00             7305 	.byte	0
                        7306 
000019dd 00             7307 	.byte	0
                        7308 
                        7309 .LDW_48b8aa0:
000019de 14             7310 	.byte	20
000019df 444941475f5f   7311 	.strz	"DIAG__ReqCallback_ReadIdRL"
000019e5 52657143616c 
000019eb 6c6261636b5f 
000019f1 526561644964 
000019f7 524c00 
000019fa 8702           7312 	.byte	135,2
000019fc 0e             7313 	.byte	14
000019fd 01             7314 	.byte	1
000019fe 00000000*      7315 	.word	.LDW_4c438b8
00001a02 00000000*      7316 	.word	_DIAG__ReqCallback_ReadIdRL..C.3A.5C_ECU2.5CECU_Rivian_A1.5CTarget.5Crepo_projects.5CpRealEcu.5CcR_LATEST.5Cmake.5Coutput.5Cobjects.5CSwcApplTpms_Diag.
00001a06 00000000*      7317 	.word	___ghs_eofn_DIAG__ReqCallback_ReadIdRL
00001a0a 0153           7318 	.byte	1,83
00001a0c 828080c00b     7319 	.byte	130,128,128,192,11
00001a11 10             7320 	.byte	16
00001a12 03             7321 	.byte	3
00001a13 10             7322 	.byte	16
00001a14 00             7323 	.byte	0
00001a15 00             7324 	.byte	0
00001a16 00             7325 	.byte	0
00001a17 00             7326 	.byte	0
00001a18 01             7327 	.byte	1
00001a19 00             7328 	.byte	0
00001a1a 01             7329 	.byte	1
                        7330 

                                                                      Page 136
                                                              C:\Users\nhuliyap\AppData\Local\Temp\gh_0000ds81.s
                        7331 	.section	.debug_frame
                        7332 .LDW_4ceef38:
0000018c 00000000*      7333 	.word	.LDW_unq_12-.LDW_unq_11
                        7334 .LDW_unq_11:
00000190 00000000*      7335 	.word	.LDW_4c4f988
00000194 00000000*      7336 	.word	_DIAG__ReqCallback_ReadIdRL..C.3A.5C_ECU2.5CECU_Rivian_A1.5CTarget.5Crepo_projects.5CpRealEcu.5CcR_LATEST.5Cmake.5Coutput.5Cobjects.5CSwcApplTpms_Diag.
00000198 00000000*      7337 	.word	___ghs_eofn_DIAG__ReqCallback_ReadIdRL-_DIAG__ReqCallback_ReadIdRL..C.3A.5C_ECU2.5CECU_Rivian_A1.5CTarget.5Crepo_projects.5CpRealEcu.5CcR_LATEST.5Cmake.5Coutput.5Cobjects.5CSwcApplTpms_Diag.
0000019c 44             7338 	.byte	68
0000019d 9f             7339 	.byte	159
0000019e 00             7340 	.byte	0
0000019f 40             7341 	.byte	64
000001a0 9d             7342 	.byte	157
000001a1 04             7343 	.byte	4
000001a2 40             7344 	.byte	64
000001a3 9c             7345 	.byte	156
000001a4 08             7346 	.byte	8
000001a5 40             7347 	.byte	64
000001a6 9b             7348 	.byte	155
000001a7 0c             7349 	.byte	12
000001a8 01             7350 	.byte	1
000001a9 00000000*      7351 	.word	.LDW92
000001ad 00             7352 	.byte	0
000001ae 00             7353 	.byte	0
000001af 00             7354 	.byte	0
                        7355 .LDW_unq_12:
                        7356 	.section	.debug_line
0000064a 000502         7357 	.byte	0,5,2
0000064d 00000000*      7358 	.word	_DIAG__ReqCallback_ReadIdRL..C.3A.5C_ECU2.5CECU_Rivian_A1.5CTarget.5Crepo_projects.5CpRealEcu.5CcR_LATEST.5Cmake.5Coutput.5Cobjects.5CSwcApplTpms_Diag.
00000651 03             7359 	.byte	3
00000652 8702           7360 	.byte	135,2
00000654 02             7361 	.byte	2
00000655 00             7362 	.byte	0
00000656 01             7363 	.byte	1
00000657 06             7364 	.byte	6
00000658 000502         7365 	.byte	0,5,2
0000065b 00000000*      7366 	.word	.LDWlin31
0000065f 0d             7367 	.byte	13
00000660 02             7368 	.byte	2
00000661 02             7369 	.byte	2
00000662 0c             7370 	.byte	12
00000663 03             7371 	.byte	3
00000664 7e             7372 	.byte	126
00000665 02             7373 	.byte	2
00000666 04             7374 	.byte	4
00000667 01             7375 	.byte	1
00000668 000502         7376 	.byte	0,5,2
0000066b 00000000*      7377 	.word	.LDWlin32
0000066f 0d             7378 	.byte	13
00000670 0c             7379 	.byte	12
00000671 000502         7380 	.byte	0,5,2
00000674 00000000*      7381 	.word	.LDWlin33
00000678 0c             7382 	.byte	12
00000679 14             7383 	.byte	20
0000067a 2b             7384 	.byte	43
0000067b 14             7385 	.byte	20
0000067c 06             7386 	.byte	6
0000067d 02             7387 	.byte	2
0000067e 02             7388 	.byte	2
0000067f 02             7389 	.byte	2
00000680 04             7390 	.byte	4
00000681 000101         7391 	.byte	0,1,1

                                                                      Page 137
                                                              C:\Users\nhuliyap\AppData\Local\Temp\gh_0000ds81.s
                        7392 	.section	.debug_info
                        7393 .LDW_4c9c5e8:
00001a1b 0f             7394 	.byte	15
00001a1c 50535f4d7367   7395 	.strz	"PS_MsgContext"
00001a22 436f6e746578 
00001a28 7400 
00001a2a 8702           7396 	.byte	135,2
00001a2c 3a             7397 	.byte	58
00001a2d 01             7398 	.byte	1
00001a2e 00000000*      7399 	.word	.LDW_48771f0
00001a32 00             7400 	.byte	0
00001a33 016b           7401 	.byte	1,107
                        7402 
                        7403 .LDW_4c9be48:
00001a35 1d             7404 	.byte	29
00001a36 00000000*      7405 	.word	.LDW82
00001a3a 00000000*      7406 	.word	.LDW92
                        7407 
                        7408 .LDW_4c9c698:
00001a3e 05             7409 	.byte	5
00001a3f 55385f526574   7410 	.strz	"U8_RetVal"
00001a45 56616c00 
00001a49 8902           7411 	.byte	137,2
00001a4b 09             7412 	.byte	9
00001a4c 01             7413 	.byte	1
00001a4d 00000000*      7414 	.word	.LDW_4c438b8
00001a51 00             7415 	.byte	0
00001a52 00             7416 	.byte	0
                        7417 
                        7418 .LDW_4c9c958:
00001a53 04             7419 	.byte	4
00001a54 55385f4c6f6f   7420 	.strz	"U8_LoopCnt"
00001a5a 70436e7400 
00001a5f 8a02           7421 	.byte	138,2
00001a61 09             7422 	.byte	9
00001a62 01             7423 	.byte	1
00001a63 00000000*      7424 	.word	.LDW_4c438b8
00001a67 00             7425 	.byte	0
00001a68 00             7426 	.byte	0
00001a69 0162           7427 	.byte	1,98
                        7428 
00001a6b 00             7429 	.byte	0
                        7430 
00001a6c 00             7431 	.byte	0
                        7432 
                        7433 .LDW_48b8b38:
00001a6d 14             7434 	.byte	20
00001a6e 444941475f5f   7435 	.strz	"DIAG__ReqCallback_ReadLastReceivedWheelSensor"
00001a74 52657143616c 
00001a7a 6c6261636b5f 
00001a80 526561644c61 
00001a86 737452656365 
00001a8c 697665645768 
00001a92 65656c53656e 
00001a98 736f7200 
00001a9c 9a02           7436 	.byte	154,2
00001a9e 0e             7437 	.byte	14
00001a9f 01             7438 	.byte	1
00001aa0 00000000*      7439 	.word	.LDW_4c438b8
00001aa4 00000000*      7440 	.word	_DIAG__ReqCallback_ReadLastReceivedWheelSensor..C.3A.5C_ECU2.5CECU_Rivian_A1.5CTarget.5Crepo_projects.5CpRealEcu.5CcR_LATEST.5Cmake.5Coutput.5Cobjects.5CSwcApplTpms_Diag.
00001aa8 00000000*      7441 	.word	___ghs_eofn_DIAG__ReqCallback_ReadLastReceivedWheelSensor

                                                                      Page 138
                                                              C:\Users\nhuliyap\AppData\Local\Temp\gh_0000ds81.s
00001aac 0153           7442 	.byte	1,83
00001aae 828080c00b     7443 	.byte	130,128,128,192,11
00001ab3 10             7444 	.byte	16
00001ab4 03             7445 	.byte	3
00001ab5 10             7446 	.byte	16
00001ab6 00             7447 	.byte	0
00001ab7 00             7448 	.byte	0
00001ab8 00             7449 	.byte	0
00001ab9 00             7450 	.byte	0
00001aba 01             7451 	.byte	1
00001abb 00             7452 	.byte	0
00001abc 01             7453 	.byte	1
                        7454 
                        7455 	.section	.debug_frame
                        7456 .LDW_4cef378:
000001b0 00000000*      7457 	.word	.LDW_unq_14-.LDW_unq_13
                        7458 .LDW_unq_13:
000001b4 00000000*      7459 	.word	.LDW_4c4f988
000001b8 00000000*      7460 	.word	_DIAG__ReqCallback_ReadLastReceivedWheelSensor..C.3A.5C_ECU2.5CECU_Rivian_A1.5CTarget.5Crepo_projects.5CpRealEcu.5CcR_LATEST.5Cmake.5Coutput.5Cobjects.5CSwcApplTpms_Diag.
000001bc 00000000*      7461 	.word	___ghs_eofn_DIAG__ReqCallback_ReadLastReceivedWheelSensor-_DIAG__ReqCallback_ReadLastReceivedWheelSensor..C.3A.5C_ECU2.5CECU_Rivian_A1.5CTarget.5Crepo_projects.5CpRealEcu.5CcR_LATEST.5Cmake.5Coutput.5Cobjects.5CSwcApplTpms_Diag.
000001c0 44             7462 	.byte	68
000001c1 9f             7463 	.byte	159
000001c2 00             7464 	.byte	0
000001c3 40             7465 	.byte	64
000001c4 9d             7466 	.byte	157
000001c5 04             7467 	.byte	4
000001c6 40             7468 	.byte	64
000001c7 9c             7469 	.byte	156
000001c8 08             7470 	.byte	8
000001c9 40             7471 	.byte	64
000001ca 9b             7472 	.byte	155
000001cb 0c             7473 	.byte	12
000001cc 01             7474 	.byte	1
000001cd 00000000*      7475 	.word	.LDW33
000001d1 00             7476 	.byte	0
000001d2 00             7477 	.byte	0
000001d3 00             7478 	.byte	0
                        7479 .LDW_unq_14:
                        7480 	.section	.debug_line
00000684 000502         7481 	.byte	0,5,2
00000687 00000000*      7482 	.word	_DIAG__ReqCallback_ReadLastReceivedWheelSensor..C.3A.5C_ECU2.5CECU_Rivian_A1.5CTarget.5Crepo_projects.5CpRealEcu.5CcR_LATEST.5Cmake.5Coutput.5Cobjects.5CSwcApplTpms_Diag.
0000068b 03             7483 	.byte	3
0000068c 9a02           7484 	.byte	154,2
0000068e 02             7485 	.byte	2
0000068f 00             7486 	.byte	0
00000690 01             7487 	.byte	1
00000691 06             7488 	.byte	6
00000692 000502         7489 	.byte	0,5,2
00000695 00000000*      7490 	.word	.LDWlin41
00000699 0d             7491 	.byte	13
0000069a 02             7492 	.byte	2
0000069b 02             7493 	.byte	2
0000069c 0c             7494 	.byte	12
0000069d 03             7495 	.byte	3
0000069e 7e             7496 	.byte	126
0000069f 02             7497 	.byte	2
000006a0 04             7498 	.byte	4
000006a1 01             7499 	.byte	1
000006a2 000502         7500 	.byte	0,5,2
000006a5 00000000*      7501 	.word	.LDWlin42
000006a9 0d             7502 	.byte	13

                                                                      Page 139
                                                              C:\Users\nhuliyap\AppData\Local\Temp\gh_0000ds81.s
000006aa 0b             7503 	.byte	11
000006ab 000502         7504 	.byte	0,5,2
000006ae 00000000*      7505 	.word	.LDWlin43
000006b2 0c             7506 	.byte	12
000006b3 14             7507 	.byte	20
000006b4 2b             7508 	.byte	43
000006b5 14             7509 	.byte	20
000006b6 06             7510 	.byte	6
000006b7 02             7511 	.byte	2
000006b8 02             7512 	.byte	2
000006b9 02             7513 	.byte	2
000006ba 04             7514 	.byte	4
000006bb 000101         7515 	.byte	0,1,1
                        7516 	.section	.debug_info
                        7517 .LDW_4c9cbc0:
00001abd 0f             7518 	.byte	15
00001abe 50535f4d7367   7519 	.strz	"PS_MsgContext"
00001ac4 436f6e746578 
00001aca 7400 
00001acc 9a02           7520 	.byte	154,2
00001ace 4d             7521 	.byte	77
00001acf 01             7522 	.byte	1
00001ad0 00000000*      7523 	.word	.LDW_48771f0
00001ad4 00             7524 	.byte	0
00001ad5 016b           7525 	.byte	1,107
                        7526 
                        7527 .LDW_4c9bea8:
00001ad7 1d             7528 	.byte	29
00001ad8 00000000*      7529 	.word	.LDW23
00001adc 00000000*      7530 	.word	.LDW33
                        7531 
                        7532 .LDW_4c9cb68:
00001ae0 05             7533 	.byte	5
00001ae1 55385f526574   7534 	.strz	"U8_RetVal"
00001ae7 56616c00 
00001aeb 9c02           7535 	.byte	156,2
00001aed 09             7536 	.byte	9
00001aee 01             7537 	.byte	1
00001aef 00000000*      7538 	.word	.LDW_4c438b8
00001af3 00             7539 	.byte	0
00001af4 00             7540 	.byte	0
                        7541 
                        7542 .LDW_4c9c9b0:
00001af5 04             7543 	.byte	4
00001af6 55385f4c6f6f   7544 	.strz	"U8_LoopCnt"
00001afc 70436e7400 
00001b01 9d02           7545 	.byte	157,2
00001b03 09             7546 	.byte	9
00001b04 01             7547 	.byte	1
00001b05 00000000*      7548 	.word	.LDW_4c438b8
00001b09 00             7549 	.byte	0
00001b0a 00             7550 	.byte	0
00001b0b 0162           7551 	.byte	1,98
                        7552 
00001b0d 00             7553 	.byte	0
                        7554 
00001b0e 00             7555 	.byte	0
                        7556 
                        7557 .LDW_48b8bd0:
00001b0f 14             7558 	.byte	20
00001b10 444941475f5f   7559 	.strz	"DIAG__ReqCallback_WriteWSNr01"

                                                                      Page 140
                                                              C:\Users\nhuliyap\AppData\Local\Temp\gh_0000ds81.s
00001b16 52657143616c 
00001b1c 6c6261636b5f 
00001b22 577269746557 
00001b28 534e72303100 
00001b2e ac02           7560 	.byte	172,2
00001b30 0e             7561 	.byte	14
00001b31 01             7562 	.byte	1
00001b32 00000000*      7563 	.word	.LDW_4c438b8
00001b36 00000000*      7564 	.word	_DIAG__ReqCallback_WriteWSNr01..C.3A.5C_ECU2.5CECU_Rivian_A1.5CTarget.5Crepo_projects.5CpRealEcu.5CcR_LATEST.5Cmake.5Coutput.5Cobjects.5CSwcApplTpms_Diag.
00001b3a 00000000*      7565 	.word	___ghs_eofn_DIAG__ReqCallback_WriteWSNr01
00001b3e 0153           7566 	.byte	1,83
00001b40 02             7567 	.byte	2
00001b41 00             7568 	.byte	0
00001b42 02             7569 	.byte	2
00001b43 00             7570 	.byte	0
00001b44 00             7571 	.byte	0
00001b45 00             7572 	.byte	0
00001b46 00             7573 	.byte	0
00001b47 00             7574 	.byte	0
00001b48 01             7575 	.byte	1
00001b49 00             7576 	.byte	0
00001b4a 01             7577 	.byte	1
                        7578 
                        7579 	.section	.debug_frame
                        7580 .LDW_4cef138:
000001d4 00000000*      7581 	.word	.LDW_unq_16-.LDW_unq_15
                        7582 .LDW_unq_15:
000001d8 00000000*      7583 	.word	.LDW_4c4f988
000001dc 00000000*      7584 	.word	_DIAG__ReqCallback_WriteWSNr01..C.3A.5C_ECU2.5CECU_Rivian_A1.5CTarget.5Crepo_projects.5CpRealEcu.5CcR_LATEST.5Cmake.5Coutput.5Cobjects.5CSwcApplTpms_Diag.
000001e0 00000000*      7585 	.word	___ghs_eofn_DIAG__ReqCallback_WriteWSNr01-_DIAG__ReqCallback_WriteWSNr01..C.3A.5C_ECU2.5CECU_Rivian_A1.5CTarget.5Crepo_projects.5CpRealEcu.5CcR_LATEST.5Cmake.5Coutput.5Cobjects.5CSwcApplTpms_Diag.
000001e4 01             7586 	.byte	1
000001e5 00000000*      7587 	.word	.LDW73
000001e9 00             7588 	.byte	0
000001ea 00             7589 	.byte	0
000001eb 00             7590 	.byte	0
                        7591 .LDW_unq_16:
                        7592 	.section	.debug_line
000006be 000502         7593 	.byte	0,5,2
000006c1 00000000*      7594 	.word	_DIAG__ReqCallback_WriteWSNr01..C.3A.5C_ECU2.5CECU_Rivian_A1.5CTarget.5Crepo_projects.5CpRealEcu.5CcR_LATEST.5Cmake.5Coutput.5Cobjects.5CSwcApplTpms_Diag.
000006c5 03             7595 	.byte	3
000006c6 ac02           7596 	.byte	172,2
000006c8 02             7597 	.byte	2
000006c9 00             7598 	.byte	0
000006ca 01             7599 	.byte	1
000006cb 06             7600 	.byte	6
000006cc 15             7601 	.byte	21
000006cd 000502         7602 	.byte	0,5,2
000006d0 00000000*      7603 	.word	.LDWlin56
000006d4 0b             7604 	.byte	11
000006d5 23             7605 	.byte	35
000006d6 23             7606 	.byte	35
000006d7 1b             7607 	.byte	27
000006d8 1c             7608 	.byte	28
000006d9 02             7609 	.byte	2
000006da 04             7610 	.byte	4
000006db 000101         7611 	.byte	0,1,1
                        7612 	.section	.debug_info
                        7613 .LDW_4c9c748:
00001b4b 0f             7614 	.byte	15
00001b4c 50535f4d7367   7615 	.strz	"PS_MsgContext"
00001b52 436f6e746578 

                                                                      Page 141
                                                              C:\Users\nhuliyap\AppData\Local\Temp\gh_0000ds81.s
00001b58 7400 
00001b5a ac02           7616 	.byte	172,2
00001b5c 3d             7617 	.byte	61
00001b5d 01             7618 	.byte	1
00001b5e 00000000*      7619 	.word	.LDW_48771f0
00001b62 00             7620 	.byte	0
00001b63 016e           7621 	.byte	1,110
                        7622 
                        7623 .LDW_4c9c328:
00001b65 1d             7624 	.byte	29
00001b66 00000000*      7625 	.word	.LDW63
00001b6a 00000000*      7626 	.word	.LDW73
                        7627 
                        7628 .LDW_4c9ca08:
00001b6e 05             7629 	.byte	5
00001b6f 55385f526574   7630 	.strz	"U8_RetVal"
00001b75 56616c00 
00001b79 ae02           7631 	.byte	174,2
00001b7b 09             7632 	.byte	9
00001b7c 01             7633 	.byte	1
00001b7d 00000000*      7634 	.word	.LDW_4c438b8
00001b81 00             7635 	.byte	0
00001b82 00             7636 	.byte	0
                        7637 
00001b83 00             7638 	.byte	0
                        7639 
00001b84 00             7640 	.byte	0
                        7641 
                        7642 .LDW_48b8c68:
00001b85 14             7643 	.byte	20
00001b86 444941475f5f   7644 	.strz	"DIAG__ReqCallback_WriteWSNr02"
00001b8c 52657143616c 
00001b92 6c6261636b5f 
00001b98 577269746557 
00001b9e 534e72303200 
00001ba4 bb02           7645 	.byte	187,2
00001ba6 0e             7646 	.byte	14
00001ba7 01             7647 	.byte	1
00001ba8 00000000*      7648 	.word	.LDW_4c438b8
00001bac 00000000*      7649 	.word	_DIAG__ReqCallback_WriteWSNr02..C.3A.5C_ECU2.5CECU_Rivian_A1.5CTarget.5Crepo_projects.5CpRealEcu.5CcR_LATEST.5Cmake.5Coutput.5Cobjects.5CSwcApplTpms_Diag.
00001bb0 00000000*      7650 	.word	___ghs_eofn_DIAG__ReqCallback_WriteWSNr02
00001bb4 0153           7651 	.byte	1,83
00001bb6 02             7652 	.byte	2
00001bb7 00             7653 	.byte	0
00001bb8 02             7654 	.byte	2
00001bb9 00             7655 	.byte	0
00001bba 00             7656 	.byte	0
00001bbb 00             7657 	.byte	0
00001bbc 00             7658 	.byte	0
00001bbd 00             7659 	.byte	0
00001bbe 01             7660 	.byte	1
00001bbf 00             7661 	.byte	0
00001bc0 01             7662 	.byte	1
                        7663 
                        7664 	.section	.debug_frame
                        7665 .LDW_4cef478:
000001ec 00000000*      7666 	.word	.LDW_unq_18-.LDW_unq_17
                        7667 .LDW_unq_17:
000001f0 00000000*      7668 	.word	.LDW_4c4f988
000001f4 00000000*      7669 	.word	_DIAG__ReqCallback_WriteWSNr02..C.3A.5C_ECU2.5CECU_Rivian_A1.5CTarget.5Crepo_projects.5CpRealEcu.5CcR_LATEST.5Cmake.5Coutput.5Cobjects.5CSwcApplTpms_Diag.
000001f8 00000000*      7670 	.word	___ghs_eofn_DIAG__ReqCallback_WriteWSNr02-_DIAG__ReqCallback_WriteWSNr02..C.3A.5C_ECU2.5CECU_Rivian_A1.5CTarget.5Crepo_projects.5CpRealEcu.5CcR_LATEST.5Cmake.5Coutput.5Cobjects.5CSwcApplTpms_Diag.

                                                                      Page 142
                                                              C:\Users\nhuliyap\AppData\Local\Temp\gh_0000ds81.s
000001fc 01             7671 	.byte	1
000001fd 00000000*      7672 	.word	.LDW93
00000201 00             7673 	.byte	0
00000202 00             7674 	.byte	0
00000203 00             7675 	.byte	0
                        7676 .LDW_unq_18:
                        7677 	.section	.debug_line
000006de 000502         7678 	.byte	0,5,2
000006e1 00000000*      7679 	.word	_DIAG__ReqCallback_WriteWSNr02..C.3A.5C_ECU2.5CECU_Rivian_A1.5CTarget.5Crepo_projects.5CpRealEcu.5CcR_LATEST.5Cmake.5Coutput.5Cobjects.5CSwcApplTpms_Diag.
000006e5 03             7680 	.byte	3
000006e6 bb02           7681 	.byte	187,2
000006e8 02             7682 	.byte	2
000006e9 00             7683 	.byte	0
000006ea 01             7684 	.byte	1
000006eb 06             7685 	.byte	6
000006ec 15             7686 	.byte	21
000006ed 000502         7687 	.byte	0,5,2
000006f0 00000000*      7688 	.word	.LDWlin57
000006f4 03             7689 	.byte	3
000006f5 04             7690 	.byte	4
000006f6 02             7691 	.byte	2
000006f7 00             7692 	.byte	0
000006f8 01             7693 	.byte	1
000006f9 03             7694 	.byte	3
000006fa 7d             7695 	.byte	125
000006fb 02             7696 	.byte	2
000006fc 08             7697 	.byte	8
000006fd 01             7698 	.byte	1
000006fe 23             7699 	.byte	35
000006ff 23             7700 	.byte	35
00000700 2d             7701 	.byte	45
00000701 02             7702 	.byte	2
00000702 04             7703 	.byte	4
00000703 000101         7704 	.byte	0,1,1
                        7705 	.section	.debug_info
                        7706 .LDW_4c9cc18:
00001bc1 0f             7707 	.byte	15
00001bc2 50535f4d7367   7708 	.strz	"PS_MsgContext"
00001bc8 436f6e746578 
00001bce 7400 
00001bd0 bb02           7709 	.byte	187,2
00001bd2 3d             7710 	.byte	61
00001bd3 01             7711 	.byte	1
00001bd4 00000000*      7712 	.word	.LDW_48771f0
00001bd8 00             7713 	.byte	0
00001bd9 016e           7714 	.byte	1,110
                        7715 
                        7716 .LDW_4c9bf68:
00001bdb 1d             7717 	.byte	29
00001bdc 00000000*      7718 	.word	.LDW83
00001be0 00000000*      7719 	.word	.LDW93
                        7720 
                        7721 .LDW_4c9c8a8:
00001be4 05             7722 	.byte	5
00001be5 55385f526574   7723 	.strz	"U8_RetVal"
00001beb 56616c00 
00001bef bd02           7724 	.byte	189,2
00001bf1 09             7725 	.byte	9
00001bf2 01             7726 	.byte	1
00001bf3 00000000*      7727 	.word	.LDW_4c438b8
00001bf7 00             7728 	.byte	0

                                                                      Page 143
                                                              C:\Users\nhuliyap\AppData\Local\Temp\gh_0000ds81.s
00001bf8 00             7729 	.byte	0
                        7730 
00001bf9 00             7731 	.byte	0
                        7732 
00001bfa 00             7733 	.byte	0
                        7734 
                        7735 .LDW_48b8d00:
00001bfb 14             7736 	.byte	20
00001bfc 444941475f5f   7737 	.strz	"DIAG__ReqCallback_WriteWSNr03"
00001c02 52657143616c 
00001c08 6c6261636b5f 
00001c0e 577269746557 
00001c14 534e72303300 
00001c1a ca02           7738 	.byte	202,2
00001c1c 0e             7739 	.byte	14
00001c1d 01             7740 	.byte	1
00001c1e 00000000*      7741 	.word	.LDW_4c438b8
00001c22 00000000*      7742 	.word	_DIAG__ReqCallback_WriteWSNr03..C.3A.5C_ECU2.5CECU_Rivian_A1.5CTarget.5Crepo_projects.5CpRealEcu.5CcR_LATEST.5Cmake.5Coutput.5Cobjects.5CSwcApplTpms_Diag.
00001c26 00000000*      7743 	.word	___ghs_eofn_DIAG__ReqCallback_WriteWSNr03
00001c2a 0153           7744 	.byte	1,83
00001c2c 02             7745 	.byte	2
00001c2d 00             7746 	.byte	0
00001c2e 02             7747 	.byte	2
00001c2f 00             7748 	.byte	0
00001c30 00             7749 	.byte	0
00001c31 00             7750 	.byte	0
00001c32 00             7751 	.byte	0
00001c33 00             7752 	.byte	0
00001c34 01             7753 	.byte	1
00001c35 00             7754 	.byte	0
00001c36 01             7755 	.byte	1
                        7756 
                        7757 	.section	.debug_frame
                        7758 .LDW_4cef1b8:
00000204 00000000*      7759 	.word	.LDW_unq_1a-.LDW_unq_19
                        7760 .LDW_unq_19:
00000208 00000000*      7761 	.word	.LDW_4c4f988
0000020c 00000000*      7762 	.word	_DIAG__ReqCallback_WriteWSNr03..C.3A.5C_ECU2.5CECU_Rivian_A1.5CTarget.5Crepo_projects.5CpRealEcu.5CcR_LATEST.5Cmake.5Coutput.5Cobjects.5CSwcApplTpms_Diag.
00000210 00000000*      7763 	.word	___ghs_eofn_DIAG__ReqCallback_WriteWSNr03-_DIAG__ReqCallback_WriteWSNr03..C.3A.5C_ECU2.5CECU_Rivian_A1.5CTarget.5Crepo_projects.5CpRealEcu.5CcR_LATEST.5Cmake.5Coutput.5Cobjects.5CSwcApplTpms_Diag.
00000214 01             7764 	.byte	1
00000215 00000000*      7765 	.word	.LDW14
00000219 00             7766 	.byte	0
0000021a 00             7767 	.byte	0
0000021b 00             7768 	.byte	0
                        7769 .LDW_unq_1a:
                        7770 	.section	.debug_line
00000706 000502         7771 	.byte	0,5,2
00000709 00000000*      7772 	.word	_DIAG__ReqCallback_WriteWSNr03..C.3A.5C_ECU2.5CECU_Rivian_A1.5CTarget.5Crepo_projects.5CpRealEcu.5CcR_LATEST.5Cmake.5Coutput.5Cobjects.5CSwcApplTpms_Diag.
0000070d 03             7773 	.byte	3
0000070e ca02           7774 	.byte	202,2
00000710 02             7775 	.byte	2
00000711 00             7776 	.byte	0
00000712 01             7777 	.byte	1
00000713 06             7778 	.byte	6
00000714 15             7779 	.byte	21
00000715 000502         7780 	.byte	0,5,2
00000718 00000000*      7781 	.word	.LDWlin58
0000071c 03             7782 	.byte	3
0000071d 04             7783 	.byte	4
0000071e 02             7784 	.byte	2
0000071f 00             7785 	.byte	0

                                                                      Page 144
                                                              C:\Users\nhuliyap\AppData\Local\Temp\gh_0000ds81.s
00000720 01             7786 	.byte	1
00000721 03             7787 	.byte	3
00000722 7d             7788 	.byte	125
00000723 02             7789 	.byte	2
00000724 08             7790 	.byte	8
00000725 01             7791 	.byte	1
00000726 23             7792 	.byte	35
00000727 23             7793 	.byte	35
00000728 2d             7794 	.byte	45
00000729 02             7795 	.byte	2
0000072a 04             7796 	.byte	4
0000072b 000101         7797 	.byte	0,1,1
                        7798 	.section	.debug_info
                        7799 .LDW_4c9cc70:
00001c37 0f             7800 	.byte	15
00001c38 50535f4d7367   7801 	.strz	"PS_MsgContext"
00001c3e 436f6e746578 
00001c44 7400 
00001c46 ca02           7802 	.byte	202,2
00001c48 3d             7803 	.byte	61
00001c49 01             7804 	.byte	1
00001c4a 00000000*      7805 	.word	.LDW_48771f0
00001c4e 00             7806 	.byte	0
00001c4f 016e           7807 	.byte	1,110
                        7808 
                        7809 .LDW_4c9c358:
00001c51 1d             7810 	.byte	29
00001c52 00000000*      7811 	.word	.LDW04
00001c56 00000000*      7812 	.word	.LDW14
                        7813 
                        7814 .LDW_4c9c900:
00001c5a 05             7815 	.byte	5
00001c5b 55385f526574   7816 	.strz	"U8_RetVal"
00001c61 56616c00 
00001c65 cc02           7817 	.byte	204,2
00001c67 09             7818 	.byte	9
00001c68 01             7819 	.byte	1
00001c69 00000000*      7820 	.word	.LDW_4c438b8
00001c6d 00             7821 	.byte	0
00001c6e 00             7822 	.byte	0
                        7823 
00001c6f 00             7824 	.byte	0
                        7825 
00001c70 00             7826 	.byte	0
                        7827 
                        7828 .LDW_4c9cdc8:
00001c71 14             7829 	.byte	20
00001c72 444941475f5f   7830 	.strz	"DIAG__ReqCallback_WriteWSNr04"
00001c78 52657143616c 
00001c7e 6c6261636b5f 
00001c84 577269746557 
00001c8a 534e72303400 
00001c90 d902           7831 	.byte	217,2
00001c92 0e             7832 	.byte	14
00001c93 01             7833 	.byte	1
00001c94 00000000*      7834 	.word	.LDW_4c438b8
00001c98 00000000*      7835 	.word	_DIAG__ReqCallback_WriteWSNr04..C.3A.5C_ECU2.5CECU_Rivian_A1.5CTarget.5Crepo_projects.5CpRealEcu.5CcR_LATEST.5Cmake.5Coutput.5Cobjects.5CSwcApplTpms_Diag.
00001c9c 00000000*      7836 	.word	___ghs_eofn_DIAG__ReqCallback_WriteWSNr04
00001ca0 0153           7837 	.byte	1,83
00001ca2 02             7838 	.byte	2
00001ca3 00             7839 	.byte	0

                                                                      Page 145
                                                              C:\Users\nhuliyap\AppData\Local\Temp\gh_0000ds81.s
00001ca4 02             7840 	.byte	2
00001ca5 00             7841 	.byte	0
00001ca6 00             7842 	.byte	0
00001ca7 00             7843 	.byte	0
00001ca8 00             7844 	.byte	0
00001ca9 00             7845 	.byte	0
00001caa 01             7846 	.byte	1
00001cab 00             7847 	.byte	0
00001cac 01             7848 	.byte	1
                        7849 
                        7850 	.section	.debug_frame
                        7851 .LDW_4c2a660:
0000021c 00000000*      7852 	.word	.LDW_unq_1c-.LDW_unq_1b
                        7853 .LDW_unq_1b:
00000220 00000000*      7854 	.word	.LDW_4c4f988
00000224 00000000*      7855 	.word	_DIAG__ReqCallback_WriteWSNr04..C.3A.5C_ECU2.5CECU_Rivian_A1.5CTarget.5Crepo_projects.5CpRealEcu.5CcR_LATEST.5Cmake.5Coutput.5Cobjects.5CSwcApplTpms_Diag.
00000228 00000000*      7856 	.word	___ghs_eofn_DIAG__ReqCallback_WriteWSNr04-_DIAG__ReqCallback_WriteWSNr04..C.3A.5C_ECU2.5CECU_Rivian_A1.5CTarget.5Crepo_projects.5CpRealEcu.5CcR_LATEST.5Cmake.5Coutput.5Cobjects.5CSwcApplTpms_Diag.
0000022c 01             7857 	.byte	1
0000022d 00000000*      7858 	.word	.LDW34
00000231 00             7859 	.byte	0
00000232 00             7860 	.byte	0
00000233 00             7861 	.byte	0
                        7862 .LDW_unq_1c:
                        7863 	.section	.debug_line
0000072e 000502         7864 	.byte	0,5,2
00000731 00000000*      7865 	.word	_DIAG__ReqCallback_WriteWSNr04..C.3A.5C_ECU2.5CECU_Rivian_A1.5CTarget.5Crepo_projects.5CpRealEcu.5CcR_LATEST.5Cmake.5Coutput.5Cobjects.5CSwcApplTpms_Diag.
00000735 03             7866 	.byte	3
00000736 d902           7867 	.byte	217,2
00000738 02             7868 	.byte	2
00000739 00             7869 	.byte	0
0000073a 01             7870 	.byte	1
0000073b 06             7871 	.byte	6
0000073c 15             7872 	.byte	21
0000073d 000502         7873 	.byte	0,5,2
00000740 00000000*      7874 	.word	.LDWlin59
00000744 03             7875 	.byte	3
00000745 04             7876 	.byte	4
00000746 02             7877 	.byte	2
00000747 00             7878 	.byte	0
00000748 01             7879 	.byte	1
00000749 03             7880 	.byte	3
0000074a 7d             7881 	.byte	125
0000074b 02             7882 	.byte	2
0000074c 08             7883 	.byte	8
0000074d 01             7884 	.byte	1
0000074e 23             7885 	.byte	35
0000074f 23             7886 	.byte	35
00000750 2d             7887 	.byte	45
00000751 02             7888 	.byte	2
00000752 04             7889 	.byte	4
00000753 000101         7890 	.byte	0,1,1
                        7891 	.section	.debug_info
                        7892 .LDW_4c9ccc8:
00001cad 0f             7893 	.byte	15
00001cae 50535f4d7367   7894 	.strz	"PS_MsgContext"
00001cb4 436f6e746578 
00001cba 7400 
00001cbc d902           7895 	.byte	217,2
00001cbe 3d             7896 	.byte	61
00001cbf 01             7897 	.byte	1
00001cc0 00000000*      7898 	.word	.LDW_48771f0

                                                                      Page 146
                                                              C:\Users\nhuliyap\AppData\Local\Temp\gh_0000ds81.s
00001cc4 00             7899 	.byte	0
00001cc5 016e           7900 	.byte	1,110
                        7901 
                        7902 .LDW_4c9bde8:
00001cc7 1d             7903 	.byte	29
00001cc8 00000000*      7904 	.word	.LDW24
00001ccc 00000000*      7905 	.word	.LDW34
                        7906 
                        7907 .LDW_4c9cd20:
00001cd0 05             7908 	.byte	5
00001cd1 55385f526574   7909 	.strz	"U8_RetVal"
00001cd7 56616c00 
00001cdb db02           7910 	.byte	219,2
00001cdd 09             7911 	.byte	9
00001cde 01             7912 	.byte	1
00001cdf 00000000*      7913 	.word	.LDW_4c438b8
00001ce3 00             7914 	.byte	0
00001ce4 00             7915 	.byte	0
                        7916 
00001ce5 00             7917 	.byte	0
                        7918 
00001ce6 00             7919 	.byte	0
                        7920 
                        7921 .LDW_4cace68:
00001ce7 14             7922 	.byte	20
00001ce8 444941475f5f   7923 	.strz	"DIAG__ReqCallback_ReadWheelSensorIDs"
00001cee 52657143616c 
00001cf4 6c6261636b5f 
00001cfa 526561645768 
00001d00 65656c53656e 
00001d06 736f72494473 
00001d0c 00 
00001d0d e802           7924 	.byte	232,2
00001d0f 0e             7925 	.byte	14
00001d10 01             7926 	.byte	1
00001d11 00000000*      7927 	.word	.LDW_4c438b8
00001d15 00000000*      7928 	.word	_DIAG__ReqCallback_ReadWheelSensorIDs..C.3A.5C_ECU2.5CECU_Rivian_A1.5CTarget.5Crepo_projects.5CpRealEcu.5CcR_LATEST.5Cmake.5Coutput.5Cobjects.5CSwcApplTpms_Diag.
00001d19 00000000*      7929 	.word	___ghs_eofn_DIAG__ReqCallback_ReadWheelSensorIDs
00001d1d 0153           7930 	.byte	1,83
00001d1f 828080ec0b     7931 	.byte	130,128,128,236,11
00001d24 1c             7932 	.byte	28
00001d25 03             7933 	.byte	3
00001d26 1c             7934 	.byte	28
00001d27 00             7935 	.byte	0
00001d28 00             7936 	.byte	0
00001d29 00             7937 	.byte	0
00001d2a 00             7938 	.byte	0
00001d2b 01             7939 	.byte	1
00001d2c 00             7940 	.byte	0
00001d2d 01             7941 	.byte	1
                        7942 
                        7943 	.section	.debug_frame
                        7944 .LDW_4c2a7a0:
00000234 00000000*      7945 	.word	.LDW_unq_1e-.LDW_unq_1d
                        7946 .LDW_unq_1d:
00000238 00000000*      7947 	.word	.LDW_4c4f988
0000023c 00000000*      7948 	.word	_DIAG__ReqCallback_ReadWheelSensorIDs..C.3A.5C_ECU2.5CECU_Rivian_A1.5CTarget.5Crepo_projects.5CpRealEcu.5CcR_LATEST.5Cmake.5Coutput.5Cobjects.5CSwcApplTpms_Diag.
00000240 00000000*      7949 	.word	___ghs_eofn_DIAG__ReqCallback_ReadWheelSensorIDs-_DIAG__ReqCallback_ReadWheelSensorIDs..C.3A.5C_ECU2.5CECU_Rivian_A1.5CTarget.5Crepo_projects.5CpRealEcu.5CcR_LATEST.5Cmake.5Coutput.5Cobjects.5CSwcApplTpms_Diag.
00000244 44             7950 	.byte	68
00000245 9f             7951 	.byte	159
00000246 00             7952 	.byte	0

                                                                      Page 147
                                                              C:\Users\nhuliyap\AppData\Local\Temp\gh_0000ds81.s
00000247 40             7953 	.byte	64
00000248 9d             7954 	.byte	157
00000249 04             7955 	.byte	4
0000024a 40             7956 	.byte	64
0000024b 9c             7957 	.byte	156
0000024c 08             7958 	.byte	8
0000024d 40             7959 	.byte	64
0000024e 9b             7960 	.byte	155
0000024f 0c             7961 	.byte	12
00000250 40             7962 	.byte	64
00000251 9a             7963 	.byte	154
00000252 10             7964 	.byte	16
00000253 40             7965 	.byte	64
00000254 98             7966 	.byte	152
00000255 14             7967 	.byte	20
00000256 40             7968 	.byte	64
00000257 97             7969 	.byte	151
00000258 18             7970 	.byte	24
00000259 01             7971 	.byte	1
0000025a 00000000*      7972 	.word	.LDW54
0000025e 00             7973 	.byte	0
0000025f 00             7974 	.byte	0
                        7975 .LDW_unq_1e:
                        7976 	.section	.debug_line
00000756 000502         7977 	.byte	0,5,2
00000759 00000000*      7978 	.word	_DIAG__ReqCallback_ReadWheelSensorIDs..C.3A.5C_ECU2.5CECU_Rivian_A1.5CTarget.5Crepo_projects.5CpRealEcu.5CcR_LATEST.5Cmake.5Coutput.5Cobjects.5CSwcApplTpms_Diag.
0000075d 03             7979 	.byte	3
0000075e e802           7980 	.byte	232,2
00000760 02             7981 	.byte	2
00000761 00             7982 	.byte	0
00000762 01             7983 	.byte	1
00000763 06             7984 	.byte	6
00000764 000502         7985 	.byte	0,5,2
00000767 00000000*      7986 	.word	.LDWlin60
0000076b 0b             7987 	.byte	11
0000076c 03             7988 	.byte	3
0000076d 05             7989 	.byte	5
0000076e 02             7990 	.byte	2
0000076f 02             7991 	.byte	2
00000770 01             7992 	.byte	1
00000771 2b             7993 	.byte	43
00000772 02             7994 	.byte	2
00000773 02             7995 	.byte	2
00000774 0c             7996 	.byte	12
00000775 03             7997 	.byte	3
00000776 7e             7998 	.byte	126
00000777 02             7999 	.byte	2
00000778 04             8000 	.byte	4
00000779 01             8001 	.byte	1
0000077a 000502         8002 	.byte	0,5,2
0000077d 00000000*      8003 	.word	.LDWlin61
00000781 0d             8004 	.byte	13
00000782 0b             8005 	.byte	11
00000783 000502         8006 	.byte	0,5,2
00000786 00000000*      8007 	.word	.LDWlin62
0000078a 0b             8008 	.byte	11
0000078b 0c             8009 	.byte	12
0000078c 02             8010 	.byte	2
0000078d 02             8011 	.byte	2
0000078e 000502         8012 	.byte	0,5,2
00000791 00000000*      8013 	.word	.LDWlin63

                                                                      Page 148
                                                              C:\Users\nhuliyap\AppData\Local\Temp\gh_0000ds81.s
00000795 0c             8014 	.byte	12
00000796 000502         8015 	.byte	0,5,2
00000799 00000000*      8016 	.word	.LDWlin64
0000079d 0b             8017 	.byte	11
0000079e 000502         8018 	.byte	0,5,2
000007a1 00000000*      8019 	.word	.LDWlin65
000007a5 0b             8020 	.byte	11
000007a6 000502         8021 	.byte	0,5,2
000007a9 00000000*      8022 	.word	.LDWlin66
000007ad 03             8023 	.byte	3
000007ae 18             8024 	.byte	24
000007af 02             8025 	.byte	2
000007b0 00             8026 	.byte	0
000007b1 01             8027 	.byte	1
000007b2 13             8028 	.byte	19
000007b3 23             8029 	.byte	35
000007b4 3b             8030 	.byte	59
000007b5 13             8031 	.byte	19
000007b6 000502         8032 	.byte	0,5,2
000007b9 00000000*      8033 	.word	.LDWlin67
000007bd 03             8034 	.byte	3
000007be 67             8035 	.byte	103
000007bf 02             8036 	.byte	2
000007c0 00             8037 	.byte	0
000007c1 01             8038 	.byte	1
000007c2 13             8039 	.byte	19
000007c3 23             8040 	.byte	35
000007c4 3b             8041 	.byte	59
000007c5 13             8042 	.byte	19
000007c6 000502         8043 	.byte	0,5,2
000007c9 00000000*      8044 	.word	.LDWlin68
000007cd 0d             8045 	.byte	13
000007ce 13             8046 	.byte	19
000007cf 23             8047 	.byte	35
000007d0 3b             8048 	.byte	59
000007d1 13             8049 	.byte	19
000007d2 000502         8050 	.byte	0,5,2
000007d5 00000000*      8051 	.word	.LDWlin69
000007d9 0d             8052 	.byte	13
000007da 13             8053 	.byte	19
000007db 13             8054 	.byte	19
000007dc 4b             8055 	.byte	75
000007dd 13             8056 	.byte	19
000007de 03             8057 	.byte	3
000007df 09             8058 	.byte	9
000007e0 02             8059 	.byte	2
000007e1 04             8060 	.byte	4
000007e2 01             8061 	.byte	1
000007e3 0b             8062 	.byte	11
000007e4 0b             8063 	.byte	11
000007e5 03             8064 	.byte	3
000007e6 5c             8065 	.byte	92
000007e7 02             8066 	.byte	2
000007e8 00             8067 	.byte	0
000007e9 01             8068 	.byte	1
000007ea 000502         8069 	.byte	0,5,2
000007ed 00000000*      8070 	.word	.LDWlin70
000007f1 03             8071 	.byte	3
000007f2 26             8072 	.byte	38
000007f3 02             8073 	.byte	2
000007f4 00             8074 	.byte	0

                                                                      Page 149
                                                              C:\Users\nhuliyap\AppData\Local\Temp\gh_0000ds81.s
000007f5 01             8075 	.byte	1
000007f6 0c             8076 	.byte	12
000007f7 1c             8077 	.byte	28
000007f8 000502         8078 	.byte	0,5,2
000007fb 00000000*      8079 	.word	.LDWlin71
000007ff 0c             8080 	.byte	12
00000800 0b             8081 	.byte	11
00000801 0c             8082 	.byte	12
00000802 1b             8083 	.byte	27
00000803 02             8084 	.byte	2
00000804 00             8085 	.byte	0
00000805 0c             8086 	.byte	12
00000806 06             8087 	.byte	6
00000807 02             8088 	.byte	2
00000808 02             8089 	.byte	2
00000809 02             8090 	.byte	2
0000080a 04             8091 	.byte	4
0000080b 000101         8092 	.byte	0,1,1
                        8093 	.section	.debug_info
                        8094 .LDW_4cad458:
00001d2e 0f             8095 	.byte	15
00001d2f 50535f4d7367   8096 	.strz	"PS_MsgContext"
00001d35 436f6e746578 
00001d3b 7400 
00001d3d e802           8097 	.byte	232,2
00001d3f 44             8098 	.byte	68
00001d40 01             8099 	.byte	1
00001d41 00000000*      8100 	.word	.LDW_48771f0
00001d45 00             8101 	.byte	0
00001d46 0168           8102 	.byte	1,104
                        8103 
                        8104 .LDW_4c9be18:
00001d48 1d             8105 	.byte	29
00001d49 00000000*      8106 	.word	.LDW44
00001d4d 00000000*      8107 	.word	.LDW54
                        8108 
                        8109 .LDW_4cad6c0:
00001d51 04             8110 	.byte	4
00001d52 55385f526574   8111 	.strz	"U8_RetVal"
00001d58 56616c00 
00001d5c ea02           8112 	.byte	234,2
00001d5e 09             8113 	.byte	9
00001d5f 01             8114 	.byte	1
00001d60 00000000*      8115 	.word	.LDW_4c438b8
00001d64 00             8116 	.byte	0
00001d65 00             8117 	.byte	0
00001d66 016a           8118 	.byte	1,106
                        8119 
                        8120 .LDW_4cad2a0:
00001d68 04             8121 	.byte	4
00001d69 55385f496e64   8122 	.strz	"U8_Index"
00001d6f 657800 
00001d72 eb02           8123 	.byte	235,2
00001d74 09             8124 	.byte	9
00001d75 01             8125 	.byte	1
00001d76 00000000*      8126 	.word	.LDW_4c438b8
00001d7a 00             8127 	.byte	0
00001d7b 00             8128 	.byte	0
00001d7c 016b           8129 	.byte	1,107
                        8130 
                        8131 .LDW_4cad248:

                                                                      Page 150
                                                              C:\Users\nhuliyap\AppData\Local\Temp\gh_0000ds81.s
00001d7e 04             8132 	.byte	4
00001d7f 55385f526164   8133 	.strz	"U8_RadPos"
00001d85 506f7300 
00001d89 ec02           8134 	.byte	236,2
00001d8b 09             8135 	.byte	9
00001d8c 01             8136 	.byte	1
00001d8d 00000000*      8137 	.word	.LDW_4c438b8
00001d91 00             8138 	.byte	0
00001d92 00             8139 	.byte	0
00001d93 0167           8140 	.byte	1,103
                        8141 
                        8142 .LDW_4cad2f8:
00001d95 04             8143 	.byte	4
00001d96 5533325f546d   8144 	.strz	"U32_TmpID"
00001d9c 70494400 
00001da0 ed02           8145 	.byte	237,2
00001da2 0a             8146 	.byte	10
00001da3 01             8147 	.byte	1
00001da4 00000000*      8148 	.word	.LDW_4cad198
00001da8 00             8149 	.byte	0
00001da9 00             8150 	.byte	0
00001daa 015a           8151 	.byte	1,90
                        8152 
                        8153 .LDW_4cad928:
00001dac 04             8154 	.byte	4
00001dad 55385f4c6f6f   8155 	.strz	"U8_LoopCnt"
00001db3 70436e7400 
00001db8 ee02           8156 	.byte	238,2
00001dba 09             8157 	.byte	9
00001dbb 01             8158 	.byte	1
00001dbc 00000000*      8159 	.word	.LDW_4c438b8
00001dc0 00             8160 	.byte	0
00001dc1 00             8161 	.byte	0
00001dc2 0159           8162 	.byte	1,89
                        8163 
00001dc4 00             8164 	.byte	0
                        8165 
00001dc5 00             8166 	.byte	0
                        8167 
                        8168 .LDW_4cb5f10:
00001dc6 14             8169 	.byte	20
00001dc7 444941475f5f   8170 	.strz	"DIAG__ReqCallback_WriteWheelSensorIDs"
00001dcd 52657143616c 
00001dd3 6c6261636b5f 
00001dd9 577269746557 
00001ddf 6865656c5365 
00001de5 6e736f724944 
00001deb 7300 
00001ded ac03           8171 	.byte	172,3
00001def 0e             8172 	.byte	14
00001df0 01             8173 	.byte	1
00001df1 00000000*      8174 	.word	.LDW_4c438b8
00001df5 00000000*      8175 	.word	_DIAG__ReqCallback_WriteWheelSensorIDs..C.3A.5C_ECU2.5CECU_Rivian_A1.5CTarget.5Crepo_projects.5CpRealEcu.5CcR_LATEST.5Cmake.5Coutput.5Cobjects.5CSwcApplTpms_Diag.
00001df9 00000000*      8176 	.word	___ghs_eofn_DIAG__ReqCallback_WriteWheelSensorIDs
00001dfd 0153           8177 	.byte	1,83
00001dff 828080c00b     8178 	.byte	130,128,128,192,11
00001e04 10             8179 	.byte	16
00001e05 03             8180 	.byte	3
00001e06 10             8181 	.byte	16
00001e07 00             8182 	.byte	0
00001e08 00             8183 	.byte	0

                                                                      Page 151
                                                              C:\Users\nhuliyap\AppData\Local\Temp\gh_0000ds81.s
00001e09 00             8184 	.byte	0
00001e0a 00             8185 	.byte	0
00001e0b 01             8186 	.byte	1
00001e0c 00             8187 	.byte	0
00001e0d 01             8188 	.byte	1
                        8189 
                        8190 	.section	.debug_frame
                        8191 .LDW_4c2a760:
00000260 00000000*      8192 	.word	.LDW_unq_20-.LDW_unq_1f
                        8193 .LDW_unq_1f:
00000264 00000000*      8194 	.word	.LDW_4c4f988
00000268 00000000*      8195 	.word	_DIAG__ReqCallback_WriteWheelSensorIDs..C.3A.5C_ECU2.5CECU_Rivian_A1.5CTarget.5Crepo_projects.5CpRealEcu.5CcR_LATEST.5Cmake.5Coutput.5Cobjects.5CSwcApplTpms_Diag.
0000026c 00000000*      8196 	.word	___ghs_eofn_DIAG__ReqCallback_WriteWheelSensorIDs-_DIAG__ReqCallback_WriteWheelSensorIDs..C.3A.5C_ECU2.5CECU_Rivian_A1.5CTarget.5Crepo_projects.5CpRealEcu.5CcR_LATEST.5Cmake.5Coutput.5Cobjects.5CSwcApplTpms_Diag.
00000270 44             8197 	.byte	68
00000271 9f             8198 	.byte	159
00000272 00             8199 	.byte	0
00000273 40             8200 	.byte	64
00000274 9d             8201 	.byte	157
00000275 04             8202 	.byte	4
00000276 40             8203 	.byte	64
00000277 9c             8204 	.byte	156
00000278 08             8205 	.byte	8
00000279 40             8206 	.byte	64
0000027a 9b             8207 	.byte	155
0000027b 0c             8208 	.byte	12
0000027c 01             8209 	.byte	1
0000027d 00000000*      8210 	.word	.LDW74
00000281 00             8211 	.byte	0
00000282 00             8212 	.byte	0
00000283 00             8213 	.byte	0
                        8214 .LDW_unq_20:
                        8215 	.section	.debug_line
0000080e 000502         8216 	.byte	0,5,2
00000811 00000000*      8217 	.word	_DIAG__ReqCallback_WriteWheelSensorIDs..C.3A.5C_ECU2.5CECU_Rivian_A1.5CTarget.5Crepo_projects.5CpRealEcu.5CcR_LATEST.5Cmake.5Coutput.5Cobjects.5CSwcApplTpms_Diag.
00000815 03             8218 	.byte	3
00000816 ac03           8219 	.byte	172,3
00000818 02             8220 	.byte	2
00000819 00             8221 	.byte	0
0000081a 01             8222 	.byte	1
0000081b 06             8223 	.byte	6
0000081c 23             8224 	.byte	35
0000081d 15             8225 	.byte	21
0000081e 02             8226 	.byte	2
0000081f 02             8227 	.byte	2
00000820 0c             8228 	.byte	12
00000821 000502         8229 	.byte	0,5,2
00000824 00000000*      8230 	.word	.LDWlin72
00000828 03             8231 	.byte	3
00000829 7e             8232 	.byte	126
0000082a 02             8233 	.byte	2
0000082b 00             8234 	.byte	0
0000082c 01             8235 	.byte	1
0000082d 000502         8236 	.byte	0,5,2
00000830 00000000*      8237 	.word	.LDWlin73
00000834 0d             8238 	.byte	13
00000835 0b             8239 	.byte	11
00000836 03             8240 	.byte	3
00000837 04             8241 	.byte	4
00000838 02             8242 	.byte	2
00000839 04             8243 	.byte	4
0000083a 01             8244 	.byte	1

                                                                      Page 152
                                                              C:\Users\nhuliyap\AppData\Local\Temp\gh_0000ds81.s
0000083b 03             8245 	.byte	3
0000083c 7f             8246 	.byte	127
0000083d 02             8247 	.byte	2
0000083e 04             8248 	.byte	4
0000083f 01             8249 	.byte	1
00000840 000502         8250 	.byte	0,5,2
00000843 00000000*      8251 	.word	.LDWlin74
00000847 03             8252 	.byte	3
00000848 07             8253 	.byte	7
00000849 02             8254 	.byte	2
0000084a 00             8255 	.byte	0
0000084b 01             8256 	.byte	1
0000084c 0c             8257 	.byte	12
0000084d 000502         8258 	.byte	0,5,2
00000850 00000000*      8259 	.word	.LDWlin75
00000854 0b             8260 	.byte	11
00000855 0b             8261 	.byte	11
00000856 0c             8262 	.byte	12
00000857 03             8263 	.byte	3
00000858 05             8264 	.byte	5
00000859 02             8265 	.byte	2
0000085a 02             8266 	.byte	2
0000085b 01             8267 	.byte	1
0000085c 03             8268 	.byte	3
0000085d 7c             8269 	.byte	124
0000085e 02             8270 	.byte	2
0000085f 06             8271 	.byte	6
00000860 01             8272 	.byte	1
00000861 23             8273 	.byte	35
00000862 23             8274 	.byte	35
00000863 1b             8275 	.byte	27
00000864 000502         8276 	.byte	0,5,2
00000867 00000000*      8277 	.word	.LDWlin76
0000086b 0d             8278 	.byte	13
0000086c 03             8279 	.byte	3
0000086d 04             8280 	.byte	4
0000086e 02             8281 	.byte	2
0000086f 04             8282 	.byte	4
00000870 01             8283 	.byte	1
00000871 03             8284 	.byte	3
00000872 7d             8285 	.byte	125
00000873 02             8286 	.byte	2
00000874 08             8287 	.byte	8
00000875 01             8288 	.byte	1
00000876 23             8289 	.byte	35
00000877 15             8290 	.byte	21
00000878 03             8291 	.byte	3
00000879 7e             8292 	.byte	126
0000087a 02             8293 	.byte	2
0000087b 06             8294 	.byte	6
0000087c 01             8295 	.byte	1
0000087d 000502         8296 	.byte	0,5,2
00000880 00000000*      8297 	.word	.LDWlin77
00000884 03             8298 	.byte	3
00000885 04             8299 	.byte	4
00000886 02             8300 	.byte	2
00000887 00             8301 	.byte	0
00000888 01             8302 	.byte	1
00000889 03             8303 	.byte	3
0000088a 04             8304 	.byte	4
0000088b 02             8305 	.byte	2

                                                                      Page 153
                                                              C:\Users\nhuliyap\AppData\Local\Temp\gh_0000ds81.s
0000088c 04             8306 	.byte	4
0000088d 01             8307 	.byte	1
0000088e 13             8308 	.byte	19
0000088f 03             8309 	.byte	3
00000890 7c             8310 	.byte	124
00000891 02             8311 	.byte	2
00000892 08             8312 	.byte	8
00000893 01             8313 	.byte	1
00000894 23             8314 	.byte	35
00000895 23             8315 	.byte	35
00000896 000502         8316 	.byte	0,5,2
00000899 00000000*      8317 	.word	.LDWlin78
0000089d 03             8318 	.byte	3
0000089e 04             8319 	.byte	4
0000089f 02             8320 	.byte	2
000008a0 00             8321 	.byte	0
000008a1 01             8322 	.byte	1
000008a2 03             8323 	.byte	3
000008a3 04             8324 	.byte	4
000008a4 02             8325 	.byte	2
000008a5 04             8326 	.byte	4
000008a6 01             8327 	.byte	1
000008a7 13             8328 	.byte	19
000008a8 03             8329 	.byte	3
000008a9 7c             8330 	.byte	124
000008aa 02             8331 	.byte	2
000008ab 08             8332 	.byte	8
000008ac 01             8333 	.byte	1
000008ad 23             8334 	.byte	35
000008ae 23             8335 	.byte	35
000008af 000502         8336 	.byte	0,5,2
000008b2 00000000*      8337 	.word	.LDWlin79
000008b6 0d             8338 	.byte	13
000008b7 02             8339 	.byte	2
000008b8 00             8340 	.byte	0
000008b9 0b             8341 	.byte	11
000008ba 06             8342 	.byte	6
000008bb 02             8343 	.byte	2
000008bc 02             8344 	.byte	2
000008bd 02             8345 	.byte	2
000008be 04             8346 	.byte	4
000008bf 000101         8347 	.byte	0,1,1
                        8348 	.section	.debug_info
                        8349 .LDW_4cad350:
00001e0e 0f             8350 	.byte	15
00001e0f 50535f4d7367   8351 	.strz	"PS_MsgContext"
00001e15 436f6e746578 
00001e1b 7400 
00001e1d ac03           8352 	.byte	172,3
00001e1f 45             8353 	.byte	69
00001e20 01             8354 	.byte	1
00001e21 00000000*      8355 	.word	.LDW_48771f0
00001e25 00             8356 	.byte	0
00001e26 016c           8357 	.byte	1,108
                        8358 
                        8359 .LDW_4c9be78:
00001e28 1d             8360 	.byte	29
00001e29 00000000*      8361 	.word	.LDW64
00001e2d 00000000*      8362 	.word	.LDW74
                        8363 
                        8364 .LDW_4cad3a8:

                                                                      Page 154
                                                              C:\Users\nhuliyap\AppData\Local\Temp\gh_0000ds81.s
00001e31 04             8365 	.byte	4
00001e32 55385f526574   8366 	.strz	"U8_RetVal"
00001e38 56616c00 
00001e3c ae03           8367 	.byte	174,3
00001e3e 09             8368 	.byte	9
00001e3f 01             8369 	.byte	1
00001e40 00000000*      8370 	.word	.LDW_4c438b8
00001e44 00             8371 	.byte	0
00001e45 00             8372 	.byte	0
00001e46 016b           8373 	.byte	1,107
                        8374 
                        8375 .LDW_4cad820:
00001e48 04             8376 	.byte	4
00001e49 55385f4c6f6f   8377 	.strz	"U8_LoopCnt"
00001e4f 70436e7400 
00001e54 af03           8378 	.byte	175,3
00001e56 09             8379 	.byte	9
00001e57 01             8380 	.byte	1
00001e58 00000000*      8381 	.word	.LDW_4c438b8
00001e5c 00             8382 	.byte	0
00001e5d 00             8383 	.byte	0
00001e5e 0162           8384 	.byte	1,98
                        8385 
                        8386 .LDW_4cad508:
00001e60 05             8387 	.byte	5
00001e61 49443100       8388 	.strz	"ID1"
00001e65 b003           8389 	.byte	176,3
00001e67 0b             8390 	.byte	11
00001e68 01             8391 	.byte	1
00001e69 00000000*      8392 	.word	.LDW_4876ff8
00001e6d 00             8393 	.byte	0
00001e6e 00             8394 	.byte	0
                        8395 
                        8396 .LDW_4cad9d8:
00001e6f 05             8397 	.byte	5
00001e70 49443200       8398 	.strz	"ID2"
00001e74 b003           8399 	.byte	176,3
00001e76 11             8400 	.byte	17
00001e77 01             8401 	.byte	1
00001e78 00000000*      8402 	.word	.LDW_4876ff8
00001e7c 00             8403 	.byte	0
00001e7d 00             8404 	.byte	0
                        8405 
                        8406 .LDW_4cacf88:
00001e7e 04             8407 	.byte	4
00001e7f 49443300       8408 	.strz	"ID3"
00001e83 b003           8409 	.byte	176,3
00001e85 16             8410 	.byte	22
00001e86 01             8411 	.byte	1
00001e87 00000000*      8412 	.word	.LDW_4876ff8
00001e8b 00             8413 	.byte	0
00001e8c 00             8414 	.byte	0
00001e8d 015d           8415 	.byte	1,93
                        8416 
                        8417 .LDW_4cad400:
00001e8f 04             8418 	.byte	4
00001e90 49443400       8419 	.strz	"ID4"
00001e94 b003           8420 	.byte	176,3
00001e96 1b             8421 	.byte	27
00001e97 01             8422 	.byte	1
00001e98 00000000*      8423 	.word	.LDW_4876ff8

                                                                      Page 155
                                                              C:\Users\nhuliyap\AppData\Local\Temp\gh_0000ds81.s
00001e9c 00             8424 	.byte	0
00001e9d 00             8425 	.byte	0
00001e9e 015c           8426 	.byte	1,92
                        8427 
00001ea0 00             8428 	.byte	0
                        8429 
00001ea1 00             8430 	.byte	0
                        8431 
                        8432 .LDW_4cb5fa8:
00001ea2 14             8433 	.byte	20
00001ea3 444941475f5f   8434 	.strz	"DIAG__ReqCallback_ReadVehicleSpecificParameters"
00001ea9 52657143616c 
00001eaf 6c6261636b5f 
00001eb5 526561645665 
00001ebb 6869636c6553 
00001ec1 706563696669 
00001ec7 63506172616d 
00001ecd 657465727300 
00001ed3 e403           8435 	.byte	228,3
00001ed5 0e             8436 	.byte	14
00001ed6 01             8437 	.byte	1
00001ed7 00000000*      8438 	.word	.LDW_4c438b8
00001edb 00000000*      8439 	.word	_DIAG__ReqCallback_ReadVehicleSpecificParameters..C.3A.5C_ECU2.5CECU_Rivian_A1.5CTarget.5Crepo_projects.5CpRealEcu.5CcR_LATEST.5Cmake.5Coutput.5Cobjects.5CSwcApplTpms_Diag.
00001edf 00000000*      8440 	.word	___ghs_eofn_DIAG__ReqCallback_ReadVehicleSpecificParameters
00001ee3 0153           8441 	.byte	1,83
00001ee5 828080c00b     8442 	.byte	130,128,128,192,11
00001eea 10             8443 	.byte	16
00001eeb 03             8444 	.byte	3
00001eec 10             8445 	.byte	16
00001eed 00             8446 	.byte	0
00001eee 00             8447 	.byte	0
00001eef 00             8448 	.byte	0
00001ef0 00             8449 	.byte	0
00001ef1 01             8450 	.byte	1
00001ef2 00             8451 	.byte	0
00001ef3 01             8452 	.byte	1
                        8453 
                        8454 	.section	.debug_frame
                        8455 .LDW_4c2aba0:
00000284 00000000*      8456 	.word	.LDW_unq_22-.LDW_unq_21
                        8457 .LDW_unq_21:
00000288 00000000*      8458 	.word	.LDW_4c4f988
0000028c 00000000*      8459 	.word	_DIAG__ReqCallback_ReadVehicleSpecificParameters..C.3A.5C_ECU2.5CECU_Rivian_A1.5CTarget.5Crepo_projects.5CpRealEcu.5CcR_LATEST.5Cmake.5Coutput.5Cobjects.5CSwcApplTpms_Diag.
00000290 00000000*      8460 	.word	___ghs_eofn_DIAG__ReqCallback_ReadVehicleSpecificParameters-_DIAG__ReqCallback_ReadVehicleSpecificParameters..C.3A.5C_ECU2.5CECU_Rivian_A1.5CTarget.5Crepo_projects.5CpRealEcu.5CcR_LATEST.5Cmake.5Coutput.5Cobjects.5CSwcApplTpms_Diag.
00000294 44             8461 	.byte	68
00000295 9f             8462 	.byte	159
00000296 00             8463 	.byte	0
00000297 40             8464 	.byte	64
00000298 9d             8465 	.byte	157
00000299 04             8466 	.byte	4
0000029a 40             8467 	.byte	64
0000029b 9c             8468 	.byte	156
0000029c 08             8469 	.byte	8
0000029d 40             8470 	.byte	64
0000029e 9b             8471 	.byte	155
0000029f 0c             8472 	.byte	12
000002a0 01             8473 	.byte	1
000002a1 00000000*      8474 	.word	.LDW15
000002a5 00             8475 	.byte	0
000002a6 00             8476 	.byte	0
000002a7 00             8477 	.byte	0

                                                                      Page 156
                                                              C:\Users\nhuliyap\AppData\Local\Temp\gh_0000ds81.s
                        8478 .LDW_unq_22:
                        8479 	.section	.debug_line
000008c2 000502         8480 	.byte	0,5,2
000008c5 00000000*      8481 	.word	_DIAG__ReqCallback_ReadVehicleSpecificParameters..C.3A.5C_ECU2.5CECU_Rivian_A1.5CTarget.5Crepo_projects.5CpRealEcu.5CcR_LATEST.5Cmake.5Coutput.5Cobjects.5CSwcApplTpms_Diag.
000008c9 03             8482 	.byte	3
000008ca e403           8483 	.byte	228,3
000008cc 02             8484 	.byte	2
000008cd 00             8485 	.byte	0
000008ce 01             8486 	.byte	1
000008cf 06             8487 	.byte	6
000008d0 000502         8488 	.byte	0,5,2
000008d3 00000000*      8489 	.word	.LDWlin84
000008d7 03             8490 	.byte	3
000008d8 04             8491 	.byte	4
000008d9 02             8492 	.byte	2
000008da 00             8493 	.byte	0
000008db 01             8494 	.byte	1
000008dc 02             8495 	.byte	2
000008dd 02             8496 	.byte	2
000008de 0c             8497 	.byte	12
000008df 03             8498 	.byte	3
000008e0 7e             8499 	.byte	126
000008e1 02             8500 	.byte	2
000008e2 04             8501 	.byte	4
000008e3 01             8502 	.byte	1
000008e4 000502         8503 	.byte	0,5,2
000008e7 00000000*      8504 	.word	.LDWlin85
000008eb 0d             8505 	.byte	13
000008ec 0b             8506 	.byte	11
000008ed 000502         8507 	.byte	0,5,2
000008f0 00000000*      8508 	.word	.LDWlin86
000008f4 0c             8509 	.byte	12
000008f5 14             8510 	.byte	20
000008f6 2b             8511 	.byte	43
000008f7 14             8512 	.byte	20
000008f8 06             8513 	.byte	6
000008f9 02             8514 	.byte	2
000008fa 02             8515 	.byte	2
000008fb 02             8516 	.byte	2
000008fc 04             8517 	.byte	4
000008fd 000101         8518 	.byte	0,1,1
                        8519 	.section	.debug_info
                        8520 .LDW_4cad718:
00001ef4 0f             8521 	.byte	15
00001ef5 50535f4d7367   8522 	.strz	"PS_MsgContext"
00001efb 436f6e746578 
00001f01 7400 
00001f03 e403           8523 	.byte	228,3
00001f05 4f             8524 	.byte	79
00001f06 01             8525 	.byte	1
00001f07 00000000*      8526 	.word	.LDW_48771f0
00001f0b 00             8527 	.byte	0
00001f0c 016b           8528 	.byte	1,107
                        8529 
                        8530 .LDW_4c9c028:
00001f0e 1d             8531 	.byte	29
00001f0f 00000000*      8532 	.word	.LDW05
00001f13 00000000*      8533 	.word	.LDW15
                        8534 
                        8535 .LDW_4cad770:
00001f17 05             8536 	.byte	5

                                                                      Page 157
                                                              C:\Users\nhuliyap\AppData\Local\Temp\gh_0000ds81.s
00001f18 55385f526574   8537 	.strz	"U8_RetVal"
00001f1e 56616c00 
00001f22 e603           8538 	.byte	230,3
00001f24 09             8539 	.byte	9
00001f25 01             8540 	.byte	1
00001f26 00000000*      8541 	.word	.LDW_4c438b8
00001f2a 00             8542 	.byte	0
00001f2b 00             8543 	.byte	0
                        8544 
                        8545 .LDW_4cad560:
00001f2c 04             8546 	.byte	4
00001f2d 55385f4c6f6f   8547 	.strz	"U8_LoopCnt"
00001f33 70436e7400 
00001f38 e703           8548 	.byte	231,3
00001f3a 09             8549 	.byte	9
00001f3b 01             8550 	.byte	1
00001f3c 00000000*      8551 	.word	.LDW_4c438b8
00001f40 00             8552 	.byte	0
00001f41 00             8553 	.byte	0
00001f42 0162           8554 	.byte	1,98
                        8555 
00001f44 00             8556 	.byte	0
                        8557 
00001f45 00             8558 	.byte	0
                        8559 
                        8560 .LDW_4cb6820:
00001f46 14             8561 	.byte	20
00001f47 444941475f5f   8562 	.strz	"DIAG__ReqCallback_WriteVehicleSpecificParameters"
00001f4d 52657143616c 
00001f53 6c6261636b5f 
00001f59 577269746556 
00001f5f 656869636c65 
00001f65 537065636966 
00001f6b 696350617261 
00001f71 6d6574657273 
00001f77 00 
00001f78 f703           8563 	.byte	247,3
00001f7a 0e             8564 	.byte	14
00001f7b 01             8565 	.byte	1
00001f7c 00000000*      8566 	.word	.LDW_4c438b8
00001f80 00000000*      8567 	.word	_DIAG__ReqCallback_WriteVehicleSpecificParameters..C.3A.5C_ECU2.5CECU_Rivian_A1.5CTarget.5Crepo_projects.5CpRealEcu.5CcR_LATEST.5Cmake.5Coutput.5Cobjects.5CSwcApplTpms_Diag.
00001f84 00000000*      8568 	.word	___ghs_eofn_DIAG__ReqCallback_WriteVehicleSpecificParameters
00001f88 0153           8569 	.byte	1,83
00001f8a 828080f80b     8570 	.byte	130,128,128,248,11
00001f8f 1c             8571 	.byte	28
00001f90 03             8572 	.byte	3
00001f91 20             8573 	.byte	32
00001f92 00             8574 	.byte	0
00001f93 00             8575 	.byte	0
00001f94 00             8576 	.byte	0
00001f95 00             8577 	.byte	0
00001f96 01             8578 	.byte	1
00001f97 00             8579 	.byte	0
00001f98 01             8580 	.byte	1
                        8581 
                        8582 	.section	.debug_frame
                        8583 .LDW_4c2abe0:
000002a8 00000000*      8584 	.word	.LDW_unq_24-.LDW_unq_23
                        8585 .LDW_unq_23:
000002ac 00000000*      8586 	.word	.LDW_4c4f988
000002b0 00000000*      8587 	.word	_DIAG__ReqCallback_WriteVehicleSpecificParameters..C.3A.5C_ECU2.5CECU_Rivian_A1.5CTarget.5Crepo_projects.5CpRealEcu.5CcR_LATEST.5Cmake.5Coutput.5Cobjects.5CSwcApplTpms_Diag.

                                                                      Page 158
                                                              C:\Users\nhuliyap\AppData\Local\Temp\gh_0000ds81.s
000002b4 00000000*      8588 	.word	___ghs_eofn_DIAG__ReqCallback_WriteVehicleSpecificParameters-_DIAG__ReqCallback_WriteVehicleSpecificParameters..C.3A.5C_ECU2.5CECU_Rivian_A1.5CTarget.5Crepo_projects.5CpRealEcu.5CcR_LATEST.5Cmake.5Coutput.5Cobjects.5CSwcApplTpms_Diag.
000002b8 44             8589 	.byte	68
000002b9 9f             8590 	.byte	159
000002ba 03             8591 	.byte	3
000002bb 40             8592 	.byte	64
000002bc 9d             8593 	.byte	157
000002bd 07             8594 	.byte	7
000002be 40             8595 	.byte	64
000002bf 9c             8596 	.byte	156
000002c0 0b             8597 	.byte	11
000002c1 40             8598 	.byte	64
000002c2 9b             8599 	.byte	155
000002c3 0f             8600 	.byte	15
000002c4 40             8601 	.byte	64
000002c5 9a             8602 	.byte	154
000002c6 13             8603 	.byte	19
000002c7 40             8604 	.byte	64
000002c8 99             8605 	.byte	153
000002c9 17             8606 	.byte	23
000002ca 40             8607 	.byte	64
000002cb 98             8608 	.byte	152
000002cc 1b             8609 	.byte	27
000002cd 01             8610 	.byte	1
000002ce 00000000*      8611 	.word	.LDW75
000002d2 00             8612 	.byte	0
000002d3 00             8613 	.byte	0
                        8614 .LDW_unq_24:
                        8615 	.section	.debug_line
00000900 000502         8616 	.byte	0,5,2
00000903 00000000*      8617 	.word	_DIAG__ReqCallback_WriteVehicleSpecificParameters..C.3A.5C_ECU2.5CECU_Rivian_A1.5CTarget.5Crepo_projects.5CpRealEcu.5CcR_LATEST.5Cmake.5Coutput.5Cobjects.5CSwcApplTpms_Diag.
00000907 03             8618 	.byte	3
00000908 f703           8619 	.byte	247,3
0000090a 02             8620 	.byte	2
0000090b 00             8621 	.byte	0
0000090c 01             8622 	.byte	1
0000090d 06             8623 	.byte	6
0000090e 000502         8624 	.byte	0,5,2
00000911 00000000*      8625 	.word	.LDWlin92
00000915 03             8626 	.byte	3
00000916 0a             8627 	.byte	10
00000917 02             8628 	.byte	2
00000918 00             8629 	.byte	0
00000919 01             8630 	.byte	1
0000091a 03             8631 	.byte	3
0000091b 77             8632 	.byte	119
0000091c 02             8633 	.byte	2
0000091d 04             8634 	.byte	4
0000091e 01             8635 	.byte	1
0000091f 03             8636 	.byte	3
00000920 0a             8637 	.byte	10
00000921 02             8638 	.byte	2
00000922 02             8639 	.byte	2
00000923 01             8640 	.byte	1
00000924 14             8641 	.byte	20
00000925 03             8642 	.byte	3
00000926 7f             8643 	.byte	127
00000927 02             8644 	.byte	2
00000928 04             8645 	.byte	4
00000929 01             8646 	.byte	1
0000092a 15             8647 	.byte	21
0000092b 000502         8648 	.byte	0,5,2

                                                                      Page 159
                                                              C:\Users\nhuliyap\AppData\Local\Temp\gh_0000ds81.s
0000092e 00000000*      8649 	.word	.LDWlin93
00000932 0b             8650 	.byte	11
00000933 0b             8651 	.byte	11
00000934 000502         8652 	.byte	0,5,2
00000937 00000000*      8653 	.word	.LDWlin94
0000093b 03             8654 	.byte	3
0000093c 05             8655 	.byte	5
0000093d 02             8656 	.byte	2
0000093e 00             8657 	.byte	0
0000093f 01             8658 	.byte	1
00000940 0b             8659 	.byte	11
00000941 02             8660 	.byte	2
00000942 00             8661 	.byte	0
00000943 06             8662 	.byte	6
00000944 000502         8663 	.byte	0,5,2
00000947 00000000*      8664 	.word	.LDWlin95
0000094b 03             8665 	.byte	3
0000094c 7d             8666 	.byte	125
0000094d 02             8667 	.byte	2
0000094e 00             8668 	.byte	0
0000094f 01             8669 	.byte	1
00000950 06             8670 	.byte	6
00000951 03             8671 	.byte	3
00000952 04             8672 	.byte	4
00000953 02             8673 	.byte	2
00000954 00             8674 	.byte	0
00000955 01             8675 	.byte	1
00000956 0c             8676 	.byte	12
00000957 03             8677 	.byte	3
00000958 12             8678 	.byte	18
00000959 02             8679 	.byte	2
0000095a 04             8680 	.byte	4
0000095b 01             8681 	.byte	1
0000095c 02             8682 	.byte	2
0000095d 00             8683 	.byte	0
0000095e 02             8684 	.byte	2
0000095f 00             8685 	.byte	0
00000960 02             8686 	.byte	2
00000961 00             8687 	.byte	0
00000962 02             8688 	.byte	2
00000963 00             8689 	.byte	0
00000964 02             8690 	.byte	2
00000965 00             8691 	.byte	0
00000966 02             8692 	.byte	2
00000967 00             8693 	.byte	0
00000968 02             8694 	.byte	2
00000969 00             8695 	.byte	0
0000096a 0c             8696 	.byte	12
0000096b 06             8697 	.byte	6
0000096c 03             8698 	.byte	3
0000096d 67             8699 	.byte	103
0000096e 02             8700 	.byte	2
0000096f 00             8701 	.byte	0
00000970 01             8702 	.byte	1
00000971 03             8703 	.byte	3
00000972 06             8704 	.byte	6
00000973 02             8705 	.byte	2
00000974 00             8706 	.byte	0
00000975 01             8707 	.byte	1
00000976 03             8708 	.byte	3
00000977 06             8709 	.byte	6

                                                                      Page 160
                                                              C:\Users\nhuliyap\AppData\Local\Temp\gh_0000ds81.s
00000978 02             8710 	.byte	2
00000979 00             8711 	.byte	0
0000097a 01             8712 	.byte	1
0000097b 03             8713 	.byte	3
0000097c 0d             8714 	.byte	13
0000097d 02             8715 	.byte	2
0000097e 00             8716 	.byte	0
0000097f 01             8717 	.byte	1
00000980 06             8718 	.byte	6
00000981 000502         8719 	.byte	0,5,2
00000984 00000000*      8720 	.word	.LDWlin96
00000988 03             8721 	.byte	3
00000989 6e             8722 	.byte	110
0000098a 02             8723 	.byte	2
0000098b 00             8724 	.byte	0
0000098c 01             8725 	.byte	1
0000098d 0b             8726 	.byte	11
0000098e 02             8727 	.byte	2
0000098f 00             8728 	.byte	0
00000990 000502         8729 	.byte	0,5,2
00000993 00000000*      8730 	.word	.LDWlin97
00000997 0b             8731 	.byte	11
00000998 0c             8732 	.byte	12
00000999 000502         8733 	.byte	0,5,2
0000099c 00000000*      8734 	.word	.LDWlin98
000009a0 0c             8735 	.byte	12
000009a1 0b             8736 	.byte	11
000009a2 02             8737 	.byte	2
000009a3 00             8738 	.byte	0
000009a4 000502         8739 	.byte	0,5,2
000009a7 00000000*      8740 	.word	.LDWlin99
000009ab 0b             8741 	.byte	11
000009ac 0c             8742 	.byte	12
000009ad 1b             8743 	.byte	27
000009ae 03             8744 	.byte	3
000009af 08             8745 	.byte	8
000009b0 02             8746 	.byte	2
000009b1 04             8747 	.byte	4
000009b2 01             8748 	.byte	1
000009b3 0b             8749 	.byte	11
000009b4 1b             8750 	.byte	27
000009b5 13             8751 	.byte	19
000009b6 000502         8752 	.byte	0,5,2
000009b9 00000000*      8753 	.word	.LDWlin100
000009bd 0c             8754 	.byte	12
000009be 23             8755 	.byte	35
000009bf 0c             8756 	.byte	12
000009c0 02             8757 	.byte	2
000009c1 00             8758 	.byte	0
000009c2 0c             8759 	.byte	12
000009c3 000502         8760 	.byte	0,5,2
000009c6 00000000*      8761 	.word	.LDWlin101
000009ca 0c             8762 	.byte	12
000009cb 000502         8763 	.byte	0,5,2
000009ce 00000000*      8764 	.word	.LDWlin102
000009d2 0b             8765 	.byte	11
000009d3 0b             8766 	.byte	11
000009d4 1b             8767 	.byte	27
000009d5 02             8768 	.byte	2
000009d6 00             8769 	.byte	0
000009d7 0c             8770 	.byte	12

                                                                      Page 161
                                                              C:\Users\nhuliyap\AppData\Local\Temp\gh_0000ds81.s
000009d8 000502         8771 	.byte	0,5,2
000009db 00000000*      8772 	.word	.LDWlin103
000009df 0c             8773 	.byte	12
000009e0 000502         8774 	.byte	0,5,2
000009e3 00000000*      8775 	.word	.LDWlin104
000009e7 0b             8776 	.byte	11
000009e8 0b             8777 	.byte	11
000009e9 06             8778 	.byte	6
000009ea 000502         8779 	.byte	0,5,2
000009ed 00000000*      8780 	.word	.LDWlin105
000009f1 03             8781 	.byte	3
000009f2 67             8782 	.byte	103
000009f3 02             8783 	.byte	2
000009f4 00             8784 	.byte	0
000009f5 01             8785 	.byte	1
000009f6 06             8786 	.byte	6
000009f7 03             8787 	.byte	3
000009f8 1a             8788 	.byte	26
000009f9 02             8789 	.byte	2
000009fa 00             8790 	.byte	0
000009fb 01             8791 	.byte	1
000009fc 02             8792 	.byte	2
000009fd 00             8793 	.byte	0
000009fe 0b             8794 	.byte	11
000009ff 0b             8795 	.byte	11
00000a00 0c             8796 	.byte	12
00000a01 02             8797 	.byte	2
00000a02 00             8798 	.byte	0
00000a03 0b             8799 	.byte	11
00000a04 0b             8800 	.byte	11
00000a05 0c             8801 	.byte	12
00000a06 1b             8802 	.byte	27
00000a07 02             8803 	.byte	2
00000a08 00             8804 	.byte	0
00000a09 0c             8805 	.byte	12
00000a0a 1b             8806 	.byte	27
00000a0b 1c             8807 	.byte	28
00000a0c 06             8808 	.byte	6
00000a0d 02             8809 	.byte	2
00000a0e 02             8810 	.byte	2
00000a0f 02             8811 	.byte	2
00000a10 04             8812 	.byte	4
00000a11 000101         8813 	.byte	0,1,1
                        8814 	.section	.debug_info
                        8815 .LDW_4cad7c8:
00001f99 0f             8816 	.byte	15
00001f9a 50535f4d7367   8817 	.strz	"PS_MsgContext"
00001fa0 436f6e746578 
00001fa6 7400 
00001fa8 f703           8818 	.byte	247,3
00001faa 50             8819 	.byte	80
00001fab 01             8820 	.byte	1
00001fac 00000000*      8821 	.word	.LDW_48771f0
00001fb0 00             8822 	.byte	0
00001fb1 0168           8823 	.byte	1,104
                        8824 
                        8825 .LDW_4c9c238:
00001fb3 1d             8826 	.byte	29
00001fb4 00000000*      8827 	.word	.LDW65
00001fb8 00000000*      8828 	.word	.LDW75
                        8829 

                                                                      Page 162
                                                              C:\Users\nhuliyap\AppData\Local\Temp\gh_0000ds81.s
                        8830 .LDW_4cad878:
00001fbc 04             8831 	.byte	4
00001fbd 55385f526574   8832 	.strz	"U8_RetVal"
00001fc3 56616c00 
00001fc7 f903           8833 	.byte	249,3
00001fc9 09             8834 	.byte	9
00001fca 01             8835 	.byte	1
00001fcb 00000000*      8836 	.word	.LDW_4c438b8
00001fcf 00             8837 	.byte	0
00001fd0 00             8838 	.byte	0
00001fd1 0169           8839 	.byte	1,105
                        8840 
                        8841 .LDW_4cad090:
00001fd3 04             8842 	.byte	4
00001fd4 4155385f5265   8843 	.strz	"AU8_ReqData"
00001fda 714461746100 
00001fe0 fa03           8844 	.byte	250,3
00001fe2 09             8845 	.byte	9
00001fe3 01             8846 	.byte	1
00001fe4 00000000*      8847 	.word	.LDW_4cb7048
00001fe8 00             8848 	.byte	0
00001fe9 00             8849 	.byte	0
00001fea 0273           8850 	.byte	2,115
00001fec 02             8851 	.byte	2
                        8852 
                        8853 .LDW_4cad1f0:
00001fed 04             8854 	.byte	4
00001fee 55385f566172   8855 	.strz	"U8_VarCodLegislation"
00001ff4 436f644c6567 
00001ffa 69736c617469 
00002000 6f6e00 
00002003 fb03           8856 	.byte	251,3
00002005 09             8857 	.byte	9
00002006 01             8858 	.byte	1
00002007 00000000*      8859 	.word	.LDW_4c438b8
0000200b 00             8860 	.byte	0
0000200c 00             8861 	.byte	0
0000200d 0162           8862 	.byte	1,98
                        8863 
                        8864 .LDW_4cad4b0:
0000200f 04             8865 	.byte	4
00002010 55385f566172   8866 	.strz	"U8_VarCodPlacardPress"
00002016 436f64506c61 
0000201c 636172645072 
00002022 65737300 
00002026 fc03           8867 	.byte	252,3
00002028 09             8868 	.byte	9
00002029 01             8869 	.byte	1
0000202a 00000000*      8870 	.word	.LDW_4c438b8
0000202e 00             8871 	.byte	0
0000202f 00             8872 	.byte	0
00002030 0161           8873 	.byte	1,97
                        8874 
                        8875 .LDW_4cad5b8:
00002032 04             8876 	.byte	4
00002033 55385f566172   8877 	.strz	"U8_VarCodMinPressThres"
00002039 436f644d696e 
0000203f 507265737354 
00002045 6872657300 
0000204a fd03           8878 	.byte	253,3
0000204c 09             8879 	.byte	9

                                                                      Page 163
                                                              C:\Users\nhuliyap\AppData\Local\Temp\gh_0000ds81.s
0000204d 01             8880 	.byte	1
0000204e 00000000*      8881 	.word	.LDW_4c438b8
00002052 00             8882 	.byte	0
00002053 00             8883 	.byte	0
00002054 016c           8884 	.byte	1,108
                        8885 
                        8886 .LDW_4cad610:
00002056 04             8887 	.byte	4
00002057 55385f566172   8888 	.strz	"U8_VarCodOffroadPlacardPress"
0000205d 436f644f6666 
00002063 726f6164506c 
00002069 616361726450 
0000206f 7265737300 
00002074 fe03           8889 	.byte	254,3
00002076 09             8890 	.byte	9
00002077 01             8891 	.byte	1
00002078 00000000*      8892 	.word	.LDW_4c438b8
0000207c 00             8893 	.byte	0
0000207d 00             8894 	.byte	0
0000207e 016b           8895 	.byte	1,107
                        8896 
                        8897 .LDW_4cad668:
00002080 04             8898 	.byte	4
00002081 55385f566172   8899 	.strz	"U8_VarCodOffroadPlacardPressMin"
00002087 436f644f6666 
0000208d 726f6164506c 
00002093 616361726450 
00002099 726573734d69 
0000209f 6e00 
000020a1 ff03           8900 	.byte	255,3
000020a3 09             8901 	.byte	9
000020a4 01             8902 	.byte	1
000020a5 00000000*      8903 	.word	.LDW_4c438b8
000020a9 00             8904 	.byte	0
000020aa 00             8905 	.byte	0
000020ab 016a           8906 	.byte	1,106
                        8907 
                        8908 .LDW_4cad8d0:
000020ad 04             8909 	.byte	4
000020ae 55385f566172   8910 	.strz	"U8_VarCodMinimumPressure"
000020b4 436f644d696e 
000020ba 696d756d5072 
000020c0 657373757265 
000020c6 00 
000020c7 8004           8911 	.byte	128,4
000020c9 09             8912 	.byte	9
000020ca 01             8913 	.byte	1
000020cb 00000000*      8914 	.word	.LDW_4c438b8
000020cf 00             8915 	.byte	0
000020d0 00             8916 	.byte	0
000020d1 0273           8917 	.byte	2,115
000020d3 01             8918 	.byte	1
                        8919 
000020d4 00             8920 	.byte	0
                        8921 
000020d5 00             8922 	.byte	0
                        8923 
                        8924 .LDW_4cb6658:
000020d6 14             8925 	.byte	20
000020d7 444941475f5f   8926 	.strz	"DIAG__ReqCallback_ReadAutoLearnWSParameters"
000020dd 52657143616c 

                                                                      Page 164
                                                              C:\Users\nhuliyap\AppData\Local\Temp\gh_0000ds81.s
000020e3 6c6261636b5f 
000020e9 526561644175 
000020ef 746f4c656172 
000020f5 6e5753506172 
000020fb 616d65746572 
00002101 7300 
00002103 ce04           8927 	.byte	206,4
00002105 0e             8928 	.byte	14
00002106 01             8929 	.byte	1
00002107 00000000*      8930 	.word	.LDW_4c438b8
0000210b 00000000*      8931 	.word	_DIAG__ReqCallback_ReadAutoLearnWSParameters..C.3A.5C_ECU2.5CECU_Rivian_A1.5CTarget.5Crepo_projects.5CpRealEcu.5CcR_LATEST.5Cmake.5Coutput.5Cobjects.5CSwcApplTpms_Diag.
0000210f 00000000*      8932 	.word	___ghs_eofn_DIAG__ReqCallback_ReadAutoLearnWSParameters
00002113 0153           8933 	.byte	1,83
00002115 828080800b     8934 	.byte	130,128,128,128,11
0000211a 0c             8935 	.byte	12
0000211b 03             8936 	.byte	3
0000211c 28             8937 	.byte	40
0000211d 00             8938 	.byte	0
0000211e 00             8939 	.byte	0
0000211f 00             8940 	.byte	0
00002120 00             8941 	.byte	0
00002121 01             8942 	.byte	1
00002122 00             8943 	.byte	0
00002123 01             8944 	.byte	1
                        8945 
                        8946 	.section	.debug_frame
                        8947 .LDW_4c2aca0:
000002d4 00000000*      8948 	.word	.LDW_unq_26-.LDW_unq_25
                        8949 .LDW_unq_25:
000002d8 00000000*      8950 	.word	.LDW_4c4f988
000002dc 00000000*      8951 	.word	_DIAG__ReqCallback_ReadAutoLearnWSParameters..C.3A.5C_ECU2.5CECU_Rivian_A1.5CTarget.5Crepo_projects.5CpRealEcu.5CcR_LATEST.5Cmake.5Coutput.5Cobjects.5CSwcApplTpms_Diag.
000002e0 00000000*      8952 	.word	___ghs_eofn_DIAG__ReqCallback_ReadAutoLearnWSParameters-_DIAG__ReqCallback_ReadAutoLearnWSParameters..C.3A.5C_ECU2.5CECU_Rivian_A1.5CTarget.5Crepo_projects.5CpRealEcu.5CcR_LATEST.5Cmake.5Coutput.5Cobjects.5CSwcApplTpms_Diag.
000002e4 44             8953 	.byte	68
000002e5 9f             8954 	.byte	159
000002e6 15             8955 	.byte	21
000002e7 40             8956 	.byte	64
000002e8 9d             8957 	.byte	157
000002e9 19             8958 	.byte	25
000002ea 40             8959 	.byte	64
000002eb 9c             8960 	.byte	156
000002ec 1d             8961 	.byte	29
000002ed 01             8962 	.byte	1
000002ee 00000000*      8963 	.word	.LDW95
000002f2 44             8964 	.byte	68
000002f3 df             8965 	.byte	223
000002f4 40             8966 	.byte	64
000002f5 dd             8967 	.byte	221
000002f6 40             8968 	.byte	64
000002f7 dc             8969 	.byte	220
                        8970 .LDW_unq_26:
                        8971 	.section	.debug_line
00000a14 000502         8972 	.byte	0,5,2
00000a17 00000000*      8973 	.word	_DIAG__ReqCallback_ReadAutoLearnWSParameters..C.3A.5C_ECU2.5CECU_Rivian_A1.5CTarget.5Crepo_projects.5CpRealEcu.5CcR_LATEST.5Cmake.5Coutput.5Cobjects.5CSwcApplTpms_Diag.
00000a1b 03             8974 	.byte	3
00000a1c ce04           8975 	.byte	206,4
00000a1e 02             8976 	.byte	2
00000a1f 00             8977 	.byte	0
00000a20 01             8978 	.byte	1
00000a21 06             8979 	.byte	6
00000a22 000502         8980 	.byte	0,5,2
00000a25 00000000*      8981 	.word	.LDWlin106

                                                                      Page 165
                                                              C:\Users\nhuliyap\AppData\Local\Temp\gh_0000ds81.s
00000a29 03             8982 	.byte	3
00000a2a 04             8983 	.byte	4
00000a2b 02             8984 	.byte	2
00000a2c 00             8985 	.byte	0
00000a2d 01             8986 	.byte	1
00000a2e 000502         8987 	.byte	0,5,2
00000a31 00000000*      8988 	.word	.LDWlin107
00000a35 0c             8989 	.byte	12
00000a36 1b             8990 	.byte	27
00000a37 2d             8991 	.byte	45
00000a38 03             8992 	.byte	3
00000a39 7f             8993 	.byte	127
00000a3a 02             8994 	.byte	2
00000a3b 06             8995 	.byte	6
00000a3c 01             8996 	.byte	1
00000a3d 2c             8997 	.byte	44
00000a3e 1c             8998 	.byte	28
00000a3f 06             8999 	.byte	6
00000a40 02             9000 	.byte	2
00000a41 02             9001 	.byte	2
00000a42 02             9002 	.byte	2
00000a43 04             9003 	.byte	4
00000a44 000101         9004 	.byte	0,1,1
                        9005 	.section	.debug_info
                        9006 .LDW_4cad0e8:
00002124 0f             9007 	.byte	15
00002125 50535f4d7367   9008 	.strz	"PS_MsgContext"
0000212b 436f6e746578 
00002131 7400 
00002133 ce04           9009 	.byte	206,4
00002135 4b             9010 	.byte	75
00002136 01             9011 	.byte	1
00002137 00000000*      9012 	.word	.LDW_48771f0
0000213b 00             9013 	.byte	0
0000213c 016c           9014 	.byte	1,108
                        9015 
                        9016 .LDW_4c9c1a8:
0000213e 1d             9017 	.byte	29
0000213f 00000000*      9018 	.word	.LDW85
00002143 00000000*      9019 	.word	.LDW95
                        9020 
                        9021 .LDW_4cacfe0:
00002147 04             9022 	.byte	4
00002148 745741506172   9023 	.strz	"tWAParLocal"
0000214e 4c6f63616c00 
00002154 d004           9024 	.byte	208,4
00002156 0f             9025 	.byte	15
00002157 01             9026 	.byte	1
00002158 00000000*      9027 	.word	.LDW_4cacf30
0000215c 00             9028 	.byte	0
0000215d 00             9029 	.byte	0
0000215e 0273           9030 	.byte	2,115
00002160 00             9031 	.byte	0
                        9032 
                        9033 .LDW_4cad038:
00002161 05             9034 	.byte	5
00002162 55385f526574   9035 	.strz	"U8_RetVal"
00002168 56616c00 
0000216c d104           9036 	.byte	209,4
0000216e 09             9037 	.byte	9
0000216f 01             9038 	.byte	1

                                                                      Page 166
                                                              C:\Users\nhuliyap\AppData\Local\Temp\gh_0000ds81.s
00002170 00000000*      9039 	.word	.LDW_4c438b8
00002174 00             9040 	.byte	0
00002175 00             9041 	.byte	0
                        9042 
00002176 00             9043 	.byte	0
                        9044 
00002177 00             9045 	.byte	0
                        9046 
                        9047 .LDW_4cb63f8:
00002178 14             9048 	.byte	20
00002179 444941475f5f   9049 	.strz	"DIAG__ReqCallback_WriteAutoLearnWSParameters"
0000217f 52657143616c 
00002185 6c6261636b5f 
0000218b 577269746541 
00002191 75746f4c6561 
00002197 726e57535061 
0000219d 72616d657465 
000021a3 727300 
000021a6 df04           9050 	.byte	223,4
000021a8 0e             9051 	.byte	14
000021a9 01             9052 	.byte	1
000021aa 00000000*      9053 	.word	.LDW_4c438b8
000021ae 00000000*      9054 	.word	_DIAG__ReqCallback_WriteAutoLearnWSParameters..C.3A.5C_ECU2.5CECU_Rivian_A1.5CTarget.5Crepo_projects.5CpRealEcu.5CcR_LATEST.5Cmake.5Coutput.5Cobjects.5CSwcApplTpms_Diag.
000021b2 00000000*      9055 	.word	___ghs_eofn_DIAG__ReqCallback_WriteAutoLearnWSParameters
000021b6 0153           9056 	.byte	1,83
000021b8 828080f00b     9057 	.byte	130,128,128,240,11
000021bd 18             9058 	.byte	24
000021be 03             9059 	.byte	3
000021bf 18             9060 	.byte	24
000021c0 00             9061 	.byte	0
000021c1 00             9062 	.byte	0
000021c2 00             9063 	.byte	0
000021c3 00             9064 	.byte	0
000021c4 01             9065 	.byte	1
000021c5 00             9066 	.byte	0
000021c6 01             9067 	.byte	1
                        9068 
                        9069 	.section	.debug_frame
                        9070 .LDW_4c2a6e0:
000002f8 00000000*      9071 	.word	.LDW_unq_28-.LDW_unq_27
                        9072 .LDW_unq_27:
000002fc 00000000*      9073 	.word	.LDW_4c4f988
00000300 00000000*      9074 	.word	_DIAG__ReqCallback_WriteAutoLearnWSParameters..C.3A.5C_ECU2.5CECU_Rivian_A1.5CTarget.5Crepo_projects.5CpRealEcu.5CcR_LATEST.5Cmake.5Coutput.5Cobjects.5CSwcApplTpms_Diag.
00000304 00000000*      9075 	.word	___ghs_eofn_DIAG__ReqCallback_WriteAutoLearnWSParameters-_DIAG__ReqCallback_WriteAutoLearnWSParameters..C.3A.5C_ECU2.5CECU_Rivian_A1.5CTarget.5Crepo_projects.5CpRealEcu.5CcR_LATEST.5Cmake.5Coutput.5Cobjects.5CSwcApplTpms_Diag.
00000308 44             9076 	.byte	68
00000309 9f             9077 	.byte	159
0000030a 00             9078 	.byte	0
0000030b 40             9079 	.byte	64
0000030c 9d             9080 	.byte	157
0000030d 04             9081 	.byte	4
0000030e 40             9082 	.byte	64
0000030f 9c             9083 	.byte	156
00000310 08             9084 	.byte	8
00000311 40             9085 	.byte	64
00000312 9b             9086 	.byte	155
00000313 0c             9087 	.byte	12
00000314 40             9088 	.byte	64
00000315 9a             9089 	.byte	154
00000316 10             9090 	.byte	16
00000317 40             9091 	.byte	64
00000318 99             9092 	.byte	153

                                                                      Page 167
                                                              C:\Users\nhuliyap\AppData\Local\Temp\gh_0000ds81.s
00000319 14             9093 	.byte	20
0000031a 01             9094 	.byte	1
0000031b 00000000*      9095 	.word	.LDW16
0000031f 44             9096 	.byte	68
00000320 df             9097 	.byte	223
00000321 40             9098 	.byte	64
00000322 dd             9099 	.byte	221
00000323 40             9100 	.byte	64
00000324 dc             9101 	.byte	220
00000325 40             9102 	.byte	64
00000326 db             9103 	.byte	219
00000327 40             9104 	.byte	64
00000328 da             9105 	.byte	218
00000329 40             9106 	.byte	64
0000032a d9             9107 	.byte	217
0000032b 00             9108 	.byte	0
                        9109 .LDW_unq_28:
                        9110 	.section	.debug_line
00000a47 000502         9111 	.byte	0,5,2
00000a4a 00000000*      9112 	.word	_DIAG__ReqCallback_WriteAutoLearnWSParameters..C.3A.5C_ECU2.5CECU_Rivian_A1.5CTarget.5Crepo_projects.5CpRealEcu.5CcR_LATEST.5Cmake.5Coutput.5Cobjects.5CSwcApplTpms_Diag.
00000a4e 03             9113 	.byte	3
00000a4f df04           9114 	.byte	223,4
00000a51 02             9115 	.byte	2
00000a52 00             9116 	.byte	0
00000a53 01             9117 	.byte	1
00000a54 06             9118 	.byte	6
00000a55 000502         9119 	.byte	0,5,2
00000a58 00000000*      9120 	.word	.LDWlin108
00000a5c 0c             9121 	.byte	12
00000a5d 1d             9122 	.byte	29
00000a5e 000502         9123 	.byte	0,5,2
00000a61 00000000*      9124 	.word	.LDWlin109
00000a65 03             9125 	.byte	3
00000a66 7e             9126 	.byte	126
00000a67 02             9127 	.byte	2
00000a68 00             9128 	.byte	0
00000a69 01             9129 	.byte	1
00000a6a 000502         9130 	.byte	0,5,2
00000a6d 00000000*      9131 	.word	.LDWlin110
00000a71 0d             9132 	.byte	13
00000a72 1b             9133 	.byte	27
00000a73 13             9134 	.byte	19
00000a74 000502         9135 	.byte	0,5,2
00000a77 00000000*      9136 	.word	.LDWlin111
00000a7b 0c             9137 	.byte	12
00000a7c 1b             9138 	.byte	27
00000a7d 1b             9139 	.byte	27
00000a7e 06             9140 	.byte	6
00000a7f 02             9141 	.byte	2
00000a80 02             9142 	.byte	2
00000a81 02             9143 	.byte	2
00000a82 04             9144 	.byte	4
00000a83 000101         9145 	.byte	0,1,1
                        9146 	.section	.debug_info
                        9147 .LDW_4cad140:
000021c7 0f             9148 	.byte	15
000021c8 50535f4d7367   9149 	.strz	"PS_MsgContext"
000021ce 436f6e746578 
000021d4 7400 
000021d6 df04           9150 	.byte	223,4
000021d8 4c             9151 	.byte	76

                                                                      Page 168
                                                              C:\Users\nhuliyap\AppData\Local\Temp\gh_0000ds81.s
000021d9 01             9152 	.byte	1
000021da 00000000*      9153 	.word	.LDW_48771f0
000021de 00             9154 	.byte	0
000021df 016b           9155 	.byte	1,107
                        9156 
                        9157 .LDW_4c9c268:
000021e1 1d             9158 	.byte	29
000021e2 00000000*      9159 	.word	.LDW06
000021e6 00000000*      9160 	.word	.LDW16
                        9161 
                        9162 .LDW_4cadbe8:
000021ea 05             9163 	.byte	5
000021eb 55385f526574   9164 	.strz	"U8_RetVal"
000021f1 56616c00 
000021f5 e104           9165 	.byte	225,4
000021f7 09             9166 	.byte	9
000021f8 01             9167 	.byte	1
000021f9 00000000*      9168 	.word	.LDW_4c438b8
000021fd 00             9169 	.byte	0
000021fe 00             9170 	.byte	0
                        9171 
                        9172 .LDW_4cadae0:
000021ff 04             9173 	.byte	4
00002200 55385f4d696e   9174 	.strz	"U8_MinCt4ZomReset"
00002206 4374345a6f6d 
0000220c 526573657400 
00002212 e204           9175 	.byte	226,4
00002214 09             9176 	.byte	9
00002215 01             9177 	.byte	1
00002216 00000000*      9178 	.word	.LDW_4c438b8
0000221a 00             9179 	.byte	0
0000221b 00             9180 	.byte	0
0000221c 016a           9181 	.byte	1,106
                        9182 
                        9183 .LDW_4cadc40:
0000221e 04             9184 	.byte	4
0000221f 55385f4d696e   9185 	.strz	"U8_MinERMeanRssiLevel"
00002225 45524d65616e 
0000222b 527373694c65 
00002231 76656c00 
00002235 e304           9186 	.byte	227,4
00002237 09             9187 	.byte	9
00002238 01             9188 	.byte	1
00002239 00000000*      9189 	.word	.LDW_4c438b8
0000223d 00             9190 	.byte	0
0000223e 00             9191 	.byte	0
0000223f 0169           9192 	.byte	1,105
                        9193 
00002241 00             9194 	.byte	0
                        9195 
00002242 00             9196 	.byte	0
                        9197 
                        9198 .LDW_4cb6230:
00002243 14             9199 	.byte	20
00002244 444941475f5f   9200 	.strz	"DIAG__ReqCallback_ReadAdditionalPressureOfMinimumPressure"
0000224a 52657143616c 
00002250 6c6261636b5f 
00002256 526561644164 
0000225c 646974696f6e 
00002262 616c50726573 
00002268 737572654f66 

                                                                      Page 169
                                                              C:\Users\nhuliyap\AppData\Local\Temp\gh_0000ds81.s
0000226e 4d696e696d75 
00002274 6d5072657373 
0000227a 75726500 
0000227e ef04           9201 	.byte	239,4
00002280 0e             9202 	.byte	14
00002281 01             9203 	.byte	1
00002282 00000000*      9204 	.word	.LDW_4c438b8
00002286 00000000*      9205 	.word	_DIAG__ReqCallback_ReadAdditionalPressureOfMinimumPressure..C.3A.5C_ECU2.5CECU_Rivian_A1.5CTarget.5Crepo_projects.5CpRealEcu.5CcR_LATEST.5Cmake.5Coutput.5Cobjects.5CSwcApplTpms_Diag.
0000228a 00000000*      9206 	.word	___ghs_eofn_DIAG__ReqCallback_ReadAdditionalPressureOfMinimumPressure
0000228e 0153           9207 	.byte	1,83
00002290 828080c00b     9208 	.byte	130,128,128,192,11
00002295 10             9209 	.byte	16
00002296 03             9210 	.byte	3
00002297 10             9211 	.byte	16
00002298 00             9212 	.byte	0
00002299 00             9213 	.byte	0
0000229a 00             9214 	.byte	0
0000229b 00             9215 	.byte	0
0000229c 01             9216 	.byte	1
0000229d 00             9217 	.byte	0
0000229e 01             9218 	.byte	1
                        9219 
                        9220 	.section	.debug_frame
                        9221 .LDW_4c2a3a0:
0000032c 00000000*      9222 	.word	.LDW_unq_2a-.LDW_unq_29
                        9223 .LDW_unq_29:
00000330 00000000*      9224 	.word	.LDW_4c4f988
00000334 00000000*      9225 	.word	_DIAG__ReqCallback_ReadAdditionalPressureOfMinimumPressure..C.3A.5C_ECU2.5CECU_Rivian_A1.5CTarget.5Crepo_projects.5CpRealEcu.5CcR_LATEST.5Cmake.5Coutput.5Cobjects.5CSwcApplTpms_Diag.
00000338 00000000*      9226 	.word	___ghs_eofn_DIAG__ReqCallback_ReadAdditionalPressureOfMinimumPressure-_DIAG__ReqCallback_ReadAdditionalPressureOfMinimumPressure..C.3A.5C_ECU2.5CECU_Rivian_A1.5CTarget.5Crepo_projects.5CpRealEcu.5CcR_LATEST.5Cmake.5Coutput.5Cobjects.5CSwcApplTpms_Diag.
0000033c 44             9227 	.byte	68
0000033d 9f             9228 	.byte	159
0000033e 00             9229 	.byte	0
0000033f 40             9230 	.byte	64
00000340 9d             9231 	.byte	157
00000341 04             9232 	.byte	4
00000342 40             9233 	.byte	64
00000343 9c             9234 	.byte	156
00000344 08             9235 	.byte	8
00000345 40             9236 	.byte	64
00000346 9b             9237 	.byte	155
00000347 0c             9238 	.byte	12
00000348 01             9239 	.byte	1
00000349 00000000*      9240 	.word	.LDW56
0000034d 44             9241 	.byte	68
0000034e df             9242 	.byte	223
0000034f 40             9243 	.byte	64
00000350 dd             9244 	.byte	221
00000351 40             9245 	.byte	64
00000352 dc             9246 	.byte	220
00000353 40             9247 	.byte	64
00000354 db             9248 	.byte	219
00000355 00             9249 	.byte	0
00000356 00             9250 	.byte	0
00000357 00             9251 	.byte	0
                        9252 .LDW_unq_2a:
                        9253 	.section	.debug_line
00000a86 000502         9254 	.byte	0,5,2
00000a89 00000000*      9255 	.word	_DIAG__ReqCallback_ReadAdditionalPressureOfMinimumPressure..C.3A.5C_ECU2.5CECU_Rivian_A1.5CTarget.5Crepo_projects.5CpRealEcu.5CcR_LATEST.5Cmake.5Coutput.5Cobjects.5CSwcApplTpms_Diag.
00000a8d 03             9256 	.byte	3
00000a8e ef04           9257 	.byte	239,4
00000a90 02             9258 	.byte	2

                                                                      Page 170
                                                              C:\Users\nhuliyap\AppData\Local\Temp\gh_0000ds81.s
00000a91 00             9259 	.byte	0
00000a92 01             9260 	.byte	1
00000a93 06             9261 	.byte	6
00000a94 000502         9262 	.byte	0,5,2
00000a97 00000000*      9263 	.word	.LDWlin113
00000a9b 0d             9264 	.byte	13
00000a9c 2b             9265 	.byte	43
00000a9d 000502         9266 	.byte	0,5,2
00000aa0 00000000*      9267 	.word	.LDWlin114
00000aa4 0c             9268 	.byte	12
00000aa5 14             9269 	.byte	20
00000aa6 2b             9270 	.byte	43
00000aa7 14             9271 	.byte	20
00000aa8 06             9272 	.byte	6
00000aa9 02             9273 	.byte	2
00000aaa 02             9274 	.byte	2
00000aab 02             9275 	.byte	2
00000aac 04             9276 	.byte	4
00000aad 000101         9277 	.byte	0,1,1
                        9278 	.section	.debug_info
                        9279 .LDW_4caddf8:
0000229f 0f             9280 	.byte	15
000022a0 50535f4d7367   9281 	.strz	"PS_MsgContext"
000022a6 436f6e746578 
000022ac 7400 
000022ae ef04           9282 	.byte	239,4
000022b0 59             9283 	.byte	89
000022b1 01             9284 	.byte	1
000022b2 00000000*      9285 	.word	.LDW_48771f0
000022b6 00             9286 	.byte	0
000022b7 016b           9287 	.byte	1,107
                        9288 
                        9289 .LDW_4c9c508:
000022b9 1d             9290 	.byte	29
000022ba 00000000*      9291 	.word	.LDW46
000022be 00000000*      9292 	.word	.LDW56
                        9293 
                        9294 .LDW_4cada30:
000022c2 05             9295 	.byte	5
000022c3 55385f526574   9296 	.strz	"U8_RetVal"
000022c9 56616c00 
000022cd f104           9297 	.byte	241,4
000022cf 09             9298 	.byte	9
000022d0 01             9299 	.byte	1
000022d1 00000000*      9300 	.word	.LDW_4c438b8
000022d5 00             9301 	.byte	0
000022d6 00             9302 	.byte	0
                        9303 
000022d7 00             9304 	.byte	0
                        9305 
000022d8 00             9306 	.byte	0
                        9307 
                        9308 .LDW_4cb6c48:
000022d9 14             9309 	.byte	20
000022da 444941475f5f   9310 	.strz	"DIAG__ReqCallback_WriteAdditionalPressureOfMinimumPressure"
000022e0 52657143616c 
000022e6 6c6261636b5f 
000022ec 577269746541 
000022f2 64646974696f 
000022f8 6e616c507265 
000022fe 73737572654f 

                                                                      Page 171
                                                              C:\Users\nhuliyap\AppData\Local\Temp\gh_0000ds81.s
00002304 664d696e696d 
0000230a 756d50726573 
00002310 7375726500 
00002315 fe04           9311 	.byte	254,4
00002317 0e             9312 	.byte	14
00002318 01             9313 	.byte	1
00002319 00000000*      9314 	.word	.LDW_4c438b8
0000231d 00000000*      9315 	.word	_DIAG__ReqCallback_WriteAdditionalPressureOfMinimumPressure..C.3A.5C_ECU2.5CECU_Rivian_A1.5CTarget.5Crepo_projects.5CpRealEcu.5CcR_LATEST.5Cmake.5Coutput.5Cobjects.5CSwcApplTpms_Diag.
00002321 00000000*      9316 	.word	___ghs_eofn_DIAG__ReqCallback_WriteAdditionalPressureOfMinimumPressure
00002325 0153           9317 	.byte	1,83
00002327 828080a00b     9318 	.byte	130,128,128,160,11
0000232c 14             9319 	.byte	20
0000232d 03             9320 	.byte	3
0000232e 18             9321 	.byte	24
0000232f 00             9322 	.byte	0
00002330 00             9323 	.byte	0
00002331 00             9324 	.byte	0
00002332 00             9325 	.byte	0
00002333 01             9326 	.byte	1
00002334 00             9327 	.byte	0
00002335 01             9328 	.byte	1
                        9329 
                        9330 	.section	.debug_frame
                        9331 .LDW_4c2a4a0:
00000358 00000000*      9332 	.word	.LDW_unq_2c-.LDW_unq_2b
                        9333 .LDW_unq_2b:
0000035c 00000000*      9334 	.word	.LDW_4c4f988
00000360 00000000*      9335 	.word	_DIAG__ReqCallback_WriteAdditionalPressureOfMinimumPressure..C.3A.5C_ECU2.5CECU_Rivian_A1.5CTarget.5Crepo_projects.5CpRealEcu.5CcR_LATEST.5Cmake.5Coutput.5Cobjects.5CSwcApplTpms_Diag.
00000364 00000000*      9336 	.word	___ghs_eofn_DIAG__ReqCallback_WriteAdditionalPressureOfMinimumPressure-_DIAG__ReqCallback_WriteAdditionalPressureOfMinimumPressure..C.3A.5C_ECU2.5CECU_Rivian_A1.5CTarget.5Crepo_projects.5CpRealEcu.5CcR_LATEST.5Cmake.5Coutput.5Cobjects.5CSwcApplTpms_Diag.
00000368 44             9337 	.byte	68
00000369 9f             9338 	.byte	159
0000036a 06             9339 	.byte	6
0000036b 40             9340 	.byte	64
0000036c 9d             9341 	.byte	157
0000036d 0a             9342 	.byte	10
0000036e 40             9343 	.byte	64
0000036f 9c             9344 	.byte	156
00000370 0e             9345 	.byte	14
00000371 40             9346 	.byte	64
00000372 9a             9347 	.byte	154
00000373 12             9348 	.byte	18
00000374 01             9349 	.byte	1
00000375 00000000*      9350 	.word	.LDW76
00000379 00             9351 	.byte	0
0000037a 00             9352 	.byte	0
0000037b 00             9353 	.byte	0
                        9354 .LDW_unq_2c:
                        9355 	.section	.debug_line
00000ab0 000502         9356 	.byte	0,5,2
00000ab3 00000000*      9357 	.word	_DIAG__ReqCallback_WriteAdditionalPressureOfMinimumPressure..C.3A.5C_ECU2.5CECU_Rivian_A1.5CTarget.5Crepo_projects.5CpRealEcu.5CcR_LATEST.5Cmake.5Coutput.5Cobjects.5CSwcApplTpms_Diag.
00000ab7 03             9358 	.byte	3
00000ab8 fe04           9359 	.byte	254,4
00000aba 02             9360 	.byte	2
00000abb 00             9361 	.byte	0
00000abc 01             9362 	.byte	1
00000abd 06             9363 	.byte	6
00000abe 000502         9364 	.byte	0,5,2
00000ac1 00000000*      9365 	.word	.LDWlin115
00000ac5 03             9366 	.byte	3
00000ac6 07             9367 	.byte	7
00000ac7 02             9368 	.byte	2

                                                                      Page 172
                                                              C:\Users\nhuliyap\AppData\Local\Temp\gh_0000ds81.s
00000ac8 00             9369 	.byte	0
00000ac9 01             9370 	.byte	1
00000aca 03             9371 	.byte	3
00000acb 7e             9372 	.byte	126
00000acc 02             9373 	.byte	2
00000acd 04             9374 	.byte	4
00000ace 01             9375 	.byte	1
00000acf 03             9376 	.byte	3
00000ad0 7c             9377 	.byte	124
00000ad1 02             9378 	.byte	2
00000ad2 04             9379 	.byte	4
00000ad3 01             9380 	.byte	1
00000ad4 03             9381 	.byte	3
00000ad5 08             9382 	.byte	8
00000ad6 02             9383 	.byte	2
00000ad7 08             9384 	.byte	8
00000ad8 01             9385 	.byte	1
00000ad9 000502         9386 	.byte	0,5,2
00000adc 00000000*      9387 	.word	.LDWlin116
00000ae0 03             9388 	.byte	3
00000ae1 04             9389 	.byte	4
00000ae2 02             9390 	.byte	2
00000ae3 00             9391 	.byte	0
00000ae4 01             9392 	.byte	1
00000ae5 0b             9393 	.byte	11
00000ae6 02             9394 	.byte	2
00000ae7 00             9395 	.byte	0
00000ae8 000502         9396 	.byte	0,5,2
00000aeb 00000000*      9397 	.word	.LDWlin117
00000aef 0b             9398 	.byte	11
00000af0 0c             9399 	.byte	12
00000af1 000502         9400 	.byte	0,5,2
00000af4 00000000*      9401 	.word	.LDWlin118
00000af8 0b             9402 	.byte	11
00000af9 0b             9403 	.byte	11
00000afa 02             9404 	.byte	2
00000afb 00             9405 	.byte	0
00000afc 000502         9406 	.byte	0,5,2
00000aff 00000000*      9407 	.word	.LDWlin119
00000b03 0b             9408 	.byte	11
00000b04 0c             9409 	.byte	12
00000b05 06             9410 	.byte	6
00000b06 000502         9411 	.byte	0,5,2
00000b09 00000000*      9412 	.word	.LDWlin120
00000b0d 03             9413 	.byte	3
00000b0e 76             9414 	.byte	118
00000b0f 02             9415 	.byte	2
00000b10 00             9416 	.byte	0
00000b11 01             9417 	.byte	1
00000b12 06             9418 	.byte	6
00000b13 03             9419 	.byte	3
00000b14 0b             9420 	.byte	11
00000b15 02             9421 	.byte	2
00000b16 00             9422 	.byte	0
00000b17 01             9423 	.byte	1
00000b18 0c             9424 	.byte	12
00000b19 0c             9425 	.byte	12
00000b1a 1b             9426 	.byte	27
00000b1b 02             9427 	.byte	2
00000b1c 00             9428 	.byte	0
00000b1d 02             9429 	.byte	2

                                                                      Page 173
                                                              C:\Users\nhuliyap\AppData\Local\Temp\gh_0000ds81.s
00000b1e 00             9430 	.byte	0
00000b1f 02             9431 	.byte	2
00000b20 00             9432 	.byte	0
00000b21 02             9433 	.byte	2
00000b22 00             9434 	.byte	0
00000b23 02             9435 	.byte	2
00000b24 00             9436 	.byte	0
00000b25 0c             9437 	.byte	12
00000b26 000502         9438 	.byte	0,5,2
00000b29 00000000*      9439 	.word	.LDWlin121
00000b2d 0b             9440 	.byte	11
00000b2e 0c             9441 	.byte	12
00000b2f 000502         9442 	.byte	0,5,2
00000b32 00000000*      9443 	.word	.LDWlin122
00000b36 0c             9444 	.byte	12
00000b37 000502         9445 	.byte	0,5,2
00000b3a 00000000*      9446 	.word	.LDWlin123
00000b3e 0b             9447 	.byte	11
00000b3f 0b             9448 	.byte	11
00000b40 000502         9449 	.byte	0,5,2
00000b43 00000000*      9450 	.word	.LDWlin124
00000b47 0b             9451 	.byte	11
00000b48 02             9452 	.byte	2
00000b49 00             9453 	.byte	0
00000b4a 0b             9454 	.byte	11
00000b4b 0b             9455 	.byte	11
00000b4c 0c             9456 	.byte	12
00000b4d 1b             9457 	.byte	27
00000b4e 02             9458 	.byte	2
00000b4f 00             9459 	.byte	0
00000b50 0c             9460 	.byte	12
00000b51 1c             9461 	.byte	28
00000b52 06             9462 	.byte	6
00000b53 02             9463 	.byte	2
00000b54 02             9464 	.byte	2
00000b55 02             9465 	.byte	2
00000b56 04             9466 	.byte	4
00000b57 000101         9467 	.byte	0,1,1
                        9468 	.section	.debug_info
                        9469 .LDW_4cadd48:
00002336 0f             9470 	.byte	15
00002337 50535f4d7367   9471 	.strz	"PS_MsgContext"
0000233d 436f6e746578 
00002343 7400 
00002345 fe04           9472 	.byte	254,4
00002347 5a             9473 	.byte	90
00002348 01             9474 	.byte	1
00002349 00000000*      9475 	.word	.LDW_48771f0
0000234d 00             9476 	.byte	0
0000234e 016a           9477 	.byte	1,106
                        9478 
                        9479 .LDW_4c9c538:
00002350 1d             9480 	.byte	29
00002351 00000000*      9481 	.word	.LDW66
00002355 00000000*      9482 	.word	.LDW76
                        9483 
                        9484 .LDW_4cadb38:
00002359 04             9485 	.byte	4
0000235a 55385f526574   9486 	.strz	"U8_RetVal"
00002360 56616c00 
00002364 8005           9487 	.byte	128,5

                                                                      Page 174
                                                              C:\Users\nhuliyap\AppData\Local\Temp\gh_0000ds81.s
00002366 09             9488 	.byte	9
00002367 01             9489 	.byte	1
00002368 00000000*      9490 	.word	.LDW_4c438b8
0000236c 00             9491 	.byte	0
0000236d 00             9492 	.byte	0
0000236e 016c           9493 	.byte	1,108
                        9494 
                        9495 .LDW_4cadea8:
00002370 04             9496 	.byte	4
00002371 55385f566172   9497 	.strz	"U8_VarCodMinPressThres"
00002377 436f644d696e 
0000237d 507265737354 
00002383 6872657300 
00002388 8105           9498 	.byte	129,5
0000238a 09             9499 	.byte	9
0000238b 01             9500 	.byte	1
0000238c 00000000*      9501 	.word	.LDW_4c438b8
00002390 00             9502 	.byte	0
00002391 00             9503 	.byte	0
00002392 0273           9504 	.byte	2,115
00002394 03             9505 	.byte	3
                        9506 
                        9507 .LDW_4cadcf0:
00002395 04             9508 	.byte	4
00002396 55385f4c6f77   9509 	.strz	"U8_LowLimitOfPMIN"
0000239c 4c696d69744f 
000023a2 66504d494e00 
000023a8 8205           9510 	.byte	130,5
000023aa 09             9511 	.byte	9
000023ab 01             9512 	.byte	1
000023ac 00000000*      9513 	.word	.LDW_4c438b8
000023b0 00             9514 	.byte	0
000023b1 00             9515 	.byte	0
000023b2 0162           9516 	.byte	1,98
                        9517 
                        9518 .LDW_4cadb90:
000023b4 05             9519 	.byte	5
000023b5 55385f486967   9520 	.strz	"U8_HighLimitOfPMIN"
000023bb 684c696d6974 
000023c1 4f66504d494e 
000023c7 00 
000023c8 8305           9521 	.byte	131,5
000023ca 09             9522 	.byte	9
000023cb 01             9523 	.byte	1
000023cc 00000000*      9524 	.word	.LDW_4c438b8
000023d0 00             9525 	.byte	0
000023d1 00             9526 	.byte	0
                        9527 
000023d2 00             9528 	.byte	0
                        9529 
000023d3 00             9530 	.byte	0
                        9531 
                        9532 .LDW_4cb6490:
000023d4 14             9533 	.byte	20
000023d5 444941475f5f   9534 	.strz	"DIAG__ReqCallback_ReadBCMFaultReason"
000023db 52657143616c 
000023e1 6c6261636b5f 
000023e7 526561644243 
000023ed 4d4661756c74 
000023f3 526561736f6e 
000023f9 00 

                                                                      Page 175
                                                              C:\Users\nhuliyap\AppData\Local\Temp\gh_0000ds81.s
000023fa b105           9535 	.byte	177,5
000023fc 0e             9536 	.byte	14
000023fd 01             9537 	.byte	1
000023fe 00000000*      9538 	.word	.LDW_4c438b8
00002402 00000000*      9539 	.word	_DIAG__ReqCallback_ReadBCMFaultReason..C.3A.5C_ECU2.5CECU_Rivian_A1.5CTarget.5Crepo_projects.5CpRealEcu.5CcR_LATEST.5Cmake.5Coutput.5Cobjects.5CSwcApplTpms_Diag.
00002406 00000000*      9540 	.word	___ghs_eofn_DIAG__ReqCallback_ReadBCMFaultReason
0000240a 0153           9541 	.byte	1,83
0000240c 828080c00b     9542 	.byte	130,128,128,192,11
00002411 10             9543 	.byte	16
00002412 03             9544 	.byte	3
00002413 10             9545 	.byte	16
00002414 00             9546 	.byte	0
00002415 00             9547 	.byte	0
00002416 00             9548 	.byte	0
00002417 00             9549 	.byte	0
00002418 01             9550 	.byte	1
00002419 00             9551 	.byte	0
0000241a 01             9552 	.byte	1
                        9553 
                        9554 	.section	.debug_frame
                        9555 .LDW_4c2a3e0:
0000037c 00000000*      9556 	.word	.LDW_unq_2e-.LDW_unq_2d
                        9557 .LDW_unq_2d:
00000380 00000000*      9558 	.word	.LDW_4c4f988
00000384 00000000*      9559 	.word	_DIAG__ReqCallback_ReadBCMFaultReason..C.3A.5C_ECU2.5CECU_Rivian_A1.5CTarget.5Crepo_projects.5CpRealEcu.5CcR_LATEST.5Cmake.5Coutput.5Cobjects.5CSwcApplTpms_Diag.
00000388 00000000*      9560 	.word	___ghs_eofn_DIAG__ReqCallback_ReadBCMFaultReason-_DIAG__ReqCallback_ReadBCMFaultReason..C.3A.5C_ECU2.5CECU_Rivian_A1.5CTarget.5Crepo_projects.5CpRealEcu.5CcR_LATEST.5Cmake.5Coutput.5Cobjects.5CSwcApplTpms_Diag.
0000038c 44             9561 	.byte	68
0000038d 9f             9562 	.byte	159
0000038e 00             9563 	.byte	0
0000038f 40             9564 	.byte	64
00000390 9d             9565 	.byte	157
00000391 04             9566 	.byte	4
00000392 40             9567 	.byte	64
00000393 9c             9568 	.byte	156
00000394 08             9569 	.byte	8
00000395 40             9570 	.byte	64
00000396 9b             9571 	.byte	155
00000397 0c             9572 	.byte	12
00000398 01             9573 	.byte	1
00000399 00000000*      9574 	.word	.LDW96
0000039d 44             9575 	.byte	68
0000039e df             9576 	.byte	223
0000039f 40             9577 	.byte	64
000003a0 dd             9578 	.byte	221
000003a1 40             9579 	.byte	64
000003a2 dc             9580 	.byte	220
000003a3 40             9581 	.byte	64
000003a4 db             9582 	.byte	219
000003a5 00             9583 	.byte	0
000003a6 00             9584 	.byte	0
000003a7 00             9585 	.byte	0
                        9586 .LDW_unq_2e:
                        9587 	.section	.debug_line
00000b5a 000502         9588 	.byte	0,5,2
00000b5d 00000000*      9589 	.word	_DIAG__ReqCallback_ReadBCMFaultReason..C.3A.5C_ECU2.5CECU_Rivian_A1.5CTarget.5Crepo_projects.5CpRealEcu.5CcR_LATEST.5Cmake.5Coutput.5Cobjects.5CSwcApplTpms_Diag.
00000b61 03             9590 	.byte	3
00000b62 b105           9591 	.byte	177,5
00000b64 02             9592 	.byte	2
00000b65 00             9593 	.byte	0
00000b66 01             9594 	.byte	1
00000b67 06             9595 	.byte	6

                                                                      Page 176
                                                              C:\Users\nhuliyap\AppData\Local\Temp\gh_0000ds81.s
00000b68 000502         9596 	.byte	0,5,2
00000b6b 00000000*      9597 	.word	.LDWlin125
00000b6f 0d             9598 	.byte	13
00000b70 2c             9599 	.byte	44
00000b71 000502         9600 	.byte	0,5,2
00000b74 00000000*      9601 	.word	.LDWlin126
00000b78 0c             9602 	.byte	12
00000b79 13             9603 	.byte	19
00000b7a 2b             9604 	.byte	43
00000b7b 13             9605 	.byte	19
00000b7c 06             9606 	.byte	6
00000b7d 02             9607 	.byte	2
00000b7e 02             9608 	.byte	2
00000b7f 02             9609 	.byte	2
00000b80 04             9610 	.byte	4
00000b81 000101         9611 	.byte	0,1,1
                        9612 	.section	.debug_info
                        9613 .LDW_4cada88:
0000241b 0f             9614 	.byte	15
0000241c 50535f4d7367   9615 	.strz	"PS_MsgContext"
00002422 436f6e746578 
00002428 7400 
0000242a b105           9616 	.byte	177,5
0000242c 44             9617 	.byte	68
0000242d 01             9618 	.byte	1
0000242e 00000000*      9619 	.word	.LDW_48771f0
00002432 00             9620 	.byte	0
00002433 016b           9621 	.byte	1,107
                        9622 
                        9623 .LDW_4c9c4a8:
00002435 1d             9624 	.byte	29
00002436 00000000*      9625 	.word	.LDW86
0000243a 00000000*      9626 	.word	.LDW96
                        9627 
                        9628 .LDW_4cade50:
0000243e 05             9629 	.byte	5
0000243f 55385f526574   9630 	.strz	"U8_RetVal"
00002445 56616c00 
00002449 b305           9631 	.byte	179,5
0000244b 09             9632 	.byte	9
0000244c 01             9633 	.byte	1
0000244d 00000000*      9634 	.word	.LDW_4c438b8
00002451 00             9635 	.byte	0
00002452 00             9636 	.byte	0
                        9637 
00002453 00             9638 	.byte	0
                        9639 
00002454 00             9640 	.byte	0
                        9641 
                        9642 .LDW_4cb6950:
00002455 14             9643 	.byte	20
00002456 444941475f5f   9644 	.strz	"DIAG__ReqCallback_WriteBCMFaultReason"
0000245c 52657143616c 
00002462 6c6261636b5f 
00002468 577269746542 
0000246e 434d4661756c 
00002474 74526561736f 
0000247a 6e00 
0000247c bf05           9645 	.byte	191,5
0000247e 0e             9646 	.byte	14
0000247f 01             9647 	.byte	1

                                                                      Page 177
                                                              C:\Users\nhuliyap\AppData\Local\Temp\gh_0000ds81.s
00002480 00000000*      9648 	.word	.LDW_4c438b8
00002484 00000000*      9649 	.word	_DIAG__ReqCallback_WriteBCMFaultReason..C.3A.5C_ECU2.5CECU_Rivian_A1.5CTarget.5Crepo_projects.5CpRealEcu.5CcR_LATEST.5Cmake.5Coutput.5Cobjects.5CSwcApplTpms_Diag.
00002488 00000000*      9650 	.word	___ghs_eofn_DIAG__ReqCallback_WriteBCMFaultReason
0000248c 0153           9651 	.byte	1,83
0000248e 828080c00b     9652 	.byte	130,128,128,192,11
00002493 10             9653 	.byte	16
00002494 03             9654 	.byte	3
00002495 10             9655 	.byte	16
00002496 00             9656 	.byte	0
00002497 00             9657 	.byte	0
00002498 00             9658 	.byte	0
00002499 00             9659 	.byte	0
0000249a 01             9660 	.byte	1
0000249b 00             9661 	.byte	0
0000249c 01             9662 	.byte	1
                        9663 
                        9664 	.section	.debug_frame
                        9665 .LDW_4c2a420:
000003a8 00000000*      9666 	.word	.LDW_unq_30-.LDW_unq_2f
                        9667 .LDW_unq_2f:
000003ac 00000000*      9668 	.word	.LDW_4c4f988
000003b0 00000000*      9669 	.word	_DIAG__ReqCallback_WriteBCMFaultReason..C.3A.5C_ECU2.5CECU_Rivian_A1.5CTarget.5Crepo_projects.5CpRealEcu.5CcR_LATEST.5Cmake.5Coutput.5Cobjects.5CSwcApplTpms_Diag.
000003b4 00000000*      9670 	.word	___ghs_eofn_DIAG__ReqCallback_WriteBCMFaultReason-_DIAG__ReqCallback_WriteBCMFaultReason..C.3A.5C_ECU2.5CECU_Rivian_A1.5CTarget.5Crepo_projects.5CpRealEcu.5CcR_LATEST.5Cmake.5Coutput.5Cobjects.5CSwcApplTpms_Diag.
000003b8 44             9671 	.byte	68
000003b9 9f             9672 	.byte	159
000003ba 00             9673 	.byte	0
000003bb 40             9674 	.byte	64
000003bc 9d             9675 	.byte	157
000003bd 04             9676 	.byte	4
000003be 40             9677 	.byte	64
000003bf 9c             9678 	.byte	156
000003c0 08             9679 	.byte	8
000003c1 40             9680 	.byte	64
000003c2 9b             9681 	.byte	155
000003c3 0c             9682 	.byte	12
000003c4 01             9683 	.byte	1
000003c5 00000000*      9684 	.word	.LDW17
000003c9 00             9685 	.byte	0
000003ca 00             9686 	.byte	0
000003cb 00             9687 	.byte	0
                        9688 .LDW_unq_30:
                        9689 	.section	.debug_line
00000b84 000502         9690 	.byte	0,5,2
00000b87 00000000*      9691 	.word	_DIAG__ReqCallback_WriteBCMFaultReason..C.3A.5C_ECU2.5CECU_Rivian_A1.5CTarget.5Crepo_projects.5CpRealEcu.5CcR_LATEST.5Cmake.5Coutput.5Cobjects.5CSwcApplTpms_Diag.
00000b8b 03             9692 	.byte	3
00000b8c bf05           9693 	.byte	191,5
00000b8e 02             9694 	.byte	2
00000b8f 00             9695 	.byte	0
00000b90 01             9696 	.byte	1
00000b91 06             9697 	.byte	6
00000b92 000502         9698 	.byte	0,5,2
00000b95 00000000*      9699 	.word	.LDWlin127
00000b99 0d             9700 	.byte	13
00000b9a 24             9701 	.byte	36
00000b9b 000502         9702 	.byte	0,5,2
00000b9e 00000000*      9703 	.word	.LDWlin128
00000ba2 0b             9704 	.byte	11
00000ba3 0b             9705 	.byte	11
00000ba4 000502         9706 	.byte	0,5,2
00000ba7 00000000*      9707 	.word	.LDWlin129
00000bab 0b             9708 	.byte	11

                                                                      Page 178
                                                              C:\Users\nhuliyap\AppData\Local\Temp\gh_0000ds81.s
00000bac 0b             9709 	.byte	11
00000bad 0b             9710 	.byte	11
00000bae 1b             9711 	.byte	27
00000baf 02             9712 	.byte	2
00000bb0 00             9713 	.byte	0
00000bb1 0c             9714 	.byte	12
00000bb2 1b             9715 	.byte	27
00000bb3 1c             9716 	.byte	28
00000bb4 06             9717 	.byte	6
00000bb5 02             9718 	.byte	2
00000bb6 02             9719 	.byte	2
00000bb7 02             9720 	.byte	2
00000bb8 04             9721 	.byte	4
00000bb9 000101         9722 	.byte	0,1,1
                        9723 	.section	.debug_info
                        9724 .LDW_4cadc98:
0000249d 0f             9725 	.byte	15
0000249e 50535f4d7367   9726 	.strz	"PS_MsgContext"
000024a4 436f6e746578 
000024aa 7400 
000024ac bf05           9727 	.byte	191,5
000024ae 45             9728 	.byte	69
000024af 01             9729 	.byte	1
000024b0 00000000*      9730 	.word	.LDW_48771f0
000024b4 00             9731 	.byte	0
000024b5 016b           9732 	.byte	1,107
                        9733 
                        9734 .LDW_4c9c3e8:
000024b7 1d             9735 	.byte	29
000024b8 00000000*      9736 	.word	.LDW07
000024bc 00000000*      9737 	.word	.LDW17
                        9738 
                        9739 .LDW_4cadda0:
000024c0 04             9740 	.byte	4
000024c1 55385f526574   9741 	.strz	"U8_RetVal"
000024c7 56616c00 
000024cb c105           9742 	.byte	193,5
000024cd 09             9743 	.byte	9
000024ce 01             9744 	.byte	1
000024cf 00000000*      9745 	.word	.LDW_4c438b8
000024d3 00             9746 	.byte	0
000024d4 00             9747 	.byte	0
000024d5 016c           9748 	.byte	1,108
                        9749 
                        9750 .LDW_4cb7c20:
000024d7 04             9751 	.byte	4
000024d8 42434d466175   9752 	.strz	"BCMFaultReasonToWrite"
000024de 6c7452656173 
000024e4 6f6e546f5772 
000024ea 69746500 
000024ee c205           9753 	.byte	194,5
000024f0 09             9754 	.byte	9
000024f1 01             9755 	.byte	1
000024f2 00000000*      9756 	.word	.LDW_4c438b8
000024f6 00             9757 	.byte	0
000024f7 00             9758 	.byte	0
000024f8 0156           9759 	.byte	1,86
                        9760 
000024fa 00             9761 	.byte	0
                        9762 
000024fb 00             9763 	.byte	0

                                                                      Page 179
                                                              C:\Users\nhuliyap\AppData\Local\Temp\gh_0000ds81.s
                        9764 
                        9765 .LDW_4cb66f0:
000024fc 14             9766 	.byte	20
000024fd 444941475f5f   9767 	.strz	"DIAG__ReqCallback_ReadBCMPosition"
00002503 52657143616c 
00002509 6c6261636b5f 
0000250f 526561644243 
00002515 4d506f736974 
0000251b 696f6e00 
0000251f d305           9768 	.byte	211,5
00002521 0e             9769 	.byte	14
00002522 01             9770 	.byte	1
00002523 00000000*      9771 	.word	.LDW_4c438b8
00002527 00000000*      9772 	.word	_DIAG__ReqCallback_ReadBCMPosition..C.3A.5C_ECU2.5CECU_Rivian_A1.5CTarget.5Crepo_projects.5CpRealEcu.5CcR_LATEST.5Cmake.5Coutput.5Cobjects.5CSwcApplTpms_Diag.
0000252b 00000000*      9773 	.word	___ghs_eofn_DIAG__ReqCallback_ReadBCMPosition
0000252f 0153           9774 	.byte	1,83
00002531 828080e00b     9775 	.byte	130,128,128,224,11
00002536 14             9776 	.byte	20
00002537 03             9777 	.byte	3
00002538 30             9778 	.byte	48
00002539 00             9779 	.byte	0
0000253a 00             9780 	.byte	0
0000253b 00             9781 	.byte	0
0000253c 00             9782 	.byte	0
0000253d 01             9783 	.byte	1
0000253e 00             9784 	.byte	0
0000253f 01             9785 	.byte	1
                        9786 
                        9787 	.section	.debug_frame
                        9788 .LDW_4c29fe0:
000003cc 00000000*      9789 	.word	.LDW_unq_32-.LDW_unq_31
                        9790 .LDW_unq_31:
000003d0 00000000*      9791 	.word	.LDW_4c4f988
000003d4 00000000*      9792 	.word	_DIAG__ReqCallback_ReadBCMPosition..C.3A.5C_ECU2.5CECU_Rivian_A1.5CTarget.5Crepo_projects.5CpRealEcu.5CcR_LATEST.5Cmake.5Coutput.5Cobjects.5CSwcApplTpms_Diag.
000003d8 00000000*      9793 	.word	___ghs_eofn_DIAG__ReqCallback_ReadBCMPosition-_DIAG__ReqCallback_ReadBCMPosition..C.3A.5C_ECU2.5CECU_Rivian_A1.5CTarget.5Crepo_projects.5CpRealEcu.5CcR_LATEST.5Cmake.5Coutput.5Cobjects.5CSwcApplTpms_Diag.
000003dc 44             9794 	.byte	68
000003dd 9f             9795 	.byte	159
000003de 15             9796 	.byte	21
000003df 40             9797 	.byte	64
000003e0 9d             9798 	.byte	157
000003e1 19             9799 	.byte	25
000003e2 40             9800 	.byte	64
000003e3 9c             9801 	.byte	156
000003e4 1d             9802 	.byte	29
000003e5 40             9803 	.byte	64
000003e6 9b             9804 	.byte	155
000003e7 21             9805 	.byte	33
000003e8 40             9806 	.byte	64
000003e9 9a             9807 	.byte	154
000003ea 25             9808 	.byte	37
000003eb 01             9809 	.byte	1
000003ec 00000000*      9810 	.word	.LDW37
                        9811 .LDW_unq_32:
                        9812 	.section	.debug_line
00000bbc 000502         9813 	.byte	0,5,2
00000bbf 00000000*      9814 	.word	_DIAG__ReqCallback_ReadBCMPosition..C.3A.5C_ECU2.5CECU_Rivian_A1.5CTarget.5Crepo_projects.5CpRealEcu.5CcR_LATEST.5Cmake.5Coutput.5Cobjects.5CSwcApplTpms_Diag.
00000bc3 03             9815 	.byte	3
00000bc4 d305           9816 	.byte	211,5
00000bc6 02             9817 	.byte	2
00000bc7 00             9818 	.byte	0
00000bc8 01             9819 	.byte	1

                                                                      Page 180
                                                              C:\Users\nhuliyap\AppData\Local\Temp\gh_0000ds81.s
00000bc9 06             9820 	.byte	6
00000bca 000502         9821 	.byte	0,5,2
00000bcd 00000000*      9822 	.word	.LDWlin130
00000bd1 0c             9823 	.byte	12
00000bd2 13             9824 	.byte	19
00000bd3 2b             9825 	.byte	43
00000bd4 1b             9826 	.byte	27
00000bd5 000502         9827 	.byte	0,5,2
00000bd8 00000000*      9828 	.word	.LDWlin131
00000bdc 0b             9829 	.byte	11
00000bdd 000502         9830 	.byte	0,5,2
00000be0 00000000*      9831 	.word	.LDWlin132
00000be4 0d             9832 	.byte	13
00000be5 0b             9833 	.byte	11
00000be6 0b             9834 	.byte	11
00000be7 0b             9835 	.byte	11
00000be8 1d             9836 	.byte	29
00000be9 14             9837 	.byte	20
00000bea 03             9838 	.byte	3
00000beb 7c             9839 	.byte	124
00000bec 02             9840 	.byte	2
00000bed 02             9841 	.byte	2
00000bee 01             9842 	.byte	1
00000bef 02             9843 	.byte	2
00000bf0 00             9844 	.byte	0
00000bf1 0b             9845 	.byte	11
00000bf2 03             9846 	.byte	3
00000bf3 04             9847 	.byte	4
00000bf4 02             9848 	.byte	2
00000bf5 0a             9849 	.byte	10
00000bf6 01             9850 	.byte	1
00000bf7 13             9851 	.byte	19
00000bf8 06             9852 	.byte	6
00000bf9 02             9853 	.byte	2
00000bfa 02             9854 	.byte	2
00000bfb 02             9855 	.byte	2
00000bfc 04             9856 	.byte	4
00000bfd 000101         9857 	.byte	0,1,1
                        9858 	.section	.debug_info
                        9859 .LDW_4cb79b8:
00002540 0f             9860 	.byte	15
00002541 50535f4d7367   9861 	.strz	"PS_MsgContext"
00002547 436f6e746578 
0000254d 7400 
0000254f d305           9862 	.byte	211,5
00002551 41             9863 	.byte	65
00002552 01             9864 	.byte	1
00002553 00000000*      9865 	.word	.LDW_48771f0
00002557 00             9866 	.byte	0
00002558 016a           9867 	.byte	1,106
                        9868 
                        9869 .LDW_4c9c418:
0000255a 1d             9870 	.byte	29
0000255b 00000000*      9871 	.word	.LDW27
0000255f 00000000*      9872 	.word	.LDW37
                        9873 
                        9874 .LDW_4cb7908:
00002563 04             9875 	.byte	4
00002564 745741506172   9876 	.strz	"tWAParLocal"
0000256a 4c6f63616c00 
00002570 d505           9877 	.byte	213,5

                                                                      Page 181
                                                              C:\Users\nhuliyap\AppData\Local\Temp\gh_0000ds81.s
00002572 0f             9878 	.byte	15
00002573 01             9879 	.byte	1
00002574 00000000*      9880 	.word	.LDW_4cacf30
00002578 00             9881 	.byte	0
00002579 00             9882 	.byte	0
0000257a 0273           9883 	.byte	2,115
0000257c 00             9884 	.byte	0
                        9885 
                        9886 .LDW_4cb7d80:
0000257d 04             9887 	.byte	4
0000257e 55385f526574   9888 	.strz	"U8_RetVal"
00002584 56616c00 
00002588 d605           9889 	.byte	214,5
0000258a 09             9890 	.byte	9
0000258b 01             9891 	.byte	1
0000258c 00000000*      9892 	.word	.LDW_4c438b8
00002590 00             9893 	.byte	0
00002591 00             9894 	.byte	0
00002592 016b           9895 	.byte	1,107
                        9896 
00002594 00             9897 	.byte	0
                        9898 
00002595 00             9899 	.byte	0
                        9900 
                        9901 .LDW_4cb6a80:
00002596 14             9902 	.byte	20
00002597 444941475f5f   9903 	.strz	"DIAG__ReqCallback_WriteBCMPosition"
0000259d 52657143616c 
000025a3 6c6261636b5f 
000025a9 577269746542 
000025af 434d506f7369 
000025b5 74696f6e00 
000025ba fa05           9904 	.byte	250,5
000025bc 0e             9905 	.byte	14
000025bd 01             9906 	.byte	1
000025be 00000000*      9907 	.word	.LDW_4c438b8
000025c2 00000000*      9908 	.word	_DIAG__ReqCallback_WriteBCMPosition..C.3A.5C_ECU2.5CECU_Rivian_A1.5CTarget.5Crepo_projects.5CpRealEcu.5CcR_LATEST.5Cmake.5Coutput.5Cobjects.5CSwcApplTpms_Diag.
000025c6 00000000*      9909 	.word	___ghs_eofn_DIAG__ReqCallback_WriteBCMPosition
000025ca 0153           9910 	.byte	1,83
000025cc 828080f00b     9911 	.byte	130,128,128,240,11
000025d1 18             9912 	.byte	24
000025d2 03             9913 	.byte	3
000025d3 18             9914 	.byte	24
000025d4 00             9915 	.byte	0
000025d5 00             9916 	.byte	0
000025d6 00             9917 	.byte	0
000025d7 00             9918 	.byte	0
000025d8 01             9919 	.byte	1
000025d9 00             9920 	.byte	0
000025da 01             9921 	.byte	1
                        9922 
                        9923 	.section	.debug_frame
                        9924 .LDW_4c2a4e0:
000003f0 00000000*      9925 	.word	.LDW_unq_34-.LDW_unq_33
                        9926 .LDW_unq_33:
000003f4 00000000*      9927 	.word	.LDW_4c4f988
000003f8 00000000*      9928 	.word	_DIAG__ReqCallback_WriteBCMPosition..C.3A.5C_ECU2.5CECU_Rivian_A1.5CTarget.5Crepo_projects.5CpRealEcu.5CcR_LATEST.5Cmake.5Coutput.5Cobjects.5CSwcApplTpms_Diag.
000003fc 00000000*      9929 	.word	___ghs_eofn_DIAG__ReqCallback_WriteBCMPosition-_DIAG__ReqCallback_WriteBCMPosition..C.3A.5C_ECU2.5CECU_Rivian_A1.5CTarget.5Crepo_projects.5CpRealEcu.5CcR_LATEST.5Cmake.5Coutput.5Cobjects.5CSwcApplTpms_Diag.
00000400 44             9930 	.byte	68
00000401 9f             9931 	.byte	159
00000402 00             9932 	.byte	0

                                                                      Page 182
                                                              C:\Users\nhuliyap\AppData\Local\Temp\gh_0000ds81.s
00000403 40             9933 	.byte	64
00000404 9d             9934 	.byte	157
00000405 04             9935 	.byte	4
00000406 40             9936 	.byte	64
00000407 9c             9937 	.byte	156
00000408 08             9938 	.byte	8
00000409 40             9939 	.byte	64
0000040a 9b             9940 	.byte	155
0000040b 0c             9941 	.byte	12
0000040c 40             9942 	.byte	64
0000040d 9a             9943 	.byte	154
0000040e 10             9944 	.byte	16
0000040f 40             9945 	.byte	64
00000410 99             9946 	.byte	153
00000411 14             9947 	.byte	20
00000412 01             9948 	.byte	1
00000413 00000000*      9949 	.word	.LDW57
00000417 00             9950 	.byte	0
                        9951 .LDW_unq_34:
                        9952 	.section	.debug_line
00000c00 000502         9953 	.byte	0,5,2
00000c03 00000000*      9954 	.word	_DIAG__ReqCallback_WriteBCMPosition..C.3A.5C_ECU2.5CECU_Rivian_A1.5CTarget.5Crepo_projects.5CpRealEcu.5CcR_LATEST.5Cmake.5Coutput.5Cobjects.5CSwcApplTpms_Diag.
00000c07 03             9955 	.byte	3
00000c08 fa05           9956 	.byte	250,5
00000c0a 02             9957 	.byte	2
00000c0b 00             9958 	.byte	0
00000c0c 01             9959 	.byte	1
00000c0d 06             9960 	.byte	6
00000c0e 000502         9961 	.byte	0,5,2
00000c11 00000000*      9962 	.word	.LDWlin133
00000c15 0d             9963 	.byte	13
00000c16 03             9964 	.byte	3
00000c17 7e             9965 	.byte	126
00000c18 02             9966 	.byte	2
00000c19 04             9967 	.byte	4
00000c1a 01             9968 	.byte	1
00000c1b 03             9969 	.byte	3
00000c1c 04             9970 	.byte	4
00000c1d 02             9971 	.byte	2
00000c1e 04             9972 	.byte	4
00000c1f 01             9973 	.byte	1
00000c20 000502         9974 	.byte	0,5,2
00000c23 00000000*      9975 	.word	.LDWlin134
00000c27 0d             9976 	.byte	13
00000c28 0c             9977 	.byte	12
00000c29 000502         9978 	.byte	0,5,2
00000c2c 00000000*      9979 	.word	.LDWlin135
00000c30 0b             9980 	.byte	11
00000c31 1b             9981 	.byte	27
00000c32 000502         9982 	.byte	0,5,2
00000c35 00000000*      9983 	.word	.LDWlin136
00000c39 0b             9984 	.byte	11
00000c3a 0b             9985 	.byte	11
00000c3b 0b             9986 	.byte	11
00000c3c 1b             9987 	.byte	27
00000c3d 02             9988 	.byte	2
00000c3e 00             9989 	.byte	0
00000c3f 0c             9990 	.byte	12
00000c40 1b             9991 	.byte	27
00000c41 1b             9992 	.byte	27
00000c42 06             9993 	.byte	6

                                                                      Page 183
                                                              C:\Users\nhuliyap\AppData\Local\Temp\gh_0000ds81.s
00000c43 02             9994 	.byte	2
00000c44 02             9995 	.byte	2
00000c45 02             9996 	.byte	2
00000c46 04             9997 	.byte	4
00000c47 000101         9998 	.byte	0,1,1
                        9999 	.section	.debug_info
                       10000 .LDW_4cb7e30:
000025db 0f            10001 	.byte	15
000025dc 50535f4d7367  10002 	.strz	"PS_MsgContext"
000025e2 436f6e746578 
000025e8 7400 
000025ea fa05          10003 	.byte	250,5
000025ec 42            10004 	.byte	66
000025ed 01            10005 	.byte	1
000025ee 00000000*     10006 	.word	.LDW_48771f0
000025f2 00            10007 	.byte	0
000025f3 0169          10008 	.byte	1,105
                       10009 
                       10010 .LDW_4cc8d08:
000025f5 1d            10011 	.byte	29
000025f6 00000000*     10012 	.word	.LDW47
000025fa 00000000*     10013 	.word	.LDW57
                       10014 
                       10015 .LDW_4cb8098:
000025fe 04            10016 	.byte	4
000025ff 55385f526574  10017 	.strz	"U8_RetVal"
00002605 56616c00 
00002609 fc05          10018 	.byte	252,5
0000260b 09            10019 	.byte	9
0000260c 01            10020 	.byte	1
0000260d 00000000*     10021 	.word	.LDW_4c438b8
00002611 00            10022 	.byte	0
00002612 00            10023 	.byte	0
00002613 016a          10024 	.byte	1,106
                       10025 
                       10026 .LDW_4cb81f8:
00002615 04            10027 	.byte	4
00002616 55385f4e6577  10028 	.strz	"U8_NewECUPosition"
0000261c 454355506f73 
00002622 6974696f6e00 
00002628 fd05          10029 	.byte	253,5
0000262a 09            10030 	.byte	9
0000262b 01            10031 	.byte	1
0000262c 00000000*     10032 	.word	.LDW_4c438b8
00002630 00            10033 	.byte	0
00002631 00            10034 	.byte	0
00002632 016c          10035 	.byte	1,108
                       10036 
00002634 00            10037 	.byte	0
                       10038 
00002635 00            10039 	.byte	0
                       10040 
                       10041 .LDW_4cb62c8:
00002636 14            10042 	.byte	20
00002637 444941475f5f  10043 	.strz	"DIAG__ReqCallback_ReadABSTicksValue"
0000263d 52657143616c 
00002643 6c6261636b5f 
00002649 526561644142 
0000264f 535469636b73 
00002655 56616c756500 
0000265b 9206          10044 	.byte	146,6

                                                                      Page 184
                                                              C:\Users\nhuliyap\AppData\Local\Temp\gh_0000ds81.s
0000265d 0e            10045 	.byte	14
0000265e 01            10046 	.byte	1
0000265f 00000000*     10047 	.word	.LDW_4c438b8
00002663 00000000*     10048 	.word	_DIAG__ReqCallback_ReadABSTicksValue..C.3A.5C_ECU2.5CECU_Rivian_A1.5CTarget.5Crepo_projects.5CpRealEcu.5CcR_LATEST.5Cmake.5Coutput.5Cobjects.5CSwcApplTpms_Diag.
00002667 00000000*     10049 	.word	___ghs_eofn_DIAG__ReqCallback_ReadABSTicksValue
0000266b 0153          10050 	.byte	1,83
0000266d 828080c00b    10051 	.byte	130,128,128,192,11
00002672 10            10052 	.byte	16
00002673 03            10053 	.byte	3
00002674 14            10054 	.byte	20
00002675 00            10055 	.byte	0
00002676 00            10056 	.byte	0
00002677 00            10057 	.byte	0
00002678 00            10058 	.byte	0
00002679 01            10059 	.byte	1
0000267a 00            10060 	.byte	0
0000267b 01            10061 	.byte	1
                       10062 
                       10063 	.section	.debug_frame
                       10064 .LDW_4c2a0e0:
00000418 00000000*     10065 	.word	.LDW_unq_36-.LDW_unq_35
                       10066 .LDW_unq_35:
0000041c 00000000*     10067 	.word	.LDW_4c4f988
00000420 00000000*     10068 	.word	_DIAG__ReqCallback_ReadABSTicksValue..C.3A.5C_ECU2.5CECU_Rivian_A1.5CTarget.5Crepo_projects.5CpRealEcu.5CcR_LATEST.5Cmake.5Coutput.5Cobjects.5CSwcApplTpms_Diag.
00000424 00000000*     10069 	.word	___ghs_eofn_DIAG__ReqCallback_ReadABSTicksValue-_DIAG__ReqCallback_ReadABSTicksValue..C.3A.5C_ECU2.5CECU_Rivian_A1.5CTarget.5Crepo_projects.5CpRealEcu.5CcR_LATEST.5Cmake.5Coutput.5Cobjects.5CSwcApplTpms_Diag.
00000428 44            10070 	.byte	68
00000429 9f            10071 	.byte	159
0000042a 03            10072 	.byte	3
0000042b 40            10073 	.byte	64
0000042c 9d            10074 	.byte	157
0000042d 07            10075 	.byte	7
0000042e 40            10076 	.byte	64
0000042f 9c            10077 	.byte	156
00000430 0b            10078 	.byte	11
00000431 40            10079 	.byte	64
00000432 9b            10080 	.byte	155
00000433 0f            10081 	.byte	15
00000434 01            10082 	.byte	1
00000435 00000000*     10083 	.word	.LDW77
00000439 00            10084 	.byte	0
0000043a 00            10085 	.byte	0
0000043b 00            10086 	.byte	0
                       10087 .LDW_unq_36:
                       10088 	.section	.debug_line
00000c4a 000502        10089 	.byte	0,5,2
00000c4d 00000000*     10090 	.word	_DIAG__ReqCallback_ReadABSTicksValue..C.3A.5C_ECU2.5CECU_Rivian_A1.5CTarget.5Crepo_projects.5CpRealEcu.5CcR_LATEST.5Cmake.5Coutput.5Cobjects.5CSwcApplTpms_Diag.
00000c51 03            10091 	.byte	3
00000c52 9206          10092 	.byte	146,6
00000c54 02            10093 	.byte	2
00000c55 00            10094 	.byte	0
00000c56 01            10095 	.byte	1
00000c57 06            10096 	.byte	6
00000c58 000502        10097 	.byte	0,5,2
00000c5b 00000000*     10098 	.word	.LDWlin137
00000c5f 0b            10099 	.byte	11
00000c60 15            10100 	.byte	21
00000c61 13            10101 	.byte	19
00000c62 14            10102 	.byte	20
00000c63 000502        10103 	.byte	0,5,2
00000c66 00000000*     10104 	.word	.LDWlin138
00000c6a 0b            10105 	.byte	11

                                                                      Page 185
                                                              C:\Users\nhuliyap\AppData\Local\Temp\gh_0000ds81.s
00000c6b 000502        10106 	.byte	0,5,2
00000c6e 00000000*     10107 	.word	.LDWlin139
00000c72 0c            10108 	.byte	12
00000c73 0b            10109 	.byte	11
00000c74 0b            10110 	.byte	11
00000c75 0b            10111 	.byte	11
00000c76 1d            10112 	.byte	29
00000c77 03            10113 	.byte	3
00000c78 7e            10114 	.byte	126
00000c79 02            10115 	.byte	2
00000c7a 04            10116 	.byte	4
00000c7b 01            10117 	.byte	1
00000c7c 02            10118 	.byte	2
00000c7d 00            10119 	.byte	0
00000c7e 0b            10120 	.byte	11
00000c7f 03            10121 	.byte	3
00000c80 04            10122 	.byte	4
00000c81 02            10123 	.byte	2
00000c82 04            10124 	.byte	4
00000c83 01            10125 	.byte	1
00000c84 03            10126 	.byte	3
00000c85 7e            10127 	.byte	126
00000c86 02            10128 	.byte	2
00000c87 06            10129 	.byte	6
00000c88 01            10130 	.byte	1
00000c89 2d            10131 	.byte	45
00000c8a 1b            10132 	.byte	27
00000c8b 06            10133 	.byte	6
00000c8c 02            10134 	.byte	2
00000c8d 02            10135 	.byte	2
00000c8e 02            10136 	.byte	2
00000c8f 04            10137 	.byte	4
00000c90 000101        10138 	.byte	0,1,1
                       10139 	.section	.debug_info
                       10140 .LDW_4cb7c78:
0000267c 0f            10141 	.byte	15
0000267d 50535f4d7367  10142 	.strz	"PS_MsgContext"
00002683 436f6e746578 
00002689 7400 
0000268b 9206          10143 	.byte	146,6
0000268d 43            10144 	.byte	67
0000268e 01            10145 	.byte	1
0000268f 00000000*     10146 	.word	.LDW_48771f0
00002693 00            10147 	.byte	0
00002694 016b          10148 	.byte	1,107
                       10149 
                       10150 .LDW_4cc8c78:
00002696 1d            10151 	.byte	29
00002697 00000000*     10152 	.word	.LDW67
0000269b 00000000*     10153 	.word	.LDW77
                       10154 
                       10155 .LDW_4cb7ac0:
0000269f 04            10156 	.byte	4
000026a0 55385f526574  10157 	.strz	"U8_RetVal"
000026a6 56616c00 
000026aa 9406          10158 	.byte	148,6
000026ac 09            10159 	.byte	9
000026ad 01            10160 	.byte	1
000026ae 00000000*     10161 	.word	.LDW_4c438b8
000026b2 00            10162 	.byte	0
000026b3 00            10163 	.byte	0

                                                                      Page 186
                                                              C:\Users\nhuliyap\AppData\Local\Temp\gh_0000ds81.s
000026b4 016c          10164 	.byte	1,108
                       10165 
                       10166 .LDW_4cb7b18:
000026b6 04            10167 	.byte	4
000026b7 4c6f63616c41  10168 	.strz	"LocalABSTicksInOneRev"
000026bd 42535469636b 
000026c3 73496e4f6e65 
000026c9 52657600 
000026cd 9506          10169 	.byte	149,6
000026cf 1d            10170 	.byte	29
000026d0 01            10171 	.byte	1
000026d1 00000000*     10172 	.word	.LDW_4cb81a0
000026d5 00            10173 	.byte	0
000026d6 00            10174 	.byte	0
000026d7 0273          10175 	.byte	2,115
000026d9 02            10176 	.byte	2
                       10177 
000026da 00            10178 	.byte	0
                       10179 
000026db 00            10180 	.byte	0
                       10181 
                       10182 .LDW_4cb6198:
000026dc 14            10183 	.byte	20
000026dd 444941475f5f  10184 	.strz	"DIAG__ReqCallback_WriteABSTicksValue"
000026e3 52657143616c 
000026e9 6c6261636b5f 
000026ef 577269746541 
000026f5 42535469636b 
000026fb 7356616c7565 
00002701 00 
00002702 bb06          10185 	.byte	187,6
00002704 0e            10186 	.byte	14
00002705 01            10187 	.byte	1
00002706 00000000*     10188 	.word	.LDW_4c438b8
0000270a 00000000*     10189 	.word	_DIAG__ReqCallback_WriteABSTicksValue..C.3A.5C_ECU2.5CECU_Rivian_A1.5CTarget.5Crepo_projects.5CpRealEcu.5CcR_LATEST.5Cmake.5Coutput.5Cobjects.5CSwcApplTpms_Diag.
0000270e 00000000*     10190 	.word	___ghs_eofn_DIAG__ReqCallback_WriteABSTicksValue
00002712 0153          10191 	.byte	1,83
00002714 828080c00b    10192 	.byte	130,128,128,192,11
00002719 10            10193 	.byte	16
0000271a 03            10194 	.byte	3
0000271b 14            10195 	.byte	20
0000271c 00            10196 	.byte	0
0000271d 00            10197 	.byte	0
0000271e 00            10198 	.byte	0
0000271f 00            10199 	.byte	0
00002720 01            10200 	.byte	1
00002721 00            10201 	.byte	0
00002722 01            10202 	.byte	1
                       10203 
                       10204 	.section	.debug_frame
                       10205 .LDW_4c2a0a0:
0000043c 00000000*     10206 	.word	.LDW_unq_38-.LDW_unq_37
                       10207 .LDW_unq_37:
00000440 00000000*     10208 	.word	.LDW_4c4f988
00000444 00000000*     10209 	.word	_DIAG__ReqCallback_WriteABSTicksValue..C.3A.5C_ECU2.5CECU_Rivian_A1.5CTarget.5Crepo_projects.5CpRealEcu.5CcR_LATEST.5Cmake.5Coutput.5Cobjects.5CSwcApplTpms_Diag.
00000448 00000000*     10210 	.word	___ghs_eofn_DIAG__ReqCallback_WriteABSTicksValue-_DIAG__ReqCallback_WriteABSTicksValue..C.3A.5C_ECU2.5CECU_Rivian_A1.5CTarget.5Crepo_projects.5CpRealEcu.5CcR_LATEST.5Cmake.5Coutput.5Cobjects.5CSwcApplTpms_Diag.
0000044c 44            10211 	.byte	68
0000044d 9f            10212 	.byte	159
0000044e 03            10213 	.byte	3
0000044f 40            10214 	.byte	64
00000450 9d            10215 	.byte	157

                                                                      Page 187
                                                              C:\Users\nhuliyap\AppData\Local\Temp\gh_0000ds81.s
00000451 07            10216 	.byte	7
00000452 40            10217 	.byte	64
00000453 9c            10218 	.byte	156
00000454 0b            10219 	.byte	11
00000455 40            10220 	.byte	64
00000456 9b            10221 	.byte	155
00000457 0f            10222 	.byte	15
00000458 01            10223 	.byte	1
00000459 00000000*     10224 	.word	.LDW97
0000045d 00            10225 	.byte	0
0000045e 00            10226 	.byte	0
0000045f 00            10227 	.byte	0
                       10228 .LDW_unq_38:
                       10229 	.section	.debug_line
00000c93 000502        10230 	.byte	0,5,2
00000c96 00000000*     10231 	.word	_DIAG__ReqCallback_WriteABSTicksValue..C.3A.5C_ECU2.5CECU_Rivian_A1.5CTarget.5Crepo_projects.5CpRealEcu.5CcR_LATEST.5Cmake.5Coutput.5Cobjects.5CSwcApplTpms_Diag.
00000c9a 03            10232 	.byte	3
00000c9b bb06          10233 	.byte	187,6
00000c9d 02            10234 	.byte	2
00000c9e 00            10235 	.byte	0
00000c9f 01            10236 	.byte	1
00000ca0 06            10237 	.byte	6
00000ca1 000502        10238 	.byte	0,5,2
00000ca4 00000000*     10239 	.word	.LDWlin140
00000ca8 0d            10240 	.byte	13
00000ca9 13            10241 	.byte	19
00000caa 14            10242 	.byte	20
00000cab 03            10243 	.byte	3
00000cac 7b            10244 	.byte	123
00000cad 02            10245 	.byte	2
00000cae 04            10246 	.byte	4
00000caf 01            10247 	.byte	1
00000cb0 03            10248 	.byte	3
00000cb1 06            10249 	.byte	6
00000cb2 02            10250 	.byte	2
00000cb3 08            10251 	.byte	8
00000cb4 01            10252 	.byte	1
00000cb5 14            10253 	.byte	20
00000cb6 000502        10254 	.byte	0,5,2
00000cb9 00000000*     10255 	.word	.LDWlin141
00000cbd 0c            10256 	.byte	12
00000cbe 0b            10257 	.byte	11
00000cbf 000502        10258 	.byte	0,5,2
00000cc2 00000000*     10259 	.word	.LDWlin142
00000cc6 0b            10260 	.byte	11
00000cc7 000502        10261 	.byte	0,5,2
00000cca 00000000*     10262 	.word	.LDWlin143
00000cce 0c            10263 	.byte	12
00000ccf 0b            10264 	.byte	11
00000cd0 0b            10265 	.byte	11
00000cd1 0b            10266 	.byte	11
00000cd2 000502        10267 	.byte	0,5,2
00000cd5 00000000*     10268 	.word	.LDWlin144
00000cd9 0b            10269 	.byte	11
00000cda 02            10270 	.byte	2
00000cdb 00            10271 	.byte	0
00000cdc 0b            10272 	.byte	11
00000cdd 0b            10273 	.byte	11
00000cde 0b            10274 	.byte	11
00000cdf 1b            10275 	.byte	27
00000ce0 02            10276 	.byte	2

                                                                      Page 188
                                                              C:\Users\nhuliyap\AppData\Local\Temp\gh_0000ds81.s
00000ce1 00            10277 	.byte	0
00000ce2 0d            10278 	.byte	13
00000ce3 1b            10279 	.byte	27
00000ce4 1b            10280 	.byte	27
00000ce5 06            10281 	.byte	6
00000ce6 02            10282 	.byte	2
00000ce7 02            10283 	.byte	2
00000ce8 02            10284 	.byte	2
00000ce9 04            10285 	.byte	4
00000cea 000101        10286 	.byte	0,1,1
                       10287 	.section	.debug_info
                       10288 .LDW_4cb83b0:
00002723 0f            10289 	.byte	15
00002724 50535f4d7367  10290 	.strz	"PS_MsgContext"
0000272a 436f6e746578 
00002730 7400 
00002732 bb06          10291 	.byte	187,6
00002734 44            10292 	.byte	68
00002735 01            10293 	.byte	1
00002736 00000000*     10294 	.word	.LDW_48771f0
0000273a 00            10295 	.byte	0
0000273b 016b          10296 	.byte	1,107
                       10297 
                       10298 .LDW_4cc8918:
0000273d 1d            10299 	.byte	29
0000273e 00000000*     10300 	.word	.LDW87
00002742 00000000*     10301 	.word	.LDW97
                       10302 
                       10303 .LDW_4cb7f90:
00002746 04            10304 	.byte	4
00002747 55385f526574  10305 	.strz	"U8_RetVal"
0000274d 56616c00 
00002751 bd06          10306 	.byte	189,6
00002753 09            10307 	.byte	9
00002754 01            10308 	.byte	1
00002755 00000000*     10309 	.word	.LDW_4c438b8
00002759 00            10310 	.byte	0
0000275a 00            10311 	.byte	0
0000275b 016c          10312 	.byte	1,108
                       10313 
                       10314 .LDW_4cb7b70:
0000275d 04            10315 	.byte	4
0000275e 4c6f63616c41  10316 	.strz	"LocalABSTicksInOneRev"
00002764 42535469636b 
0000276a 73496e4f6e65 
00002770 52657600 
00002774 be06          10317 	.byte	190,6
00002776 1d            10318 	.byte	29
00002777 01            10319 	.byte	1
00002778 00000000*     10320 	.word	.LDW_4cb81a0
0000277c 00            10321 	.byte	0
0000277d 00            10322 	.byte	0
0000277e 0273          10323 	.byte	2,115
00002780 00            10324 	.byte	0
                       10325 
                       10326 .LDW_4cb7960:
00002781 04            10327 	.byte	4
00002782 506172616d61  10328 	.strz	"ParamaterABSTicksInOneRev"
00002788 746572414253 
0000278e 5469636b7349 
00002794 6e4f6e655265 

                                                                      Page 189
                                                              C:\Users\nhuliyap\AppData\Local\Temp\gh_0000ds81.s
0000279a 7600 
0000279c be06          10329 	.byte	190,6
0000279e 34            10330 	.byte	52
0000279f 01            10331 	.byte	1
000027a0 00000000*     10332 	.word	.LDW_4cb81a0
000027a4 00            10333 	.byte	0
000027a5 00            10334 	.byte	0
000027a6 0273          10335 	.byte	2,115
000027a8 02            10336 	.byte	2
                       10337 
000027a9 00            10338 	.byte	0
                       10339 
000027aa 00            10340 	.byte	0
                       10341 
                       10342 .LDW_4cb6d78:
000027ab 14            10343 	.byte	20
000027ac 444941475f5f  10344 	.strz	"DIAG__ReqCallback_ReadRSSINoiseLevel"
000027b2 52657143616c 
000027b8 6c6261636b5f 
000027be 526561645253 
000027c4 53494e6f6973 
000027ca 654c6576656c 
000027d0 00 
000027d1 eb06          10345 	.byte	235,6
000027d3 0e            10346 	.byte	14
000027d4 01            10347 	.byte	1
000027d5 00000000*     10348 	.word	.LDW_4c438b8
000027d9 00000000*     10349 	.word	_DIAG__ReqCallback_ReadRSSINoiseLevel..C.3A.5C_ECU2.5CECU_Rivian_A1.5CTarget.5Crepo_projects.5CpRealEcu.5CcR_LATEST.5Cmake.5Coutput.5Cobjects.5CSwcApplTpms_Diag.
000027dd 00000000*     10350 	.word	___ghs_eofn_DIAG__ReqCallback_ReadRSSINoiseLevel
000027e1 0153          10351 	.byte	1,83
000027e3 828080c00b    10352 	.byte	130,128,128,192,11
000027e8 10            10353 	.byte	16
000027e9 03            10354 	.byte	3
000027ea 10            10355 	.byte	16
000027eb 00            10356 	.byte	0
000027ec 00            10357 	.byte	0
000027ed 00            10358 	.byte	0
000027ee 00            10359 	.byte	0
000027ef 01            10360 	.byte	1
000027f0 00            10361 	.byte	0
000027f1 01            10362 	.byte	1
                       10363 
                       10364 	.section	.debug_frame
                       10365 .LDW_4c2a160:
00000460 00000000*     10366 	.word	.LDW_unq_3a-.LDW_unq_39
                       10367 .LDW_unq_39:
00000464 00000000*     10368 	.word	.LDW_4c4f988
00000468 00000000*     10369 	.word	_DIAG__ReqCallback_ReadRSSINoiseLevel..C.3A.5C_ECU2.5CECU_Rivian_A1.5CTarget.5Crepo_projects.5CpRealEcu.5CcR_LATEST.5Cmake.5Coutput.5Cobjects.5CSwcApplTpms_Diag.
0000046c 00000000*     10370 	.word	___ghs_eofn_DIAG__ReqCallback_ReadRSSINoiseLevel-_DIAG__ReqCallback_ReadRSSINoiseLevel..C.3A.5C_ECU2.5CECU_Rivian_A1.5CTarget.5Crepo_projects.5CpRealEcu.5CcR_LATEST.5Cmake.5Coutput.5Cobjects.5CSwcApplTpms_Diag.
00000470 44            10371 	.byte	68
00000471 9f            10372 	.byte	159
00000472 00            10373 	.byte	0
00000473 40            10374 	.byte	64
00000474 9d            10375 	.byte	157
00000475 04            10376 	.byte	4
00000476 40            10377 	.byte	64
00000477 9c            10378 	.byte	156
00000478 08            10379 	.byte	8
00000479 40            10380 	.byte	64
0000047a 9b            10381 	.byte	155
0000047b 0c            10382 	.byte	12

                                                                      Page 190
                                                              C:\Users\nhuliyap\AppData\Local\Temp\gh_0000ds81.s
0000047c 01            10383 	.byte	1
0000047d 00000000*     10384 	.word	.LDW18
00000481 44            10385 	.byte	68
00000482 df            10386 	.byte	223
00000483 40            10387 	.byte	64
00000484 dd            10388 	.byte	221
00000485 40            10389 	.byte	64
00000486 dc            10390 	.byte	220
00000487 40            10391 	.byte	64
00000488 db            10392 	.byte	219
00000489 00            10393 	.byte	0
0000048a 00            10394 	.byte	0
0000048b 00            10395 	.byte	0
                       10396 .LDW_unq_3a:
                       10397 	.section	.debug_line
00000ced 000502        10398 	.byte	0,5,2
00000cf0 00000000*     10399 	.word	_DIAG__ReqCallback_ReadRSSINoiseLevel..C.3A.5C_ECU2.5CECU_Rivian_A1.5CTarget.5Crepo_projects.5CpRealEcu.5CcR_LATEST.5Cmake.5Coutput.5Cobjects.5CSwcApplTpms_Diag.
00000cf4 03            10400 	.byte	3
00000cf5 eb06          10401 	.byte	235,6
00000cf7 02            10402 	.byte	2
00000cf8 00            10403 	.byte	0
00000cf9 01            10404 	.byte	1
00000cfa 06            10405 	.byte	6
00000cfb 000502        10406 	.byte	0,5,2
00000cfe 00000000*     10407 	.word	.LDWlin145
00000d02 03            10408 	.byte	3
00000d03 05            10409 	.byte	5
00000d04 02            10410 	.byte	2
00000d05 00            10411 	.byte	0
00000d06 01            10412 	.byte	1
00000d07 000502        10413 	.byte	0,5,2
00000d0a 00000000*     10414 	.word	.LDWlin146
00000d0e 0b            10415 	.byte	11
00000d0f 1b            10416 	.byte	27
00000d10 2d            10417 	.byte	45
00000d11 03            10418 	.byte	3
00000d12 7e            10419 	.byte	126
00000d13 02            10420 	.byte	2
00000d14 06            10421 	.byte	6
00000d15 01            10422 	.byte	1
00000d16 2d            10423 	.byte	45
00000d17 1b            10424 	.byte	27
00000d18 06            10425 	.byte	6
00000d19 02            10426 	.byte	2
00000d1a 02            10427 	.byte	2
00000d1b 02            10428 	.byte	2
00000d1c 04            10429 	.byte	4
00000d1d 000101        10430 	.byte	0,1,1
                       10431 	.section	.debug_info
                       10432 .LDW_4cb8250:
000027f2 0f            10433 	.byte	15
000027f3 50535f4d7367  10434 	.strz	"PS_MsgContext"
000027f9 436f6e746578 
000027ff 7400 
00002801 eb06          10435 	.byte	235,6
00002803 44            10436 	.byte	68
00002804 01            10437 	.byte	1
00002805 00000000*     10438 	.word	.LDW_48771f0
00002809 00            10439 	.byte	0
0000280a 016b          10440 	.byte	1,107
                       10441 

                                                                      Page 191
                                                              C:\Users\nhuliyap\AppData\Local\Temp\gh_0000ds81.s
                       10442 .LDW_4cc89a8:
0000280c 1d            10443 	.byte	29
0000280d 00000000*     10444 	.word	.LDW08
00002811 00000000*     10445 	.word	.LDW18
                       10446 
                       10447 .LDW_4cb7dd8:
00002815 05            10448 	.byte	5
00002816 55385f526574  10449 	.strz	"U8_RetVal"
0000281c 56616c00 
00002820 ed06          10450 	.byte	237,6
00002822 09            10451 	.byte	9
00002823 01            10452 	.byte	1
00002824 00000000*     10453 	.word	.LDW_4c438b8
00002828 00            10454 	.byte	0
00002829 00            10455 	.byte	0
                       10456 
                       10457 .LDW_4cb7bc8:
0000282a 05            10458 	.byte	5
0000282b 55385f4c6f63  10459 	.strz	"U8_LocalNoiseLevel"
00002831 616c4e6f6973 
00002837 654c6576656c 
0000283d 00 
0000283e ee06          10460 	.byte	238,6
00002840 09            10461 	.byte	9
00002841 01            10462 	.byte	1
00002842 00000000*     10463 	.word	.LDW_4c438b8
00002846 00            10464 	.byte	0
00002847 00            10465 	.byte	0
                       10466 
00002848 00            10467 	.byte	0
                       10468 
00002849 00            10469 	.byte	0
                       10470 
                       10471 .LDW_4cb6360:
0000284a 14            10472 	.byte	20
0000284b 444941475f5f  10473 	.strz	"DIAG__ReqCallback_WriteRSSINoiseLevel"
00002851 52657143616c 
00002857 6c6261636b5f 
0000285d 577269746552 
00002863 5353494e6f69 
00002869 73654c657665 
0000286f 6c00 
00002871 8b07          10474 	.byte	139,7
00002873 0e            10475 	.byte	14
00002874 01            10476 	.byte	1
00002875 00000000*     10477 	.word	.LDW_4c438b8
00002879 00000000*     10478 	.word	_DIAG__ReqCallback_WriteRSSINoiseLevel..C.3A.5C_ECU2.5CECU_Rivian_A1.5CTarget.5Crepo_projects.5CpRealEcu.5CcR_LATEST.5Cmake.5Coutput.5Cobjects.5CSwcApplTpms_Diag.
0000287d 00000000*     10479 	.word	___ghs_eofn_DIAG__ReqCallback_WriteRSSINoiseLevel
00002881 0153          10480 	.byte	1,83
00002883 828080e00b    10481 	.byte	130,128,128,224,11
00002888 14            10482 	.byte	20
00002889 03            10483 	.byte	3
0000288a 14            10484 	.byte	20
0000288b 00            10485 	.byte	0
0000288c 00            10486 	.byte	0
0000288d 00            10487 	.byte	0
0000288e 00            10488 	.byte	0
0000288f 01            10489 	.byte	1
00002890 00            10490 	.byte	0
00002891 01            10491 	.byte	1
                       10492 

                                                                      Page 192
                                                              C:\Users\nhuliyap\AppData\Local\Temp\gh_0000ds81.s
                       10493 	.section	.debug_frame
                       10494 .LDW_4c2a2e0:
0000048c 00000000*     10495 	.word	.LDW_unq_3c-.LDW_unq_3b
                       10496 .LDW_unq_3b:
00000490 00000000*     10497 	.word	.LDW_4c4f988
00000494 00000000*     10498 	.word	_DIAG__ReqCallback_WriteRSSINoiseLevel..C.3A.5C_ECU2.5CECU_Rivian_A1.5CTarget.5Crepo_projects.5CpRealEcu.5CcR_LATEST.5Cmake.5Coutput.5Cobjects.5CSwcApplTpms_Diag.
00000498 00000000*     10499 	.word	___ghs_eofn_DIAG__ReqCallback_WriteRSSINoiseLevel-_DIAG__ReqCallback_WriteRSSINoiseLevel..C.3A.5C_ECU2.5CECU_Rivian_A1.5CTarget.5Crepo_projects.5CpRealEcu.5CcR_LATEST.5Cmake.5Coutput.5Cobjects.5CSwcApplTpms_Diag.
0000049c 44            10500 	.byte	68
0000049d 9f            10501 	.byte	159
0000049e 00            10502 	.byte	0
0000049f 40            10503 	.byte	64
000004a0 9d            10504 	.byte	157
000004a1 04            10505 	.byte	4
000004a2 40            10506 	.byte	64
000004a3 9c            10507 	.byte	156
000004a4 08            10508 	.byte	8
000004a5 40            10509 	.byte	64
000004a6 9b            10510 	.byte	155
000004a7 0c            10511 	.byte	12
000004a8 40            10512 	.byte	64
000004a9 9a            10513 	.byte	154
000004aa 10            10514 	.byte	16
000004ab 01            10515 	.byte	1
000004ac 00000000*     10516 	.word	.LDW38
                       10517 .LDW_unq_3c:
                       10518 	.section	.debug_line
00000d20 000502        10519 	.byte	0,5,2
00000d23 00000000*     10520 	.word	_DIAG__ReqCallback_WriteRSSINoiseLevel..C.3A.5C_ECU2.5CECU_Rivian_A1.5CTarget.5Crepo_projects.5CpRealEcu.5CcR_LATEST.5Cmake.5Coutput.5Cobjects.5CSwcApplTpms_Diag.
00000d27 03            10521 	.byte	3
00000d28 8b07          10522 	.byte	139,7
00000d2a 02            10523 	.byte	2
00000d2b 00            10524 	.byte	0
00000d2c 01            10525 	.byte	1
00000d2d 06            10526 	.byte	6
00000d2e 000502        10527 	.byte	0,5,2
00000d31 00000000*     10528 	.word	.LDWlin147
00000d35 0d            10529 	.byte	13
00000d36 03            10530 	.byte	3
00000d37 7e            10531 	.byte	126
00000d38 02            10532 	.byte	2
00000d39 04            10533 	.byte	4
00000d3a 01            10534 	.byte	1
00000d3b 000502        10535 	.byte	0,5,2
00000d3e 00000000*     10536 	.word	.LDWlin148
00000d42 0d            10537 	.byte	13
00000d43 0c            10538 	.byte	12
00000d44 000502        10539 	.byte	0,5,2
00000d47 00000000*     10540 	.word	.LDWlin149
00000d4b 0b            10541 	.byte	11
00000d4c 1c            10542 	.byte	28
00000d4d 03            10543 	.byte	3
00000d4e 7f            10544 	.byte	127
00000d4f 02            10545 	.byte	2
00000d50 0a            10546 	.byte	10
00000d51 01            10547 	.byte	1
00000d52 000502        10548 	.byte	0,5,2
00000d55 00000000*     10549 	.word	.LDWlin150
00000d59 0c            10550 	.byte	12
00000d5a 0b            10551 	.byte	11
00000d5b 0b            10552 	.byte	11
00000d5c 1b            10553 	.byte	27

                                                                      Page 193
                                                              C:\Users\nhuliyap\AppData\Local\Temp\gh_0000ds81.s
00000d5d 02            10554 	.byte	2
00000d5e 00            10555 	.byte	0
00000d5f 0c            10556 	.byte	12
00000d60 1b            10557 	.byte	27
00000d61 1c            10558 	.byte	28
00000d62 06            10559 	.byte	6
00000d63 02            10560 	.byte	2
00000d64 02            10561 	.byte	2
00000d65 02            10562 	.byte	2
00000d66 04            10563 	.byte	4
00000d67 000101        10564 	.byte	0,1,1
                       10565 	.section	.debug_info
                       10566 .LDW_4cb7d28:
00002892 0f            10567 	.byte	15
00002893 50535f4d7367  10568 	.strz	"PS_MsgContext"
00002899 436f6e746578 
0000289f 7400 
000028a1 8b07          10569 	.byte	139,7
000028a3 45            10570 	.byte	69
000028a4 01            10571 	.byte	1
000028a5 00000000*     10572 	.word	.LDW_48771f0
000028a9 00            10573 	.byte	0
000028aa 016b          10574 	.byte	1,107
                       10575 
                       10576 .LDW_4cc8df8:
000028ac 1d            10577 	.byte	29
000028ad 00000000*     10578 	.word	.LDW28
000028b1 00000000*     10579 	.word	.LDW38
                       10580 
                       10581 .LDW_4cb7cd0:
000028b5 04            10582 	.byte	4
000028b6 55385f526574  10583 	.strz	"U8_RetVal"
000028bc 56616c00 
000028c0 8d07          10584 	.byte	141,7
000028c2 09            10585 	.byte	9
000028c3 01            10586 	.byte	1
000028c4 00000000*     10587 	.word	.LDW_4c438b8
000028c8 00            10588 	.byte	0
000028c9 00            10589 	.byte	0
000028ca 016a          10590 	.byte	1,106
                       10591 
000028cc 00            10592 	.byte	0
                       10593 
000028cd 00            10594 	.byte	0
                       10595 
                       10596 .LDW_4cb69e8:
000028ce 14            10597 	.byte	20
000028cf 444941475f5f  10598 	.strz	"DIAG__ReqCallback_ReadTemperatureWarningThreshold"
000028d5 52657143616c 
000028db 6c6261636b5f 
000028e1 526561645465 
000028e7 6d7065726174 
000028ed 757265576172 
000028f3 6e696e675468 
000028f9 726573686f6c 
000028ff 6400 
00002901 a107          10599 	.byte	161,7
00002903 0e            10600 	.byte	14
00002904 01            10601 	.byte	1
00002905 00000000*     10602 	.word	.LDW_4c438b8
00002909 00000000*     10603 	.word	_DIAG__ReqCallback_ReadTemperatureWarningThreshold..C.3A.5C_ECU2.5CECU_Rivian_A1.5CTarget.5Crepo_projects.5CpRealEcu.5CcR_LATEST.5Cmake.5Coutput.5Cobjects.5CSwcApplTpms_Diag.

                                                                      Page 194
                                                              C:\Users\nhuliyap\AppData\Local\Temp\gh_0000ds81.s
0000290d 00000000*     10604 	.word	___ghs_eofn_DIAG__ReqCallback_ReadTemperatureWarningThreshold
00002911 0153          10605 	.byte	1,83
00002913 828080800b    10606 	.byte	130,128,128,128,11
00002918 0c            10607 	.byte	12
00002919 03            10608 	.byte	3
0000291a 0c            10609 	.byte	12
0000291b 00            10610 	.byte	0
0000291c 00            10611 	.byte	0
0000291d 00            10612 	.byte	0
0000291e 00            10613 	.byte	0
0000291f 01            10614 	.byte	1
00002920 00            10615 	.byte	0
00002921 01            10616 	.byte	1
                       10617 
                       10618 	.section	.debug_frame
                       10619 .LDW_4c2a060:
000004b0 00000000*     10620 	.word	.LDW_unq_3e-.LDW_unq_3d
                       10621 .LDW_unq_3d:
000004b4 00000000*     10622 	.word	.LDW_4c4f988
000004b8 00000000*     10623 	.word	_DIAG__ReqCallback_ReadTemperatureWarningThreshold..C.3A.5C_ECU2.5CECU_Rivian_A1.5CTarget.5Crepo_projects.5CpRealEcu.5CcR_LATEST.5Cmake.5Coutput.5Cobjects.5CSwcApplTpms_Diag.
000004bc 00000000*     10624 	.word	___ghs_eofn_DIAG__ReqCallback_ReadTemperatureWarningThreshold-_DIAG__ReqCallback_ReadTemperatureWarningThreshold..C.3A.5C_ECU2.5CECU_Rivian_A1.5CTarget.5Crepo_projects.5CpRealEcu.5CcR_LATEST.5Cmake.5Coutput.5Cobjects.5CSwcApplTpms_Diag.
000004c0 44            10625 	.byte	68
000004c1 9f            10626 	.byte	159
000004c2 00            10627 	.byte	0
000004c3 40            10628 	.byte	64
000004c4 9d            10629 	.byte	157
000004c5 04            10630 	.byte	4
000004c6 40            10631 	.byte	64
000004c7 9c            10632 	.byte	156
000004c8 08            10633 	.byte	8
000004c9 01            10634 	.byte	1
000004ca 00000000*     10635 	.word	.LDW58
000004ce 44            10636 	.byte	68
000004cf df            10637 	.byte	223
000004d0 40            10638 	.byte	64
000004d1 dd            10639 	.byte	221
000004d2 40            10640 	.byte	64
000004d3 dc            10641 	.byte	220
                       10642 .LDW_unq_3e:
                       10643 	.section	.debug_line
00000d6a 000502        10644 	.byte	0,5,2
00000d6d 00000000*     10645 	.word	_DIAG__ReqCallback_ReadTemperatureWarningThreshold..C.3A.5C_ECU2.5CECU_Rivian_A1.5CTarget.5Crepo_projects.5CpRealEcu.5CcR_LATEST.5Cmake.5Coutput.5Cobjects.5CSwcApplTpms_Diag.
00000d71 03            10646 	.byte	3
00000d72 a107          10647 	.byte	161,7
00000d74 02            10648 	.byte	2
00000d75 00            10649 	.byte	0
00000d76 01            10650 	.byte	1
00000d77 06            10651 	.byte	6
00000d78 000502        10652 	.byte	0,5,2
00000d7b 00000000*     10653 	.word	.LDWlin151
00000d7f 0d            10654 	.byte	13
00000d80 000502        10655 	.byte	0,5,2
00000d83 00000000*     10656 	.word	.LDWlin152
00000d87 03            10657 	.byte	3
00000d88 04            10658 	.byte	4
00000d89 02            10659 	.byte	2
00000d8a 00            10660 	.byte	0
00000d8b 01            10661 	.byte	1
00000d8c 03            10662 	.byte	3
00000d8d 7e            10663 	.byte	126
00000d8e 02            10664 	.byte	2

                                                                      Page 195
                                                              C:\Users\nhuliyap\AppData\Local\Temp\gh_0000ds81.s
00000d8f 04            10665 	.byte	4
00000d90 01            10666 	.byte	1
00000d91 2d            10667 	.byte	45
00000d92 1c            10668 	.byte	28
00000d93 06            10669 	.byte	6
00000d94 02            10670 	.byte	2
00000d95 02            10671 	.byte	2
00000d96 02            10672 	.byte	2
00000d97 04            10673 	.byte	4
00000d98 000101        10674 	.byte	0,1,1
                       10675 	.section	.debug_info
                       10676 .LDW_4cb8040:
00002922 0f            10677 	.byte	15
00002923 50535f4d7367  10678 	.strz	"PS_MsgContext"
00002929 436f6e746578 
0000292f 7400 
00002931 a107          10679 	.byte	161,7
00002933 51            10680 	.byte	81
00002934 01            10681 	.byte	1
00002935 00000000*     10682 	.word	.LDW_48771f0
00002939 00            10683 	.byte	0
0000293a 016c          10684 	.byte	1,108
                       10685 
                       10686 .LDW_4cc8b88:
0000293c 1d            10687 	.byte	29
0000293d 00000000*     10688 	.word	.LDW48
00002941 00000000*     10689 	.word	.LDW58
                       10690 
                       10691 .LDW_4cb8358:
00002945 05            10692 	.byte	5
00002946 55385f526574  10693 	.strz	"U8_RetVal"
0000294c 56616c00 
00002950 a307          10694 	.byte	163,7
00002952 09            10695 	.byte	9
00002953 01            10696 	.byte	1
00002954 00000000*     10697 	.word	.LDW_4c438b8
00002958 00            10698 	.byte	0
00002959 00            10699 	.byte	0
                       10700 
0000295a 00            10701 	.byte	0
                       10702 
0000295b 00            10703 	.byte	0
                       10704 
                       10705 .LDW_4cb6ce0:
0000295c 14            10706 	.byte	20
0000295d 444941475f5f  10707 	.strz	"DIAG__ReqCallback_WriteTemperatureWarningThreshold"
00002963 52657143616c 
00002969 6c6261636b5f 
0000296f 577269746554 
00002975 656d70657261 
0000297b 747572655761 
00002981 726e696e6754 
00002987 68726573686f 
0000298d 6c6400 
00002990 af07          10708 	.byte	175,7
00002992 0e            10709 	.byte	14
00002993 01            10710 	.byte	1
00002994 00000000*     10711 	.word	.LDW_4c438b8
00002998 00000000*     10712 	.word	_DIAG__ReqCallback_WriteTemperatureWarningThreshold..C.3A.5C_ECU2.5CECU_Rivian_A1.5CTarget.5Crepo_projects.5CpRealEcu.5CcR_LATEST.5Cmake.5Coutput.5Cobjects.5CSwcApplTpms_Diag.
0000299c 00000000*     10713 	.word	___ghs_eofn_DIAG__ReqCallback_WriteTemperatureWarningThreshold
000029a0 0153          10714 	.byte	1,83

                                                                      Page 196
                                                              C:\Users\nhuliyap\AppData\Local\Temp\gh_0000ds81.s
000029a2 828080800a    10715 	.byte	130,128,128,128,10
000029a7 08            10716 	.byte	8
000029a8 03            10717 	.byte	3
000029a9 08            10718 	.byte	8
000029aa 00            10719 	.byte	0
000029ab 00            10720 	.byte	0
000029ac 00            10721 	.byte	0
000029ad 00            10722 	.byte	0
000029ae 01            10723 	.byte	1
000029af 00            10724 	.byte	0
000029b0 01            10725 	.byte	1
                       10726 
                       10727 	.section	.debug_frame
                       10728 .LDW_4c29e60:
000004d4 00000000*     10729 	.word	.LDW_unq_40-.LDW_unq_3f
                       10730 .LDW_unq_3f:
000004d8 00000000*     10731 	.word	.LDW_4c4f988
000004dc 00000000*     10732 	.word	_DIAG__ReqCallback_WriteTemperatureWarningThreshold..C.3A.5C_ECU2.5CECU_Rivian_A1.5CTarget.5Crepo_projects.5CpRealEcu.5CcR_LATEST.5Cmake.5Coutput.5Cobjects.5CSwcApplTpms_Diag.
000004e0 00000000*     10733 	.word	___ghs_eofn_DIAG__ReqCallback_WriteTemperatureWarningThreshold-_DIAG__ReqCallback_WriteTemperatureWarningThreshold..C.3A.5C_ECU2.5CECU_Rivian_A1.5CTarget.5Crepo_projects.5CpRealEcu.5CcR_LATEST.5Cmake.5Coutput.5Cobjects.5CSwcApplTpms_Diag.
000004e4 44            10734 	.byte	68
000004e5 9f            10735 	.byte	159
000004e6 00            10736 	.byte	0
000004e7 40            10737 	.byte	64
000004e8 9d            10738 	.byte	157
000004e9 04            10739 	.byte	4
000004ea 01            10740 	.byte	1
000004eb 00000000*     10741 	.word	.LDW78
000004ef 00            10742 	.byte	0
                       10743 .LDW_unq_40:
                       10744 	.section	.debug_line
00000d9b 000502        10745 	.byte	0,5,2
00000d9e 00000000*     10746 	.word	_DIAG__ReqCallback_WriteTemperatureWarningThreshold..C.3A.5C_ECU2.5CECU_Rivian_A1.5CTarget.5Crepo_projects.5CpRealEcu.5CcR_LATEST.5Cmake.5Coutput.5Cobjects.5CSwcApplTpms_Diag.
00000da2 03            10747 	.byte	3
00000da3 af07          10748 	.byte	175,7
00000da5 02            10749 	.byte	2
00000da6 00            10750 	.byte	0
00000da7 01            10751 	.byte	1
00000da8 06            10752 	.byte	6
00000da9 24            10753 	.byte	36
00000daa 34            10754 	.byte	52
00000dab 000502        10755 	.byte	0,5,2
00000dae 00000000*     10756 	.word	.LDWlin153
00000db2 0b            10757 	.byte	11
00000db3 0b            10758 	.byte	11
00000db4 000502        10759 	.byte	0,5,2
00000db7 00000000*     10760 	.word	.LDWlin154
00000dbb 0b            10761 	.byte	11
00000dbc 0b            10762 	.byte	11
00000dbd 0b            10763 	.byte	11
00000dbe 1b            10764 	.byte	27
00000dbf 02            10765 	.byte	2
00000dc0 00            10766 	.byte	0
00000dc1 0c            10767 	.byte	12
00000dc2 06            10768 	.byte	6
00000dc3 02            10769 	.byte	2
00000dc4 02            10770 	.byte	2
00000dc5 02            10771 	.byte	2
00000dc6 04            10772 	.byte	4
00000dc7 000101        10773 	.byte	0,1,1
                       10774 	.section	.debug_info
                       10775 .LDW_4cb7e88:

                                                                      Page 197
                                                              C:\Users\nhuliyap\AppData\Local\Temp\gh_0000ds81.s
000029b1 0f            10776 	.byte	15
000029b2 50535f4d7367  10777 	.strz	"PS_MsgContext"
000029b8 436f6e746578 
000029be 7400 
000029c0 af07          10778 	.byte	175,7
000029c2 52            10779 	.byte	82
000029c3 01            10780 	.byte	1
000029c4 00000000*     10781 	.word	.LDW_48771f0
000029c8 00            10782 	.byte	0
000029c9 016e          10783 	.byte	1,110
                       10784 
                       10785 .LDW_4cc8af8:
000029cb 1d            10786 	.byte	29
000029cc 00000000*     10787 	.word	.LDW68
000029d0 00000000*     10788 	.word	.LDW78
                       10789 
                       10790 .LDW_4cb80f0:
000029d4 04            10791 	.byte	4
000029d5 55385f526574  10792 	.strz	"U8_RetVal"
000029db 56616c00 
000029df b107          10793 	.byte	177,7
000029e1 09            10794 	.byte	9
000029e2 01            10795 	.byte	1
000029e3 00000000*     10796 	.word	.LDW_4c438b8
000029e7 00            10797 	.byte	0
000029e8 00            10798 	.byte	0
000029e9 016d          10799 	.byte	1,109
                       10800 
                       10801 .LDW_4cb7ee0:
000029eb 04            10802 	.byte	4
000029ec 53385f54656d  10803 	.strz	"S8_TemperatureWarningThres"
000029f2 706572617475 
000029f8 72655761726e 
000029fe 696e67546872 
00002a04 657300 
00002a07 b207          10804 	.byte	178,7
00002a09 09            10805 	.byte	9
00002a0a 01            10806 	.byte	1
00002a0b 00000000*     10807 	.word	.LDW_4cb7a10
00002a0f 00            10808 	.byte	0
00002a10 00            10809 	.byte	0
00002a11 0156          10810 	.byte	1,86
                       10811 
00002a13 00            10812 	.byte	0
                       10813 
00002a14 00            10814 	.byte	0
                       10815 
                       10816 .LDW_4cb6528:
00002a15 14            10817 	.byte	20
00002a16 444941475f5f  10818 	.strz	"DIAG__ReqCallback_StartEOL_TPMS_TestProcedure"
00002a1c 52657143616c 
00002a22 6c6261636b5f 
00002a28 537461727445 
00002a2e 4f4c5f54504d 
00002a34 535f54657374 
00002a3a 50726f636564 
00002a40 75726500 
00002a44 bf07          10819 	.byte	191,7
00002a46 0e            10820 	.byte	14
00002a47 01            10821 	.byte	1
00002a48 00000000*     10822 	.word	.LDW_4c438b8

                                                                      Page 198
                                                              C:\Users\nhuliyap\AppData\Local\Temp\gh_0000ds81.s
00002a4c 00000000*     10823 	.word	_DIAG__ReqCallback_StartEOL_TPMS_TestProcedure..C.3A.5C_ECU2.5CECU_Rivian_A1.5CTarget.5Crepo_projects.5CpRealEcu.5CcR_LATEST.5Cmake.5Coutput.5Cobjects.5CSwcApplTpms_Diag.
00002a50 00000000*     10824 	.word	___ghs_eofn_DIAG__ReqCallback_StartEOL_TPMS_TestProcedure
00002a54 0153          10825 	.byte	1,83
00002a56 828080e00b    10826 	.byte	130,128,128,224,11
00002a5b 18            10827 	.byte	24
00002a5c 03            10828 	.byte	3
00002a5d 1c            10829 	.byte	28
00002a5e 00            10830 	.byte	0
00002a5f 00            10831 	.byte	0
00002a60 00            10832 	.byte	0
00002a61 00            10833 	.byte	0
00002a62 01            10834 	.byte	1
00002a63 00            10835 	.byte	0
00002a64 01            10836 	.byte	1
                       10837 
                       10838 	.section	.debug_frame
                       10839 .LDW_4e23ad8:
000004f0 00000000*     10840 	.word	.LDW_unq_42-.LDW_unq_41
                       10841 .LDW_unq_41:
000004f4 00000000*     10842 	.word	.LDW_4c4f988
000004f8 00000000*     10843 	.word	_DIAG__ReqCallback_StartEOL_TPMS_TestProcedure..C.3A.5C_ECU2.5CECU_Rivian_A1.5CTarget.5Crepo_projects.5CpRealEcu.5CcR_LATEST.5Cmake.5Coutput.5Cobjects.5CSwcApplTpms_Diag.
000004fc 00000000*     10844 	.word	___ghs_eofn_DIAG__ReqCallback_StartEOL_TPMS_TestProcedure-_DIAG__ReqCallback_StartEOL_TPMS_TestProcedure..C.3A.5C_ECU2.5CECU_Rivian_A1.5CTarget.5Crepo_projects.5CpRealEcu.5CcR_LATEST.5Cmake.5Coutput.5Cobjects.5CSwcApplTpms_Diag.
00000500 44            10845 	.byte	68
00000501 9f            10846 	.byte	159
00000502 06            10847 	.byte	6
00000503 40            10848 	.byte	64
00000504 9d            10849 	.byte	157
00000505 0a            10850 	.byte	10
00000506 40            10851 	.byte	64
00000507 9c            10852 	.byte	156
00000508 0e            10853 	.byte	14
00000509 40            10854 	.byte	64
0000050a 9b            10855 	.byte	155
0000050b 12            10856 	.byte	18
0000050c 40            10857 	.byte	64
0000050d 9a            10858 	.byte	154
0000050e 16            10859 	.byte	22
0000050f 01            10860 	.byte	1
00000510 00000000*     10861 	.word	.LDW39
                       10862 .LDW_unq_42:
                       10863 	.section	.debug_line
00000dca 000502        10864 	.byte	0,5,2
00000dcd 00000000*     10865 	.word	_DIAG__ReqCallback_StartEOL_TPMS_TestProcedure..C.3A.5C_ECU2.5CECU_Rivian_A1.5CTarget.5Crepo_projects.5CpRealEcu.5CcR_LATEST.5Cmake.5Coutput.5Cobjects.5CSwcApplTpms_Diag.
00000dd1 03            10866 	.byte	3
00000dd2 bf07          10867 	.byte	191,7
00000dd4 02            10868 	.byte	2
00000dd5 00            10869 	.byte	0
00000dd6 01            10870 	.byte	1
00000dd7 06            10871 	.byte	6
00000dd8 000502        10872 	.byte	0,5,2
00000ddb 00000000*     10873 	.word	.LDWlin159
00000ddf 03            10874 	.byte	3
00000de0 08            10875 	.byte	8
00000de1 02            10876 	.byte	2
00000de2 00            10877 	.byte	0
00000de3 01            10878 	.byte	1
00000de4 03            10879 	.byte	3
00000de5 7a            10880 	.byte	122
00000de6 02            10881 	.byte	2
00000de7 04            10882 	.byte	4
00000de8 01            10883 	.byte	1

                                                                      Page 199
                                                              C:\Users\nhuliyap\AppData\Local\Temp\gh_0000ds81.s
00000de9 13            10884 	.byte	19
00000dea 14            10885 	.byte	20
00000deb 2b            10886 	.byte	43
00000dec 000502        10887 	.byte	0,5,2
00000def 00000000*     10888 	.word	.LDWlin160
00000df3 0d            10889 	.byte	13
00000df4 0c            10890 	.byte	12
00000df5 23            10891 	.byte	35
00000df6 000502        10892 	.byte	0,5,2
00000df9 00000000*     10893 	.word	.LDWlin161
00000dfd 0b            10894 	.byte	11
00000dfe 000502        10895 	.byte	0,5,2
00000e01 00000000*     10896 	.word	.LDWlin162
00000e05 0b            10897 	.byte	11
00000e06 0c            10898 	.byte	12
00000e07 000502        10899 	.byte	0,5,2
00000e0a 00000000*     10900 	.word	.LDWlin163
00000e0e 0b            10901 	.byte	11
00000e0f 0b            10902 	.byte	11
00000e10 0c            10903 	.byte	12
00000e11 000502        10904 	.byte	0,5,2
00000e14 00000000*     10905 	.word	.LDWlin164
00000e18 0b            10906 	.byte	11
00000e19 000502        10907 	.byte	0,5,2
00000e1c 00000000*     10908 	.word	.LDWlin165
00000e20 0b            10909 	.byte	11
00000e21 02            10910 	.byte	2
00000e22 00            10911 	.byte	0
00000e23 0b            10912 	.byte	11
00000e24 0b            10913 	.byte	11
00000e25 0c            10914 	.byte	12
00000e26 1b            10915 	.byte	27
00000e27 02            10916 	.byte	2
00000e28 00            10917 	.byte	0
00000e29 0c            10918 	.byte	12
00000e2a 1b            10919 	.byte	27
00000e2b 14            10920 	.byte	20
00000e2c 06            10921 	.byte	6
00000e2d 02            10922 	.byte	2
00000e2e 02            10923 	.byte	2
00000e2f 02            10924 	.byte	2
00000e30 04            10925 	.byte	4
00000e31 000101        10926 	.byte	0,1,1
                       10927 	.section	.debug_info
                       10928 .LDW_4cb7a68:
00002a65 0f            10929 	.byte	15
00002a66 50535f4d7367  10930 	.strz	"PS_MsgContext"
00002a6c 436f6e746578 
00002a72 7400 
00002a74 bf07          10931 	.byte	191,7
00002a76 4d            10932 	.byte	77
00002a77 01            10933 	.byte	1
00002a78 00000000*     10934 	.word	.LDW_48771f0
00002a7c 00            10935 	.byte	0
00002a7d 016c          10936 	.byte	1,108
                       10937 
                       10938 .LDW_4cc8dc8:
00002a7f 1d            10939 	.byte	29
00002a80 00000000*     10940 	.word	.LDW29
00002a84 00000000*     10941 	.word	.LDW39
                       10942 

                                                                      Page 200
                                                              C:\Users\nhuliyap\AppData\Local\Temp\gh_0000ds81.s
                       10943 .LDW_4cb7f38:
00002a88 04            10944 	.byte	4
00002a89 55385f526574  10945 	.strz	"U8_RetVal"
00002a8f 56616c00 
00002a93 c107          10946 	.byte	193,7
00002a95 09            10947 	.byte	9
00002a96 01            10948 	.byte	1
00002a97 00000000*     10949 	.word	.LDW_4c438b8
00002a9b 00            10950 	.byte	0
00002a9c 00            10951 	.byte	0
00002a9d 016b          10952 	.byte	1,107
                       10953 
                       10954 .LDW_4cb7fe8:
00002a9f 04            10955 	.byte	4
00002aa0 55385f546d70  10956 	.strz	"U8_TmpReq"
00002aa6 52657100 
00002aaa c207          10957 	.byte	194,7
00002aac 09            10958 	.byte	9
00002aad 01            10959 	.byte	1
00002aae 00000000*     10960 	.word	.LDW_4c438b8
00002ab2 00            10961 	.byte	0
00002ab3 00            10962 	.byte	0
00002ab4 0273          10963 	.byte	2,115
00002ab6 02            10964 	.byte	2
                       10965 
                       10966 .LDW_4cb8148:
00002ab7 04            10967 	.byte	4
00002ab8 55385f546d70  10968 	.strz	"U8_TmpRes"
00002abe 52657300 
00002ac2 c307          10969 	.byte	195,7
00002ac4 09            10970 	.byte	9
00002ac5 01            10971 	.byte	1
00002ac6 00000000*     10972 	.word	.LDW_4c438b8
00002aca 00            10973 	.byte	0
00002acb 00            10974 	.byte	0
00002acc 0273          10975 	.byte	2,115
00002ace 03            10976 	.byte	3
                       10977 
00002acf 00            10978 	.byte	0
                       10979 
00002ad0 00            10980 	.byte	0
                       10981 
                       10982 .LDW_4cb6788:
00002ad1 14            10983 	.byte	20
00002ad2 444941475f5f  10984 	.strz	"DIAG__ReqCallback_StopEOL_TPMS_TestProcedure"
00002ad8 52657143616c 
00002ade 6c6261636b5f 
00002ae4 53746f70454f 
00002aea 4c5f54504d53 
00002af0 5f5465737450 
00002af6 726f63656475 
00002afc 726500 
00002aff e307          10985 	.byte	227,7
00002b01 0e            10986 	.byte	14
00002b02 01            10987 	.byte	1
00002b03 00000000*     10988 	.word	.LDW_4c438b8
00002b07 00000000*     10989 	.word	_DIAG__ReqCallback_StopEOL_TPMS_TestProcedure..C.3A.5C_ECU2.5CECU_Rivian_A1.5CTarget.5Crepo_projects.5CpRealEcu.5CcR_LATEST.5Cmake.5Coutput.5Cobjects.5CSwcApplTpms_Diag.
00002b0b 00000000*     10990 	.word	___ghs_eofn_DIAG__ReqCallback_StopEOL_TPMS_TestProcedure
00002b0f 0153          10991 	.byte	1,83
00002b11 828080e00b    10992 	.byte	130,128,128,224,11
00002b16 14            10993 	.byte	20

                                                                      Page 201
                                                              C:\Users\nhuliyap\AppData\Local\Temp\gh_0000ds81.s
00002b17 03            10994 	.byte	3
00002b18 14            10995 	.byte	20
00002b19 00            10996 	.byte	0
00002b1a 00            10997 	.byte	0
00002b1b 00            10998 	.byte	0
00002b1c 00            10999 	.byte	0
00002b1d 01            11000 	.byte	1
00002b1e 00            11001 	.byte	0
00002b1f 01            11002 	.byte	1
                       11003 
                       11004 	.section	.debug_frame
                       11005 .LDW_4e23998:
00000514 00000000*     11006 	.word	.LDW_unq_44-.LDW_unq_43
                       11007 .LDW_unq_43:
00000518 00000000*     11008 	.word	.LDW_4c4f988
0000051c 00000000*     11009 	.word	_DIAG__ReqCallback_StopEOL_TPMS_TestProcedure..C.3A.5C_ECU2.5CECU_Rivian_A1.5CTarget.5Crepo_projects.5CpRealEcu.5CcR_LATEST.5Cmake.5Coutput.5Cobjects.5CSwcApplTpms_Diag.
00000520 00000000*     11010 	.word	___ghs_eofn_DIAG__ReqCallback_StopEOL_TPMS_TestProcedure-_DIAG__ReqCallback_StopEOL_TPMS_TestProcedure..C.3A.5C_ECU2.5CECU_Rivian_A1.5CTarget.5Crepo_projects.5CpRealEcu.5CcR_LATEST.5Cmake.5Coutput.5Cobjects.5CSwcApplTpms_Diag.
00000524 44            11011 	.byte	68
00000525 9f            11012 	.byte	159
00000526 00            11013 	.byte	0
00000527 40            11014 	.byte	64
00000528 9d            11015 	.byte	157
00000529 04            11016 	.byte	4
0000052a 40            11017 	.byte	64
0000052b 9c            11018 	.byte	156
0000052c 08            11019 	.byte	8
0000052d 40            11020 	.byte	64
0000052e 9b            11021 	.byte	155
0000052f 0c            11022 	.byte	12
00000530 40            11023 	.byte	64
00000531 9a            11024 	.byte	154
00000532 10            11025 	.byte	16
00000533 01            11026 	.byte	1
00000534 00000000*     11027 	.word	.LDW59
                       11028 .LDW_unq_44:
                       11029 	.section	.debug_line
00000e34 000502        11030 	.byte	0,5,2
00000e37 00000000*     11031 	.word	_DIAG__ReqCallback_StopEOL_TPMS_TestProcedure..C.3A.5C_ECU2.5CECU_Rivian_A1.5CTarget.5Crepo_projects.5CpRealEcu.5CcR_LATEST.5Cmake.5Coutput.5Cobjects.5CSwcApplTpms_Diag.
00000e3b 03            11032 	.byte	3
00000e3c e307          11033 	.byte	227,7
00000e3e 02            11034 	.byte	2
00000e3f 00            11035 	.byte	0
00000e40 01            11036 	.byte	1
00000e41 06            11037 	.byte	6
00000e42 000502        11038 	.byte	0,5,2
00000e45 00000000*     11039 	.word	.LDWlin166
00000e49 03            11040 	.byte	3
00000e4a 06            11041 	.byte	6
00000e4b 02            11042 	.byte	2
00000e4c 00            11043 	.byte	0
00000e4d 01            11044 	.byte	1
00000e4e 03            11045 	.byte	3
00000e4f 7d            11046 	.byte	125
00000e50 02            11047 	.byte	2
00000e51 04            11048 	.byte	4
00000e52 01            11049 	.byte	1
00000e53 33            11050 	.byte	51
00000e54 000502        11051 	.byte	0,5,2
00000e57 00000000*     11052 	.word	.LDWlin167
00000e5b 0d            11053 	.byte	13
00000e5c 0c            11054 	.byte	12

                                                                      Page 202
                                                              C:\Users\nhuliyap\AppData\Local\Temp\gh_0000ds81.s
00000e5d 000502        11055 	.byte	0,5,2
00000e60 00000000*     11056 	.word	.LDWlin168
00000e64 0b            11057 	.byte	11
00000e65 0c            11058 	.byte	12
00000e66 000502        11059 	.byte	0,5,2
00000e69 00000000*     11060 	.word	.LDWlin169
00000e6d 0b            11061 	.byte	11
00000e6e 000502        11062 	.byte	0,5,2
00000e71 00000000*     11063 	.word	.LDWlin170
00000e75 0c            11064 	.byte	12
00000e76 0b            11065 	.byte	11
00000e77 0c            11066 	.byte	12
00000e78 000502        11067 	.byte	0,5,2
00000e7b 00000000*     11068 	.word	.LDWlin171
00000e7f 0b            11069 	.byte	11
00000e80 02            11070 	.byte	2
00000e81 00            11071 	.byte	0
00000e82 0b            11072 	.byte	11
00000e83 0b            11073 	.byte	11
00000e84 0c            11074 	.byte	12
00000e85 1b            11075 	.byte	27
00000e86 02            11076 	.byte	2
00000e87 00            11077 	.byte	0
00000e88 0c            11078 	.byte	12
00000e89 1b            11079 	.byte	27
00000e8a 14            11080 	.byte	20
00000e8b 06            11081 	.byte	6
00000e8c 02            11082 	.byte	2
00000e8d 02            11083 	.byte	2
00000e8e 02            11084 	.byte	2
00000e8f 04            11085 	.byte	4
00000e90 000101        11086 	.byte	0,1,1
                       11087 	.section	.debug_info
                       11088 .LDW_4cb82a8:
00002b20 0f            11089 	.byte	15
00002b21 50535f4d7367  11090 	.strz	"PS_MsgContext"
00002b27 436f6e746578 
00002b2d 7400 
00002b2f e307          11091 	.byte	227,7
00002b31 4c            11092 	.byte	76
00002b32 01            11093 	.byte	1
00002b33 00000000*     11094 	.word	.LDW_48771f0
00002b37 00            11095 	.byte	0
00002b38 016c          11096 	.byte	1,108
                       11097 
                       11098 .LDW_4cc8b28:
00002b3a 1d            11099 	.byte	29
00002b3b 00000000*     11100 	.word	.LDW49
00002b3f 00000000*     11101 	.word	.LDW59
                       11102 
                       11103 .LDW_4cb8828:
00002b43 04            11104 	.byte	4
00002b44 55385f526574  11105 	.strz	"U8_RetVal"
00002b4a 56616c00 
00002b4e e507          11106 	.byte	229,7
00002b50 09            11107 	.byte	9
00002b51 01            11108 	.byte	1
00002b52 00000000*     11109 	.word	.LDW_4c438b8
00002b56 00            11110 	.byte	0
00002b57 00            11111 	.byte	0
00002b58 016b          11112 	.byte	1,107

                                                                      Page 203
                                                              C:\Users\nhuliyap\AppData\Local\Temp\gh_0000ds81.s
                       11113 
00002b5a 00            11114 	.byte	0
                       11115 
00002b5b 00            11116 	.byte	0
                       11117 
                       11118 .LDW_4cb68b8:
00002b5c 14            11119 	.byte	20
00002b5d 444941475f5f  11120 	.strz	"DIAG__ReqCallback_RequestResultsEOL_TPMS_TestProcedure"
00002b63 52657143616c 
00002b69 6c6261636b5f 
00002b6f 526571756573 
00002b75 74526573756c 
00002b7b 7473454f4c5f 
00002b81 54504d535f54 
00002b87 65737450726f 
00002b8d 636564757265 
00002b93 00 
00002b94 8408          11121 	.byte	132,8
00002b96 0e            11122 	.byte	14
00002b97 01            11123 	.byte	1
00002b98 00000000*     11124 	.word	.LDW_4c438b8
00002b9c 00000000*     11125 	.word	_DIAG__ReqCallback_RequestResultsEOL_TPMS_TestProcedure..C.3A.5C_ECU2.5CECU_Rivian_A1.5CTarget.5Crepo_projects.5CpRealEcu.5CcR_LATEST.5Cmake.5Coutput.5Cobjects.5CSwcApplTpms_Diag.
00002ba0 00000000*     11126 	.word	___ghs_eofn_DIAG__ReqCallback_RequestResultsEOL_TPMS_TestProcedure
00002ba4 0153          11127 	.byte	1,83
00002ba6 828080e00b    11128 	.byte	130,128,128,224,11
00002bab 14            11129 	.byte	20
00002bac 03            11130 	.byte	3
00002bad 14            11131 	.byte	20
00002bae 00            11132 	.byte	0
00002baf 00            11133 	.byte	0
00002bb0 00            11134 	.byte	0
00002bb1 00            11135 	.byte	0
00002bb2 01            11136 	.byte	1
00002bb3 00            11137 	.byte	0
00002bb4 01            11138 	.byte	1
                       11139 
                       11140 	.section	.debug_frame
                       11141 .LDW_4e23b58:
00000538 00000000*     11142 	.word	.LDW_unq_46-.LDW_unq_45
                       11143 .LDW_unq_45:
0000053c 00000000*     11144 	.word	.LDW_4c4f988
00000540 00000000*     11145 	.word	_DIAG__ReqCallback_RequestResultsEOL_TPMS_TestProcedure..C.3A.5C_ECU2.5CECU_Rivian_A1.5CTarget.5Crepo_projects.5CpRealEcu.5CcR_LATEST.5Cmake.5Coutput.5Cobjects.5CSwcApplTpms_Diag.
00000544 00000000*     11146 	.word	___ghs_eofn_DIAG__ReqCallback_RequestResultsEOL_TPMS_TestProcedure-_DIAG__ReqCallback_RequestResultsEOL_TPMS_TestProcedure..C.3A.5C_ECU2.5CECU_Rivian_A1.5CTarget.5Crepo_projects.5CpRealEcu.5CcR_LATEST.5Cmake.5Coutput.5Cobjects.5CSwcApplTpms_Diag.
00000548 44            11147 	.byte	68
00000549 9f            11148 	.byte	159
0000054a 00            11149 	.byte	0
0000054b 40            11150 	.byte	64
0000054c 9d            11151 	.byte	157
0000054d 04            11152 	.byte	4
0000054e 40            11153 	.byte	64
0000054f 9c            11154 	.byte	156
00000550 08            11155 	.byte	8
00000551 40            11156 	.byte	64
00000552 9b            11157 	.byte	155
00000553 0c            11158 	.byte	12
00000554 40            11159 	.byte	64
00000555 9a            11160 	.byte	154
00000556 10            11161 	.byte	16
00000557 01            11162 	.byte	1
00000558 00000000*     11163 	.word	.LDW79
                       11164 .LDW_unq_46:

                                                                      Page 204
                                                              C:\Users\nhuliyap\AppData\Local\Temp\gh_0000ds81.s
                       11165 	.section	.debug_line
00000e93 000502        11166 	.byte	0,5,2
00000e96 00000000*     11167 	.word	_DIAG__ReqCallback_RequestResultsEOL_TPMS_TestProcedure..C.3A.5C_ECU2.5CECU_Rivian_A1.5CTarget.5Crepo_projects.5CpRealEcu.5CcR_LATEST.5Cmake.5Coutput.5Cobjects.5CSwcApplTpms_Diag.
00000e9a 03            11168 	.byte	3
00000e9b 8408          11169 	.byte	132,8
00000e9d 02            11170 	.byte	2
00000e9e 00            11171 	.byte	0
00000e9f 01            11172 	.byte	1
00000ea0 06            11173 	.byte	6
00000ea1 000502        11174 	.byte	0,5,2
00000ea4 00000000*     11175 	.word	.LDWlin172
00000ea8 03            11176 	.byte	3
00000ea9 05            11177 	.byte	5
00000eaa 02            11178 	.byte	2
00000eab 00            11179 	.byte	0
00000eac 01            11180 	.byte	1
00000ead 03            11181 	.byte	3
00000eae 7d            11182 	.byte	125
00000eaf 02            11183 	.byte	2
00000eb0 04            11184 	.byte	4
00000eb1 01            11185 	.byte	1
00000eb2 1b            11186 	.byte	27
00000eb3 000502        11187 	.byte	0,5,2
00000eb6 00000000*     11188 	.word	.LDWlin173
00000eba 0d            11189 	.byte	13
00000ebb 0c            11190 	.byte	12
00000ebc 000502        11191 	.byte	0,5,2
00000ebf 00000000*     11192 	.word	.LDWlin174
00000ec3 0c            11193 	.byte	12
00000ec4 000502        11194 	.byte	0,5,2
00000ec7 00000000*     11195 	.word	.LDWlin175
00000ecb 0b            11196 	.byte	11
00000ecc 000502        11197 	.byte	0,5,2
00000ecf 00000000*     11198 	.word	.LDWlin176
00000ed3 0b            11199 	.byte	11
00000ed4 000502        11200 	.byte	0,5,2
00000ed7 00000000*     11201 	.word	.LDWlin177
00000edb 0b            11202 	.byte	11
00000edc 000502        11203 	.byte	0,5,2
00000edf 00000000*     11204 	.word	.LDWlin178
00000ee3 03            11205 	.byte	3
00000ee4 04            11206 	.byte	4
00000ee5 02            11207 	.byte	2
00000ee6 00            11208 	.byte	0
00000ee7 01            11209 	.byte	1
00000ee8 03            11210 	.byte	3
00000ee9 7e            11211 	.byte	126
00000eea 02            11212 	.byte	2
00000eeb 04            11213 	.byte	4
00000eec 01            11214 	.byte	1
00000eed 25            11215 	.byte	37
00000eee 000502        11216 	.byte	0,5,2
00000ef1 00000000*     11217 	.word	.LDWlin179
00000ef5 0b            11218 	.byte	11
00000ef6 0b            11219 	.byte	11
00000ef7 0c            11220 	.byte	12
00000ef8 1b            11221 	.byte	27
00000ef9 02            11222 	.byte	2
00000efa 00            11223 	.byte	0
00000efb 0c            11224 	.byte	12
00000efc 06            11225 	.byte	6

                                                                      Page 205
                                                              C:\Users\nhuliyap\AppData\Local\Temp\gh_0000ds81.s
00000efd 02            11226 	.byte	2
00000efe 02            11227 	.byte	2
00000eff 02            11228 	.byte	2
00000f00 04            11229 	.byte	4
00000f01 000101        11230 	.byte	0,1,1
                       11231 	.section	.debug_info
                       11232 .LDW_4cb85c0:
00002bb5 0f            11233 	.byte	15
00002bb6 50535f4d7367  11234 	.strz	"PS_MsgContext"
00002bbc 436f6e746578 
00002bc2 7400 
00002bc4 8408          11235 	.byte	132,8
00002bc6 56            11236 	.byte	86
00002bc7 01            11237 	.byte	1
00002bc8 00000000*     11238 	.word	.LDW_48771f0
00002bcc 00            11239 	.byte	0
00002bcd 016b          11240 	.byte	1,107
                       11241 
                       11242 .LDW_4cc8b58:
00002bcf 1d            11243 	.byte	29
00002bd0 00000000*     11244 	.word	.LDW69
00002bd4 00000000*     11245 	.word	.LDW79
                       11246 
                       11247 .LDW_4cb8720:
00002bd8 04            11248 	.byte	4
00002bd9 55385f526574  11249 	.strz	"U8_RetVal"
00002bdf 56616c00 
00002be3 8608          11250 	.byte	134,8
00002be5 09            11251 	.byte	9
00002be6 01            11252 	.byte	1
00002be7 00000000*     11253 	.word	.LDW_4c438b8
00002beb 00            11254 	.byte	0
00002bec 00            11255 	.byte	0
00002bed 016a          11256 	.byte	1,106
                       11257 
00002bef 00            11258 	.byte	0
                       11259 
00002bf0 00            11260 	.byte	0
                       11261 
                       11262 .LDW_4cb6b18:
00002bf1 13            11263 	.byte	19
00002bf2 444941475f5f  11264 	.strz	"DIAG__GetWSDataForPosition"
00002bf8 476574575344 
00002bfe 617461466f72 
00002c04 506f73697469 
00002c0a 6f6e00 
00002c0d a108          11265 	.byte	161,8
00002c0f 0d            11266 	.byte	13
00002c10 01            11267 	.byte	1
00002c11 00000000*     11268 	.word	_DIAG__GetWSDataForPosition..C.3A.5C_ECU2.5CECU_Rivian_A1.5CTarget.5Crepo_projects.5CpRealEcu.5CcR_LATEST.5Cmake.5Coutput.5Cobjects.5CSwcApplTpms_Diag.
00002c15 00000000*     11269 	.word	___ghs_eofn_DIAG__GetWSDataForPosition
00002c19 0153          11270 	.byte	1,83
00002c1b 828080c00b    11271 	.byte	130,128,128,192,11
00002c20 10            11272 	.byte	16
00002c21 03            11273 	.byte	3
00002c22 10            11274 	.byte	16
00002c23 00            11275 	.byte	0
00002c24 00            11276 	.byte	0
00002c25 00            11277 	.byte	0
00002c26 00            11278 	.byte	0
00002c27 01            11279 	.byte	1

                                                                      Page 206
                                                              C:\Users\nhuliyap\AppData\Local\Temp\gh_0000ds81.s
00002c28 00            11280 	.byte	0
00002c29 01            11281 	.byte	1
                       11282 
                       11283 	.section	.debug_abbrev
0000017c 13            11284 	.byte	19
0000017d 2e            11285 	.byte	46
0000017e 01            11286 	.byte	1
0000017f 0308          11287 	.byte	3,8
00000181 3b0f          11288 	.byte	59,15
00000183 390f          11289 	.byte	57,15
00000185 3a0f          11290 	.byte	58,15
00000187 1101          11291 	.byte	17,1
00000189 1201          11292 	.byte	18,1
0000018b 400a          11293 	.byte	64,10
0000018d 8341          11294 	.byte	131,65
0000018f 0f            11295 	.byte	15
00000190 8741          11296 	.byte	135,65
00000192 0d            11297 	.byte	13
00000193 8541          11298 	.byte	133,65
00000195 0f            11299 	.byte	15
00000196 8641          11300 	.byte	134,65
00000198 0d            11301 	.byte	13
00000199 9241          11302 	.byte	146,65
0000019b 0f            11303 	.byte	15
0000019c 3c0c          11304 	.byte	60,12
0000019e 200b          11305 	.byte	32,11
000001a0 3f0c          11306 	.byte	63,12
000001a2 320b          11307 	.byte	50,11
000001a4 4c0b          11308 	.byte	76,11
000001a6 270c          11309 	.byte	39,12
000001a8 0000          11310 	.byte	0,0
                       11311 
                       11312 	.section	.debug_frame
                       11313 .LDW_4ceeb78:
0000055c 00000000*     11314 	.word	.LDW_unq_48-.LDW_unq_47
                       11315 .LDW_unq_47:
00000560 00000000*     11316 	.word	.LDW_4c4f988
00000564 00000000*     11317 	.word	_DIAG__GetWSDataForPosition..C.3A.5C_ECU2.5CECU_Rivian_A1.5CTarget.5Crepo_projects.5CpRealEcu.5CcR_LATEST.5Cmake.5Coutput.5Cobjects.5CSwcApplTpms_Diag.
00000568 00000000*     11318 	.word	___ghs_eofn_DIAG__GetWSDataForPosition-_DIAG__GetWSDataForPosition..C.3A.5C_ECU2.5CECU_Rivian_A1.5CTarget.5Crepo_projects.5CpRealEcu.5CcR_LATEST.5Cmake.5Coutput.5Cobjects.5CSwcApplTpms_Diag.
0000056c 44            11319 	.byte	68
0000056d 9f            11320 	.byte	159
0000056e 00            11321 	.byte	0
0000056f 40            11322 	.byte	64
00000570 9d            11323 	.byte	157
00000571 04            11324 	.byte	4
00000572 40            11325 	.byte	64
00000573 9c            11326 	.byte	156
00000574 08            11327 	.byte	8
00000575 40            11328 	.byte	64
00000576 9b            11329 	.byte	155
00000577 0c            11330 	.byte	12
00000578 01            11331 	.byte	1
00000579 00000000*     11332 	.word	.LDW11
0000057d 00            11333 	.byte	0
0000057e 00            11334 	.byte	0
0000057f 00            11335 	.byte	0
                       11336 .LDW_unq_48:
                       11337 	.section	.debug_line
00000f04 000502        11338 	.byte	0,5,2
00000f07 00000000*     11339 	.word	_DIAG__GetWSDataForPosition..C.3A.5C_ECU2.5CECU_Rivian_A1.5CTarget.5Crepo_projects.5CpRealEcu.5CcR_LATEST.5Cmake.5Coutput.5Cobjects.5CSwcApplTpms_Diag.
00000f0b 03            11340 	.byte	3

                                                                      Page 207
                                                              C:\Users\nhuliyap\AppData\Local\Temp\gh_0000ds81.s
00000f0c a108          11341 	.byte	161,8
00000f0e 02            11342 	.byte	2
00000f0f 00            11343 	.byte	0
00000f10 01            11344 	.byte	1
00000f11 06            11345 	.byte	6
00000f12 03            11346 	.byte	3
00000f13 09            11347 	.byte	9
00000f14 02            11348 	.byte	2
00000f15 08            11349 	.byte	8
00000f16 01            11350 	.byte	1
00000f17 000502        11351 	.byte	0,5,2
00000f1a 00000000*     11352 	.word	.LDWlin1
00000f1e 03            11353 	.byte	3
00000f1f 06            11354 	.byte	6
00000f20 02            11355 	.byte	2
00000f21 00            11356 	.byte	0
00000f22 01            11357 	.byte	1
00000f23 03            11358 	.byte	3
00000f24 7c            11359 	.byte	124
00000f25 02            11360 	.byte	2
00000f26 02            11361 	.byte	2
00000f27 01            11362 	.byte	1
00000f28 1c            11363 	.byte	28
00000f29 03            11364 	.byte	3
00000f2a 04            11365 	.byte	4
00000f2b 02            11366 	.byte	2
00000f2c 0e            11367 	.byte	14
00000f2d 01            11368 	.byte	1
00000f2e 15            11369 	.byte	21
00000f2f 000502        11370 	.byte	0,5,2
00000f32 00000000*     11371 	.word	.LDWlin2
00000f36 0b            11372 	.byte	11
00000f37 0b            11373 	.byte	11
00000f38 000502        11374 	.byte	0,5,2
00000f3b 00000000*     11375 	.word	.LDWlin3
00000f3f 03            11376 	.byte	3
00000f40 04            11377 	.byte	4
00000f41 02            11378 	.byte	2
00000f42 00            11379 	.byte	0
00000f43 01            11380 	.byte	1
00000f44 02            11381 	.byte	2
00000f45 00            11382 	.byte	0
00000f46 0c            11383 	.byte	12
00000f47 1d            11384 	.byte	29
00000f48 25            11385 	.byte	37
00000f49 000502        11386 	.byte	0,5,2
00000f4c 00000000*     11387 	.word	.LDWlin4
00000f50 0b            11388 	.byte	11
00000f51 000502        11389 	.byte	0,5,2
00000f54 00000000*     11390 	.word	.LDWlin5
00000f58 0b            11391 	.byte	11
00000f59 0b            11392 	.byte	11
00000f5a 03            11393 	.byte	3
00000f5b 04            11394 	.byte	4
00000f5c 02            11395 	.byte	2
00000f5d 06            11396 	.byte	6
00000f5e 01            11397 	.byte	1
00000f5f 02            11398 	.byte	2
00000f60 00            11399 	.byte	0
00000f61 0c            11400 	.byte	12
00000f62 1c            11401 	.byte	28

                                                                      Page 208
                                                              C:\Users\nhuliyap\AppData\Local\Temp\gh_0000ds81.s
00000f63 000502        11402 	.byte	0,5,2
00000f66 00000000*     11403 	.word	.LDWlin6
00000f6a 0b            11404 	.byte	11
00000f6b 2b            11405 	.byte	43
00000f6c 0c            11406 	.byte	12
00000f6d 0b            11407 	.byte	11
00000f6e 0c            11408 	.byte	12
00000f6f 02            11409 	.byte	2
00000f70 00            11410 	.byte	0
00000f71 0c            11411 	.byte	12
00000f72 1c            11412 	.byte	28
00000f73 000502        11413 	.byte	0,5,2
00000f76 00000000*     11414 	.word	.LDWlin7
00000f7a 0b            11415 	.byte	11
00000f7b 03            11416 	.byte	3
00000f7c 04            11417 	.byte	4
00000f7d 02            11418 	.byte	2
00000f7e 0a            11419 	.byte	10
00000f7f 01            11420 	.byte	1
00000f80 000502        11421 	.byte	0,5,2
00000f83 00000000*     11422 	.word	.LDWlin8
00000f87 0b            11423 	.byte	11
00000f88 02            11424 	.byte	2
00000f89 04            11425 	.byte	4
00000f8a 000101        11426 	.byte	0,1,1
                       11427 	.section	.debug_info
                       11428 .LDW_4cb8880:
00002c2a 0f            11429 	.byte	15
00002c2b 4355385f506f  11430 	.strz	"CU8_PosIndex"
00002c31 73496e646578 
00002c37 00 
00002c38 a108          11431 	.byte	161,8
00002c3a 34            11432 	.byte	52
00002c3b 01            11433 	.byte	1
00002c3c 00000000*     11434 	.word	.LDW_4cb8778
00002c40 00            11435 	.byte	0
00002c41 016c          11436 	.byte	1,108
                       11437 
                       11438 .LDW_4cb84b8:
00002c43 0f            11439 	.byte	15
00002c44 5055385f496e  11440 	.strz	"PU8_InterfaceData"
00002c4a 746572666163 
00002c50 654461746100 
00002c56 a108          11441 	.byte	161,8
00002c58 49            11442 	.byte	73
00002c59 01            11443 	.byte	1
00002c5a 00000000*     11444 	.word	.LDW_4cb7790
00002c5e 00            11445 	.byte	0
00002c5f 016d          11446 	.byte	1,109
                       11447 
                       11448 .LDW_4cc8948:
00002c61 1d            11449 	.byte	29
00002c62 00000000*     11450 	.word	.LDW01
00002c66 00000000*     11451 	.word	.LDW11
                       11452 
                       11453 .LDW_4cb8618:
00002c6a 05            11454 	.byte	5
00002c6b 55385f496478  11455 	.strz	"U8_Idx"
00002c71 00 
00002c72 a308          11456 	.byte	163,8
00002c74 09            11457 	.byte	9

                                                                      Page 209
                                                              C:\Users\nhuliyap\AppData\Local\Temp\gh_0000ds81.s
00002c75 01            11458 	.byte	1
00002c76 00000000*     11459 	.word	.LDW_4c438b8
00002c7a 00            11460 	.byte	0
00002c7b 00            11461 	.byte	0
                       11462 
                       11463 .LDW_4cb8670:
00002c7c 04            11464 	.byte	4
00002c7d 55385f54656d  11465 	.strz	"U8_TempRadPos"
00002c83 70526164506f 
00002c89 7300 
00002c8b a408          11466 	.byte	164,8
00002c8d 09            11467 	.byte	9
00002c8e 01            11468 	.byte	1
00002c8f 00000000*     11469 	.word	.LDW_4c438b8
00002c93 00            11470 	.byte	0
00002c94 00            11471 	.byte	0
00002c95 016b          11472 	.byte	1,107
                       11473 
                       11474 .LDW_4cb87d0:
00002c97 05            11475 	.byte	5
00002c98 5533325f546d  11476 	.strz	"U32_TmpID"
00002c9e 70494400 
00002ca2 a508          11477 	.byte	165,8
00002ca4 0a            11478 	.byte	10
00002ca5 01            11479 	.byte	1
00002ca6 00000000*     11480 	.word	.LDW_4cad198
00002caa 00            11481 	.byte	0
00002cab 00            11482 	.byte	0
                       11483 
                       11484 .LDW_4cb8408:
00002cac 04            11485 	.byte	4
00002cad 55385f54656d  11486 	.strz	"U8_Temp"
00002cb3 7000 
00002cb5 a608          11487 	.byte	166,8
00002cb7 09            11488 	.byte	9
00002cb8 01            11489 	.byte	1
00002cb9 00000000*     11490 	.word	.LDW_4c438b8
00002cbd 00            11491 	.byte	0
00002cbe 00            11492 	.byte	0
00002cbf 0162          11493 	.byte	1,98
                       11494 
                       11495 .LDW_4cb86c8:
00002cc1 04            11496 	.byte	4
00002cc2 55385f4c6f63  11497 	.strz	"U8_LocalReifendruckPD"
00002cc8 616c52656966 
00002cce 656e64727563 
00002cd4 6b504400 
00002cd8 a708          11498 	.byte	167,8
00002cda 09            11499 	.byte	9
00002cdb 01            11500 	.byte	1
00002cdc 00000000*     11501 	.word	.LDW_4c438b8
00002ce0 00            11502 	.byte	0
00002ce1 00            11503 	.byte	0
00002ce2 015a          11504 	.byte	1,90
                       11505 
00002ce4 00            11506 	.byte	0
                       11507 
00002ce5 00            11508 	.byte	0
                       11509 
                       11510 .LDW_4cb6bb0:
00002ce6 13            11511 	.byte	19

                                                                      Page 210
                                                              C:\Users\nhuliyap\AppData\Local\Temp\gh_0000ds81.s
00002ce7 444941475f5f  11512 	.strz	"DIAG__GetWsIdForPosition"
00002ced 476574577349 
00002cf3 64466f72506f 
00002cf9 736974696f6e 
00002cff 00 
00002d00 e208          11513 	.byte	226,8
00002d02 0d            11514 	.byte	13
00002d03 01            11515 	.byte	1
00002d04 00000000*     11516 	.word	_DIAG__GetWsIdForPosition..C.3A.5C_ECU2.5CECU_Rivian_A1.5CTarget.5Crepo_projects.5CpRealEcu.5CcR_LATEST.5Cmake.5Coutput.5Cobjects.5CSwcApplTpms_Diag.
00002d08 00000000*     11517 	.word	___ghs_eofn_DIAG__GetWsIdForPosition
00002d0c 0153          11518 	.byte	1,83
00002d0e 828080800a    11519 	.byte	130,128,128,128,10
00002d13 08            11520 	.byte	8
00002d14 03            11521 	.byte	3
00002d15 08            11522 	.byte	8
00002d16 00            11523 	.byte	0
00002d17 00            11524 	.byte	0
00002d18 00            11525 	.byte	0
00002d19 00            11526 	.byte	0
00002d1a 01            11527 	.byte	1
00002d1b 00            11528 	.byte	0
00002d1c 01            11529 	.byte	1
                       11530 
                       11531 	.section	.debug_frame
                       11532 .LDW_4ceeef8:
00000580 00000000*     11533 	.word	.LDW_unq_4a-.LDW_unq_49
                       11534 .LDW_unq_49:
00000584 00000000*     11535 	.word	.LDW_4c4f988
00000588 00000000*     11536 	.word	_DIAG__GetWsIdForPosition..C.3A.5C_ECU2.5CECU_Rivian_A1.5CTarget.5Crepo_projects.5CpRealEcu.5CcR_LATEST.5Cmake.5Coutput.5Cobjects.5CSwcApplTpms_Diag.
0000058c 00000000*     11537 	.word	___ghs_eofn_DIAG__GetWsIdForPosition-_DIAG__GetWsIdForPosition..C.3A.5C_ECU2.5CECU_Rivian_A1.5CTarget.5Crepo_projects.5CpRealEcu.5CcR_LATEST.5Cmake.5Coutput.5Cobjects.5CSwcApplTpms_Diag.
00000590 44            11538 	.byte	68
00000591 9f            11539 	.byte	159
00000592 00            11540 	.byte	0
00000593 40            11541 	.byte	64
00000594 9d            11542 	.byte	157
00000595 04            11543 	.byte	4
00000596 01            11544 	.byte	1
00000597 00000000*     11545 	.word	.LDW12
0000059b 44            11546 	.byte	68
0000059c df            11547 	.byte	223
0000059d 40            11548 	.byte	64
0000059e dd            11549 	.byte	221
0000059f 00            11550 	.byte	0
                       11551 .LDW_unq_4a:
                       11552 	.section	.debug_line
00000f8d 000502        11553 	.byte	0,5,2
00000f90 00000000*     11554 	.word	_DIAG__GetWsIdForPosition..C.3A.5C_ECU2.5CECU_Rivian_A1.5CTarget.5Crepo_projects.5CpRealEcu.5CcR_LATEST.5Cmake.5Coutput.5Cobjects.5CSwcApplTpms_Diag.
00000f94 03            11555 	.byte	3
00000f95 e208          11556 	.byte	226,8
00000f97 02            11557 	.byte	2
00000f98 00            11558 	.byte	0
00000f99 01            11559 	.byte	1
00000f9a 06            11560 	.byte	6
00000f9b 03            11561 	.byte	3
00000f9c 06            11562 	.byte	6
00000f9d 02            11563 	.byte	2
00000f9e 08            11564 	.byte	8
00000f9f 01            11565 	.byte	1
00000fa0 000502        11566 	.byte	0,5,2
00000fa3 00000000*     11567 	.word	.LDWlin21
00000fa7 0c            11568 	.byte	12

                                                                      Page 211
                                                              C:\Users\nhuliyap\AppData\Local\Temp\gh_0000ds81.s
00000fa8 14            11569 	.byte	20
00000fa9 14            11570 	.byte	20
00000faa 4c            11571 	.byte	76
00000fab 13            11572 	.byte	19
00000fac 02            11573 	.byte	2
00000fad 04            11574 	.byte	4
00000fae 000101        11575 	.byte	0,1,1
                       11576 	.section	.debug_info
                       11577 .LDW_4cb8460:
00002d1d 0f            11578 	.byte	15
00002d1e 4355385f506f  11579 	.strz	"CU8_PosIndex"
00002d24 73496e646578 
00002d2a 00 
00002d2b e208          11580 	.byte	226,8
00002d2d 32            11581 	.byte	50
00002d2e 01            11582 	.byte	1
00002d2f 00000000*     11583 	.word	.LDW_4cb8778
00002d33 00            11584 	.byte	0
00002d34 0156          11585 	.byte	1,86
                       11586 
                       11587 .LDW_4cb8510:
00002d36 0f            11588 	.byte	15
00002d37 5055385f496e  11589 	.strz	"PU8_InterfaceData"
00002d3d 746572666163 
00002d43 654461746100 
00002d49 e208          11590 	.byte	226,8
00002d4b 47            11591 	.byte	71
00002d4c 01            11592 	.byte	1
00002d4d 00000000*     11593 	.word	.LDW_4cb7790
00002d51 00            11594 	.byte	0
00002d52 016d          11595 	.byte	1,109
                       11596 
                       11597 .LDW_4cc8ee8:
00002d54 1d            11598 	.byte	29
00002d55 00000000*     11599 	.word	.LDW02
00002d59 00000000*     11600 	.word	.LDW12
                       11601 
                       11602 .LDW_4cb8568:
00002d5d 05            11603 	.byte	5
00002d5e 55385f496478  11604 	.strz	"U8_Idx"
00002d64 00 
00002d65 e408          11605 	.byte	228,8
00002d67 09            11606 	.byte	9
00002d68 01            11607 	.byte	1
00002d69 00000000*     11608 	.word	.LDW_4c438b8
00002d6d 00            11609 	.byte	0
00002d6e 00            11610 	.byte	0
                       11611 
                       11612 .LDW_4cca648:
00002d6f 05            11613 	.byte	5
00002d70 5533325f546d  11614 	.strz	"U32_TmpID"
00002d76 70494400 
00002d7a e508          11615 	.byte	229,8
00002d7c 0a            11616 	.byte	10
00002d7d 01            11617 	.byte	1
00002d7e 00000000*     11618 	.word	.LDW_4cad198
00002d82 00            11619 	.byte	0
00002d83 00            11620 	.byte	0
                       11621 
00002d84 00            11622 	.byte	0
                       11623 

                                                                      Page 212
                                                              C:\Users\nhuliyap\AppData\Local\Temp\gh_0000ds81.s
00002d85 00            11624 	.byte	0
                       11625 
                       11626 .LDW_4cb6100:
00002d86 14            11627 	.byte	20
00002d87 444941475f5f  11628 	.strz	"DIAG__GetLastReceivedWheelId"
00002d8d 4765744c6173 
00002d93 745265636569 
00002d99 766564576865 
00002d9f 656c496400 
00002da4 f408          11629 	.byte	244,8
00002da6 0e            11630 	.byte	14
00002da7 01            11631 	.byte	1
00002da8 00000000*     11632 	.word	.LDW_4c438b8
00002dac 00000000*     11633 	.word	_DIAG__GetLastReceivedWheelId..C.3A.5C_ECU2.5CECU_Rivian_A1.5CTarget.5Crepo_projects.5CpRealEcu.5CcR_LATEST.5Cmake.5Coutput.5Cobjects.5CSwcApplTpms_Diag.
00002db0 00000000*     11634 	.word	___ghs_eofn_DIAG__GetLastReceivedWheelId
00002db4 0153          11635 	.byte	1,83
00002db6 828080800b    11636 	.byte	130,128,128,128,11
00002dbb 0c            11637 	.byte	12
00002dbc 03            11638 	.byte	3
00002dbd 10            11639 	.byte	16
00002dbe 00            11640 	.byte	0
00002dbf 00            11641 	.byte	0
00002dc0 00            11642 	.byte	0
00002dc1 00            11643 	.byte	0
00002dc2 01            11644 	.byte	1
00002dc3 00            11645 	.byte	0
00002dc4 01            11646 	.byte	1
                       11647 
                       11648 	.section	.debug_frame
                       11649 .LDW_4cef3f8:
000005a0 00000000*     11650 	.word	.LDW_unq_4c-.LDW_unq_4b
                       11651 .LDW_unq_4b:
000005a4 00000000*     11652 	.word	.LDW_4c4f988
000005a8 00000000*     11653 	.word	_DIAG__GetLastReceivedWheelId..C.3A.5C_ECU2.5CECU_Rivian_A1.5CTarget.5Crepo_projects.5CpRealEcu.5CcR_LATEST.5Cmake.5Coutput.5Cobjects.5CSwcApplTpms_Diag.
000005ac 00000000*     11654 	.word	___ghs_eofn_DIAG__GetLastReceivedWheelId-_DIAG__GetLastReceivedWheelId..C.3A.5C_ECU2.5CECU_Rivian_A1.5CTarget.5Crepo_projects.5CpRealEcu.5CcR_LATEST.5Cmake.5Coutput.5Cobjects.5CSwcApplTpms_Diag.
000005b0 44            11655 	.byte	68
000005b1 9f            11656 	.byte	159
000005b2 03            11657 	.byte	3
000005b3 40            11658 	.byte	64
000005b4 9d            11659 	.byte	157
000005b5 07            11660 	.byte	7
000005b6 40            11661 	.byte	64
000005b7 9c            11662 	.byte	156
000005b8 0b            11663 	.byte	11
000005b9 01            11664 	.byte	1
000005ba 00000000*     11665 	.word	.LDW13
000005be 00            11666 	.byte	0
000005bf 00            11667 	.byte	0
                       11668 .LDW_unq_4c:
                       11669 	.section	.debug_line
00000fb1 000502        11670 	.byte	0,5,2
00000fb4 00000000*     11671 	.word	_DIAG__GetLastReceivedWheelId..C.3A.5C_ECU2.5CECU_Rivian_A1.5CTarget.5Crepo_projects.5CpRealEcu.5CcR_LATEST.5Cmake.5Coutput.5Cobjects.5CSwcApplTpms_Diag.
00000fb8 03            11672 	.byte	3
00000fb9 f408          11673 	.byte	244,8
00000fbb 02            11674 	.byte	2
00000fbc 00            11675 	.byte	0
00000fbd 01            11676 	.byte	1
00000fbe 06            11677 	.byte	6
00000fbf 03            11678 	.byte	3
00000fc0 07            11679 	.byte	7
00000fc1 02            11680 	.byte	2

                                                                      Page 213
                                                              C:\Users\nhuliyap\AppData\Local\Temp\gh_0000ds81.s
00000fc2 06            11681 	.byte	6
00000fc3 01            11682 	.byte	1
00000fc4 000502        11683 	.byte	0,5,2
00000fc7 00000000*     11684 	.word	.LDWlin34
00000fcb 0b            11685 	.byte	11
00000fcc 02            11686 	.byte	2
00000fcd 02            11687 	.byte	2
00000fce 0c            11688 	.byte	12
00000fcf 4b            11689 	.byte	75
00000fd0 03            11690 	.byte	3
00000fd1 7d            11691 	.byte	125
00000fd2 02            11692 	.byte	2
00000fd3 02            11693 	.byte	2
00000fd4 01            11694 	.byte	1
00000fd5 000502        11695 	.byte	0,5,2
00000fd8 00000000*     11696 	.word	.LDWlin35
00000fdc 03            11697 	.byte	3
00000fdd 04            11698 	.byte	4
00000fde 02            11699 	.byte	2
00000fdf 00            11700 	.byte	0
00000fe0 01            11701 	.byte	1
00000fe1 0c            11702 	.byte	12
00000fe2 000502        11703 	.byte	0,5,2
00000fe5 00000000*     11704 	.word	.LDWlin36
00000fe9 0b            11705 	.byte	11
00000fea 0b            11706 	.byte	11
00000feb 000502        11707 	.byte	0,5,2
00000fee 00000000*     11708 	.word	.LDWlin37
00000ff2 03            11709 	.byte	3
00000ff3 04            11710 	.byte	4
00000ff4 02            11711 	.byte	2
00000ff5 00            11712 	.byte	0
00000ff6 01            11713 	.byte	1
00000ff7 02            11714 	.byte	2
00000ff8 00            11715 	.byte	0
00000ff9 0b            11716 	.byte	11
00000ffa 1d            11717 	.byte	29
00000ffb 2d            11718 	.byte	45
00000ffc 000502        11719 	.byte	0,5,2
00000fff 00000000*     11720 	.word	.LDWlin38
00001003 0b            11721 	.byte	11
00001004 000502        11722 	.byte	0,5,2
00001007 00000000*     11723 	.word	.LDWlin39
0000100b 0b            11724 	.byte	11
0000100c 0b            11725 	.byte	11
0000100d 03            11726 	.byte	3
0000100e 04            11727 	.byte	4
0000100f 02            11728 	.byte	2
00001010 06            11729 	.byte	6
00001011 01            11730 	.byte	1
00001012 02            11731 	.byte	2
00001013 00            11732 	.byte	0
00001014 0b            11733 	.byte	11
00001015 1c            11734 	.byte	28
00001016 000502        11735 	.byte	0,5,2
00001019 00000000*     11736 	.word	.LDWlin40
0000101d 0b            11737 	.byte	11
0000101e 2b            11738 	.byte	43
0000101f 0c            11739 	.byte	12
00001020 0b            11740 	.byte	11
00001021 0c            11741 	.byte	12

                                                                      Page 214
                                                              C:\Users\nhuliyap\AppData\Local\Temp\gh_0000ds81.s
00001022 02            11742 	.byte	2
00001023 00            11743 	.byte	0
00001024 0b            11744 	.byte	11
00001025 1c            11745 	.byte	28
00001026 06            11746 	.byte	6
00001027 02            11747 	.byte	2
00001028 02            11748 	.byte	2
00001029 02            11749 	.byte	2
0000102a 04            11750 	.byte	4
0000102b 000101        11751 	.byte	0,1,1
                       11752 	.section	.debug_info
                       11753 .LDW_4cca490:
00002dc5 0f            11754 	.byte	15
00002dc6 5055385f5265  11755 	.strz	"PU8_ResData"
00002dcc 734461746100 
00002dd2 f408          11756 	.byte	244,8
00002dd4 32            11757 	.byte	50
00002dd5 01            11758 	.byte	1
00002dd6 00000000*     11759 	.word	.LDW_4cb7790
00002dda 00            11760 	.byte	0
00002ddb 016d          11761 	.byte	1,109
                       11762 
                       11763 .LDW_4cc8c48:
00002ddd 1d            11764 	.byte	29
00002dde 00000000*     11765 	.word	.LDW03
00002de2 00000000*     11766 	.word	.LDW13
                       11767 
                       11768 .LDW_4cca750:
00002de6 04            11769 	.byte	4
00002de7 55385f496478  11770 	.strz	"U8_Idx"
00002ded 00 
00002dee f608          11771 	.byte	246,8
00002df0 09            11772 	.byte	9
00002df1 01            11773 	.byte	1
00002df2 00000000*     11774 	.word	.LDW_4c438b8
00002df6 00            11775 	.byte	0
00002df7 00            11776 	.byte	0
00002df8 0161          11777 	.byte	1,97
                       11778 
                       11779 .LDW_4cca6a0:
00002dfa 04            11780 	.byte	4
00002dfb 55385f526164  11781 	.strz	"U8_RadPos"
00002e01 506f7300 
00002e05 f708          11782 	.byte	247,8
00002e07 09            11783 	.byte	9
00002e08 01            11784 	.byte	1
00002e09 00000000*     11785 	.word	.LDW_4c438b8
00002e0d 00            11786 	.byte	0
00002e0e 00            11787 	.byte	0
00002e0f 016c          11788 	.byte	1,108
                       11789 
                       11790 .LDW_4cca540:
00002e11 04            11791 	.byte	4
00002e12 5533325f5245  11792 	.strz	"U32_REId"
00002e18 496400 
00002e1b f808          11793 	.byte	248,8
00002e1d 0a            11794 	.byte	10
00002e1e 01            11795 	.byte	1
00002e1f 00000000*     11796 	.word	.LDW_4cad198
00002e23 00            11797 	.byte	0
00002e24 00            11798 	.byte	0

                                                                      Page 215
                                                              C:\Users\nhuliyap\AppData\Local\Temp\gh_0000ds81.s
00002e25 0273          11799 	.byte	2,115
00002e27 00            11800 	.byte	0
                       11801 
                       11802 .LDW_4cca5f0:
00002e28 04            11803 	.byte	4
00002e29 55385f4c6f63  11804 	.strz	"U8_LocalTemperature"
00002e2f 616c54656d70 
00002e35 657261747572 
00002e3b 6500 
00002e3d f908          11805 	.byte	249,8
00002e3f 09            11806 	.byte	9
00002e40 01            11807 	.byte	1
00002e41 00000000*     11808 	.word	.LDW_4c438b8
00002e45 00            11809 	.byte	0
00002e46 00            11810 	.byte	0
00002e47 0162          11811 	.byte	1,98
                       11812 
                       11813 .LDW_4cca4e8:
00002e49 04            11814 	.byte	4
00002e4a 55385f4c6f63  11815 	.strz	"U8_LocalPreProcPressurePD"
00002e50 616c50726550 
00002e56 726f63507265 
00002e5c 737375726550 
00002e62 4400 
00002e64 fa08          11816 	.byte	250,8
00002e66 09            11817 	.byte	9
00002e67 01            11818 	.byte	1
00002e68 00000000*     11819 	.word	.LDW_4c438b8
00002e6c 00            11820 	.byte	0
00002e6d 00            11821 	.byte	0
00002e6e 015a          11822 	.byte	1,90
                       11823 
00002e70 00            11824 	.byte	0
                       11825 
00002e71 00            11826 	.byte	0
                       11827 
                       11828 .LDW_4cb65c0:
00002e72 14            11829 	.byte	20
00002e73 444941475f5f  11830 	.strz	"DIAG__PutNewIDAndResetWarning"
00002e79 5075744e6577 
00002e7f 4944416e6452 
00002e85 657365745761 
00002e8b 726e696e6700 
00002e91 a709          11831 	.byte	167,9
00002e93 0e            11832 	.byte	14
00002e94 01            11833 	.byte	1
00002e95 00000000*     11834 	.word	.LDW_4c438b8
00002e99 00000000*     11835 	.word	_DIAG__PutNewIDAndResetWarning..C.3A.5C_ECU2.5CECU_Rivian_A1.5CTarget.5Crepo_projects.5CpRealEcu.5CcR_LATEST.5Cmake.5Coutput.5Cobjects.5CSwcApplTpms_Diag.
00002e9d 00000000*     11836 	.word	___ghs_eofn_DIAG__PutNewIDAndResetWarning
00002ea1 0153          11837 	.byte	1,83
00002ea3 828080e00b    11838 	.byte	130,128,128,224,11
00002ea8 14            11839 	.byte	20
00002ea9 03            11840 	.byte	3
00002eaa 1c            11841 	.byte	28
00002eab 00            11842 	.byte	0
00002eac 00            11843 	.byte	0
00002ead 00            11844 	.byte	0
00002eae 00            11845 	.byte	0
00002eaf 01            11846 	.byte	1
00002eb0 00            11847 	.byte	0
00002eb1 01            11848 	.byte	1

                                                                      Page 216
                                                              C:\Users\nhuliyap\AppData\Local\Temp\gh_0000ds81.s
                       11849 
                       11850 	.section	.debug_frame
                       11851 .LDW_4cef0f8:
000005c0 00000000*     11852 	.word	.LDW_unq_4e-.LDW_unq_4d
                       11853 .LDW_unq_4d:
000005c4 00000000*     11854 	.word	.LDW_4c4f988
000005c8 00000000*     11855 	.word	_DIAG__PutNewIDAndResetWarning..C.3A.5C_ECU2.5CECU_Rivian_A1.5CTarget.5Crepo_projects.5CpRealEcu.5CcR_LATEST.5Cmake.5Coutput.5Cobjects.5CSwcApplTpms_Diag.
000005cc 00000000*     11856 	.word	___ghs_eofn_DIAG__PutNewIDAndResetWarning-_DIAG__PutNewIDAndResetWarning..C.3A.5C_ECU2.5CECU_Rivian_A1.5CTarget.5Crepo_projects.5CpRealEcu.5CcR_LATEST.5Cmake.5Coutput.5Cobjects.5CSwcApplTpms_Diag.
000005d0 44            11857 	.byte	68
000005d1 9f            11858 	.byte	159
000005d2 06            11859 	.byte	6
000005d3 40            11860 	.byte	64
000005d4 9d            11861 	.byte	157
000005d5 0a            11862 	.byte	10
000005d6 40            11863 	.byte	64
000005d7 9c            11864 	.byte	156
000005d8 0e            11865 	.byte	14
000005d9 40            11866 	.byte	64
000005da 9b            11867 	.byte	155
000005db 12            11868 	.byte	18
000005dc 40            11869 	.byte	64
000005dd 9a            11870 	.byte	154
000005de 16            11871 	.byte	22
000005df 01            11872 	.byte	1
000005e0 00000000*     11873 	.word	.LDW53
                       11874 .LDW_unq_4e:
                       11875 	.section	.debug_line
0000102e 000502        11876 	.byte	0,5,2
00001031 00000000*     11877 	.word	_DIAG__PutNewIDAndResetWarning..C.3A.5C_ECU2.5CECU_Rivian_A1.5CTarget.5Crepo_projects.5CpRealEcu.5CcR_LATEST.5Cmake.5Coutput.5Cobjects.5CSwcApplTpms_Diag.
00001035 03            11878 	.byte	3
00001036 a709          11879 	.byte	167,9
00001038 02            11880 	.byte	2
00001039 00            11881 	.byte	0
0000103a 01            11882 	.byte	1
0000103b 06            11883 	.byte	6
0000103c 25            11884 	.byte	37
0000103d 13            11885 	.byte	19
0000103e 14            11886 	.byte	20
0000103f 02            11887 	.byte	2
00001040 02            11888 	.byte	2
00001041 0c            11889 	.byte	12
00001042 53            11890 	.byte	83
00001043 03            11891 	.byte	3
00001044 7d            11892 	.byte	125
00001045 02            11893 	.byte	2
00001046 02            11894 	.byte	2
00001047 01            11895 	.byte	1
00001048 000502        11896 	.byte	0,5,2
0000104b 00000000*     11897 	.word	.LDWlin44
0000104f 03            11898 	.byte	3
00001050 04            11899 	.byte	4
00001051 02            11900 	.byte	2
00001052 00            11901 	.byte	0
00001053 01            11902 	.byte	1
00001054 0c            11903 	.byte	12
00001055 000502        11904 	.byte	0,5,2
00001058 00000000*     11905 	.word	.LDWlin45
0000105c 0c            11906 	.byte	12
0000105d 000502        11907 	.byte	0,5,2
00001060 00000000*     11908 	.word	.LDWlin46
00001064 0b            11909 	.byte	11

                                                                      Page 217
                                                              C:\Users\nhuliyap\AppData\Local\Temp\gh_0000ds81.s
00001065 0b            11910 	.byte	11
00001066 000502        11911 	.byte	0,5,2
00001069 00000000*     11912 	.word	.LDWlin47
0000106d 0b            11913 	.byte	11
0000106e 0b            11914 	.byte	11
0000106f 0b            11915 	.byte	11
00001070 000502        11916 	.byte	0,5,2
00001073 00000000*     11917 	.word	.LDWlin48
00001077 0c            11918 	.byte	12
00001078 000502        11919 	.byte	0,5,2
0000107b 00000000*     11920 	.word	.LDWlin49
0000107f 0b            11921 	.byte	11
00001080 0b            11922 	.byte	11
00001081 1b            11923 	.byte	27
00001082 23            11924 	.byte	35
00001083 000502        11925 	.byte	0,5,2
00001086 00000000*     11926 	.word	.LDWlin50
0000108a 0b            11927 	.byte	11
0000108b 1b            11928 	.byte	27
0000108c 13            11929 	.byte	19
0000108d 000502        11930 	.byte	0,5,2
00001090 00000000*     11931 	.word	.LDWlin51
00001094 0b            11932 	.byte	11
00001095 0b            11933 	.byte	11
00001096 0c            11934 	.byte	12
00001097 02            11935 	.byte	2
00001098 02            11936 	.byte	2
00001099 0c            11937 	.byte	12
0000109a 000502        11938 	.byte	0,5,2
0000109d 00000000*     11939 	.word	.LDWlin52
000010a1 0b            11940 	.byte	11
000010a2 0b            11941 	.byte	11
000010a3 23            11942 	.byte	35
000010a4 13            11943 	.byte	19
000010a5 000502        11944 	.byte	0,5,2
000010a8 00000000*     11945 	.word	.LDWlin53
000010ac 0b            11946 	.byte	11
000010ad 1b            11947 	.byte	27
000010ae 13            11948 	.byte	19
000010af 000502        11949 	.byte	0,5,2
000010b2 00000000*     11950 	.word	.LDWlin54
000010b6 0b            11951 	.byte	11
000010b7 0b            11952 	.byte	11
000010b8 0c            11953 	.byte	12
000010b9 02            11954 	.byte	2
000010ba 00            11955 	.byte	0
000010bb 03            11956 	.byte	3
000010bc 73            11957 	.byte	115
000010bd 02            11958 	.byte	2
000010be 00            11959 	.byte	0
000010bf 01            11960 	.byte	1
000010c0 000502        11961 	.byte	0,5,2
000010c3 00000000*     11962 	.word	.LDWlin55
000010c7 03            11963 	.byte	3
000010c8 0e            11964 	.byte	14
000010c9 02            11965 	.byte	2
000010ca 00            11966 	.byte	0
000010cb 01            11967 	.byte	1
000010cc 0b            11968 	.byte	11
000010cd 02            11969 	.byte	2
000010ce 00            11970 	.byte	0

                                                                      Page 218
                                                              C:\Users\nhuliyap\AppData\Local\Temp\gh_0000ds81.s
000010cf 0b            11971 	.byte	11
000010d0 02            11972 	.byte	2
000010d1 00            11973 	.byte	0
000010d2 0c            11974 	.byte	12
000010d3 06            11975 	.byte	6
000010d4 02            11976 	.byte	2
000010d5 02            11977 	.byte	2
000010d6 02            11978 	.byte	2
000010d7 04            11979 	.byte	4
000010d8 000101        11980 	.byte	0,1,1
                       11981 	.section	.debug_info
                       11982 .LDW_4cca6f8:
00002eb2 0f            11983 	.byte	15
00002eb3 5055385f5265  11984 	.strz	"PU8_ReqData"
00002eb9 714461746100 
00002ebf a709          11985 	.byte	167,9
00002ec1 33            11986 	.byte	51
00002ec2 01            11987 	.byte	1
00002ec3 00000000*     11988 	.word	.LDW_4cb7790
00002ec7 00            11989 	.byte	0
00002ec8 016c          11990 	.byte	1,108
                       11991 
                       11992 .LDW_4cc8978:
00002eca 1d            11993 	.byte	29
00002ecb 00000000*     11994 	.word	.LDW43
00002ecf 00000000*     11995 	.word	.LDW53
                       11996 
                       11997 .LDW_4cca7a8:
00002ed3 04            11998 	.byte	4
00002ed4 4155385f5365  11999 	.strz	"AU8_Service"
00002eda 727669636500 
00002ee0 a909          12000 	.byte	169,9
00002ee2 09            12001 	.byte	9
00002ee3 01            12002 	.byte	1
00002ee4 00000000*     12003 	.word	.LDW_4cdaa48
00002ee8 00            12004 	.byte	0
00002ee9 00            12005 	.byte	0
00002eea 0273          12006 	.byte	2,115
00002eec 02            12007 	.byte	2
                       12008 
                       12009 .LDW_4cca800:
00002eed 04            12010 	.byte	4
00002eee 55385f496478  12011 	.strz	"U8_Idx"
00002ef4 00 
00002ef5 a909          12012 	.byte	169,9
00002ef7 18            12013 	.byte	24
00002ef8 01            12014 	.byte	1
00002ef9 00000000*     12015 	.word	.LDW_4c438b8
00002efd 00            12016 	.byte	0
00002efe 00            12017 	.byte	0
00002eff 016d          12018 	.byte	1,109
                       12019 
                       12020 .LDW_4cca858:
00002f01 04            12021 	.byte	4
00002f02 55385f526574  12022 	.strz	"U8_Ret"
00002f08 00 
00002f09 aa09          12023 	.byte	170,9
00002f0b 09            12024 	.byte	9
00002f0c 01            12025 	.byte	1
00002f0d 00000000*     12026 	.word	.LDW_4c438b8
00002f11 00            12027 	.byte	0

                                                                      Page 219
                                                              C:\Users\nhuliyap\AppData\Local\Temp\gh_0000ds81.s
00002f12 00            12028 	.byte	0
00002f13 016b          12029 	.byte	1,107
                       12030 
                       12031 .LDW_4cca8b0:
00002f15 04            12032 	.byte	4
00002f16 55385f526574  12033 	.strz	"U8_RetVal"
00002f1c 56616c00 
00002f20 ab09          12034 	.byte	171,9
00002f22 09            12035 	.byte	9
00002f23 01            12036 	.byte	1
00002f24 00000000*     12037 	.word	.LDW_4c438b8
00002f28 00            12038 	.byte	0
00002f29 00            12039 	.byte	0
00002f2a 016a          12040 	.byte	1,106
                       12041 
                       12042 .LDW_4cca908:
00002f2c 04            12043 	.byte	4
00002f2d 5533325f5245  12044 	.strz	"U32_REId"
00002f33 496400 
00002f36 ac09          12045 	.byte	172,9
00002f38 0a            12046 	.byte	10
00002f39 01            12047 	.byte	1
00002f3a 00000000*     12048 	.word	.LDW_4cad198
00002f3e 00            12049 	.byte	0
00002f3f 00            12050 	.byte	0
00002f40 0273          12051 	.byte	2,115
00002f42 04            12052 	.byte	4
                       12053 
00002f43 00            12054 	.byte	0
                       12055 
00002f44 00            12056 	.byte	0
                       12057 
                       12058 .LDW_4cb6e10:
00002f45 13            12059 	.byte	19
00002f46 444941475f5f  12060 	.strz	"DIAG__GetVehicleSpecPara"
00002f4c 476574566568 
00002f52 69636c655370 
00002f58 656350617261 
00002f5e 00 
00002f5f dd09          12061 	.byte	221,9
00002f61 0d            12062 	.byte	13
00002f62 01            12063 	.byte	1
00002f63 00000000*     12064 	.word	_DIAG__GetVehicleSpecPara..C.3A.5C_ECU2.5CECU_Rivian_A1.5CTarget.5Crepo_projects.5CpRealEcu.5CcR_LATEST.5Cmake.5Coutput.5Cobjects.5CSwcApplTpms_Diag.
00002f67 00000000*     12065 	.word	___ghs_eofn_DIAG__GetVehicleSpecPara
00002f6b 0153          12066 	.byte	1,83
00002f6d 828080800a    12067 	.byte	130,128,128,128,10
00002f72 08            12068 	.byte	8
00002f73 03            12069 	.byte	3
00002f74 08            12070 	.byte	8
00002f75 00            12071 	.byte	0
00002f76 00            12072 	.byte	0
00002f77 00            12073 	.byte	0
00002f78 00            12074 	.byte	0
00002f79 01            12075 	.byte	1
00002f7a 00            12076 	.byte	0
00002f7b 01            12077 	.byte	1
                       12078 
                       12079 	.section	.debug_frame
                       12080 .LDW_4c2a620:
000005e4 00000000*     12081 	.word	.LDW_unq_50-.LDW_unq_4f
                       12082 .LDW_unq_4f:

                                                                      Page 220
                                                              C:\Users\nhuliyap\AppData\Local\Temp\gh_0000ds81.s
000005e8 00000000*     12083 	.word	.LDW_4c4f988
000005ec 00000000*     12084 	.word	_DIAG__GetVehicleSpecPara..C.3A.5C_ECU2.5CECU_Rivian_A1.5CTarget.5Crepo_projects.5CpRealEcu.5CcR_LATEST.5Cmake.5Coutput.5Cobjects.5CSwcApplTpms_Diag.
000005f0 00000000*     12085 	.word	___ghs_eofn_DIAG__GetVehicleSpecPara-_DIAG__GetVehicleSpecPara..C.3A.5C_ECU2.5CECU_Rivian_A1.5CTarget.5Crepo_projects.5CpRealEcu.5CcR_LATEST.5Cmake.5Coutput.5Cobjects.5CSwcApplTpms_Diag.
000005f4 44            12086 	.byte	68
000005f5 9f            12087 	.byte	159
000005f6 00            12088 	.byte	0
000005f7 40            12089 	.byte	64
000005f8 9d            12090 	.byte	157
000005f9 04            12091 	.byte	4
000005fa 01            12092 	.byte	1
000005fb 00000000*     12093 	.word	.LDW94
000005ff 44            12094 	.byte	68
00000600 df            12095 	.byte	223
00000601 40            12096 	.byte	64
00000602 dd            12097 	.byte	221
00000603 00            12098 	.byte	0
                       12099 .LDW_unq_50:
                       12100 	.section	.debug_line
000010db 000502        12101 	.byte	0,5,2
000010de 00000000*     12102 	.word	_DIAG__GetVehicleSpecPara..C.3A.5C_ECU2.5CECU_Rivian_A1.5CTarget.5Crepo_projects.5CpRealEcu.5CcR_LATEST.5Cmake.5Coutput.5Cobjects.5CSwcApplTpms_Diag.
000010e2 03            12103 	.byte	3
000010e3 dd09          12104 	.byte	221,9
000010e5 02            12105 	.byte	2
000010e6 00            12106 	.byte	0
000010e7 01            12107 	.byte	1
000010e8 06            12108 	.byte	6
000010e9 23            12109 	.byte	35
000010ea 000502        12110 	.byte	0,5,2
000010ed 00000000*     12111 	.word	.LDWlin80
000010f1 0c            12112 	.byte	12
000010f2 000502        12113 	.byte	0,5,2
000010f5 00000000*     12114 	.word	.LDWlin81
000010f9 0c            12115 	.byte	12
000010fa 000502        12116 	.byte	0,5,2
000010fd 00000000*     12117 	.word	.LDWlin82
00001101 0c            12118 	.byte	12
00001102 000502        12119 	.byte	0,5,2
00001105 00000000*     12120 	.word	.LDWlin83
00001109 0c            12121 	.byte	12
0000110a 02            12122 	.byte	2
0000110b 04            12123 	.byte	4
0000110c 000101        12124 	.byte	0,1,1
                       12125 	.section	.debug_info
                       12126 .LDW_4cca598:
00002f7c 0f            12127 	.byte	15
00002f7d 5055385f5265  12128 	.strz	"PU8_ResData"
00002f83 734461746100 
00002f89 dd09          12129 	.byte	221,9
00002f8b 2d            12130 	.byte	45
00002f8c 01            12131 	.byte	1
00002f8d 00000000*     12132 	.word	.LDW_4cb7790
00002f91 00            12133 	.byte	0
00002f92 016d          12134 	.byte	1,109
                       12135 
                       12136 .LDW_4cc9308:
00002f94 1d            12137 	.byte	29
00002f95 00000000*     12138 	.word	.LDW84
00002f99 00000000*     12139 	.word	.LDW94
                       12140 
00002f9d 00            12141 	.byte	0
                       12142 

                                                                      Page 221
                                                              C:\Users\nhuliyap\AppData\Local\Temp\gh_0000ds81.s
00002f9e 00            12143 	.byte	0
                       12144 
                       12145 .LDW_4cb6ea8:
00002f9f 13            12146 	.byte	19
00002fa0 444941475f5f  12147 	.strz	"DIAG__PutVehicleSpecPara"
00002fa6 507574566568 
00002fac 69636c655370 
00002fb2 656350617261 
00002fb8 00 
00002fb9 e909          12148 	.byte	233,9
00002fbb 0d            12149 	.byte	13
00002fbc 01            12150 	.byte	1
00002fbd 00000000*     12151 	.word	_DIAG__PutVehicleSpecPara..C.3A.5C_ECU2.5CECU_Rivian_A1.5CTarget.5Crepo_projects.5CpRealEcu.5CcR_LATEST.5Cmake.5Coutput.5Cobjects.5CSwcApplTpms_Diag.
00002fc1 00000000*     12152 	.word	___ghs_eofn_DIAG__PutVehicleSpecPara
00002fc5 0153          12153 	.byte	1,83
00002fc7 828080800a    12154 	.byte	130,128,128,128,10
00002fcc 08            12155 	.byte	8
00002fcd 03            12156 	.byte	3
00002fce 08            12157 	.byte	8
00002fcf 00            12158 	.byte	0
00002fd0 00            12159 	.byte	0
00002fd1 00            12160 	.byte	0
00002fd2 00            12161 	.byte	0
00002fd3 01            12162 	.byte	1
00002fd4 00            12163 	.byte	0
00002fd5 01            12164 	.byte	1
                       12165 
                       12166 	.section	.debug_frame
                       12167 .LDW_4c2ace0:
00000604 00000000*     12168 	.word	.LDW_unq_52-.LDW_unq_51
                       12169 .LDW_unq_51:
00000608 00000000*     12170 	.word	.LDW_4c4f988
0000060c 00000000*     12171 	.word	_DIAG__PutVehicleSpecPara..C.3A.5C_ECU2.5CECU_Rivian_A1.5CTarget.5Crepo_projects.5CpRealEcu.5CcR_LATEST.5Cmake.5Coutput.5Cobjects.5CSwcApplTpms_Diag.
00000610 00000000*     12172 	.word	___ghs_eofn_DIAG__PutVehicleSpecPara-_DIAG__PutVehicleSpecPara..C.3A.5C_ECU2.5CECU_Rivian_A1.5CTarget.5Crepo_projects.5CpRealEcu.5CcR_LATEST.5Cmake.5Coutput.5Cobjects.5CSwcApplTpms_Diag.
00000614 44            12173 	.byte	68
00000615 9f            12174 	.byte	159
00000616 00            12175 	.byte	0
00000617 40            12176 	.byte	64
00000618 9d            12177 	.byte	157
00000619 04            12178 	.byte	4
0000061a 01            12179 	.byte	1
0000061b 00000000*     12180 	.word	.LDW35
0000061f 44            12181 	.byte	68
00000620 df            12182 	.byte	223
00000621 40            12183 	.byte	64
00000622 dd            12184 	.byte	221
00000623 00            12185 	.byte	0
                       12186 .LDW_unq_52:
                       12187 	.section	.debug_line
0000110f 000502        12188 	.byte	0,5,2
00001112 00000000*     12189 	.word	_DIAG__PutVehicleSpecPara..C.3A.5C_ECU2.5CECU_Rivian_A1.5CTarget.5Crepo_projects.5CpRealEcu.5CcR_LATEST.5Cmake.5Coutput.5Cobjects.5CSwcApplTpms_Diag.
00001116 03            12190 	.byte	3
00001117 e909          12191 	.byte	233,9
00001119 02            12192 	.byte	2
0000111a 00            12193 	.byte	0
0000111b 01            12194 	.byte	1
0000111c 06            12195 	.byte	6
0000111d 24            12196 	.byte	36
0000111e 000502        12197 	.byte	0,5,2
00001121 00000000*     12198 	.word	.LDWlin87
00001125 0b            12199 	.byte	11

                                                                      Page 222
                                                              C:\Users\nhuliyap\AppData\Local\Temp\gh_0000ds81.s
00001126 000502        12200 	.byte	0,5,2
00001129 00000000*     12201 	.word	.LDWlin88
0000112d 0c            12202 	.byte	12
0000112e 000502        12203 	.byte	0,5,2
00001131 00000000*     12204 	.word	.LDWlin89
00001135 0b            12205 	.byte	11
00001136 02            12206 	.byte	2
00001137 04            12207 	.byte	4
00001138 000101        12208 	.byte	0,1,1
                       12209 	.section	.debug_info
                       12210 .LDW_4cca0c8:
00002fd6 0f            12211 	.byte	15
00002fd7 5055385f5265  12212 	.strz	"PU8_ReqData"
00002fdd 714461746100 
00002fe3 e909          12213 	.byte	233,9
00002fe5 2d            12214 	.byte	45
00002fe6 01            12215 	.byte	1
00002fe7 00000000*     12216 	.word	.LDW_4cb7790
00002feb 00            12217 	.byte	0
00002fec 016d          12218 	.byte	1,109
                       12219 
                       12220 .LDW_4cc9188:
00002fee 1d            12221 	.byte	29
00002fef 00000000*     12222 	.word	.LDW25
00002ff3 00000000*     12223 	.word	.LDW35
                       12224 
00002ff7 00            12225 	.byte	0
                       12226 
00002ff8 00            12227 	.byte	0
                       12228 
                       12229 .LDW_4cb6068:
00002ff9 13            12230 	.byte	19
00002ffa 444941475f5f  12231 	.strz	"DIAG__GetMinPressThresEE"
00003000 4765744d696e 
00003006 507265737354 
0000300c 687265734545 
00003012 00 
00003013 f209          12232 	.byte	242,9
00003015 0d            12233 	.byte	13
00003016 01            12234 	.byte	1
00003017 00000000*     12235 	.word	_DIAG__GetMinPressThresEE..C.3A.5C_ECU2.5CECU_Rivian_A1.5CTarget.5Crepo_projects.5CpRealEcu.5CcR_LATEST.5Cmake.5Coutput.5Cobjects.5CSwcApplTpms_Diag.
0000301b 00000000*     12236 	.word	___ghs_eofn_DIAG__GetMinPressThresEE
0000301f 0153          12237 	.byte	1,83
00003021 828080800a    12238 	.byte	130,128,128,128,10
00003026 08            12239 	.byte	8
00003027 03            12240 	.byte	3
00003028 08            12241 	.byte	8
00003029 00            12242 	.byte	0
0000302a 00            12243 	.byte	0
0000302b 00            12244 	.byte	0
0000302c 00            12245 	.byte	0
0000302d 01            12246 	.byte	1
0000302e 00            12247 	.byte	0
0000302f 01            12248 	.byte	1
                       12249 
                       12250 	.section	.debug_frame
                       12251 .LDW_4c2a220:
00000624 00000000*     12252 	.word	.LDW_unq_54-.LDW_unq_53
                       12253 .LDW_unq_53:
00000628 00000000*     12254 	.word	.LDW_4c4f988
0000062c 00000000*     12255 	.word	_DIAG__GetMinPressThresEE..C.3A.5C_ECU2.5CECU_Rivian_A1.5CTarget.5Crepo_projects.5CpRealEcu.5CcR_LATEST.5Cmake.5Coutput.5Cobjects.5CSwcApplTpms_Diag.

                                                                      Page 223
                                                              C:\Users\nhuliyap\AppData\Local\Temp\gh_0000ds81.s
00000630 00000000*     12256 	.word	___ghs_eofn_DIAG__GetMinPressThresEE-_DIAG__GetMinPressThresEE..C.3A.5C_ECU2.5CECU_Rivian_A1.5CTarget.5Crepo_projects.5CpRealEcu.5CcR_LATEST.5Cmake.5Coutput.5Cobjects.5CSwcApplTpms_Diag.
00000634 44            12257 	.byte	68
00000635 9f            12258 	.byte	159
00000636 00            12259 	.byte	0
00000637 40            12260 	.byte	64
00000638 9d            12261 	.byte	157
00000639 04            12262 	.byte	4
0000063a 01            12263 	.byte	1
0000063b 00000000*     12264 	.word	.LDW36
0000063f 44            12265 	.byte	68
00000640 df            12266 	.byte	223
00000641 40            12267 	.byte	64
00000642 dd            12268 	.byte	221
00000643 00            12269 	.byte	0
                       12270 .LDW_unq_54:
                       12271 	.section	.debug_line
0000113b 000502        12272 	.byte	0,5,2
0000113e 00000000*     12273 	.word	_DIAG__GetMinPressThresEE..C.3A.5C_ECU2.5CECU_Rivian_A1.5CTarget.5Crepo_projects.5CpRealEcu.5CcR_LATEST.5Cmake.5Coutput.5Cobjects.5CSwcApplTpms_Diag.
00001142 03            12274 	.byte	3
00001143 f209          12275 	.byte	242,9
00001145 02            12276 	.byte	2
00001146 00            12277 	.byte	0
00001147 01            12278 	.byte	1
00001148 06            12279 	.byte	6
00001149 23            12280 	.byte	35
0000114a 000502        12281 	.byte	0,5,2
0000114d 00000000*     12282 	.word	.LDWlin112
00001151 0b            12283 	.byte	11
00001152 02            12284 	.byte	2
00001153 04            12285 	.byte	4
00001154 000101        12286 	.byte	0,1,1
                       12287 	.section	.debug_info
                       12288 .LDW_4cca1d0:
00003030 0f            12289 	.byte	15
00003031 5055385f5265  12290 	.strz	"PU8_ResData"
00003037 734461746100 
0000303d f209          12291 	.byte	242,9
0000303f 2d            12292 	.byte	45
00003040 01            12293 	.byte	1
00003041 00000000*     12294 	.word	.LDW_4cb7790
00003045 00            12295 	.byte	0
00003046 016d          12296 	.byte	1,109
                       12297 
                       12298 .LDW_4cc9248:
00003048 1d            12299 	.byte	29
00003049 00000000*     12300 	.word	.LDW26
0000304d 00000000*     12301 	.word	.LDW36
                       12302 
00003051 00            12303 	.byte	0
                       12304 
00003052 00            12305 	.byte	0
                       12306 
                       12307 .LDW_4cb6f40:
00003053 13            12308 	.byte	19
00003054 444941475f5f  12309 	.strz	"DIAG__PutMinPressThresEE"
0000305a 5075744d696e 
00003060 507265737354 
00003066 687265734545 
0000306c 00 
0000306d f709          12310 	.byte	247,9
0000306f 0d            12311 	.byte	13

                                                                      Page 224
                                                              C:\Users\nhuliyap\AppData\Local\Temp\gh_0000ds81.s
00003070 01            12312 	.byte	1
00003071 00000000*     12313 	.word	_DIAG__PutMinPressThresEE..C.3A.5C_ECU2.5CECU_Rivian_A1.5CTarget.5Crepo_projects.5CpRealEcu.5CcR_LATEST.5Cmake.5Coutput.5Cobjects.5CSwcApplTpms_Diag.
00003075 00000000*     12314 	.word	___ghs_eofn_DIAG__PutMinPressThresEE
00003079 0153          12315 	.byte	1,83
0000307b 8280808008    12316 	.byte	130,128,128,128,8
00003080 04            12317 	.byte	4
00003081 03            12318 	.byte	3
00003082 04            12319 	.byte	4
00003083 00            12320 	.byte	0
00003084 00            12321 	.byte	0
00003085 00            12322 	.byte	0
00003086 00            12323 	.byte	0
00003087 01            12324 	.byte	1
00003088 00            12325 	.byte	0
00003089 01            12326 	.byte	1
                       12327 
                       12328 	.section	.debug_frame
                       12329 .LDW_4c2a9a0:
00000644 00000000*     12330 	.word	.LDW_unq_56-.LDW_unq_55
                       12331 .LDW_unq_55:
00000648 00000000*     12332 	.word	.LDW_4c4f988
0000064c 00000000*     12333 	.word	_DIAG__PutMinPressThresEE..C.3A.5C_ECU2.5CECU_Rivian_A1.5CTarget.5Crepo_projects.5CpRealEcu.5CcR_LATEST.5Cmake.5Coutput.5Cobjects.5CSwcApplTpms_Diag.
00000650 00000000*     12334 	.word	___ghs_eofn_DIAG__PutMinPressThresEE-_DIAG__PutMinPressThresEE..C.3A.5C_ECU2.5CECU_Rivian_A1.5CTarget.5Crepo_projects.5CpRealEcu.5CcR_LATEST.5Cmake.5Coutput.5Cobjects.5CSwcApplTpms_Diag.
00000654 44            12335 	.byte	68
00000655 9f            12336 	.byte	159
00000656 00            12337 	.byte	0
00000657 01            12338 	.byte	1
00000658 00000000*     12339 	.word	.LDW55
0000065c 44            12340 	.byte	68
0000065d df            12341 	.byte	223
0000065e 00            12342 	.byte	0
0000065f 00            12343 	.byte	0
                       12344 .LDW_unq_56:
                       12345 	.section	.debug_line
00001157 000502        12346 	.byte	0,5,2
0000115a 00000000*     12347 	.word	_DIAG__PutMinPressThresEE..C.3A.5C_ECU2.5CECU_Rivian_A1.5CTarget.5Crepo_projects.5CpRealEcu.5CcR_LATEST.5Cmake.5Coutput.5Cobjects.5CSwcApplTpms_Diag.
0000115e 03            12348 	.byte	3
0000115f f709          12349 	.byte	247,9
00001161 02            12350 	.byte	2
00001162 00            12351 	.byte	0
00001163 01            12352 	.byte	1
00001164 06            12353 	.byte	6
00001165 23            12354 	.byte	35
00001166 000502        12355 	.byte	0,5,2
00001169 00000000*     12356 	.word	.LDWlin90
0000116d 0c            12357 	.byte	12
0000116e 000502        12358 	.byte	0,5,2
00001171 00000000*     12359 	.word	.LDWlin91
00001175 0b            12360 	.byte	11
00001176 02            12361 	.byte	2
00001177 04            12362 	.byte	4
00001178 000101        12363 	.byte	0,1,1
                       12364 	.section	.debug_info
                       12365 .LDW_4cca388:
0000308a 0f            12366 	.byte	15
0000308b 5055385f5265  12367 	.strz	"PU8_ReqData"
00003091 714461746100 
00003097 f709          12368 	.byte	247,9
00003099 2d            12369 	.byte	45
0000309a 01            12370 	.byte	1
0000309b 00000000*     12371 	.word	.LDW_4cb7790

                                                                      Page 225
                                                              C:\Users\nhuliyap\AppData\Local\Temp\gh_0000ds81.s
0000309f 00            12372 	.byte	0
000030a0 016e          12373 	.byte	1,110
                       12374 
                       12375 .LDW_4cc93c8:
000030a2 1d            12376 	.byte	29
000030a3 00000000*     12377 	.word	.LDW45
000030a7 00000000*     12378 	.word	.LDW55
                       12379 
000030ab 00            12380 	.byte	0
                       12381 
000030ac 00            12382 	.byte	0
                       12383 
                       12384 .LDW_4cdb220:
000030ad 13            12385 	.byte	19
000030ae 444941475f5f  12386 	.strz	"DIAG__EOLRoutineStart"
000030b4 454f4c526f75 
000030ba 74696e655374 
000030c0 61727400 
000030c4 fe09          12387 	.byte	254,9
000030c6 0d            12388 	.byte	13
000030c7 01            12389 	.byte	1
000030c8 00000000*     12390 	.word	_DIAG__EOLRoutineStart..C.3A.5C_ECU2.5CECU_Rivian_A1.5CTarget.5Crepo_projects.5CpRealEcu.5CcR_LATEST.5Cmake.5Coutput.5Cobjects.5CSwcApplTpms_Diag.
000030cc 00000000*     12391 	.word	___ghs_eofn_DIAG__EOLRoutineStart
000030d0 0153          12392 	.byte	1,83
000030d2 828080800a    12393 	.byte	130,128,128,128,10
000030d7 08            12394 	.byte	8
000030d8 03            12395 	.byte	3
000030d9 08            12396 	.byte	8
000030da 00            12397 	.byte	0
000030db 00            12398 	.byte	0
000030dc 00            12399 	.byte	0
000030dd 00            12400 	.byte	0
000030de 01            12401 	.byte	1
000030df 00            12402 	.byte	0
000030e0 01            12403 	.byte	1
                       12404 
                       12405 	.section	.debug_frame
                       12406 .LDW_4e23e18:
00000660 00000000*     12407 	.word	.LDW_unq_58-.LDW_unq_57
                       12408 .LDW_unq_57:
00000664 00000000*     12409 	.word	.LDW_4c4f988
00000668 00000000*     12410 	.word	_DIAG__EOLRoutineStart..C.3A.5C_ECU2.5CECU_Rivian_A1.5CTarget.5Crepo_projects.5CpRealEcu.5CcR_LATEST.5Cmake.5Coutput.5Cobjects.5CSwcApplTpms_Diag.
0000066c 00000000*     12411 	.word	___ghs_eofn_DIAG__EOLRoutineStart-_DIAG__EOLRoutineStart..C.3A.5C_ECU2.5CECU_Rivian_A1.5CTarget.5Crepo_projects.5CpRealEcu.5CcR_LATEST.5Cmake.5Coutput.5Cobjects.5CSwcApplTpms_Diag.
00000670 44            12412 	.byte	68
00000671 9f            12413 	.byte	159
00000672 00            12414 	.byte	0
00000673 40            12415 	.byte	64
00000674 9d            12416 	.byte	157
00000675 04            12417 	.byte	4
00000676 01            12418 	.byte	1
00000677 00000000*     12419 	.word	.LDW98
0000067b 44            12420 	.byte	68
0000067c df            12421 	.byte	223
0000067d 40            12422 	.byte	64
0000067e dd            12423 	.byte	221
0000067f 00            12424 	.byte	0
                       12425 .LDW_unq_58:
                       12426 	.section	.debug_line
0000117b 000502        12427 	.byte	0,5,2
0000117e 00000000*     12428 	.word	_DIAG__EOLRoutineStart..C.3A.5C_ECU2.5CECU_Rivian_A1.5CTarget.5Crepo_projects.5CpRealEcu.5CcR_LATEST.5Cmake.5Coutput.5Cobjects.5CSwcApplTpms_Diag.
00001182 03            12429 	.byte	3

                                                                      Page 226
                                                              C:\Users\nhuliyap\AppData\Local\Temp\gh_0000ds81.s
00001183 fe09          12430 	.byte	254,9
00001185 02            12431 	.byte	2
00001186 00            12432 	.byte	0
00001187 01            12433 	.byte	1
00001188 06            12434 	.byte	6
00001189 2b            12435 	.byte	43
0000118a 000502        12436 	.byte	0,5,2
0000118d 00000000*     12437 	.word	.LDWlin155
00001191 0b            12438 	.byte	11
00001192 02            12439 	.byte	2
00001193 04            12440 	.byte	4
00001194 000101        12441 	.byte	0,1,1
                       12442 	.section	.debug_info
                       12443 .LDW_4cc9eb8:
000030e1 0f            12444 	.byte	15
000030e2 5055385f5265  12445 	.strz	"PU8_ReqData"
000030e8 714461746100 
000030ee fe09          12446 	.byte	254,9
000030f0 2a            12447 	.byte	42
000030f1 01            12448 	.byte	1
000030f2 00000000*     12449 	.word	.LDW_4cb7790
000030f6 00            12450 	.byte	0
000030f7 016e          12451 	.byte	1,110
                       12452 
                       12453 .LDW_4cca280:
000030f9 0f            12454 	.byte	15
000030fa 5055385f5265  12455 	.strz	"PU8_ResData"
00003100 734461746100 
00003106 fe09          12456 	.byte	254,9
00003108 3e            12457 	.byte	62
00003109 01            12458 	.byte	1
0000310a 00000000*     12459 	.word	.LDW_4cb7790
0000310e 00            12460 	.byte	0
0000310f 016d          12461 	.byte	1,109
                       12462 
                       12463 .LDW_4cc8fd8:
00003111 1d            12464 	.byte	29
00003112 00000000*     12465 	.word	.LDW88
00003116 00000000*     12466 	.word	.LDW98
                       12467 
0000311a 00            12468 	.byte	0
                       12469 
0000311b 00            12470 	.byte	0
                       12471 
                       12472 .LDW_4cdbd68:
0000311c 13            12473 	.byte	19
0000311d 444941475f5f  12474 	.strz	"DIAG__EOLRoutineReqResponse"
00003123 454f4c526f75 
00003129 74696e655265 
0000312f 71526573706f 
00003135 6e736500 
00003139 830a          12475 	.byte	131,10
0000313b 0d            12476 	.byte	13
0000313c 01            12477 	.byte	1
0000313d 00000000*     12478 	.word	_DIAG__EOLRoutineReqResponse..C.3A.5C_ECU2.5CECU_Rivian_A1.5CTarget.5Crepo_projects.5CpRealEcu.5CcR_LATEST.5Cmake.5Coutput.5Cobjects.5CSwcApplTpms_Diag.
00003141 00000000*     12479 	.word	___ghs_eofn_DIAG__EOLRoutineReqResponse
00003145 0153          12480 	.byte	1,83
00003147 828080800a    12481 	.byte	130,128,128,128,10
0000314c 08            12482 	.byte	8
0000314d 03            12483 	.byte	3
0000314e 08            12484 	.byte	8

                                                                      Page 227
                                                              C:\Users\nhuliyap\AppData\Local\Temp\gh_0000ds81.s
0000314f 00            12485 	.byte	0
00003150 00            12486 	.byte	0
00003151 00            12487 	.byte	0
00003152 00            12488 	.byte	0
00003153 01            12489 	.byte	1
00003154 00            12490 	.byte	0
00003155 01            12491 	.byte	1
                       12492 
                       12493 	.section	.debug_frame
                       12494 .LDW_4e23f58:
00000680 00000000*     12495 	.word	.LDW_unq_5a-.LDW_unq_59
                       12496 .LDW_unq_59:
00000684 00000000*     12497 	.word	.LDW_4c4f988
00000688 00000000*     12498 	.word	_DIAG__EOLRoutineReqResponse..C.3A.5C_ECU2.5CECU_Rivian_A1.5CTarget.5Crepo_projects.5CpRealEcu.5CcR_LATEST.5Cmake.5Coutput.5Cobjects.5CSwcApplTpms_Diag.
0000068c 00000000*     12499 	.word	___ghs_eofn_DIAG__EOLRoutineReqResponse-_DIAG__EOLRoutineReqResponse..C.3A.5C_ECU2.5CECU_Rivian_A1.5CTarget.5Crepo_projects.5CpRealEcu.5CcR_LATEST.5Cmake.5Coutput.5Cobjects.5CSwcApplTpms_Diag.
00000690 44            12500 	.byte	68
00000691 9f            12501 	.byte	159
00000692 00            12502 	.byte	0
00000693 40            12503 	.byte	64
00000694 9d            12504 	.byte	157
00000695 04            12505 	.byte	4
00000696 01            12506 	.byte	1
00000697 00000000*     12507 	.word	.LDW19
0000069b 00            12508 	.byte	0
                       12509 .LDW_unq_5a:
                       12510 	.section	.debug_line
00001197 000502        12511 	.byte	0,5,2
0000119a 00000000*     12512 	.word	_DIAG__EOLRoutineReqResponse..C.3A.5C_ECU2.5CECU_Rivian_A1.5CTarget.5Crepo_projects.5CpRealEcu.5CcR_LATEST.5Cmake.5Coutput.5Cobjects.5CSwcApplTpms_Diag.
0000119e 03            12513 	.byte	3
0000119f 830a          12514 	.byte	131,10
000011a1 02            12515 	.byte	2
000011a2 00            12516 	.byte	0
000011a3 01            12517 	.byte	1
000011a4 06            12518 	.byte	6
000011a5 24            12519 	.byte	36
000011a6 000502        12520 	.byte	0,5,2
000011a9 00000000*     12521 	.word	.LDWlin156
000011ad 0b            12522 	.byte	11
000011ae 000502        12523 	.byte	0,5,2
000011b1 00000000*     12524 	.word	.LDWlin157
000011b5 0b            12525 	.byte	11
000011b6 0c            12526 	.byte	12
000011b7 000502        12527 	.byte	0,5,2
000011ba 00000000*     12528 	.word	.LDWlin158
000011be 0b            12529 	.byte	11
000011bf 13            12530 	.byte	19
000011c0 0b            12531 	.byte	11
000011c1 0c            12532 	.byte	12
000011c2 02            12533 	.byte	2
000011c3 00            12534 	.byte	0
000011c4 0b            12535 	.byte	11
000011c5 1b            12536 	.byte	27
000011c6 02            12537 	.byte	2
000011c7 04            12538 	.byte	4
000011c8 000101        12539 	.byte	0,1,1
                       12540 	.section	.debug_info
                       12541 .LDW_4cc9990:
00003156 0f            12542 	.byte	15
00003157 5055385f5265  12543 	.strz	"PU8_ResData"
0000315d 734461746100 
00003163 830a          12544 	.byte	131,10

                                                                      Page 228
                                                              C:\Users\nhuliyap\AppData\Local\Temp\gh_0000ds81.s
00003165 30            12545 	.byte	48
00003166 01            12546 	.byte	1
00003167 00000000*     12547 	.word	.LDW_4cb7790
0000316b 00            12548 	.byte	0
0000316c 016d          12549 	.byte	1,109
                       12550 
                       12551 .LDW_4cc92a8:
0000316e 1d            12552 	.byte	29
0000316f 00000000*     12553 	.word	.LDW09
00003173 00000000*     12554 	.word	.LDW19
                       12555 
                       12556 .LDW_4cc9b48:
00003177 04            12557 	.byte	4
00003178 7563526f7574  12558 	.strz	"ucRoutineStatusValue"
0000317e 696e65537461 
00003184 74757356616c 
0000318a 756500 
0000318d 850a          12559 	.byte	133,10
0000318f 09            12560 	.byte	9
00003190 01            12561 	.byte	1
00003191 00000000*     12562 	.word	.LDW_4c438b8
00003195 00            12563 	.byte	0
00003196 00            12564 	.byte	0
00003197 015a          12565 	.byte	1,90
                       12566 
00003199 00            12567 	.byte	0
                       12568 
0000319a 00            12569 	.byte	0
                       12570 
                       12571 .LDW_4cdb188:
0000319b 14            12572 	.byte	20
0000319c 48756649665f  12573 	.strz	"HufIf_DiagReqCallback"
000031a2 446961675265 
000031a8 7143616c6c62 
000031ae 61636b00 
000031b2 930a          12574 	.byte	147,10
000031b4 07            12575 	.byte	7
000031b5 01            12576 	.byte	1
000031b6 00000000*     12577 	.word	.LDW_4c438b8
000031ba 00000000*     12578 	.word	_HufIf_DiagReqCallback
000031be 00000000*     12579 	.word	___ghs_eofn_HufIf_DiagReqCallback
000031c2 0153          12580 	.byte	1,83
000031c4 828080c00b    12581 	.byte	130,128,128,192,11
000031c9 10            12582 	.byte	16
000031ca 03            12583 	.byte	3
000031cb 10            12584 	.byte	16
000031cc 00            12585 	.byte	0
000031cd 00            12586 	.byte	0
000031ce 00            12587 	.byte	0
000031cf 01            12588 	.byte	1
000031d0 01            12589 	.byte	1
000031d1 00            12590 	.byte	0
000031d2 01            12591 	.byte	1
                       12592 
                       12593 	.section	.debug_frame
                       12594 .LDW_4e23dd8:
0000069c 00000000*     12595 	.word	.LDW_unq_5c-.LDW_unq_5b
                       12596 .LDW_unq_5b:
000006a0 00000000*     12597 	.word	.LDW_4c4f988
000006a4 00000000*     12598 	.word	_HufIf_DiagReqCallback
000006a8 00000000*     12599 	.word	___ghs_eofn_HufIf_DiagReqCallback-_HufIf_DiagReqCallback

                                                                      Page 229
                                                              C:\Users\nhuliyap\AppData\Local\Temp\gh_0000ds81.s
000006ac 44            12600 	.byte	68
000006ad 9f            12601 	.byte	159
000006ae 00            12602 	.byte	0
000006af 40            12603 	.byte	64
000006b0 9d            12604 	.byte	157
000006b1 04            12605 	.byte	4
000006b2 40            12606 	.byte	64
000006b3 9c            12607 	.byte	156
000006b4 08            12608 	.byte	8
000006b5 40            12609 	.byte	64
000006b6 9b            12610 	.byte	155
000006b7 0c            12611 	.byte	12
000006b8 01            12612 	.byte	1
000006b9 00000000*     12613 	.word	.LDW99
000006bd 00            12614 	.byte	0
000006be 00            12615 	.byte	0
000006bf 00            12616 	.byte	0
                       12617 .LDW_unq_5c:
                       12618 	.section	.debug_line
000011cb 000502        12619 	.byte	0,5,2
000011ce 00000000*     12620 	.word	_HufIf_DiagReqCallback
000011d2 03            12621 	.byte	3
000011d3 930a          12622 	.byte	147,10
000011d5 02            12623 	.byte	2
000011d6 00            12624 	.byte	0
000011d7 01            12625 	.byte	1
000011d8 06            12626 	.byte	6
000011d9 03            12627 	.byte	3
000011da 04            12628 	.byte	4
000011db 02            12629 	.byte	2
000011dc 0a            12630 	.byte	10
000011dd 01            12631 	.byte	1
000011de 02            12632 	.byte	2
000011df 02            12633 	.byte	2
000011e0 0c            12634 	.byte	12
000011e1 000502        12635 	.byte	0,5,2
000011e4 00000000*     12636 	.word	.LDWlin180
000011e8 0b            12637 	.byte	11
000011e9 0b            12638 	.byte	11
000011ea 000502        12639 	.byte	0,5,2
000011ed 00000000*     12640 	.word	.LDWlin181
000011f1 0b            12641 	.byte	11
000011f2 0b            12642 	.byte	11
000011f3 000502        12643 	.byte	0,5,2
000011f6 00000000*     12644 	.word	.LDWlin182
000011fa 03            12645 	.byte	3
000011fb 05            12646 	.byte	5
000011fc 02            12647 	.byte	2
000011fd 00            12648 	.byte	0
000011fe 01            12649 	.byte	1
000011ff 02            12650 	.byte	2
00001200 00            12651 	.byte	0
00001201 0d            12652 	.byte	13
00001202 02            12653 	.byte	2
00001203 00            12654 	.byte	0
00001204 03            12655 	.byte	3
00001205 72            12656 	.byte	114
00001206 02            12657 	.byte	2
00001207 00            12658 	.byte	0
00001208 01            12659 	.byte	1
00001209 000502        12660 	.byte	0,5,2

                                                                      Page 230
                                                              C:\Users\nhuliyap\AppData\Local\Temp\gh_0000ds81.s
0000120c 00000000*     12661 	.word	.LDWlin183
00001210 03            12662 	.byte	3
00001211 0f            12663 	.byte	15
00001212 02            12664 	.byte	2
00001213 00            12665 	.byte	0
00001214 01            12666 	.byte	1
00001215 0c            12667 	.byte	12
00001216 06            12668 	.byte	6
00001217 03            12669 	.byte	3
00001218 79            12670 	.byte	121
00001219 02            12671 	.byte	2
0000121a 00            12672 	.byte	0
0000121b 01            12673 	.byte	1
0000121c 06            12674 	.byte	6
0000121d 03            12675 	.byte	3
0000121e 08            12676 	.byte	8
0000121f 02            12677 	.byte	2
00001220 00            12678 	.byte	0
00001221 01            12679 	.byte	1
00001222 0c            12680 	.byte	12
00001223 1b            12681 	.byte	27
00001224 0b            12682 	.byte	11
00001225 0c            12683 	.byte	12
00001226 02            12684 	.byte	2
00001227 00            12685 	.byte	0
00001228 0c            12686 	.byte	12
00001229 000502        12687 	.byte	0,5,2
0000122c 00000000*     12688 	.word	.LDWlin184
00001230 0c            12689 	.byte	12
00001231 06            12690 	.byte	6
00001232 02            12691 	.byte	2
00001233 02            12692 	.byte	2
00001234 02            12693 	.byte	2
00001235 04            12694 	.byte	4
00001236 000101        12695 	.byte	0,1,1
                       12696 	.section	.debug_info
                       12697 .LDW_4cca178:
000031d3 0f            12698 	.byte	15
000031d4 654469616752  12699 	.strz	"eDiagRequest"
000031da 657175657374 
000031e0 00 
000031e1 930a          12700 	.byte	147,10
000031e3 3e            12701 	.byte	62
000031e4 01            12702 	.byte	1
000031e5 00000000*     12703 	.word	.LDW_4cc9ba0
000031e9 00            12704 	.byte	0
000031ea 016c          12705 	.byte	1,108
                       12706 
                       12707 .LDW_4cca228:
000031ec 0f            12708 	.byte	15
000031ed 50535f4d7367  12709 	.strz	"PS_MsgContext"
000031f3 436f6e746578 
000031f9 7400 
000031fb 930a          12710 	.byte	147,10
000031fd 5d            12711 	.byte	93
000031fe 01            12712 	.byte	1
000031ff 00000000*     12713 	.word	.LDW_48771f0
00003203 00            12714 	.byte	0
00003204 016b          12715 	.byte	1,107
                       12716 
                       12717 .LDW_4cc90c8:

                                                                      Page 231
                                                              C:\Users\nhuliyap\AppData\Local\Temp\gh_0000ds81.s
00003206 1d            12718 	.byte	29
00003207 00000000*     12719 	.word	.LDW89
0000320b 00000000*     12720 	.word	.LDW99
                       12721 
                       12722 .LDW_4cc9a98:
0000320f 04            12723 	.byte	4
00003210 55385f526574  12724 	.strz	"U8_RetVal"
00003216 56616c00 
0000321a 950a          12725 	.byte	149,10
0000321c 09            12726 	.byte	9
0000321d 01            12727 	.byte	1
0000321e 00000000*     12728 	.word	.LDW_4c438b8
00003222 00            12729 	.byte	0
00003223 00            12730 	.byte	0
00003224 016d          12731 	.byte	1,109
                       12732 
                       12733 .LDW_4cca2d8:
00003226 04            12734 	.byte	4
00003227 55385f496e64  12735 	.strz	"U8_Index"
0000322d 657800 
00003230 960a          12736 	.byte	150,10
00003232 09            12737 	.byte	9
00003233 01            12738 	.byte	1
00003234 00000000*     12739 	.word	.LDW_4c438b8
00003238 00            12740 	.byte	0
00003239 00            12741 	.byte	0
0000323a 0162          12742 	.byte	1,98
                       12743 
0000323c 00            12744 	.byte	0
                       12745 
0000323d 00            12746 	.byte	0
                       12747 
0000323e 00            12748 	.byte	0
                       12749 
                       12750 	.section	.debug_line
                       12751 .Ldw_line_end:
                       12752 	.section	.debug_macinfo
00000000 01            12753 	.byte	1
00000001 00            12754 	.byte	0
00000002 5f5f6768735f  12755 	.strz	"__ghs__ 1"
00000008 5f203100 
0000000c 01            12756 	.byte	1
0000000d 00            12757 	.byte	0
0000000e 5f5f4c4c4f4e  12758 	.strz	"__LLONG_BIT 64"
00000014 475f42495420 
0000001a 363400 
0000001d 03            12759 	.byte	3
0000001e 00            12760 	.byte	0
0000001f 01            12761 	.byte	1
00000020 03            12762 	.byte	3
00000021 01            12763 	.byte	1
00000022 02            12764 	.byte	2
00000023 03            12765 	.byte	3
00000024 1c            12766 	.byte	28
00000025 03            12767 	.byte	3
00000026 01            12768 	.byte	1
00000027 3c            12769 	.byte	60
00000028 545255452031  12770 	.strz	"TRUE 1u"
0000002e 7500 
00000030 01            12771 	.byte	1
00000031 40            12772 	.byte	64

                                                                      Page 232
                                                              C:\Users\nhuliyap\AppData\Local\Temp\gh_0000ds81.s
00000032 46414c534520  12773 	.strz	"FALSE 0u"
00000038 307500 
0000003b 04            12774 	.byte	4
0000003c 03            12775 	.byte	3
0000003d 1d            12776 	.byte	29
0000003e 04            12777 	.byte	4
0000003f 03            12778 	.byte	3
00000040 1b            12779 	.byte	27
00000041 05            12780 	.byte	5
00000042 03            12781 	.byte	3
00000043 54            12782 	.byte	84
00000044 06            12783 	.byte	6
00000045 04            12784 	.byte	4
00000046 04            12785 	.byte	4
00000047 04            12786 	.byte	4
00000048 04            12787 	.byte	4
00000049 03            12788 	.byte	3
0000004a 03            12789 	.byte	3
0000004b 07            12790 	.byte	7
0000004c 03            12791 	.byte	3
0000004d 04            12792 	.byte	4
0000004e 08            12793 	.byte	8
0000004f 03            12794 	.byte	3
00000050 04            12795 	.byte	4
00000051 09            12796 	.byte	9
00000052 04            12797 	.byte	4
00000053 01            12798 	.byte	1
00000054 0e            12799 	.byte	14
00000055 50524f445543  12800 	.strz	"PRODUCTION_SW 0x0"
0000005b 54494f4e5f53 
00000061 572030783000 
00000067 01            12801 	.byte	1
00000068 0f            12802 	.byte	15
00000069 444556454c4f  12803 	.strz	"DEVELOPMENT_SW 0x1"
0000006f 504d454e545f 
00000075 535720307831 
0000007b 00 
0000007c 01            12804 	.byte	1
0000007d 10            12805 	.byte	16
0000007e 53575f434154  12806 	.strz	"SW_CATEGORY PRODUCTION_SW"
00000084 45474f525920 
0000008a 50524f445543 
00000090 54494f4e5f53 
00000096 5700 
00000098 04            12807 	.byte	4
00000099 01            12808 	.byte	1
0000009a 06            12809 	.byte	6
0000009b 4d41585f5349  12810 	.strz	"MAX_SIZE_WS_TELEGRAM 16U"
000000a1 5a455f57535f 
000000a7 54454c454752 
000000ad 414d20313655 
000000b3 00 
000000b4 01            12811 	.byte	1
000000b5 0e            12812 	.byte	14
000000b6 4e564d5f424c  12813 	.strz	"NVM_BLOCK_TYPE uint32"
000000bc 4f434b5f5459 
000000c2 50452075696e 
000000c8 74333200 
000000cc 04            12814 	.byte	4
000000cd 03            12815 	.byte	3
000000ce 04            12816 	.byte	4

                                                                      Page 233
                                                              C:\Users\nhuliyap\AppData\Local\Temp\gh_0000ds81.s
000000cf 0a            12817 	.byte	10
000000d0 03            12818 	.byte	3
000000d1 06            12819 	.byte	6
000000d2 0b            12820 	.byte	11
000000d3 04            12821 	.byte	4
000000d4 01            12822 	.byte	1
000000d5 13            12823 	.byte	19
000000d6 5245545f4552  12824 	.strz	"RET_ERROR 0x01u"
000000dc 524f52203078 
000000e2 30317500 
000000e6 01            12825 	.byte	1
000000e7 18            12826 	.byte	24
000000e8 53454e534f52  12827 	.strz	"SENSOR_AUFLOESUNG_25MBAR "
000000ee 5f4155464c4f 
000000f4 4553554e475f 
000000fa 32354d424152 
00000100 2000 
00000102 04            12828 	.byte	4
00000103 03            12829 	.byte	3
00000104 05            12830 	.byte	5
00000105 0c            12831 	.byte	12
00000106 01            12832 	.byte	1
00000107 0e            12833 	.byte	14
00000108 70625f514143  12834 	.strz	"pb_QACStatic_160503 "
0000010e 537461746963 
00000114 5f3136303530 
0000011a 332000 
0000011d 01            12835 	.byte	1
0000011e 16            12836 	.byte	22
0000011f 75634d617850  12837 	.strz	"ucMaxPosc 4"
00000125 6f7363203400 
0000012b 01            12838 	.byte	1
0000012c 17            12839 	.byte	23
0000012d 756353756d57  12840 	.strz	"ucSumWEc (unsigned char) 4"
00000133 45632028756e 
00000139 7369676e6564 
0000013f 206368617229 
00000145 203400 
00000148 01            12841 	.byte	1
00000149 1c            12842 	.byte	28
0000014a 756343644964  12843 	.strz	"ucCdIdWNc (unsigned short) 2"
00000150 574e63202875 
00000156 6e7369676e65 
0000015c 642073686f72 
00000162 7429203200 
00000167 04            12844 	.byte	4
00000168 03            12845 	.byte	3
00000169 06            12846 	.byte	6
0000016a 0d            12847 	.byte	13
0000016b 03            12848 	.byte	3
0000016c 04            12849 	.byte	4
0000016d 0e            12850 	.byte	14
0000016e 03            12851 	.byte	3
0000016f 05            12852 	.byte	5
00000170 0f            12853 	.byte	15
00000171 04            12854 	.byte	4
00000172 01            12855 	.byte	1
00000173 0a            12856 	.byte	10
00000174 63526164506f  12857 	.strz	"cRadPosVL ( (uint8) 0 )"
0000017a 73564c202820 
00000180 2875696e7438 

                                                                      Page 234
                                                              C:\Users\nhuliyap\AppData\Local\Temp\gh_0000ds81.s
00000186 292030202900 
0000018c 01            12858 	.byte	1
0000018d 0b            12859 	.byte	11
0000018e 63526164506f  12860 	.strz	"cRadPosVR ( (uint8) 1 )"
00000194 735652202820 
0000019a 2875696e7438 
000001a0 292031202900 
000001a6 01            12861 	.byte	1
000001a7 0c            12862 	.byte	12
000001a8 63526164506f  12863 	.strz	"cRadPosHL ( (uint8) 2 )"
000001ae 73484c202820 
000001b4 2875696e7438 
000001ba 292032202900 
000001c0 01            12864 	.byte	1
000001c1 0d            12865 	.byte	13
000001c2 63526164506f  12866 	.strz	"cRadPosHR ( (uint8) 3 )"
000001c8 734852202820 
000001ce 2875696e7438 
000001d4 292033202900 
000001da 01            12867 	.byte	1
000001db 0e            12868 	.byte	14
000001dc 63526164506f  12869 	.strz	"cRadPosRR ( (uint8) 4 )"
000001e2 735252202820 
000001e8 2875696e7438 
000001ee 292034202900 
000001f4 04            12870 	.byte	4
000001f5 04            12871 	.byte	4
000001f6 03            12872 	.byte	3
000001f7 07            12873 	.byte	7
000001f8 10            12874 	.byte	16
000001f9 01            12875 	.byte	1
000001fa 08            12876 	.byte	8
000001fb 635a5547454f  12877 	.strz	"cZUGEORDNET ((uint16) 0x0010)"
00000201 52444e455420 
00000207 282875696e74 
0000020d 313629203078 
00000213 303031302900 
00000219 04            12878 	.byte	4
0000021a 03            12879 	.byte	3
0000021b 08            12880 	.byte	8
0000021c 11            12881 	.byte	17
0000021d 03            12882 	.byte	3
0000021e 05            12883 	.byte	5
0000021f 12            12884 	.byte	18
00000220 01            12885 	.byte	1
00000221 0f            12886 	.byte	15
00000222 634d6178414b  12887 	.strz	"cMaxAK35DataBytes 14U"
00000228 333544617461 
0000022e 427974657320 
00000234 31345500 
00000238 04            12888 	.byte	4
00000239 04            12889 	.byte	4
0000023a 03            12890 	.byte	3
0000023b 09            12891 	.byte	9
0000023c 13            12892 	.byte	19
0000023d 01            12893 	.byte	1
0000023e 2d            12894 	.byte	45
0000023f 6353756d5745  12895 	.strz	"cSumWE 8"
00000245 203800 
00000248 01            12896 	.byte	1
00000249 2e            12897 	.byte	46

                                                                      Page 235
                                                              C:\Users\nhuliyap\AppData\Local\Temp\gh_0000ds81.s
0000024a 634d61784c52  12898 	.strz	"cMaxLR 4"
00000250 203400 
00000253 01            12899 	.byte	1
00000254 47            12900 	.byte	71
00000255 756345435550  12901 	.strz	"ucECUPosFront (unsigned char) 0x55"
0000025b 6f7346726f6e 
00000261 742028756e73 
00000267 69676e656420 
0000026d 636861722920 
00000273 3078353500 
00000278 01            12902 	.byte	1
00000279 48            12903 	.byte	72
0000027a 756345435550  12904 	.strz	"ucECUPosRear (unsigned char) 0xAA"
00000280 6f7352656172 
00000286 2028756e7369 
0000028c 676e65642063 
00000292 686172292030 
00000298 78414100 
0000029c 01            12905 	.byte	1
0000029d 49            12906 	.byte	73
0000029e 756345435550  12907 	.strz	"ucECUPosNeutral (unsigned char) 0xFF"
000002a4 6f734e657574 
000002aa 72616c202875 
000002b0 6e7369676e65 
000002b6 642063686172 
000002bc 292030784646 
000002c2 00 
000002c3 01            12908 	.byte	1
000002c4 7b            12909 	.byte	123
000002c5 4650412000    12910 	.strz	"FPA "
000002ca 01            12911 	.byte	1
000002cb 7c            12912 	.byte	124
000002cc 4142535f5465  12913 	.strz	"ABS_Test_LOG_ENABLE "
000002d2 73745f4c4f47 
000002d8 5f454e41424c 
000002de 452000 
000002e1 04            12914 	.byte	4
000002e2 03            12915 	.byte	3
000002e3 0a            12916 	.byte	10
000002e4 14            12917 	.byte	20
000002e5 03            12918 	.byte	3
000002e6 07            12919 	.byte	7
000002e7 15            12920 	.byte	21
000002e8 01            12921 	.byte	1
000002e9 4b            12922 	.byte	75
000002ea 756350526573  12923 	.strz	"ucPResInMBarc 25"
000002f0 496e4d426172 
000002f6 6320323500 
000002fb 04            12924 	.byte	4
000002fc 01            12925 	.byte	1
000002fd 66            12926 	.byte	102
000002fe 455f45555f4b  12927 	.strz	"E_EU_KO_LEG ((uint8)0x01)"
00000304 4f5f4c454720 
0000030a 282875696e74 
00000310 382930783031 
00000316 2900 
00000318 01            12928 	.byte	1
00000319 67            12929 	.byte	103
0000031a 455f55535f4c  12930 	.strz	"E_US_LEG_NON_EXTRA_LOAD_TIRES ((uint8)0x02)"
00000320 45475f4e4f4e 
00000326 5f4558545241 

                                                                      Page 236
                                                              C:\Users\nhuliyap\AppData\Local\Temp\gh_0000ds81.s
0000032c 5f4c4f41445f 
00000332 544952455320 
00000338 282875696e74 
0000033e 382930783032 
00000344 2900 
00000346 01            12931 	.byte	1
00000347 68            12932 	.byte	104
00000348 455f55535f4c  12933 	.strz	"E_US_LEG_EXTRA_LOAD_TIRES ((uint8)0x03)"
0000034e 45475f455854 
00000354 52415f4c4f41 
0000035a 445f54495245 
00000360 532028287569 
00000366 6e7438293078 
0000036c 30332900 
00000370 01            12934 	.byte	1
00000371 69            12935 	.byte	105
00000372 455f5052435f  12936 	.strz	"E_PRC_LEG ((uint8)0x04)"
00000378 4c4547202828 
0000037e 75696e743829 
00000384 307830342900 
0000038a 01            12937 	.byte	1
0000038b c301          12938 	.byte	195,1
0000038d 75385f45555f  12939 	.strz	"u8_EU_MinPrs_mBar ((uint16) 1500U)"
00000393 4d696e507273 
00000399 5f6d42617220 
0000039f 282875696e74 
000003a5 313629203135 
000003ab 3030552900 
000003b0 01            12940 	.byte	1
000003b1 c401          12941 	.byte	196,1
000003b3 75385f45555f  12942 	.strz	"u8_EU_MinPrs_digits ((uint8) (u8_EU_MinPrs_mBar / ucPResInMBarc))"
000003b9 4d696e507273 
000003bf 5f6469676974 
000003c5 732028287569 
000003cb 6e7438292028 
000003d1 75385f45555f 
000003d7 4d696e507273 
000003dd 5f6d42617220 
000003e3 2f2075635052 
000003e9 6573496e4d42 
000003ef 617263292900 
000003f5 01            12943 	.byte	1
000003f6 c501          12944 	.byte	197,1
000003f8 75385f45555f  12945 	.strz	"u8_EU_Offroad_Press_mBar ((uint16) 1600U)"
000003fe 4f6666726f61 
00000404 645f50726573 
0000040a 735f6d426172 
00000410 20282875696e 
00000416 743136292031 
0000041c 363030552900 
00000422 01            12946 	.byte	1
00000423 c601          12947 	.byte	198,1
00000425 75385f45555f  12948 	.strz	"u8_EU_Offroad_Press_digits ((uint8) (u8_EU_Offroad_Press_mBar / ucPResInMBarc))"
0000042b 4f6666726f61 
00000431 645f50726573 
00000437 735f64696769 
0000043d 747320282875 
00000443 696e74382920 
00000449 2875385f4555 
0000044f 5f4f6666726f 
00000455 61645f507265 

                                                                      Page 237
                                                              C:\Users\nhuliyap\AppData\Local\Temp\gh_0000ds81.s
0000045b 73735f6d4261 
00000461 72202f207563 
00000467 50526573496e 
0000046d 4d4261726329 
00000473 2900 
00000475 01            12949 	.byte	1
00000476 c801          12950 	.byte	200,1
00000478 75385f55535f  12951 	.strz	"u8_US_NonExtra_MinPrs_mBar ((uint16) 1400U)"
0000047e 4e6f6e457874 
00000484 72615f4d696e 
0000048a 5072735f6d42 
00000490 617220282875 
00000496 696e74313629 
0000049c 203134303055 
000004a2 2900 
000004a4 01            12952 	.byte	1
000004a5 c901          12953 	.byte	201,1
000004a7 75385f55535f  12954 	.strz	"u8_US_Extra_MinPrs_mBar ((uint16) 1600U)"
000004ad 45787472615f 
000004b3 4d696e507273 
000004b9 5f6d42617220 
000004bf 282875696e74 
000004c5 313629203136 
000004cb 3030552900 
000004d0 01            12955 	.byte	1
000004d1 ca01          12956 	.byte	202,1
000004d3 75385f55535f  12957 	.strz	"u8_US_NonExtra_MinPrs_digits ((uint8) (u8_US_NonExtra_MinPrs_mBar / ucPResInMBarc))"
000004d9 4e6f6e457874 
000004df 72615f4d696e 
000004e5 5072735f6469 
000004eb 676974732028 
000004f1 2875696e7438 
000004f7 29202875385f 
000004fd 55535f4e6f6e 
00000503 45787472615f 
00000509 4d696e507273 
0000050f 5f6d42617220 
00000515 2f2075635052 
0000051b 6573496e4d42 
00000521 617263292900 
00000527 01            12958 	.byte	1
00000528 cb01          12959 	.byte	203,1
0000052a 75385f55535f  12960 	.strz	"u8_US_Extra_MinPrs_digits ((uint8) (u8_US_Extra_MinPrs_mBar / ucPResInMBarc))"
00000530 45787472615f 
00000536 4d696e507273 
0000053c 5f6469676974 
00000542 732028287569 
00000548 6e7438292028 
0000054e 75385f55535f 
00000554 45787472615f 
0000055a 4d696e507273 
00000560 5f6d42617220 
00000566 2f2075635052 
0000056c 6573496e4d42 
00000572 617263292900 
00000578 01            12961 	.byte	1
00000579 cc01          12962 	.byte	204,1
0000057b 75385f55535f  12963 	.strz	"u8_US_NonExtra_Offroad_Press_mBar ((uint16) 1600U)"
00000581 4e6f6e457874 
00000587 72615f4f6666 
0000058d 726f61645f50 

                                                                      Page 238
                                                              C:\Users\nhuliyap\AppData\Local\Temp\gh_0000ds81.s
00000593 726573735f6d 
00000599 426172202828 
0000059f 75696e743136 
000005a5 292031363030 
000005ab 552900 
000005ae 01            12964 	.byte	1
000005af cd01          12965 	.byte	205,1
000005b1 75385f55535f  12966 	.strz	"u8_US_Extra_Offroad_Press_mBar ((uint16) 1800U)"
000005b7 45787472615f 
000005bd 4f6666726f61 
000005c3 645f50726573 
000005c9 735f6d426172 
000005cf 20282875696e 
000005d5 743136292031 
000005db 383030552900 
000005e1 01            12967 	.byte	1
000005e2 ce01          12968 	.byte	206,1
000005e4 75385f55735f  12969 	.strz	"u8_Us_NonExtra_Offroad_Press_digits ((uint8) (u8_US_NonExtra_Offroad_Press_mBar / ucPResInMBarc))"
000005ea 4e6f6e457874 
000005f0 72615f4f6666 
000005f6 726f61645f50 
000005fc 726573735f64 
00000602 696769747320 
00000608 282875696e74 
0000060e 382920287538 
00000614 5f55535f4e6f 
0000061a 6e4578747261 
00000620 5f4f6666726f 
00000626 61645f507265 
0000062c 73735f6d4261 
00000632 72202f207563 
00000638 50526573496e 
0000063e 4d4261726329 
00000644 2900 
00000646 01            12970 	.byte	1
00000647 cf01          12971 	.byte	207,1
00000649 75385f55735f  12972 	.strz	"u8_Us_Extra_Offroad_Press_digits ((uint8) (u8_US_Extra_Offroad_Press_mBar / ucPResInMBarc))"
0000064f 45787472615f 
00000655 4f6666726f61 
0000065b 645f50726573 
00000661 735f64696769 
00000667 747320282875 
0000066d 696e74382920 
00000673 2875385f5553 
00000679 5f4578747261 
0000067f 5f4f6666726f 
00000685 61645f507265 
0000068b 73735f6d4261 
00000691 72202f207563 
00000697 50526573496e 
0000069d 4d4261726329 
000006a3 2900 
000006a5 01            12973 	.byte	1
000006a6 d801          12974 	.byte	216,1
000006a8 75385f505243  12975 	.strz	"u8_PRC_MinPrs_mBar ((uint16) 1500U)"
000006ae 5f4d696e5072 
000006b4 735f6d426172 
000006ba 20282875696e 
000006c0 743136292031 
000006c6 353030552900 
000006cc 01            12976 	.byte	1

                                                                      Page 239
                                                              C:\Users\nhuliyap\AppData\Local\Temp\gh_0000ds81.s
000006cd db01          12977 	.byte	219,1
000006cf 75385f505243  12978 	.strz	"u8_PRC_MinPrs_digits ((uint8) (u8_PRC_MinPrs_mBar / ucPResInMBarc))"
000006d5 5f4d696e5072 
000006db 735f64696769 
000006e1 747320282875 
000006e7 696e74382920 
000006ed 2875385f5052 
000006f3 435f4d696e50 
000006f9 72735f6d4261 
000006ff 72202f207563 
00000705 50526573496e 
0000070b 4d4261726329 
00000711 2900 
00000713 01            12979 	.byte	1
00000714 dc01          12980 	.byte	220,1
00000716 75385f505243  12981 	.strz	"u8_PRC_Offroad_Press_mBar ((uint16) 1600U)"
0000071c 5f4f6666726f 
00000722 61645f507265 
00000728 73735f6d4261 
0000072e 722028287569 
00000734 6e7431362920 
0000073a 313630305529 
00000740 00 
00000741 01            12982 	.byte	1
00000742 dd01          12983 	.byte	221,1
00000744 75385f505243  12984 	.strz	"u8_PRC_Offroad_Press_digits ((uint8) (u8_PRC_Offroad_Press_mBar / ucPResInMBarc))"
0000074a 5f4f6666726f 
00000750 61645f507265 
00000756 73735f646967 
0000075c 697473202828 
00000762 75696e743829 
00000768 202875385f50 
0000076e 52435f4f6666 
00000774 726f61645f50 
0000077a 726573735f6d 
00000780 426172202f20 
00000786 756350526573 
0000078c 496e4d426172 
00000792 63292900 
00000796 04            12985 	.byte	4
00000797 03            12986 	.byte	3
00000798 0b            12987 	.byte	11
00000799 16            12988 	.byte	22
0000079a 01            12989 	.byte	1
0000079b 58            12990 	.byte	88
0000079c 7563506f7249  12991 	.strz	"ucPorInitc 1"
000007a2 6e6974632031 
000007a8 00 
000007a9 01            12992 	.byte	1
000007aa 5b            12993 	.byte	91
000007ab 756344696167  12994 	.strz	"ucDiagServicec 4"
000007b1 536572766963 
000007b7 6563203400 
000007bc 01            12995 	.byte	1
000007bd 64            12996 	.byte	100
000007be 756352657365  12997 	.strz	"ucResetWarnVectorc 14"
000007c4 745761726e56 
000007ca 6563746f7263 
000007d0 20313400 
000007d4 04            12998 	.byte	4
000007d5 03            12999 	.byte	3

                                                                      Page 240
                                                              C:\Users\nhuliyap\AppData\Local\Temp\gh_0000ds81.s
000007d6 0c            13000 	.byte	12
000007d7 17            13001 	.byte	23
000007d8 04            13002 	.byte	4
000007d9 03            13003 	.byte	3
000007da 0d            13004 	.byte	13
000007db 18            13005 	.byte	24
000007dc 01            13006 	.byte	1
000007dd 1f            13007 	.byte	31
000007de 635741506172  13008 	.strz	"cWAParameter 3U"
000007e4 616d65746572 
000007ea 20335500 
000007ee 01            13009 	.byte	1
000007ef 20            13010 	.byte	32
000007f0 635741414253  13011 	.strz	"cWAABSTicksInOneRevolution 4U"
000007f6 5469636b7349 
000007fc 6e4f6e655265 
00000802 766f6c757469 
00000808 6f6e20345500 
0000080e 04            13012 	.byte	4
0000080f 03            13013 	.byte	3
00000810 0e            13014 	.byte	14
00000811 19            13015 	.byte	25
00000812 04            13016 	.byte	4
00000813 03            13017 	.byte	3
00000814 0f            13018 	.byte	15
00000815 1a            13019 	.byte	26
00000816 04            13020 	.byte	4
00000817 03            13021 	.byte	3
00000818 10            13022 	.byte	16
00000819 1b            13023 	.byte	27
0000081a 04            13024 	.byte	4
0000081b 03            13025 	.byte	3
0000081c 11            13026 	.byte	17
0000081d 1c            13027 	.byte	28
0000081e 04            13028 	.byte	4
0000081f 03            13029 	.byte	3
00000820 13            13030 	.byte	19
00000821 1d            13031 	.byte	29
00000822 01            13032 	.byte	1
00000823 08            13033 	.byte	8
00000824 454f4c5f524f  13034 	.strz	"EOL_ROUT_NEVER_STARTED 0x00U"
0000082a 55545f4e4556 
00000830 45525f535441 
00000836 525445442030 
0000083c 7830305500 
00000841 01            13035 	.byte	1
00000842 0b            13036 	.byte	11
00000843 454f4c5f524f  13037 	.strz	"EOL_ROUT_RESERVED 0x03U"
00000849 55545f524553 
0000084f 455256454420 
00000855 307830335500 
0000085b 01            13038 	.byte	1
0000085c 0e            13039 	.byte	14
0000085d 454f4c5f524f  13040 	.strz	"EOL_ROUT_ENDED_WITH_ERROR 0x07U"
00000863 55545f454e44 
00000869 45445f574954 
0000086f 485f4552524f 
00000875 522030783037 
0000087b 5500 
0000087d 04            13041 	.byte	4
0000087e 01            13042 	.byte	1

                                                                      Page 241
                                                              C:\Users\nhuliyap\AppData\Local\Temp\gh_0000ds81.s
0000087f 15            13043 	.byte	21
00000880 444941475f5f  13044 	.strz	"DIAG__TEMPERATURE_OFFSET_FOR_UNSIGNED ((sint8)40)"
00000886 54454d504552 
0000088c 41545552455f 
00000892 4f4646534554 
00000898 5f464f525f55 
0000089e 4e5349474e45 
000008a4 442028287369 
000008aa 6e7438293430 
000008b0 2900 
000008b2 01            13045 	.byte	1
000008b3 18            13046 	.byte	24
000008b4 444941475f5f  13047 	.strz	"DIAG__CU8_POSITIVE_RESPONSE ((uint8)0x00)"
000008ba 4355385f504f 
000008c0 534954495645 
000008c6 5f524553504f 
000008cc 4e5345202828 
000008d2 75696e743829 
000008d8 307830302900 
000008de 01            13048 	.byte	1
000008df 19            13049 	.byte	25
000008e0 444941475f5f  13050 	.strz	"DIAG__CU8_NEG_RES_INVALID_FORMAT ((uint8)0x13)"
000008e6 4355385f4e45 
000008ec 475f5245535f 
000008f2 494e56414c49 
000008f8 445f464f524d 
000008fe 415420282875 
00000904 696e74382930 
0000090a 7831332900 
0000090f 01            13051 	.byte	1
00000910 1c            13052 	.byte	28
00000911 444941475f5f  13053 	.strz	"DIAG__CU8_NEG_RES_CONDITIONS_NOT_CORRECT ((uint8)0x22)"
00000917 4355385f4e45 
0000091d 475f5245535f 
00000923 434f4e444954 
00000929 494f4e535f4e 
0000092f 4f545f434f52 
00000935 524543542028 
0000093b 2875696e7438 
00000941 293078323229 
00000947 00 
00000948 01            13054 	.byte	1
00000949 1d            13055 	.byte	29
0000094a 444941475f5f  13056 	.strz	"DIAG__CU8_NEG_RES_REQUEST_OUT_OF_RANGE ((uint8)0x31)"
00000950 4355385f4e45 
00000956 475f5245535f 
0000095c 524551554553 
00000962 545f4f55545f 
00000968 4f465f52414e 
0000096e 474520282875 
00000974 696e74382930 
0000097a 7833312900 
0000097f 01            13057 	.byte	1
00000980 1f            13058 	.byte	31
00000981 444941475f5f  13059 	.strz	"DIAG__CU8_ROUTINESTARTSTOP_LENGTH ((uint8)0x01)"
00000987 4355385f524f 
0000098d 5554494e4553 
00000993 544152545354 
00000999 4f505f4c454e 
0000099f 475448202828 
000009a5 75696e743829 

                                                                      Page 242
                                                              C:\Users\nhuliyap\AppData\Local\Temp\gh_0000ds81.s
000009ab 307830312900 
000009b1 01            13060 	.byte	1
000009b2 20            13061 	.byte	32
000009b3 444941475f5f  13062 	.strz	"DIAG__CU8_ROUTINERESULT_LENGTH ((uint8)0x00)"
000009b9 4355385f524f 
000009bf 5554494e4552 
000009c5 4553554c545f 
000009cb 4c454e475448 
000009d1 20282875696e 
000009d7 743829307830 
000009dd 302900 
000009e0 01            13063 	.byte	1
000009e1 22            13064 	.byte	34
000009e2 444941475f5f  13065 	.strz	"DIAG__CU8_ROUTINESTOP ((uint8)0x00)"
000009e8 4355385f524f 
000009ee 5554494e4553 
000009f4 544f50202828 
000009fa 75696e743829 
00000a00 307830302900 
00000a06 04            13066 	.byte	4
00000a07 00            13067 	.byte	0
                       13068 	.section	.debug_abbrev
000001aa 00            13069 	.byte	0
                       13070 	.section	.debug_info
                       13071 .Ldw_end:
                       13072 .rh850_flags REGMODE32,DATA_ALIGN8,GP_FIX,EP_NONFIX,TP_FIX,REG2_RESERVE,G3K,GHS_MISALIGN,SDA_EXTRA_REGS_0
